(dp1
S'body'
p2
(dp3
S'type'
p4
S'text'
p5
sS'sortable'
p6
I3
sS'sql'
p7
S'TEXT'
p8
ssS'created_on'
p9
(dp10
g4
S'datetime'
p11
sg6
I4
sg7
S'TIMESTAMP'
p12
ssS'created_by'
p13
(dp14
g4
S'reference auth_user'
p15
sg6
I5
sg7
S'INTEGER REFERENCES auth_user(id) ON DELETE CASCADE'
p16
ssS'id'
p17
(dp18
g4
g17
sg6
I1
sg7
S'INTEGER PRIMARY KEY AUTOINCREMENT'
p19
ssS'code_id'
p20
(dp21
g4
S'reference code'
p22
sg6
I2
sg7
S'INTEGER REFERENCES code(id) ON DELETE CASCADE'
p23
ss.