(dp1
S'output'
p2
S"<type 'exceptions.NameError'> global name 'message' is not defined"
p3
sS'layer'
p4
S'C:\\web2py\\applications\\unioeste_code\\controllers/default.py'
p5
sS'code'
p6
S'# -*- coding: utf-8 -*-\n# this file is released under public domain and you can use without limitations\n\n#########################################################################\n## This is a samples controller\n## - index is the default action of any application\n## - user is required for authentication and authorization\n## - download is for downloading files uploaded in the db (does streaming)\n## - call exposes all registered services (none by default)\n#########################################################################\n\ndef index():\n    problems = db().select(db.problem.ALL, orderby = db.problem.title)\n    return dict(problems=problems)\n\n@auth.requires_login()\ndef Problem():\n    problem = db(db.problem.id==request.args(0)).select().first()\n    db.code.problem_id.default = problem.id\n    form = SQLFORM(db.code)\n    if form.process().accepted:\n        response.flash = T(\'Your code has been posted\')\n    codes = db(db.code.problem_id == problem.id).select()    \n    return dict(problem=problem, codes=codes, form=form)\n\n@auth.requires_login()\ndef Code():\n    code = db(db.code.id == request.args(0)).select().first()\n    db.comment.code_id.default = code.id\n    form = SQLFORM(db.comment)\n    if form.process().accepted:\n        response.flash = T(\'Your comment has been posted\')\n    return dict(message=message)\n\n@auth.requires_membership(\'manager\')\ndef manageCode():\n    grid = SQLFORM.smartgrid(db.code)\n    return dict(grid=grid)\n\ndef user():\n    """\n    exposes:\n    http://..../[app]/default/user/login\n    http://..../[app]/default/user/logout\n    http://..../[app]/default/user/register\n    http://..../[app]/default/user/profile\n    http://..../[app]/default/user/retrieve_password\n    http://..../[app]/default/user/change_password\n    use @auth.requires_login()\n        @auth.requires_membership(\'group name\')\n        @auth.requires_permission(\'read\',\'table name\',record_id)\n    to decorate functions that need access control\n    """\n    return dict(form=auth())\n\n\ndef download():\n    """\n    allows downloading of uploaded files\n    http://..../[app]/default/download/[filename]\n    """\n    return response.download(request,db)\n\n\ndef call():\n    """\n    exposes services. for example:\n    http://..../[app]/default/call/jsonrpc\n    decorate with @services.jsonrpc the functions to expose\n    supports xml, json, xmlrpc, jsonrpc, amfrpc, rss, csv\n    """\n    return service()\n\n\n@auth.requires_signature()\ndef data():\n    """\n    http://..../[app]/default/data/tables\n    http://..../[app]/default/data/create/[table]\n    http://..../[app]/default/data/read/[table]/[id]\n    http://..../[app]/default/data/update/[table]/[id]\n    http://..../[app]/default/data/delete/[table]/[id]\n    http://..../[app]/default/data/select/[table]\n    http://..../[app]/default/data/search/[table]\n    but URLs must be signed, i.e. linked with\n      A(\'table\',_href=URL(\'data/tables\',user_signature=True))\n    or with the signed load operator\n      LOAD(\'default\',\'data.load\',args=\'tables\',ajax=True,user_signature=True)\n    """\n    return dict(form=crud())\n\n\nresponse._vars=response._caller(Code)\n'
p7
sS'snapshot'
p8
(dp9
S'exception'
p10
(dp11
S'__hash__'
p12
S"<method-wrapper '__hash__' of exceptions.NameError object at 0x06152D50>"
p13
sS'__setattr__'
p14
S"<method-wrapper '__setattr__' of exceptions.NameError object at 0x06152D50>"
p15
sS'__reduce_ex__'
p16
S'<built-in method __reduce_ex__ of exceptions.NameError object at 0x06152D50>'
p17
sS'__getslice__'
p18
S"<method-wrapper '__getslice__' of exceptions.NameError object at 0x06152D50>"
p19
sS'__getitem__'
p20
S"<method-wrapper '__getitem__' of exceptions.NameError object at 0x06152D50>"
p21
sS'__setstate__'
p22
S'<built-in method __setstate__ of exceptions.NameError object at 0x06152D50>'
p23
sS'__reduce__'
p24
S'<built-in method __reduce__ of exceptions.NameError object at 0x06152D50>'
p25
sS'__str__'
p26
S"<method-wrapper '__str__' of exceptions.NameError object at 0x06152D50>"
p27
sS'args'
p28
S'("global name \'message\' is not defined",)'
p29
sS'__getattribute__'
p30
S"<method-wrapper '__getattribute__' of exceptions.NameError object at 0x06152D50>"
p31
sS'__class__'
p32
S"<type 'exceptions.NameError'>"
p33
sS'__delattr__'
p34
S"<method-wrapper '__delattr__' of exceptions.NameError object at 0x06152D50>"
p35
sS'__repr__'
p36
S"<method-wrapper '__repr__' of exceptions.NameError object at 0x06152D50>"
p37
sS'__dict__'
p38
S'{}'
p39
sS'__doc__'
p40
S"'Name not found globally.'"
p41
sS'__init__'
p42
S"<method-wrapper '__init__' of exceptions.NameError object at 0x06152D50>"
p43
sS'__new__'
p44
S'<built-in method __new__ of type object at 0x1E1CD8D8>'
p45
ssS'evalue'
p46
S"global name 'message' is not defined"
p47
sS'request'
p48
ccopy_reg
_reconstructor
p49
(cgluon.html
BEAUTIFY
p50
c__builtin__
object
p51
NtRp52
(dp53
S'attributes'
p54
(dp55
sS'components'
p56
(lp57
g49
(cgluon.html
TABLE
p58
g51
NtRp59
(dp60
g54
(dp61
S'level'
p62
I5
ssS'parent'
p63
Nsg56
(lp64
g49
(cgluon.html
TR
p65
g51
NtRp66
(dp67
g54
(dp68
sg63
g59
sg56
(lp69
g49
(cgluon.html
TD
p70
g51
NtRp71
(dp72
g54
(dp73
S'_style'
p74
S'font-weight:bold;vertical-align:top'
p75
ssg63
g66
sg56
(lp76
S'ajax'
p77
asbag49
(g70
g51
NtRp78
(dp79
g54
(dp80
S'_valign'
p81
S'top'
p82
ssg63
g66
sg56
(lp83
S':'
asbag49
(g70
g51
NtRp84
(dp85
g54
(dp86
sg63
g66
sg56
(lp87
g49
(g50
g51
NtRp88
(dp89
g54
(dp90
g62
I5
ssg63
g84
sg56
(lp91
S'False'
p92
asbasbasbag49
(g65
g51
NtRp93
(dp94
g54
(dp95
sg63
g59
sg56
(lp96
g49
(g70
g51
NtRp97
(dp98
g54
(dp99
g74
g75
ssg63
g93
sg56
(lp100
S'application'
p101
asbag49
(g70
g51
NtRp102
(dp103
g54
(dp104
g81
g82
ssg63
g93
sg56
(lp105
S':'
asbag49
(g70
g51
NtRp106
(dp107
g54
(dp108
sg63
g93
sg56
(lp109
g49
(g50
g51
NtRp110
(dp111
g54
(dp112
g62
I5
ssg63
g106
sg56
(lp113
S'unioeste_code'
p114
asbasbasbag49
(g65
g51
NtRp115
(dp116
g54
(dp117
sg63
g59
sg56
(lp118
g49
(g70
g51
NtRp119
(dp120
g54
(dp121
g74
g75
ssg63
g115
sg56
(lp122
g28
asbag49
(g70
g51
NtRp123
(dp124
g54
(dp125
g81
g82
ssg63
g115
sg56
(lp126
S':'
asbag49
(g70
g51
NtRp127
(dp128
g54
(dp129
sg63
g115
sg56
(lp130
g49
(g50
g51
NtRp131
(dp132
g54
(dp133
g62
I5
ssg63
g127
sg56
(lp134
g49
(g58
g51
NtRp135
(dp136
g54
(dp137
g62
I4
ssg63
Nsg56
(lp138
g49
(g65
g51
NtRp139
(dp140
g54
(dp141
sg63
g135
sg56
(lp142
g49
(g70
g51
NtRp143
(dp144
g54
(dp145
sg63
g139
sg56
(lp146
g49
(g50
g51
NtRp147
(dp148
g54
(dp149
g62
I4
ssg63
g143
sg56
(lp150
S'2'
asbasbasbasbasbasbasbag49
(g65
g51
NtRp151
(dp152
g54
(dp153
sg63
g59
sg56
(lp154
g49
(g70
g51
NtRp155
(dp156
g54
(dp157
g74
g75
ssg63
g151
sg56
(lp158
S'body'
p159
asbag49
(g70
g51
NtRp160
(dp161
g54
(dp162
g81
g82
ssg63
g151
sg56
(lp163
S':'
asbag49
(g70
g51
NtRp164
(dp165
g54
(dp166
sg63
g151
sg56
(lp167
g49
(g50
g51
NtRp168
(dp169
g54
(dp170
g62
I5
ssg63
g164
sg56
(lp171
S'<cStringIO.StringO object at 0x06AD3680>'
p172
asbasbasbag49
(g65
g51
NtRp173
(dp174
g54
(dp175
sg63
g59
sg56
(lp176
g49
(g70
g51
NtRp177
(dp178
g54
(dp179
g74
g75
ssg63
g173
sg56
(lp180
S'client'
p181
asbag49
(g70
g51
NtRp182
(dp183
g54
(dp184
g81
g82
ssg63
g173
sg56
(lp185
S':'
asbag49
(g70
g51
NtRp186
(dp187
g54
(dp188
sg63
g173
sg56
(lp189
g49
(g50
g51
NtRp190
(dp191
g54
(dp192
g62
I5
ssg63
g186
sg56
(lp193
S'127.0.0.1'
p194
asbasbasbag49
(g65
g51
NtRp195
(dp196
g54
(dp197
sg63
g59
sg56
(lp198
g49
(g70
g51
NtRp199
(dp200
g54
(dp201
g74
g75
ssg63
g195
sg56
(lp202
S'controller'
p203
asbag49
(g70
g51
NtRp204
(dp205
g54
(dp206
g81
g82
ssg63
g195
sg56
(lp207
S':'
asbag49
(g70
g51
NtRp208
(dp209
g54
(dp210
sg63
g195
sg56
(lp211
g49
(g50
g51
NtRp212
(dp213
g54
(dp214
g62
I5
ssg63
g208
sg56
(lp215
S'default'
p216
asbasbasbag49
(g65
g51
NtRp217
(dp218
g54
(dp219
sg63
g59
sg56
(lp220
g49
(g70
g51
NtRp221
(dp222
g54
(dp223
g74
g75
ssg63
g217
sg56
(lp224
S'cookies'
p225
asbag49
(g70
g51
NtRp226
(dp227
g54
(dp228
g81
g82
ssg63
g217
sg56
(lp229
S':'
asbag49
(g70
g51
NtRp230
(dp231
g54
(dp232
sg63
g217
sg56
(lp233
g49
(g50
g51
NtRp234
(dp235
g54
(dp236
g62
I5
ssg63
g230
sg56
(lp237
g49
(g58
g51
NtRp238
(dp239
g54
(dp240
g62
I4
ssg63
Nsg56
(lp241
g49
(g65
g51
NtRp242
(dp243
g54
(dp244
sg63
g238
sg56
(lp245
g49
(g70
g51
NtRp246
(dp247
g54
(dp248
g74
g75
ssg63
g242
sg56
(lp249
S'session_id_admin'
p250
asbag49
(g70
g51
NtRp251
(dp252
g54
(dp253
g81
g82
ssg63
g242
sg56
(lp254
S':'
asbag49
(g70
g51
NtRp255
(dp256
g54
(dp257
sg63
g242
sg56
(lp258
g49
(g50
g51
NtRp259
(dp260
g54
(dp261
g62
I4
ssg63
g255
sg56
(lp262
g49
(g58
g51
NtRp263
(dp264
g54
(dp265
g62
I3
ssg63
Nsg56
(lp266
g49
(g65
g51
NtRp267
(dp268
g54
(dp269
sg63
g263
sg56
(lp270
g49
(g70
g51
NtRp271
(dp272
g54
(dp273
g74
g75
ssg63
g267
sg56
(lp274
S'comment'
p275
asbag49
(g70
g51
NtRp276
(dp277
g54
(dp278
g81
g82
ssg63
g267
sg56
(lp279
S':'
asbag49
(g70
g51
NtRp280
(dp281
g54
(dp282
sg63
g267
sg56
(lp283
g49
(g50
g51
NtRp284
(dp285
g54
(dp286
g62
I3
ssg63
g280
sg56
(lp287
S''
asbasbasbag49
(g65
g51
NtRp288
(dp289
g54
(dp290
sg63
g263
sg56
(lp291
g49
(g70
g51
NtRp292
(dp293
g54
(dp294
g74
g75
ssg63
g288
sg56
(lp295
S'domain'
p296
asbag49
(g70
g51
NtRp297
(dp298
g54
(dp299
g81
g82
ssg63
g288
sg56
(lp300
S':'
asbag49
(g70
g51
NtRp301
(dp302
g54
(dp303
sg63
g288
sg56
(lp304
g49
(g50
g51
NtRp305
(dp306
g54
(dp307
g62
I3
ssg63
g301
sg56
(lp308
S''
asbasbasbag49
(g65
g51
NtRp309
(dp310
g54
(dp311
sg63
g263
sg56
(lp312
g49
(g70
g51
NtRp313
(dp314
g54
(dp315
g74
g75
ssg63
g309
sg56
(lp316
S'expires'
p317
asbag49
(g70
g51
NtRp318
(dp319
g54
(dp320
g81
g82
ssg63
g309
sg56
(lp321
S':'
asbag49
(g70
g51
NtRp322
(dp323
g54
(dp324
sg63
g309
sg56
(lp325
g49
(g50
g51
NtRp326
(dp327
g54
(dp328
g62
I3
ssg63
g322
sg56
(lp329
S''
asbasbasbag49
(g65
g51
NtRp330
(dp331
g54
(dp332
sg63
g263
sg56
(lp333
g49
(g70
g51
NtRp334
(dp335
g54
(dp336
g74
g75
ssg63
g330
sg56
(lp337
S'max-age'
p338
asbag49
(g70
g51
NtRp339
(dp340
g54
(dp341
g81
g82
ssg63
g330
sg56
(lp342
S':'
asbag49
(g70
g51
NtRp343
(dp344
g54
(dp345
sg63
g330
sg56
(lp346
g49
(g50
g51
NtRp347
(dp348
g54
(dp349
g62
I3
ssg63
g343
sg56
(lp350
S''
asbasbasbag49
(g65
g51
NtRp351
(dp352
g54
(dp353
sg63
g263
sg56
(lp354
g49
(g70
g51
NtRp355
(dp356
g54
(dp357
g74
g75
ssg63
g351
sg56
(lp358
S'path'
p359
asbag49
(g70
g51
NtRp360
(dp361
g54
(dp362
g81
g82
ssg63
g351
sg56
(lp363
S':'
asbag49
(g70
g51
NtRp364
(dp365
g54
(dp366
sg63
g351
sg56
(lp367
g49
(g50
g51
NtRp368
(dp369
g54
(dp370
g62
I3
ssg63
g364
sg56
(lp371
S''
asbasbasbag49
(g65
g51
NtRp372
(dp373
g54
(dp374
sg63
g263
sg56
(lp375
g49
(g70
g51
NtRp376
(dp377
g54
(dp378
g74
g75
ssg63
g372
sg56
(lp379
S'secure'
p380
asbag49
(g70
g51
NtRp381
(dp382
g54
(dp383
g81
g82
ssg63
g372
sg56
(lp384
S':'
asbag49
(g70
g51
NtRp385
(dp386
g54
(dp387
sg63
g372
sg56
(lp388
g49
(g50
g51
NtRp389
(dp390
g54
(dp391
g62
I3
ssg63
g385
sg56
(lp392
S''
asbasbasbag49
(g65
g51
NtRp393
(dp394
g54
(dp395
sg63
g263
sg56
(lp396
g49
(g70
g51
NtRp397
(dp398
g54
(dp399
g74
g75
ssg63
g393
sg56
(lp400
S'version'
p401
asbag49
(g70
g51
NtRp402
(dp403
g54
(dp404
g81
g82
ssg63
g393
sg56
(lp405
S':'
asbag49
(g70
g51
NtRp406
(dp407
g54
(dp408
sg63
g393
sg56
(lp409
g49
(g50
g51
NtRp410
(dp411
g54
(dp412
g62
I3
ssg63
g406
sg56
(lp413
S''
asbasbasbasbasbasbasbag49
(g65
g51
NtRp414
(dp415
g54
(dp416
sg63
g238
sg56
(lp417
g49
(g70
g51
NtRp418
(dp419
g54
(dp420
g74
g75
ssg63
g414
sg56
(lp421
S'session_id_unioeste_code'
p422
asbag49
(g70
g51
NtRp423
(dp424
g54
(dp425
g81
g82
ssg63
g414
sg56
(lp426
S':'
asbag49
(g70
g51
NtRp427
(dp428
g54
(dp429
sg63
g414
sg56
(lp430
g49
(g50
g51
NtRp431
(dp432
g54
(dp433
g62
I4
ssg63
g427
sg56
(lp434
g49
(g58
g51
NtRp435
(dp436
g54
(dp437
g62
I3
ssg63
Nsg56
(lp438
g49
(g65
g51
NtRp439
(dp440
g54
(dp441
sg63
g435
sg56
(lp442
g49
(g70
g51
NtRp443
(dp444
g54
(dp445
g74
g75
ssg63
g439
sg56
(lp446
g275
asbag49
(g70
g51
NtRp447
(dp448
g54
(dp449
g81
g82
ssg63
g439
sg56
(lp450
S':'
asbag49
(g70
g51
NtRp451
(dp452
g54
(dp453
sg63
g439
sg56
(lp454
g49
(g50
g51
NtRp455
(dp456
g54
(dp457
g62
I3
ssg63
g451
sg56
(lp458
S''
asbasbasbag49
(g65
g51
NtRp459
(dp460
g54
(dp461
sg63
g435
sg56
(lp462
g49
(g70
g51
NtRp463
(dp464
g54
(dp465
g74
g75
ssg63
g459
sg56
(lp466
g296
asbag49
(g70
g51
NtRp467
(dp468
g54
(dp469
g81
g82
ssg63
g459
sg56
(lp470
S':'
asbag49
(g70
g51
NtRp471
(dp472
g54
(dp473
sg63
g459
sg56
(lp474
g49
(g50
g51
NtRp475
(dp476
g54
(dp477
g62
I3
ssg63
g471
sg56
(lp478
S''
asbasbasbag49
(g65
g51
NtRp479
(dp480
g54
(dp481
sg63
g435
sg56
(lp482
g49
(g70
g51
NtRp483
(dp484
g54
(dp485
g74
g75
ssg63
g479
sg56
(lp486
g317
asbag49
(g70
g51
NtRp487
(dp488
g54
(dp489
g81
g82
ssg63
g479
sg56
(lp490
S':'
asbag49
(g70
g51
NtRp491
(dp492
g54
(dp493
sg63
g479
sg56
(lp494
g49
(g50
g51
NtRp495
(dp496
g54
(dp497
g62
I3
ssg63
g491
sg56
(lp498
S''
asbasbasbag49
(g65
g51
NtRp499
(dp500
g54
(dp501
sg63
g435
sg56
(lp502
g49
(g70
g51
NtRp503
(dp504
g54
(dp505
g74
g75
ssg63
g499
sg56
(lp506
g338
asbag49
(g70
g51
NtRp507
(dp508
g54
(dp509
g81
g82
ssg63
g499
sg56
(lp510
S':'
asbag49
(g70
g51
NtRp511
(dp512
g54
(dp513
sg63
g499
sg56
(lp514
g49
(g50
g51
NtRp515
(dp516
g54
(dp517
g62
I3
ssg63
g511
sg56
(lp518
S''
asbasbasbag49
(g65
g51
NtRp519
(dp520
g54
(dp521
sg63
g435
sg56
(lp522
g49
(g70
g51
NtRp523
(dp524
g54
(dp525
g74
g75
ssg63
g519
sg56
(lp526
g359
asbag49
(g70
g51
NtRp527
(dp528
g54
(dp529
g81
g82
ssg63
g519
sg56
(lp530
S':'
asbag49
(g70
g51
NtRp531
(dp532
g54
(dp533
sg63
g519
sg56
(lp534
g49
(g50
g51
NtRp535
(dp536
g54
(dp537
g62
I3
ssg63
g531
sg56
(lp538
S''
asbasbasbag49
(g65
g51
NtRp539
(dp540
g54
(dp541
sg63
g435
sg56
(lp542
g49
(g70
g51
NtRp543
(dp544
g54
(dp545
g74
g75
ssg63
g539
sg56
(lp546
g380
asbag49
(g70
g51
NtRp547
(dp548
g54
(dp549
g81
g82
ssg63
g539
sg56
(lp550
S':'
asbag49
(g70
g51
NtRp551
(dp552
g54
(dp553
sg63
g539
sg56
(lp554
g49
(g50
g51
NtRp555
(dp556
g54
(dp557
g62
I3
ssg63
g551
sg56
(lp558
S''
asbasbasbag49
(g65
g51
NtRp559
(dp560
g54
(dp561
sg63
g435
sg56
(lp562
g49
(g70
g51
NtRp563
(dp564
g54
(dp565
g74
g75
ssg63
g559
sg56
(lp566
g401
asbag49
(g70
g51
NtRp567
(dp568
g54
(dp569
g81
g82
ssg63
g559
sg56
(lp570
S':'
asbag49
(g70
g51
NtRp571
(dp572
g54
(dp573
sg63
g559
sg56
(lp574
g49
(g50
g51
NtRp575
(dp576
g54
(dp577
g62
I3
ssg63
g571
sg56
(lp578
S''
asbasbasbasbasbasbasbasbasbasbasbag49
(g65
g51
NtRp579
(dp580
g54
(dp581
sg63
g59
sg56
(lp582
g49
(g70
g51
NtRp583
(dp584
g54
(dp585
g74
g75
ssg63
g579
sg56
(lp586
S'env'
p587
asbag49
(g70
g51
NtRp588
(dp589
g54
(dp590
g81
g82
ssg63
g579
sg56
(lp591
S':'
asbag49
(g70
g51
NtRp592
(dp593
g54
(dp594
sg63
g579
sg56
(lp595
g49
(g50
g51
NtRp596
(dp597
g54
(dp598
g62
I5
ssg63
g592
sg56
(lp599
g49
(g58
g51
NtRp600
(dp601
g54
(dp602
g62
I4
ssg63
Nsg56
(lp603
g49
(g65
g51
NtRp604
(dp605
g54
(dp606
sg63
g600
sg56
(lp607
g49
(g70
g51
NtRp608
(dp609
g54
(dp610
g74
g75
ssg63
g604
sg56
(lp611
S'app_folders'
p612
asbag49
(g70
g51
NtRp613
(dp614
g54
(dp615
g81
g82
ssg63
g604
sg56
(lp616
S':'
asbag49
(g70
g51
NtRp617
(dp618
g54
(dp619
sg63
g604
sg56
(lp620
g49
(g50
g51
NtRp621
(dp622
g54
(dp623
g62
I4
ssg63
g617
sg56
(lp624
S"set(['C:\\\\web2py\\\\applications\\\\admin\\\\', 'C:\\\\web2py\\\\applications\\\\welcome\\\\', 'C:\\\\web2py\\\\applications\\\\unioeste_code\\\\'])"
p625
asbasbasbag49
(g65
g51
NtRp626
(dp627
g54
(dp628
sg63
g600
sg56
(lp629
g49
(g70
g51
NtRp630
(dp631
g54
(dp632
g74
g75
ssg63
g626
sg56
(lp633
S'applications_parent'
p634
asbag49
(g70
g51
NtRp635
(dp636
g54
(dp637
g81
g82
ssg63
g626
sg56
(lp638
S':'
asbag49
(g70
g51
NtRp639
(dp640
g54
(dp641
sg63
g626
sg56
(lp642
g49
(g50
g51
NtRp643
(dp644
g54
(dp645
g62
I4
ssg63
g639
sg56
(lp646
S'C:\\web2py'
p647
asbasbasbag49
(g65
g51
NtRp648
(dp649
g54
(dp650
sg63
g600
sg56
(lp651
g49
(g70
g51
NtRp652
(dp653
g54
(dp654
g74
g75
ssg63
g648
sg56
(lp655
S'cmd_args'
p656
asbag49
(g70
g51
NtRp657
(dp658
g54
(dp659
g81
g82
ssg63
g648
sg56
(lp660
S':'
asbag49
(g70
g51
NtRp661
(dp662
g54
(dp663
sg63
g648
sg56
(lp664
g49
(g50
g51
NtRp665
(dp666
g54
(dp667
g62
I4
ssg63
g661
sg56
(lp668
g49
(g58
g51
NtRp669
(dp670
g54
(dp671
g62
I3
ssg63
Nsg56
(lp672
sbasbasbasbag49
(g65
g51
NtRp673
(dp674
g54
(dp675
sg63
g600
sg56
(lp676
g49
(g70
g51
NtRp677
(dp678
g54
(dp679
g74
g75
ssg63
g673
sg56
(lp680
S'cmd_options'
p681
asbag49
(g70
g51
NtRp682
(dp683
g54
(dp684
g81
g82
ssg63
g673
sg56
(lp685
S':'
asbag49
(g70
g51
NtRp686
(dp687
g54
(dp688
sg63
g673
sg56
(lp689
g49
(g50
g51
NtRp690
(dp691
g54
(dp692
g62
I4
ssg63
g686
sg56
(lp693
S"<Values at 0x309c300: {'verbose': False, 'ip': '127.0.0.1', 'shutdown_timeout': 5, 'taskbar': False, 'nocron': False, 'pid_filename': 'httpserver.pid', 'maxthreads': None, 'softcron': False, 'server_name': 'Pedro-PC', 'bpython': False, 'nogui': False, 'port': 8000, 'extcron': False, 'debuglevel': 30, 'test': None, 'folder': 'C:\\\\web2py', 'config': '', 'import_models': False, 'winservice': '', 'shell': None, 'run': '', 'log_filename': 'httpserver.log', 'args': [''], 'socket_timeout': 5, 'ssl_ca_certificate': None, 'scheduler': None, 'profiler_filename': None, 'ssl_private_key': '', 'password': '<ask>', 'request_queue_size': 5, 'ssl_certificate': '', 'cronjob': False, 'numthreads': None, 'quiet': False, 'interfaces': None, 'minthreads': None, 'timeout': 10, 'plain': False, 'nobanner': False}>"
p694
asbasbasbag49
(g65
g51
NtRp695
(dp696
g54
(dp697
sg63
g600
sg56
(lp698
g49
(g70
g51
NtRp699
(dp700
g54
(dp701
g74
g75
ssg63
g695
sg56
(lp702
S'db_sessions'
p703
asbag49
(g70
g51
NtRp704
(dp705
g54
(dp706
g81
g82
ssg63
g695
sg56
(lp707
S':'
asbag49
(g70
g51
NtRp708
(dp709
g54
(dp710
sg63
g695
sg56
(lp711
g49
(g50
g51
NtRp712
(dp713
g54
(dp714
g62
I4
ssg63
g708
sg56
(lp715
S'set([])'
p716
asbasbasbag49
(g65
g51
NtRp717
(dp718
g54
(dp719
sg63
g600
sg56
(lp720
g49
(g70
g51
NtRp721
(dp722
g54
(dp723
g74
g75
ssg63
g717
sg56
(lp724
S'debugging'
p725
asbag49
(g70
g51
NtRp726
(dp727
g54
(dp728
g81
g82
ssg63
g717
sg56
(lp729
S':'
asbag49
(g70
g51
NtRp730
(dp731
g54
(dp732
sg63
g717
sg56
(lp733
g49
(g50
g51
NtRp734
(dp735
g54
(dp736
g62
I4
ssg63
g730
sg56
(lp737
g92
asbasbasbag49
(g65
g51
NtRp738
(dp739
g54
(dp740
sg63
g600
sg56
(lp741
g49
(g70
g51
NtRp742
(dp743
g54
(dp744
g74
g75
ssg63
g738
sg56
(lp745
S'gluon_parent'
p746
asbag49
(g70
g51
NtRp747
(dp748
g54
(dp749
g81
g82
ssg63
g738
sg56
(lp750
S':'
asbag49
(g70
g51
NtRp751
(dp752
g54
(dp753
sg63
g738
sg56
(lp754
g49
(g50
g51
NtRp755
(dp756
g54
(dp757
g62
I4
ssg63
g751
sg56
(lp758
S'C:\\web2py'
p759
asbasbasbag49
(g65
g51
NtRp760
(dp761
g54
(dp762
sg63
g600
sg56
(lp763
g49
(g70
g51
NtRp764
(dp765
g54
(dp766
g74
g75
ssg63
g760
sg56
(lp767
S'http_accept'
p768
asbag49
(g70
g51
NtRp769
(dp770
g54
(dp771
g81
g82
ssg63
g760
sg56
(lp772
S':'
asbag49
(g70
g51
NtRp773
(dp774
g54
(dp775
sg63
g760
sg56
(lp776
g49
(g50
g51
NtRp777
(dp778
g54
(dp779
g62
I4
ssg63
g773
sg56
(lp780
S'text/html,application/xhtml+xml,application/xml;q=0.9,*/*;q=0.8'
p781
asbasbasbag49
(g65
g51
NtRp782
(dp783
g54
(dp784
sg63
g600
sg56
(lp785
g49
(g70
g51
NtRp786
(dp787
g54
(dp788
g74
g75
ssg63
g782
sg56
(lp789
S'http_accept_charset'
p790
asbag49
(g70
g51
NtRp791
(dp792
g54
(dp793
g81
g82
ssg63
g782
sg56
(lp794
S':'
asbag49
(g70
g51
NtRp795
(dp796
g54
(dp797
sg63
g782
sg56
(lp798
g49
(g50
g51
NtRp799
(dp800
g54
(dp801
g62
I4
ssg63
g795
sg56
(lp802
S'ISO-8859-1,utf-8;q=0.7,*;q=0.3'
p803
asbasbasbag49
(g65
g51
NtRp804
(dp805
g54
(dp806
sg63
g600
sg56
(lp807
g49
(g70
g51
NtRp808
(dp809
g54
(dp810
g74
g75
ssg63
g804
sg56
(lp811
S'http_accept_encoding'
p812
asbag49
(g70
g51
NtRp813
(dp814
g54
(dp815
g81
g82
ssg63
g804
sg56
(lp816
S':'
asbag49
(g70
g51
NtRp817
(dp818
g54
(dp819
sg63
g804
sg56
(lp820
g49
(g50
g51
NtRp821
(dp822
g54
(dp823
g62
I4
ssg63
g817
sg56
(lp824
S'gzip,deflate,sdch'
p825
asbasbasbag49
(g65
g51
NtRp826
(dp827
g54
(dp828
sg63
g600
sg56
(lp829
g49
(g70
g51
NtRp830
(dp831
g54
(dp832
g74
g75
ssg63
g826
sg56
(lp833
S'http_accept_language'
p834
asbag49
(g70
g51
NtRp835
(dp836
g54
(dp837
g81
g82
ssg63
g826
sg56
(lp838
S':'
asbag49
(g70
g51
NtRp839
(dp840
g54
(dp841
sg63
g826
sg56
(lp842
g49
(g50
g51
NtRp843
(dp844
g54
(dp845
g62
I4
ssg63
g839
sg56
(lp846
S'pt-BR,pt;q=0.8,en-US;q=0.6,en;q=0.4'
p847
asbasbasbag49
(g65
g51
NtRp848
(dp849
g54
(dp850
sg63
g600
sg56
(lp851
g49
(g70
g51
NtRp852
(dp853
g54
(dp854
g74
g75
ssg63
g848
sg56
(lp855
S'http_connection'
p856
asbag49
(g70
g51
NtRp857
(dp858
g54
(dp859
g81
g82
ssg63
g848
sg56
(lp860
S':'
asbag49
(g70
g51
NtRp861
(dp862
g54
(dp863
sg63
g848
sg56
(lp864
g49
(g50
g51
NtRp865
(dp866
g54
(dp867
g62
I4
ssg63
g861
sg56
(lp868
S'keep-alive'
p869
asbasbasbag49
(g65
g51
NtRp870
(dp871
g54
(dp872
sg63
g600
sg56
(lp873
g49
(g70
g51
NtRp874
(dp875
g54
(dp876
g74
g75
ssg63
g870
sg56
(lp877
S'http_cookie'
p878
asbag49
(g70
g51
NtRp879
(dp880
g54
(dp881
g81
g82
ssg63
g870
sg56
(lp882
S':'
asbag49
(g70
g51
NtRp883
(dp884
g54
(dp885
sg63
g870
sg56
(lp886
g49
(g50
g51
NtRp887
(dp888
g54
(dp889
g62
I4
ssg63
g883
sg56
(lp890
S'session_id_admin=127.0.0.1-5b5708ff-f236-440a-9e31-904908de9b24; session_id_unioeste_code=127.0.0.1-ac0e57bf-2a61-4ff7-b75a-c2e830b4787a'
p891
asbasbasbag49
(g65
g51
NtRp892
(dp893
g54
(dp894
sg63
g600
sg56
(lp895
g49
(g70
g51
NtRp896
(dp897
g54
(dp898
g74
g75
ssg63
g892
sg56
(lp899
S'http_dnt'
p900
asbag49
(g70
g51
NtRp901
(dp902
g54
(dp903
g81
g82
ssg63
g892
sg56
(lp904
S':'
asbag49
(g70
g51
NtRp905
(dp906
g54
(dp907
sg63
g892
sg56
(lp908
g49
(g50
g51
NtRp909
(dp910
g54
(dp911
g62
I4
ssg63
g905
sg56
(lp912
S'1'
asbasbasbag49
(g65
g51
NtRp913
(dp914
g54
(dp915
sg63
g600
sg56
(lp916
g49
(g70
g51
NtRp917
(dp918
g54
(dp919
g74
g75
ssg63
g913
sg56
(lp920
S'http_host'
p921
asbag49
(g70
g51
NtRp922
(dp923
g54
(dp924
g81
g82
ssg63
g913
sg56
(lp925
S':'
asbag49
(g70
g51
NtRp926
(dp927
g54
(dp928
sg63
g913
sg56
(lp929
g49
(g50
g51
NtRp930
(dp931
g54
(dp932
g62
I4
ssg63
g926
sg56
(lp933
S'localhost:8000'
p934
asbasbasbag49
(g65
g51
NtRp935
(dp936
g54
(dp937
sg63
g600
sg56
(lp938
g49
(g70
g51
NtRp939
(dp940
g54
(dp941
g74
g75
ssg63
g935
sg56
(lp942
S'http_referer'
p943
asbag49
(g70
g51
NtRp944
(dp945
g54
(dp946
g81
g82
ssg63
g935
sg56
(lp947
S':'
asbag49
(g70
g51
NtRp948
(dp949
g54
(dp950
sg63
g935
sg56
(lp951
g49
(g50
g51
NtRp952
(dp953
g54
(dp954
g62
I4
ssg63
g948
sg56
(lp955
S'http://localhost:8000/unioeste_code/default/Problem/1'
p956
asbasbasbag49
(g65
g51
NtRp957
(dp958
g54
(dp959
sg63
g600
sg56
(lp960
g49
(g70
g51
NtRp961
(dp962
g54
(dp963
g74
g75
ssg63
g957
sg56
(lp964
S'http_user_agent'
p965
asbag49
(g70
g51
NtRp966
(dp967
g54
(dp968
g81
g82
ssg63
g957
sg56
(lp969
S':'
asbag49
(g70
g51
NtRp970
(dp971
g54
(dp972
sg63
g957
sg56
(lp973
g49
(g50
g51
NtRp974
(dp975
g54
(dp976
g62
I4
ssg63
g970
sg56
(lp977
S'Mozilla/5.0 (Windows NT 6.1; WOW64) AppleWebKit/536.11 (KHTML, like Gecko) Chrome/20.0.1132.57 Safari/536.11'
p978
asbasbasbag49
(g65
g51
NtRp979
(dp980
g54
(dp981
sg63
g600
sg56
(lp982
g49
(g70
g51
NtRp983
(dp984
g54
(dp985
g74
g75
ssg63
g979
sg56
(lp986
S'is_jython'
p987
asbag49
(g70
g51
NtRp988
(dp989
g54
(dp990
g81
g82
ssg63
g979
sg56
(lp991
S':'
asbag49
(g70
g51
NtRp992
(dp993
g54
(dp994
sg63
g979
sg56
(lp995
g49
(g50
g51
NtRp996
(dp997
g54
(dp998
g62
I4
ssg63
g992
sg56
(lp999
g92
asbasbasbag49
(g65
g51
NtRp1000
(dp1001
g54
(dp1002
sg63
g600
sg56
(lp1003
g49
(g70
g51
NtRp1004
(dp1005
g54
(dp1006
g74
g75
ssg63
g1000
sg56
(lp1007
S'is_pypy'
p1008
asbag49
(g70
g51
NtRp1009
(dp1010
g54
(dp1011
g81
g82
ssg63
g1000
sg56
(lp1012
S':'
asbag49
(g70
g51
NtRp1013
(dp1014
g54
(dp1015
sg63
g1000
sg56
(lp1016
g49
(g50
g51
NtRp1017
(dp1018
g54
(dp1019
g62
I4
ssg63
g1013
sg56
(lp1020
g92
asbasbasbag49
(g65
g51
NtRp1021
(dp1022
g54
(dp1023
sg63
g600
sg56
(lp1024
g49
(g70
g51
NtRp1025
(dp1026
g54
(dp1027
g74
g75
ssg63
g1021
sg56
(lp1028
S'path_info'
p1029
asbag49
(g70
g51
NtRp1030
(dp1031
g54
(dp1032
g81
g82
ssg63
g1021
sg56
(lp1033
S':'
asbag49
(g70
g51
NtRp1034
(dp1035
g54
(dp1036
sg63
g1021
sg56
(lp1037
g49
(g50
g51
NtRp1038
(dp1039
g54
(dp1040
g62
I4
ssg63
g1034
sg56
(lp1041
S'/unioeste_code/default/Code/2'
p1042
asbasbasbag49
(g65
g51
NtRp1043
(dp1044
g54
(dp1045
sg63
g600
sg56
(lp1046
g49
(g70
g51
NtRp1047
(dp1048
g54
(dp1049
g74
g75
ssg63
g1043
sg56
(lp1050
S'query_string'
p1051
asbag49
(g70
g51
NtRp1052
(dp1053
g54
(dp1054
g81
g82
ssg63
g1043
sg56
(lp1055
S':'
asbag49
(g70
g51
NtRp1056
(dp1057
g54
(dp1058
sg63
g1043
sg56
(lp1059
g49
(g50
g51
NtRp1060
(dp1061
g54
(dp1062
g62
I4
ssg63
g1056
sg56
(lp1063
S''
asbasbasbag49
(g65
g51
NtRp1064
(dp1065
g54
(dp1066
sg63
g600
sg56
(lp1067
g49
(g70
g51
NtRp1068
(dp1069
g54
(dp1070
g74
g75
ssg63
g1064
sg56
(lp1071
S'remote_addr'
p1072
asbag49
(g70
g51
NtRp1073
(dp1074
g54
(dp1075
g81
g82
ssg63
g1064
sg56
(lp1076
S':'
asbag49
(g70
g51
NtRp1077
(dp1078
g54
(dp1079
sg63
g1064
sg56
(lp1080
g49
(g50
g51
NtRp1081
(dp1082
g54
(dp1083
g62
I4
ssg63
g1077
sg56
(lp1084
g194
asbasbasbag49
(g65
g51
NtRp1085
(dp1086
g54
(dp1087
sg63
g600
sg56
(lp1088
g49
(g70
g51
NtRp1089
(dp1090
g54
(dp1091
g74
g75
ssg63
g1085
sg56
(lp1092
S'remote_port'
p1093
asbag49
(g70
g51
NtRp1094
(dp1095
g54
(dp1096
g81
g82
ssg63
g1085
sg56
(lp1097
S':'
asbag49
(g70
g51
NtRp1098
(dp1099
g54
(dp1100
sg63
g1085
sg56
(lp1101
g49
(g50
g51
NtRp1102
(dp1103
g54
(dp1104
g62
I4
ssg63
g1098
sg56
(lp1105
S'65064'
p1106
asbasbasbag49
(g65
g51
NtRp1107
(dp1108
g54
(dp1109
sg63
g600
sg56
(lp1110
g49
(g70
g51
NtRp1111
(dp1112
g54
(dp1113
g74
g75
ssg63
g1107
sg56
(lp1114
S'request_method'
p1115
asbag49
(g70
g51
NtRp1116
(dp1117
g54
(dp1118
g81
g82
ssg63
g1107
sg56
(lp1119
S':'
asbag49
(g70
g51
NtRp1120
(dp1121
g54
(dp1122
sg63
g1107
sg56
(lp1123
g49
(g50
g51
NtRp1124
(dp1125
g54
(dp1126
g62
I4
ssg63
g1120
sg56
(lp1127
S'GET'
p1128
asbasbasbag49
(g65
g51
NtRp1129
(dp1130
g54
(dp1131
sg63
g600
sg56
(lp1132
g49
(g70
g51
NtRp1133
(dp1134
g54
(dp1135
g74
g75
ssg63
g1129
sg56
(lp1136
S'script_name'
p1137
asbag49
(g70
g51
NtRp1138
(dp1139
g54
(dp1140
g81
g82
ssg63
g1129
sg56
(lp1141
S':'
asbag49
(g70
g51
NtRp1142
(dp1143
g54
(dp1144
sg63
g1129
sg56
(lp1145
g49
(g50
g51
NtRp1146
(dp1147
g54
(dp1148
g62
I4
ssg63
g1142
sg56
(lp1149
S''
asbasbasbag49
(g65
g51
NtRp1150
(dp1151
g54
(dp1152
sg63
g600
sg56
(lp1153
g49
(g70
g51
NtRp1154
(dp1155
g54
(dp1156
g74
g75
ssg63
g1150
sg56
(lp1157
S'server_name'
p1158
asbag49
(g70
g51
NtRp1159
(dp1160
g54
(dp1161
g81
g82
ssg63
g1150
sg56
(lp1162
S':'
asbag49
(g70
g51
NtRp1163
(dp1164
g54
(dp1165
sg63
g1150
sg56
(lp1166
g49
(g50
g51
NtRp1167
(dp1168
g54
(dp1169
g62
I4
ssg63
g1163
sg56
(lp1170
S'Pedro-PC'
p1171
asbasbasbag49
(g65
g51
NtRp1172
(dp1173
g54
(dp1174
sg63
g600
sg56
(lp1175
g49
(g70
g51
NtRp1176
(dp1177
g54
(dp1178
g74
g75
ssg63
g1172
sg56
(lp1179
S'server_port'
p1180
asbag49
(g70
g51
NtRp1181
(dp1182
g54
(dp1183
g81
g82
ssg63
g1172
sg56
(lp1184
S':'
asbag49
(g70
g51
NtRp1185
(dp1186
g54
(dp1187
sg63
g1172
sg56
(lp1188
g49
(g50
g51
NtRp1189
(dp1190
g54
(dp1191
g62
I4
ssg63
g1185
sg56
(lp1192
S'8000'
p1193
asbasbasbag49
(g65
g51
NtRp1194
(dp1195
g54
(dp1196
sg63
g600
sg56
(lp1197
g49
(g70
g51
NtRp1198
(dp1199
g54
(dp1200
g74
g75
ssg63
g1194
sg56
(lp1201
S'server_protocol'
p1202
asbag49
(g70
g51
NtRp1203
(dp1204
g54
(dp1205
g81
g82
ssg63
g1194
sg56
(lp1206
S':'
asbag49
(g70
g51
NtRp1207
(dp1208
g54
(dp1209
sg63
g1194
sg56
(lp1210
g49
(g50
g51
NtRp1211
(dp1212
g54
(dp1213
g62
I4
ssg63
g1207
sg56
(lp1214
S'HTTP/1.1'
p1215
asbasbasbag49
(g65
g51
NtRp1216
(dp1217
g54
(dp1218
sg63
g600
sg56
(lp1219
g49
(g70
g51
NtRp1220
(dp1221
g54
(dp1222
g74
g75
ssg63
g1216
sg56
(lp1223
S'server_software'
p1224
asbag49
(g70
g51
NtRp1225
(dp1226
g54
(dp1227
g81
g82
ssg63
g1216
sg56
(lp1228
S':'
asbag49
(g70
g51
NtRp1229
(dp1230
g54
(dp1231
sg63
g1216
sg56
(lp1232
g49
(g50
g51
NtRp1233
(dp1234
g54
(dp1235
g62
I4
ssg63
g1229
sg56
(lp1236
S'Rocket 1.2.4'
p1237
asbasbasbag49
(g65
g51
NtRp1238
(dp1239
g54
(dp1240
sg63
g600
sg56
(lp1241
g49
(g70
g51
NtRp1242
(dp1243
g54
(dp1244
g74
g75
ssg63
g1238
sg56
(lp1245
S'web2py_crontype'
p1246
asbag49
(g70
g51
NtRp1247
(dp1248
g54
(dp1249
g81
g82
ssg63
g1238
sg56
(lp1250
S':'
asbag49
(g70
g51
NtRp1251
(dp1252
g54
(dp1253
sg63
g1238
sg56
(lp1254
g49
(g50
g51
NtRp1255
(dp1256
g54
(dp1257
g62
I4
ssg63
g1251
sg56
(lp1258
S'hard'
p1259
asbasbasbag49
(g65
g51
NtRp1260
(dp1261
g54
(dp1262
sg63
g600
sg56
(lp1263
g49
(g70
g51
NtRp1264
(dp1265
g54
(dp1266
g74
g75
ssg63
g1260
sg56
(lp1267
S'web2py_path'
p1268
asbag49
(g70
g51
NtRp1269
(dp1270
g54
(dp1271
g81
g82
ssg63
g1260
sg56
(lp1272
S':'
asbag49
(g70
g51
NtRp1273
(dp1274
g54
(dp1275
sg63
g1260
sg56
(lp1276
g49
(g50
g51
NtRp1277
(dp1278
g54
(dp1279
g62
I4
ssg63
g1273
sg56
(lp1280
g647
asbasbasbag49
(g65
g51
NtRp1281
(dp1282
g54
(dp1283
sg63
g600
sg56
(lp1284
g49
(g70
g51
NtRp1285
(dp1286
g54
(dp1287
g74
g75
ssg63
g1281
sg56
(lp1288
S'web2py_version'
p1289
asbag49
(g70
g51
NtRp1290
(dp1291
g54
(dp1292
g81
g82
ssg63
g1281
sg56
(lp1293
S':'
asbag49
(g70
g51
NtRp1294
(dp1295
g54
(dp1296
sg63
g1281
sg56
(lp1297
g49
(g50
g51
NtRp1298
(dp1299
g54
(dp1300
g62
I4
ssg63
g1294
sg56
(lp1301
g49
(g58
g51
NtRp1302
(dp1303
g54
(dp1304
g62
I3
ssg63
Nsg56
(lp1305
g49
(g65
g51
NtRp1306
(dp1307
g54
(dp1308
sg63
g1302
sg56
(lp1309
g49
(g70
g51
NtRp1310
(dp1311
g54
(dp1312
sg63
g1306
sg56
(lp1313
g49
(g50
g51
NtRp1314
(dp1315
g54
(dp1316
g62
I3
ssg63
g1310
sg56
(lp1317
S'1'
asbasbasbag49
(g65
g51
NtRp1318
(dp1319
g54
(dp1320
sg63
g1302
sg56
(lp1321
g49
(g70
g51
NtRp1322
(dp1323
g54
(dp1324
sg63
g1318
sg56
(lp1325
g49
(g50
g51
NtRp1326
(dp1327
g54
(dp1328
g62
I3
ssg63
g1322
sg56
(lp1329
S'99'
p1330
asbasbasbag49
(g65
g51
NtRp1331
(dp1332
g54
(dp1333
sg63
g1302
sg56
(lp1334
g49
(g70
g51
NtRp1335
(dp1336
g54
(dp1337
sg63
g1331
sg56
(lp1338
g49
(g50
g51
NtRp1339
(dp1340
g54
(dp1341
g62
I3
ssg63
g1335
sg56
(lp1342
S'7'
asbasbasbag49
(g65
g51
NtRp1343
(dp1344
g54
(dp1345
sg63
g1302
sg56
(lp1346
g49
(g70
g51
NtRp1347
(dp1348
g54
(dp1349
sg63
g1343
sg56
(lp1350
g49
(g50
g51
NtRp1351
(dp1352
g54
(dp1353
g62
I3
ssg63
g1347
sg56
(lp1354
S'datetime.datetime(2012, 3, 4, 22, 12, 8)'
p1355
asbasbasbag49
(g65
g51
NtRp1356
(dp1357
g54
(dp1358
sg63
g1302
sg56
(lp1359
g49
(g70
g51
NtRp1360
(dp1361
g54
(dp1362
sg63
g1356
sg56
(lp1363
g49
(g50
g51
NtRp1364
(dp1365
g54
(dp1366
g62
I3
ssg63
g1360
sg56
(lp1367
S'stable'
p1368
asbasbasbasbasbasbasbag49
(g65
g51
NtRp1369
(dp1370
g54
(dp1371
sg63
g600
sg56
(lp1372
g49
(g70
g51
NtRp1373
(dp1374
g54
(dp1375
g74
g75
ssg63
g1369
sg56
(lp1376
S'wsgi_errors'
p1377
asbag49
(g70
g51
NtRp1378
(dp1379
g54
(dp1380
g81
g82
ssg63
g1369
sg56
(lp1381
S':'
asbag49
(g70
g51
NtRp1382
(dp1383
g54
(dp1384
sg63
g1369
sg56
(lp1385
g49
(g50
g51
NtRp1386
(dp1387
g54
(dp1388
g62
I4
ssg63
g1382
sg56
(lp1389
S'<__main__.Stderr object at 0x00486670>'
p1390
asbasbasbag49
(g65
g51
NtRp1391
(dp1392
g54
(dp1393
sg63
g600
sg56
(lp1394
g49
(g70
g51
NtRp1395
(dp1396
g54
(dp1397
g74
g75
ssg63
g1391
sg56
(lp1398
S'wsgi_file_wrapper'
p1399
asbag49
(g70
g51
NtRp1400
(dp1401
g54
(dp1402
g81
g82
ssg63
g1391
sg56
(lp1403
S':'
asbag49
(g70
g51
NtRp1404
(dp1405
g54
(dp1406
sg63
g1391
sg56
(lp1407
g49
(g50
g51
NtRp1408
(dp1409
g54
(dp1410
g62
I4
ssg63
g1404
sg56
(lp1411
S'<class wsgiref.util.FileWrapper at 0x02E8DE10>'
p1412
asbasbasbag49
(g65
g51
NtRp1413
(dp1414
g54
(dp1415
sg63
g600
sg56
(lp1416
g49
(g70
g51
NtRp1417
(dp1418
g54
(dp1419
g74
g75
ssg63
g1413
sg56
(lp1420
S'wsgi_input'
p1421
asbag49
(g70
g51
NtRp1422
(dp1423
g54
(dp1424
g81
g82
ssg63
g1413
sg56
(lp1425
S':'
asbag49
(g70
g51
NtRp1426
(dp1427
g54
(dp1428
sg63
g1413
sg56
(lp1429
g49
(g50
g51
NtRp1430
(dp1431
g54
(dp1432
g62
I4
ssg63
g1426
sg56
(lp1433
S'<socket._fileobject object at 0x06523F70>'
p1434
asbasbasbag49
(g65
g51
NtRp1435
(dp1436
g54
(dp1437
sg63
g600
sg56
(lp1438
g49
(g70
g51
NtRp1439
(dp1440
g54
(dp1441
g74
g75
ssg63
g1435
sg56
(lp1442
S'wsgi_multiprocess'
p1443
asbag49
(g70
g51
NtRp1444
(dp1445
g54
(dp1446
g81
g82
ssg63
g1435
sg56
(lp1447
S':'
asbag49
(g70
g51
NtRp1448
(dp1449
g54
(dp1450
sg63
g1435
sg56
(lp1451
g49
(g50
g51
NtRp1452
(dp1453
g54
(dp1454
g62
I4
ssg63
g1448
sg56
(lp1455
g92
asbasbasbag49
(g65
g51
NtRp1456
(dp1457
g54
(dp1458
sg63
g600
sg56
(lp1459
g49
(g70
g51
NtRp1460
(dp1461
g54
(dp1462
g74
g75
ssg63
g1456
sg56
(lp1463
S'wsgi_multithread'
p1464
asbag49
(g70
g51
NtRp1465
(dp1466
g54
(dp1467
g81
g82
ssg63
g1456
sg56
(lp1468
S':'
asbag49
(g70
g51
NtRp1469
(dp1470
g54
(dp1471
sg63
g1456
sg56
(lp1472
g49
(g50
g51
NtRp1473
(dp1474
g54
(dp1475
g62
I4
ssg63
g1469
sg56
(lp1476
S'True'
p1477
asbasbasbag49
(g65
g51
NtRp1478
(dp1479
g54
(dp1480
sg63
g600
sg56
(lp1481
g49
(g70
g51
NtRp1482
(dp1483
g54
(dp1484
g74
g75
ssg63
g1478
sg56
(lp1485
S'wsgi_run_once'
p1486
asbag49
(g70
g51
NtRp1487
(dp1488
g54
(dp1489
g81
g82
ssg63
g1478
sg56
(lp1490
S':'
asbag49
(g70
g51
NtRp1491
(dp1492
g54
(dp1493
sg63
g1478
sg56
(lp1494
g49
(g50
g51
NtRp1495
(dp1496
g54
(dp1497
g62
I4
ssg63
g1491
sg56
(lp1498
g92
asbasbasbag49
(g65
g51
NtRp1499
(dp1500
g54
(dp1501
sg63
g600
sg56
(lp1502
g49
(g70
g51
NtRp1503
(dp1504
g54
(dp1505
g74
g75
ssg63
g1499
sg56
(lp1506
S'wsgi_url_scheme'
p1507
asbag49
(g70
g51
NtRp1508
(dp1509
g54
(dp1510
g81
g82
ssg63
g1499
sg56
(lp1511
S':'
asbag49
(g70
g51
NtRp1512
(dp1513
g54
(dp1514
sg63
g1499
sg56
(lp1515
g49
(g50
g51
NtRp1516
(dp1517
g54
(dp1518
g62
I4
ssg63
g1512
sg56
(lp1519
S'http'
p1520
asbasbasbag49
(g65
g51
NtRp1521
(dp1522
g54
(dp1523
sg63
g600
sg56
(lp1524
g49
(g70
g51
NtRp1525
(dp1526
g54
(dp1527
g74
g75
ssg63
g1521
sg56
(lp1528
S'wsgi_version'
p1529
asbag49
(g70
g51
NtRp1530
(dp1531
g54
(dp1532
g81
g82
ssg63
g1521
sg56
(lp1533
S':'
asbag49
(g70
g51
NtRp1534
(dp1535
g54
(dp1536
sg63
g1521
sg56
(lp1537
g49
(g50
g51
NtRp1538
(dp1539
g54
(dp1540
g62
I4
ssg63
g1534
sg56
(lp1541
g49
(g58
g51
NtRp1542
(dp1543
g54
(dp1544
g62
I3
ssg63
Nsg56
(lp1545
g49
(g65
g51
NtRp1546
(dp1547
g54
(dp1548
sg63
g1542
sg56
(lp1549
g49
(g70
g51
NtRp1550
(dp1551
g54
(dp1552
sg63
g1546
sg56
(lp1553
g49
(g50
g51
NtRp1554
(dp1555
g54
(dp1556
g62
I3
ssg63
g1550
sg56
(lp1557
S'1'
asbasbasbag49
(g65
g51
NtRp1558
(dp1559
g54
(dp1560
sg63
g1542
sg56
(lp1561
g49
(g70
g51
NtRp1562
(dp1563
g54
(dp1564
sg63
g1558
sg56
(lp1565
g49
(g50
g51
NtRp1566
(dp1567
g54
(dp1568
g62
I3
ssg63
g1562
sg56
(lp1569
S'0'
asbasbasbasbasbasbasbasbasbasbasbag49
(g65
g51
NtRp1570
(dp1571
g54
(dp1572
sg63
g59
sg56
(lp1573
g49
(g70
g51
NtRp1574
(dp1575
g54
(dp1576
g74
g75
ssg63
g1570
sg56
(lp1577
S'extension'
p1578
asbag49
(g70
g51
NtRp1579
(dp1580
g54
(dp1581
g81
g82
ssg63
g1570
sg56
(lp1582
S':'
asbag49
(g70
g51
NtRp1583
(dp1584
g54
(dp1585
sg63
g1570
sg56
(lp1586
g49
(g50
g51
NtRp1587
(dp1588
g54
(dp1589
g62
I5
ssg63
g1583
sg56
(lp1590
S'html'
p1591
asbasbasbag49
(g65
g51
NtRp1592
(dp1593
g54
(dp1594
sg63
g59
sg56
(lp1595
g49
(g70
g51
NtRp1596
(dp1597
g54
(dp1598
g74
g75
ssg63
g1592
sg56
(lp1599
S'folder'
p1600
asbag49
(g70
g51
NtRp1601
(dp1602
g54
(dp1603
g81
g82
ssg63
g1592
sg56
(lp1604
S':'
asbag49
(g70
g51
NtRp1605
(dp1606
g54
(dp1607
sg63
g1592
sg56
(lp1608
g49
(g50
g51
NtRp1609
(dp1610
g54
(dp1611
g62
I5
ssg63
g1605
sg56
(lp1612
S'C:\\web2py\\applications\\unioeste_code\\'
p1613
asbasbasbag49
(g65
g51
NtRp1614
(dp1615
g54
(dp1616
sg63
g59
sg56
(lp1617
g49
(g70
g51
NtRp1618
(dp1619
g54
(dp1620
g74
g75
ssg63
g1614
sg56
(lp1621
S'function'
p1622
asbag49
(g70
g51
NtRp1623
(dp1624
g54
(dp1625
g81
g82
ssg63
g1614
sg56
(lp1626
S':'
asbag49
(g70
g51
NtRp1627
(dp1628
g54
(dp1629
sg63
g1614
sg56
(lp1630
g49
(g50
g51
NtRp1631
(dp1632
g54
(dp1633
g62
I5
ssg63
g1627
sg56
(lp1634
S'Code'
p1635
asbasbasbag49
(g65
g51
NtRp1636
(dp1637
g54
(dp1638
sg63
g59
sg56
(lp1639
g49
(g70
g51
NtRp1640
(dp1641
g54
(dp1642
g74
g75
ssg63
g1636
sg56
(lp1643
S'get_vars'
p1644
asbag49
(g70
g51
NtRp1645
(dp1646
g54
(dp1647
g81
g82
ssg63
g1636
sg56
(lp1648
S':'
asbag49
(g70
g51
NtRp1649
(dp1650
g54
(dp1651
sg63
g1636
sg56
(lp1652
g49
(g50
g51
NtRp1653
(dp1654
g54
(dp1655
g62
I5
ssg63
g1649
sg56
(lp1656
g49
(g58
g51
NtRp1657
(dp1658
g54
(dp1659
g62
I4
ssg63
Nsg56
(lp1660
sbasbasbasbag49
(g65
g51
NtRp1661
(dp1662
g54
(dp1663
sg63
g59
sg56
(lp1664
g49
(g70
g51
NtRp1665
(dp1666
g54
(dp1667
g74
g75
ssg63
g1661
sg56
(lp1668
S'global_settings'
p1669
asbag49
(g70
g51
NtRp1670
(dp1671
g54
(dp1672
g81
g82
ssg63
g1661
sg56
(lp1673
S':'
asbag49
(g70
g51
NtRp1674
(dp1675
g54
(dp1676
sg63
g1661
sg56
(lp1677
g49
(g50
g51
NtRp1678
(dp1679
g54
(dp1680
g62
I5
ssg63
g1674
sg56
(lp1681
g49
(g58
g51
NtRp1682
(dp1683
g54
(dp1684
g62
I4
ssg63
Nsg56
(lp1685
g49
(g65
g51
NtRp1686
(dp1687
g54
(dp1688
sg63
g1682
sg56
(lp1689
g49
(g70
g51
NtRp1690
(dp1691
g54
(dp1692
g74
g75
ssg63
g1686
sg56
(lp1693
g612
asbag49
(g70
g51
NtRp1694
(dp1695
g54
(dp1696
g81
g82
ssg63
g1686
sg56
(lp1697
S':'
asbag49
(g70
g51
NtRp1698
(dp1699
g54
(dp1700
sg63
g1686
sg56
(lp1701
g49
(g50
g51
NtRp1702
(dp1703
g54
(dp1704
g62
I4
ssg63
g1698
sg56
(lp1705
S"set(['C:\\\\web2py\\\\applications\\\\admin\\\\', 'C:\\\\web2py\\\\applications\\\\welcome\\\\', 'C:\\\\web2py\\\\applications\\\\unioeste_code\\\\'])"
p1706
asbasbasbag49
(g65
g51
NtRp1707
(dp1708
g54
(dp1709
sg63
g1682
sg56
(lp1710
g49
(g70
g51
NtRp1711
(dp1712
g54
(dp1713
g74
g75
ssg63
g1707
sg56
(lp1714
g634
asbag49
(g70
g51
NtRp1715
(dp1716
g54
(dp1717
g81
g82
ssg63
g1707
sg56
(lp1718
S':'
asbag49
(g70
g51
NtRp1719
(dp1720
g54
(dp1721
sg63
g1707
sg56
(lp1722
g49
(g50
g51
NtRp1723
(dp1724
g54
(dp1725
g62
I4
ssg63
g1719
sg56
(lp1726
g647
asbasbasbag49
(g65
g51
NtRp1727
(dp1728
g54
(dp1729
sg63
g1682
sg56
(lp1730
g49
(g70
g51
NtRp1731
(dp1732
g54
(dp1733
g74
g75
ssg63
g1727
sg56
(lp1734
g656
asbag49
(g70
g51
NtRp1735
(dp1736
g54
(dp1737
g81
g82
ssg63
g1727
sg56
(lp1738
S':'
asbag49
(g70
g51
NtRp1739
(dp1740
g54
(dp1741
sg63
g1727
sg56
(lp1742
g49
(g50
g51
NtRp1743
(dp1744
g54
(dp1745
g62
I4
ssg63
g1739
sg56
(lp1746
g49
(g58
g51
NtRp1747
(dp1748
g54
(dp1749
g62
I3
ssg63
Nsg56
(lp1750
sbasbasbasbag49
(g65
g51
NtRp1751
(dp1752
g54
(dp1753
sg63
g1682
sg56
(lp1754
g49
(g70
g51
NtRp1755
(dp1756
g54
(dp1757
g74
g75
ssg63
g1751
sg56
(lp1758
g681
asbag49
(g70
g51
NtRp1759
(dp1760
g54
(dp1761
g81
g82
ssg63
g1751
sg56
(lp1762
S':'
asbag49
(g70
g51
NtRp1763
(dp1764
g54
(dp1765
sg63
g1751
sg56
(lp1766
g49
(g50
g51
NtRp1767
(dp1768
g54
(dp1769
g62
I4
ssg63
g1763
sg56
(lp1770
S"<Values at 0x309c300: {'verbose': False, 'ip': '127.0.0.1', 'shutdown_timeout': 5, 'taskbar': False, 'nocron': False, 'pid_filename': 'httpserver.pid', 'maxthreads': None, 'softcron': False, 'server_name': 'Pedro-PC', 'bpython': False, 'nogui': False, 'port': 8000, 'extcron': False, 'debuglevel': 30, 'test': None, 'folder': 'C:\\\\web2py', 'config': '', 'import_models': False, 'winservice': '', 'shell': None, 'run': '', 'log_filename': 'httpserver.log', 'args': [''], 'socket_timeout': 5, 'ssl_ca_certificate': None, 'scheduler': None, 'profiler_filename': None, 'ssl_private_key': '', 'password': '<ask>', 'request_queue_size': 5, 'ssl_certificate': '', 'cronjob': False, 'numthreads': None, 'quiet': False, 'interfaces': None, 'minthreads': None, 'timeout': 10, 'plain': False, 'nobanner': False}>"
p1771
asbasbasbag49
(g65
g51
NtRp1772
(dp1773
g54
(dp1774
sg63
g1682
sg56
(lp1775
g49
(g70
g51
NtRp1776
(dp1777
g54
(dp1778
g74
g75
ssg63
g1772
sg56
(lp1779
g703
asbag49
(g70
g51
NtRp1780
(dp1781
g54
(dp1782
g81
g82
ssg63
g1772
sg56
(lp1783
S':'
asbag49
(g70
g51
NtRp1784
(dp1785
g54
(dp1786
sg63
g1772
sg56
(lp1787
g49
(g50
g51
NtRp1788
(dp1789
g54
(dp1790
g62
I4
ssg63
g1784
sg56
(lp1791
S'set([])'
p1792
asbasbasbag49
(g65
g51
NtRp1793
(dp1794
g54
(dp1795
sg63
g1682
sg56
(lp1796
g49
(g70
g51
NtRp1797
(dp1798
g54
(dp1799
g74
g75
ssg63
g1793
sg56
(lp1800
g725
asbag49
(g70
g51
NtRp1801
(dp1802
g54
(dp1803
g81
g82
ssg63
g1793
sg56
(lp1804
S':'
asbag49
(g70
g51
NtRp1805
(dp1806
g54
(dp1807
sg63
g1793
sg56
(lp1808
g49
(g50
g51
NtRp1809
(dp1810
g54
(dp1811
g62
I4
ssg63
g1805
sg56
(lp1812
g92
asbasbasbag49
(g65
g51
NtRp1813
(dp1814
g54
(dp1815
sg63
g1682
sg56
(lp1816
g49
(g70
g51
NtRp1817
(dp1818
g54
(dp1819
g74
g75
ssg63
g1813
sg56
(lp1820
g746
asbag49
(g70
g51
NtRp1821
(dp1822
g54
(dp1823
g81
g82
ssg63
g1813
sg56
(lp1824
S':'
asbag49
(g70
g51
NtRp1825
(dp1826
g54
(dp1827
sg63
g1813
sg56
(lp1828
g49
(g50
g51
NtRp1829
(dp1830
g54
(dp1831
g62
I4
ssg63
g1825
sg56
(lp1832
g759
asbasbasbag49
(g65
g51
NtRp1833
(dp1834
g54
(dp1835
sg63
g1682
sg56
(lp1836
g49
(g70
g51
NtRp1837
(dp1838
g54
(dp1839
g74
g75
ssg63
g1833
sg56
(lp1840
g987
asbag49
(g70
g51
NtRp1841
(dp1842
g54
(dp1843
g81
g82
ssg63
g1833
sg56
(lp1844
S':'
asbag49
(g70
g51
NtRp1845
(dp1846
g54
(dp1847
sg63
g1833
sg56
(lp1848
g49
(g50
g51
NtRp1849
(dp1850
g54
(dp1851
g62
I4
ssg63
g1845
sg56
(lp1852
g92
asbasbasbag49
(g65
g51
NtRp1853
(dp1854
g54
(dp1855
sg63
g1682
sg56
(lp1856
g49
(g70
g51
NtRp1857
(dp1858
g54
(dp1859
g74
g75
ssg63
g1853
sg56
(lp1860
g1008
asbag49
(g70
g51
NtRp1861
(dp1862
g54
(dp1863
g81
g82
ssg63
g1853
sg56
(lp1864
S':'
asbag49
(g70
g51
NtRp1865
(dp1866
g54
(dp1867
sg63
g1853
sg56
(lp1868
g49
(g50
g51
NtRp1869
(dp1870
g54
(dp1871
g62
I4
ssg63
g1865
sg56
(lp1872
g92
asbasbasbag49
(g65
g51
NtRp1873
(dp1874
g54
(dp1875
sg63
g1682
sg56
(lp1876
g49
(g70
g51
NtRp1877
(dp1878
g54
(dp1879
g74
g75
ssg63
g1873
sg56
(lp1880
g1246
asbag49
(g70
g51
NtRp1881
(dp1882
g54
(dp1883
g81
g82
ssg63
g1873
sg56
(lp1884
S':'
asbag49
(g70
g51
NtRp1885
(dp1886
g54
(dp1887
sg63
g1873
sg56
(lp1888
g49
(g50
g51
NtRp1889
(dp1890
g54
(dp1891
g62
I4
ssg63
g1885
sg56
(lp1892
g1259
asbasbasbag49
(g65
g51
NtRp1893
(dp1894
g54
(dp1895
sg63
g1682
sg56
(lp1896
g49
(g70
g51
NtRp1897
(dp1898
g54
(dp1899
g74
g75
ssg63
g1893
sg56
(lp1900
g1289
asbag49
(g70
g51
NtRp1901
(dp1902
g54
(dp1903
g81
g82
ssg63
g1893
sg56
(lp1904
S':'
asbag49
(g70
g51
NtRp1905
(dp1906
g54
(dp1907
sg63
g1893
sg56
(lp1908
g49
(g50
g51
NtRp1909
(dp1910
g54
(dp1911
g62
I4
ssg63
g1905
sg56
(lp1912
g49
(g58
g51
NtRp1913
(dp1914
g54
(dp1915
g62
I3
ssg63
Nsg56
(lp1916
g49
(g65
g51
NtRp1917
(dp1918
g54
(dp1919
sg63
g1913
sg56
(lp1920
g49
(g70
g51
NtRp1921
(dp1922
g54
(dp1923
sg63
g1917
sg56
(lp1924
g49
(g50
g51
NtRp1925
(dp1926
g54
(dp1927
g62
I3
ssg63
g1921
sg56
(lp1928
S'1'
asbasbasbag49
(g65
g51
NtRp1929
(dp1930
g54
(dp1931
sg63
g1913
sg56
(lp1932
g49
(g70
g51
NtRp1933
(dp1934
g54
(dp1935
sg63
g1929
sg56
(lp1936
g49
(g50
g51
NtRp1937
(dp1938
g54
(dp1939
g62
I3
ssg63
g1933
sg56
(lp1940
S'99'
p1941
asbasbasbag49
(g65
g51
NtRp1942
(dp1943
g54
(dp1944
sg63
g1913
sg56
(lp1945
g49
(g70
g51
NtRp1946
(dp1947
g54
(dp1948
sg63
g1942
sg56
(lp1949
g49
(g50
g51
NtRp1950
(dp1951
g54
(dp1952
g62
I3
ssg63
g1946
sg56
(lp1953
S'7'
asbasbasbag49
(g65
g51
NtRp1954
(dp1955
g54
(dp1956
sg63
g1913
sg56
(lp1957
g49
(g70
g51
NtRp1958
(dp1959
g54
(dp1960
sg63
g1954
sg56
(lp1961
g49
(g50
g51
NtRp1962
(dp1963
g54
(dp1964
g62
I3
ssg63
g1958
sg56
(lp1965
S'datetime.datetime(2012, 3, 4, 22, 12, 8)'
p1966
asbasbasbag49
(g65
g51
NtRp1967
(dp1968
g54
(dp1969
sg63
g1913
sg56
(lp1970
g49
(g70
g51
NtRp1971
(dp1972
g54
(dp1973
sg63
g1967
sg56
(lp1974
g49
(g50
g51
NtRp1975
(dp1976
g54
(dp1977
g62
I3
ssg63
g1971
sg56
(lp1978
g1368
asbasbasbasbasbasbasbasbasbasbasbag49
(g65
g51
NtRp1979
(dp1980
g54
(dp1981
sg63
g59
sg56
(lp1982
g49
(g70
g51
NtRp1983
(dp1984
g54
(dp1985
g74
g75
ssg63
g1979
sg56
(lp1986
S'is_https'
p1987
asbag49
(g70
g51
NtRp1988
(dp1989
g54
(dp1990
g81
g82
ssg63
g1979
sg56
(lp1991
S':'
asbag49
(g70
g51
NtRp1992
(dp1993
g54
(dp1994
sg63
g1979
sg56
(lp1995
g49
(g50
g51
NtRp1996
(dp1997
g54
(dp1998
g62
I5
ssg63
g1992
sg56
(lp1999
g92
asbasbasbag49
(g65
g51
NtRp2000
(dp2001
g54
(dp2002
sg63
g59
sg56
(lp2003
g49
(g70
g51
NtRp2004
(dp2005
g54
(dp2006
g74
g75
ssg63
g2000
sg56
(lp2007
S'is_local'
p2008
asbag49
(g70
g51
NtRp2009
(dp2010
g54
(dp2011
g81
g82
ssg63
g2000
sg56
(lp2012
S':'
asbag49
(g70
g51
NtRp2013
(dp2014
g54
(dp2015
sg63
g2000
sg56
(lp2016
g49
(g50
g51
NtRp2017
(dp2018
g54
(dp2019
g62
I5
ssg63
g2013
sg56
(lp2020
g1477
asbasbasbag49
(g65
g51
NtRp2021
(dp2022
g54
(dp2023
sg63
g59
sg56
(lp2024
g49
(g70
g51
NtRp2025
(dp2026
g54
(dp2027
g74
g75
ssg63
g2021
sg56
(lp2028
S'is_restful'
p2029
asbag49
(g70
g51
NtRp2030
(dp2031
g54
(dp2032
g81
g82
ssg63
g2021
sg56
(lp2033
S':'
asbag49
(g70
g51
NtRp2034
(dp2035
g54
(dp2036
sg63
g2021
sg56
(lp2037
g49
(g50
g51
NtRp2038
(dp2039
g54
(dp2040
g62
I5
ssg63
g2034
sg56
(lp2041
g92
asbasbasbag49
(g65
g51
NtRp2042
(dp2043
g54
(dp2044
sg63
g59
sg56
(lp2045
g49
(g70
g51
NtRp2046
(dp2047
g54
(dp2048
g74
g75
ssg63
g2042
sg56
(lp2049
S'now'
p2050
asbag49
(g70
g51
NtRp2051
(dp2052
g54
(dp2053
g81
g82
ssg63
g2042
sg56
(lp2054
S':'
asbag49
(g70
g51
NtRp2055
(dp2056
g54
(dp2057
sg63
g2042
sg56
(lp2058
g49
(g50
g51
NtRp2059
(dp2060
g54
(dp2061
g62
I5
ssg63
g2055
sg56
(lp2062
S'datetime.datetime(2012, 7, 30, 1, 26, 58, 399000)'
p2063
asbasbasbag49
(g65
g51
NtRp2064
(dp2065
g54
(dp2066
sg63
g59
sg56
(lp2067
g49
(g70
g51
NtRp2068
(dp2069
g54
(dp2070
g74
g75
ssg63
g2064
sg56
(lp2071
S'post_vars'
p2072
asbag49
(g70
g51
NtRp2073
(dp2074
g54
(dp2075
g81
g82
ssg63
g2064
sg56
(lp2076
S':'
asbag49
(g70
g51
NtRp2077
(dp2078
g54
(dp2079
sg63
g2064
sg56
(lp2080
g49
(g50
g51
NtRp2081
(dp2082
g54
(dp2083
g62
I5
ssg63
g2077
sg56
(lp2084
g49
(g58
g51
NtRp2085
(dp2086
g54
(dp2087
g62
I4
ssg63
Nsg56
(lp2088
sbasbasbasbag49
(g65
g51
NtRp2089
(dp2090
g54
(dp2091
sg63
g59
sg56
(lp2092
g49
(g70
g51
NtRp2093
(dp2094
g54
(dp2095
g74
g75
ssg63
g2089
sg56
(lp2096
S'raw_args'
p2097
asbag49
(g70
g51
NtRp2098
(dp2099
g54
(dp2100
g81
g82
ssg63
g2089
sg56
(lp2101
S':'
asbag49
(g70
g51
NtRp2102
(dp2103
g54
(dp2104
sg63
g2089
sg56
(lp2105
g49
(g50
g51
NtRp2106
(dp2107
g54
(dp2108
g62
I5
ssg63
g2102
sg56
(lp2109
S'2'
asbasbasbag49
(g65
g51
NtRp2110
(dp2111
g54
(dp2112
sg63
g59
sg56
(lp2113
g49
(g70
g51
NtRp2114
(dp2115
g54
(dp2116
g74
g75
ssg63
g2110
sg56
(lp2117
S'url'
p2118
asbag49
(g70
g51
NtRp2119
(dp2120
g54
(dp2121
g81
g82
ssg63
g2110
sg56
(lp2122
S':'
asbag49
(g70
g51
NtRp2123
(dp2124
g54
(dp2125
sg63
g2110
sg56
(lp2126
g49
(g50
g51
NtRp2127
(dp2128
g54
(dp2129
g62
I5
ssg63
g2123
sg56
(lp2130
S'/unioeste_code/default/Code/2'
p2131
asbasbasbag49
(g65
g51
NtRp2132
(dp2133
g54
(dp2134
sg63
g59
sg56
(lp2135
g49
(g70
g51
NtRp2136
(dp2137
g54
(dp2138
g74
g75
ssg63
g2132
sg56
(lp2139
S'utcnow'
p2140
asbag49
(g70
g51
NtRp2141
(dp2142
g54
(dp2143
g81
g82
ssg63
g2132
sg56
(lp2144
S':'
asbag49
(g70
g51
NtRp2145
(dp2146
g54
(dp2147
sg63
g2132
sg56
(lp2148
g49
(g50
g51
NtRp2149
(dp2150
g54
(dp2151
g62
I5
ssg63
g2145
sg56
(lp2152
S'datetime.datetime(2012, 7, 30, 4, 26, 58, 400000)'
p2153
asbasbasbag49
(g65
g51
NtRp2154
(dp2155
g54
(dp2156
sg63
g59
sg56
(lp2157
g49
(g70
g51
NtRp2158
(dp2159
g54
(dp2160
g74
g75
ssg63
g2154
sg56
(lp2161
S'uuid'
p2162
asbag49
(g70
g51
NtRp2163
(dp2164
g54
(dp2165
g81
g82
ssg63
g2154
sg56
(lp2166
S':'
asbag49
(g70
g51
NtRp2167
(dp2168
g54
(dp2169
sg63
g2154
sg56
(lp2170
g49
(g50
g51
NtRp2171
(dp2172
g54
(dp2173
g62
I5
ssg63
g2167
sg56
(lp2174
S'unioeste_code/127.0.0.1.2012-07-30.01-26-58.ecdfc7c1-a521-4425-bea3-f7f177d99848'
p2175
asbasbasbag49
(g65
g51
NtRp2176
(dp2177
g54
(dp2178
sg63
g59
sg56
(lp2179
g49
(g70
g51
NtRp2180
(dp2181
g54
(dp2182
g74
g75
ssg63
g2176
sg56
(lp2183
S'vars'
p2184
asbag49
(g70
g51
NtRp2185
(dp2186
g54
(dp2187
g81
g82
ssg63
g2176
sg56
(lp2188
S':'
asbag49
(g70
g51
NtRp2189
(dp2190
g54
(dp2191
sg63
g2176
sg56
(lp2192
g49
(g50
g51
NtRp2193
(dp2194
g54
(dp2195
g62
I5
ssg63
g2189
sg56
(lp2196
g49
(g58
g51
NtRp2197
(dp2198
g54
(dp2199
g62
I4
ssg63
Nsg56
(lp2200
sbasbasbasbag49
(g65
g51
NtRp2201
(dp2202
g54
(dp2203
sg63
g59
sg56
(lp2204
g49
(g70
g51
NtRp2205
(dp2206
g54
(dp2207
g74
g75
ssg63
g2201
sg56
(lp2208
S'wsgi'
p2209
asbag49
(g70
g51
NtRp2210
(dp2211
g54
(dp2212
g81
g82
ssg63
g2201
sg56
(lp2213
S':'
asbag49
(g70
g51
NtRp2214
(dp2215
g54
(dp2216
sg63
g2201
sg56
(lp2217
g49
(g50
g51
NtRp2218
(dp2219
g54
(dp2220
g62
I5
ssg63
g2214
sg56
(lp2221
g49
(g58
g51
NtRp2222
(dp2223
g54
(dp2224
g62
I4
ssg63
Nsg56
(lp2225
g49
(g65
g51
NtRp2226
(dp2227
g54
(dp2228
sg63
g2222
sg56
(lp2229
g49
(g70
g51
NtRp2230
(dp2231
g54
(dp2232
g74
g75
ssg63
g2226
sg56
(lp2233
S'environ'
p2234
asbag49
(g70
g51
NtRp2235
(dp2236
g54
(dp2237
g81
g82
ssg63
g2226
sg56
(lp2238
S':'
asbag49
(g70
g51
NtRp2239
(dp2240
g54
(dp2241
sg63
g2226
sg56
(lp2242
g49
(g50
g51
NtRp2243
(dp2244
g54
(dp2245
g62
I4
ssg63
g2239
sg56
(lp2246
g49
(g58
g51
NtRp2247
(dp2248
g54
(dp2249
g62
I3
ssg63
Nsg56
(lp2250
g49
(g65
g51
NtRp2251
(dp2252
g54
(dp2253
sg63
g2247
sg56
(lp2254
g49
(g70
g51
NtRp2255
(dp2256
g54
(dp2257
g74
g75
ssg63
g2251
sg56
(lp2258
S'HTTP_ACCEPT'
p2259
asbag49
(g70
g51
NtRp2260
(dp2261
g54
(dp2262
g81
g82
ssg63
g2251
sg56
(lp2263
S':'
asbag49
(g70
g51
NtRp2264
(dp2265
g54
(dp2266
sg63
g2251
sg56
(lp2267
g49
(g50
g51
NtRp2268
(dp2269
g54
(dp2270
g62
I3
ssg63
g2264
sg56
(lp2271
g781
asbasbasbag49
(g65
g51
NtRp2272
(dp2273
g54
(dp2274
sg63
g2247
sg56
(lp2275
g49
(g70
g51
NtRp2276
(dp2277
g54
(dp2278
g74
g75
ssg63
g2272
sg56
(lp2279
S'HTTP_ACCEPT_CHARSET'
p2280
asbag49
(g70
g51
NtRp2281
(dp2282
g54
(dp2283
g81
g82
ssg63
g2272
sg56
(lp2284
S':'
asbag49
(g70
g51
NtRp2285
(dp2286
g54
(dp2287
sg63
g2272
sg56
(lp2288
g49
(g50
g51
NtRp2289
(dp2290
g54
(dp2291
g62
I3
ssg63
g2285
sg56
(lp2292
g803
asbasbasbag49
(g65
g51
NtRp2293
(dp2294
g54
(dp2295
sg63
g2247
sg56
(lp2296
g49
(g70
g51
NtRp2297
(dp2298
g54
(dp2299
g74
g75
ssg63
g2293
sg56
(lp2300
S'HTTP_ACCEPT_ENCODING'
p2301
asbag49
(g70
g51
NtRp2302
(dp2303
g54
(dp2304
g81
g82
ssg63
g2293
sg56
(lp2305
S':'
asbag49
(g70
g51
NtRp2306
(dp2307
g54
(dp2308
sg63
g2293
sg56
(lp2309
g49
(g50
g51
NtRp2310
(dp2311
g54
(dp2312
g62
I3
ssg63
g2306
sg56
(lp2313
g825
asbasbasbag49
(g65
g51
NtRp2314
(dp2315
g54
(dp2316
sg63
g2247
sg56
(lp2317
g49
(g70
g51
NtRp2318
(dp2319
g54
(dp2320
g74
g75
ssg63
g2314
sg56
(lp2321
S'HTTP_ACCEPT_LANGUAGE'
p2322
asbag49
(g70
g51
NtRp2323
(dp2324
g54
(dp2325
g81
g82
ssg63
g2314
sg56
(lp2326
S':'
asbag49
(g70
g51
NtRp2327
(dp2328
g54
(dp2329
sg63
g2314
sg56
(lp2330
g49
(g50
g51
NtRp2331
(dp2332
g54
(dp2333
g62
I3
ssg63
g2327
sg56
(lp2334
g847
asbasbasbag49
(g65
g51
NtRp2335
(dp2336
g54
(dp2337
sg63
g2247
sg56
(lp2338
g49
(g70
g51
NtRp2339
(dp2340
g54
(dp2341
g74
g75
ssg63
g2335
sg56
(lp2342
S'HTTP_CONNECTION'
p2343
asbag49
(g70
g51
NtRp2344
(dp2345
g54
(dp2346
g81
g82
ssg63
g2335
sg56
(lp2347
S':'
asbag49
(g70
g51
NtRp2348
(dp2349
g54
(dp2350
sg63
g2335
sg56
(lp2351
g49
(g50
g51
NtRp2352
(dp2353
g54
(dp2354
g62
I3
ssg63
g2348
sg56
(lp2355
g869
asbasbasbag49
(g65
g51
NtRp2356
(dp2357
g54
(dp2358
sg63
g2247
sg56
(lp2359
g49
(g70
g51
NtRp2360
(dp2361
g54
(dp2362
g74
g75
ssg63
g2356
sg56
(lp2363
S'HTTP_COOKIE'
p2364
asbag49
(g70
g51
NtRp2365
(dp2366
g54
(dp2367
g81
g82
ssg63
g2356
sg56
(lp2368
S':'
asbag49
(g70
g51
NtRp2369
(dp2370
g54
(dp2371
sg63
g2356
sg56
(lp2372
g49
(g50
g51
NtRp2373
(dp2374
g54
(dp2375
g62
I3
ssg63
g2369
sg56
(lp2376
g891
asbasbasbag49
(g65
g51
NtRp2377
(dp2378
g54
(dp2379
sg63
g2247
sg56
(lp2380
g49
(g70
g51
NtRp2381
(dp2382
g54
(dp2383
g74
g75
ssg63
g2377
sg56
(lp2384
S'HTTP_DNT'
p2385
asbag49
(g70
g51
NtRp2386
(dp2387
g54
(dp2388
g81
g82
ssg63
g2377
sg56
(lp2389
S':'
asbag49
(g70
g51
NtRp2390
(dp2391
g54
(dp2392
sg63
g2377
sg56
(lp2393
g49
(g50
g51
NtRp2394
(dp2395
g54
(dp2396
g62
I3
ssg63
g2390
sg56
(lp2397
S'1'
asbasbasbag49
(g65
g51
NtRp2398
(dp2399
g54
(dp2400
sg63
g2247
sg56
(lp2401
g49
(g70
g51
NtRp2402
(dp2403
g54
(dp2404
g74
g75
ssg63
g2398
sg56
(lp2405
S'HTTP_HOST'
p2406
asbag49
(g70
g51
NtRp2407
(dp2408
g54
(dp2409
g81
g82
ssg63
g2398
sg56
(lp2410
S':'
asbag49
(g70
g51
NtRp2411
(dp2412
g54
(dp2413
sg63
g2398
sg56
(lp2414
g49
(g50
g51
NtRp2415
(dp2416
g54
(dp2417
g62
I3
ssg63
g2411
sg56
(lp2418
g934
asbasbasbag49
(g65
g51
NtRp2419
(dp2420
g54
(dp2421
sg63
g2247
sg56
(lp2422
g49
(g70
g51
NtRp2423
(dp2424
g54
(dp2425
g74
g75
ssg63
g2419
sg56
(lp2426
S'HTTP_REFERER'
p2427
asbag49
(g70
g51
NtRp2428
(dp2429
g54
(dp2430
g81
g82
ssg63
g2419
sg56
(lp2431
S':'
asbag49
(g70
g51
NtRp2432
(dp2433
g54
(dp2434
sg63
g2419
sg56
(lp2435
g49
(g50
g51
NtRp2436
(dp2437
g54
(dp2438
g62
I3
ssg63
g2432
sg56
(lp2439
g956
asbasbasbag49
(g65
g51
NtRp2440
(dp2441
g54
(dp2442
sg63
g2247
sg56
(lp2443
g49
(g70
g51
NtRp2444
(dp2445
g54
(dp2446
g74
g75
ssg63
g2440
sg56
(lp2447
S'HTTP_USER_AGENT'
p2448
asbag49
(g70
g51
NtRp2449
(dp2450
g54
(dp2451
g81
g82
ssg63
g2440
sg56
(lp2452
S':'
asbag49
(g70
g51
NtRp2453
(dp2454
g54
(dp2455
sg63
g2440
sg56
(lp2456
g49
(g50
g51
NtRp2457
(dp2458
g54
(dp2459
g62
I3
ssg63
g2453
sg56
(lp2460
g978
asbasbasbag49
(g65
g51
NtRp2461
(dp2462
g54
(dp2463
sg63
g2247
sg56
(lp2464
g49
(g70
g51
NtRp2465
(dp2466
g54
(dp2467
g74
g75
ssg63
g2461
sg56
(lp2468
S'PATH_INFO'
p2469
asbag49
(g70
g51
NtRp2470
(dp2471
g54
(dp2472
g81
g82
ssg63
g2461
sg56
(lp2473
S':'
asbag49
(g70
g51
NtRp2474
(dp2475
g54
(dp2476
sg63
g2461
sg56
(lp2477
g49
(g50
g51
NtRp2478
(dp2479
g54
(dp2480
g62
I3
ssg63
g2474
sg56
(lp2481
g1042
asbasbasbag49
(g65
g51
NtRp2482
(dp2483
g54
(dp2484
sg63
g2247
sg56
(lp2485
g49
(g70
g51
NtRp2486
(dp2487
g54
(dp2488
g74
g75
ssg63
g2482
sg56
(lp2489
S'QUERY_STRING'
p2490
asbag49
(g70
g51
NtRp2491
(dp2492
g54
(dp2493
g81
g82
ssg63
g2482
sg56
(lp2494
S':'
asbag49
(g70
g51
NtRp2495
(dp2496
g54
(dp2497
sg63
g2482
sg56
(lp2498
g49
(g50
g51
NtRp2499
(dp2500
g54
(dp2501
g62
I3
ssg63
g2495
sg56
(lp2502
S''
asbasbasbag49
(g65
g51
NtRp2503
(dp2504
g54
(dp2505
sg63
g2247
sg56
(lp2506
g49
(g70
g51
NtRp2507
(dp2508
g54
(dp2509
g74
g75
ssg63
g2503
sg56
(lp2510
S'REMOTE_ADDR'
p2511
asbag49
(g70
g51
NtRp2512
(dp2513
g54
(dp2514
g81
g82
ssg63
g2503
sg56
(lp2515
S':'
asbag49
(g70
g51
NtRp2516
(dp2517
g54
(dp2518
sg63
g2503
sg56
(lp2519
g49
(g50
g51
NtRp2520
(dp2521
g54
(dp2522
g62
I3
ssg63
g2516
sg56
(lp2523
g194
asbasbasbag49
(g65
g51
NtRp2524
(dp2525
g54
(dp2526
sg63
g2247
sg56
(lp2527
g49
(g70
g51
NtRp2528
(dp2529
g54
(dp2530
g74
g75
ssg63
g2524
sg56
(lp2531
S'REMOTE_PORT'
p2532
asbag49
(g70
g51
NtRp2533
(dp2534
g54
(dp2535
g81
g82
ssg63
g2524
sg56
(lp2536
S':'
asbag49
(g70
g51
NtRp2537
(dp2538
g54
(dp2539
sg63
g2524
sg56
(lp2540
g49
(g50
g51
NtRp2541
(dp2542
g54
(dp2543
g62
I3
ssg63
g2537
sg56
(lp2544
g1106
asbasbasbag49
(g65
g51
NtRp2545
(dp2546
g54
(dp2547
sg63
g2247
sg56
(lp2548
g49
(g70
g51
NtRp2549
(dp2550
g54
(dp2551
g74
g75
ssg63
g2545
sg56
(lp2552
S'REQUEST_METHOD'
p2553
asbag49
(g70
g51
NtRp2554
(dp2555
g54
(dp2556
g81
g82
ssg63
g2545
sg56
(lp2557
S':'
asbag49
(g70
g51
NtRp2558
(dp2559
g54
(dp2560
sg63
g2545
sg56
(lp2561
g49
(g50
g51
NtRp2562
(dp2563
g54
(dp2564
g62
I3
ssg63
g2558
sg56
(lp2565
g1128
asbasbasbag49
(g65
g51
NtRp2566
(dp2567
g54
(dp2568
sg63
g2247
sg56
(lp2569
g49
(g70
g51
NtRp2570
(dp2571
g54
(dp2572
g74
g75
ssg63
g2566
sg56
(lp2573
S'SCRIPT_NAME'
p2574
asbag49
(g70
g51
NtRp2575
(dp2576
g54
(dp2577
g81
g82
ssg63
g2566
sg56
(lp2578
S':'
asbag49
(g70
g51
NtRp2579
(dp2580
g54
(dp2581
sg63
g2566
sg56
(lp2582
g49
(g50
g51
NtRp2583
(dp2584
g54
(dp2585
g62
I3
ssg63
g2579
sg56
(lp2586
S''
asbasbasbag49
(g65
g51
NtRp2587
(dp2588
g54
(dp2589
sg63
g2247
sg56
(lp2590
g49
(g70
g51
NtRp2591
(dp2592
g54
(dp2593
g74
g75
ssg63
g2587
sg56
(lp2594
S'SERVER_NAME'
p2595
asbag49
(g70
g51
NtRp2596
(dp2597
g54
(dp2598
g81
g82
ssg63
g2587
sg56
(lp2599
S':'
asbag49
(g70
g51
NtRp2600
(dp2601
g54
(dp2602
sg63
g2587
sg56
(lp2603
g49
(g50
g51
NtRp2604
(dp2605
g54
(dp2606
g62
I3
ssg63
g2600
sg56
(lp2607
g1171
asbasbasbag49
(g65
g51
NtRp2608
(dp2609
g54
(dp2610
sg63
g2247
sg56
(lp2611
g49
(g70
g51
NtRp2612
(dp2613
g54
(dp2614
g74
g75
ssg63
g2608
sg56
(lp2615
S'SERVER_PORT'
p2616
asbag49
(g70
g51
NtRp2617
(dp2618
g54
(dp2619
g81
g82
ssg63
g2608
sg56
(lp2620
S':'
asbag49
(g70
g51
NtRp2621
(dp2622
g54
(dp2623
sg63
g2608
sg56
(lp2624
g49
(g50
g51
NtRp2625
(dp2626
g54
(dp2627
g62
I3
ssg63
g2621
sg56
(lp2628
g1193
asbasbasbag49
(g65
g51
NtRp2629
(dp2630
g54
(dp2631
sg63
g2247
sg56
(lp2632
g49
(g70
g51
NtRp2633
(dp2634
g54
(dp2635
g74
g75
ssg63
g2629
sg56
(lp2636
S'SERVER_PROTOCOL'
p2637
asbag49
(g70
g51
NtRp2638
(dp2639
g54
(dp2640
g81
g82
ssg63
g2629
sg56
(lp2641
S':'
asbag49
(g70
g51
NtRp2642
(dp2643
g54
(dp2644
sg63
g2629
sg56
(lp2645
g49
(g50
g51
NtRp2646
(dp2647
g54
(dp2648
g62
I3
ssg63
g2642
sg56
(lp2649
g1215
asbasbasbag49
(g65
g51
NtRp2650
(dp2651
g54
(dp2652
sg63
g2247
sg56
(lp2653
g49
(g70
g51
NtRp2654
(dp2655
g54
(dp2656
g74
g75
ssg63
g2650
sg56
(lp2657
S'SERVER_SOFTWARE'
p2658
asbag49
(g70
g51
NtRp2659
(dp2660
g54
(dp2661
g81
g82
ssg63
g2650
sg56
(lp2662
S':'
asbag49
(g70
g51
NtRp2663
(dp2664
g54
(dp2665
sg63
g2650
sg56
(lp2666
g49
(g50
g51
NtRp2667
(dp2668
g54
(dp2669
g62
I3
ssg63
g2663
sg56
(lp2670
g1237
asbasbasbag49
(g65
g51
NtRp2671
(dp2672
g54
(dp2673
sg63
g2247
sg56
(lp2674
g49
(g70
g51
NtRp2675
(dp2676
g54
(dp2677
g74
g75
ssg63
g2671
sg56
(lp2678
S'wsgi.errors'
p2679
asbag49
(g70
g51
NtRp2680
(dp2681
g54
(dp2682
g81
g82
ssg63
g2671
sg56
(lp2683
S':'
asbag49
(g70
g51
NtRp2684
(dp2685
g54
(dp2686
sg63
g2671
sg56
(lp2687
g49
(g50
g51
NtRp2688
(dp2689
g54
(dp2690
g62
I3
ssg63
g2684
sg56
(lp2691
S'<__main__.Stderr object at 0x00486670>'
p2692
asbasbasbag49
(g65
g51
NtRp2693
(dp2694
g54
(dp2695
sg63
g2247
sg56
(lp2696
g49
(g70
g51
NtRp2697
(dp2698
g54
(dp2699
g74
g75
ssg63
g2693
sg56
(lp2700
S'wsgi.file_wrapper'
p2701
asbag49
(g70
g51
NtRp2702
(dp2703
g54
(dp2704
g81
g82
ssg63
g2693
sg56
(lp2705
S':'
asbag49
(g70
g51
NtRp2706
(dp2707
g54
(dp2708
sg63
g2693
sg56
(lp2709
g49
(g50
g51
NtRp2710
(dp2711
g54
(dp2712
g62
I3
ssg63
g2706
sg56
(lp2713
S'<class wsgiref.util.FileWrapper at 0x02E8DE10>'
p2714
asbasbasbag49
(g65
g51
NtRp2715
(dp2716
g54
(dp2717
sg63
g2247
sg56
(lp2718
g49
(g70
g51
NtRp2719
(dp2720
g54
(dp2721
g74
g75
ssg63
g2715
sg56
(lp2722
S'wsgi.input'
p2723
asbag49
(g70
g51
NtRp2724
(dp2725
g54
(dp2726
g81
g82
ssg63
g2715
sg56
(lp2727
S':'
asbag49
(g70
g51
NtRp2728
(dp2729
g54
(dp2730
sg63
g2715
sg56
(lp2731
g49
(g50
g51
NtRp2732
(dp2733
g54
(dp2734
g62
I3
ssg63
g2728
sg56
(lp2735
S'<cStringIO.StringO object at 0x06AD3680>'
p2736
asbasbasbag49
(g65
g51
NtRp2737
(dp2738
g54
(dp2739
sg63
g2247
sg56
(lp2740
g49
(g70
g51
NtRp2741
(dp2742
g54
(dp2743
g74
g75
ssg63
g2737
sg56
(lp2744
S'wsgi.multiprocess'
p2745
asbag49
(g70
g51
NtRp2746
(dp2747
g54
(dp2748
g81
g82
ssg63
g2737
sg56
(lp2749
S':'
asbag49
(g70
g51
NtRp2750
(dp2751
g54
(dp2752
sg63
g2737
sg56
(lp2753
g49
(g50
g51
NtRp2754
(dp2755
g54
(dp2756
g62
I3
ssg63
g2750
sg56
(lp2757
g92
asbasbasbag49
(g65
g51
NtRp2758
(dp2759
g54
(dp2760
sg63
g2247
sg56
(lp2761
g49
(g70
g51
NtRp2762
(dp2763
g54
(dp2764
g74
g75
ssg63
g2758
sg56
(lp2765
S'wsgi.multithread'
p2766
asbag49
(g70
g51
NtRp2767
(dp2768
g54
(dp2769
g81
g82
ssg63
g2758
sg56
(lp2770
S':'
asbag49
(g70
g51
NtRp2771
(dp2772
g54
(dp2773
sg63
g2758
sg56
(lp2774
g49
(g50
g51
NtRp2775
(dp2776
g54
(dp2777
g62
I3
ssg63
g2771
sg56
(lp2778
g1477
asbasbasbag49
(g65
g51
NtRp2779
(dp2780
g54
(dp2781
sg63
g2247
sg56
(lp2782
g49
(g70
g51
NtRp2783
(dp2784
g54
(dp2785
g74
g75
ssg63
g2779
sg56
(lp2786
S'wsgi.run_once'
p2787
asbag49
(g70
g51
NtRp2788
(dp2789
g54
(dp2790
g81
g82
ssg63
g2779
sg56
(lp2791
S':'
asbag49
(g70
g51
NtRp2792
(dp2793
g54
(dp2794
sg63
g2779
sg56
(lp2795
g49
(g50
g51
NtRp2796
(dp2797
g54
(dp2798
g62
I3
ssg63
g2792
sg56
(lp2799
g92
asbasbasbag49
(g65
g51
NtRp2800
(dp2801
g54
(dp2802
sg63
g2247
sg56
(lp2803
g49
(g70
g51
NtRp2804
(dp2805
g54
(dp2806
g74
g75
ssg63
g2800
sg56
(lp2807
S'wsgi.url_scheme'
p2808
asbag49
(g70
g51
NtRp2809
(dp2810
g54
(dp2811
g81
g82
ssg63
g2800
sg56
(lp2812
S':'
asbag49
(g70
g51
NtRp2813
(dp2814
g54
(dp2815
sg63
g2800
sg56
(lp2816
g49
(g50
g51
NtRp2817
(dp2818
g54
(dp2819
g62
I3
ssg63
g2813
sg56
(lp2820
g1520
asbasbasbag49
(g65
g51
NtRp2821
(dp2822
g54
(dp2823
sg63
g2247
sg56
(lp2824
g49
(g70
g51
NtRp2825
(dp2826
g54
(dp2827
g74
g75
ssg63
g2821
sg56
(lp2828
S'wsgi.version'
p2829
asbag49
(g70
g51
NtRp2830
(dp2831
g54
(dp2832
g81
g82
ssg63
g2821
sg56
(lp2833
S':'
asbag49
(g70
g51
NtRp2834
(dp2835
g54
(dp2836
sg63
g2821
sg56
(lp2837
g49
(g50
g51
NtRp2838
(dp2839
g54
(dp2840
g62
I3
ssg63
g2834
sg56
(lp2841
S'1'
asbasbasbasbasbasbasbasbasbasbasbasbasbsS'frames'
p2842
(lp2843
(dp2844
S'file'
p2845
S'C:\\web2py\\gluon\\restricted.py'
p2846
sS'dump'
p2847
(dp2848
sS'lnum'
p2849
I205
sS'lines'
p2850
(dp2851
sS'call'
p2852
S"(code='# -*- coding: utf-8 -*-\\n# this file is released ...=crud())\\n\\n\\nresponse._vars=response._caller(Code)\\n', environment={'A': <class 'gluon.html.A'>, 'Auth': <class 'gluon.tools.Auth'>, 'B': <class 'gluon.html.B'>, 'BEAUTIFY': <class 'gluon.html.BEAUTIFY'>, 'BODY': <class 'gluon.html.BODY'>, 'BR': <class 'gluon.html.BR'>, 'BUTTON': <class 'gluon.html.BUTTON'>, 'CAT': <class 'gluon.html.CAT'>, 'CENTER': <class 'gluon.html.CENTER'>, 'CLEANUP': <class 'gluon.validators.CLEANUP'>, ...}, layer=r'C:\\web2py\\applications\\unioeste_code\\controllers/default.py')"
p2853
sS'func'
p2854
S'restricted'
p2855
sa(dp2856
g2845
S'C:\\web2py\\applications\\unioeste_code\\controllers\\default.py'
p2857
sg2847
(dp2858
sg2849
I93
sg2850
(dp2859
I82
S'    http://..../[app]/default/data/delete/[table]/[id]'
p2860
sI83
S'    http://..../[app]/default/data/select/[table]'
p2861
sI84
S'    http://..../[app]/default/data/search/[table]'
p2862
sI85
S'    but URLs must be signed, i.e. linked with'
p2863
sI86
S"      A('table',_href=URL('data/tables',user_signature=True))"
p2864
sI87
S'    or with the signed load operator'
p2865
sI88
S"      LOAD('default','data.load',args='tables',ajax=True,user_signature=True)"
p2866
sI89
S'    """'
p2867
sI90
S'    return dict(form=crud())'
p2868
sI91
S''
ssg2852
S'()'
p2869
sg2854
S'<module>'
p2870
sa(dp2871
g2845
S'C:\\web2py\\gluon\\globals.py'
p2872
sg2847
(dp2873
sg2849
I173
sg2850
(dp2874
sg2852
S'(f=<function Code at 0x065BF1B0>)'
p2875
sg2854
S'<lambda>'
p2876
sa(dp2877
g2845
S'C:\\web2py\\gluon\\tools.py'
p2878
sg2847
(dp2879
sg2849
I2575
sg2850
(dp2880
sg2852
S'(*a=(), **b={})'
p2881
sg2854
S'f'
sa(dp2882
g2845
S'C:\\web2py\\applications\\unioeste_code\\controllers\\default.py'
p2883
sg2847
(dp2884
sg2849
I33
sg2850
(dp2885
I32
S"        response.flash = T('Your comment has been posted')"
p2886
sI33
S'    return dict(message=message)'
p2887
sI34
S''
sI35
S"@auth.requires_membership('manager')"
p2888
sI36
S'def manageCode():'
p2889
sI37
S'    grid = SQLFORM.smartgrid(db.code)'
p2890
sI28
S'    code = db(db.code.id == request.args(0)).select().first()'
p2891
sI29
S'    db.comment.code_id.default = code.id'
p2892
sI30
S'    form = SQLFORM(db.comment)'
p2893
sI31
S'    if form.process().accepted:'
p2894
ssg2852
S'()'
p2895
sg2854
S'Code'
p2896
sasS'pyver'
p2897
S'Python 2.5.4: C:\\web2py\\web2py_no_console.exe'
p2898
sS'session'
p2899
g49
(g50
g51
NtRp2900
(dp2901
g54
(dp2902
sg56
(lp2903
g49
(g58
g51
NtRp2904
(dp2905
g54
(dp2906
g62
I5
ssg63
Nsg56
(lp2907
g49
(g65
g51
NtRp2908
(dp2909
g54
(dp2910
sg63
g2904
sg56
(lp2911
g49
(g70
g51
NtRp2912
(dp2913
g54
(dp2914
g74
g75
ssg63
g2908
sg56
(lp2915
S'auth'
p2916
asbag49
(g70
g51
NtRp2917
(dp2918
g54
(dp2919
g81
g82
ssg63
g2908
sg56
(lp2920
S':'
asbag49
(g70
g51
NtRp2921
(dp2922
g54
(dp2923
sg63
g2908
sg56
(lp2924
g49
(g50
g51
NtRp2925
(dp2926
g54
(dp2927
g62
I5
ssg63
g2921
sg56
(lp2928
g49
(g58
g51
NtRp2929
(dp2930
g54
(dp2931
g62
I4
ssg63
Nsg56
(lp2932
g49
(g65
g51
NtRp2933
(dp2934
g54
(dp2935
sg63
g2929
sg56
(lp2936
g49
(g70
g51
NtRp2937
(dp2938
g54
(dp2939
g74
g75
ssg63
g2933
sg56
(lp2940
S'expiration'
p2941
asbag49
(g70
g51
NtRp2942
(dp2943
g54
(dp2944
g81
g82
ssg63
g2933
sg56
(lp2945
S':'
asbag49
(g70
g51
NtRp2946
(dp2947
g54
(dp2948
sg63
g2933
sg56
(lp2949
g49
(g50
g51
NtRp2950
(dp2951
g54
(dp2952
g62
I4
ssg63
g2946
sg56
(lp2953
S'3600'
p2954
asbasbasbag49
(g65
g51
NtRp2955
(dp2956
g54
(dp2957
sg63
g2929
sg56
(lp2958
g49
(g70
g51
NtRp2959
(dp2960
g54
(dp2961
g74
g75
ssg63
g2955
sg56
(lp2962
S'hmac_key'
p2963
asbag49
(g70
g51
NtRp2964
(dp2965
g54
(dp2966
g81
g82
ssg63
g2955
sg56
(lp2967
S':'
asbag49
(g70
g51
NtRp2968
(dp2969
g54
(dp2970
sg63
g2955
sg56
(lp2971
g49
(g50
g51
NtRp2972
(dp2973
g54
(dp2974
g62
I4
ssg63
g2968
sg56
(lp2975
S'995a0c66-3f99-485b-9dcd-26805f1668c1'
p2976
asbasbasbag49
(g65
g51
NtRp2977
(dp2978
g54
(dp2979
sg63
g2929
sg56
(lp2980
g49
(g70
g51
NtRp2981
(dp2982
g54
(dp2983
g74
g75
ssg63
g2977
sg56
(lp2984
S'last_visit'
p2985
asbag49
(g70
g51
NtRp2986
(dp2987
g54
(dp2988
g81
g82
ssg63
g2977
sg56
(lp2989
S':'
asbag49
(g70
g51
NtRp2990
(dp2991
g54
(dp2992
sg63
g2977
sg56
(lp2993
g49
(g50
g51
NtRp2994
(dp2995
g54
(dp2996
g62
I4
ssg63
g2990
sg56
(lp2997
S'datetime.datetime(2012, 7, 30, 1, 25, 37, 578000)'
p2998
asbasbasbag49
(g65
g51
NtRp2999
(dp3000
g54
(dp3001
sg63
g2929
sg56
(lp3002
g49
(g70
g51
NtRp3003
(dp3004
g54
(dp3005
g74
g75
ssg63
g2999
sg56
(lp3006
S'remember'
p3007
asbag49
(g70
g51
NtRp3008
(dp3009
g54
(dp3010
g81
g82
ssg63
g2999
sg56
(lp3011
S':'
asbag49
(g70
g51
NtRp3012
(dp3013
g54
(dp3014
sg63
g2999
sg56
(lp3015
g49
(g50
g51
NtRp3016
(dp3017
g54
(dp3018
g62
I4
ssg63
g3012
sg56
(lp3019
g92
asbasbasbag49
(g65
g51
NtRp3020
(dp3021
g54
(dp3022
sg63
g2929
sg56
(lp3023
g49
(g70
g51
NtRp3024
(dp3025
g54
(dp3026
g74
g75
ssg63
g3020
sg56
(lp3027
S'user'
p3028
asbag49
(g70
g51
NtRp3029
(dp3030
g54
(dp3031
g81
g82
ssg63
g3020
sg56
(lp3032
S':'
asbag49
(g70
g51
NtRp3033
(dp3034
g54
(dp3035
sg63
g3020
sg56
(lp3036
g49
(g50
g51
NtRp3037
(dp3038
g54
(dp3039
g62
I4
ssg63
g3033
sg56
(lp3040
g49
(g58
g51
NtRp3041
(dp3042
g54
(dp3043
g62
I3
ssg63
Nsg56
(lp3044
g49
(g65
g51
NtRp3045
(dp3046
g54
(dp3047
sg63
g3041
sg56
(lp3048
g49
(g70
g51
NtRp3049
(dp3050
g54
(dp3051
g74
g75
ssg63
g3045
sg56
(lp3052
S'email'
p3053
asbag49
(g70
g51
NtRp3054
(dp3055
g54
(dp3056
g81
g82
ssg63
g3045
sg56
(lp3057
S':'
asbag49
(g70
g51
NtRp3058
(dp3059
g54
(dp3060
sg63
g3045
sg56
(lp3061
g49
(g50
g51
NtRp3062
(dp3063
g54
(dp3064
g62
I3
ssg63
g3058
sg56
(lp3065
S'scmirror1@gmail.com'
p3066
asbasbasbag49
(g65
g51
NtRp3067
(dp3068
g54
(dp3069
sg63
g3041
sg56
(lp3070
g49
(g70
g51
NtRp3071
(dp3072
g54
(dp3073
g74
g75
ssg63
g3067
sg56
(lp3074
S'first_name'
p3075
asbag49
(g70
g51
NtRp3076
(dp3077
g54
(dp3078
g81
g82
ssg63
g3067
sg56
(lp3079
S':'
asbag49
(g70
g51
NtRp3080
(dp3081
g54
(dp3082
sg63
g3067
sg56
(lp3083
g49
(g50
g51
NtRp3084
(dp3085
g54
(dp3086
g62
I3
ssg63
g3080
sg56
(lp3087
S'Pedro'
p3088
asbasbasbag49
(g65
g51
NtRp3089
(dp3090
g54
(dp3091
sg63
g3041
sg56
(lp3092
g49
(g70
g51
NtRp3093
(dp3094
g54
(dp3095
g74
g75
ssg63
g3089
sg56
(lp3096
S'id'
p3097
asbag49
(g70
g51
NtRp3098
(dp3099
g54
(dp3100
g81
g82
ssg63
g3089
sg56
(lp3101
S':'
asbag49
(g70
g51
NtRp3102
(dp3103
g54
(dp3104
sg63
g3089
sg56
(lp3105
g49
(g50
g51
NtRp3106
(dp3107
g54
(dp3108
g62
I3
ssg63
g3102
sg56
(lp3109
S'1'
asbasbasbag49
(g65
g51
NtRp3110
(dp3111
g54
(dp3112
sg63
g3041
sg56
(lp3113
g49
(g70
g51
NtRp3114
(dp3115
g54
(dp3116
g74
g75
ssg63
g3110
sg56
(lp3117
S'last_name'
p3118
asbag49
(g70
g51
NtRp3119
(dp3120
g54
(dp3121
g81
g82
ssg63
g3110
sg56
(lp3122
S':'
asbag49
(g70
g51
NtRp3123
(dp3124
g54
(dp3125
sg63
g3110
sg56
(lp3126
g49
(g50
g51
NtRp3127
(dp3128
g54
(dp3129
g62
I3
ssg63
g3123
sg56
(lp3130
S'Lacerda'
p3131
asbasbasbag49
(g65
g51
NtRp3132
(dp3133
g54
(dp3134
sg63
g3041
sg56
(lp3135
g49
(g70
g51
NtRp3136
(dp3137
g54
(dp3138
g74
g75
ssg63
g3132
sg56
(lp3139
S'password'
p3140
asbag49
(g70
g51
NtRp3141
(dp3142
g54
(dp3143
g81
g82
ssg63
g3132
sg56
(lp3144
S':'
asbag49
(g70
g51
NtRp3145
(dp3146
g54
(dp3147
sg63
g3132
sg56
(lp3148
g49
(g50
g51
NtRp3149
(dp3150
g54
(dp3151
g62
I3
ssg63
g3145
sg56
(lp3152
S'4297f44b13955235245b2497399d7a93'
p3153
asbasbasbag49
(g65
g51
NtRp3154
(dp3155
g54
(dp3156
sg63
g3041
sg56
(lp3157
g49
(g70
g51
NtRp3158
(dp3159
g54
(dp3160
g74
g75
ssg63
g3154
sg56
(lp3161
S'registration_id'
p3162
asbag49
(g70
g51
NtRp3163
(dp3164
g54
(dp3165
g81
g82
ssg63
g3154
sg56
(lp3166
S':'
asbag49
(g70
g51
NtRp3167
(dp3168
g54
(dp3169
sg63
g3154
sg56
(lp3170
g49
(g50
g51
NtRp3171
(dp3172
g54
(dp3173
g62
I3
ssg63
g3167
sg56
(lp3174
S''
asbasbasbag49
(g65
g51
NtRp3175
(dp3176
g54
(dp3177
sg63
g3041
sg56
(lp3178
g49
(g70
g51
NtRp3179
(dp3180
g54
(dp3181
g74
g75
ssg63
g3175
sg56
(lp3182
S'registration_key'
p3183
asbag49
(g70
g51
NtRp3184
(dp3185
g54
(dp3186
g81
g82
ssg63
g3175
sg56
(lp3187
S':'
asbag49
(g70
g51
NtRp3188
(dp3189
g54
(dp3190
sg63
g3175
sg56
(lp3191
g49
(g50
g51
NtRp3192
(dp3193
g54
(dp3194
g62
I3
ssg63
g3188
sg56
(lp3195
S''
asbasbasbag49
(g65
g51
NtRp3196
(dp3197
g54
(dp3198
sg63
g3041
sg56
(lp3199
g49
(g70
g51
NtRp3200
(dp3201
g54
(dp3202
g74
g75
ssg63
g3196
sg56
(lp3203
S'reset_password_key'
p3204
asbag49
(g70
g51
NtRp3205
(dp3206
g54
(dp3207
g81
g82
ssg63
g3196
sg56
(lp3208
S':'
asbag49
(g70
g51
NtRp3209
(dp3210
g54
(dp3211
sg63
g3196
sg56
(lp3212
g49
(g50
g51
NtRp3213
(dp3214
g54
(dp3215
g62
I3
ssg63
g3209
sg56
(lp3216
S''
asbasbasbasbasbasbasbag49
(g65
g51
NtRp3217
(dp3218
g54
(dp3219
sg63
g2929
sg56
(lp3220
g49
(g70
g51
NtRp3221
(dp3222
g54
(dp3223
g74
g75
ssg63
g3217
sg56
(lp3224
S'user_groups'
p3225
asbag49
(g70
g51
NtRp3226
(dp3227
g54
(dp3228
g81
g82
ssg63
g3217
sg56
(lp3229
S':'
asbag49
(g70
g51
NtRp3230
(dp3231
g54
(dp3232
sg63
g3217
sg56
(lp3233
g49
(g50
g51
NtRp3234
(dp3235
g54
(dp3236
g62
I4
ssg63
g3230
sg56
(lp3237
g49
(g58
g51
NtRp3238
(dp3239
g54
(dp3240
g62
I3
ssg63
Nsg56
(lp3241
g49
(g65
g51
NtRp3242
(dp3243
g54
(dp3244
sg63
g3238
sg56
(lp3245
g49
(g70
g51
NtRp3246
(dp3247
g54
(dp3248
g74
g75
ssg63
g3242
sg56
(lp3249
S'1'
asbag49
(g70
g51
NtRp3250
(dp3251
g54
(dp3252
g81
g82
ssg63
g3242
sg56
(lp3253
S':'
asbag49
(g70
g51
NtRp3254
(dp3255
g54
(dp3256
sg63
g3242
sg56
(lp3257
g49
(g50
g51
NtRp3258
(dp3259
g54
(dp3260
g62
I3
ssg63
g3254
sg56
(lp3261
S'user_1'
p3262
asbasbasbag49
(g65
g51
NtRp3263
(dp3264
g54
(dp3265
sg63
g3238
sg56
(lp3266
g49
(g70
g51
NtRp3267
(dp3268
g54
(dp3269
g74
g75
ssg63
g3263
sg56
(lp3270
S'2'
asbag49
(g70
g51
NtRp3271
(dp3272
g54
(dp3273
g81
g82
ssg63
g3263
sg56
(lp3274
S':'
asbag49
(g70
g51
NtRp3275
(dp3276
g54
(dp3277
sg63
g3263
sg56
(lp3278
g49
(g50
g51
NtRp3279
(dp3280
g54
(dp3281
g62
I3
ssg63
g3275
sg56
(lp3282
S'manager'
p3283
asbasbasbasbasbasbasbasbasbasbasbasbasbsS'etype'
p3284
S"<type 'exceptions.NameError'>"
p3285
sS'date'
p3286
S'Mon Jul 30 01:26:58 2012'
p3287
sS'response'
p3288
g49
(g50
g51
NtRp3289
(dp3290
g54
(dp3291
sg56
(lp3292
g49
(g58
g51
NtRp3293
(dp3294
g54
(dp3295
g62
I5
ssg63
Nsg56
(lp3296
g49
(g65
g51
NtRp3297
(dp3298
g54
(dp3299
sg63
g3293
sg56
(lp3300
g49
(g70
g51
NtRp3301
(dp3302
g54
(dp3303
g74
g75
ssg63
g3297
sg56
(lp3304
g159
asbag49
(g70
g51
NtRp3305
(dp3306
g54
(dp3307
g81
g82
ssg63
g3297
sg56
(lp3308
S':'
asbag49
(g70
g51
NtRp3309
(dp3310
g54
(dp3311
sg63
g3297
sg56
(lp3312
g49
(g50
g51
NtRp3313
(dp3314
g54
(dp3315
g62
I5
ssg63
g3309
sg56
(lp3316
S'<cStringIO.StringO object at 0x0645C740>'
p3317
asbasbasbag49
(g65
g51
NtRp3318
(dp3319
g54
(dp3320
sg63
g3293
sg56
(lp3321
g49
(g70
g51
NtRp3322
(dp3323
g54
(dp3324
g74
g75
ssg63
g3318
sg56
(lp3325
g225
asbag49
(g70
g51
NtRp3326
(dp3327
g54
(dp3328
g81
g82
ssg63
g3318
sg56
(lp3329
S':'
asbag49
(g70
g51
NtRp3330
(dp3331
g54
(dp3332
sg63
g3318
sg56
(lp3333
g49
(g50
g51
NtRp3334
(dp3335
g54
(dp3336
g62
I5
ssg63
g3330
sg56
(lp3337
g49
(g58
g51
NtRp3338
(dp3339
g54
(dp3340
g62
I4
ssg63
Nsg56
(lp3341
g49
(g65
g51
NtRp3342
(dp3343
g54
(dp3344
sg63
g3338
sg56
(lp3345
g49
(g70
g51
NtRp3346
(dp3347
g54
(dp3348
g74
g75
ssg63
g3342
sg56
(lp3349
S'session_id_unioeste_code'
p3350
asbag49
(g70
g51
NtRp3351
(dp3352
g54
(dp3353
g81
g82
ssg63
g3342
sg56
(lp3354
S':'
asbag49
(g70
g51
NtRp3355
(dp3356
g54
(dp3357
sg63
g3342
sg56
(lp3358
g49
(g50
g51
NtRp3359
(dp3360
g54
(dp3361
g62
I4
ssg63
g3355
sg56
(lp3362
g49
(g58
g51
NtRp3363
(dp3364
g54
(dp3365
g62
I3
ssg63
Nsg56
(lp3366
g49
(g65
g51
NtRp3367
(dp3368
g54
(dp3369
sg63
g3363
sg56
(lp3370
g49
(g70
g51
NtRp3371
(dp3372
g54
(dp3373
g74
g75
ssg63
g3367
sg56
(lp3374
g275
asbag49
(g70
g51
NtRp3375
(dp3376
g54
(dp3377
g81
g82
ssg63
g3367
sg56
(lp3378
S':'
asbag49
(g70
g51
NtRp3379
(dp3380
g54
(dp3381
sg63
g3367
sg56
(lp3382
g49
(g50
g51
NtRp3383
(dp3384
g54
(dp3385
g62
I3
ssg63
g3379
sg56
(lp3386
S''
asbasbasbag49
(g65
g51
NtRp3387
(dp3388
g54
(dp3389
sg63
g3363
sg56
(lp3390
g49
(g70
g51
NtRp3391
(dp3392
g54
(dp3393
g74
g75
ssg63
g3387
sg56
(lp3394
g296
asbag49
(g70
g51
NtRp3395
(dp3396
g54
(dp3397
g81
g82
ssg63
g3387
sg56
(lp3398
S':'
asbag49
(g70
g51
NtRp3399
(dp3400
g54
(dp3401
sg63
g3387
sg56
(lp3402
g49
(g50
g51
NtRp3403
(dp3404
g54
(dp3405
g62
I3
ssg63
g3399
sg56
(lp3406
S''
asbasbasbag49
(g65
g51
NtRp3407
(dp3408
g54
(dp3409
sg63
g3363
sg56
(lp3410
g49
(g70
g51
NtRp3411
(dp3412
g54
(dp3413
g74
g75
ssg63
g3407
sg56
(lp3414
g317
asbag49
(g70
g51
NtRp3415
(dp3416
g54
(dp3417
g81
g82
ssg63
g3407
sg56
(lp3418
S':'
asbag49
(g70
g51
NtRp3419
(dp3420
g54
(dp3421
sg63
g3407
sg56
(lp3422
g49
(g50
g51
NtRp3423
(dp3424
g54
(dp3425
g62
I3
ssg63
g3419
sg56
(lp3426
S''
asbasbasbag49
(g65
g51
NtRp3427
(dp3428
g54
(dp3429
sg63
g3363
sg56
(lp3430
g49
(g70
g51
NtRp3431
(dp3432
g54
(dp3433
g74
g75
ssg63
g3427
sg56
(lp3434
g338
asbag49
(g70
g51
NtRp3435
(dp3436
g54
(dp3437
g81
g82
ssg63
g3427
sg56
(lp3438
S':'
asbag49
(g70
g51
NtRp3439
(dp3440
g54
(dp3441
sg63
g3427
sg56
(lp3442
g49
(g50
g51
NtRp3443
(dp3444
g54
(dp3445
g62
I3
ssg63
g3439
sg56
(lp3446
S''
asbasbasbag49
(g65
g51
NtRp3447
(dp3448
g54
(dp3449
sg63
g3363
sg56
(lp3450
g49
(g70
g51
NtRp3451
(dp3452
g54
(dp3453
g74
g75
ssg63
g3447
sg56
(lp3454
g359
asbag49
(g70
g51
NtRp3455
(dp3456
g54
(dp3457
g81
g82
ssg63
g3447
sg56
(lp3458
S':'
asbag49
(g70
g51
NtRp3459
(dp3460
g54
(dp3461
sg63
g3447
sg56
(lp3462
g49
(g50
g51
NtRp3463
(dp3464
g54
(dp3465
g62
I3
ssg63
g3459
sg56
(lp3466
S'/'
asbasbasbag49
(g65
g51
NtRp3467
(dp3468
g54
(dp3469
sg63
g3363
sg56
(lp3470
g49
(g70
g51
NtRp3471
(dp3472
g54
(dp3473
g74
g75
ssg63
g3467
sg56
(lp3474
g380
asbag49
(g70
g51
NtRp3475
(dp3476
g54
(dp3477
g81
g82
ssg63
g3467
sg56
(lp3478
S':'
asbag49
(g70
g51
NtRp3479
(dp3480
g54
(dp3481
sg63
g3467
sg56
(lp3482
g49
(g50
g51
NtRp3483
(dp3484
g54
(dp3485
g62
I3
ssg63
g3479
sg56
(lp3486
S''
asbasbasbag49
(g65
g51
NtRp3487
(dp3488
g54
(dp3489
sg63
g3363
sg56
(lp3490
g49
(g70
g51
NtRp3491
(dp3492
g54
(dp3493
g74
g75
ssg63
g3487
sg56
(lp3494
g401
asbag49
(g70
g51
NtRp3495
(dp3496
g54
(dp3497
g81
g82
ssg63
g3487
sg56
(lp3498
S':'
asbag49
(g70
g51
NtRp3499
(dp3500
g54
(dp3501
sg63
g3487
sg56
(lp3502
g49
(g50
g51
NtRp3503
(dp3504
g54
(dp3505
g62
I3
ssg63
g3499
sg56
(lp3506
S''
asbasbasbasbasbasbasbasbasbasbasbag49
(g65
g51
NtRp3507
(dp3508
g54
(dp3509
sg63
g3293
sg56
(lp3510
g49
(g70
g51
NtRp3511
(dp3512
g54
(dp3513
g74
g75
ssg63
g3507
sg56
(lp3514
S'delimiters'
p3515
asbag49
(g70
g51
NtRp3516
(dp3517
g54
(dp3518
g81
g82
ssg63
g3507
sg56
(lp3519
S':'
asbag49
(g70
g51
NtRp3520
(dp3521
g54
(dp3522
sg63
g3507
sg56
(lp3523
g49
(g50
g51
NtRp3524
(dp3525
g54
(dp3526
g62
I5
ssg63
g3520
sg56
(lp3527
g49
(g58
g51
NtRp3528
(dp3529
g54
(dp3530
g62
I4
ssg63
Nsg56
(lp3531
g49
(g65
g51
NtRp3532
(dp3533
g54
(dp3534
sg63
g3528
sg56
(lp3535
g49
(g70
g51
NtRp3536
(dp3537
g54
(dp3538
sg63
g3532
sg56
(lp3539
g49
(g50
g51
NtRp3540
(dp3541
g54
(dp3542
g62
I4
ssg63
g3536
sg56
(lp3543
S'{{'
p3544
asbasbasbag49
(g65
g51
NtRp3545
(dp3546
g54
(dp3547
sg63
g3528
sg56
(lp3548
g49
(g70
g51
NtRp3549
(dp3550
g54
(dp3551
sg63
g3545
sg56
(lp3552
g49
(g50
g51
NtRp3553
(dp3554
g54
(dp3555
g62
I4
ssg63
g3549
sg56
(lp3556
S'}}'
p3557
asbasbasbasbasbasbasbag49
(g65
g51
NtRp3558
(dp3559
g54
(dp3560
sg63
g3293
sg56
(lp3561
g49
(g70
g51
NtRp3562
(dp3563
g54
(dp3564
g74
g75
ssg63
g3558
sg56
(lp3565
S'files'
p3566
asbag49
(g70
g51
NtRp3567
(dp3568
g54
(dp3569
g81
g82
ssg63
g3558
sg56
(lp3570
S':'
asbag49
(g70
g51
NtRp3571
(dp3572
g54
(dp3573
sg63
g3558
sg56
(lp3574
g49
(g50
g51
NtRp3575
(dp3576
g54
(dp3577
g62
I5
ssg63
g3571
sg56
(lp3578
g49
(g58
g51
NtRp3579
(dp3580
g54
(dp3581
g62
I4
ssg63
Nsg56
(lp3582
sbasbasbasbag49
(g65
g51
NtRp3583
(dp3584
g54
(dp3585
sg63
g3293
sg56
(lp3586
g49
(g70
g51
NtRp3587
(dp3588
g54
(dp3589
g74
g75
ssg63
g3583
sg56
(lp3590
S'flash'
p3591
asbag49
(g70
g51
NtRp3592
(dp3593
g54
(dp3594
g81
g82
ssg63
g3583
sg56
(lp3595
S':'
asbag49
(g70
g51
NtRp3596
(dp3597
g54
(dp3598
sg63
g3583
sg56
(lp3599
g49
(g50
g51
NtRp3600
(dp3601
g54
(dp3602
g62
I5
ssg63
g3596
sg56
(lp3603
S''
asbasbasbag49
(g65
g51
NtRp3604
(dp3605
g54
(dp3606
sg63
g3293
sg56
(lp3607
g49
(g70
g51
NtRp3608
(dp3609
g54
(dp3610
g74
g75
ssg63
g3604
sg56
(lp3611
S'generic_patterns'
p3612
asbag49
(g70
g51
NtRp3613
(dp3614
g54
(dp3615
g81
g82
ssg63
g3604
sg56
(lp3616
S':'
asbag49
(g70
g51
NtRp3617
(dp3618
g54
(dp3619
sg63
g3604
sg56
(lp3620
g49
(g50
g51
NtRp3621
(dp3622
g54
(dp3623
g62
I5
ssg63
g3617
sg56
(lp3624
g49
(g58
g51
NtRp3625
(dp3626
g54
(dp3627
g62
I4
ssg63
Nsg56
(lp3628
sbasbasbasbag49
(g65
g51
NtRp3629
(dp3630
g54
(dp3631
sg63
g3293
sg56
(lp3632
g49
(g70
g51
NtRp3633
(dp3634
g54
(dp3635
g74
g75
ssg63
g3629
sg56
(lp3636
S'headers'
p3637
asbag49
(g70
g51
NtRp3638
(dp3639
g54
(dp3640
g81
g82
ssg63
g3629
sg56
(lp3641
S':'
asbag49
(g70
g51
NtRp3642
(dp3643
g54
(dp3644
sg63
g3629
sg56
(lp3645
g49
(g50
g51
NtRp3646
(dp3647
g54
(dp3648
g62
I5
ssg63
g3642
sg56
(lp3649
g49
(g58
g51
NtRp3650
(dp3651
g54
(dp3652
g62
I4
ssg63
Nsg56
(lp3653
g49
(g65
g51
NtRp3654
(dp3655
g54
(dp3656
sg63
g3650
sg56
(lp3657
g49
(g70
g51
NtRp3658
(dp3659
g54
(dp3660
g74
g75
ssg63
g3654
sg56
(lp3661
S'Cache-Control'
p3662
asbag49
(g70
g51
NtRp3663
(dp3664
g54
(dp3665
g81
g82
ssg63
g3654
sg56
(lp3666
S':'
asbag49
(g70
g51
NtRp3667
(dp3668
g54
(dp3669
sg63
g3654
sg56
(lp3670
g49
(g50
g51
NtRp3671
(dp3672
g54
(dp3673
g62
I4
ssg63
g3667
sg56
(lp3674
S'no-store, no-cache, must-revalidate, post-check=0, pre-check=0'
p3675
asbasbasbag49
(g65
g51
NtRp3676
(dp3677
g54
(dp3678
sg63
g3650
sg56
(lp3679
g49
(g70
g51
NtRp3680
(dp3681
g54
(dp3682
g74
g75
ssg63
g3676
sg56
(lp3683
S'Content-Type'
p3684
asbag49
(g70
g51
NtRp3685
(dp3686
g54
(dp3687
g81
g82
ssg63
g3676
sg56
(lp3688
S':'
asbag49
(g70
g51
NtRp3689
(dp3690
g54
(dp3691
sg63
g3676
sg56
(lp3692
g49
(g50
g51
NtRp3693
(dp3694
g54
(dp3695
g62
I4
ssg63
g3689
sg56
(lp3696
S'text/html; charset=utf-8'
p3697
asbasbasbag49
(g65
g51
NtRp3698
(dp3699
g54
(dp3700
sg63
g3650
sg56
(lp3701
g49
(g70
g51
NtRp3702
(dp3703
g54
(dp3704
g74
g75
ssg63
g3698
sg56
(lp3705
S'Expires'
p3706
asbag49
(g70
g51
NtRp3707
(dp3708
g54
(dp3709
g81
g82
ssg63
g3698
sg56
(lp3710
S':'
asbag49
(g70
g51
NtRp3711
(dp3712
g54
(dp3713
sg63
g3698
sg56
(lp3714
g49
(g50
g51
NtRp3715
(dp3716
g54
(dp3717
g62
I4
ssg63
g3711
sg56
(lp3718
S'Mon, 30 Jul 2012 04:26:58 GMT'
p3719
asbasbasbag49
(g65
g51
NtRp3720
(dp3721
g54
(dp3722
sg63
g3650
sg56
(lp3723
g49
(g70
g51
NtRp3724
(dp3725
g54
(dp3726
g74
g75
ssg63
g3720
sg56
(lp3727
S'Pragma'
p3728
asbag49
(g70
g51
NtRp3729
(dp3730
g54
(dp3731
g81
g82
ssg63
g3720
sg56
(lp3732
S':'
asbag49
(g70
g51
NtRp3733
(dp3734
g54
(dp3735
sg63
g3720
sg56
(lp3736
g49
(g50
g51
NtRp3737
(dp3738
g54
(dp3739
g62
I4
ssg63
g3733
sg56
(lp3740
S'no-cache'
p3741
asbasbasbag49
(g65
g51
NtRp3742
(dp3743
g54
(dp3744
sg63
g3650
sg56
(lp3745
g49
(g70
g51
NtRp3746
(dp3747
g54
(dp3748
g74
g75
ssg63
g3742
sg56
(lp3749
S'X-Powered-By'
p3750
asbag49
(g70
g51
NtRp3751
(dp3752
g54
(dp3753
g81
g82
ssg63
g3742
sg56
(lp3754
S':'
asbag49
(g70
g51
NtRp3755
(dp3756
g54
(dp3757
sg63
g3742
sg56
(lp3758
g49
(g50
g51
NtRp3759
(dp3760
g54
(dp3761
g62
I4
ssg63
g3755
sg56
(lp3762
S'web2py'
p3763
asbasbasbasbasbasbasbag49
(g65
g51
NtRp3764
(dp3765
g54
(dp3766
sg63
g3293
sg56
(lp3767
g49
(g70
g51
NtRp3768
(dp3769
g54
(dp3770
g74
g75
ssg63
g3764
sg56
(lp3771
S'menu'
p3772
asbag49
(g70
g51
NtRp3773
(dp3774
g54
(dp3775
g81
g82
ssg63
g3764
sg56
(lp3776
S':'
asbag49
(g70
g51
NtRp3777
(dp3778
g54
(dp3779
sg63
g3764
sg56
(lp3780
g49
(g50
g51
NtRp3781
(dp3782
g54
(dp3783
g62
I5
ssg63
g3777
sg56
(lp3784
g49
(g58
g51
NtRp3785
(dp3786
g54
(dp3787
g62
I4
ssg63
Nsg56
(lp3788
g49
(g65
g51
NtRp3789
(dp3790
g54
(dp3791
sg63
g3785
sg56
(lp3792
g49
(g70
g51
NtRp3793
(dp3794
g54
(dp3795
sg63
g3789
sg56
(lp3796
g49
(g50
g51
NtRp3797
(dp3798
g54
(dp3799
g62
I4
ssg63
g3793
sg56
(lp3800
g49
(g58
g51
NtRp3801
(dp3802
g54
(dp3803
g62
I3
ssg63
Nsg56
(lp3804
g49
(g65
g51
NtRp3805
(dp3806
g54
(dp3807
sg63
g3801
sg56
(lp3808
g49
(g70
g51
NtRp3809
(dp3810
g54
(dp3811
sg63
g3805
sg56
(lp3812
g49
(g50
g51
NtRp3813
(dp3814
g54
(dp3815
g62
I3
ssg63
g3809
sg56
(lp3816
cgluon.languages
lazyT_unpickle
p3817
(S't\x04\x00\x00\x00Home'
tRp3818
asbasbasbag49
(g65
g51
NtRp3819
(dp3820
g54
(dp3821
sg63
g3801
sg56
(lp3822
g49
(g70
g51
NtRp3823
(dp3824
g54
(dp3825
sg63
g3819
sg56
(lp3826
g49
(g50
g51
NtRp3827
(dp3828
g54
(dp3829
g62
I3
ssg63
g3823
sg56
(lp3830
g92
asbasbasbag49
(g65
g51
NtRp3831
(dp3832
g54
(dp3833
sg63
g3801
sg56
(lp3834
g49
(g70
g51
NtRp3835
(dp3836
g54
(dp3837
sg63
g3831
sg56
(lp3838
g49
(g50
g51
NtRp3839
(dp3840
g54
(dp3841
g62
I3
ssg63
g3835
sg56
(lp3842
S'/unioeste_code/default/index'
p3843
asbasbasbag49
(g65
g51
NtRp3844
(dp3845
g54
(dp3846
sg63
g3801
sg56
(lp3847
g49
(g70
g51
NtRp3848
(dp3849
g54
(dp3850
sg63
g3844
sg56
(lp3851
g49
(g50
g51
NtRp3852
(dp3853
g54
(dp3854
g62
I3
ssg63
g3848
sg56
(lp3855
g49
(g58
g51
NtRp3856
(dp3857
g54
(dp3858
g62
I2
ssg63
Nsg56
(lp3859
sbasbasbasbasbasbasbasbag49
(g65
g51
NtRp3860
(dp3861
g54
(dp3862
sg63
g3785
sg56
(lp3863
g49
(g70
g51
NtRp3864
(dp3865
g54
(dp3866
sg63
g3860
sg56
(lp3867
g49
(g50
g51
NtRp3868
(dp3869
g54
(dp3870
g62
I4
ssg63
g3864
sg56
(lp3871
g49
(g58
g51
NtRp3872
(dp3873
g54
(dp3874
g62
I3
ssg63
Nsg56
(lp3875
g49
(g65
g51
NtRp3876
(dp3877
g54
(dp3878
sg63
g3872
sg56
(lp3879
g49
(g70
g51
NtRp3880
(dp3881
g54
(dp3882
sg63
g3876
sg56
(lp3883
g49
(g50
g51
NtRp3884
(dp3885
g54
(dp3886
g62
I3
ssg63
g3880
sg56
(lp3887
g49
(cgluon.html
SPAN
p3888
g51
NtRp3889
(dp3890
g54
(dp3891
g74
S'color:yellow'
p3892
ssg63
Nsg56
(lp3893
g3763
asbasbasbasbag49
(g65
g51
NtRp3894
(dp3895
g54
(dp3896
sg63
g3872
sg56
(lp3897
g49
(g70
g51
NtRp3898
(dp3899
g54
(dp3900
sg63
g3894
sg56
(lp3901
g49
(g50
g51
NtRp3902
(dp3903
g54
(dp3904
g62
I3
ssg63
g3898
sg56
(lp3905
g92
asbasbasbag49
(g65
g51
NtRp3906
(dp3907
g54
(dp3908
sg63
g3872
sg56
(lp3909
g49
(g70
g51
NtRp3910
(dp3911
g54
(dp3912
sg63
g3906
sg56
(lp3913
g49
(g50
g51
NtRp3914
(dp3915
g54
(dp3916
g62
I3
ssg63
g3910
sg56
(lp3917
S'None'
p3918
asbasbasbag49
(g65
g51
NtRp3919
(dp3920
g54
(dp3921
sg63
g3872
sg56
(lp3922
g49
(g70
g51
NtRp3923
(dp3924
g54
(dp3925
sg63
g3919
sg56
(lp3926
g49
(g50
g51
NtRp3927
(dp3928
g54
(dp3929
g62
I3
ssg63
g3923
sg56
(lp3930
g49
(g58
g51
NtRp3931
(dp3932
g54
(dp3933
g62
I2
ssg63
Nsg56
(lp3934
g49
(g65
g51
NtRp3935
(dp3936
g54
(dp3937
sg63
g3931
sg56
(lp3938
g49
(g70
g51
NtRp3939
(dp3940
g54
(dp3941
sg63
g3935
sg56
(lp3942
g49
(g50
g51
NtRp3943
(dp3944
g54
(dp3945
g62
I2
ssg63
g3939
sg56
(lp3946
g49
(g58
g51
NtRp3947
(dp3948
g54
(dp3949
g62
I1
ssg63
Nsg56
(lp3950
g49
(g65
g51
NtRp3951
(dp3952
g54
(dp3953
sg63
g3947
sg56
(lp3954
g49
(g70
g51
NtRp3955
(dp3956
g54
(dp3957
sg63
g3951
sg56
(lp3958
g49
(g50
g51
NtRp3959
(dp3960
g54
(dp3961
g62
I1
ssg63
g3955
sg56
(lp3962
g3817
(S's\x08\x00\x00\x00My Sites'
tRp3963
asbasbasbag49
(g65
g51
NtRp3964
(dp3965
g54
(dp3966
sg63
g3947
sg56
(lp3967
g49
(g70
g51
NtRp3968
(dp3969
g54
(dp3970
sg63
g3964
sg56
(lp3971
g49
(g50
g51
NtRp3972
(dp3973
g54
(dp3974
g62
I1
ssg63
g3968
sg56
(lp3975
I00
asbasbasbag49
(g65
g51
NtRp3976
(dp3977
g54
(dp3978
sg63
g3947
sg56
(lp3979
g49
(g70
g51
NtRp3980
(dp3981
g54
(dp3982
sg63
g3976
sg56
(lp3983
g49
(g50
g51
NtRp3984
(dp3985
g54
(dp3986
g62
I1
ssg63
g3980
sg56
(lp3987
S'/admin/default/site'
p3988
asbasbasbasbasbasbasbag49
(g65
g51
NtRp3989
(dp3990
g54
(dp3991
sg63
g3931
sg56
(lp3992
g49
(g70
g51
NtRp3993
(dp3994
g54
(dp3995
sg63
g3989
sg56
(lp3996
g49
(g50
g51
NtRp3997
(dp3998
g54
(dp3999
g62
I2
ssg63
g3993
sg56
(lp4000
g49
(g58
g51
NtRp4001
(dp4002
g54
(dp4003
g62
I1
ssg63
Nsg56
(lp4004
g49
(g65
g51
NtRp4005
(dp4006
g54
(dp4007
sg63
g4001
sg56
(lp4008
g49
(g70
g51
NtRp4009
(dp4010
g54
(dp4011
sg63
g4005
sg56
(lp4012
g49
(g50
g51
NtRp4013
(dp4014
g54
(dp4015
g62
I1
ssg63
g4009
sg56
(lp4016
g3817
(S's\x08\x00\x00\x00This App'
tRp4017
asbasbasbag49
(g65
g51
NtRp4018
(dp4019
g54
(dp4020
sg63
g4001
sg56
(lp4021
g49
(g70
g51
NtRp4022
(dp4023
g54
(dp4024
sg63
g4018
sg56
(lp4025
g49
(g50
g51
NtRp4026
(dp4027
g54
(dp4028
g62
I1
ssg63
g4022
sg56
(lp4029
I00
asbasbasbag49
(g65
g51
NtRp4030
(dp4031
g54
(dp4032
sg63
g4001
sg56
(lp4033
g49
(g70
g51
NtRp4034
(dp4035
g54
(dp4036
sg63
g4030
sg56
(lp4037
g49
(g50
g51
NtRp4038
(dp4039
g54
(dp4040
g62
I1
ssg63
g4034
sg56
(lp4041
S'/admin/default/design/unioeste_code'
p4042
asbasbasbag49
(g65
g51
NtRp4043
(dp4044
g54
(dp4045
sg63
g4001
sg56
(lp4046
g49
(g70
g51
NtRp4047
(dp4048
g54
(dp4049
sg63
g4043
sg56
(lp4050
g49
(g50
g51
NtRp4051
(dp4052
g54
(dp4053
g62
I1
ssg63
g4047
sg56
(lp4054
(lp4055
(g3817
(S't\x0b\x00\x00\x00Controlador'
tRp4056
I00
S'/admin/default/edit/unioeste_code/controllers/default.py'
tp4057
a(g3817
(S's\x0e\x00\x00\x00Visualiza\xc3\xa7\xc3\xa3o'
tRp4058
I00
S'/admin/default/edit/unioeste_code/views/default/Code.html'
tp4059
a(g3817
(S't\x06\x00\x00\x00Layout'
tRp4060
I00
S'/admin/default/edit/unioeste_code/views/layout.html'
tp4061
a(g3817
(S't\n\x00\x00\x00Stylesheet'
tRp4062
I00
S'/admin/default/edit/unioeste_code/static/css/web2py.css'
tp4063
a(g3817
(S's\t\x00\x00\x00Modelo BD'
tRp4064
I00
S'/admin/default/edit/unioeste_code/models/db.py'
tp4065
a(g3817
(S's\x0e\x00\x00\x00Modelo de Menu'
tRp4066
I00
S'/admin/default/edit/unioeste_code/models/menu.py'
tp4067
a(g3817
(S's\x0e\x00\x00\x00Banco de dados'
tRp4068
I00
S'/unioeste_code/appadmin/index'
tp4069
a(g3817
(S't\x06\x00\x00\x00Errors'
tRp4070
I00
S'/admin/default/errors/unioeste_code'
tp4071
a(g3817
(S't\x05\x00\x00\x00About'
tRp4072
I00
S'/admin/default/about/unioeste_code'
tp4073
aasbasbasbasbasbasbasbag49
(g65
g51
NtRp4074
(dp4075
g54
(dp4076
sg63
g3931
sg56
(lp4077
g49
(g70
g51
NtRp4078
(dp4079
g54
(dp4080
sg63
g4074
sg56
(lp4081
g49
(g50
g51
NtRp4082
(dp4083
g54
(dp4084
g62
I2
ssg63
g4078
sg56
(lp4085
g49
(g58
g51
NtRp4086
(dp4087
g54
(dp4088
g62
I1
ssg63
Nsg56
(lp4089
g49
(g65
g51
NtRp4090
(dp4091
g54
(dp4092
sg63
g4086
sg56
(lp4093
g49
(g70
g51
NtRp4094
(dp4095
g54
(dp4096
sg63
g4090
sg56
(lp4097
g49
(g50
g51
NtRp4098
(dp4099
g54
(dp4100
g62
I1
ssg63
g4094
sg56
(lp4101
S'web2py.com'
p4102
asbasbasbag49
(g65
g51
NtRp4103
(dp4104
g54
(dp4105
sg63
g4086
sg56
(lp4106
g49
(g70
g51
NtRp4107
(dp4108
g54
(dp4109
sg63
g4103
sg56
(lp4110
g49
(g50
g51
NtRp4111
(dp4112
g54
(dp4113
g62
I1
ssg63
g4107
sg56
(lp4114
I00
asbasbasbag49
(g65
g51
NtRp4115
(dp4116
g54
(dp4117
sg63
g4086
sg56
(lp4118
g49
(g70
g51
NtRp4119
(dp4120
g54
(dp4121
sg63
g4115
sg56
(lp4122
g49
(g50
g51
NtRp4123
(dp4124
g54
(dp4125
g62
I1
ssg63
g4119
sg56
(lp4126
S'http://www.web2py.com'
p4127
asbasbasbag49
(g65
g51
NtRp4128
(dp4129
g54
(dp4130
sg63
g4086
sg56
(lp4131
g49
(g70
g51
NtRp4132
(dp4133
g54
(dp4134
sg63
g4128
sg56
(lp4135
g49
(g50
g51
NtRp4136
(dp4137
g54
(dp4138
g62
I1
ssg63
g4132
sg56
(lp4139
(lp4140
(g3817
(S't\x08\x00\x00\x00Download'
tRp4141
I00
S'http://www.web2py.com/examples/default/download'
p4142
tp4143
a(g3817
(S't\x07\x00\x00\x00Support'
tRp4144
I00
S'http://www.web2py.com/examples/default/support'
p4145
tp4146
a(g3817
(S't\x04\x00\x00\x00Demo'
tRp4147
I00
S'http://web2py.com/demo_admin'
p4148
tp4149
a(g3817
(S's\x0e\x00\x00\x00Quick Examples'
tRp4150
I00
S'http://web2py.com/examples/default/examples'
p4151
tp4152
a(g3817
(S't\x03\x00\x00\x00FAQ'
tRp4153
I00
S'http://web2py.com/AlterEgo'
p4154
tp4155
a(g3817
(S't\x06\x00\x00\x00Videos'
tRp4156
I00
S'http://www.web2py.com/examples/default/videos/'
p4157
tp4158
a(g3817
(S's\x11\x00\x00\x00Free Applications'
tRp4159
I00
S'http://web2py.com/appliances'
p4160
tp4161
a(g3817
(S't\x07\x00\x00\x00Plugins'
tRp4162
I00
S'http://web2py.com/plugins'
p4163
tp4164
a(g3817
(S't\x07\x00\x00\x00Layouts'
tRp4165
I00
S'http://web2py.com/layouts'
p4166
tp4167
a(g3817
(S't\x07\x00\x00\x00Recipes'
tRp4168
I00
S'http://web2pyslices.com/'
p4169
tp4170
a(g3817
(S't\x08\x00\x00\x00Semantic'
tRp4171
I00
S'http://web2py.com/semantic'
p4172
tp4173
aasbasbasbasbasbasbasbag49
(g65
g51
NtRp4174
(dp4175
g54
(dp4176
sg63
g3931
sg56
(lp4177
g49
(g70
g51
NtRp4178
(dp4179
g54
(dp4180
sg63
g4174
sg56
(lp4181
g49
(g50
g51
NtRp4182
(dp4183
g54
(dp4184
g62
I2
ssg63
g4178
sg56
(lp4185
g49
(g58
g51
NtRp4186
(dp4187
g54
(dp4188
g62
I1
ssg63
Nsg56
(lp4189
g49
(g65
g51
NtRp4190
(dp4191
g54
(dp4192
sg63
g4186
sg56
(lp4193
g49
(g70
g51
NtRp4194
(dp4195
g54
(dp4196
sg63
g4190
sg56
(lp4197
g49
(g50
g51
NtRp4198
(dp4199
g54
(dp4200
g62
I1
ssg63
g4194
sg56
(lp4201
g3817
(S't\r\x00\x00\x00Documentation'
tRp4202
asbasbasbag49
(g65
g51
NtRp4203
(dp4204
g54
(dp4205
sg63
g4186
sg56
(lp4206
g49
(g70
g51
NtRp4207
(dp4208
g54
(dp4209
sg63
g4203
sg56
(lp4210
g49
(g50
g51
NtRp4211
(dp4212
g54
(dp4213
g62
I1
ssg63
g4207
sg56
(lp4214
I00
asbasbasbag49
(g65
g51
NtRp4215
(dp4216
g54
(dp4217
sg63
g4186
sg56
(lp4218
g49
(g70
g51
NtRp4219
(dp4220
g54
(dp4221
sg63
g4215
sg56
(lp4222
g49
(g50
g51
NtRp4223
(dp4224
g54
(dp4225
g62
I1
ssg63
g4219
sg56
(lp4226
S'http://www.web2py.com/book'
p4227
asbasbasbag49
(g65
g51
NtRp4228
(dp4229
g54
(dp4230
sg63
g4186
sg56
(lp4231
g49
(g70
g51
NtRp4232
(dp4233
g54
(dp4234
sg63
g4228
sg56
(lp4235
g49
(g50
g51
NtRp4236
(dp4237
g54
(dp4238
g62
I1
ssg63
g4232
sg56
(lp4239
(lp4240
(g3817
(S't\x07\x00\x00\x00Preface'
tRp4241
I00
S'http://www.web2py.com/book/default/chapter/00'
p4242
tp4243
a(g3817
(S't\x0c\x00\x00\x00Introduction'
tRp4244
I00
S'http://www.web2py.com/book/default/chapter/01'
p4245
tp4246
a(g3817
(S't\x06\x00\x00\x00Python'
tRp4247
I00
S'http://www.web2py.com/book/default/chapter/02'
p4248
tp4249
a(g3817
(S't\x08\x00\x00\x00Overview'
tRp4250
I00
S'http://www.web2py.com/book/default/chapter/03'
p4251
tp4252
a(g3817
(S's\x08\x00\x00\x00The Core'
tRp4253
I00
S'http://www.web2py.com/book/default/chapter/04'
p4254
tp4255
a(g3817
(S's\t\x00\x00\x00The Views'
tRp4256
I00
S'http://www.web2py.com/book/default/chapter/05'
p4257
tp4258
a(g3817
(S's\x0e\x00\x00\x00Banco de dados'
tRp4259
I00
S'http://www.web2py.com/book/default/chapter/06'
p4260
tp4261
a(g3817
(S's\x14\x00\x00\x00Forms and Validators'
tRp4262
I00
S'http://www.web2py.com/book/default/chapter/07'
p4263
tp4264
a(g3817
(S's\r\x00\x00\x00Email and SMS'
tRp4265
I00
S'http://www.web2py.com/book/default/chapter/08'
p4266
tp4267
a(g3817
(S's\x0e\x00\x00\x00Access Control'
tRp4268
I00
S'http://www.web2py.com/book/default/chapter/09'
p4269
tp4270
a(g3817
(S't\x08\x00\x00\x00Services'
tRp4271
I00
S'http://www.web2py.com/book/default/chapter/10'
p4272
tp4273
a(g3817
(S's\x0c\x00\x00\x00Ajax Recipes'
tRp4274
I00
S'http://www.web2py.com/book/default/chapter/11'
p4275
tp4276
a(g3817
(S's\x16\x00\x00\x00Components and Plugins'
tRp4277
I00
S'http://www.web2py.com/book/default/chapter/12'
p4278
tp4279
a(g3817
(S's\x12\x00\x00\x00Deployment Recipes'
tRp4280
I00
S'http://www.web2py.com/book/default/chapter/13'
p4281
tp4282
a(g3817
(S's\r\x00\x00\x00Other Recipes'
tRp4283
I00
S'http://www.web2py.com/book/default/chapter/14'
p4284
tp4285
a(g3817
(S's\r\x00\x00\x00Buy this book'
tRp4286
I00
S'http://stores.lulu.com/web2py'
p4287
tp4288
aasbasbasbasbasbasbasbag49
(g65
g51
NtRp4289
(dp4290
g54
(dp4291
sg63
g3931
sg56
(lp4292
g49
(g70
g51
NtRp4293
(dp4294
g54
(dp4295
sg63
g4289
sg56
(lp4296
g49
(g50
g51
NtRp4297
(dp4298
g54
(dp4299
g62
I2
ssg63
g4293
sg56
(lp4300
g49
(g58
g51
NtRp4301
(dp4302
g54
(dp4303
g62
I1
ssg63
Nsg56
(lp4304
g49
(g65
g51
NtRp4305
(dp4306
g54
(dp4307
sg63
g4301
sg56
(lp4308
g49
(g70
g51
NtRp4309
(dp4310
g54
(dp4311
sg63
g4305
sg56
(lp4312
g49
(g50
g51
NtRp4313
(dp4314
g54
(dp4315
g62
I1
ssg63
g4309
sg56
(lp4316
g3817
(S't\t\x00\x00\x00Community'
tRp4317
asbasbasbag49
(g65
g51
NtRp4318
(dp4319
g54
(dp4320
sg63
g4301
sg56
(lp4321
g49
(g70
g51
NtRp4322
(dp4323
g54
(dp4324
sg63
g4318
sg56
(lp4325
g49
(g50
g51
NtRp4326
(dp4327
g54
(dp4328
g62
I1
ssg63
g4322
sg56
(lp4329
I00
asbasbasbag49
(g65
g51
NtRp4330
(dp4331
g54
(dp4332
sg63
g4301
sg56
(lp4333
g49
(g70
g51
NtRp4334
(dp4335
g54
(dp4336
sg63
g4330
sg56
(lp4337
g49
(g50
g51
NtRp4338
(dp4339
g54
(dp4340
g62
I1
ssg63
g4334
sg56
(lp4341
Nasbasbasbag49
(g65
g51
NtRp4342
(dp4343
g54
(dp4344
sg63
g4301
sg56
(lp4345
g49
(g70
g51
NtRp4346
(dp4347
g54
(dp4348
sg63
g4342
sg56
(lp4349
g49
(g50
g51
NtRp4350
(dp4351
g54
(dp4352
g62
I1
ssg63
g4346
sg56
(lp4353
(lp4354
(g3817
(S't\x06\x00\x00\x00Groups'
tRp4355
I00
S'http://www.web2py.com/examples/default/usergroups'
p4356
tp4357
a(g3817
(S't\x07\x00\x00\x00Twitter'
tRp4358
I00
S'http://twitter.com/web2py'
p4359
tp4360
a(g3817
(S's\t\x00\x00\x00Live Chat'
tRp4361
I00
S'http://webchat.freenode.net/?channels=web2py'
p4362
tp4363
aasbasbasbasbasbasbasbag49
(g65
g51
NtRp4364
(dp4365
g54
(dp4366
sg63
g3931
sg56
(lp4367
g49
(g70
g51
NtRp4368
(dp4369
g54
(dp4370
sg63
g4364
sg56
(lp4371
g49
(g50
g51
NtRp4372
(dp4373
g54
(dp4374
g62
I2
ssg63
g4368
sg56
(lp4375
g49
(g58
g51
NtRp4376
(dp4377
g54
(dp4378
g62
I1
ssg63
Nsg56
(lp4379
g49
(g65
g51
NtRp4380
(dp4381
g54
(dp4382
sg63
g4376
sg56
(lp4383
g49
(g70
g51
NtRp4384
(dp4385
g54
(dp4386
sg63
g4380
sg56
(lp4387
g49
(g50
g51
NtRp4388
(dp4389
g54
(dp4390
g62
I1
ssg63
g4384
sg56
(lp4391
g3817
(S't\x07\x00\x00\x00Plugins'
tRp4392
asbasbasbag49
(g65
g51
NtRp4393
(dp4394
g54
(dp4395
sg63
g4376
sg56
(lp4396
g49
(g70
g51
NtRp4397
(dp4398
g54
(dp4399
sg63
g4393
sg56
(lp4400
g49
(g50
g51
NtRp4401
(dp4402
g54
(dp4403
g62
I1
ssg63
g4397
sg56
(lp4404
I00
asbasbasbag49
(g65
g51
NtRp4405
(dp4406
g54
(dp4407
sg63
g4376
sg56
(lp4408
g49
(g70
g51
NtRp4409
(dp4410
g54
(dp4411
sg63
g4405
sg56
(lp4412
g49
(g50
g51
NtRp4413
(dp4414
g54
(dp4415
g62
I1
ssg63
g4409
sg56
(lp4416
Nasbasbasbag49
(g65
g51
NtRp4417
(dp4418
g54
(dp4419
sg63
g4376
sg56
(lp4420
g49
(g70
g51
NtRp4421
(dp4422
g54
(dp4423
sg63
g4417
sg56
(lp4424
g49
(g50
g51
NtRp4425
(dp4426
g54
(dp4427
g62
I1
ssg63
g4421
sg56
(lp4428
(lp4429
(S'plugin_wiki'
p4430
I00
S'http://web2py.com/examples/default/download'
p4431
tp4432
a(g3817
(S's\r\x00\x00\x00Other Plugins'
tRp4433
I00
g4163
tp4434
a(g3817
(S's\x0e\x00\x00\x00Layout Plugins'
tRp4435
I00
g4166
tp4436
aasbasbasbasbasbasbasbasbasbasbasbasbasbasbasbasbasbasbasbag49
(g65
g51
NtRp4437
(dp4438
g54
(dp4439
sg63
g3293
sg56
(lp4440
g49
(g70
g51
NtRp4441
(dp4442
g54
(dp4443
g74
g75
ssg63
g4437
sg56
(lp4444
S'meta'
p4445
asbag49
(g70
g51
NtRp4446
(dp4447
g54
(dp4448
g81
g82
ssg63
g4437
sg56
(lp4449
S':'
asbag49
(g70
g51
NtRp4450
(dp4451
g54
(dp4452
sg63
g4437
sg56
(lp4453
g49
(g50
g51
NtRp4454
(dp4455
g54
(dp4456
g62
I5
ssg63
g4450
sg56
(lp4457
g49
(g58
g51
NtRp4458
(dp4459
g54
(dp4460
g62
I4
ssg63
Nsg56
(lp4461
g49
(g65
g51
NtRp4462
(dp4463
g54
(dp4464
sg63
g4458
sg56
(lp4465
g49
(g70
g51
NtRp4466
(dp4467
g54
(dp4468
g74
g75
ssg63
g4462
sg56
(lp4469
S'author'
p4470
asbag49
(g70
g51
NtRp4471
(dp4472
g54
(dp4473
g81
g82
ssg63
g4462
sg56
(lp4474
S':'
asbag49
(g70
g51
NtRp4475
(dp4476
g54
(dp4477
sg63
g4462
sg56
(lp4478
g49
(g50
g51
NtRp4479
(dp4480
g54
(dp4481
g62
I4
ssg63
g4475
sg56
(lp4482
S'Your Name <you@example.com>'
p4483
asbasbasbag49
(g65
g51
NtRp4484
(dp4485
g54
(dp4486
sg63
g4458
sg56
(lp4487
g49
(g70
g51
NtRp4488
(dp4489
g54
(dp4490
g74
g75
ssg63
g4484
sg56
(lp4491
S'copyright'
p4492
asbag49
(g70
g51
NtRp4493
(dp4494
g54
(dp4495
g81
g82
ssg63
g4484
sg56
(lp4496
S':'
asbag49
(g70
g51
NtRp4497
(dp4498
g54
(dp4499
sg63
g4484
sg56
(lp4500
g49
(g50
g51
NtRp4501
(dp4502
g54
(dp4503
g62
I4
ssg63
g4497
sg56
(lp4504
S'Copyright 2011'
p4505
asbasbasbag49
(g65
g51
NtRp4506
(dp4507
g54
(dp4508
sg63
g4458
sg56
(lp4509
g49
(g70
g51
NtRp4510
(dp4511
g54
(dp4512
g74
g75
ssg63
g4506
sg56
(lp4513
S'description'
p4514
asbag49
(g70
g51
NtRp4515
(dp4516
g54
(dp4517
g81
g82
ssg63
g4506
sg56
(lp4518
S':'
asbag49
(g70
g51
NtRp4519
(dp4520
g54
(dp4521
sg63
g4506
sg56
(lp4522
g49
(g50
g51
NtRp4523
(dp4524
g54
(dp4525
g62
I4
ssg63
g4519
sg56
(lp4526
S'a cool new app'
p4527
asbasbasbag49
(g65
g51
NtRp4528
(dp4529
g54
(dp4530
sg63
g4458
sg56
(lp4531
g49
(g70
g51
NtRp4532
(dp4533
g54
(dp4534
g74
g75
ssg63
g4528
sg56
(lp4535
S'generator'
p4536
asbag49
(g70
g51
NtRp4537
(dp4538
g54
(dp4539
g81
g82
ssg63
g4528
sg56
(lp4540
S':'
asbag49
(g70
g51
NtRp4541
(dp4542
g54
(dp4543
sg63
g4528
sg56
(lp4544
g49
(g50
g51
NtRp4545
(dp4546
g54
(dp4547
g62
I4
ssg63
g4541
sg56
(lp4548
S'Web2py Web Framework'
p4549
asbasbasbag49
(g65
g51
NtRp4550
(dp4551
g54
(dp4552
sg63
g4458
sg56
(lp4553
g49
(g70
g51
NtRp4554
(dp4555
g54
(dp4556
g74
g75
ssg63
g4550
sg56
(lp4557
S'keywords'
p4558
asbag49
(g70
g51
NtRp4559
(dp4560
g54
(dp4561
g81
g82
ssg63
g4550
sg56
(lp4562
S':'
asbag49
(g70
g51
NtRp4563
(dp4564
g54
(dp4565
sg63
g4550
sg56
(lp4566
g49
(g50
g51
NtRp4567
(dp4568
g54
(dp4569
g62
I4
ssg63
g4563
sg56
(lp4570
S'web2py, python, framework'
p4571
asbasbasbasbasbasbasbag49
(g65
g51
NtRp4572
(dp4573
g54
(dp4574
sg63
g3293
sg56
(lp4575
g49
(g70
g51
NtRp4576
(dp4577
g54
(dp4578
g74
g75
ssg63
g4572
sg56
(lp4579
S'postprocessing'
p4580
asbag49
(g70
g51
NtRp4581
(dp4582
g54
(dp4583
g81
g82
ssg63
g4572
sg56
(lp4584
S':'
asbag49
(g70
g51
NtRp4585
(dp4586
g54
(dp4587
sg63
g4572
sg56
(lp4588
g49
(g50
g51
NtRp4589
(dp4590
g54
(dp4591
g62
I5
ssg63
g4585
sg56
(lp4592
g49
(g58
g51
NtRp4593
(dp4594
g54
(dp4595
g62
I4
ssg63
Nsg56
(lp4596
sbasbasbasbag49
(g65
g51
NtRp4597
(dp4598
g54
(dp4599
sg63
g3293
sg56
(lp4600
g49
(g70
g51
NtRp4601
(dp4602
g54
(dp4603
g74
g75
ssg63
g4597
sg56
(lp4604
S'session_file'
p4605
asbag49
(g70
g51
NtRp4606
(dp4607
g54
(dp4608
g81
g82
ssg63
g4597
sg56
(lp4609
S':'
asbag49
(g70
g51
NtRp4610
(dp4611
g54
(dp4612
sg63
g4597
sg56
(lp4613
g49
(g50
g51
NtRp4614
(dp4615
g54
(dp4616
g62
I5
ssg63
g4610
sg56
(lp4617
S"<open file 'C:\\web2py\\applications\\unioeste_code\\sessions\\127.0.0.1-ac0e57bf-2a61-4ff7-b75a-c2e830b4787a', mode 'rb+' at 0x065B1B60>"
p4618
asbasbasbag49
(g65
g51
NtRp4619
(dp4620
g54
(dp4621
sg63
g3293
sg56
(lp4622
g49
(g70
g51
NtRp4623
(dp4624
g54
(dp4625
g74
g75
ssg63
g4619
sg56
(lp4626
S'session_filename'
p4627
asbag49
(g70
g51
NtRp4628
(dp4629
g54
(dp4630
g81
g82
ssg63
g4619
sg56
(lp4631
S':'
asbag49
(g70
g51
NtRp4632
(dp4633
g54
(dp4634
sg63
g4619
sg56
(lp4635
g49
(g50
g51
NtRp4636
(dp4637
g54
(dp4638
g62
I5
ssg63
g4632
sg56
(lp4639
S'C:\\web2py\\applications\\unioeste_code\\sessions\\127.0.0.1-ac0e57bf-2a61-4ff7-b75a-c2e830b4787a'
p4640
asbasbasbag49
(g65
g51
NtRp4641
(dp4642
g54
(dp4643
sg63
g3293
sg56
(lp4644
g49
(g70
g51
NtRp4645
(dp4646
g54
(dp4647
g74
g75
ssg63
g4641
sg56
(lp4648
S'session_id'
p4649
asbag49
(g70
g51
NtRp4650
(dp4651
g54
(dp4652
g81
g82
ssg63
g4641
sg56
(lp4653
S':'
asbag49
(g70
g51
NtRp4654
(dp4655
g54
(dp4656
sg63
g4641
sg56
(lp4657
g49
(g50
g51
NtRp4658
(dp4659
g54
(dp4660
g62
I5
ssg63
g4654
sg56
(lp4661
S'127.0.0.1-ac0e57bf-2a61-4ff7-b75a-c2e830b4787a'
p4662
asbasbasbag49
(g65
g51
NtRp4663
(dp4664
g54
(dp4665
sg63
g3293
sg56
(lp4666
g49
(g70
g51
NtRp4667
(dp4668
g54
(dp4669
g74
g75
ssg63
g4663
sg56
(lp4670
S'session_id_name'
p4671
asbag49
(g70
g51
NtRp4672
(dp4673
g54
(dp4674
g81
g82
ssg63
g4663
sg56
(lp4675
S':'
asbag49
(g70
g51
NtRp4676
(dp4677
g54
(dp4678
sg63
g4663
sg56
(lp4679
g49
(g50
g51
NtRp4680
(dp4681
g54
(dp4682
g62
I5
ssg63
g4676
sg56
(lp4683
g3350
asbasbasbag49
(g65
g51
NtRp4684
(dp4685
g54
(dp4686
sg63
g3293
sg56
(lp4687
g49
(g70
g51
NtRp4688
(dp4689
g54
(dp4690
g74
g75
ssg63
g4684
sg56
(lp4691
S'session_locked'
p4692
asbag49
(g70
g51
NtRp4693
(dp4694
g54
(dp4695
g81
g82
ssg63
g4684
sg56
(lp4696
S':'
asbag49
(g70
g51
NtRp4697
(dp4698
g54
(dp4699
sg63
g4684
sg56
(lp4700
g49
(g50
g51
NtRp4701
(dp4702
g54
(dp4703
g62
I5
ssg63
g4697
sg56
(lp4704
g1477
asbasbasbag49
(g65
g51
NtRp4705
(dp4706
g54
(dp4707
sg63
g3293
sg56
(lp4708
g49
(g70
g51
NtRp4709
(dp4710
g54
(dp4711
g74
g75
ssg63
g4705
sg56
(lp4712
S'session_new'
p4713
asbag49
(g70
g51
NtRp4714
(dp4715
g54
(dp4716
g81
g82
ssg63
g4705
sg56
(lp4717
S':'
asbag49
(g70
g51
NtRp4718
(dp4719
g54
(dp4720
sg63
g4705
sg56
(lp4721
g49
(g50
g51
NtRp4722
(dp4723
g54
(dp4724
g62
I5
ssg63
g4718
sg56
(lp4725
g92
asbasbasbag49
(g65
g51
NtRp4726
(dp4727
g54
(dp4728
sg63
g3293
sg56
(lp4729
g49
(g70
g51
NtRp4730
(dp4731
g54
(dp4732
g74
g75
ssg63
g4726
sg56
(lp4733
S'status'
p4734
asbag49
(g70
g51
NtRp4735
(dp4736
g54
(dp4737
g81
g82
ssg63
g4726
sg56
(lp4738
S':'
asbag49
(g70
g51
NtRp4739
(dp4740
g54
(dp4741
sg63
g4726
sg56
(lp4742
g49
(g50
g51
NtRp4743
(dp4744
g54
(dp4745
g62
I5
ssg63
g4739
sg56
(lp4746
S'200'
p4747
asbasbasbag49
(g65
g51
NtRp4748
(dp4749
g54
(dp4750
sg63
g3293
sg56
(lp4751
g49
(g70
g51
NtRp4752
(dp4753
g54
(dp4754
g74
g75
ssg63
g4748
sg56
(lp4755
S'subtitle'
p4756
asbag49
(g70
g51
NtRp4757
(dp4758
g54
(dp4759
g81
g82
ssg63
g4748
sg56
(lp4760
S':'
asbag49
(g70
g51
NtRp4761
(dp4762
g54
(dp4763
sg63
g4748
sg56
(lp4764
g49
(g50
g51
NtRp4765
(dp4766
g54
(dp4767
g62
I5
ssg63
g4761
sg56
(lp4768
g3817
(S's\x0f\x00\x00\x00Personalize-me!'
tRp4769
asbasbasbag49
(g65
g51
NtRp4770
(dp4771
g54
(dp4772
sg63
g3293
sg56
(lp4773
g49
(g70
g51
NtRp4774
(dp4775
g54
(dp4776
g74
g75
ssg63
g4770
sg56
(lp4777
S'title'
p4778
asbag49
(g70
g51
NtRp4779
(dp4780
g54
(dp4781
g81
g82
ssg63
g4770
sg56
(lp4782
S':'
asbag49
(g70
g51
NtRp4783
(dp4784
g54
(dp4785
sg63
g4770
sg56
(lp4786
g49
(g50
g51
NtRp4787
(dp4788
g54
(dp4789
g62
I5
ssg63
g4783
sg56
(lp4790
S'Unioeste Code'
p4791
asbasbasbag49
(g65
g51
NtRp4792
(dp4793
g54
(dp4794
sg63
g3293
sg56
(lp4795
g49
(g70
g51
NtRp4796
(dp4797
g54
(dp4798
g74
g75
ssg63
g4792
sg56
(lp4799
g2162
asbag49
(g70
g51
NtRp4800
(dp4801
g54
(dp4802
g81
g82
ssg63
g4792
sg56
(lp4803
S':'
asbag49
(g70
g51
NtRp4804
(dp4805
g54
(dp4806
sg63
g4792
sg56
(lp4807
g49
(g50
g51
NtRp4808
(dp4809
g54
(dp4810
g62
I5
ssg63
g4804
sg56
(lp4811
g2175
asbasbasbag49
(g65
g51
NtRp4812
(dp4813
g54
(dp4814
sg63
g3293
sg56
(lp4815
g49
(g70
g51
NtRp4816
(dp4817
g54
(dp4818
g74
g75
ssg63
g4812
sg56
(lp4819
S'view'
p4820
asbag49
(g70
g51
NtRp4821
(dp4822
g54
(dp4823
g81
g82
ssg63
g4812
sg56
(lp4824
S':'
asbag49
(g70
g51
NtRp4825
(dp4826
g54
(dp4827
sg63
g4812
sg56
(lp4828
g49
(g50
g51
NtRp4829
(dp4830
g54
(dp4831
g62
I5
ssg63
g4825
sg56
(lp4832
S'default/Code.html'
p4833
asbasbasbasbasbsS'locals'
p4834
(dp4835
g6
S"<Row {'comment': <gluon.dal.Set object at 0x0627...lete_record': <function <lambda> at 0x065BF170>}>"
p4836
sS'form'
p4837
S'<gluon.sqlhtml.SQLFORM object at 0x062746B0>'
p4838
sssS'traceback'
p4839
S'Traceback (most recent call last):\n  File "gluon/restricted.py", line 205, in restricted\n  File "C:\\web2py\\applications\\unioeste_code\\controllers/default.py", line 93, in <module>\n  File "gluon/globals.py", line 173, in <lambda>\n  File "gluon/tools.py", line 2575, in f\n  File "C:\\web2py\\applications\\unioeste_code\\controllers/default.py", line 33, in Code\nNameError: global name \'message\' is not defined\n'
p4840
s.