(dp1
S'output'
p2
S"<type 'exceptions.ImportError'> No module named uc_utils"
p3
sS'layer'
p4
S'C:\\web2py\\applications\\unioeste_code\\views\\default/Problem.html'
p5
sS'code'
p6
S'response.write(\' \', escape=False)\nresponse.write(\'<!DOCTYPE html>\\n<!-- paulirish.com/2008/conditional-stylesheets-vs-css-hacks-answer-neither/ -->\\n<!--[if lt IE 7]><html class="ie ie6 ie-lte9 ie-lte8 ie-lte7 no-js" lang="\', escape=False)\nresponse.write(T.accepted_language or \'en\')\nresponse.write(\'"> <![endif]-->\\n<!--[if IE 7]><html class="ie ie7 ie-lte9 ie-lte8 ie-lte7 no-js" lang="\', escape=False)\nresponse.write(T.accepted_language or \'en\')\nresponse.write(\'"> <![endif]-->\\n<!--[if IE 8]><html class="ie ie8 ie-lte9 ie-lte8 no-js" lang="\', escape=False)\nresponse.write(T.accepted_language or \'en\')\nresponse.write(\'"> <![endif]-->\\n<!--[if IE 9]><html class="ie9 ie-lte9 no-js" lang="\', escape=False)\nresponse.write(T.accepted_language or \'en\')\nresponse.write(\'"> <![endif]-->\\n<!--[if (gt IE 9)|!(IE)]><!--> <html class="no-js" lang="\', escape=False)\nresponse.write(T.accepted_language or \'en\')\nresponse.write(\'"> <!--<![endif]-->\\n<head>\\n  <meta charset="utf-8" />\\n  <!-- www.phpied.com/conditional-comments-block-downloads/ -->\\n  <!-- Always force latest IE rendering engine\\n\\t   (even in intranet) & Chrome Frame\\n\\t   Remove this if you use the .htaccess -->\\n  <!--[if IE]>\\n    <meta http-equiv="X-UA-Compatible" content="IE=edge\', escape=False)\nresponse.write(not request.is_local and \',chrome=1\' or \'\')\nresponse.write(\'">\\n  <![endif]-->\\n  \\n  <title>\', escape=False)\nresponse.write(response.title or request.application)\nresponse.write(\'</title>\\n  \\n  <!-- http://dev.w3.org/html5/markup/meta.name.html -->\\n  <meta name="application-name" content="\', escape=False)\nresponse.write(request.application)\nresponse.write(\'" />\\n  \\n  <!-- Speaking of Google, don\\\'t forget to set your site up:\\n\\t   http://google.com/webmasters -->\\n  <meta name="google-site-verification" content="" />\\n\\n  <!--  Mobile Viewport Fix\\n\\t  j.mp/mobileviewport & davidbcalhoun.com/2010/viewport-metatag\\n\\t  device-width: Occupy full width of the screen in its current orientation\\n\\t  initial-scale = 1.0 retains dimensions instead of zooming out if page height > device height\\n\\t  user-scalable = yes allows the user to zoom in -->\\n  <meta name="viewport" content="width=device-width, initial-scale=1.0, user-scalable=yes">\\n  \\n  <!-- Place favicon.ico and apple-touch-icon.png in the root of your domain and delete these references -->\\n  <link rel="shortcut icon" href="\', escape=False)\nresponse.write(URL(\'static\',\'favicon.ico\'))\nresponse.write(\'" type="image/x-icon">\\n  <link rel="apple-touch-icon" href="\', escape=False)\nresponse.write(URL(\'static\',\'favicon.png\'))\nresponse.write(\'">\\n\\n  <!-- All JavaScript at the bottom, except for Modernizr which enables \\n\\t   HTML5 elements & feature detects -->\\n  <script src="\', escape=False)\nresponse.write(URL(\'static\',\'js/modernizr.custom.js\'))\nresponse.write(\'"></script>  \\n\\n  <!-- include stylesheets -->\\n  \', escape=False)\nresponse.files.append(URL(\'static\',\'css/skeleton.css\'))\nresponse.files.append(URL(\'static\',\'css/web2py.css\'))\nif response.menu:\n    response.files.append(URL(\'static\',\'css/superfish.css\'))\n    response.files.append(URL(\'static\',\'js/superfish.js\'))\n    pass\nresponse.write(\'\\n\\n  \', escape=False)\nresponse.write(\'<script type="text/javascript"><!--\\n    // These variables are used by the web2py_ajax_init function in web2py_ajax.js (which is loaded below).\\n    var w2p_ajax_confirm_message = "\', escape=False)\nresponse.write(T(\'Are you sure you want to delete this object?\'))\nresponse.write(\'";\\n    var w2p_ajax_date_format = "\', escape=False)\nresponse.write(T(\'%Y-%m-%d\'))\nresponse.write(\'";\\n    var w2p_ajax_datetime_format = "\', escape=False)\nresponse.write(T(\'%Y-%m-%d %H:%M:%S\'))\nresponse.write(\'";\\n    //--></script>\\n\', escape=False)\nresponse.files.insert(0,URL(\'static\',\'js/jquery.js\'))\nresponse.files.insert(1,URL(\'static\',\'css/calendar.css\'))\nresponse.files.insert(2,URL(\'static\',\'js/calendar.js\'))\nresponse.files.insert(3,URL(\'static\',\'js/web2py.js\'))\nresponse.include_meta()\nresponse.include_files()\nresponse.write(\'\\n\', escape=False)\nresponse.write(\'\\n\\n  \', escape=False)\nif response.menu:\n    response.write(\'\\n  <script type="text/javascript">\\n    jQuery(function(){ jQuery(\\\'ul.sf-menu\\\').supersubs({minWidth:12,maxWidth:30,extraWidth:3}).superfish(); });\\n  </script>\\n  \', escape=False)\n    pass\nresponse.write(\'\\n\\n  \', escape=False)\n# using sidebars need to know what sidebar you want to use\nleft_sidebar_enabled = globals().get(\'left_sidebar_enabled\',False)\nright_sidebar_enabled = globals().get(\'right_sidebar_enabled\',False)\nmiddle_columns = {0:\'sixteen\',1:\'twelve\',2:\'eight\'}[\n(left_sidebar_enabled and 1 or 0)+(right_sidebar_enabled and 1 or 0)]\nresponse.write(\'\\n\\n  <!-- uncomment here to load jquery-ui\\n  <link rel="stylesheet" href="http://ajax.googleapis.com/ajax/libs/jqueryui/1.8.16/themes/base/jquery-ui.css" type="text/css" media="all" />\\n  <script src="http://ajax.googleapis.com/ajax/libs/jqueryui/1.8.16/jquery-ui.min.js" type="text/javascript"></script>\\n  uncomment to load jquery-ui //-->\\n</head>\\n<body>\\n  <div class="wrapper"><!-- for sticky footer -->\\n  \\n    <div class="topbar">\\n      <div class="container">    \\n        <div class="sixteen columns">\\n          <div id="navbar">\', escape=False)\nresponse.write(\'auth\' in globals() and auth.navbar(separators=(\' \',\' | \',\'\')))\nresponse.write(\'</div>\\n          \', escape=False)\nis_mobile=request.user_agent().is_mobile\nresponse.write(\'\\n\\t  \', escape=False)\nif response.menu:\n    response.write(\'\\n          <div id="menu">\\n             \', escape=False)\n    response.write(MENU(response.menu, _class=\'mobile-menu\' if is_mobile else \'sf-menu\',mobile=is_mobile))\n    response.write(\'\\n          </div>\\n          \', escape=False)\n    pass\nresponse.write(\'\\n        </div>\\n      </div>\\n    </div><!-- topbar -->\\n    \\n    <div class="flash">\', escape=False)\nresponse.write(response.flash or \'\')\nresponse.write(\'</div>\\n    \\n    <div class="header">\\n      <div class="container">         \\n        <div class="sixteen columns">\\n          <img src="\', escape=False)\nresponse.write(URL(\'static\',\'images/logo-code.png\'))\nresponse.write(\'" class="remove-bottom" style="margin-top: .5em;" />\\n          <!-- H5 subtitle-->\\n        </div>\\n        <div class="sixteen columns">\\n          <div style="border: 1px solid #000000; ">\\n            <div style="float:right; padding-top: .25em;" class="a2a_kit a2a_default_style">\\n            <a class="a2a_dd" href="http://www.addtoany.com/share_save">Share</a></div>\\n            <script type="text/javascript" src="http://static.addtoany.com/menu/page.js"></script>\\n          </div>\\n        </div>\\n      </div>\\n    </div>\\n\\n    <div class="main">\\n      <div class="container">                 \\n        \', escape=False)\nif left_sidebar_enabled:\n    response.write(\'\\n        <div class="four columns left-sidebar">\\n          \', escape=False)\n    response.write(\'\\n          <h3>Left Sidebar</h3>\\n          <p></p>\\n          \', escape=False)\n    response.write(\'\\n        </div>\\n        \', escape=False)\n    pass\nresponse.write(\'\\n        \\n        <div class="\', escape=False)\nresponse.write(middle_columns)\nresponse.write(\' columns center">\\n          \', escape=False)\nresponse.write(\'\\n          \', escape=False)\nresponse.write(\'\\r\\n\\r\\n\\r\\n <head>\\r\\n <script src="../../static/lib/codemirror.js"></script>\\r\\n <link rel="stylesheet" href="../../static/lib/codemirror.css">\\r\\n <script src="../../static/mode/clike.js"></script>\\r\\n <style>.CodeMirror {border: 3px solid #cccccc;}</style>\\r\\n\\r\\n\\r\\n    <style type="text/css">\\r\\n      .CodeMirror-fullscreen {\\r\\n        display: block;\\r\\n        position: absolute;\\r\\n        top: 0; left: 0;\\r\\n        width: 100%;\\r\\n        z-index: 9999;\\r\\n      }\\r\\n    </style>\\r\\n\\r\\n</head>\\r\\n\\r\\n\\r\\n\', escape=False)\nfrom uc_utils import shortify\nresponse.write(\'\\r\\n\\r\\n\', escape=False)\nresponse.write(H1(problem.title))\nresponse.write(\'\\r\\n\\r\\n<div class="statusbar">\\r\\n\', escape=False)\nresponse.write(problem.body)\nresponse.write(\'\\t\\r\\n</div>\\r\\n\\r\\n\', escape=False)\nresponse.write(H2("C\xc3\xb3digos postados", _style="color:green"))\nresponse.write(\'\\r\\n<ul>\\r\\n\', escape=False)\nfor code in codes:\n    response.write(\'\\r\\n\', escape=False)\n    user = db(db.auth_user.id==code.created_by).select().first()\n    response.write(\'\\r\\n\\r\\n<LI>\\r\\n\', escape=False)\n    response.write(A(B(shortify(user)), _href=URL("Code", args=code.id)))\n    response.write(\'\\r\\n\', escape=False)\n    response.write(prettydate(code.created_on))\n    response.write(\'\\r\\n</LI>\\r\\n\', escape=False)\n    pass\nresponse.write(\'\\r\\n</ul>\\r\\n\\r\\n\', escape=False)\nresponse.write(H2(T("Post your code!")))\nresponse.write(\'\\r\\n\', escape=False)\nresponse.write(form.custom.begin)\nresponse.write(\'\\r\\n<div>\\r\\n\', escape=False)\nresponse.write(form.custom.widget.body)\nresponse.write(\'\\r\\n</div>\\r\\n\\r\\n<script type="text/javascript">\\r\\n      var editor = CodeMirror.fromTextArea(document.getElementById("code_body"), {\\r\\n        lineNumbers: true,\\r\\n        matchBrackets: true,\\r\\n        mode: "text/x-c++src"\\r\\n      });\\r\\n</script>\\r\\n <p>Press <strong>F11</strong> when cursor is in the editor to toggle full screen editing. <strong>Esc</strong> can also be used to <i>exit</i> full screen editing.</p>\\r\\n<input type="submit" value=\', escape=False)\nresponse.write(T("Submit"))\nresponse.write(\'>\\r\\n\', escape=False)\nresponse.write(form.custom.end)\nresponse.write(\'\\r\\n\\r\\n\\r\\n\\r\\n\', escape=False)\nresponse.write(\'\\n          \', escape=False)\nresponse.write(\'\\n        </div>\\n        \\n        \', escape=False)\nif right_sidebar_enabled:\n    response.write(\'\\n        <div class="four columns">\\n          \', escape=False)\n    response.write(\'\\n          <h3>Right Sidebar</h3>\\n          <p></p>\\n          \', escape=False)\n    response.write(\'\\n        </div>    \\n        \', escape=False)\n    pass\nresponse.write(\'\\n        \\n      </div><!-- container -->\\n    </div><!-- main -->\\n    \\n    <div class="push"></div>\\n  </div><!-- wrapper -->\\n\\n  <div class="footer">\\n    <div class="container">    \\n      <div class="sixteen columns">\\n        \', escape=False)\nresponse.write(\' <!-- this is default footer -->\\n        <div class="footer-content clearfix">\\n            <div style="float: left;">\\n            <a href="https://developers.google.com//"> \\n            <img style="padding-left: 8em; padding-bottom:1em; " src="https://developers.google.com/appengine/images/appengine-noborder-120x30.gif" alt="Powered by Google App Engine"/>\\n            </a>\\n          </div>\\n          <div class="footer-content clearfix">\\n            <div style="float: left;   ">\\n            <a href="http://www.python.org/"> \\n            <img style="" src="http://www.python.org/community/logos/python-powered-w-70x28.png" alt="Powered by Python"/>\\n            </a>\\n          </div>\\n          <div style="padding-left: 19.5em; padding-top: 0.25em;">\\n            <a href="http://www.web2py.com/">\\n            <img style="" src="\', escape=False)\nresponse.write(URL(\'static\',\'images/poweredby.png\'))\nresponse.write(\'"/>\\n            </a>\\n          </div>\\n        </div>\\n        \', escape=False)\nresponse.write(\'\\t\\n      </div>\\n    </div><!-- container -->\\n  </div><!-- footer -->\\n  \\n  <!--[if lt IE 7 ]>\\n\\t<script src="\', escape=False)\nresponse.write(URL(\'static\',\'js/dd_belatedpng.js\'))\nresponse.write(\'"></script>\\n\\t<script> DD_belatedPNG.fix(\\\'img, .png_bg\\\'); //fix any <img> or .png_bg background-images </script>\\n\\t<![endif]-->\\n  \', escape=False)\nif response.google_analytics_id:\n    response.write(\'<script type="text/javascript"> var _gaq = _gaq || []; _gaq.push([\\\'_setAccount\\\', \\\'\', escape=False)\n    response.write(response.google_analytics_id)\n    response.write("\']); _gaq.push([\'_trackPageview\']); (function() { var ga = document.createElement(\'script\'); ga.type = \'text/javascript\'; ga.async = true; ga.src = (\'https:\' == document.location.protocol ? \'https://ssl\' : \'http://www\') + \'.google-analytics.com/ga.js\'; var s = document.getElementsByTagName(\'script\')[0]; s.parentNode.insertBefore(ga, s); })(); </script> ", escape=False)\n    pass\nresponse.write(\'\\n</body>\\n</html>\\n\', escape=False)'
p7
sS'snapshot'
p8
(dp9
S'exception'
p10
(dp11
S'__hash__'
p12
S"<method-wrapper '__hash__' of exceptions.ImportError object at 0x06588620>"
p13
sS'__setattr__'
p14
S"<method-wrapper '__setattr__' of exceptions.ImportError object at 0x06588620>"
p15
sS'__reduce_ex__'
p16
S'<built-in method __reduce_ex__ of exceptions.ImportError object at 0x06588620>'
p17
sS'__getslice__'
p18
S"<method-wrapper '__getslice__' of exceptions.ImportError object at 0x06588620>"
p19
sS'__getitem__'
p20
S"<method-wrapper '__getitem__' of exceptions.ImportError object at 0x06588620>"
p21
sS'__setstate__'
p22
S'<built-in method __setstate__ of exceptions.ImportError object at 0x06588620>'
p23
sS'__reduce__'
p24
S'<built-in method __reduce__ of exceptions.ImportError object at 0x06588620>'
p25
sS'__str__'
p26
S"<method-wrapper '__str__' of exceptions.ImportError object at 0x06588620>"
p27
sS'args'
p28
S"('No module named uc_utils',)"
p29
sS'__getattribute__'
p30
S"<method-wrapper '__getattribute__' of exceptions.ImportError object at 0x06588620>"
p31
sS'__class__'
p32
S"<type 'exceptions.ImportError'>"
p33
sS'__delattr__'
p34
S"<method-wrapper '__delattr__' of exceptions.ImportError object at 0x06588620>"
p35
sS'__repr__'
p36
S"<method-wrapper '__repr__' of exceptions.ImportError object at 0x06588620>"
p37
sS'__dict__'
p38
S'{}'
p39
sS'__doc__'
p40
S'"Import can\'t find module, or can\'t find name in module."'
p41
sS'__init__'
p42
S"<method-wrapper '__init__' of exceptions.ImportError object at 0x06588620>"
p43
sS'__new__'
p44
S'<built-in method __new__ of type object at 0x1E1CD198>'
p45
ssS'evalue'
p46
S'No module named uc_utils'
p47
sS'request'
p48
ccopy_reg
_reconstructor
p49
(cgluon.html
BEAUTIFY
p50
c__builtin__
object
p51
NtRp52
(dp53
S'attributes'
p54
(dp55
sS'components'
p56
(lp57
g49
(cgluon.html
TABLE
p58
g51
NtRp59
(dp60
g54
(dp61
S'level'
p62
I5
ssS'parent'
p63
Nsg56
(lp64
g49
(cgluon.html
TR
p65
g51
NtRp66
(dp67
g54
(dp68
sg63
g59
sg56
(lp69
g49
(cgluon.html
TD
p70
g51
NtRp71
(dp72
g54
(dp73
S'_style'
p74
S'font-weight:bold;vertical-align:top'
p75
ssg63
g66
sg56
(lp76
S'ajax'
p77
asbag49
(g70
g51
NtRp78
(dp79
g54
(dp80
S'_valign'
p81
S'top'
p82
ssg63
g66
sg56
(lp83
S':'
asbag49
(g70
g51
NtRp84
(dp85
g54
(dp86
sg63
g66
sg56
(lp87
g49
(g50
g51
NtRp88
(dp89
g54
(dp90
g62
I5
ssg63
g84
sg56
(lp91
S'False'
p92
asbasbasbag49
(g65
g51
NtRp93
(dp94
g54
(dp95
sg63
g59
sg56
(lp96
g49
(g70
g51
NtRp97
(dp98
g54
(dp99
g74
g75
ssg63
g93
sg56
(lp100
S'application'
p101
asbag49
(g70
g51
NtRp102
(dp103
g54
(dp104
g81
g82
ssg63
g93
sg56
(lp105
S':'
asbag49
(g70
g51
NtRp106
(dp107
g54
(dp108
sg63
g93
sg56
(lp109
g49
(g50
g51
NtRp110
(dp111
g54
(dp112
g62
I5
ssg63
g106
sg56
(lp113
S'unioeste_code'
p114
asbasbasbag49
(g65
g51
NtRp115
(dp116
g54
(dp117
sg63
g59
sg56
(lp118
g49
(g70
g51
NtRp119
(dp120
g54
(dp121
g74
g75
ssg63
g115
sg56
(lp122
g28
asbag49
(g70
g51
NtRp123
(dp124
g54
(dp125
g81
g82
ssg63
g115
sg56
(lp126
S':'
asbag49
(g70
g51
NtRp127
(dp128
g54
(dp129
sg63
g115
sg56
(lp130
g49
(g50
g51
NtRp131
(dp132
g54
(dp133
g62
I5
ssg63
g127
sg56
(lp134
g49
(g58
g51
NtRp135
(dp136
g54
(dp137
g62
I4
ssg63
Nsg56
(lp138
g49
(g65
g51
NtRp139
(dp140
g54
(dp141
sg63
g135
sg56
(lp142
g49
(g70
g51
NtRp143
(dp144
g54
(dp145
sg63
g139
sg56
(lp146
g49
(g50
g51
NtRp147
(dp148
g54
(dp149
g62
I4
ssg63
g143
sg56
(lp150
S'1'
asbasbasbasbasbasbasbag49
(g65
g51
NtRp151
(dp152
g54
(dp153
sg63
g59
sg56
(lp154
g49
(g70
g51
NtRp155
(dp156
g54
(dp157
g74
g75
ssg63
g151
sg56
(lp158
S'body'
p159
asbag49
(g70
g51
NtRp160
(dp161
g54
(dp162
g81
g82
ssg63
g151
sg56
(lp163
S':'
asbag49
(g70
g51
NtRp164
(dp165
g54
(dp166
sg63
g151
sg56
(lp167
g49
(g50
g51
NtRp168
(dp169
g54
(dp170
g62
I5
ssg63
g164
sg56
(lp171
S'<cStringIO.StringO object at 0x06978A80>'
p172
asbasbasbag49
(g65
g51
NtRp173
(dp174
g54
(dp175
sg63
g59
sg56
(lp176
g49
(g70
g51
NtRp177
(dp178
g54
(dp179
g74
g75
ssg63
g173
sg56
(lp180
S'client'
p181
asbag49
(g70
g51
NtRp182
(dp183
g54
(dp184
g81
g82
ssg63
g173
sg56
(lp185
S':'
asbag49
(g70
g51
NtRp186
(dp187
g54
(dp188
sg63
g173
sg56
(lp189
g49
(g50
g51
NtRp190
(dp191
g54
(dp192
g62
I5
ssg63
g186
sg56
(lp193
S'127.0.0.1'
p194
asbasbasbag49
(g65
g51
NtRp195
(dp196
g54
(dp197
sg63
g59
sg56
(lp198
g49
(g70
g51
NtRp199
(dp200
g54
(dp201
g74
g75
ssg63
g195
sg56
(lp202
S'controller'
p203
asbag49
(g70
g51
NtRp204
(dp205
g54
(dp206
g81
g82
ssg63
g195
sg56
(lp207
S':'
asbag49
(g70
g51
NtRp208
(dp209
g54
(dp210
sg63
g195
sg56
(lp211
g49
(g50
g51
NtRp212
(dp213
g54
(dp214
g62
I5
ssg63
g208
sg56
(lp215
S'default'
p216
asbasbasbag49
(g65
g51
NtRp217
(dp218
g54
(dp219
sg63
g59
sg56
(lp220
g49
(g70
g51
NtRp221
(dp222
g54
(dp223
g74
g75
ssg63
g217
sg56
(lp224
S'cookies'
p225
asbag49
(g70
g51
NtRp226
(dp227
g54
(dp228
g81
g82
ssg63
g217
sg56
(lp229
S':'
asbag49
(g70
g51
NtRp230
(dp231
g54
(dp232
sg63
g217
sg56
(lp233
g49
(g50
g51
NtRp234
(dp235
g54
(dp236
g62
I5
ssg63
g230
sg56
(lp237
g49
(g58
g51
NtRp238
(dp239
g54
(dp240
g62
I4
ssg63
Nsg56
(lp241
g49
(g65
g51
NtRp242
(dp243
g54
(dp244
sg63
g238
sg56
(lp245
g49
(g70
g51
NtRp246
(dp247
g54
(dp248
g74
g75
ssg63
g242
sg56
(lp249
S'session_id_admin'
p250
asbag49
(g70
g51
NtRp251
(dp252
g54
(dp253
g81
g82
ssg63
g242
sg56
(lp254
S':'
asbag49
(g70
g51
NtRp255
(dp256
g54
(dp257
sg63
g242
sg56
(lp258
g49
(g50
g51
NtRp259
(dp260
g54
(dp261
g62
I4
ssg63
g255
sg56
(lp262
g49
(g58
g51
NtRp263
(dp264
g54
(dp265
g62
I3
ssg63
Nsg56
(lp266
g49
(g65
g51
NtRp267
(dp268
g54
(dp269
sg63
g263
sg56
(lp270
g49
(g70
g51
NtRp271
(dp272
g54
(dp273
g74
g75
ssg63
g267
sg56
(lp274
S'comment'
p275
asbag49
(g70
g51
NtRp276
(dp277
g54
(dp278
g81
g82
ssg63
g267
sg56
(lp279
S':'
asbag49
(g70
g51
NtRp280
(dp281
g54
(dp282
sg63
g267
sg56
(lp283
g49
(g50
g51
NtRp284
(dp285
g54
(dp286
g62
I3
ssg63
g280
sg56
(lp287
S''
asbasbasbag49
(g65
g51
NtRp288
(dp289
g54
(dp290
sg63
g263
sg56
(lp291
g49
(g70
g51
NtRp292
(dp293
g54
(dp294
g74
g75
ssg63
g288
sg56
(lp295
S'domain'
p296
asbag49
(g70
g51
NtRp297
(dp298
g54
(dp299
g81
g82
ssg63
g288
sg56
(lp300
S':'
asbag49
(g70
g51
NtRp301
(dp302
g54
(dp303
sg63
g288
sg56
(lp304
g49
(g50
g51
NtRp305
(dp306
g54
(dp307
g62
I3
ssg63
g301
sg56
(lp308
S''
asbasbasbag49
(g65
g51
NtRp309
(dp310
g54
(dp311
sg63
g263
sg56
(lp312
g49
(g70
g51
NtRp313
(dp314
g54
(dp315
g74
g75
ssg63
g309
sg56
(lp316
S'expires'
p317
asbag49
(g70
g51
NtRp318
(dp319
g54
(dp320
g81
g82
ssg63
g309
sg56
(lp321
S':'
asbag49
(g70
g51
NtRp322
(dp323
g54
(dp324
sg63
g309
sg56
(lp325
g49
(g50
g51
NtRp326
(dp327
g54
(dp328
g62
I3
ssg63
g322
sg56
(lp329
S''
asbasbasbag49
(g65
g51
NtRp330
(dp331
g54
(dp332
sg63
g263
sg56
(lp333
g49
(g70
g51
NtRp334
(dp335
g54
(dp336
g74
g75
ssg63
g330
sg56
(lp337
S'max-age'
p338
asbag49
(g70
g51
NtRp339
(dp340
g54
(dp341
g81
g82
ssg63
g330
sg56
(lp342
S':'
asbag49
(g70
g51
NtRp343
(dp344
g54
(dp345
sg63
g330
sg56
(lp346
g49
(g50
g51
NtRp347
(dp348
g54
(dp349
g62
I3
ssg63
g343
sg56
(lp350
S''
asbasbasbag49
(g65
g51
NtRp351
(dp352
g54
(dp353
sg63
g263
sg56
(lp354
g49
(g70
g51
NtRp355
(dp356
g54
(dp357
g74
g75
ssg63
g351
sg56
(lp358
S'path'
p359
asbag49
(g70
g51
NtRp360
(dp361
g54
(dp362
g81
g82
ssg63
g351
sg56
(lp363
S':'
asbag49
(g70
g51
NtRp364
(dp365
g54
(dp366
sg63
g351
sg56
(lp367
g49
(g50
g51
NtRp368
(dp369
g54
(dp370
g62
I3
ssg63
g364
sg56
(lp371
S''
asbasbasbag49
(g65
g51
NtRp372
(dp373
g54
(dp374
sg63
g263
sg56
(lp375
g49
(g70
g51
NtRp376
(dp377
g54
(dp378
g74
g75
ssg63
g372
sg56
(lp379
S'secure'
p380
asbag49
(g70
g51
NtRp381
(dp382
g54
(dp383
g81
g82
ssg63
g372
sg56
(lp384
S':'
asbag49
(g70
g51
NtRp385
(dp386
g54
(dp387
sg63
g372
sg56
(lp388
g49
(g50
g51
NtRp389
(dp390
g54
(dp391
g62
I3
ssg63
g385
sg56
(lp392
S''
asbasbasbag49
(g65
g51
NtRp393
(dp394
g54
(dp395
sg63
g263
sg56
(lp396
g49
(g70
g51
NtRp397
(dp398
g54
(dp399
g74
g75
ssg63
g393
sg56
(lp400
S'version'
p401
asbag49
(g70
g51
NtRp402
(dp403
g54
(dp404
g81
g82
ssg63
g393
sg56
(lp405
S':'
asbag49
(g70
g51
NtRp406
(dp407
g54
(dp408
sg63
g393
sg56
(lp409
g49
(g50
g51
NtRp410
(dp411
g54
(dp412
g62
I3
ssg63
g406
sg56
(lp413
S''
asbasbasbasbasbasbasbag49
(g65
g51
NtRp414
(dp415
g54
(dp416
sg63
g238
sg56
(lp417
g49
(g70
g51
NtRp418
(dp419
g54
(dp420
g74
g75
ssg63
g414
sg56
(lp421
S'session_id_unioeste_code'
p422
asbag49
(g70
g51
NtRp423
(dp424
g54
(dp425
g81
g82
ssg63
g414
sg56
(lp426
S':'
asbag49
(g70
g51
NtRp427
(dp428
g54
(dp429
sg63
g414
sg56
(lp430
g49
(g50
g51
NtRp431
(dp432
g54
(dp433
g62
I4
ssg63
g427
sg56
(lp434
g49
(g58
g51
NtRp435
(dp436
g54
(dp437
g62
I3
ssg63
Nsg56
(lp438
g49
(g65
g51
NtRp439
(dp440
g54
(dp441
sg63
g435
sg56
(lp442
g49
(g70
g51
NtRp443
(dp444
g54
(dp445
g74
g75
ssg63
g439
sg56
(lp446
g275
asbag49
(g70
g51
NtRp447
(dp448
g54
(dp449
g81
g82
ssg63
g439
sg56
(lp450
S':'
asbag49
(g70
g51
NtRp451
(dp452
g54
(dp453
sg63
g439
sg56
(lp454
g49
(g50
g51
NtRp455
(dp456
g54
(dp457
g62
I3
ssg63
g451
sg56
(lp458
S''
asbasbasbag49
(g65
g51
NtRp459
(dp460
g54
(dp461
sg63
g435
sg56
(lp462
g49
(g70
g51
NtRp463
(dp464
g54
(dp465
g74
g75
ssg63
g459
sg56
(lp466
g296
asbag49
(g70
g51
NtRp467
(dp468
g54
(dp469
g81
g82
ssg63
g459
sg56
(lp470
S':'
asbag49
(g70
g51
NtRp471
(dp472
g54
(dp473
sg63
g459
sg56
(lp474
g49
(g50
g51
NtRp475
(dp476
g54
(dp477
g62
I3
ssg63
g471
sg56
(lp478
S''
asbasbasbag49
(g65
g51
NtRp479
(dp480
g54
(dp481
sg63
g435
sg56
(lp482
g49
(g70
g51
NtRp483
(dp484
g54
(dp485
g74
g75
ssg63
g479
sg56
(lp486
g317
asbag49
(g70
g51
NtRp487
(dp488
g54
(dp489
g81
g82
ssg63
g479
sg56
(lp490
S':'
asbag49
(g70
g51
NtRp491
(dp492
g54
(dp493
sg63
g479
sg56
(lp494
g49
(g50
g51
NtRp495
(dp496
g54
(dp497
g62
I3
ssg63
g491
sg56
(lp498
S''
asbasbasbag49
(g65
g51
NtRp499
(dp500
g54
(dp501
sg63
g435
sg56
(lp502
g49
(g70
g51
NtRp503
(dp504
g54
(dp505
g74
g75
ssg63
g499
sg56
(lp506
g338
asbag49
(g70
g51
NtRp507
(dp508
g54
(dp509
g81
g82
ssg63
g499
sg56
(lp510
S':'
asbag49
(g70
g51
NtRp511
(dp512
g54
(dp513
sg63
g499
sg56
(lp514
g49
(g50
g51
NtRp515
(dp516
g54
(dp517
g62
I3
ssg63
g511
sg56
(lp518
S''
asbasbasbag49
(g65
g51
NtRp519
(dp520
g54
(dp521
sg63
g435
sg56
(lp522
g49
(g70
g51
NtRp523
(dp524
g54
(dp525
g74
g75
ssg63
g519
sg56
(lp526
g359
asbag49
(g70
g51
NtRp527
(dp528
g54
(dp529
g81
g82
ssg63
g519
sg56
(lp530
S':'
asbag49
(g70
g51
NtRp531
(dp532
g54
(dp533
sg63
g519
sg56
(lp534
g49
(g50
g51
NtRp535
(dp536
g54
(dp537
g62
I3
ssg63
g531
sg56
(lp538
S''
asbasbasbag49
(g65
g51
NtRp539
(dp540
g54
(dp541
sg63
g435
sg56
(lp542
g49
(g70
g51
NtRp543
(dp544
g54
(dp545
g74
g75
ssg63
g539
sg56
(lp546
g380
asbag49
(g70
g51
NtRp547
(dp548
g54
(dp549
g81
g82
ssg63
g539
sg56
(lp550
S':'
asbag49
(g70
g51
NtRp551
(dp552
g54
(dp553
sg63
g539
sg56
(lp554
g49
(g50
g51
NtRp555
(dp556
g54
(dp557
g62
I3
ssg63
g551
sg56
(lp558
S''
asbasbasbag49
(g65
g51
NtRp559
(dp560
g54
(dp561
sg63
g435
sg56
(lp562
g49
(g70
g51
NtRp563
(dp564
g54
(dp565
g74
g75
ssg63
g559
sg56
(lp566
g401
asbag49
(g70
g51
NtRp567
(dp568
g54
(dp569
g81
g82
ssg63
g559
sg56
(lp570
S':'
asbag49
(g70
g51
NtRp571
(dp572
g54
(dp573
sg63
g559
sg56
(lp574
g49
(g50
g51
NtRp575
(dp576
g54
(dp577
g62
I3
ssg63
g571
sg56
(lp578
S''
asbasbasbasbasbasbasbag49
(g65
g51
NtRp579
(dp580
g54
(dp581
sg63
g238
sg56
(lp582
g49
(g70
g51
NtRp583
(dp584
g54
(dp585
g74
g75
ssg63
g579
sg56
(lp586
S'session_id_welcome'
p587
asbag49
(g70
g51
NtRp588
(dp589
g54
(dp590
g81
g82
ssg63
g579
sg56
(lp591
S':'
asbag49
(g70
g51
NtRp592
(dp593
g54
(dp594
sg63
g579
sg56
(lp595
g49
(g50
g51
NtRp596
(dp597
g54
(dp598
g62
I4
ssg63
g592
sg56
(lp599
g49
(g58
g51
NtRp600
(dp601
g54
(dp602
g62
I3
ssg63
Nsg56
(lp603
g49
(g65
g51
NtRp604
(dp605
g54
(dp606
sg63
g600
sg56
(lp607
g49
(g70
g51
NtRp608
(dp609
g54
(dp610
g74
g75
ssg63
g604
sg56
(lp611
g275
asbag49
(g70
g51
NtRp612
(dp613
g54
(dp614
g81
g82
ssg63
g604
sg56
(lp615
S':'
asbag49
(g70
g51
NtRp616
(dp617
g54
(dp618
sg63
g604
sg56
(lp619
g49
(g50
g51
NtRp620
(dp621
g54
(dp622
g62
I3
ssg63
g616
sg56
(lp623
S''
asbasbasbag49
(g65
g51
NtRp624
(dp625
g54
(dp626
sg63
g600
sg56
(lp627
g49
(g70
g51
NtRp628
(dp629
g54
(dp630
g74
g75
ssg63
g624
sg56
(lp631
g296
asbag49
(g70
g51
NtRp632
(dp633
g54
(dp634
g81
g82
ssg63
g624
sg56
(lp635
S':'
asbag49
(g70
g51
NtRp636
(dp637
g54
(dp638
sg63
g624
sg56
(lp639
g49
(g50
g51
NtRp640
(dp641
g54
(dp642
g62
I3
ssg63
g636
sg56
(lp643
S''
asbasbasbag49
(g65
g51
NtRp644
(dp645
g54
(dp646
sg63
g600
sg56
(lp647
g49
(g70
g51
NtRp648
(dp649
g54
(dp650
g74
g75
ssg63
g644
sg56
(lp651
g317
asbag49
(g70
g51
NtRp652
(dp653
g54
(dp654
g81
g82
ssg63
g644
sg56
(lp655
S':'
asbag49
(g70
g51
NtRp656
(dp657
g54
(dp658
sg63
g644
sg56
(lp659
g49
(g50
g51
NtRp660
(dp661
g54
(dp662
g62
I3
ssg63
g656
sg56
(lp663
S''
asbasbasbag49
(g65
g51
NtRp664
(dp665
g54
(dp666
sg63
g600
sg56
(lp667
g49
(g70
g51
NtRp668
(dp669
g54
(dp670
g74
g75
ssg63
g664
sg56
(lp671
g338
asbag49
(g70
g51
NtRp672
(dp673
g54
(dp674
g81
g82
ssg63
g664
sg56
(lp675
S':'
asbag49
(g70
g51
NtRp676
(dp677
g54
(dp678
sg63
g664
sg56
(lp679
g49
(g50
g51
NtRp680
(dp681
g54
(dp682
g62
I3
ssg63
g676
sg56
(lp683
S''
asbasbasbag49
(g65
g51
NtRp684
(dp685
g54
(dp686
sg63
g600
sg56
(lp687
g49
(g70
g51
NtRp688
(dp689
g54
(dp690
g74
g75
ssg63
g684
sg56
(lp691
g359
asbag49
(g70
g51
NtRp692
(dp693
g54
(dp694
g81
g82
ssg63
g684
sg56
(lp695
S':'
asbag49
(g70
g51
NtRp696
(dp697
g54
(dp698
sg63
g684
sg56
(lp699
g49
(g50
g51
NtRp700
(dp701
g54
(dp702
g62
I3
ssg63
g696
sg56
(lp703
S''
asbasbasbag49
(g65
g51
NtRp704
(dp705
g54
(dp706
sg63
g600
sg56
(lp707
g49
(g70
g51
NtRp708
(dp709
g54
(dp710
g74
g75
ssg63
g704
sg56
(lp711
g380
asbag49
(g70
g51
NtRp712
(dp713
g54
(dp714
g81
g82
ssg63
g704
sg56
(lp715
S':'
asbag49
(g70
g51
NtRp716
(dp717
g54
(dp718
sg63
g704
sg56
(lp719
g49
(g50
g51
NtRp720
(dp721
g54
(dp722
g62
I3
ssg63
g716
sg56
(lp723
S''
asbasbasbag49
(g65
g51
NtRp724
(dp725
g54
(dp726
sg63
g600
sg56
(lp727
g49
(g70
g51
NtRp728
(dp729
g54
(dp730
g74
g75
ssg63
g724
sg56
(lp731
g401
asbag49
(g70
g51
NtRp732
(dp733
g54
(dp734
g81
g82
ssg63
g724
sg56
(lp735
S':'
asbag49
(g70
g51
NtRp736
(dp737
g54
(dp738
sg63
g724
sg56
(lp739
g49
(g50
g51
NtRp740
(dp741
g54
(dp742
g62
I3
ssg63
g736
sg56
(lp743
S''
asbasbasbasbasbasbasbasbasbasbasbag49
(g65
g51
NtRp744
(dp745
g54
(dp746
sg63
g59
sg56
(lp747
g49
(g70
g51
NtRp748
(dp749
g54
(dp750
g74
g75
ssg63
g744
sg56
(lp751
S'env'
p752
asbag49
(g70
g51
NtRp753
(dp754
g54
(dp755
g81
g82
ssg63
g744
sg56
(lp756
S':'
asbag49
(g70
g51
NtRp757
(dp758
g54
(dp759
sg63
g744
sg56
(lp760
g49
(g50
g51
NtRp761
(dp762
g54
(dp763
g62
I5
ssg63
g757
sg56
(lp764
g49
(g58
g51
NtRp765
(dp766
g54
(dp767
g62
I4
ssg63
Nsg56
(lp768
g49
(g65
g51
NtRp769
(dp770
g54
(dp771
sg63
g765
sg56
(lp772
g49
(g70
g51
NtRp773
(dp774
g54
(dp775
g74
g75
ssg63
g769
sg56
(lp776
S'app_folders'
p777
asbag49
(g70
g51
NtRp778
(dp779
g54
(dp780
g81
g82
ssg63
g769
sg56
(lp781
S':'
asbag49
(g70
g51
NtRp782
(dp783
g54
(dp784
sg63
g769
sg56
(lp785
g49
(g50
g51
NtRp786
(dp787
g54
(dp788
g62
I4
ssg63
g782
sg56
(lp789
S"set(['C:\\\\web2py\\\\applications\\\\admin\\\\', 'C:\\\\web2py\\\\applications\\\\welcome\\\\', 'C:\\\\web2py\\\\applications\\\\unioeste_code\\\\'])"
p790
asbasbasbag49
(g65
g51
NtRp791
(dp792
g54
(dp793
sg63
g765
sg56
(lp794
g49
(g70
g51
NtRp795
(dp796
g54
(dp797
g74
g75
ssg63
g791
sg56
(lp798
S'applications_parent'
p799
asbag49
(g70
g51
NtRp800
(dp801
g54
(dp802
g81
g82
ssg63
g791
sg56
(lp803
S':'
asbag49
(g70
g51
NtRp804
(dp805
g54
(dp806
sg63
g791
sg56
(lp807
g49
(g50
g51
NtRp808
(dp809
g54
(dp810
g62
I4
ssg63
g804
sg56
(lp811
S'C:\\web2py'
p812
asbasbasbag49
(g65
g51
NtRp813
(dp814
g54
(dp815
sg63
g765
sg56
(lp816
g49
(g70
g51
NtRp817
(dp818
g54
(dp819
g74
g75
ssg63
g813
sg56
(lp820
S'cmd_args'
p821
asbag49
(g70
g51
NtRp822
(dp823
g54
(dp824
g81
g82
ssg63
g813
sg56
(lp825
S':'
asbag49
(g70
g51
NtRp826
(dp827
g54
(dp828
sg63
g813
sg56
(lp829
g49
(g50
g51
NtRp830
(dp831
g54
(dp832
g62
I4
ssg63
g826
sg56
(lp833
g49
(g58
g51
NtRp834
(dp835
g54
(dp836
g62
I3
ssg63
Nsg56
(lp837
sbasbasbasbag49
(g65
g51
NtRp838
(dp839
g54
(dp840
sg63
g765
sg56
(lp841
g49
(g70
g51
NtRp842
(dp843
g54
(dp844
g74
g75
ssg63
g838
sg56
(lp845
S'cmd_options'
p846
asbag49
(g70
g51
NtRp847
(dp848
g54
(dp849
g81
g82
ssg63
g838
sg56
(lp850
S':'
asbag49
(g70
g51
NtRp851
(dp852
g54
(dp853
sg63
g838
sg56
(lp854
g49
(g50
g51
NtRp855
(dp856
g54
(dp857
g62
I4
ssg63
g851
sg56
(lp858
S"<Values at 0x31dc300: {'verbose': False, 'ip': '127.0.0.1', 'shutdown_timeout': 5, 'taskbar': False, 'nocron': False, 'pid_filename': 'httpserver.pid', 'maxthreads': None, 'softcron': False, 'server_name': 'Pedro-PC', 'bpython': False, 'nogui': False, 'port': 8000, 'extcron': False, 'debuglevel': 30, 'test': None, 'folder': 'C:\\\\web2py', 'config': '', 'import_models': False, 'winservice': '', 'shell': None, 'run': '', 'log_filename': 'httpserver.log', 'args': [''], 'socket_timeout': 5, 'ssl_ca_certificate': None, 'scheduler': None, 'profiler_filename': None, 'ssl_private_key': '', 'password': '<ask>', 'request_queue_size': 5, 'ssl_certificate': '', 'cronjob': False, 'numthreads': None, 'quiet': False, 'interfaces': None, 'minthreads': None, 'timeout': 10, 'plain': False, 'nobanner': False}>"
p859
asbasbasbag49
(g65
g51
NtRp860
(dp861
g54
(dp862
sg63
g765
sg56
(lp863
g49
(g70
g51
NtRp864
(dp865
g54
(dp866
g74
g75
ssg63
g860
sg56
(lp867
S'db_sessions'
p868
asbag49
(g70
g51
NtRp869
(dp870
g54
(dp871
g81
g82
ssg63
g860
sg56
(lp872
S':'
asbag49
(g70
g51
NtRp873
(dp874
g54
(dp875
sg63
g860
sg56
(lp876
g49
(g50
g51
NtRp877
(dp878
g54
(dp879
g62
I4
ssg63
g873
sg56
(lp880
S'set([])'
p881
asbasbasbag49
(g65
g51
NtRp882
(dp883
g54
(dp884
sg63
g765
sg56
(lp885
g49
(g70
g51
NtRp886
(dp887
g54
(dp888
g74
g75
ssg63
g882
sg56
(lp889
S'debugging'
p890
asbag49
(g70
g51
NtRp891
(dp892
g54
(dp893
g81
g82
ssg63
g882
sg56
(lp894
S':'
asbag49
(g70
g51
NtRp895
(dp896
g54
(dp897
sg63
g882
sg56
(lp898
g49
(g50
g51
NtRp899
(dp900
g54
(dp901
g62
I4
ssg63
g895
sg56
(lp902
g92
asbasbasbag49
(g65
g51
NtRp903
(dp904
g54
(dp905
sg63
g765
sg56
(lp906
g49
(g70
g51
NtRp907
(dp908
g54
(dp909
g74
g75
ssg63
g903
sg56
(lp910
S'gluon_parent'
p911
asbag49
(g70
g51
NtRp912
(dp913
g54
(dp914
g81
g82
ssg63
g903
sg56
(lp915
S':'
asbag49
(g70
g51
NtRp916
(dp917
g54
(dp918
sg63
g903
sg56
(lp919
g49
(g50
g51
NtRp920
(dp921
g54
(dp922
g62
I4
ssg63
g916
sg56
(lp923
S'C:\\web2py'
p924
asbasbasbag49
(g65
g51
NtRp925
(dp926
g54
(dp927
sg63
g765
sg56
(lp928
g49
(g70
g51
NtRp929
(dp930
g54
(dp931
g74
g75
ssg63
g925
sg56
(lp932
S'http_accept'
p933
asbag49
(g70
g51
NtRp934
(dp935
g54
(dp936
g81
g82
ssg63
g925
sg56
(lp937
S':'
asbag49
(g70
g51
NtRp938
(dp939
g54
(dp940
sg63
g925
sg56
(lp941
g49
(g50
g51
NtRp942
(dp943
g54
(dp944
g62
I4
ssg63
g938
sg56
(lp945
S'text/html,application/xhtml+xml,application/xml;q=0.9,*/*;q=0.8'
p946
asbasbasbag49
(g65
g51
NtRp947
(dp948
g54
(dp949
sg63
g765
sg56
(lp950
g49
(g70
g51
NtRp951
(dp952
g54
(dp953
g74
g75
ssg63
g947
sg56
(lp954
S'http_accept_charset'
p955
asbag49
(g70
g51
NtRp956
(dp957
g54
(dp958
g81
g82
ssg63
g947
sg56
(lp959
S':'
asbag49
(g70
g51
NtRp960
(dp961
g54
(dp962
sg63
g947
sg56
(lp963
g49
(g50
g51
NtRp964
(dp965
g54
(dp966
g62
I4
ssg63
g960
sg56
(lp967
S'ISO-8859-1,utf-8;q=0.7,*;q=0.3'
p968
asbasbasbag49
(g65
g51
NtRp969
(dp970
g54
(dp971
sg63
g765
sg56
(lp972
g49
(g70
g51
NtRp973
(dp974
g54
(dp975
g74
g75
ssg63
g969
sg56
(lp976
S'http_accept_encoding'
p977
asbag49
(g70
g51
NtRp978
(dp979
g54
(dp980
g81
g82
ssg63
g969
sg56
(lp981
S':'
asbag49
(g70
g51
NtRp982
(dp983
g54
(dp984
sg63
g969
sg56
(lp985
g49
(g50
g51
NtRp986
(dp987
g54
(dp988
g62
I4
ssg63
g982
sg56
(lp989
S'gzip,deflate,sdch'
p990
asbasbasbag49
(g65
g51
NtRp991
(dp992
g54
(dp993
sg63
g765
sg56
(lp994
g49
(g70
g51
NtRp995
(dp996
g54
(dp997
g74
g75
ssg63
g991
sg56
(lp998
S'http_accept_language'
p999
asbag49
(g70
g51
NtRp1000
(dp1001
g54
(dp1002
g81
g82
ssg63
g991
sg56
(lp1003
S':'
asbag49
(g70
g51
NtRp1004
(dp1005
g54
(dp1006
sg63
g991
sg56
(lp1007
g49
(g50
g51
NtRp1008
(dp1009
g54
(dp1010
g62
I4
ssg63
g1004
sg56
(lp1011
S'pt-BR,pt;q=0.8,en-US;q=0.6,en;q=0.4'
p1012
asbasbasbag49
(g65
g51
NtRp1013
(dp1014
g54
(dp1015
sg63
g765
sg56
(lp1016
g49
(g70
g51
NtRp1017
(dp1018
g54
(dp1019
g74
g75
ssg63
g1013
sg56
(lp1020
S'http_cache_control'
p1021
asbag49
(g70
g51
NtRp1022
(dp1023
g54
(dp1024
g81
g82
ssg63
g1013
sg56
(lp1025
S':'
asbag49
(g70
g51
NtRp1026
(dp1027
g54
(dp1028
sg63
g1013
sg56
(lp1029
g49
(g50
g51
NtRp1030
(dp1031
g54
(dp1032
g62
I4
ssg63
g1026
sg56
(lp1033
S'max-age=0'
p1034
asbasbasbag49
(g65
g51
NtRp1035
(dp1036
g54
(dp1037
sg63
g765
sg56
(lp1038
g49
(g70
g51
NtRp1039
(dp1040
g54
(dp1041
g74
g75
ssg63
g1035
sg56
(lp1042
S'http_connection'
p1043
asbag49
(g70
g51
NtRp1044
(dp1045
g54
(dp1046
g81
g82
ssg63
g1035
sg56
(lp1047
S':'
asbag49
(g70
g51
NtRp1048
(dp1049
g54
(dp1050
sg63
g1035
sg56
(lp1051
g49
(g50
g51
NtRp1052
(dp1053
g54
(dp1054
g62
I4
ssg63
g1048
sg56
(lp1055
S'keep-alive'
p1056
asbasbasbag49
(g65
g51
NtRp1057
(dp1058
g54
(dp1059
sg63
g765
sg56
(lp1060
g49
(g70
g51
NtRp1061
(dp1062
g54
(dp1063
g74
g75
ssg63
g1057
sg56
(lp1064
S'http_cookie'
p1065
asbag49
(g70
g51
NtRp1066
(dp1067
g54
(dp1068
g81
g82
ssg63
g1057
sg56
(lp1069
S':'
asbag49
(g70
g51
NtRp1070
(dp1071
g54
(dp1072
sg63
g1057
sg56
(lp1073
g49
(g50
g51
NtRp1074
(dp1075
g54
(dp1076
g62
I4
ssg63
g1070
sg56
(lp1077
S'session_id_welcome=127.0.0.1-76f3c1b1-2d56-4011-a35f-e7072ae8a814; session_id_admin=127.0.0.1-b030b836-135a-4bad-8831-8a062289d8a4; session_id_unioeste_code=127.0.0.1-bc48ac14-a4c3-4aad-bdf5-edbbf68c575e'
p1078
asbasbasbag49
(g65
g51
NtRp1079
(dp1080
g54
(dp1081
sg63
g765
sg56
(lp1082
g49
(g70
g51
NtRp1083
(dp1084
g54
(dp1085
g74
g75
ssg63
g1079
sg56
(lp1086
S'http_dnt'
p1087
asbag49
(g70
g51
NtRp1088
(dp1089
g54
(dp1090
g81
g82
ssg63
g1079
sg56
(lp1091
S':'
asbag49
(g70
g51
NtRp1092
(dp1093
g54
(dp1094
sg63
g1079
sg56
(lp1095
g49
(g50
g51
NtRp1096
(dp1097
g54
(dp1098
g62
I4
ssg63
g1092
sg56
(lp1099
S'1'
asbasbasbag49
(g65
g51
NtRp1100
(dp1101
g54
(dp1102
sg63
g765
sg56
(lp1103
g49
(g70
g51
NtRp1104
(dp1105
g54
(dp1106
g74
g75
ssg63
g1100
sg56
(lp1107
S'http_host'
p1108
asbag49
(g70
g51
NtRp1109
(dp1110
g54
(dp1111
g81
g82
ssg63
g1100
sg56
(lp1112
S':'
asbag49
(g70
g51
NtRp1113
(dp1114
g54
(dp1115
sg63
g1100
sg56
(lp1116
g49
(g50
g51
NtRp1117
(dp1118
g54
(dp1119
g62
I4
ssg63
g1113
sg56
(lp1120
S'127.0.0.1:8000'
p1121
asbasbasbag49
(g65
g51
NtRp1122
(dp1123
g54
(dp1124
sg63
g765
sg56
(lp1125
g49
(g70
g51
NtRp1126
(dp1127
g54
(dp1128
g74
g75
ssg63
g1122
sg56
(lp1129
S'http_referer'
p1130
asbag49
(g70
g51
NtRp1131
(dp1132
g54
(dp1133
g81
g82
ssg63
g1122
sg56
(lp1134
S':'
asbag49
(g70
g51
NtRp1135
(dp1136
g54
(dp1137
sg63
g1122
sg56
(lp1138
g49
(g50
g51
NtRp1139
(dp1140
g54
(dp1141
g62
I4
ssg63
g1135
sg56
(lp1142
S'http://127.0.0.1:8000/unioeste_code/default/user/login?_next=/unioeste_code/default/Problem/1'
p1143
asbasbasbag49
(g65
g51
NtRp1144
(dp1145
g54
(dp1146
sg63
g765
sg56
(lp1147
g49
(g70
g51
NtRp1148
(dp1149
g54
(dp1150
g74
g75
ssg63
g1144
sg56
(lp1151
S'http_user_agent'
p1152
asbag49
(g70
g51
NtRp1153
(dp1154
g54
(dp1155
g81
g82
ssg63
g1144
sg56
(lp1156
S':'
asbag49
(g70
g51
NtRp1157
(dp1158
g54
(dp1159
sg63
g1144
sg56
(lp1160
g49
(g50
g51
NtRp1161
(dp1162
g54
(dp1163
g62
I4
ssg63
g1157
sg56
(lp1164
S'Mozilla/5.0 (Windows NT 6.1; WOW64) AppleWebKit/536.11 (KHTML, like Gecko) Chrome/20.0.1132.57 Safari/536.11'
p1165
asbasbasbag49
(g65
g51
NtRp1166
(dp1167
g54
(dp1168
sg63
g765
sg56
(lp1169
g49
(g70
g51
NtRp1170
(dp1171
g54
(dp1172
g74
g75
ssg63
g1166
sg56
(lp1173
S'is_jython'
p1174
asbag49
(g70
g51
NtRp1175
(dp1176
g54
(dp1177
g81
g82
ssg63
g1166
sg56
(lp1178
S':'
asbag49
(g70
g51
NtRp1179
(dp1180
g54
(dp1181
sg63
g1166
sg56
(lp1182
g49
(g50
g51
NtRp1183
(dp1184
g54
(dp1185
g62
I4
ssg63
g1179
sg56
(lp1186
g92
asbasbasbag49
(g65
g51
NtRp1187
(dp1188
g54
(dp1189
sg63
g765
sg56
(lp1190
g49
(g70
g51
NtRp1191
(dp1192
g54
(dp1193
g74
g75
ssg63
g1187
sg56
(lp1194
S'is_pypy'
p1195
asbag49
(g70
g51
NtRp1196
(dp1197
g54
(dp1198
g81
g82
ssg63
g1187
sg56
(lp1199
S':'
asbag49
(g70
g51
NtRp1200
(dp1201
g54
(dp1202
sg63
g1187
sg56
(lp1203
g49
(g50
g51
NtRp1204
(dp1205
g54
(dp1206
g62
I4
ssg63
g1200
sg56
(lp1207
g92
asbasbasbag49
(g65
g51
NtRp1208
(dp1209
g54
(dp1210
sg63
g765
sg56
(lp1211
g49
(g70
g51
NtRp1212
(dp1213
g54
(dp1214
g74
g75
ssg63
g1208
sg56
(lp1215
S'path_info'
p1216
asbag49
(g70
g51
NtRp1217
(dp1218
g54
(dp1219
g81
g82
ssg63
g1208
sg56
(lp1220
S':'
asbag49
(g70
g51
NtRp1221
(dp1222
g54
(dp1223
sg63
g1208
sg56
(lp1224
g49
(g50
g51
NtRp1225
(dp1226
g54
(dp1227
g62
I4
ssg63
g1221
sg56
(lp1228
S'/unioeste_code/default/Problem/1'
p1229
asbasbasbag49
(g65
g51
NtRp1230
(dp1231
g54
(dp1232
sg63
g765
sg56
(lp1233
g49
(g70
g51
NtRp1234
(dp1235
g54
(dp1236
g74
g75
ssg63
g1230
sg56
(lp1237
S'query_string'
p1238
asbag49
(g70
g51
NtRp1239
(dp1240
g54
(dp1241
g81
g82
ssg63
g1230
sg56
(lp1242
S':'
asbag49
(g70
g51
NtRp1243
(dp1244
g54
(dp1245
sg63
g1230
sg56
(lp1246
g49
(g50
g51
NtRp1247
(dp1248
g54
(dp1249
g62
I4
ssg63
g1243
sg56
(lp1250
S''
asbasbasbag49
(g65
g51
NtRp1251
(dp1252
g54
(dp1253
sg63
g765
sg56
(lp1254
g49
(g70
g51
NtRp1255
(dp1256
g54
(dp1257
g74
g75
ssg63
g1251
sg56
(lp1258
S'remote_addr'
p1259
asbag49
(g70
g51
NtRp1260
(dp1261
g54
(dp1262
g81
g82
ssg63
g1251
sg56
(lp1263
S':'
asbag49
(g70
g51
NtRp1264
(dp1265
g54
(dp1266
sg63
g1251
sg56
(lp1267
g49
(g50
g51
NtRp1268
(dp1269
g54
(dp1270
g62
I4
ssg63
g1264
sg56
(lp1271
g194
asbasbasbag49
(g65
g51
NtRp1272
(dp1273
g54
(dp1274
sg63
g765
sg56
(lp1275
g49
(g70
g51
NtRp1276
(dp1277
g54
(dp1278
g74
g75
ssg63
g1272
sg56
(lp1279
S'remote_port'
p1280
asbag49
(g70
g51
NtRp1281
(dp1282
g54
(dp1283
g81
g82
ssg63
g1272
sg56
(lp1284
S':'
asbag49
(g70
g51
NtRp1285
(dp1286
g54
(dp1287
sg63
g1272
sg56
(lp1288
g49
(g50
g51
NtRp1289
(dp1290
g54
(dp1291
g62
I4
ssg63
g1285
sg56
(lp1292
S'2444'
p1293
asbasbasbag49
(g65
g51
NtRp1294
(dp1295
g54
(dp1296
sg63
g765
sg56
(lp1297
g49
(g70
g51
NtRp1298
(dp1299
g54
(dp1300
g74
g75
ssg63
g1294
sg56
(lp1301
S'request_method'
p1302
asbag49
(g70
g51
NtRp1303
(dp1304
g54
(dp1305
g81
g82
ssg63
g1294
sg56
(lp1306
S':'
asbag49
(g70
g51
NtRp1307
(dp1308
g54
(dp1309
sg63
g1294
sg56
(lp1310
g49
(g50
g51
NtRp1311
(dp1312
g54
(dp1313
g62
I4
ssg63
g1307
sg56
(lp1314
S'GET'
p1315
asbasbasbag49
(g65
g51
NtRp1316
(dp1317
g54
(dp1318
sg63
g765
sg56
(lp1319
g49
(g70
g51
NtRp1320
(dp1321
g54
(dp1322
g74
g75
ssg63
g1316
sg56
(lp1323
S'script_name'
p1324
asbag49
(g70
g51
NtRp1325
(dp1326
g54
(dp1327
g81
g82
ssg63
g1316
sg56
(lp1328
S':'
asbag49
(g70
g51
NtRp1329
(dp1330
g54
(dp1331
sg63
g1316
sg56
(lp1332
g49
(g50
g51
NtRp1333
(dp1334
g54
(dp1335
g62
I4
ssg63
g1329
sg56
(lp1336
S''
asbasbasbag49
(g65
g51
NtRp1337
(dp1338
g54
(dp1339
sg63
g765
sg56
(lp1340
g49
(g70
g51
NtRp1341
(dp1342
g54
(dp1343
g74
g75
ssg63
g1337
sg56
(lp1344
S'server_name'
p1345
asbag49
(g70
g51
NtRp1346
(dp1347
g54
(dp1348
g81
g82
ssg63
g1337
sg56
(lp1349
S':'
asbag49
(g70
g51
NtRp1350
(dp1351
g54
(dp1352
sg63
g1337
sg56
(lp1353
g49
(g50
g51
NtRp1354
(dp1355
g54
(dp1356
g62
I4
ssg63
g1350
sg56
(lp1357
S'Pedro-PC'
p1358
asbasbasbag49
(g65
g51
NtRp1359
(dp1360
g54
(dp1361
sg63
g765
sg56
(lp1362
g49
(g70
g51
NtRp1363
(dp1364
g54
(dp1365
g74
g75
ssg63
g1359
sg56
(lp1366
S'server_port'
p1367
asbag49
(g70
g51
NtRp1368
(dp1369
g54
(dp1370
g81
g82
ssg63
g1359
sg56
(lp1371
S':'
asbag49
(g70
g51
NtRp1372
(dp1373
g54
(dp1374
sg63
g1359
sg56
(lp1375
g49
(g50
g51
NtRp1376
(dp1377
g54
(dp1378
g62
I4
ssg63
g1372
sg56
(lp1379
S'8000'
p1380
asbasbasbag49
(g65
g51
NtRp1381
(dp1382
g54
(dp1383
sg63
g765
sg56
(lp1384
g49
(g70
g51
NtRp1385
(dp1386
g54
(dp1387
g74
g75
ssg63
g1381
sg56
(lp1388
S'server_protocol'
p1389
asbag49
(g70
g51
NtRp1390
(dp1391
g54
(dp1392
g81
g82
ssg63
g1381
sg56
(lp1393
S':'
asbag49
(g70
g51
NtRp1394
(dp1395
g54
(dp1396
sg63
g1381
sg56
(lp1397
g49
(g50
g51
NtRp1398
(dp1399
g54
(dp1400
g62
I4
ssg63
g1394
sg56
(lp1401
S'HTTP/1.1'
p1402
asbasbasbag49
(g65
g51
NtRp1403
(dp1404
g54
(dp1405
sg63
g765
sg56
(lp1406
g49
(g70
g51
NtRp1407
(dp1408
g54
(dp1409
g74
g75
ssg63
g1403
sg56
(lp1410
S'server_software'
p1411
asbag49
(g70
g51
NtRp1412
(dp1413
g54
(dp1414
g81
g82
ssg63
g1403
sg56
(lp1415
S':'
asbag49
(g70
g51
NtRp1416
(dp1417
g54
(dp1418
sg63
g1403
sg56
(lp1419
g49
(g50
g51
NtRp1420
(dp1421
g54
(dp1422
g62
I4
ssg63
g1416
sg56
(lp1423
S'Rocket 1.2.4'
p1424
asbasbasbag49
(g65
g51
NtRp1425
(dp1426
g54
(dp1427
sg63
g765
sg56
(lp1428
g49
(g70
g51
NtRp1429
(dp1430
g54
(dp1431
g74
g75
ssg63
g1425
sg56
(lp1432
S'web2py_crontype'
p1433
asbag49
(g70
g51
NtRp1434
(dp1435
g54
(dp1436
g81
g82
ssg63
g1425
sg56
(lp1437
S':'
asbag49
(g70
g51
NtRp1438
(dp1439
g54
(dp1440
sg63
g1425
sg56
(lp1441
g49
(g50
g51
NtRp1442
(dp1443
g54
(dp1444
g62
I4
ssg63
g1438
sg56
(lp1445
S'hard'
p1446
asbasbasbag49
(g65
g51
NtRp1447
(dp1448
g54
(dp1449
sg63
g765
sg56
(lp1450
g49
(g70
g51
NtRp1451
(dp1452
g54
(dp1453
g74
g75
ssg63
g1447
sg56
(lp1454
S'web2py_path'
p1455
asbag49
(g70
g51
NtRp1456
(dp1457
g54
(dp1458
g81
g82
ssg63
g1447
sg56
(lp1459
S':'
asbag49
(g70
g51
NtRp1460
(dp1461
g54
(dp1462
sg63
g1447
sg56
(lp1463
g49
(g50
g51
NtRp1464
(dp1465
g54
(dp1466
g62
I4
ssg63
g1460
sg56
(lp1467
g812
asbasbasbag49
(g65
g51
NtRp1468
(dp1469
g54
(dp1470
sg63
g765
sg56
(lp1471
g49
(g70
g51
NtRp1472
(dp1473
g54
(dp1474
g74
g75
ssg63
g1468
sg56
(lp1475
S'web2py_version'
p1476
asbag49
(g70
g51
NtRp1477
(dp1478
g54
(dp1479
g81
g82
ssg63
g1468
sg56
(lp1480
S':'
asbag49
(g70
g51
NtRp1481
(dp1482
g54
(dp1483
sg63
g1468
sg56
(lp1484
g49
(g50
g51
NtRp1485
(dp1486
g54
(dp1487
g62
I4
ssg63
g1481
sg56
(lp1488
g49
(g58
g51
NtRp1489
(dp1490
g54
(dp1491
g62
I3
ssg63
Nsg56
(lp1492
g49
(g65
g51
NtRp1493
(dp1494
g54
(dp1495
sg63
g1489
sg56
(lp1496
g49
(g70
g51
NtRp1497
(dp1498
g54
(dp1499
sg63
g1493
sg56
(lp1500
g49
(g50
g51
NtRp1501
(dp1502
g54
(dp1503
g62
I3
ssg63
g1497
sg56
(lp1504
S'1'
asbasbasbag49
(g65
g51
NtRp1505
(dp1506
g54
(dp1507
sg63
g1489
sg56
(lp1508
g49
(g70
g51
NtRp1509
(dp1510
g54
(dp1511
sg63
g1505
sg56
(lp1512
g49
(g50
g51
NtRp1513
(dp1514
g54
(dp1515
g62
I3
ssg63
g1509
sg56
(lp1516
S'99'
p1517
asbasbasbag49
(g65
g51
NtRp1518
(dp1519
g54
(dp1520
sg63
g1489
sg56
(lp1521
g49
(g70
g51
NtRp1522
(dp1523
g54
(dp1524
sg63
g1518
sg56
(lp1525
g49
(g50
g51
NtRp1526
(dp1527
g54
(dp1528
g62
I3
ssg63
g1522
sg56
(lp1529
S'7'
asbasbasbag49
(g65
g51
NtRp1530
(dp1531
g54
(dp1532
sg63
g1489
sg56
(lp1533
g49
(g70
g51
NtRp1534
(dp1535
g54
(dp1536
sg63
g1530
sg56
(lp1537
g49
(g50
g51
NtRp1538
(dp1539
g54
(dp1540
g62
I3
ssg63
g1534
sg56
(lp1541
S'datetime.datetime(2012, 3, 4, 22, 12, 8)'
p1542
asbasbasbag49
(g65
g51
NtRp1543
(dp1544
g54
(dp1545
sg63
g1489
sg56
(lp1546
g49
(g70
g51
NtRp1547
(dp1548
g54
(dp1549
sg63
g1543
sg56
(lp1550
g49
(g50
g51
NtRp1551
(dp1552
g54
(dp1553
g62
I3
ssg63
g1547
sg56
(lp1554
S'stable'
p1555
asbasbasbasbasbasbasbag49
(g65
g51
NtRp1556
(dp1557
g54
(dp1558
sg63
g765
sg56
(lp1559
g49
(g70
g51
NtRp1560
(dp1561
g54
(dp1562
g74
g75
ssg63
g1556
sg56
(lp1563
S'wsgi_errors'
p1564
asbag49
(g70
g51
NtRp1565
(dp1566
g54
(dp1567
g81
g82
ssg63
g1556
sg56
(lp1568
S':'
asbag49
(g70
g51
NtRp1569
(dp1570
g54
(dp1571
sg63
g1556
sg56
(lp1572
g49
(g50
g51
NtRp1573
(dp1574
g54
(dp1575
g62
I4
ssg63
g1569
sg56
(lp1576
S'<__main__.Stderr object at 0x00356670>'
p1577
asbasbasbag49
(g65
g51
NtRp1578
(dp1579
g54
(dp1580
sg63
g765
sg56
(lp1581
g49
(g70
g51
NtRp1582
(dp1583
g54
(dp1584
g74
g75
ssg63
g1578
sg56
(lp1585
S'wsgi_file_wrapper'
p1586
asbag49
(g70
g51
NtRp1587
(dp1588
g54
(dp1589
g81
g82
ssg63
g1578
sg56
(lp1590
S':'
asbag49
(g70
g51
NtRp1591
(dp1592
g54
(dp1593
sg63
g1578
sg56
(lp1594
g49
(g50
g51
NtRp1595
(dp1596
g54
(dp1597
g62
I4
ssg63
g1591
sg56
(lp1598
S'<class wsgiref.util.FileWrapper at 0x02FCDE10>'
p1599
asbasbasbag49
(g65
g51
NtRp1600
(dp1601
g54
(dp1602
sg63
g765
sg56
(lp1603
g49
(g70
g51
NtRp1604
(dp1605
g54
(dp1606
g74
g75
ssg63
g1600
sg56
(lp1607
S'wsgi_input'
p1608
asbag49
(g70
g51
NtRp1609
(dp1610
g54
(dp1611
g81
g82
ssg63
g1600
sg56
(lp1612
S':'
asbag49
(g70
g51
NtRp1613
(dp1614
g54
(dp1615
sg63
g1600
sg56
(lp1616
g49
(g50
g51
NtRp1617
(dp1618
g54
(dp1619
g62
I4
ssg63
g1613
sg56
(lp1620
S'<socket._fileobject object at 0x0663ADF0>'
p1621
asbasbasbag49
(g65
g51
NtRp1622
(dp1623
g54
(dp1624
sg63
g765
sg56
(lp1625
g49
(g70
g51
NtRp1626
(dp1627
g54
(dp1628
g74
g75
ssg63
g1622
sg56
(lp1629
S'wsgi_multiprocess'
p1630
asbag49
(g70
g51
NtRp1631
(dp1632
g54
(dp1633
g81
g82
ssg63
g1622
sg56
(lp1634
S':'
asbag49
(g70
g51
NtRp1635
(dp1636
g54
(dp1637
sg63
g1622
sg56
(lp1638
g49
(g50
g51
NtRp1639
(dp1640
g54
(dp1641
g62
I4
ssg63
g1635
sg56
(lp1642
g92
asbasbasbag49
(g65
g51
NtRp1643
(dp1644
g54
(dp1645
sg63
g765
sg56
(lp1646
g49
(g70
g51
NtRp1647
(dp1648
g54
(dp1649
g74
g75
ssg63
g1643
sg56
(lp1650
S'wsgi_multithread'
p1651
asbag49
(g70
g51
NtRp1652
(dp1653
g54
(dp1654
g81
g82
ssg63
g1643
sg56
(lp1655
S':'
asbag49
(g70
g51
NtRp1656
(dp1657
g54
(dp1658
sg63
g1643
sg56
(lp1659
g49
(g50
g51
NtRp1660
(dp1661
g54
(dp1662
g62
I4
ssg63
g1656
sg56
(lp1663
S'True'
p1664
asbasbasbag49
(g65
g51
NtRp1665
(dp1666
g54
(dp1667
sg63
g765
sg56
(lp1668
g49
(g70
g51
NtRp1669
(dp1670
g54
(dp1671
g74
g75
ssg63
g1665
sg56
(lp1672
S'wsgi_run_once'
p1673
asbag49
(g70
g51
NtRp1674
(dp1675
g54
(dp1676
g81
g82
ssg63
g1665
sg56
(lp1677
S':'
asbag49
(g70
g51
NtRp1678
(dp1679
g54
(dp1680
sg63
g1665
sg56
(lp1681
g49
(g50
g51
NtRp1682
(dp1683
g54
(dp1684
g62
I4
ssg63
g1678
sg56
(lp1685
g92
asbasbasbag49
(g65
g51
NtRp1686
(dp1687
g54
(dp1688
sg63
g765
sg56
(lp1689
g49
(g70
g51
NtRp1690
(dp1691
g54
(dp1692
g74
g75
ssg63
g1686
sg56
(lp1693
S'wsgi_url_scheme'
p1694
asbag49
(g70
g51
NtRp1695
(dp1696
g54
(dp1697
g81
g82
ssg63
g1686
sg56
(lp1698
S':'
asbag49
(g70
g51
NtRp1699
(dp1700
g54
(dp1701
sg63
g1686
sg56
(lp1702
g49
(g50
g51
NtRp1703
(dp1704
g54
(dp1705
g62
I4
ssg63
g1699
sg56
(lp1706
S'http'
p1707
asbasbasbag49
(g65
g51
NtRp1708
(dp1709
g54
(dp1710
sg63
g765
sg56
(lp1711
g49
(g70
g51
NtRp1712
(dp1713
g54
(dp1714
g74
g75
ssg63
g1708
sg56
(lp1715
S'wsgi_version'
p1716
asbag49
(g70
g51
NtRp1717
(dp1718
g54
(dp1719
g81
g82
ssg63
g1708
sg56
(lp1720
S':'
asbag49
(g70
g51
NtRp1721
(dp1722
g54
(dp1723
sg63
g1708
sg56
(lp1724
g49
(g50
g51
NtRp1725
(dp1726
g54
(dp1727
g62
I4
ssg63
g1721
sg56
(lp1728
g49
(g58
g51
NtRp1729
(dp1730
g54
(dp1731
g62
I3
ssg63
Nsg56
(lp1732
g49
(g65
g51
NtRp1733
(dp1734
g54
(dp1735
sg63
g1729
sg56
(lp1736
g49
(g70
g51
NtRp1737
(dp1738
g54
(dp1739
sg63
g1733
sg56
(lp1740
g49
(g50
g51
NtRp1741
(dp1742
g54
(dp1743
g62
I3
ssg63
g1737
sg56
(lp1744
S'1'
asbasbasbag49
(g65
g51
NtRp1745
(dp1746
g54
(dp1747
sg63
g1729
sg56
(lp1748
g49
(g70
g51
NtRp1749
(dp1750
g54
(dp1751
sg63
g1745
sg56
(lp1752
g49
(g50
g51
NtRp1753
(dp1754
g54
(dp1755
g62
I3
ssg63
g1749
sg56
(lp1756
S'0'
asbasbasbasbasbasbasbasbasbasbasbag49
(g65
g51
NtRp1757
(dp1758
g54
(dp1759
sg63
g59
sg56
(lp1760
g49
(g70
g51
NtRp1761
(dp1762
g54
(dp1763
g74
g75
ssg63
g1757
sg56
(lp1764
S'extension'
p1765
asbag49
(g70
g51
NtRp1766
(dp1767
g54
(dp1768
g81
g82
ssg63
g1757
sg56
(lp1769
S':'
asbag49
(g70
g51
NtRp1770
(dp1771
g54
(dp1772
sg63
g1757
sg56
(lp1773
g49
(g50
g51
NtRp1774
(dp1775
g54
(dp1776
g62
I5
ssg63
g1770
sg56
(lp1777
S'html'
p1778
asbasbasbag49
(g65
g51
NtRp1779
(dp1780
g54
(dp1781
sg63
g59
sg56
(lp1782
g49
(g70
g51
NtRp1783
(dp1784
g54
(dp1785
g74
g75
ssg63
g1779
sg56
(lp1786
S'folder'
p1787
asbag49
(g70
g51
NtRp1788
(dp1789
g54
(dp1790
g81
g82
ssg63
g1779
sg56
(lp1791
S':'
asbag49
(g70
g51
NtRp1792
(dp1793
g54
(dp1794
sg63
g1779
sg56
(lp1795
g49
(g50
g51
NtRp1796
(dp1797
g54
(dp1798
g62
I5
ssg63
g1792
sg56
(lp1799
S'C:\\web2py\\applications\\unioeste_code\\'
p1800
asbasbasbag49
(g65
g51
NtRp1801
(dp1802
g54
(dp1803
sg63
g59
sg56
(lp1804
g49
(g70
g51
NtRp1805
(dp1806
g54
(dp1807
g74
g75
ssg63
g1801
sg56
(lp1808
S'function'
p1809
asbag49
(g70
g51
NtRp1810
(dp1811
g54
(dp1812
g81
g82
ssg63
g1801
sg56
(lp1813
S':'
asbag49
(g70
g51
NtRp1814
(dp1815
g54
(dp1816
sg63
g1801
sg56
(lp1817
g49
(g50
g51
NtRp1818
(dp1819
g54
(dp1820
g62
I5
ssg63
g1814
sg56
(lp1821
S'Problem'
p1822
asbasbasbag49
(g65
g51
NtRp1823
(dp1824
g54
(dp1825
sg63
g59
sg56
(lp1826
g49
(g70
g51
NtRp1827
(dp1828
g54
(dp1829
g74
g75
ssg63
g1823
sg56
(lp1830
S'get_vars'
p1831
asbag49
(g70
g51
NtRp1832
(dp1833
g54
(dp1834
g81
g82
ssg63
g1823
sg56
(lp1835
S':'
asbag49
(g70
g51
NtRp1836
(dp1837
g54
(dp1838
sg63
g1823
sg56
(lp1839
g49
(g50
g51
NtRp1840
(dp1841
g54
(dp1842
g62
I5
ssg63
g1836
sg56
(lp1843
g49
(g58
g51
NtRp1844
(dp1845
g54
(dp1846
g62
I4
ssg63
Nsg56
(lp1847
sbasbasbasbag49
(g65
g51
NtRp1848
(dp1849
g54
(dp1850
sg63
g59
sg56
(lp1851
g49
(g70
g51
NtRp1852
(dp1853
g54
(dp1854
g74
g75
ssg63
g1848
sg56
(lp1855
S'global_settings'
p1856
asbag49
(g70
g51
NtRp1857
(dp1858
g54
(dp1859
g81
g82
ssg63
g1848
sg56
(lp1860
S':'
asbag49
(g70
g51
NtRp1861
(dp1862
g54
(dp1863
sg63
g1848
sg56
(lp1864
g49
(g50
g51
NtRp1865
(dp1866
g54
(dp1867
g62
I5
ssg63
g1861
sg56
(lp1868
g49
(g58
g51
NtRp1869
(dp1870
g54
(dp1871
g62
I4
ssg63
Nsg56
(lp1872
g49
(g65
g51
NtRp1873
(dp1874
g54
(dp1875
sg63
g1869
sg56
(lp1876
g49
(g70
g51
NtRp1877
(dp1878
g54
(dp1879
g74
g75
ssg63
g1873
sg56
(lp1880
g777
asbag49
(g70
g51
NtRp1881
(dp1882
g54
(dp1883
g81
g82
ssg63
g1873
sg56
(lp1884
S':'
asbag49
(g70
g51
NtRp1885
(dp1886
g54
(dp1887
sg63
g1873
sg56
(lp1888
g49
(g50
g51
NtRp1889
(dp1890
g54
(dp1891
g62
I4
ssg63
g1885
sg56
(lp1892
S"set(['C:\\\\web2py\\\\applications\\\\admin\\\\', 'C:\\\\web2py\\\\applications\\\\welcome\\\\', 'C:\\\\web2py\\\\applications\\\\unioeste_code\\\\'])"
p1893
asbasbasbag49
(g65
g51
NtRp1894
(dp1895
g54
(dp1896
sg63
g1869
sg56
(lp1897
g49
(g70
g51
NtRp1898
(dp1899
g54
(dp1900
g74
g75
ssg63
g1894
sg56
(lp1901
g799
asbag49
(g70
g51
NtRp1902
(dp1903
g54
(dp1904
g81
g82
ssg63
g1894
sg56
(lp1905
S':'
asbag49
(g70
g51
NtRp1906
(dp1907
g54
(dp1908
sg63
g1894
sg56
(lp1909
g49
(g50
g51
NtRp1910
(dp1911
g54
(dp1912
g62
I4
ssg63
g1906
sg56
(lp1913
g812
asbasbasbag49
(g65
g51
NtRp1914
(dp1915
g54
(dp1916
sg63
g1869
sg56
(lp1917
g49
(g70
g51
NtRp1918
(dp1919
g54
(dp1920
g74
g75
ssg63
g1914
sg56
(lp1921
g821
asbag49
(g70
g51
NtRp1922
(dp1923
g54
(dp1924
g81
g82
ssg63
g1914
sg56
(lp1925
S':'
asbag49
(g70
g51
NtRp1926
(dp1927
g54
(dp1928
sg63
g1914
sg56
(lp1929
g49
(g50
g51
NtRp1930
(dp1931
g54
(dp1932
g62
I4
ssg63
g1926
sg56
(lp1933
g49
(g58
g51
NtRp1934
(dp1935
g54
(dp1936
g62
I3
ssg63
Nsg56
(lp1937
sbasbasbasbag49
(g65
g51
NtRp1938
(dp1939
g54
(dp1940
sg63
g1869
sg56
(lp1941
g49
(g70
g51
NtRp1942
(dp1943
g54
(dp1944
g74
g75
ssg63
g1938
sg56
(lp1945
g846
asbag49
(g70
g51
NtRp1946
(dp1947
g54
(dp1948
g81
g82
ssg63
g1938
sg56
(lp1949
S':'
asbag49
(g70
g51
NtRp1950
(dp1951
g54
(dp1952
sg63
g1938
sg56
(lp1953
g49
(g50
g51
NtRp1954
(dp1955
g54
(dp1956
g62
I4
ssg63
g1950
sg56
(lp1957
S"<Values at 0x31dc300: {'verbose': False, 'ip': '127.0.0.1', 'shutdown_timeout': 5, 'taskbar': False, 'nocron': False, 'pid_filename': 'httpserver.pid', 'maxthreads': None, 'softcron': False, 'server_name': 'Pedro-PC', 'bpython': False, 'nogui': False, 'port': 8000, 'extcron': False, 'debuglevel': 30, 'test': None, 'folder': 'C:\\\\web2py', 'config': '', 'import_models': False, 'winservice': '', 'shell': None, 'run': '', 'log_filename': 'httpserver.log', 'args': [''], 'socket_timeout': 5, 'ssl_ca_certificate': None, 'scheduler': None, 'profiler_filename': None, 'ssl_private_key': '', 'password': '<ask>', 'request_queue_size': 5, 'ssl_certificate': '', 'cronjob': False, 'numthreads': None, 'quiet': False, 'interfaces': None, 'minthreads': None, 'timeout': 10, 'plain': False, 'nobanner': False}>"
p1958
asbasbasbag49
(g65
g51
NtRp1959
(dp1960
g54
(dp1961
sg63
g1869
sg56
(lp1962
g49
(g70
g51
NtRp1963
(dp1964
g54
(dp1965
g74
g75
ssg63
g1959
sg56
(lp1966
g868
asbag49
(g70
g51
NtRp1967
(dp1968
g54
(dp1969
g81
g82
ssg63
g1959
sg56
(lp1970
S':'
asbag49
(g70
g51
NtRp1971
(dp1972
g54
(dp1973
sg63
g1959
sg56
(lp1974
g49
(g50
g51
NtRp1975
(dp1976
g54
(dp1977
g62
I4
ssg63
g1971
sg56
(lp1978
S'set([])'
p1979
asbasbasbag49
(g65
g51
NtRp1980
(dp1981
g54
(dp1982
sg63
g1869
sg56
(lp1983
g49
(g70
g51
NtRp1984
(dp1985
g54
(dp1986
g74
g75
ssg63
g1980
sg56
(lp1987
g890
asbag49
(g70
g51
NtRp1988
(dp1989
g54
(dp1990
g81
g82
ssg63
g1980
sg56
(lp1991
S':'
asbag49
(g70
g51
NtRp1992
(dp1993
g54
(dp1994
sg63
g1980
sg56
(lp1995
g49
(g50
g51
NtRp1996
(dp1997
g54
(dp1998
g62
I4
ssg63
g1992
sg56
(lp1999
g92
asbasbasbag49
(g65
g51
NtRp2000
(dp2001
g54
(dp2002
sg63
g1869
sg56
(lp2003
g49
(g70
g51
NtRp2004
(dp2005
g54
(dp2006
g74
g75
ssg63
g2000
sg56
(lp2007
g911
asbag49
(g70
g51
NtRp2008
(dp2009
g54
(dp2010
g81
g82
ssg63
g2000
sg56
(lp2011
S':'
asbag49
(g70
g51
NtRp2012
(dp2013
g54
(dp2014
sg63
g2000
sg56
(lp2015
g49
(g50
g51
NtRp2016
(dp2017
g54
(dp2018
g62
I4
ssg63
g2012
sg56
(lp2019
g924
asbasbasbag49
(g65
g51
NtRp2020
(dp2021
g54
(dp2022
sg63
g1869
sg56
(lp2023
g49
(g70
g51
NtRp2024
(dp2025
g54
(dp2026
g74
g75
ssg63
g2020
sg56
(lp2027
g1174
asbag49
(g70
g51
NtRp2028
(dp2029
g54
(dp2030
g81
g82
ssg63
g2020
sg56
(lp2031
S':'
asbag49
(g70
g51
NtRp2032
(dp2033
g54
(dp2034
sg63
g2020
sg56
(lp2035
g49
(g50
g51
NtRp2036
(dp2037
g54
(dp2038
g62
I4
ssg63
g2032
sg56
(lp2039
g92
asbasbasbag49
(g65
g51
NtRp2040
(dp2041
g54
(dp2042
sg63
g1869
sg56
(lp2043
g49
(g70
g51
NtRp2044
(dp2045
g54
(dp2046
g74
g75
ssg63
g2040
sg56
(lp2047
g1195
asbag49
(g70
g51
NtRp2048
(dp2049
g54
(dp2050
g81
g82
ssg63
g2040
sg56
(lp2051
S':'
asbag49
(g70
g51
NtRp2052
(dp2053
g54
(dp2054
sg63
g2040
sg56
(lp2055
g49
(g50
g51
NtRp2056
(dp2057
g54
(dp2058
g62
I4
ssg63
g2052
sg56
(lp2059
g92
asbasbasbag49
(g65
g51
NtRp2060
(dp2061
g54
(dp2062
sg63
g1869
sg56
(lp2063
g49
(g70
g51
NtRp2064
(dp2065
g54
(dp2066
g74
g75
ssg63
g2060
sg56
(lp2067
g1433
asbag49
(g70
g51
NtRp2068
(dp2069
g54
(dp2070
g81
g82
ssg63
g2060
sg56
(lp2071
S':'
asbag49
(g70
g51
NtRp2072
(dp2073
g54
(dp2074
sg63
g2060
sg56
(lp2075
g49
(g50
g51
NtRp2076
(dp2077
g54
(dp2078
g62
I4
ssg63
g2072
sg56
(lp2079
g1446
asbasbasbag49
(g65
g51
NtRp2080
(dp2081
g54
(dp2082
sg63
g1869
sg56
(lp2083
g49
(g70
g51
NtRp2084
(dp2085
g54
(dp2086
g74
g75
ssg63
g2080
sg56
(lp2087
g1476
asbag49
(g70
g51
NtRp2088
(dp2089
g54
(dp2090
g81
g82
ssg63
g2080
sg56
(lp2091
S':'
asbag49
(g70
g51
NtRp2092
(dp2093
g54
(dp2094
sg63
g2080
sg56
(lp2095
g49
(g50
g51
NtRp2096
(dp2097
g54
(dp2098
g62
I4
ssg63
g2092
sg56
(lp2099
g49
(g58
g51
NtRp2100
(dp2101
g54
(dp2102
g62
I3
ssg63
Nsg56
(lp2103
g49
(g65
g51
NtRp2104
(dp2105
g54
(dp2106
sg63
g2100
sg56
(lp2107
g49
(g70
g51
NtRp2108
(dp2109
g54
(dp2110
sg63
g2104
sg56
(lp2111
g49
(g50
g51
NtRp2112
(dp2113
g54
(dp2114
g62
I3
ssg63
g2108
sg56
(lp2115
S'1'
asbasbasbag49
(g65
g51
NtRp2116
(dp2117
g54
(dp2118
sg63
g2100
sg56
(lp2119
g49
(g70
g51
NtRp2120
(dp2121
g54
(dp2122
sg63
g2116
sg56
(lp2123
g49
(g50
g51
NtRp2124
(dp2125
g54
(dp2126
g62
I3
ssg63
g2120
sg56
(lp2127
S'99'
p2128
asbasbasbag49
(g65
g51
NtRp2129
(dp2130
g54
(dp2131
sg63
g2100
sg56
(lp2132
g49
(g70
g51
NtRp2133
(dp2134
g54
(dp2135
sg63
g2129
sg56
(lp2136
g49
(g50
g51
NtRp2137
(dp2138
g54
(dp2139
g62
I3
ssg63
g2133
sg56
(lp2140
S'7'
asbasbasbag49
(g65
g51
NtRp2141
(dp2142
g54
(dp2143
sg63
g2100
sg56
(lp2144
g49
(g70
g51
NtRp2145
(dp2146
g54
(dp2147
sg63
g2141
sg56
(lp2148
g49
(g50
g51
NtRp2149
(dp2150
g54
(dp2151
g62
I3
ssg63
g2145
sg56
(lp2152
S'datetime.datetime(2012, 3, 4, 22, 12, 8)'
p2153
asbasbasbag49
(g65
g51
NtRp2154
(dp2155
g54
(dp2156
sg63
g2100
sg56
(lp2157
g49
(g70
g51
NtRp2158
(dp2159
g54
(dp2160
sg63
g2154
sg56
(lp2161
g49
(g50
g51
NtRp2162
(dp2163
g54
(dp2164
g62
I3
ssg63
g2158
sg56
(lp2165
g1555
asbasbasbasbasbasbasbasbasbasbasbag49
(g65
g51
NtRp2166
(dp2167
g54
(dp2168
sg63
g59
sg56
(lp2169
g49
(g70
g51
NtRp2170
(dp2171
g54
(dp2172
g74
g75
ssg63
g2166
sg56
(lp2173
S'is_https'
p2174
asbag49
(g70
g51
NtRp2175
(dp2176
g54
(dp2177
g81
g82
ssg63
g2166
sg56
(lp2178
S':'
asbag49
(g70
g51
NtRp2179
(dp2180
g54
(dp2181
sg63
g2166
sg56
(lp2182
g49
(g50
g51
NtRp2183
(dp2184
g54
(dp2185
g62
I5
ssg63
g2179
sg56
(lp2186
g92
asbasbasbag49
(g65
g51
NtRp2187
(dp2188
g54
(dp2189
sg63
g59
sg56
(lp2190
g49
(g70
g51
NtRp2191
(dp2192
g54
(dp2193
g74
g75
ssg63
g2187
sg56
(lp2194
S'is_local'
p2195
asbag49
(g70
g51
NtRp2196
(dp2197
g54
(dp2198
g81
g82
ssg63
g2187
sg56
(lp2199
S':'
asbag49
(g70
g51
NtRp2200
(dp2201
g54
(dp2202
sg63
g2187
sg56
(lp2203
g49
(g50
g51
NtRp2204
(dp2205
g54
(dp2206
g62
I5
ssg63
g2200
sg56
(lp2207
g1664
asbasbasbag49
(g65
g51
NtRp2208
(dp2209
g54
(dp2210
sg63
g59
sg56
(lp2211
g49
(g70
g51
NtRp2212
(dp2213
g54
(dp2214
g74
g75
ssg63
g2208
sg56
(lp2215
S'is_restful'
p2216
asbag49
(g70
g51
NtRp2217
(dp2218
g54
(dp2219
g81
g82
ssg63
g2208
sg56
(lp2220
S':'
asbag49
(g70
g51
NtRp2221
(dp2222
g54
(dp2223
sg63
g2208
sg56
(lp2224
g49
(g50
g51
NtRp2225
(dp2226
g54
(dp2227
g62
I5
ssg63
g2221
sg56
(lp2228
g92
asbasbasbag49
(g65
g51
NtRp2229
(dp2230
g54
(dp2231
sg63
g59
sg56
(lp2232
g49
(g70
g51
NtRp2233
(dp2234
g54
(dp2235
g74
g75
ssg63
g2229
sg56
(lp2236
S'now'
p2237
asbag49
(g70
g51
NtRp2238
(dp2239
g54
(dp2240
g81
g82
ssg63
g2229
sg56
(lp2241
S':'
asbag49
(g70
g51
NtRp2242
(dp2243
g54
(dp2244
sg63
g2229
sg56
(lp2245
g49
(g50
g51
NtRp2246
(dp2247
g54
(dp2248
g62
I5
ssg63
g2242
sg56
(lp2249
S'datetime.datetime(2012, 7, 30, 21, 6, 9, 132000)'
p2250
asbasbasbag49
(g65
g51
NtRp2251
(dp2252
g54
(dp2253
sg63
g59
sg56
(lp2254
g49
(g70
g51
NtRp2255
(dp2256
g54
(dp2257
g74
g75
ssg63
g2251
sg56
(lp2258
S'post_vars'
p2259
asbag49
(g70
g51
NtRp2260
(dp2261
g54
(dp2262
g81
g82
ssg63
g2251
sg56
(lp2263
S':'
asbag49
(g70
g51
NtRp2264
(dp2265
g54
(dp2266
sg63
g2251
sg56
(lp2267
g49
(g50
g51
NtRp2268
(dp2269
g54
(dp2270
g62
I5
ssg63
g2264
sg56
(lp2271
g49
(g58
g51
NtRp2272
(dp2273
g54
(dp2274
g62
I4
ssg63
Nsg56
(lp2275
sbasbasbasbag49
(g65
g51
NtRp2276
(dp2277
g54
(dp2278
sg63
g59
sg56
(lp2279
g49
(g70
g51
NtRp2280
(dp2281
g54
(dp2282
g74
g75
ssg63
g2276
sg56
(lp2283
S'raw_args'
p2284
asbag49
(g70
g51
NtRp2285
(dp2286
g54
(dp2287
g81
g82
ssg63
g2276
sg56
(lp2288
S':'
asbag49
(g70
g51
NtRp2289
(dp2290
g54
(dp2291
sg63
g2276
sg56
(lp2292
g49
(g50
g51
NtRp2293
(dp2294
g54
(dp2295
g62
I5
ssg63
g2289
sg56
(lp2296
S'1'
asbasbasbag49
(g65
g51
NtRp2297
(dp2298
g54
(dp2299
sg63
g59
sg56
(lp2300
g49
(g70
g51
NtRp2301
(dp2302
g54
(dp2303
g74
g75
ssg63
g2297
sg56
(lp2304
S'url'
p2305
asbag49
(g70
g51
NtRp2306
(dp2307
g54
(dp2308
g81
g82
ssg63
g2297
sg56
(lp2309
S':'
asbag49
(g70
g51
NtRp2310
(dp2311
g54
(dp2312
sg63
g2297
sg56
(lp2313
g49
(g50
g51
NtRp2314
(dp2315
g54
(dp2316
g62
I5
ssg63
g2310
sg56
(lp2317
S'/unioeste_code/default/Problem/1'
p2318
asbasbasbag49
(g65
g51
NtRp2319
(dp2320
g54
(dp2321
sg63
g59
sg56
(lp2322
g49
(g70
g51
NtRp2323
(dp2324
g54
(dp2325
g74
g75
ssg63
g2319
sg56
(lp2326
S'utcnow'
p2327
asbag49
(g70
g51
NtRp2328
(dp2329
g54
(dp2330
g81
g82
ssg63
g2319
sg56
(lp2331
S':'
asbag49
(g70
g51
NtRp2332
(dp2333
g54
(dp2334
sg63
g2319
sg56
(lp2335
g49
(g50
g51
NtRp2336
(dp2337
g54
(dp2338
g62
I5
ssg63
g2332
sg56
(lp2339
S'datetime.datetime(2012, 7, 31, 0, 6, 9, 132000)'
p2340
asbasbasbag49
(g65
g51
NtRp2341
(dp2342
g54
(dp2343
sg63
g59
sg56
(lp2344
g49
(g70
g51
NtRp2345
(dp2346
g54
(dp2347
g74
g75
ssg63
g2341
sg56
(lp2348
S'uuid'
p2349
asbag49
(g70
g51
NtRp2350
(dp2351
g54
(dp2352
g81
g82
ssg63
g2341
sg56
(lp2353
S':'
asbag49
(g70
g51
NtRp2354
(dp2355
g54
(dp2356
sg63
g2341
sg56
(lp2357
g49
(g50
g51
NtRp2358
(dp2359
g54
(dp2360
g62
I5
ssg63
g2354
sg56
(lp2361
S'unioeste_code/127.0.0.1.2012-07-30.21-06-09.75b200b7-a65a-4da8-a482-5137b3791220'
p2362
asbasbasbag49
(g65
g51
NtRp2363
(dp2364
g54
(dp2365
sg63
g59
sg56
(lp2366
g49
(g70
g51
NtRp2367
(dp2368
g54
(dp2369
g74
g75
ssg63
g2363
sg56
(lp2370
S'vars'
p2371
asbag49
(g70
g51
NtRp2372
(dp2373
g54
(dp2374
g81
g82
ssg63
g2363
sg56
(lp2375
S':'
asbag49
(g70
g51
NtRp2376
(dp2377
g54
(dp2378
sg63
g2363
sg56
(lp2379
g49
(g50
g51
NtRp2380
(dp2381
g54
(dp2382
g62
I5
ssg63
g2376
sg56
(lp2383
g49
(g58
g51
NtRp2384
(dp2385
g54
(dp2386
g62
I4
ssg63
Nsg56
(lp2387
sbasbasbasbag49
(g65
g51
NtRp2388
(dp2389
g54
(dp2390
sg63
g59
sg56
(lp2391
g49
(g70
g51
NtRp2392
(dp2393
g54
(dp2394
g74
g75
ssg63
g2388
sg56
(lp2395
S'wsgi'
p2396
asbag49
(g70
g51
NtRp2397
(dp2398
g54
(dp2399
g81
g82
ssg63
g2388
sg56
(lp2400
S':'
asbag49
(g70
g51
NtRp2401
(dp2402
g54
(dp2403
sg63
g2388
sg56
(lp2404
g49
(g50
g51
NtRp2405
(dp2406
g54
(dp2407
g62
I5
ssg63
g2401
sg56
(lp2408
g49
(g58
g51
NtRp2409
(dp2410
g54
(dp2411
g62
I4
ssg63
Nsg56
(lp2412
g49
(g65
g51
NtRp2413
(dp2414
g54
(dp2415
sg63
g2409
sg56
(lp2416
g49
(g70
g51
NtRp2417
(dp2418
g54
(dp2419
g74
g75
ssg63
g2413
sg56
(lp2420
S'environ'
p2421
asbag49
(g70
g51
NtRp2422
(dp2423
g54
(dp2424
g81
g82
ssg63
g2413
sg56
(lp2425
S':'
asbag49
(g70
g51
NtRp2426
(dp2427
g54
(dp2428
sg63
g2413
sg56
(lp2429
g49
(g50
g51
NtRp2430
(dp2431
g54
(dp2432
g62
I4
ssg63
g2426
sg56
(lp2433
g49
(g58
g51
NtRp2434
(dp2435
g54
(dp2436
g62
I3
ssg63
Nsg56
(lp2437
g49
(g65
g51
NtRp2438
(dp2439
g54
(dp2440
sg63
g2434
sg56
(lp2441
g49
(g70
g51
NtRp2442
(dp2443
g54
(dp2444
g74
g75
ssg63
g2438
sg56
(lp2445
S'HTTP_ACCEPT'
p2446
asbag49
(g70
g51
NtRp2447
(dp2448
g54
(dp2449
g81
g82
ssg63
g2438
sg56
(lp2450
S':'
asbag49
(g70
g51
NtRp2451
(dp2452
g54
(dp2453
sg63
g2438
sg56
(lp2454
g49
(g50
g51
NtRp2455
(dp2456
g54
(dp2457
g62
I3
ssg63
g2451
sg56
(lp2458
g946
asbasbasbag49
(g65
g51
NtRp2459
(dp2460
g54
(dp2461
sg63
g2434
sg56
(lp2462
g49
(g70
g51
NtRp2463
(dp2464
g54
(dp2465
g74
g75
ssg63
g2459
sg56
(lp2466
S'HTTP_ACCEPT_CHARSET'
p2467
asbag49
(g70
g51
NtRp2468
(dp2469
g54
(dp2470
g81
g82
ssg63
g2459
sg56
(lp2471
S':'
asbag49
(g70
g51
NtRp2472
(dp2473
g54
(dp2474
sg63
g2459
sg56
(lp2475
g49
(g50
g51
NtRp2476
(dp2477
g54
(dp2478
g62
I3
ssg63
g2472
sg56
(lp2479
g968
asbasbasbag49
(g65
g51
NtRp2480
(dp2481
g54
(dp2482
sg63
g2434
sg56
(lp2483
g49
(g70
g51
NtRp2484
(dp2485
g54
(dp2486
g74
g75
ssg63
g2480
sg56
(lp2487
S'HTTP_ACCEPT_ENCODING'
p2488
asbag49
(g70
g51
NtRp2489
(dp2490
g54
(dp2491
g81
g82
ssg63
g2480
sg56
(lp2492
S':'
asbag49
(g70
g51
NtRp2493
(dp2494
g54
(dp2495
sg63
g2480
sg56
(lp2496
g49
(g50
g51
NtRp2497
(dp2498
g54
(dp2499
g62
I3
ssg63
g2493
sg56
(lp2500
g990
asbasbasbag49
(g65
g51
NtRp2501
(dp2502
g54
(dp2503
sg63
g2434
sg56
(lp2504
g49
(g70
g51
NtRp2505
(dp2506
g54
(dp2507
g74
g75
ssg63
g2501
sg56
(lp2508
S'HTTP_ACCEPT_LANGUAGE'
p2509
asbag49
(g70
g51
NtRp2510
(dp2511
g54
(dp2512
g81
g82
ssg63
g2501
sg56
(lp2513
S':'
asbag49
(g70
g51
NtRp2514
(dp2515
g54
(dp2516
sg63
g2501
sg56
(lp2517
g49
(g50
g51
NtRp2518
(dp2519
g54
(dp2520
g62
I3
ssg63
g2514
sg56
(lp2521
g1012
asbasbasbag49
(g65
g51
NtRp2522
(dp2523
g54
(dp2524
sg63
g2434
sg56
(lp2525
g49
(g70
g51
NtRp2526
(dp2527
g54
(dp2528
g74
g75
ssg63
g2522
sg56
(lp2529
S'HTTP_CACHE_CONTROL'
p2530
asbag49
(g70
g51
NtRp2531
(dp2532
g54
(dp2533
g81
g82
ssg63
g2522
sg56
(lp2534
S':'
asbag49
(g70
g51
NtRp2535
(dp2536
g54
(dp2537
sg63
g2522
sg56
(lp2538
g49
(g50
g51
NtRp2539
(dp2540
g54
(dp2541
g62
I3
ssg63
g2535
sg56
(lp2542
g1034
asbasbasbag49
(g65
g51
NtRp2543
(dp2544
g54
(dp2545
sg63
g2434
sg56
(lp2546
g49
(g70
g51
NtRp2547
(dp2548
g54
(dp2549
g74
g75
ssg63
g2543
sg56
(lp2550
S'HTTP_CONNECTION'
p2551
asbag49
(g70
g51
NtRp2552
(dp2553
g54
(dp2554
g81
g82
ssg63
g2543
sg56
(lp2555
S':'
asbag49
(g70
g51
NtRp2556
(dp2557
g54
(dp2558
sg63
g2543
sg56
(lp2559
g49
(g50
g51
NtRp2560
(dp2561
g54
(dp2562
g62
I3
ssg63
g2556
sg56
(lp2563
g1056
asbasbasbag49
(g65
g51
NtRp2564
(dp2565
g54
(dp2566
sg63
g2434
sg56
(lp2567
g49
(g70
g51
NtRp2568
(dp2569
g54
(dp2570
g74
g75
ssg63
g2564
sg56
(lp2571
S'HTTP_COOKIE'
p2572
asbag49
(g70
g51
NtRp2573
(dp2574
g54
(dp2575
g81
g82
ssg63
g2564
sg56
(lp2576
S':'
asbag49
(g70
g51
NtRp2577
(dp2578
g54
(dp2579
sg63
g2564
sg56
(lp2580
g49
(g50
g51
NtRp2581
(dp2582
g54
(dp2583
g62
I3
ssg63
g2577
sg56
(lp2584
g1078
asbasbasbag49
(g65
g51
NtRp2585
(dp2586
g54
(dp2587
sg63
g2434
sg56
(lp2588
g49
(g70
g51
NtRp2589
(dp2590
g54
(dp2591
g74
g75
ssg63
g2585
sg56
(lp2592
S'HTTP_DNT'
p2593
asbag49
(g70
g51
NtRp2594
(dp2595
g54
(dp2596
g81
g82
ssg63
g2585
sg56
(lp2597
S':'
asbag49
(g70
g51
NtRp2598
(dp2599
g54
(dp2600
sg63
g2585
sg56
(lp2601
g49
(g50
g51
NtRp2602
(dp2603
g54
(dp2604
g62
I3
ssg63
g2598
sg56
(lp2605
S'1'
asbasbasbag49
(g65
g51
NtRp2606
(dp2607
g54
(dp2608
sg63
g2434
sg56
(lp2609
g49
(g70
g51
NtRp2610
(dp2611
g54
(dp2612
g74
g75
ssg63
g2606
sg56
(lp2613
S'HTTP_HOST'
p2614
asbag49
(g70
g51
NtRp2615
(dp2616
g54
(dp2617
g81
g82
ssg63
g2606
sg56
(lp2618
S':'
asbag49
(g70
g51
NtRp2619
(dp2620
g54
(dp2621
sg63
g2606
sg56
(lp2622
g49
(g50
g51
NtRp2623
(dp2624
g54
(dp2625
g62
I3
ssg63
g2619
sg56
(lp2626
g1121
asbasbasbag49
(g65
g51
NtRp2627
(dp2628
g54
(dp2629
sg63
g2434
sg56
(lp2630
g49
(g70
g51
NtRp2631
(dp2632
g54
(dp2633
g74
g75
ssg63
g2627
sg56
(lp2634
S'HTTP_REFERER'
p2635
asbag49
(g70
g51
NtRp2636
(dp2637
g54
(dp2638
g81
g82
ssg63
g2627
sg56
(lp2639
S':'
asbag49
(g70
g51
NtRp2640
(dp2641
g54
(dp2642
sg63
g2627
sg56
(lp2643
g49
(g50
g51
NtRp2644
(dp2645
g54
(dp2646
g62
I3
ssg63
g2640
sg56
(lp2647
g1143
asbasbasbag49
(g65
g51
NtRp2648
(dp2649
g54
(dp2650
sg63
g2434
sg56
(lp2651
g49
(g70
g51
NtRp2652
(dp2653
g54
(dp2654
g74
g75
ssg63
g2648
sg56
(lp2655
S'HTTP_USER_AGENT'
p2656
asbag49
(g70
g51
NtRp2657
(dp2658
g54
(dp2659
g81
g82
ssg63
g2648
sg56
(lp2660
S':'
asbag49
(g70
g51
NtRp2661
(dp2662
g54
(dp2663
sg63
g2648
sg56
(lp2664
g49
(g50
g51
NtRp2665
(dp2666
g54
(dp2667
g62
I3
ssg63
g2661
sg56
(lp2668
g1165
asbasbasbag49
(g65
g51
NtRp2669
(dp2670
g54
(dp2671
sg63
g2434
sg56
(lp2672
g49
(g70
g51
NtRp2673
(dp2674
g54
(dp2675
g74
g75
ssg63
g2669
sg56
(lp2676
S'PATH_INFO'
p2677
asbag49
(g70
g51
NtRp2678
(dp2679
g54
(dp2680
g81
g82
ssg63
g2669
sg56
(lp2681
S':'
asbag49
(g70
g51
NtRp2682
(dp2683
g54
(dp2684
sg63
g2669
sg56
(lp2685
g49
(g50
g51
NtRp2686
(dp2687
g54
(dp2688
g62
I3
ssg63
g2682
sg56
(lp2689
g1229
asbasbasbag49
(g65
g51
NtRp2690
(dp2691
g54
(dp2692
sg63
g2434
sg56
(lp2693
g49
(g70
g51
NtRp2694
(dp2695
g54
(dp2696
g74
g75
ssg63
g2690
sg56
(lp2697
S'QUERY_STRING'
p2698
asbag49
(g70
g51
NtRp2699
(dp2700
g54
(dp2701
g81
g82
ssg63
g2690
sg56
(lp2702
S':'
asbag49
(g70
g51
NtRp2703
(dp2704
g54
(dp2705
sg63
g2690
sg56
(lp2706
g49
(g50
g51
NtRp2707
(dp2708
g54
(dp2709
g62
I3
ssg63
g2703
sg56
(lp2710
S''
asbasbasbag49
(g65
g51
NtRp2711
(dp2712
g54
(dp2713
sg63
g2434
sg56
(lp2714
g49
(g70
g51
NtRp2715
(dp2716
g54
(dp2717
g74
g75
ssg63
g2711
sg56
(lp2718
S'REMOTE_ADDR'
p2719
asbag49
(g70
g51
NtRp2720
(dp2721
g54
(dp2722
g81
g82
ssg63
g2711
sg56
(lp2723
S':'
asbag49
(g70
g51
NtRp2724
(dp2725
g54
(dp2726
sg63
g2711
sg56
(lp2727
g49
(g50
g51
NtRp2728
(dp2729
g54
(dp2730
g62
I3
ssg63
g2724
sg56
(lp2731
g194
asbasbasbag49
(g65
g51
NtRp2732
(dp2733
g54
(dp2734
sg63
g2434
sg56
(lp2735
g49
(g70
g51
NtRp2736
(dp2737
g54
(dp2738
g74
g75
ssg63
g2732
sg56
(lp2739
S'REMOTE_PORT'
p2740
asbag49
(g70
g51
NtRp2741
(dp2742
g54
(dp2743
g81
g82
ssg63
g2732
sg56
(lp2744
S':'
asbag49
(g70
g51
NtRp2745
(dp2746
g54
(dp2747
sg63
g2732
sg56
(lp2748
g49
(g50
g51
NtRp2749
(dp2750
g54
(dp2751
g62
I3
ssg63
g2745
sg56
(lp2752
g1293
asbasbasbag49
(g65
g51
NtRp2753
(dp2754
g54
(dp2755
sg63
g2434
sg56
(lp2756
g49
(g70
g51
NtRp2757
(dp2758
g54
(dp2759
g74
g75
ssg63
g2753
sg56
(lp2760
S'REQUEST_METHOD'
p2761
asbag49
(g70
g51
NtRp2762
(dp2763
g54
(dp2764
g81
g82
ssg63
g2753
sg56
(lp2765
S':'
asbag49
(g70
g51
NtRp2766
(dp2767
g54
(dp2768
sg63
g2753
sg56
(lp2769
g49
(g50
g51
NtRp2770
(dp2771
g54
(dp2772
g62
I3
ssg63
g2766
sg56
(lp2773
g1315
asbasbasbag49
(g65
g51
NtRp2774
(dp2775
g54
(dp2776
sg63
g2434
sg56
(lp2777
g49
(g70
g51
NtRp2778
(dp2779
g54
(dp2780
g74
g75
ssg63
g2774
sg56
(lp2781
S'SCRIPT_NAME'
p2782
asbag49
(g70
g51
NtRp2783
(dp2784
g54
(dp2785
g81
g82
ssg63
g2774
sg56
(lp2786
S':'
asbag49
(g70
g51
NtRp2787
(dp2788
g54
(dp2789
sg63
g2774
sg56
(lp2790
g49
(g50
g51
NtRp2791
(dp2792
g54
(dp2793
g62
I3
ssg63
g2787
sg56
(lp2794
S''
asbasbasbag49
(g65
g51
NtRp2795
(dp2796
g54
(dp2797
sg63
g2434
sg56
(lp2798
g49
(g70
g51
NtRp2799
(dp2800
g54
(dp2801
g74
g75
ssg63
g2795
sg56
(lp2802
S'SERVER_NAME'
p2803
asbag49
(g70
g51
NtRp2804
(dp2805
g54
(dp2806
g81
g82
ssg63
g2795
sg56
(lp2807
S':'
asbag49
(g70
g51
NtRp2808
(dp2809
g54
(dp2810
sg63
g2795
sg56
(lp2811
g49
(g50
g51
NtRp2812
(dp2813
g54
(dp2814
g62
I3
ssg63
g2808
sg56
(lp2815
g1358
asbasbasbag49
(g65
g51
NtRp2816
(dp2817
g54
(dp2818
sg63
g2434
sg56
(lp2819
g49
(g70
g51
NtRp2820
(dp2821
g54
(dp2822
g74
g75
ssg63
g2816
sg56
(lp2823
S'SERVER_PORT'
p2824
asbag49
(g70
g51
NtRp2825
(dp2826
g54
(dp2827
g81
g82
ssg63
g2816
sg56
(lp2828
S':'
asbag49
(g70
g51
NtRp2829
(dp2830
g54
(dp2831
sg63
g2816
sg56
(lp2832
g49
(g50
g51
NtRp2833
(dp2834
g54
(dp2835
g62
I3
ssg63
g2829
sg56
(lp2836
g1380
asbasbasbag49
(g65
g51
NtRp2837
(dp2838
g54
(dp2839
sg63
g2434
sg56
(lp2840
g49
(g70
g51
NtRp2841
(dp2842
g54
(dp2843
g74
g75
ssg63
g2837
sg56
(lp2844
S'SERVER_PROTOCOL'
p2845
asbag49
(g70
g51
NtRp2846
(dp2847
g54
(dp2848
g81
g82
ssg63
g2837
sg56
(lp2849
S':'
asbag49
(g70
g51
NtRp2850
(dp2851
g54
(dp2852
sg63
g2837
sg56
(lp2853
g49
(g50
g51
NtRp2854
(dp2855
g54
(dp2856
g62
I3
ssg63
g2850
sg56
(lp2857
g1402
asbasbasbag49
(g65
g51
NtRp2858
(dp2859
g54
(dp2860
sg63
g2434
sg56
(lp2861
g49
(g70
g51
NtRp2862
(dp2863
g54
(dp2864
g74
g75
ssg63
g2858
sg56
(lp2865
S'SERVER_SOFTWARE'
p2866
asbag49
(g70
g51
NtRp2867
(dp2868
g54
(dp2869
g81
g82
ssg63
g2858
sg56
(lp2870
S':'
asbag49
(g70
g51
NtRp2871
(dp2872
g54
(dp2873
sg63
g2858
sg56
(lp2874
g49
(g50
g51
NtRp2875
(dp2876
g54
(dp2877
g62
I3
ssg63
g2871
sg56
(lp2878
g1424
asbasbasbag49
(g65
g51
NtRp2879
(dp2880
g54
(dp2881
sg63
g2434
sg56
(lp2882
g49
(g70
g51
NtRp2883
(dp2884
g54
(dp2885
g74
g75
ssg63
g2879
sg56
(lp2886
S'wsgi.errors'
p2887
asbag49
(g70
g51
NtRp2888
(dp2889
g54
(dp2890
g81
g82
ssg63
g2879
sg56
(lp2891
S':'
asbag49
(g70
g51
NtRp2892
(dp2893
g54
(dp2894
sg63
g2879
sg56
(lp2895
g49
(g50
g51
NtRp2896
(dp2897
g54
(dp2898
g62
I3
ssg63
g2892
sg56
(lp2899
S'<__main__.Stderr object at 0x00356670>'
p2900
asbasbasbag49
(g65
g51
NtRp2901
(dp2902
g54
(dp2903
sg63
g2434
sg56
(lp2904
g49
(g70
g51
NtRp2905
(dp2906
g54
(dp2907
g74
g75
ssg63
g2901
sg56
(lp2908
S'wsgi.file_wrapper'
p2909
asbag49
(g70
g51
NtRp2910
(dp2911
g54
(dp2912
g81
g82
ssg63
g2901
sg56
(lp2913
S':'
asbag49
(g70
g51
NtRp2914
(dp2915
g54
(dp2916
sg63
g2901
sg56
(lp2917
g49
(g50
g51
NtRp2918
(dp2919
g54
(dp2920
g62
I3
ssg63
g2914
sg56
(lp2921
S'<class wsgiref.util.FileWrapper at 0x02FCDE10>'
p2922
asbasbasbag49
(g65
g51
NtRp2923
(dp2924
g54
(dp2925
sg63
g2434
sg56
(lp2926
g49
(g70
g51
NtRp2927
(dp2928
g54
(dp2929
g74
g75
ssg63
g2923
sg56
(lp2930
S'wsgi.input'
p2931
asbag49
(g70
g51
NtRp2932
(dp2933
g54
(dp2934
g81
g82
ssg63
g2923
sg56
(lp2935
S':'
asbag49
(g70
g51
NtRp2936
(dp2937
g54
(dp2938
sg63
g2923
sg56
(lp2939
g49
(g50
g51
NtRp2940
(dp2941
g54
(dp2942
g62
I3
ssg63
g2936
sg56
(lp2943
S'<cStringIO.StringO object at 0x06978A80>'
p2944
asbasbasbag49
(g65
g51
NtRp2945
(dp2946
g54
(dp2947
sg63
g2434
sg56
(lp2948
g49
(g70
g51
NtRp2949
(dp2950
g54
(dp2951
g74
g75
ssg63
g2945
sg56
(lp2952
S'wsgi.multiprocess'
p2953
asbag49
(g70
g51
NtRp2954
(dp2955
g54
(dp2956
g81
g82
ssg63
g2945
sg56
(lp2957
S':'
asbag49
(g70
g51
NtRp2958
(dp2959
g54
(dp2960
sg63
g2945
sg56
(lp2961
g49
(g50
g51
NtRp2962
(dp2963
g54
(dp2964
g62
I3
ssg63
g2958
sg56
(lp2965
g92
asbasbasbag49
(g65
g51
NtRp2966
(dp2967
g54
(dp2968
sg63
g2434
sg56
(lp2969
g49
(g70
g51
NtRp2970
(dp2971
g54
(dp2972
g74
g75
ssg63
g2966
sg56
(lp2973
S'wsgi.multithread'
p2974
asbag49
(g70
g51
NtRp2975
(dp2976
g54
(dp2977
g81
g82
ssg63
g2966
sg56
(lp2978
S':'
asbag49
(g70
g51
NtRp2979
(dp2980
g54
(dp2981
sg63
g2966
sg56
(lp2982
g49
(g50
g51
NtRp2983
(dp2984
g54
(dp2985
g62
I3
ssg63
g2979
sg56
(lp2986
g1664
asbasbasbag49
(g65
g51
NtRp2987
(dp2988
g54
(dp2989
sg63
g2434
sg56
(lp2990
g49
(g70
g51
NtRp2991
(dp2992
g54
(dp2993
g74
g75
ssg63
g2987
sg56
(lp2994
S'wsgi.run_once'
p2995
asbag49
(g70
g51
NtRp2996
(dp2997
g54
(dp2998
g81
g82
ssg63
g2987
sg56
(lp2999
S':'
asbag49
(g70
g51
NtRp3000
(dp3001
g54
(dp3002
sg63
g2987
sg56
(lp3003
g49
(g50
g51
NtRp3004
(dp3005
g54
(dp3006
g62
I3
ssg63
g3000
sg56
(lp3007
g92
asbasbasbag49
(g65
g51
NtRp3008
(dp3009
g54
(dp3010
sg63
g2434
sg56
(lp3011
g49
(g70
g51
NtRp3012
(dp3013
g54
(dp3014
g74
g75
ssg63
g3008
sg56
(lp3015
S'wsgi.url_scheme'
p3016
asbag49
(g70
g51
NtRp3017
(dp3018
g54
(dp3019
g81
g82
ssg63
g3008
sg56
(lp3020
S':'
asbag49
(g70
g51
NtRp3021
(dp3022
g54
(dp3023
sg63
g3008
sg56
(lp3024
g49
(g50
g51
NtRp3025
(dp3026
g54
(dp3027
g62
I3
ssg63
g3021
sg56
(lp3028
g1707
asbasbasbag49
(g65
g51
NtRp3029
(dp3030
g54
(dp3031
sg63
g2434
sg56
(lp3032
g49
(g70
g51
NtRp3033
(dp3034
g54
(dp3035
g74
g75
ssg63
g3029
sg56
(lp3036
S'wsgi.version'
p3037
asbag49
(g70
g51
NtRp3038
(dp3039
g54
(dp3040
g81
g82
ssg63
g3029
sg56
(lp3041
S':'
asbag49
(g70
g51
NtRp3042
(dp3043
g54
(dp3044
sg63
g3029
sg56
(lp3045
g49
(g50
g51
NtRp3046
(dp3047
g54
(dp3048
g62
I3
ssg63
g3042
sg56
(lp3049
S'1'
asbasbasbasbasbasbasbasbasbasbasbasbasbsS'frames'
p3050
(lp3051
(dp3052
S'file'
p3053
S'C:\\web2py\\gluon\\restricted.py'
p3054
sS'dump'
p3055
(dp3056
sS'lnum'
p3057
I205
sS'lines'
p3058
(dp3059
sS'call'
p3060
S'(code="response.write(\' \', escape=False)\\nresponse.write...ponse.write(\'\\\\n</body>\\\\n</html>\\\\n\', escape=False)", environment={\'A\': <class \'gluon.html.A\'>, \'Auth\': <class \'gluon.tools.Auth\'>, \'B\': <class \'gluon.html.B\'>, \'BEAUTIFY\': <class \'gluon.html.BEAUTIFY\'>, \'BODY\': <class \'gluon.html.BODY\'>, \'BR\': <class \'gluon.html.BR\'>, \'BUTTON\': <class \'gluon.html.BUTTON\'>, \'CAT\': <class \'gluon.html.CAT\'>, \'CENTER\': <class \'gluon.html.CENTER\'>, \'CLEANUP\': <class \'gluon.validators.CLEANUP\'>, ...}, layer=r\'C:\\web2py\\applications\\unioeste_code\\views\\default/Problem.html\')'
p3061
sS'func'
p3062
S'restricted'
p3063
sa(dp3064
g3053
S'C:\\web2py\\applications\\unioeste_code\\views\\default\\Problem.html'
p3065
sg3055
(dp3066
sg3057
I81
sg3058
(dp3067
I72
S'    response.write(\'\\n        <div class="four columns left-sidebar">\\n          \', escape=False)'
p3068
sI73
S"    response.write('\\n          <h3>Left Sidebar</h3>\\n          <p></p>\\n          ', escape=False)"
p3069
sI74
S"    response.write('\\n        </div>\\n        ', escape=False)"
p3070
sI75
S'    pass'
p3071
sI76
S'response.write(\'\\n        \\n        <div class="\', escape=False)'
p3072
sI77
S'response.write(middle_columns)'
p3073
sI78
S'response.write(\' columns center">\\n          \', escape=False)'
p3074
sI79
S"response.write('\\n          ', escape=False)"
p3075
sI80
S'response.write(\'\\r\\n\\r\\n\\r\\n <head>\\r\\n <script src="../../static/lib/codemirror.js"></script>\\r\\n <link rel="stylesheet" href="../../static/lib/codemirror.css">\\r\\n <script src="../../static/mode/clike.js"></script>\\r\\n <style>.CodeMirror {border: 3px solid #cccccc;}</style>\\r\\n\\r\\n\\r\\n    <style type="text/css">\\r\\n      .CodeMirror-fullscreen {\\r\\n        display: block;\\r\\n        position: absolute;\\r\\n        top: 0; left: 0;\\r\\n        width: 100%;\\r\\n        z-index: 9999;\\r\\n      }\\r\\n    </style>\\r\\n\\r\\n</head>\\r\\n\\r\\n\\r\\n\', escape=False)'
p3076
sI81
S'from uc_utils import shortify'
p3077
sI82
S"response.write('\\r\\n\\r\\n', escape=False)"
p3078
sI83
S'response.write(H1(problem.title))'
p3079
sI84
S'response.write(\'\\r\\n\\r\\n<div class="statusbar">\\r\\n\', escape=False)'
p3080
sI85
S'response.write(problem.body)'
p3081
sI86
S"response.write('\\t\\r\\n</div>\\r\\n\\r\\n', escape=False)"
p3082
sI87
S'response.write(H2("C\xc3\xb3digos postados", _style="color:green"))'
p3083
sI88
S"response.write('\\r\\n<ul>\\r\\n', escape=False)"
p3084
sI89
S'for code in codes:'
p3085
sI90
S"    response.write('\\r\\n', escape=False)"
p3086
sI91
S'    user = db(db.auth_user.id==code.created_by).select().first()'
p3087
ssg3060
S'()'
p3088
sg3062
S'<module>'
p3089
sa(dp3090
g3053
S'C:\\web2py\\gluon\\custom_import.py'
p3091
sg3055
(dp3092
sg3057
I293
sg3058
(dp3093
sg3060
S"(self=<gluon.custom_import._Web2pyImporter object at 0x030613B0>, name='uc_utils', globals={'A': <class 'gluon.html.A'>, 'Auth': <class 'gluon.tools.Auth'>, 'B': <class 'gluon.html.B'>, 'BEAUTIFY': <class 'gluon.html.BEAUTIFY'>, 'BODY': <class 'gluon.html.BODY'>, 'BR': <class 'gluon.html.BR'>, 'BUTTON': <class 'gluon.html.BUTTON'>, 'CAT': <class 'gluon.html.CAT'>, 'CENTER': <class 'gluon.html.CENTER'>, 'CLEANUP': <class 'gluon.validators.CLEANUP'>, ...}, locals={'A': <class 'gluon.html.A'>, 'Auth': <class 'gluon.tools.Auth'>, 'B': <class 'gluon.html.B'>, 'BEAUTIFY': <class 'gluon.html.BEAUTIFY'>, 'BODY': <class 'gluon.html.BODY'>, 'BR': <class 'gluon.html.BR'>, 'BUTTON': <class 'gluon.html.BUTTON'>, 'CAT': <class 'gluon.html.CAT'>, 'CENTER': <class 'gluon.html.CENTER'>, 'CLEANUP': <class 'gluon.validators.CLEANUP'>, ...}, fromlist=('shortify',), level=-1)"
p3094
sg3062
S'__call__'
p3095
sa(dp3096
g3053
S'C:\\web2py\\gluon\\custom_import.py'
p3097
sg3055
(dp3098
sg3057
I78
sg3058
(dp3099
sg3060
S"(self=<gluon.custom_import._Web2pyImporter object at 0x030613B0>, name='uc_utils', globals={'A': <class 'gluon.html.A'>, 'Auth': <class 'gluon.tools.Auth'>, 'B': <class 'gluon.html.B'>, 'BEAUTIFY': <class 'gluon.html.BEAUTIFY'>, 'BODY': <class 'gluon.html.BODY'>, 'BR': <class 'gluon.html.BR'>, 'BUTTON': <class 'gluon.html.BUTTON'>, 'CAT': <class 'gluon.html.CAT'>, 'CENTER': <class 'gluon.html.CENTER'>, 'CLEANUP': <class 'gluon.validators.CLEANUP'>, ...}, locals={'A': <class 'gluon.html.A'>, 'Auth': <class 'gluon.tools.Auth'>, 'B': <class 'gluon.html.B'>, 'BEAUTIFY': <class 'gluon.html.BEAUTIFY'>, 'BODY': <class 'gluon.html.BODY'>, 'BR': <class 'gluon.html.BR'>, 'BUTTON': <class 'gluon.html.BUTTON'>, 'CAT': <class 'gluon.html.CAT'>, 'CENTER': <class 'gluon.html.CENTER'>, 'CLEANUP': <class 'gluon.validators.CLEANUP'>, ...}, fromlist=('shortify',), level=-1)"
p3100
sg3062
g3095
sasS'pyver'
p3101
S'Python 2.5.4: C:\\web2py\\web2py_no_console.exe'
p3102
sS'session'
p3103
g49
(g50
g51
NtRp3104
(dp3105
g54
(dp3106
sg56
(lp3107
g49
(g58
g51
NtRp3108
(dp3109
g54
(dp3110
g62
I5
ssg63
Nsg56
(lp3111
g49
(g65
g51
NtRp3112
(dp3113
g54
(dp3114
sg63
g3108
sg56
(lp3115
g49
(g70
g51
NtRp3116
(dp3117
g54
(dp3118
g74
g75
ssg63
g3112
sg56
(lp3119
S'auth'
p3120
asbag49
(g70
g51
NtRp3121
(dp3122
g54
(dp3123
g81
g82
ssg63
g3112
sg56
(lp3124
S':'
asbag49
(g70
g51
NtRp3125
(dp3126
g54
(dp3127
sg63
g3112
sg56
(lp3128
g49
(g50
g51
NtRp3129
(dp3130
g54
(dp3131
g62
I5
ssg63
g3125
sg56
(lp3132
g49
(g58
g51
NtRp3133
(dp3134
g54
(dp3135
g62
I4
ssg63
Nsg56
(lp3136
g49
(g65
g51
NtRp3137
(dp3138
g54
(dp3139
sg63
g3133
sg56
(lp3140
g49
(g70
g51
NtRp3141
(dp3142
g54
(dp3143
g74
g75
ssg63
g3137
sg56
(lp3144
S'expiration'
p3145
asbag49
(g70
g51
NtRp3146
(dp3147
g54
(dp3148
g81
g82
ssg63
g3137
sg56
(lp3149
S':'
asbag49
(g70
g51
NtRp3150
(dp3151
g54
(dp3152
sg63
g3137
sg56
(lp3153
g49
(g50
g51
NtRp3154
(dp3155
g54
(dp3156
g62
I4
ssg63
g3150
sg56
(lp3157
S'3600'
p3158
asbasbasbag49
(g65
g51
NtRp3159
(dp3160
g54
(dp3161
sg63
g3133
sg56
(lp3162
g49
(g70
g51
NtRp3163
(dp3164
g54
(dp3165
g74
g75
ssg63
g3159
sg56
(lp3166
S'hmac_key'
p3167
asbag49
(g70
g51
NtRp3168
(dp3169
g54
(dp3170
g81
g82
ssg63
g3159
sg56
(lp3171
S':'
asbag49
(g70
g51
NtRp3172
(dp3173
g54
(dp3174
sg63
g3159
sg56
(lp3175
g49
(g50
g51
NtRp3176
(dp3177
g54
(dp3178
g62
I4
ssg63
g3172
sg56
(lp3179
S'd3711cd0-e119-4ae5-b1d4-fe4a9f7263a8'
p3180
asbasbasbag49
(g65
g51
NtRp3181
(dp3182
g54
(dp3183
sg63
g3133
sg56
(lp3184
g49
(g70
g51
NtRp3185
(dp3186
g54
(dp3187
g74
g75
ssg63
g3181
sg56
(lp3188
S'last_visit'
p3189
asbag49
(g70
g51
NtRp3190
(dp3191
g54
(dp3192
g81
g82
ssg63
g3181
sg56
(lp3193
S':'
asbag49
(g70
g51
NtRp3194
(dp3195
g54
(dp3196
sg63
g3181
sg56
(lp3197
g49
(g50
g51
NtRp3198
(dp3199
g54
(dp3200
g62
I4
ssg63
g3194
sg56
(lp3201
S'datetime.datetime(2012, 7, 30, 21, 6, 8, 910000)'
p3202
asbasbasbag49
(g65
g51
NtRp3203
(dp3204
g54
(dp3205
sg63
g3133
sg56
(lp3206
g49
(g70
g51
NtRp3207
(dp3208
g54
(dp3209
g74
g75
ssg63
g3203
sg56
(lp3210
S'remember'
p3211
asbag49
(g70
g51
NtRp3212
(dp3213
g54
(dp3214
g81
g82
ssg63
g3203
sg56
(lp3215
S':'
asbag49
(g70
g51
NtRp3216
(dp3217
g54
(dp3218
sg63
g3203
sg56
(lp3219
g49
(g50
g51
NtRp3220
(dp3221
g54
(dp3222
g62
I4
ssg63
g3216
sg56
(lp3223
g92
asbasbasbag49
(g65
g51
NtRp3224
(dp3225
g54
(dp3226
sg63
g3133
sg56
(lp3227
g49
(g70
g51
NtRp3228
(dp3229
g54
(dp3230
g74
g75
ssg63
g3224
sg56
(lp3231
S'user'
p3232
asbag49
(g70
g51
NtRp3233
(dp3234
g54
(dp3235
g81
g82
ssg63
g3224
sg56
(lp3236
S':'
asbag49
(g70
g51
NtRp3237
(dp3238
g54
(dp3239
sg63
g3224
sg56
(lp3240
g49
(g50
g51
NtRp3241
(dp3242
g54
(dp3243
g62
I4
ssg63
g3237
sg56
(lp3244
g49
(g58
g51
NtRp3245
(dp3246
g54
(dp3247
g62
I3
ssg63
Nsg56
(lp3248
g49
(g65
g51
NtRp3249
(dp3250
g54
(dp3251
sg63
g3245
sg56
(lp3252
g49
(g70
g51
NtRp3253
(dp3254
g54
(dp3255
g74
g75
ssg63
g3249
sg56
(lp3256
S'email'
p3257
asbag49
(g70
g51
NtRp3258
(dp3259
g54
(dp3260
g81
g82
ssg63
g3249
sg56
(lp3261
S':'
asbag49
(g70
g51
NtRp3262
(dp3263
g54
(dp3264
sg63
g3249
sg56
(lp3265
g49
(g50
g51
NtRp3266
(dp3267
g54
(dp3268
g62
I3
ssg63
g3262
sg56
(lp3269
S'scmirror1@gmail.com'
p3270
asbasbasbag49
(g65
g51
NtRp3271
(dp3272
g54
(dp3273
sg63
g3245
sg56
(lp3274
g49
(g70
g51
NtRp3275
(dp3276
g54
(dp3277
g74
g75
ssg63
g3271
sg56
(lp3278
S'first_name'
p3279
asbag49
(g70
g51
NtRp3280
(dp3281
g54
(dp3282
g81
g82
ssg63
g3271
sg56
(lp3283
S':'
asbag49
(g70
g51
NtRp3284
(dp3285
g54
(dp3286
sg63
g3271
sg56
(lp3287
g49
(g50
g51
NtRp3288
(dp3289
g54
(dp3290
g62
I3
ssg63
g3284
sg56
(lp3291
S'Pedro'
p3292
asbasbasbag49
(g65
g51
NtRp3293
(dp3294
g54
(dp3295
sg63
g3245
sg56
(lp3296
g49
(g70
g51
NtRp3297
(dp3298
g54
(dp3299
g74
g75
ssg63
g3293
sg56
(lp3300
S'id'
p3301
asbag49
(g70
g51
NtRp3302
(dp3303
g54
(dp3304
g81
g82
ssg63
g3293
sg56
(lp3305
S':'
asbag49
(g70
g51
NtRp3306
(dp3307
g54
(dp3308
sg63
g3293
sg56
(lp3309
g49
(g50
g51
NtRp3310
(dp3311
g54
(dp3312
g62
I3
ssg63
g3306
sg56
(lp3313
S'1'
asbasbasbag49
(g65
g51
NtRp3314
(dp3315
g54
(dp3316
sg63
g3245
sg56
(lp3317
g49
(g70
g51
NtRp3318
(dp3319
g54
(dp3320
g74
g75
ssg63
g3314
sg56
(lp3321
S'last_name'
p3322
asbag49
(g70
g51
NtRp3323
(dp3324
g54
(dp3325
g81
g82
ssg63
g3314
sg56
(lp3326
S':'
asbag49
(g70
g51
NtRp3327
(dp3328
g54
(dp3329
sg63
g3314
sg56
(lp3330
g49
(g50
g51
NtRp3331
(dp3332
g54
(dp3333
g62
I3
ssg63
g3327
sg56
(lp3334
S'Lacerda'
p3335
asbasbasbag49
(g65
g51
NtRp3336
(dp3337
g54
(dp3338
sg63
g3245
sg56
(lp3339
g49
(g70
g51
NtRp3340
(dp3341
g54
(dp3342
g74
g75
ssg63
g3336
sg56
(lp3343
S'password'
p3344
asbag49
(g70
g51
NtRp3345
(dp3346
g54
(dp3347
g81
g82
ssg63
g3336
sg56
(lp3348
S':'
asbag49
(g70
g51
NtRp3349
(dp3350
g54
(dp3351
sg63
g3336
sg56
(lp3352
g49
(g50
g51
NtRp3353
(dp3354
g54
(dp3355
g62
I3
ssg63
g3349
sg56
(lp3356
S'4297f44b13955235245b2497399d7a93'
p3357
asbasbasbag49
(g65
g51
NtRp3358
(dp3359
g54
(dp3360
sg63
g3245
sg56
(lp3361
g49
(g70
g51
NtRp3362
(dp3363
g54
(dp3364
g74
g75
ssg63
g3358
sg56
(lp3365
S'registration_id'
p3366
asbag49
(g70
g51
NtRp3367
(dp3368
g54
(dp3369
g81
g82
ssg63
g3358
sg56
(lp3370
S':'
asbag49
(g70
g51
NtRp3371
(dp3372
g54
(dp3373
sg63
g3358
sg56
(lp3374
g49
(g50
g51
NtRp3375
(dp3376
g54
(dp3377
g62
I3
ssg63
g3371
sg56
(lp3378
S''
asbasbasbag49
(g65
g51
NtRp3379
(dp3380
g54
(dp3381
sg63
g3245
sg56
(lp3382
g49
(g70
g51
NtRp3383
(dp3384
g54
(dp3385
g74
g75
ssg63
g3379
sg56
(lp3386
S'registration_key'
p3387
asbag49
(g70
g51
NtRp3388
(dp3389
g54
(dp3390
g81
g82
ssg63
g3379
sg56
(lp3391
S':'
asbag49
(g70
g51
NtRp3392
(dp3393
g54
(dp3394
sg63
g3379
sg56
(lp3395
g49
(g50
g51
NtRp3396
(dp3397
g54
(dp3398
g62
I3
ssg63
g3392
sg56
(lp3399
S''
asbasbasbag49
(g65
g51
NtRp3400
(dp3401
g54
(dp3402
sg63
g3245
sg56
(lp3403
g49
(g70
g51
NtRp3404
(dp3405
g54
(dp3406
g74
g75
ssg63
g3400
sg56
(lp3407
S'reset_password_key'
p3408
asbag49
(g70
g51
NtRp3409
(dp3410
g54
(dp3411
g81
g82
ssg63
g3400
sg56
(lp3412
S':'
asbag49
(g70
g51
NtRp3413
(dp3414
g54
(dp3415
sg63
g3400
sg56
(lp3416
g49
(g50
g51
NtRp3417
(dp3418
g54
(dp3419
g62
I3
ssg63
g3413
sg56
(lp3420
S''
asbasbasbasbasbasbasbag49
(g65
g51
NtRp3421
(dp3422
g54
(dp3423
sg63
g3133
sg56
(lp3424
g49
(g70
g51
NtRp3425
(dp3426
g54
(dp3427
g74
g75
ssg63
g3421
sg56
(lp3428
S'user_groups'
p3429
asbag49
(g70
g51
NtRp3430
(dp3431
g54
(dp3432
g81
g82
ssg63
g3421
sg56
(lp3433
S':'
asbag49
(g70
g51
NtRp3434
(dp3435
g54
(dp3436
sg63
g3421
sg56
(lp3437
g49
(g50
g51
NtRp3438
(dp3439
g54
(dp3440
g62
I4
ssg63
g3434
sg56
(lp3441
g49
(g58
g51
NtRp3442
(dp3443
g54
(dp3444
g62
I3
ssg63
Nsg56
(lp3445
g49
(g65
g51
NtRp3446
(dp3447
g54
(dp3448
sg63
g3442
sg56
(lp3449
g49
(g70
g51
NtRp3450
(dp3451
g54
(dp3452
g74
g75
ssg63
g3446
sg56
(lp3453
S'1'
asbag49
(g70
g51
NtRp3454
(dp3455
g54
(dp3456
g81
g82
ssg63
g3446
sg56
(lp3457
S':'
asbag49
(g70
g51
NtRp3458
(dp3459
g54
(dp3460
sg63
g3446
sg56
(lp3461
g49
(g50
g51
NtRp3462
(dp3463
g54
(dp3464
g62
I3
ssg63
g3458
sg56
(lp3465
S'user_1'
p3466
asbasbasbag49
(g65
g51
NtRp3467
(dp3468
g54
(dp3469
sg63
g3442
sg56
(lp3470
g49
(g70
g51
NtRp3471
(dp3472
g54
(dp3473
g74
g75
ssg63
g3467
sg56
(lp3474
S'2'
asbag49
(g70
g51
NtRp3475
(dp3476
g54
(dp3477
g81
g82
ssg63
g3467
sg56
(lp3478
S':'
asbag49
(g70
g51
NtRp3479
(dp3480
g54
(dp3481
sg63
g3467
sg56
(lp3482
g49
(g50
g51
NtRp3483
(dp3484
g54
(dp3485
g62
I3
ssg63
g3479
sg56
(lp3486
S'manager'
p3487
asbasbasbasbasbasbasbasbasbasbasbasbasbsS'etype'
p3488
S"<type 'exceptions.ImportError'>"
p3489
sS'date'
p3490
S'Mon Jul 30 21:06:09 2012'
p3491
sS'response'
p3492
g49
(g50
g51
NtRp3493
(dp3494
g54
(dp3495
sg56
(lp3496
g49
(g58
g51
NtRp3497
(dp3498
g54
(dp3499
g62
I5
ssg63
Nsg56
(lp3500
g49
(g65
g51
NtRp3501
(dp3502
g54
(dp3503
sg63
g3497
sg56
(lp3504
g49
(g70
g51
NtRp3505
(dp3506
g54
(dp3507
g74
g75
ssg63
g3501
sg56
(lp3508
g159
asbag49
(g70
g51
NtRp3509
(dp3510
g54
(dp3511
g81
g82
ssg63
g3501
sg56
(lp3512
S':'
asbag49
(g70
g51
NtRp3513
(dp3514
g54
(dp3515
sg63
g3501
sg56
(lp3516
g49
(g50
g51
NtRp3517
(dp3518
g54
(dp3519
g62
I5
ssg63
g3513
sg56
(lp3520
S'<cStringIO.StringO object at 0x06B48960>'
p3521
asbasbasbag49
(g65
g51
NtRp3522
(dp3523
g54
(dp3524
sg63
g3497
sg56
(lp3525
g49
(g70
g51
NtRp3526
(dp3527
g54
(dp3528
g74
g75
ssg63
g3522
sg56
(lp3529
g225
asbag49
(g70
g51
NtRp3530
(dp3531
g54
(dp3532
g81
g82
ssg63
g3522
sg56
(lp3533
S':'
asbag49
(g70
g51
NtRp3534
(dp3535
g54
(dp3536
sg63
g3522
sg56
(lp3537
g49
(g50
g51
NtRp3538
(dp3539
g54
(dp3540
g62
I5
ssg63
g3534
sg56
(lp3541
g49
(g58
g51
NtRp3542
(dp3543
g54
(dp3544
g62
I4
ssg63
Nsg56
(lp3545
g49
(g65
g51
NtRp3546
(dp3547
g54
(dp3548
sg63
g3542
sg56
(lp3549
g49
(g70
g51
NtRp3550
(dp3551
g54
(dp3552
g74
g75
ssg63
g3546
sg56
(lp3553
S'session_id_unioeste_code'
p3554
asbag49
(g70
g51
NtRp3555
(dp3556
g54
(dp3557
g81
g82
ssg63
g3546
sg56
(lp3558
S':'
asbag49
(g70
g51
NtRp3559
(dp3560
g54
(dp3561
sg63
g3546
sg56
(lp3562
g49
(g50
g51
NtRp3563
(dp3564
g54
(dp3565
g62
I4
ssg63
g3559
sg56
(lp3566
g49
(g58
g51
NtRp3567
(dp3568
g54
(dp3569
g62
I3
ssg63
Nsg56
(lp3570
g49
(g65
g51
NtRp3571
(dp3572
g54
(dp3573
sg63
g3567
sg56
(lp3574
g49
(g70
g51
NtRp3575
(dp3576
g54
(dp3577
g74
g75
ssg63
g3571
sg56
(lp3578
g275
asbag49
(g70
g51
NtRp3579
(dp3580
g54
(dp3581
g81
g82
ssg63
g3571
sg56
(lp3582
S':'
asbag49
(g70
g51
NtRp3583
(dp3584
g54
(dp3585
sg63
g3571
sg56
(lp3586
g49
(g50
g51
NtRp3587
(dp3588
g54
(dp3589
g62
I3
ssg63
g3583
sg56
(lp3590
S''
asbasbasbag49
(g65
g51
NtRp3591
(dp3592
g54
(dp3593
sg63
g3567
sg56
(lp3594
g49
(g70
g51
NtRp3595
(dp3596
g54
(dp3597
g74
g75
ssg63
g3591
sg56
(lp3598
g296
asbag49
(g70
g51
NtRp3599
(dp3600
g54
(dp3601
g81
g82
ssg63
g3591
sg56
(lp3602
S':'
asbag49
(g70
g51
NtRp3603
(dp3604
g54
(dp3605
sg63
g3591
sg56
(lp3606
g49
(g50
g51
NtRp3607
(dp3608
g54
(dp3609
g62
I3
ssg63
g3603
sg56
(lp3610
S''
asbasbasbag49
(g65
g51
NtRp3611
(dp3612
g54
(dp3613
sg63
g3567
sg56
(lp3614
g49
(g70
g51
NtRp3615
(dp3616
g54
(dp3617
g74
g75
ssg63
g3611
sg56
(lp3618
g317
asbag49
(g70
g51
NtRp3619
(dp3620
g54
(dp3621
g81
g82
ssg63
g3611
sg56
(lp3622
S':'
asbag49
(g70
g51
NtRp3623
(dp3624
g54
(dp3625
sg63
g3611
sg56
(lp3626
g49
(g50
g51
NtRp3627
(dp3628
g54
(dp3629
g62
I3
ssg63
g3623
sg56
(lp3630
S''
asbasbasbag49
(g65
g51
NtRp3631
(dp3632
g54
(dp3633
sg63
g3567
sg56
(lp3634
g49
(g70
g51
NtRp3635
(dp3636
g54
(dp3637
g74
g75
ssg63
g3631
sg56
(lp3638
g338
asbag49
(g70
g51
NtRp3639
(dp3640
g54
(dp3641
g81
g82
ssg63
g3631
sg56
(lp3642
S':'
asbag49
(g70
g51
NtRp3643
(dp3644
g54
(dp3645
sg63
g3631
sg56
(lp3646
g49
(g50
g51
NtRp3647
(dp3648
g54
(dp3649
g62
I3
ssg63
g3643
sg56
(lp3650
S''
asbasbasbag49
(g65
g51
NtRp3651
(dp3652
g54
(dp3653
sg63
g3567
sg56
(lp3654
g49
(g70
g51
NtRp3655
(dp3656
g54
(dp3657
g74
g75
ssg63
g3651
sg56
(lp3658
g359
asbag49
(g70
g51
NtRp3659
(dp3660
g54
(dp3661
g81
g82
ssg63
g3651
sg56
(lp3662
S':'
asbag49
(g70
g51
NtRp3663
(dp3664
g54
(dp3665
sg63
g3651
sg56
(lp3666
g49
(g50
g51
NtRp3667
(dp3668
g54
(dp3669
g62
I3
ssg63
g3663
sg56
(lp3670
S'/'
asbasbasbag49
(g65
g51
NtRp3671
(dp3672
g54
(dp3673
sg63
g3567
sg56
(lp3674
g49
(g70
g51
NtRp3675
(dp3676
g54
(dp3677
g74
g75
ssg63
g3671
sg56
(lp3678
g380
asbag49
(g70
g51
NtRp3679
(dp3680
g54
(dp3681
g81
g82
ssg63
g3671
sg56
(lp3682
S':'
asbag49
(g70
g51
NtRp3683
(dp3684
g54
(dp3685
sg63
g3671
sg56
(lp3686
g49
(g50
g51
NtRp3687
(dp3688
g54
(dp3689
g62
I3
ssg63
g3683
sg56
(lp3690
S''
asbasbasbag49
(g65
g51
NtRp3691
(dp3692
g54
(dp3693
sg63
g3567
sg56
(lp3694
g49
(g70
g51
NtRp3695
(dp3696
g54
(dp3697
g74
g75
ssg63
g3691
sg56
(lp3698
g401
asbag49
(g70
g51
NtRp3699
(dp3700
g54
(dp3701
g81
g82
ssg63
g3691
sg56
(lp3702
S':'
asbag49
(g70
g51
NtRp3703
(dp3704
g54
(dp3705
sg63
g3691
sg56
(lp3706
g49
(g50
g51
NtRp3707
(dp3708
g54
(dp3709
g62
I3
ssg63
g3703
sg56
(lp3710
S''
asbasbasbasbasbasbasbasbasbasbasbag49
(g65
g51
NtRp3711
(dp3712
g54
(dp3713
sg63
g3497
sg56
(lp3714
g49
(g70
g51
NtRp3715
(dp3716
g54
(dp3717
g74
g75
ssg63
g3711
sg56
(lp3718
S'delimiters'
p3719
asbag49
(g70
g51
NtRp3720
(dp3721
g54
(dp3722
g81
g82
ssg63
g3711
sg56
(lp3723
S':'
asbag49
(g70
g51
NtRp3724
(dp3725
g54
(dp3726
sg63
g3711
sg56
(lp3727
g49
(g50
g51
NtRp3728
(dp3729
g54
(dp3730
g62
I5
ssg63
g3724
sg56
(lp3731
g49
(g58
g51
NtRp3732
(dp3733
g54
(dp3734
g62
I4
ssg63
Nsg56
(lp3735
g49
(g65
g51
NtRp3736
(dp3737
g54
(dp3738
sg63
g3732
sg56
(lp3739
g49
(g70
g51
NtRp3740
(dp3741
g54
(dp3742
sg63
g3736
sg56
(lp3743
g49
(g50
g51
NtRp3744
(dp3745
g54
(dp3746
g62
I4
ssg63
g3740
sg56
(lp3747
S'{{'
p3748
asbasbasbag49
(g65
g51
NtRp3749
(dp3750
g54
(dp3751
sg63
g3732
sg56
(lp3752
g49
(g70
g51
NtRp3753
(dp3754
g54
(dp3755
sg63
g3749
sg56
(lp3756
g49
(g50
g51
NtRp3757
(dp3758
g54
(dp3759
g62
I4
ssg63
g3753
sg56
(lp3760
S'}}'
p3761
asbasbasbasbasbasbasbag49
(g65
g51
NtRp3762
(dp3763
g54
(dp3764
sg63
g3497
sg56
(lp3765
g49
(g70
g51
NtRp3766
(dp3767
g54
(dp3768
g74
g75
ssg63
g3762
sg56
(lp3769
S'files'
p3770
asbag49
(g70
g51
NtRp3771
(dp3772
g54
(dp3773
g81
g82
ssg63
g3762
sg56
(lp3774
S':'
asbag49
(g70
g51
NtRp3775
(dp3776
g54
(dp3777
sg63
g3762
sg56
(lp3778
g49
(g50
g51
NtRp3779
(dp3780
g54
(dp3781
g62
I5
ssg63
g3775
sg56
(lp3782
g49
(g58
g51
NtRp3783
(dp3784
g54
(dp3785
g62
I4
ssg63
Nsg56
(lp3786
g49
(g65
g51
NtRp3787
(dp3788
g54
(dp3789
sg63
g3783
sg56
(lp3790
g49
(g70
g51
NtRp3791
(dp3792
g54
(dp3793
sg63
g3787
sg56
(lp3794
g49
(g50
g51
NtRp3795
(dp3796
g54
(dp3797
g62
I4
ssg63
g3791
sg56
(lp3798
S'/unioeste_code/static/js/jquery.js'
p3799
asbasbasbag49
(g65
g51
NtRp3800
(dp3801
g54
(dp3802
sg63
g3783
sg56
(lp3803
g49
(g70
g51
NtRp3804
(dp3805
g54
(dp3806
sg63
g3800
sg56
(lp3807
g49
(g50
g51
NtRp3808
(dp3809
g54
(dp3810
g62
I4
ssg63
g3804
sg56
(lp3811
S'/unioeste_code/static/css/calendar.css'
p3812
asbasbasbag49
(g65
g51
NtRp3813
(dp3814
g54
(dp3815
sg63
g3783
sg56
(lp3816
g49
(g70
g51
NtRp3817
(dp3818
g54
(dp3819
sg63
g3813
sg56
(lp3820
g49
(g50
g51
NtRp3821
(dp3822
g54
(dp3823
g62
I4
ssg63
g3817
sg56
(lp3824
S'/unioeste_code/static/js/calendar.js'
p3825
asbasbasbag49
(g65
g51
NtRp3826
(dp3827
g54
(dp3828
sg63
g3783
sg56
(lp3829
g49
(g70
g51
NtRp3830
(dp3831
g54
(dp3832
sg63
g3826
sg56
(lp3833
g49
(g50
g51
NtRp3834
(dp3835
g54
(dp3836
g62
I4
ssg63
g3830
sg56
(lp3837
S'/unioeste_code/static/js/web2py.js'
p3838
asbasbasbag49
(g65
g51
NtRp3839
(dp3840
g54
(dp3841
sg63
g3783
sg56
(lp3842
g49
(g70
g51
NtRp3843
(dp3844
g54
(dp3845
sg63
g3839
sg56
(lp3846
g49
(g50
g51
NtRp3847
(dp3848
g54
(dp3849
g62
I4
ssg63
g3843
sg56
(lp3850
S'/unioeste_code/static/css/skeleton.css'
p3851
asbasbasbag49
(g65
g51
NtRp3852
(dp3853
g54
(dp3854
sg63
g3783
sg56
(lp3855
g49
(g70
g51
NtRp3856
(dp3857
g54
(dp3858
sg63
g3852
sg56
(lp3859
g49
(g50
g51
NtRp3860
(dp3861
g54
(dp3862
g62
I4
ssg63
g3856
sg56
(lp3863
S'/unioeste_code/static/css/web2py.css'
p3864
asbasbasbag49
(g65
g51
NtRp3865
(dp3866
g54
(dp3867
sg63
g3783
sg56
(lp3868
g49
(g70
g51
NtRp3869
(dp3870
g54
(dp3871
sg63
g3865
sg56
(lp3872
g49
(g50
g51
NtRp3873
(dp3874
g54
(dp3875
g62
I4
ssg63
g3869
sg56
(lp3876
S'/unioeste_code/static/css/superfish.css'
p3877
asbasbasbag49
(g65
g51
NtRp3878
(dp3879
g54
(dp3880
sg63
g3783
sg56
(lp3881
g49
(g70
g51
NtRp3882
(dp3883
g54
(dp3884
sg63
g3878
sg56
(lp3885
g49
(g50
g51
NtRp3886
(dp3887
g54
(dp3888
g62
I4
ssg63
g3882
sg56
(lp3889
S'/unioeste_code/static/js/superfish.js'
p3890
asbasbasbasbasbasbasbag49
(g65
g51
NtRp3891
(dp3892
g54
(dp3893
sg63
g3497
sg56
(lp3894
g49
(g70
g51
NtRp3895
(dp3896
g54
(dp3897
g74
g75
ssg63
g3891
sg56
(lp3898
S'flash'
p3899
asbag49
(g70
g51
NtRp3900
(dp3901
g54
(dp3902
g81
g82
ssg63
g3891
sg56
(lp3903
S':'
asbag49
(g70
g51
NtRp3904
(dp3905
g54
(dp3906
sg63
g3891
sg56
(lp3907
g49
(g50
g51
NtRp3908
(dp3909
g54
(dp3910
g62
I5
ssg63
g3904
sg56
(lp3911
S'Logged in'
p3912
asbasbasbag49
(g65
g51
NtRp3913
(dp3914
g54
(dp3915
sg63
g3497
sg56
(lp3916
g49
(g70
g51
NtRp3917
(dp3918
g54
(dp3919
g74
g75
ssg63
g3913
sg56
(lp3920
S'generic_patterns'
p3921
asbag49
(g70
g51
NtRp3922
(dp3923
g54
(dp3924
g81
g82
ssg63
g3913
sg56
(lp3925
S':'
asbag49
(g70
g51
NtRp3926
(dp3927
g54
(dp3928
sg63
g3913
sg56
(lp3929
g49
(g50
g51
NtRp3930
(dp3931
g54
(dp3932
g62
I5
ssg63
g3926
sg56
(lp3933
g49
(g58
g51
NtRp3934
(dp3935
g54
(dp3936
g62
I4
ssg63
Nsg56
(lp3937
sbasbasbasbag49
(g65
g51
NtRp3938
(dp3939
g54
(dp3940
sg63
g3497
sg56
(lp3941
g49
(g70
g51
NtRp3942
(dp3943
g54
(dp3944
g74
g75
ssg63
g3938
sg56
(lp3945
S'headers'
p3946
asbag49
(g70
g51
NtRp3947
(dp3948
g54
(dp3949
g81
g82
ssg63
g3938
sg56
(lp3950
S':'
asbag49
(g70
g51
NtRp3951
(dp3952
g54
(dp3953
sg63
g3938
sg56
(lp3954
g49
(g50
g51
NtRp3955
(dp3956
g54
(dp3957
g62
I5
ssg63
g3951
sg56
(lp3958
g49
(g58
g51
NtRp3959
(dp3960
g54
(dp3961
g62
I4
ssg63
Nsg56
(lp3962
g49
(g65
g51
NtRp3963
(dp3964
g54
(dp3965
sg63
g3959
sg56
(lp3966
g49
(g70
g51
NtRp3967
(dp3968
g54
(dp3969
g74
g75
ssg63
g3963
sg56
(lp3970
S'Cache-Control'
p3971
asbag49
(g70
g51
NtRp3972
(dp3973
g54
(dp3974
g81
g82
ssg63
g3963
sg56
(lp3975
S':'
asbag49
(g70
g51
NtRp3976
(dp3977
g54
(dp3978
sg63
g3963
sg56
(lp3979
g49
(g50
g51
NtRp3980
(dp3981
g54
(dp3982
g62
I4
ssg63
g3976
sg56
(lp3983
S'no-store, no-cache, must-revalidate, post-check=0, pre-check=0'
p3984
asbasbasbag49
(g65
g51
NtRp3985
(dp3986
g54
(dp3987
sg63
g3959
sg56
(lp3988
g49
(g70
g51
NtRp3989
(dp3990
g54
(dp3991
g74
g75
ssg63
g3985
sg56
(lp3992
S'Content-Type'
p3993
asbag49
(g70
g51
NtRp3994
(dp3995
g54
(dp3996
g81
g82
ssg63
g3985
sg56
(lp3997
S':'
asbag49
(g70
g51
NtRp3998
(dp3999
g54
(dp4000
sg63
g3985
sg56
(lp4001
g49
(g50
g51
NtRp4002
(dp4003
g54
(dp4004
g62
I4
ssg63
g3998
sg56
(lp4005
S'text/html; charset=utf-8'
p4006
asbasbasbag49
(g65
g51
NtRp4007
(dp4008
g54
(dp4009
sg63
g3959
sg56
(lp4010
g49
(g70
g51
NtRp4011
(dp4012
g54
(dp4013
g74
g75
ssg63
g4007
sg56
(lp4014
S'Expires'
p4015
asbag49
(g70
g51
NtRp4016
(dp4017
g54
(dp4018
g81
g82
ssg63
g4007
sg56
(lp4019
S':'
asbag49
(g70
g51
NtRp4020
(dp4021
g54
(dp4022
sg63
g4007
sg56
(lp4023
g49
(g50
g51
NtRp4024
(dp4025
g54
(dp4026
g62
I4
ssg63
g4020
sg56
(lp4027
S'Tue, 31 Jul 2012 00:06:09 GMT'
p4028
asbasbasbag49
(g65
g51
NtRp4029
(dp4030
g54
(dp4031
sg63
g3959
sg56
(lp4032
g49
(g70
g51
NtRp4033
(dp4034
g54
(dp4035
g74
g75
ssg63
g4029
sg56
(lp4036
S'Pragma'
p4037
asbag49
(g70
g51
NtRp4038
(dp4039
g54
(dp4040
g81
g82
ssg63
g4029
sg56
(lp4041
S':'
asbag49
(g70
g51
NtRp4042
(dp4043
g54
(dp4044
sg63
g4029
sg56
(lp4045
g49
(g50
g51
NtRp4046
(dp4047
g54
(dp4048
g62
I4
ssg63
g4042
sg56
(lp4049
S'no-cache'
p4050
asbasbasbag49
(g65
g51
NtRp4051
(dp4052
g54
(dp4053
sg63
g3959
sg56
(lp4054
g49
(g70
g51
NtRp4055
(dp4056
g54
(dp4057
g74
g75
ssg63
g4051
sg56
(lp4058
S'X-Powered-By'
p4059
asbag49
(g70
g51
NtRp4060
(dp4061
g54
(dp4062
g81
g82
ssg63
g4051
sg56
(lp4063
S':'
asbag49
(g70
g51
NtRp4064
(dp4065
g54
(dp4066
sg63
g4051
sg56
(lp4067
g49
(g50
g51
NtRp4068
(dp4069
g54
(dp4070
g62
I4
ssg63
g4064
sg56
(lp4071
S'web2py'
p4072
asbasbasbasbasbasbasbag49
(g65
g51
NtRp4073
(dp4074
g54
(dp4075
sg63
g3497
sg56
(lp4076
g49
(g70
g51
NtRp4077
(dp4078
g54
(dp4079
g74
g75
ssg63
g4073
sg56
(lp4080
S'menu'
p4081
asbag49
(g70
g51
NtRp4082
(dp4083
g54
(dp4084
g81
g82
ssg63
g4073
sg56
(lp4085
S':'
asbag49
(g70
g51
NtRp4086
(dp4087
g54
(dp4088
sg63
g4073
sg56
(lp4089
g49
(g50
g51
NtRp4090
(dp4091
g54
(dp4092
g62
I5
ssg63
g4086
sg56
(lp4093
g49
(g58
g51
NtRp4094
(dp4095
g54
(dp4096
g62
I4
ssg63
Nsg56
(lp4097
g49
(g65
g51
NtRp4098
(dp4099
g54
(dp4100
sg63
g4094
sg56
(lp4101
g49
(g70
g51
NtRp4102
(dp4103
g54
(dp4104
sg63
g4098
sg56
(lp4105
g49
(g50
g51
NtRp4106
(dp4107
g54
(dp4108
g62
I4
ssg63
g4102
sg56
(lp4109
g49
(g58
g51
NtRp4110
(dp4111
g54
(dp4112
g62
I3
ssg63
Nsg56
(lp4113
g49
(g65
g51
NtRp4114
(dp4115
g54
(dp4116
sg63
g4110
sg56
(lp4117
g49
(g70
g51
NtRp4118
(dp4119
g54
(dp4120
sg63
g4114
sg56
(lp4121
g49
(g50
g51
NtRp4122
(dp4123
g54
(dp4124
g62
I3
ssg63
g4118
sg56
(lp4125
cgluon.languages
lazyT_unpickle
p4126
(S't\x04\x00\x00\x00Home'
tRp4127
asbasbasbag49
(g65
g51
NtRp4128
(dp4129
g54
(dp4130
sg63
g4110
sg56
(lp4131
g49
(g70
g51
NtRp4132
(dp4133
g54
(dp4134
sg63
g4128
sg56
(lp4135
g49
(g50
g51
NtRp4136
(dp4137
g54
(dp4138
g62
I3
ssg63
g4132
sg56
(lp4139
g92
asbasbasbag49
(g65
g51
NtRp4140
(dp4141
g54
(dp4142
sg63
g4110
sg56
(lp4143
g49
(g70
g51
NtRp4144
(dp4145
g54
(dp4146
sg63
g4140
sg56
(lp4147
g49
(g50
g51
NtRp4148
(dp4149
g54
(dp4150
g62
I3
ssg63
g4144
sg56
(lp4151
S'/unioeste_code/default/index'
p4152
asbasbasbag49
(g65
g51
NtRp4153
(dp4154
g54
(dp4155
sg63
g4110
sg56
(lp4156
g49
(g70
g51
NtRp4157
(dp4158
g54
(dp4159
sg63
g4153
sg56
(lp4160
g49
(g50
g51
NtRp4161
(dp4162
g54
(dp4163
g62
I3
ssg63
g4157
sg56
(lp4164
g49
(g58
g51
NtRp4165
(dp4166
g54
(dp4167
g62
I2
ssg63
Nsg56
(lp4168
sbasbasbasbasbasbasbasbag49
(g65
g51
NtRp4169
(dp4170
g54
(dp4171
sg63
g4094
sg56
(lp4172
g49
(g70
g51
NtRp4173
(dp4174
g54
(dp4175
sg63
g4169
sg56
(lp4176
g49
(g50
g51
NtRp4177
(dp4178
g54
(dp4179
g62
I4
ssg63
g4173
sg56
(lp4180
g49
(g58
g51
NtRp4181
(dp4182
g54
(dp4183
g62
I3
ssg63
Nsg56
(lp4184
g49
(g65
g51
NtRp4185
(dp4186
g54
(dp4187
sg63
g4181
sg56
(lp4188
g49
(g70
g51
NtRp4189
(dp4190
g54
(dp4191
sg63
g4185
sg56
(lp4192
g49
(g50
g51
NtRp4193
(dp4194
g54
(dp4195
g62
I3
ssg63
g4189
sg56
(lp4196
g49
(cgluon.html
SPAN
p4197
g51
NtRp4198
(dp4199
g54
(dp4200
g74
S'color:yellow'
p4201
ssg63
g49
(cgluon.html
A
p4202
g51
NtRp4203
(dp4204
g54
(dp4205
S'_onclick'
p4206
S'javascript:void(0);return false;'
p4207
sS'_href'
p4208
S'#'
ssg63
g49
(cgluon.html
LI
p4209
g51
NtRp4210
(dp4211
g54
(dp4212
S'_class'
p4213
S'web2py-menu-expand'
p4214
ssg63
g49
(cgluon.html
UL
p4215
g51
NtRp4216
(dp4217
g54
(dp4218
S'mobile'
p4219
I00
sS'li_class'
p4220
g4214
sg4213
S'sf-menu'
p4221
sS'ul_class'
p4222
S'web2py-menu-vertical'
p4223
sS'li_active'
p4224
S'web2py-menu-active'
p4225
ssg63
Nsg56
(lp4226
g49
(g4209
g51
NtRp4227
(dp4228
g54
(dp4229
sg63
g4216
sg56
(lp4230
g49
(g4202
g51
NtRp4231
(dp4232
g54
(dp4233
g4208
g4152
ssg63
g4227
sg56
(lp4234
g4127
asbasbag4210
asbsg56
(lp4235
g4203
ag49
(g4215
g51
NtRp4236
(dp4237
g54
(dp4238
g4213
g4223
ssg63
g4210
sg56
(lp4239
g49
(g4209
g51
NtRp4240
(dp4241
g54
(dp4242
sg63
g4236
sg56
(lp4243
g49
(g4202
g51
NtRp4244
(dp4245
g54
(dp4246
g4208
S'/admin/default/site'
p4247
ssg63
g4240
sg56
(lp4248
g4126
(S's\x08\x00\x00\x00My Sites'
tRp4249
asbasbag49
(g4209
g51
NtRp4250
(dp4251
g54
(dp4252
g4213
g4214
ssg63
g4236
sg56
(lp4253
g49
(g4202
g51
NtRp4254
(dp4255
g54
(dp4256
g4208
S'/admin/default/design/unioeste_code'
p4257
ssg63
g4250
sg56
(lp4258
g4126
(S's\x08\x00\x00\x00This App'
tRp4259
asbag49
(g4215
g51
NtRp4260
(dp4261
g54
(dp4262
g4213
g4223
ssg63
g4250
sg56
(lp4263
g49
(g4209
g51
NtRp4264
(dp4265
g54
(dp4266
sg63
g4260
sg56
(lp4267
g49
(g4202
g51
NtRp4268
(dp4269
g54
(dp4270
g4208
S'/admin/default/edit/unioeste_code/controllers/default.py'
p4271
ssg63
g4264
sg56
(lp4272
g4126
(S't\x0b\x00\x00\x00Controlador'
tRp4273
asbasbag49
(g4209
g51
NtRp4274
(dp4275
g54
(dp4276
sg63
g4260
sg56
(lp4277
g49
(g4202
g51
NtRp4278
(dp4279
g54
(dp4280
g4208
S'/admin/default/edit/unioeste_code/views/default/Problem.html'
p4281
ssg63
g4274
sg56
(lp4282
g4126
(S's\x0e\x00\x00\x00Visualiza\xc3\xa7\xc3\xa3o'
tRp4283
asbasbag49
(g4209
g51
NtRp4284
(dp4285
g54
(dp4286
sg63
g4260
sg56
(lp4287
g49
(g4202
g51
NtRp4288
(dp4289
g54
(dp4290
g4208
S'/admin/default/edit/unioeste_code/views/layout.html'
p4291
ssg63
g4284
sg56
(lp4292
g4126
(S't\x06\x00\x00\x00Layout'
tRp4293
asbasbag49
(g4209
g51
NtRp4294
(dp4295
g54
(dp4296
sg63
g4260
sg56
(lp4297
g49
(g4202
g51
NtRp4298
(dp4299
g54
(dp4300
g4208
S'/admin/default/edit/unioeste_code/static/css/web2py.css'
p4301
ssg63
g4294
sg56
(lp4302
g4126
(S't\n\x00\x00\x00Stylesheet'
tRp4303
asbasbag49
(g4209
g51
NtRp4304
(dp4305
g54
(dp4306
sg63
g4260
sg56
(lp4307
g49
(g4202
g51
NtRp4308
(dp4309
g54
(dp4310
g4208
S'/admin/default/edit/unioeste_code/models/db.py'
p4311
ssg63
g4304
sg56
(lp4312
g4126
(S's\t\x00\x00\x00Modelo BD'
tRp4313
asbasbag49
(g4209
g51
NtRp4314
(dp4315
g54
(dp4316
sg63
g4260
sg56
(lp4317
g49
(g4202
g51
NtRp4318
(dp4319
g54
(dp4320
g4208
S'/admin/default/edit/unioeste_code/models/menu.py'
p4321
ssg63
g4314
sg56
(lp4322
g4126
(S's\x0e\x00\x00\x00Modelo de Menu'
tRp4323
asbasbag49
(g4209
g51
NtRp4324
(dp4325
g54
(dp4326
sg63
g4260
sg56
(lp4327
g49
(g4202
g51
NtRp4328
(dp4329
g54
(dp4330
g4208
S'/unioeste_code/appadmin/index'
p4331
ssg63
g4324
sg56
(lp4332
g4126
(S's\x0e\x00\x00\x00Banco de dados'
tRp4333
asbasbag49
(g4209
g51
NtRp4334
(dp4335
g54
(dp4336
sg63
g4260
sg56
(lp4337
g49
(g4202
g51
NtRp4338
(dp4339
g54
(dp4340
g4208
S'/admin/default/errors/unioeste_code'
p4341
ssg63
g4334
sg56
(lp4342
g4126
(S't\x06\x00\x00\x00Errors'
tRp4343
asbasbag49
(g4209
g51
NtRp4344
(dp4345
g54
(dp4346
sg63
g4260
sg56
(lp4347
g49
(g4202
g51
NtRp4348
(dp4349
g54
(dp4350
g4208
S'/admin/default/about/unioeste_code'
p4351
ssg63
g4344
sg56
(lp4352
g4126
(S't\x05\x00\x00\x00About'
tRp4353
asbasbasbasbag49
(g4209
g51
NtRp4354
(dp4355
g54
(dp4356
g4213
g4214
ssg63
g4236
sg56
(lp4357
g49
(g4202
g51
NtRp4358
(dp4359
g54
(dp4360
g4208
S'http://www.web2py.com'
p4361
ssg63
g4354
sg56
(lp4362
S'web2py.com'
p4363
asbag49
(g4215
g51
NtRp4364
(dp4365
g54
(dp4366
g4213
g4223
ssg63
g4354
sg56
(lp4367
g49
(g4209
g51
NtRp4368
(dp4369
g54
(dp4370
sg63
g4364
sg56
(lp4371
g49
(g4202
g51
NtRp4372
(dp4373
g54
(dp4374
g4208
S'http://www.web2py.com/examples/default/download'
p4375
ssg63
g4368
sg56
(lp4376
g4126
(S't\x08\x00\x00\x00Download'
tRp4377
asbasbag49
(g4209
g51
NtRp4378
(dp4379
g54
(dp4380
sg63
g4364
sg56
(lp4381
g49
(g4202
g51
NtRp4382
(dp4383
g54
(dp4384
g4208
S'http://www.web2py.com/examples/default/support'
p4385
ssg63
g4378
sg56
(lp4386
g4126
(S't\x07\x00\x00\x00Support'
tRp4387
asbasbag49
(g4209
g51
NtRp4388
(dp4389
g54
(dp4390
sg63
g4364
sg56
(lp4391
g49
(g4202
g51
NtRp4392
(dp4393
g54
(dp4394
g4208
S'http://web2py.com/demo_admin'
p4395
ssg63
g4388
sg56
(lp4396
g4126
(S't\x04\x00\x00\x00Demo'
tRp4397
asbasbag49
(g4209
g51
NtRp4398
(dp4399
g54
(dp4400
sg63
g4364
sg56
(lp4401
g49
(g4202
g51
NtRp4402
(dp4403
g54
(dp4404
g4208
S'http://web2py.com/examples/default/examples'
p4405
ssg63
g4398
sg56
(lp4406
g4126
(S's\x0e\x00\x00\x00Quick Examples'
tRp4407
asbasbag49
(g4209
g51
NtRp4408
(dp4409
g54
(dp4410
sg63
g4364
sg56
(lp4411
g49
(g4202
g51
NtRp4412
(dp4413
g54
(dp4414
g4208
S'http://web2py.com/AlterEgo'
p4415
ssg63
g4408
sg56
(lp4416
g4126
(S't\x03\x00\x00\x00FAQ'
tRp4417
asbasbag49
(g4209
g51
NtRp4418
(dp4419
g54
(dp4420
sg63
g4364
sg56
(lp4421
g49
(g4202
g51
NtRp4422
(dp4423
g54
(dp4424
g4208
S'http://www.web2py.com/examples/default/videos/'
p4425
ssg63
g4418
sg56
(lp4426
g4126
(S't\x06\x00\x00\x00Videos'
tRp4427
asbasbag49
(g4209
g51
NtRp4428
(dp4429
g54
(dp4430
sg63
g4364
sg56
(lp4431
g49
(g4202
g51
NtRp4432
(dp4433
g54
(dp4434
g4208
S'http://web2py.com/appliances'
p4435
ssg63
g4428
sg56
(lp4436
g4126
(S's\x11\x00\x00\x00Free Applications'
tRp4437
asbasbag49
(g4209
g51
NtRp4438
(dp4439
g54
(dp4440
sg63
g4364
sg56
(lp4441
g49
(g4202
g51
NtRp4442
(dp4443
g54
(dp4444
g4208
S'http://web2py.com/plugins'
p4445
ssg63
g4438
sg56
(lp4446
g4126
(S't\x07\x00\x00\x00Plugins'
tRp4447
asbasbag49
(g4209
g51
NtRp4448
(dp4449
g54
(dp4450
sg63
g4364
sg56
(lp4451
g49
(g4202
g51
NtRp4452
(dp4453
g54
(dp4454
g4208
S'http://web2py.com/layouts'
p4455
ssg63
g4448
sg56
(lp4456
g4126
(S't\x07\x00\x00\x00Layouts'
tRp4457
asbasbag49
(g4209
g51
NtRp4458
(dp4459
g54
(dp4460
sg63
g4364
sg56
(lp4461
g49
(g4202
g51
NtRp4462
(dp4463
g54
(dp4464
g4208
S'http://web2pyslices.com/'
p4465
ssg63
g4458
sg56
(lp4466
g4126
(S't\x07\x00\x00\x00Recipes'
tRp4467
asbasbag49
(g4209
g51
NtRp4468
(dp4469
g54
(dp4470
sg63
g4364
sg56
(lp4471
g49
(g4202
g51
NtRp4472
(dp4473
g54
(dp4474
g4208
S'http://web2py.com/semantic'
p4475
ssg63
g4468
sg56
(lp4476
g4126
(S't\x08\x00\x00\x00Semantic'
tRp4477
asbasbasbasbag49
(g4209
g51
NtRp4478
(dp4479
g54
(dp4480
g4213
g4214
ssg63
g4236
sg56
(lp4481
g49
(g4202
g51
NtRp4482
(dp4483
g54
(dp4484
g4208
S'http://www.web2py.com/book'
p4485
ssg63
g4478
sg56
(lp4486
g4126
(S't\r\x00\x00\x00Documentation'
tRp4487
asbag49
(g4215
g51
NtRp4488
(dp4489
g54
(dp4490
g4213
g4223
ssg63
g4478
sg56
(lp4491
g49
(g4209
g51
NtRp4492
(dp4493
g54
(dp4494
sg63
g4488
sg56
(lp4495
g49
(g4202
g51
NtRp4496
(dp4497
g54
(dp4498
g4208
S'http://www.web2py.com/book/default/chapter/00'
p4499
ssg63
g4492
sg56
(lp4500
g4126
(S't\x07\x00\x00\x00Preface'
tRp4501
asbasbag49
(g4209
g51
NtRp4502
(dp4503
g54
(dp4504
sg63
g4488
sg56
(lp4505
g49
(g4202
g51
NtRp4506
(dp4507
g54
(dp4508
g4208
S'http://www.web2py.com/book/default/chapter/01'
p4509
ssg63
g4502
sg56
(lp4510
g4126
(S't\x0c\x00\x00\x00Introduction'
tRp4511
asbasbag49
(g4209
g51
NtRp4512
(dp4513
g54
(dp4514
sg63
g4488
sg56
(lp4515
g49
(g4202
g51
NtRp4516
(dp4517
g54
(dp4518
g4208
S'http://www.web2py.com/book/default/chapter/02'
p4519
ssg63
g4512
sg56
(lp4520
g4126
(S't\x06\x00\x00\x00Python'
tRp4521
asbasbag49
(g4209
g51
NtRp4522
(dp4523
g54
(dp4524
sg63
g4488
sg56
(lp4525
g49
(g4202
g51
NtRp4526
(dp4527
g54
(dp4528
g4208
S'http://www.web2py.com/book/default/chapter/03'
p4529
ssg63
g4522
sg56
(lp4530
g4126
(S't\x08\x00\x00\x00Overview'
tRp4531
asbasbag49
(g4209
g51
NtRp4532
(dp4533
g54
(dp4534
sg63
g4488
sg56
(lp4535
g49
(g4202
g51
NtRp4536
(dp4537
g54
(dp4538
g4208
S'http://www.web2py.com/book/default/chapter/04'
p4539
ssg63
g4532
sg56
(lp4540
g4126
(S's\x08\x00\x00\x00The Core'
tRp4541
asbasbag49
(g4209
g51
NtRp4542
(dp4543
g54
(dp4544
sg63
g4488
sg56
(lp4545
g49
(g4202
g51
NtRp4546
(dp4547
g54
(dp4548
g4208
S'http://www.web2py.com/book/default/chapter/05'
p4549
ssg63
g4542
sg56
(lp4550
g4126
(S's\t\x00\x00\x00The Views'
tRp4551
asbasbag49
(g4209
g51
NtRp4552
(dp4553
g54
(dp4554
sg63
g4488
sg56
(lp4555
g49
(g4202
g51
NtRp4556
(dp4557
g54
(dp4558
g4208
S'http://www.web2py.com/book/default/chapter/06'
p4559
ssg63
g4552
sg56
(lp4560
g4126
(S's\x0e\x00\x00\x00Banco de dados'
tRp4561
asbasbag49
(g4209
g51
NtRp4562
(dp4563
g54
(dp4564
sg63
g4488
sg56
(lp4565
g49
(g4202
g51
NtRp4566
(dp4567
g54
(dp4568
g4208
S'http://www.web2py.com/book/default/chapter/07'
p4569
ssg63
g4562
sg56
(lp4570
g4126
(S's\x14\x00\x00\x00Forms and Validators'
tRp4571
asbasbag49
(g4209
g51
NtRp4572
(dp4573
g54
(dp4574
sg63
g4488
sg56
(lp4575
g49
(g4202
g51
NtRp4576
(dp4577
g54
(dp4578
g4208
S'http://www.web2py.com/book/default/chapter/08'
p4579
ssg63
g4572
sg56
(lp4580
g4126
(S's\r\x00\x00\x00Email and SMS'
tRp4581
asbasbag49
(g4209
g51
NtRp4582
(dp4583
g54
(dp4584
sg63
g4488
sg56
(lp4585
g49
(g4202
g51
NtRp4586
(dp4587
g54
(dp4588
g4208
S'http://www.web2py.com/book/default/chapter/09'
p4589
ssg63
g4582
sg56
(lp4590
g4126
(S's\x0e\x00\x00\x00Access Control'
tRp4591
asbasbag49
(g4209
g51
NtRp4592
(dp4593
g54
(dp4594
sg63
g4488
sg56
(lp4595
g49
(g4202
g51
NtRp4596
(dp4597
g54
(dp4598
g4208
S'http://www.web2py.com/book/default/chapter/10'
p4599
ssg63
g4592
sg56
(lp4600
g4126
(S't\x08\x00\x00\x00Services'
tRp4601
asbasbag49
(g4209
g51
NtRp4602
(dp4603
g54
(dp4604
sg63
g4488
sg56
(lp4605
g49
(g4202
g51
NtRp4606
(dp4607
g54
(dp4608
g4208
S'http://www.web2py.com/book/default/chapter/11'
p4609
ssg63
g4602
sg56
(lp4610
g4126
(S's\x0c\x00\x00\x00Ajax Recipes'
tRp4611
asbasbag49
(g4209
g51
NtRp4612
(dp4613
g54
(dp4614
sg63
g4488
sg56
(lp4615
g49
(g4202
g51
NtRp4616
(dp4617
g54
(dp4618
g4208
S'http://www.web2py.com/book/default/chapter/12'
p4619
ssg63
g4612
sg56
(lp4620
g4126
(S's\x16\x00\x00\x00Components and Plugins'
tRp4621
asbasbag49
(g4209
g51
NtRp4622
(dp4623
g54
(dp4624
sg63
g4488
sg56
(lp4625
g49
(g4202
g51
NtRp4626
(dp4627
g54
(dp4628
g4208
S'http://www.web2py.com/book/default/chapter/13'
p4629
ssg63
g4622
sg56
(lp4630
g4126
(S's\x12\x00\x00\x00Deployment Recipes'
tRp4631
asbasbag49
(g4209
g51
NtRp4632
(dp4633
g54
(dp4634
sg63
g4488
sg56
(lp4635
g49
(g4202
g51
NtRp4636
(dp4637
g54
(dp4638
g4208
S'http://www.web2py.com/book/default/chapter/14'
p4639
ssg63
g4632
sg56
(lp4640
g4126
(S's\r\x00\x00\x00Other Recipes'
tRp4641
asbasbag49
(g4209
g51
NtRp4642
(dp4643
g54
(dp4644
sg63
g4488
sg56
(lp4645
g49
(g4202
g51
NtRp4646
(dp4647
g54
(dp4648
g4208
S'http://stores.lulu.com/web2py'
p4649
ssg63
g4642
sg56
(lp4650
g4126
(S's\r\x00\x00\x00Buy this book'
tRp4651
asbasbasbasbag49
(g4209
g51
NtRp4652
(dp4653
g54
(dp4654
g4213
g4214
ssg63
g4236
sg56
(lp4655
g49
(g4202
g51
NtRp4656
(dp4657
g54
(dp4658
g4206
g4207
sg4208
S'#'
ssg63
g4652
sg56
(lp4659
g4126
(S't\t\x00\x00\x00Community'
tRp4660
asbag49
(g4215
g51
NtRp4661
(dp4662
g54
(dp4663
g4213
g4223
ssg63
g4652
sg56
(lp4664
g49
(g4209
g51
NtRp4665
(dp4666
g54
(dp4667
sg63
g4661
sg56
(lp4668
g49
(g4202
g51
NtRp4669
(dp4670
g54
(dp4671
g4208
S'http://www.web2py.com/examples/default/usergroups'
p4672
ssg63
g4665
sg56
(lp4673
g4126
(S't\x06\x00\x00\x00Groups'
tRp4674
asbasbag49
(g4209
g51
NtRp4675
(dp4676
g54
(dp4677
sg63
g4661
sg56
(lp4678
g49
(g4202
g51
NtRp4679
(dp4680
g54
(dp4681
g4208
S'http://twitter.com/web2py'
p4682
ssg63
g4675
sg56
(lp4683
g4126
(S't\x07\x00\x00\x00Twitter'
tRp4684
asbasbag49
(g4209
g51
NtRp4685
(dp4686
g54
(dp4687
sg63
g4661
sg56
(lp4688
g49
(g4202
g51
NtRp4689
(dp4690
g54
(dp4691
g4208
S'http://webchat.freenode.net/?channels=web2py'
p4692
ssg63
g4685
sg56
(lp4693
g4126
(S's\t\x00\x00\x00Live Chat'
tRp4694
asbasbasbasbag49
(g4209
g51
NtRp4695
(dp4696
g54
(dp4697
g4213
g4214
ssg63
g4236
sg56
(lp4698
g49
(g4202
g51
NtRp4699
(dp4700
g54
(dp4701
g4206
g4207
sg4208
S'#'
ssg63
g4695
sg56
(lp4702
g4126
(S't\x07\x00\x00\x00Plugins'
tRp4703
asbag49
(g4215
g51
NtRp4704
(dp4705
g54
(dp4706
g4213
g4223
ssg63
g4695
sg56
(lp4707
g49
(g4209
g51
NtRp4708
(dp4709
g54
(dp4710
sg63
g4704
sg56
(lp4711
g49
(g4202
g51
NtRp4712
(dp4713
g54
(dp4714
g4208
S'http://web2py.com/examples/default/download'
p4715
ssg63
g4708
sg56
(lp4716
S'plugin_wiki'
p4717
asbasbag49
(g4209
g51
NtRp4718
(dp4719
g54
(dp4720
sg63
g4704
sg56
(lp4721
g49
(g4202
g51
NtRp4722
(dp4723
g54
(dp4724
g4208
g4445
ssg63
g4718
sg56
(lp4725
g4126
(S's\r\x00\x00\x00Other Plugins'
tRp4726
asbasbag49
(g4209
g51
NtRp4727
(dp4728
g54
(dp4729
sg63
g4704
sg56
(lp4730
g49
(g4202
g51
NtRp4731
(dp4732
g54
(dp4733
g4208
g4455
ssg63
g4727
sg56
(lp4734
g4126
(S's\x0e\x00\x00\x00Layout Plugins'
tRp4735
asbasbasbasbasbasbsg56
(lp4736
g4198
asbsg56
(lp4737
g4072
asbasbasbasbag49
(g65
g51
NtRp4738
(dp4739
g54
(dp4740
sg63
g4181
sg56
(lp4741
g49
(g70
g51
NtRp4742
(dp4743
g54
(dp4744
sg63
g4738
sg56
(lp4745
g49
(g50
g51
NtRp4746
(dp4747
g54
(dp4748
g62
I3
ssg63
g4742
sg56
(lp4749
g92
asbasbasbag49
(g65
g51
NtRp4750
(dp4751
g54
(dp4752
sg63
g4181
sg56
(lp4753
g49
(g70
g51
NtRp4754
(dp4755
g54
(dp4756
sg63
g4750
sg56
(lp4757
g49
(g50
g51
NtRp4758
(dp4759
g54
(dp4760
g62
I3
ssg63
g4754
sg56
(lp4761
S'None'
p4762
asbasbasbag49
(g65
g51
NtRp4763
(dp4764
g54
(dp4765
sg63
g4181
sg56
(lp4766
g49
(g70
g51
NtRp4767
(dp4768
g54
(dp4769
sg63
g4763
sg56
(lp4770
g49
(g50
g51
NtRp4771
(dp4772
g54
(dp4773
g62
I3
ssg63
g4767
sg56
(lp4774
g49
(g58
g51
NtRp4775
(dp4776
g54
(dp4777
g62
I2
ssg63
Nsg56
(lp4778
g49
(g65
g51
NtRp4779
(dp4780
g54
(dp4781
sg63
g4775
sg56
(lp4782
g49
(g70
g51
NtRp4783
(dp4784
g54
(dp4785
sg63
g4779
sg56
(lp4786
g49
(g50
g51
NtRp4787
(dp4788
g54
(dp4789
g62
I2
ssg63
g4783
sg56
(lp4790
g49
(g58
g51
NtRp4791
(dp4792
g54
(dp4793
g62
I1
ssg63
Nsg56
(lp4794
g49
(g65
g51
NtRp4795
(dp4796
g54
(dp4797
sg63
g4791
sg56
(lp4798
g49
(g70
g51
NtRp4799
(dp4800
g54
(dp4801
sg63
g4795
sg56
(lp4802
g49
(g50
g51
NtRp4803
(dp4804
g54
(dp4805
g62
I1
ssg63
g4799
sg56
(lp4806
g4249
asbasbasbag49
(g65
g51
NtRp4807
(dp4808
g54
(dp4809
sg63
g4791
sg56
(lp4810
g49
(g70
g51
NtRp4811
(dp4812
g54
(dp4813
sg63
g4807
sg56
(lp4814
g49
(g50
g51
NtRp4815
(dp4816
g54
(dp4817
g62
I1
ssg63
g4811
sg56
(lp4818
I00
asbasbasbag49
(g65
g51
NtRp4819
(dp4820
g54
(dp4821
sg63
g4791
sg56
(lp4822
g49
(g70
g51
NtRp4823
(dp4824
g54
(dp4825
sg63
g4819
sg56
(lp4826
g49
(g50
g51
NtRp4827
(dp4828
g54
(dp4829
g62
I1
ssg63
g4823
sg56
(lp4830
g4247
asbasbasbasbasbasbasbag49
(g65
g51
NtRp4831
(dp4832
g54
(dp4833
sg63
g4775
sg56
(lp4834
g49
(g70
g51
NtRp4835
(dp4836
g54
(dp4837
sg63
g4831
sg56
(lp4838
g49
(g50
g51
NtRp4839
(dp4840
g54
(dp4841
g62
I2
ssg63
g4835
sg56
(lp4842
g49
(g58
g51
NtRp4843
(dp4844
g54
(dp4845
g62
I1
ssg63
Nsg56
(lp4846
g49
(g65
g51
NtRp4847
(dp4848
g54
(dp4849
sg63
g4843
sg56
(lp4850
g49
(g70
g51
NtRp4851
(dp4852
g54
(dp4853
sg63
g4847
sg56
(lp4854
g49
(g50
g51
NtRp4855
(dp4856
g54
(dp4857
g62
I1
ssg63
g4851
sg56
(lp4858
g4259
asbasbasbag49
(g65
g51
NtRp4859
(dp4860
g54
(dp4861
sg63
g4843
sg56
(lp4862
g49
(g70
g51
NtRp4863
(dp4864
g54
(dp4865
sg63
g4859
sg56
(lp4866
g49
(g50
g51
NtRp4867
(dp4868
g54
(dp4869
g62
I1
ssg63
g4863
sg56
(lp4870
I00
asbasbasbag49
(g65
g51
NtRp4871
(dp4872
g54
(dp4873
sg63
g4843
sg56
(lp4874
g49
(g70
g51
NtRp4875
(dp4876
g54
(dp4877
sg63
g4871
sg56
(lp4878
g49
(g50
g51
NtRp4879
(dp4880
g54
(dp4881
g62
I1
ssg63
g4875
sg56
(lp4882
g4257
asbasbasbag49
(g65
g51
NtRp4883
(dp4884
g54
(dp4885
sg63
g4843
sg56
(lp4886
g49
(g70
g51
NtRp4887
(dp4888
g54
(dp4889
sg63
g4883
sg56
(lp4890
g49
(g50
g51
NtRp4891
(dp4892
g54
(dp4893
g62
I1
ssg63
g4887
sg56
(lp4894
(lp4895
(g4273
I00
g4271
tp4896
a(g4283
I00
g4281
tp4897
a(g4293
I00
g4291
tp4898
a(g4303
I00
g4301
tp4899
a(g4313
I00
g4311
tp4900
a(g4323
I00
g4321
tp4901
a(g4333
I00
g4331
tp4902
a(g4343
I00
g4341
tp4903
a(g4353
I00
g4351
tp4904
aasbasbasbasbasbasbasbag49
(g65
g51
NtRp4905
(dp4906
g54
(dp4907
sg63
g4775
sg56
(lp4908
g49
(g70
g51
NtRp4909
(dp4910
g54
(dp4911
sg63
g4905
sg56
(lp4912
g49
(g50
g51
NtRp4913
(dp4914
g54
(dp4915
g62
I2
ssg63
g4909
sg56
(lp4916
g49
(g58
g51
NtRp4917
(dp4918
g54
(dp4919
g62
I1
ssg63
Nsg56
(lp4920
g49
(g65
g51
NtRp4921
(dp4922
g54
(dp4923
sg63
g4917
sg56
(lp4924
g49
(g70
g51
NtRp4925
(dp4926
g54
(dp4927
sg63
g4921
sg56
(lp4928
g49
(g50
g51
NtRp4929
(dp4930
g54
(dp4931
g62
I1
ssg63
g4925
sg56
(lp4932
g4363
asbasbasbag49
(g65
g51
NtRp4933
(dp4934
g54
(dp4935
sg63
g4917
sg56
(lp4936
g49
(g70
g51
NtRp4937
(dp4938
g54
(dp4939
sg63
g4933
sg56
(lp4940
g49
(g50
g51
NtRp4941
(dp4942
g54
(dp4943
g62
I1
ssg63
g4937
sg56
(lp4944
I00
asbasbasbag49
(g65
g51
NtRp4945
(dp4946
g54
(dp4947
sg63
g4917
sg56
(lp4948
g49
(g70
g51
NtRp4949
(dp4950
g54
(dp4951
sg63
g4945
sg56
(lp4952
g49
(g50
g51
NtRp4953
(dp4954
g54
(dp4955
g62
I1
ssg63
g4949
sg56
(lp4956
g4361
asbasbasbag49
(g65
g51
NtRp4957
(dp4958
g54
(dp4959
sg63
g4917
sg56
(lp4960
g49
(g70
g51
NtRp4961
(dp4962
g54
(dp4963
sg63
g4957
sg56
(lp4964
g49
(g50
g51
NtRp4965
(dp4966
g54
(dp4967
g62
I1
ssg63
g4961
sg56
(lp4968
(lp4969
(g4377
I00
g4375
tp4970
a(g4387
I00
g4385
tp4971
a(g4397
I00
g4395
tp4972
a(g4407
I00
g4405
tp4973
a(g4417
I00
g4415
tp4974
a(g4427
I00
g4425
tp4975
a(g4437
I00
g4435
tp4976
a(g4447
I00
g4445
tp4977
a(g4457
I00
g4455
tp4978
a(g4467
I00
g4465
tp4979
a(g4477
I00
g4475
tp4980
aasbasbasbasbasbasbasbag49
(g65
g51
NtRp4981
(dp4982
g54
(dp4983
sg63
g4775
sg56
(lp4984
g49
(g70
g51
NtRp4985
(dp4986
g54
(dp4987
sg63
g4981
sg56
(lp4988
g49
(g50
g51
NtRp4989
(dp4990
g54
(dp4991
g62
I2
ssg63
g4985
sg56
(lp4992
g49
(g58
g51
NtRp4993
(dp4994
g54
(dp4995
g62
I1
ssg63
Nsg56
(lp4996
g49
(g65
g51
NtRp4997
(dp4998
g54
(dp4999
sg63
g4993
sg56
(lp5000
g49
(g70
g51
NtRp5001
(dp5002
g54
(dp5003
sg63
g4997
sg56
(lp5004
g49
(g50
g51
NtRp5005
(dp5006
g54
(dp5007
g62
I1
ssg63
g5001
sg56
(lp5008
g4487
asbasbasbag49
(g65
g51
NtRp5009
(dp5010
g54
(dp5011
sg63
g4993
sg56
(lp5012
g49
(g70
g51
NtRp5013
(dp5014
g54
(dp5015
sg63
g5009
sg56
(lp5016
g49
(g50
g51
NtRp5017
(dp5018
g54
(dp5019
g62
I1
ssg63
g5013
sg56
(lp5020
I00
asbasbasbag49
(g65
g51
NtRp5021
(dp5022
g54
(dp5023
sg63
g4993
sg56
(lp5024
g49
(g70
g51
NtRp5025
(dp5026
g54
(dp5027
sg63
g5021
sg56
(lp5028
g49
(g50
g51
NtRp5029
(dp5030
g54
(dp5031
g62
I1
ssg63
g5025
sg56
(lp5032
g4485
asbasbasbag49
(g65
g51
NtRp5033
(dp5034
g54
(dp5035
sg63
g4993
sg56
(lp5036
g49
(g70
g51
NtRp5037
(dp5038
g54
(dp5039
sg63
g5033
sg56
(lp5040
g49
(g50
g51
NtRp5041
(dp5042
g54
(dp5043
g62
I1
ssg63
g5037
sg56
(lp5044
(lp5045
(g4501
I00
g4499
tp5046
a(g4511
I00
g4509
tp5047
a(g4521
I00
g4519
tp5048
a(g4531
I00
g4529
tp5049
a(g4541
I00
g4539
tp5050
a(g4551
I00
g4549
tp5051
a(g4561
I00
g4559
tp5052
a(g4571
I00
g4569
tp5053
a(g4581
I00
g4579
tp5054
a(g4591
I00
g4589
tp5055
a(g4601
I00
g4599
tp5056
a(g4611
I00
g4609
tp5057
a(g4621
I00
g4619
tp5058
a(g4631
I00
g4629
tp5059
a(g4641
I00
g4639
tp5060
a(g4651
I00
g4649
tp5061
aasbasbasbasbasbasbasbag49
(g65
g51
NtRp5062
(dp5063
g54
(dp5064
sg63
g4775
sg56
(lp5065
g49
(g70
g51
NtRp5066
(dp5067
g54
(dp5068
sg63
g5062
sg56
(lp5069
g49
(g50
g51
NtRp5070
(dp5071
g54
(dp5072
g62
I2
ssg63
g5066
sg56
(lp5073
g49
(g58
g51
NtRp5074
(dp5075
g54
(dp5076
g62
I1
ssg63
Nsg56
(lp5077
g49
(g65
g51
NtRp5078
(dp5079
g54
(dp5080
sg63
g5074
sg56
(lp5081
g49
(g70
g51
NtRp5082
(dp5083
g54
(dp5084
sg63
g5078
sg56
(lp5085
g49
(g50
g51
NtRp5086
(dp5087
g54
(dp5088
g62
I1
ssg63
g5082
sg56
(lp5089
g4660
asbasbasbag49
(g65
g51
NtRp5090
(dp5091
g54
(dp5092
sg63
g5074
sg56
(lp5093
g49
(g70
g51
NtRp5094
(dp5095
g54
(dp5096
sg63
g5090
sg56
(lp5097
g49
(g50
g51
NtRp5098
(dp5099
g54
(dp5100
g62
I1
ssg63
g5094
sg56
(lp5101
I00
asbasbasbag49
(g65
g51
NtRp5102
(dp5103
g54
(dp5104
sg63
g5074
sg56
(lp5105
g49
(g70
g51
NtRp5106
(dp5107
g54
(dp5108
sg63
g5102
sg56
(lp5109
g49
(g50
g51
NtRp5110
(dp5111
g54
(dp5112
g62
I1
ssg63
g5106
sg56
(lp5113
Nasbasbasbag49
(g65
g51
NtRp5114
(dp5115
g54
(dp5116
sg63
g5074
sg56
(lp5117
g49
(g70
g51
NtRp5118
(dp5119
g54
(dp5120
sg63
g5114
sg56
(lp5121
g49
(g50
g51
NtRp5122
(dp5123
g54
(dp5124
g62
I1
ssg63
g5118
sg56
(lp5125
(lp5126
(g4674
I00
g4672
tp5127
a(g4684
I00
g4682
tp5128
a(g4694
I00
g4692
tp5129
aasbasbasbasbasbasbasbag49
(g65
g51
NtRp5130
(dp5131
g54
(dp5132
sg63
g4775
sg56
(lp5133
g49
(g70
g51
NtRp5134
(dp5135
g54
(dp5136
sg63
g5130
sg56
(lp5137
g49
(g50
g51
NtRp5138
(dp5139
g54
(dp5140
g62
I2
ssg63
g5134
sg56
(lp5141
g49
(g58
g51
NtRp5142
(dp5143
g54
(dp5144
g62
I1
ssg63
Nsg56
(lp5145
g49
(g65
g51
NtRp5146
(dp5147
g54
(dp5148
sg63
g5142
sg56
(lp5149
g49
(g70
g51
NtRp5150
(dp5151
g54
(dp5152
sg63
g5146
sg56
(lp5153
g49
(g50
g51
NtRp5154
(dp5155
g54
(dp5156
g62
I1
ssg63
g5150
sg56
(lp5157
g4703
asbasbasbag49
(g65
g51
NtRp5158
(dp5159
g54
(dp5160
sg63
g5142
sg56
(lp5161
g49
(g70
g51
NtRp5162
(dp5163
g54
(dp5164
sg63
g5158
sg56
(lp5165
g49
(g50
g51
NtRp5166
(dp5167
g54
(dp5168
g62
I1
ssg63
g5162
sg56
(lp5169
I00
asbasbasbag49
(g65
g51
NtRp5170
(dp5171
g54
(dp5172
sg63
g5142
sg56
(lp5173
g49
(g70
g51
NtRp5174
(dp5175
g54
(dp5176
sg63
g5170
sg56
(lp5177
g49
(g50
g51
NtRp5178
(dp5179
g54
(dp5180
g62
I1
ssg63
g5174
sg56
(lp5181
Nasbasbasbag49
(g65
g51
NtRp5182
(dp5183
g54
(dp5184
sg63
g5142
sg56
(lp5185
g49
(g70
g51
NtRp5186
(dp5187
g54
(dp5188
sg63
g5182
sg56
(lp5189
g49
(g50
g51
NtRp5190
(dp5191
g54
(dp5192
g62
I1
ssg63
g5186
sg56
(lp5193
(lp5194
(g4717
I00
g4715
tp5195
a(g4726
I00
g4445
tp5196
a(g4735
I00
g4455
tp5197
aasbasbasbasbasbasbasbasbasbasbasbasbasbasbasbasbasbasbasbag49
(g65
g51
NtRp5198
(dp5199
g54
(dp5200
sg63
g3497
sg56
(lp5201
g49
(g70
g51
NtRp5202
(dp5203
g54
(dp5204
g74
g75
ssg63
g5198
sg56
(lp5205
S'meta'
p5206
asbag49
(g70
g51
NtRp5207
(dp5208
g54
(dp5209
g81
g82
ssg63
g5198
sg56
(lp5210
S':'
asbag49
(g70
g51
NtRp5211
(dp5212
g54
(dp5213
sg63
g5198
sg56
(lp5214
g49
(g50
g51
NtRp5215
(dp5216
g54
(dp5217
g62
I5
ssg63
g5211
sg56
(lp5218
g49
(g58
g51
NtRp5219
(dp5220
g54
(dp5221
g62
I4
ssg63
Nsg56
(lp5222
g49
(g65
g51
NtRp5223
(dp5224
g54
(dp5225
sg63
g5219
sg56
(lp5226
g49
(g70
g51
NtRp5227
(dp5228
g54
(dp5229
g74
g75
ssg63
g5223
sg56
(lp5230
S'author'
p5231
asbag49
(g70
g51
NtRp5232
(dp5233
g54
(dp5234
g81
g82
ssg63
g5223
sg56
(lp5235
S':'
asbag49
(g70
g51
NtRp5236
(dp5237
g54
(dp5238
sg63
g5223
sg56
(lp5239
g49
(g50
g51
NtRp5240
(dp5241
g54
(dp5242
g62
I4
ssg63
g5236
sg56
(lp5243
S'Your Name <you@example.com>'
p5244
asbasbasbag49
(g65
g51
NtRp5245
(dp5246
g54
(dp5247
sg63
g5219
sg56
(lp5248
g49
(g70
g51
NtRp5249
(dp5250
g54
(dp5251
g74
g75
ssg63
g5245
sg56
(lp5252
S'copyright'
p5253
asbag49
(g70
g51
NtRp5254
(dp5255
g54
(dp5256
g81
g82
ssg63
g5245
sg56
(lp5257
S':'
asbag49
(g70
g51
NtRp5258
(dp5259
g54
(dp5260
sg63
g5245
sg56
(lp5261
g49
(g50
g51
NtRp5262
(dp5263
g54
(dp5264
g62
I4
ssg63
g5258
sg56
(lp5265
S'Copyright 2011'
p5266
asbasbasbag49
(g65
g51
NtRp5267
(dp5268
g54
(dp5269
sg63
g5219
sg56
(lp5270
g49
(g70
g51
NtRp5271
(dp5272
g54
(dp5273
g74
g75
ssg63
g5267
sg56
(lp5274
S'description'
p5275
asbag49
(g70
g51
NtRp5276
(dp5277
g54
(dp5278
g81
g82
ssg63
g5267
sg56
(lp5279
S':'
asbag49
(g70
g51
NtRp5280
(dp5281
g54
(dp5282
sg63
g5267
sg56
(lp5283
g49
(g50
g51
NtRp5284
(dp5285
g54
(dp5286
g62
I4
ssg63
g5280
sg56
(lp5287
S'a cool new app'
p5288
asbasbasbag49
(g65
g51
NtRp5289
(dp5290
g54
(dp5291
sg63
g5219
sg56
(lp5292
g49
(g70
g51
NtRp5293
(dp5294
g54
(dp5295
g74
g75
ssg63
g5289
sg56
(lp5296
S'generator'
p5297
asbag49
(g70
g51
NtRp5298
(dp5299
g54
(dp5300
g81
g82
ssg63
g5289
sg56
(lp5301
S':'
asbag49
(g70
g51
NtRp5302
(dp5303
g54
(dp5304
sg63
g5289
sg56
(lp5305
g49
(g50
g51
NtRp5306
(dp5307
g54
(dp5308
g62
I4
ssg63
g5302
sg56
(lp5309
S'Web2py Web Framework'
p5310
asbasbasbag49
(g65
g51
NtRp5311
(dp5312
g54
(dp5313
sg63
g5219
sg56
(lp5314
g49
(g70
g51
NtRp5315
(dp5316
g54
(dp5317
g74
g75
ssg63
g5311
sg56
(lp5318
S'keywords'
p5319
asbag49
(g70
g51
NtRp5320
(dp5321
g54
(dp5322
g81
g82
ssg63
g5311
sg56
(lp5323
S':'
asbag49
(g70
g51
NtRp5324
(dp5325
g54
(dp5326
sg63
g5311
sg56
(lp5327
g49
(g50
g51
NtRp5328
(dp5329
g54
(dp5330
g62
I4
ssg63
g5324
sg56
(lp5331
S'web2py, python, framework'
p5332
asbasbasbasbasbasbasbag49
(g65
g51
NtRp5333
(dp5334
g54
(dp5335
sg63
g3497
sg56
(lp5336
g49
(g70
g51
NtRp5337
(dp5338
g54
(dp5339
g74
g75
ssg63
g5333
sg56
(lp5340
S'postprocessing'
p5341
asbag49
(g70
g51
NtRp5342
(dp5343
g54
(dp5344
g81
g82
ssg63
g5333
sg56
(lp5345
S':'
asbag49
(g70
g51
NtRp5346
(dp5347
g54
(dp5348
sg63
g5333
sg56
(lp5349
g49
(g50
g51
NtRp5350
(dp5351
g54
(dp5352
g62
I5
ssg63
g5346
sg56
(lp5353
g49
(g58
g51
NtRp5354
(dp5355
g54
(dp5356
g62
I4
ssg63
Nsg56
(lp5357
sbasbasbasbag49
(g65
g51
NtRp5358
(dp5359
g54
(dp5360
sg63
g3497
sg56
(lp5361
g49
(g70
g51
NtRp5362
(dp5363
g54
(dp5364
g74
g75
ssg63
g5358
sg56
(lp5365
S'session_file'
p5366
asbag49
(g70
g51
NtRp5367
(dp5368
g54
(dp5369
g81
g82
ssg63
g5358
sg56
(lp5370
S':'
asbag49
(g70
g51
NtRp5371
(dp5372
g54
(dp5373
sg63
g5358
sg56
(lp5374
g49
(g50
g51
NtRp5375
(dp5376
g54
(dp5377
g62
I5
ssg63
g5371
sg56
(lp5378
S"<open file 'C:\\web2py\\applications\\unioeste_code\\sessions\\127.0.0.1-bc48ac14-a4c3-4aad-bdf5-edbbf68c575e', mode 'rb+' at 0x067F6968>"
p5379
asbasbasbag49
(g65
g51
NtRp5380
(dp5381
g54
(dp5382
sg63
g3497
sg56
(lp5383
g49
(g70
g51
NtRp5384
(dp5385
g54
(dp5386
g74
g75
ssg63
g5380
sg56
(lp5387
S'session_filename'
p5388
asbag49
(g70
g51
NtRp5389
(dp5390
g54
(dp5391
g81
g82
ssg63
g5380
sg56
(lp5392
S':'
asbag49
(g70
g51
NtRp5393
(dp5394
g54
(dp5395
sg63
g5380
sg56
(lp5396
g49
(g50
g51
NtRp5397
(dp5398
g54
(dp5399
g62
I5
ssg63
g5393
sg56
(lp5400
S'C:\\web2py\\applications\\unioeste_code\\sessions\\127.0.0.1-bc48ac14-a4c3-4aad-bdf5-edbbf68c575e'
p5401
asbasbasbag49
(g65
g51
NtRp5402
(dp5403
g54
(dp5404
sg63
g3497
sg56
(lp5405
g49
(g70
g51
NtRp5406
(dp5407
g54
(dp5408
g74
g75
ssg63
g5402
sg56
(lp5409
S'session_id'
p5410
asbag49
(g70
g51
NtRp5411
(dp5412
g54
(dp5413
g81
g82
ssg63
g5402
sg56
(lp5414
S':'
asbag49
(g70
g51
NtRp5415
(dp5416
g54
(dp5417
sg63
g5402
sg56
(lp5418
g49
(g50
g51
NtRp5419
(dp5420
g54
(dp5421
g62
I5
ssg63
g5415
sg56
(lp5422
S'127.0.0.1-bc48ac14-a4c3-4aad-bdf5-edbbf68c575e'
p5423
asbasbasbag49
(g65
g51
NtRp5424
(dp5425
g54
(dp5426
sg63
g3497
sg56
(lp5427
g49
(g70
g51
NtRp5428
(dp5429
g54
(dp5430
g74
g75
ssg63
g5424
sg56
(lp5431
S'session_id_name'
p5432
asbag49
(g70
g51
NtRp5433
(dp5434
g54
(dp5435
g81
g82
ssg63
g5424
sg56
(lp5436
S':'
asbag49
(g70
g51
NtRp5437
(dp5438
g54
(dp5439
sg63
g5424
sg56
(lp5440
g49
(g50
g51
NtRp5441
(dp5442
g54
(dp5443
g62
I5
ssg63
g5437
sg56
(lp5444
g3554
asbasbasbag49
(g65
g51
NtRp5445
(dp5446
g54
(dp5447
sg63
g3497
sg56
(lp5448
g49
(g70
g51
NtRp5449
(dp5450
g54
(dp5451
g74
g75
ssg63
g5445
sg56
(lp5452
S'session_locked'
p5453
asbag49
(g70
g51
NtRp5454
(dp5455
g54
(dp5456
g81
g82
ssg63
g5445
sg56
(lp5457
S':'
asbag49
(g70
g51
NtRp5458
(dp5459
g54
(dp5460
sg63
g5445
sg56
(lp5461
g49
(g50
g51
NtRp5462
(dp5463
g54
(dp5464
g62
I5
ssg63
g5458
sg56
(lp5465
g1664
asbasbasbag49
(g65
g51
NtRp5466
(dp5467
g54
(dp5468
sg63
g3497
sg56
(lp5469
g49
(g70
g51
NtRp5470
(dp5471
g54
(dp5472
g74
g75
ssg63
g5466
sg56
(lp5473
S'session_new'
p5474
asbag49
(g70
g51
NtRp5475
(dp5476
g54
(dp5477
g81
g82
ssg63
g5466
sg56
(lp5478
S':'
asbag49
(g70
g51
NtRp5479
(dp5480
g54
(dp5481
sg63
g5466
sg56
(lp5482
g49
(g50
g51
NtRp5483
(dp5484
g54
(dp5485
g62
I5
ssg63
g5479
sg56
(lp5486
g92
asbasbasbag49
(g65
g51
NtRp5487
(dp5488
g54
(dp5489
sg63
g3497
sg56
(lp5490
g49
(g70
g51
NtRp5491
(dp5492
g54
(dp5493
g74
g75
ssg63
g5487
sg56
(lp5494
S'status'
p5495
asbag49
(g70
g51
NtRp5496
(dp5497
g54
(dp5498
g81
g82
ssg63
g5487
sg56
(lp5499
S':'
asbag49
(g70
g51
NtRp5500
(dp5501
g54
(dp5502
sg63
g5487
sg56
(lp5503
g49
(g50
g51
NtRp5504
(dp5505
g54
(dp5506
g62
I5
ssg63
g5500
sg56
(lp5507
S'200'
p5508
asbasbasbag49
(g65
g51
NtRp5509
(dp5510
g54
(dp5511
sg63
g3497
sg56
(lp5512
g49
(g70
g51
NtRp5513
(dp5514
g54
(dp5515
g74
g75
ssg63
g5509
sg56
(lp5516
S'subtitle'
p5517
asbag49
(g70
g51
NtRp5518
(dp5519
g54
(dp5520
g81
g82
ssg63
g5509
sg56
(lp5521
S':'
asbag49
(g70
g51
NtRp5522
(dp5523
g54
(dp5524
sg63
g5509
sg56
(lp5525
g49
(g50
g51
NtRp5526
(dp5527
g54
(dp5528
g62
I5
ssg63
g5522
sg56
(lp5529
g4126
(S's\x0f\x00\x00\x00Personalize-me!'
tRp5530
asbasbasbag49
(g65
g51
NtRp5531
(dp5532
g54
(dp5533
sg63
g3497
sg56
(lp5534
g49
(g70
g51
NtRp5535
(dp5536
g54
(dp5537
g74
g75
ssg63
g5531
sg56
(lp5538
S'title'
p5539
asbag49
(g70
g51
NtRp5540
(dp5541
g54
(dp5542
g81
g82
ssg63
g5531
sg56
(lp5543
S':'
asbag49
(g70
g51
NtRp5544
(dp5545
g54
(dp5546
sg63
g5531
sg56
(lp5547
g49
(g50
g51
NtRp5548
(dp5549
g54
(dp5550
g62
I5
ssg63
g5544
sg56
(lp5551
S'Unioeste Code'
p5552
asbasbasbag49
(g65
g51
NtRp5553
(dp5554
g54
(dp5555
sg63
g3497
sg56
(lp5556
g49
(g70
g51
NtRp5557
(dp5558
g54
(dp5559
g74
g75
ssg63
g5553
sg56
(lp5560
g2349
asbag49
(g70
g51
NtRp5561
(dp5562
g54
(dp5563
g81
g82
ssg63
g5553
sg56
(lp5564
S':'
asbag49
(g70
g51
NtRp5565
(dp5566
g54
(dp5567
sg63
g5553
sg56
(lp5568
g49
(g50
g51
NtRp5569
(dp5570
g54
(dp5571
g62
I5
ssg63
g5565
sg56
(lp5572
g2362
asbasbasbag49
(g65
g51
NtRp5573
(dp5574
g54
(dp5575
sg63
g3497
sg56
(lp5576
g49
(g70
g51
NtRp5577
(dp5578
g54
(dp5579
g74
g75
ssg63
g5573
sg56
(lp5580
S'view'
p5581
asbag49
(g70
g51
NtRp5582
(dp5583
g54
(dp5584
g81
g82
ssg63
g5573
sg56
(lp5585
S':'
asbag49
(g70
g51
NtRp5586
(dp5587
g54
(dp5588
sg63
g5573
sg56
(lp5589
g49
(g50
g51
NtRp5590
(dp5591
g54
(dp5592
g62
I5
ssg63
g5586
sg56
(lp5593
S'default/Problem.html'
p5594
asbasbasbasbasbsS'locals'
p5595
(dp5596
S'fromlist'
p5597
S"('shortify',)"
p5598
sS'name'
p5599
S"'uc_utils'"
p5600
sg62
S'-1'
p5601
sS'self'
p5602
S'<gluon.custom_import._Web2pyImporter object at 0x030613B0>'
p5603
sS'globals'
p5604
S"{'A': <class 'gluon.html.A'>, 'Auth': <class 'gluon.tools.Auth'>, 'B': <class 'gluon.html.B'>, 'BEAUTIFY': <class 'gluon.html.BEAUTIFY'>, 'BODY': <class 'gluon.html.BODY'>, 'BR': <class 'gluon.html.BR'>, 'BUTTON': <class 'gluon.html.BUTTON'>, 'CAT': <class 'gluon.html.CAT'>, 'CENTER': <class 'gluon.html.CENTER'>, 'CLEANUP': <class 'gluon.validators.CLEANUP'>, ...}"
p5605
sg5595
S"{'A': <class 'gluon.html.A'>, 'Auth': <class 'gluon.tools.Auth'>, 'B': <class 'gluon.html.B'>, 'BEAUTIFY': <class 'gluon.html.BEAUTIFY'>, 'BODY': <class 'gluon.html.BODY'>, 'BR': <class 'gluon.html.BR'>, 'BUTTON': <class 'gluon.html.BUTTON'>, 'CAT': <class 'gluon.html.CAT'>, 'CENTER': <class 'gluon.html.CENTER'>, 'CLEANUP': <class 'gluon.validators.CLEANUP'>, ...}"
p5606
sssS'traceback'
p5607
S'Traceback (most recent call last):\n  File "gluon/restricted.py", line 205, in restricted\n  File "C:\\web2py\\applications\\unioeste_code\\views\\default/Problem.html", line 81, in <module>\n  File "gluon/custom_import.py", line 293, in __call__\n  File "gluon/custom_import.py", line 78, in __call__\nImportError: No module named uc_utils\n'
p5608
s.