(dp1
S'output'
p2
S"<type 'exceptions.AttributeError'> 'property' object has no attribute 'setter'"
p3
sS'layer'
p4
S'C:\\web2py\\applications\\unioeste_code\\views\\default/index.html'
p5
sS'code'
p6
S'response.write(\'<!DOCTYPE html>\\n<!-- paulirish.com/2008/conditional-stylesheets-vs-css-hacks-answer-neither/ -->\\n<!--[if lt IE 7]><html class="ie ie6 ie-lte9 ie-lte8 ie-lte7 no-js" lang="\', escape=False)\nresponse.write(T.accepted_language or \'en\')\nresponse.write(\'"> <![endif]-->\\n<!--[if IE 7]><html class="ie ie7 ie-lte9 ie-lte8 ie-lte7 no-js" lang="\', escape=False)\nresponse.write(T.accepted_language or \'en\')\nresponse.write(\'"> <![endif]-->\\n<!--[if IE 8]><html class="ie ie8 ie-lte9 ie-lte8 no-js" lang="\', escape=False)\nresponse.write(T.accepted_language or \'en\')\nresponse.write(\'"> <![endif]-->\\n<!--[if IE 9]><html class="ie9 ie-lte9 no-js" lang="\', escape=False)\nresponse.write(T.accepted_language or \'en\')\nresponse.write(\'"> <![endif]-->\\n<!--[if (gt IE 9)|!(IE)]><!--> <html class="no-js" lang="\', escape=False)\nresponse.write(T.accepted_language or \'en\')\nresponse.write(\'"> <!--<![endif]-->\\n<head>\\n  <meta charset="utf-8" />\\n  <!-- www.phpied.com/conditional-comments-block-downloads/ -->\\n  <!-- Always force latest IE rendering engine\\n\\t   (even in intranet) & Chrome Frame\\n\\t   Remove this if you use the .htaccess -->\\n  <!--[if IE]>\\n    <meta http-equiv="X-UA-Compatible" content="IE=edge\', escape=False)\nresponse.write(not request.is_local and \',chrome=1\' or \'\')\nresponse.write(\'">\\n  <![endif]-->\\n  \\n  <title>\', escape=False)\nresponse.write(response.title or request.application)\nresponse.write(\'</title>\\n  \\n  <!-- http://dev.w3.org/html5/markup/meta.name.html -->\\n  <meta name="application-name" content="\', escape=False)\nresponse.write(request.application)\nresponse.write(\'" />\\n  \\n  <!-- Speaking of Google, don\\\'t forget to set your site up:\\n\\t   http://google.com/webmasters -->\\n  <meta name="google-site-verification" content="" />\\n\\n  <!--  Mobile Viewport Fix\\n\\t  j.mp/mobileviewport & davidbcalhoun.com/2010/viewport-metatag\\n\\t  device-width: Occupy full width of the screen in its current orientation\\n\\t  initial-scale = 1.0 retains dimensions instead of zooming out if page height > device height\\n\\t  user-scalable = yes allows the user to zoom in -->\\n  <meta name="viewport" content="width=device-width, initial-scale=1.0, user-scalable=yes">\\n  \\n  <!-- Place favicon.ico and apple-touch-icon.png in the root of your domain and delete these references -->\\n  <link rel="shortcut icon" href="\', escape=False)\nresponse.write(URL(\'static\',\'favicon.ico\'))\nresponse.write(\'" type="image/x-icon">\\n  <link rel="apple-touch-icon" href="\', escape=False)\nresponse.write(URL(\'static\',\'favicon.png\'))\nresponse.write(\'">\\n\\n  <!-- All JavaScript at the bottom, except for Modernizr which enables \\n\\t   HTML5 elements & feature detects -->\\n  <script src="\', escape=False)\nresponse.write(URL(\'static\',\'js/modernizr.custom.js\'))\nresponse.write(\'"></script>  \\n\\n  <!-- include stylesheets -->\\n  \', escape=False)\nresponse.files.append(URL(\'static\',\'css/skeleton.css\'))\nresponse.files.append(URL(\'static\',\'css/web2py.css\'))\nif response.menu:\n    response.files.append(URL(\'static\',\'css/superfish.css\'))\n    response.files.append(URL(\'static\',\'js/superfish.js\'))\n    pass\nresponse.write(\'\\n\\n  \', escape=False)\nresponse.write(\'<script type="text/javascript"><!--\\n    // These variables are used by the web2py_ajax_init function in web2py_ajax.js (which is loaded below).\\n    var w2p_ajax_confirm_message = "\', escape=False)\nresponse.write(T(\'Are you sure you want to delete this object?\'))\nresponse.write(\'";\\n    var w2p_ajax_date_format = "\', escape=False)\nresponse.write(T(\'%Y-%m-%d\'))\nresponse.write(\'";\\n    var w2p_ajax_datetime_format = "\', escape=False)\nresponse.write(T(\'%Y-%m-%d %H:%M:%S\'))\nresponse.write(\'";\\n    //--></script>\\n\', escape=False)\nresponse.files.insert(0,URL(\'static\',\'js/jquery.js\'))\nresponse.files.insert(1,URL(\'static\',\'css/calendar.css\'))\nresponse.files.insert(2,URL(\'static\',\'js/calendar.js\'))\nresponse.files.insert(3,URL(\'static\',\'js/web2py.js\'))\nresponse.include_meta()\nresponse.include_files()\nresponse.write(\'\\n\', escape=False)\nresponse.write(\'\\n\\n  \', escape=False)\nif response.menu:\n    response.write(\'\\n  <script type="text/javascript">\\n    jQuery(function(){ jQuery(\\\'ul.sf-menu\\\').supersubs({minWidth:12,maxWidth:30,extraWidth:3}).superfish(); });\\n  </script>\\n  \', escape=False)\n    pass\nresponse.write(\'\\n\\n  \', escape=False)\n# using sidebars need to know what sidebar you want to use\nleft_sidebar_enabled = globals().get(\'left_sidebar_enabled\',False)\nright_sidebar_enabled = globals().get(\'right_sidebar_enabled\',False)\nmiddle_columns = {0:\'sixteen\',1:\'twelve\',2:\'eight\'}[\n(left_sidebar_enabled and 1 or 0)+(right_sidebar_enabled and 1 or 0)]\nresponse.write(\'\\n\\n  <!-- uncomment here to load jquery-ui\\n  <link rel="stylesheet" href="http://ajax.googleapis.com/ajax/libs/jqueryui/1.8.16/themes/base/jquery-ui.css" type="text/css" media="all" />\\n  <script src="http://ajax.googleapis.com/ajax/libs/jqueryui/1.8.16/jquery-ui.min.js" type="text/javascript"></script>\\n  uncomment to load jquery-ui //-->\\n</head>\\n<body>\\n  <div class="wrapper"><!-- for sticky footer -->\\n  \\n    <div class="topbar">\\n      <div class="container">    \\n        <div class="sixteen columns">\\n          <div id="navbar">\', escape=False)\nresponse.write(\'auth\' in globals() and auth.navbar(separators=(\' \',\' | \',\'\')))\nresponse.write(\'</div>\\n          \', escape=False)\nis_mobile=request.user_agent().is_mobile\nresponse.write(\'\\n\\t  \', escape=False)\nif response.menu:\n    response.write(\'\\n          <div id="menu">\\n             \', escape=False)\n    response.write(MENU(response.menu, _class=\'mobile-menu\' if is_mobile else \'sf-menu\',mobile=is_mobile))\n    response.write(\'\\n          </div>\\n          \', escape=False)\n    pass\nresponse.write(\'\\n        </div>\\n      </div>\\n    </div><!-- topbar -->\\n    \\n    <div class="flash">\', escape=False)\nresponse.write(response.flash or \'\')\nresponse.write(\'</div>\\n    \\n    <div class="header">\\n      <div class="container">         \\n        <div class="sixteen columns">\\n          <img src="\', escape=False)\nresponse.write(URL(\'static\',\'images/logo-code.png\'))\nresponse.write(\'" class="remove-bottom" style="margin-top: .5em;" />\\n          <!-- H5 subtitle-->\\n        </div>\\n        <div class="sixteen columns">\\n          <div style="border: 1px solid #000000; ">\\n            <div style="float:right; padding-top: .25em;" class="a2a_kit a2a_default_style">\\n            <a class="a2a_dd" href="http://www.addtoany.com/share_save">Share</a></div>\\n            <script type="text/javascript" src="http://static.addtoany.com/menu/page.js"></script>\\n          </div>\\n        </div>\\n      </div>\\n    </div>\\n\\n    <div class="main">\\n      <div class="container">                 \\n        \', escape=False)\nif left_sidebar_enabled:\n    response.write(\'\\n        <div class="four columns left-sidebar">\\n          \', escape=False)\n    response.write(\'\\n          <h3>Left Sidebar</h3>\\n          <p></p>\\n          \', escape=False)\n    response.write(\'\\n        </div>\\n        \', escape=False)\n    pass\nresponse.write(\'\\n        \\n        <div class="\', escape=False)\nresponse.write(middle_columns)\nresponse.write(\' columns center">\\n          \', escape=False)\nresponse.write(\'\\n          \', escape=False)\nresponse.write(\'\\n\\n\\n\', escape=False)\nresponse.write(H1(T("Current Problems")))\nresponse.write(\'\\n<ul>\\n\', escape=False)\nfor problem in problems:\n    response.write(\'\\n\', escape=False)\n    user = db(db.auth_user.id==problem.created_by).select().first()\n    response.write(\'\\n\', escape=False)\n    response.write(LI(A(problem.title, _style="font-weight:bold;",_href=URL("Problem", args=problem.id)), " by " + user.first_name + " " + user.last_name + " ", SPAN(prettydate(problem.created_on), _style="color:green;font-weight:bold;")))\n    response.write(\'\\n\', escape=False)\n    pass\nresponse.write(\'\\n\\n\\n\', escape=False)\nfrom pyGravatar import Gravatar\nresponse.write(\'\\n\', escape=False)\nIMG(_src=Gravatar(auth.user.email).thumb())\nresponse.write(\'\\n\\n\\n</ul>\\n\\n\', escape=False)\nresponse.write(\'\\n          \', escape=False)\nresponse.write(\'\\n        </div>\\n        \\n        \', escape=False)\nif right_sidebar_enabled:\n    response.write(\'\\n        <div class="four columns">\\n          \', escape=False)\n    response.write(\'\\n          <h3>Right Sidebar</h3>\\n          <p></p>\\n          \', escape=False)\n    response.write(\'\\n        </div>    \\n        \', escape=False)\n    pass\nresponse.write(\'\\n        \\n      </div><!-- container -->\\n    </div><!-- main -->\\n    \\n    <div class="push"></div>\\n  </div><!-- wrapper -->\\n\\n  <div class="footer">\\n    <div class="container">    \\n      <div class="sixteen columns">\\n        \', escape=False)\nresponse.write(\' <!-- this is default footer -->\\n        <div class="footer-content clearfix">\\n            <div style="float: left;">\\n            <a href="https://developers.google.com//"> \\n            <img style="padding-left: 8em; padding-bottom:1em; " src="https://developers.google.com/appengine/images/appengine-noborder-120x30.gif" alt="Powered by Google App Engine"/>\\n            </a>\\n          </div>\\n          <div class="footer-content clearfix">\\n            <div style="float: left;   ">\\n            <a href="http://www.python.org/"> \\n            <img style="" src="http://www.python.org/community/logos/python-powered-w-70x28.png" alt="Powered by Python"/>\\n            </a>\\n          </div>\\n          <div style="padding-left: 19.5em; padding-top: 0.25em;">\\n            <a href="http://www.web2py.com/">\\n            <img style="" src="\', escape=False)\nresponse.write(URL(\'static\',\'images/poweredby.png\'))\nresponse.write(\'"/>\\n            </a>\\n          </div>\\n        </div>\\n        \', escape=False)\nresponse.write(\'\\t\\n      </div>\\n    </div><!-- container -->\\n  </div><!-- footer -->\\n  \\n  <!--[if lt IE 7 ]>\\n\\t<script src="\', escape=False)\nresponse.write(URL(\'static\',\'js/dd_belatedpng.js\'))\nresponse.write(\'"></script>\\n\\t<script> DD_belatedPNG.fix(\\\'img, .png_bg\\\'); //fix any <img> or .png_bg background-images </script>\\n\\t<![endif]-->\\n  \', escape=False)\nif response.google_analytics_id:\n    response.write(\'<script type="text/javascript"> var _gaq = _gaq || []; _gaq.push([\\\'_setAccount\\\', \\\'\', escape=False)\n    response.write(response.google_analytics_id)\n    response.write("\']); _gaq.push([\'_trackPageview\']); (function() { var ga = document.createElement(\'script\'); ga.type = \'text/javascript\'; ga.async = true; ga.src = (\'https:\' == document.location.protocol ? \'https://ssl\' : \'http://www\') + \'.google-analytics.com/ga.js\'; var s = document.getElementsByTagName(\'script\')[0]; s.parentNode.insertBefore(ga, s); })(); </script> ", escape=False)\n    pass\nresponse.write(\'\\n</body>\\n</html>\\n\', escape=False)'
p7
sS'snapshot'
p8
(dp9
S'exception'
p10
(dp11
S'__hash__'
p12
S"<method-wrapper '__hash__' of exceptions.AttributeError object at 0x06EF2120>"
p13
sS'__setattr__'
p14
S"<method-wrapper '__setattr__' of exceptions.AttributeError object at 0x06EF2120>"
p15
sS'__reduce_ex__'
p16
S'<built-in method __reduce_ex__ of exceptions.AttributeError object at 0x06EF2120>'
p17
sS'__getslice__'
p18
S"<method-wrapper '__getslice__' of exceptions.AttributeError object at 0x06EF2120>"
p19
sS'__getitem__'
p20
S"<method-wrapper '__getitem__' of exceptions.AttributeError object at 0x06EF2120>"
p21
sS'__setstate__'
p22
S'<built-in method __setstate__ of exceptions.AttributeError object at 0x06EF2120>'
p23
sS'__reduce__'
p24
S'<built-in method __reduce__ of exceptions.AttributeError object at 0x06EF2120>'
p25
sS'__str__'
p26
S"<method-wrapper '__str__' of exceptions.AttributeError object at 0x06EF2120>"
p27
sS'args'
p28
S'("\'property\' object has no attribute \'setter\'",)'
p29
sS'__getattribute__'
p30
S"<method-wrapper '__getattribute__' of exceptions.AttributeError object at 0x06EF2120>"
p31
sS'__class__'
p32
S"<type 'exceptions.AttributeError'>"
p33
sS'__delattr__'
p34
S"<method-wrapper '__delattr__' of exceptions.AttributeError object at 0x06EF2120>"
p35
sS'__repr__'
p36
S"<method-wrapper '__repr__' of exceptions.AttributeError object at 0x06EF2120>"
p37
sS'__dict__'
p38
S'{}'
p39
sS'__doc__'
p40
S"'Attribute not found.'"
p41
sS'__init__'
p42
S"<method-wrapper '__init__' of exceptions.AttributeError object at 0x06EF2120>"
p43
sS'__new__'
p44
S'<built-in method __new__ of type object at 0x1E1CDA68>'
p45
ssS'evalue'
p46
S"'property' object has no attribute 'setter'"
p47
sS'request'
p48
ccopy_reg
_reconstructor
p49
(cgluon.html
BEAUTIFY
p50
c__builtin__
object
p51
NtRp52
(dp53
S'attributes'
p54
(dp55
sS'components'
p56
(lp57
g49
(cgluon.html
TABLE
p58
g51
NtRp59
(dp60
g54
(dp61
S'level'
p62
I5
ssS'parent'
p63
Nsg56
(lp64
g49
(cgluon.html
TR
p65
g51
NtRp66
(dp67
g54
(dp68
sg63
g59
sg56
(lp69
g49
(cgluon.html
TD
p70
g51
NtRp71
(dp72
g54
(dp73
S'_style'
p74
S'font-weight:bold;vertical-align:top'
p75
ssg63
g66
sg56
(lp76
S'ajax'
p77
asbag49
(g70
g51
NtRp78
(dp79
g54
(dp80
S'_valign'
p81
S'top'
p82
ssg63
g66
sg56
(lp83
S':'
asbag49
(g70
g51
NtRp84
(dp85
g54
(dp86
sg63
g66
sg56
(lp87
g49
(g50
g51
NtRp88
(dp89
g54
(dp90
g62
I5
ssg63
g84
sg56
(lp91
S'False'
p92
asbasbasbag49
(g65
g51
NtRp93
(dp94
g54
(dp95
sg63
g59
sg56
(lp96
g49
(g70
g51
NtRp97
(dp98
g54
(dp99
g74
g75
ssg63
g93
sg56
(lp100
S'application'
p101
asbag49
(g70
g51
NtRp102
(dp103
g54
(dp104
g81
g82
ssg63
g93
sg56
(lp105
S':'
asbag49
(g70
g51
NtRp106
(dp107
g54
(dp108
sg63
g93
sg56
(lp109
g49
(g50
g51
NtRp110
(dp111
g54
(dp112
g62
I5
ssg63
g106
sg56
(lp113
S'unioeste_code'
p114
asbasbasbag49
(g65
g51
NtRp115
(dp116
g54
(dp117
sg63
g59
sg56
(lp118
g49
(g70
g51
NtRp119
(dp120
g54
(dp121
g74
g75
ssg63
g115
sg56
(lp122
g28
asbag49
(g70
g51
NtRp123
(dp124
g54
(dp125
g81
g82
ssg63
g115
sg56
(lp126
S':'
asbag49
(g70
g51
NtRp127
(dp128
g54
(dp129
sg63
g115
sg56
(lp130
g49
(g50
g51
NtRp131
(dp132
g54
(dp133
g62
I5
ssg63
g127
sg56
(lp134
g49
(g58
g51
NtRp135
(dp136
g54
(dp137
g62
I4
ssg63
Nsg56
(lp138
sbasbasbasbag49
(g65
g51
NtRp139
(dp140
g54
(dp141
sg63
g59
sg56
(lp142
g49
(g70
g51
NtRp143
(dp144
g54
(dp145
g74
g75
ssg63
g139
sg56
(lp146
S'body'
p147
asbag49
(g70
g51
NtRp148
(dp149
g54
(dp150
g81
g82
ssg63
g139
sg56
(lp151
S':'
asbag49
(g70
g51
NtRp152
(dp153
g54
(dp154
sg63
g139
sg56
(lp155
g49
(g50
g51
NtRp156
(dp157
g54
(dp158
g62
I5
ssg63
g152
sg56
(lp159
S'<cStringIO.StringO object at 0x06CA05A0>'
p160
asbasbasbag49
(g65
g51
NtRp161
(dp162
g54
(dp163
sg63
g59
sg56
(lp164
g49
(g70
g51
NtRp165
(dp166
g54
(dp167
g74
g75
ssg63
g161
sg56
(lp168
S'client'
p169
asbag49
(g70
g51
NtRp170
(dp171
g54
(dp172
g81
g82
ssg63
g161
sg56
(lp173
S':'
asbag49
(g70
g51
NtRp174
(dp175
g54
(dp176
sg63
g161
sg56
(lp177
g49
(g50
g51
NtRp178
(dp179
g54
(dp180
g62
I5
ssg63
g174
sg56
(lp181
S'127.0.0.1'
p182
asbasbasbag49
(g65
g51
NtRp183
(dp184
g54
(dp185
sg63
g59
sg56
(lp186
g49
(g70
g51
NtRp187
(dp188
g54
(dp189
g74
g75
ssg63
g183
sg56
(lp190
S'controller'
p191
asbag49
(g70
g51
NtRp192
(dp193
g54
(dp194
g81
g82
ssg63
g183
sg56
(lp195
S':'
asbag49
(g70
g51
NtRp196
(dp197
g54
(dp198
sg63
g183
sg56
(lp199
g49
(g50
g51
NtRp200
(dp201
g54
(dp202
g62
I5
ssg63
g196
sg56
(lp203
S'default'
p204
asbasbasbag49
(g65
g51
NtRp205
(dp206
g54
(dp207
sg63
g59
sg56
(lp208
g49
(g70
g51
NtRp209
(dp210
g54
(dp211
g74
g75
ssg63
g205
sg56
(lp212
S'cookies'
p213
asbag49
(g70
g51
NtRp214
(dp215
g54
(dp216
g81
g82
ssg63
g205
sg56
(lp217
S':'
asbag49
(g70
g51
NtRp218
(dp219
g54
(dp220
sg63
g205
sg56
(lp221
g49
(g50
g51
NtRp222
(dp223
g54
(dp224
g62
I5
ssg63
g218
sg56
(lp225
g49
(g58
g51
NtRp226
(dp227
g54
(dp228
g62
I4
ssg63
Nsg56
(lp229
g49
(g65
g51
NtRp230
(dp231
g54
(dp232
sg63
g226
sg56
(lp233
g49
(g70
g51
NtRp234
(dp235
g54
(dp236
g74
g75
ssg63
g230
sg56
(lp237
S'session_id_admin'
p238
asbag49
(g70
g51
NtRp239
(dp240
g54
(dp241
g81
g82
ssg63
g230
sg56
(lp242
S':'
asbag49
(g70
g51
NtRp243
(dp244
g54
(dp245
sg63
g230
sg56
(lp246
g49
(g50
g51
NtRp247
(dp248
g54
(dp249
g62
I4
ssg63
g243
sg56
(lp250
g49
(g58
g51
NtRp251
(dp252
g54
(dp253
g62
I3
ssg63
Nsg56
(lp254
g49
(g65
g51
NtRp255
(dp256
g54
(dp257
sg63
g251
sg56
(lp258
g49
(g70
g51
NtRp259
(dp260
g54
(dp261
g74
g75
ssg63
g255
sg56
(lp262
S'comment'
p263
asbag49
(g70
g51
NtRp264
(dp265
g54
(dp266
g81
g82
ssg63
g255
sg56
(lp267
S':'
asbag49
(g70
g51
NtRp268
(dp269
g54
(dp270
sg63
g255
sg56
(lp271
g49
(g50
g51
NtRp272
(dp273
g54
(dp274
g62
I3
ssg63
g268
sg56
(lp275
S''
asbasbasbag49
(g65
g51
NtRp276
(dp277
g54
(dp278
sg63
g251
sg56
(lp279
g49
(g70
g51
NtRp280
(dp281
g54
(dp282
g74
g75
ssg63
g276
sg56
(lp283
S'domain'
p284
asbag49
(g70
g51
NtRp285
(dp286
g54
(dp287
g81
g82
ssg63
g276
sg56
(lp288
S':'
asbag49
(g70
g51
NtRp289
(dp290
g54
(dp291
sg63
g276
sg56
(lp292
g49
(g50
g51
NtRp293
(dp294
g54
(dp295
g62
I3
ssg63
g289
sg56
(lp296
S''
asbasbasbag49
(g65
g51
NtRp297
(dp298
g54
(dp299
sg63
g251
sg56
(lp300
g49
(g70
g51
NtRp301
(dp302
g54
(dp303
g74
g75
ssg63
g297
sg56
(lp304
S'expires'
p305
asbag49
(g70
g51
NtRp306
(dp307
g54
(dp308
g81
g82
ssg63
g297
sg56
(lp309
S':'
asbag49
(g70
g51
NtRp310
(dp311
g54
(dp312
sg63
g297
sg56
(lp313
g49
(g50
g51
NtRp314
(dp315
g54
(dp316
g62
I3
ssg63
g310
sg56
(lp317
S''
asbasbasbag49
(g65
g51
NtRp318
(dp319
g54
(dp320
sg63
g251
sg56
(lp321
g49
(g70
g51
NtRp322
(dp323
g54
(dp324
g74
g75
ssg63
g318
sg56
(lp325
S'max-age'
p326
asbag49
(g70
g51
NtRp327
(dp328
g54
(dp329
g81
g82
ssg63
g318
sg56
(lp330
S':'
asbag49
(g70
g51
NtRp331
(dp332
g54
(dp333
sg63
g318
sg56
(lp334
g49
(g50
g51
NtRp335
(dp336
g54
(dp337
g62
I3
ssg63
g331
sg56
(lp338
S''
asbasbasbag49
(g65
g51
NtRp339
(dp340
g54
(dp341
sg63
g251
sg56
(lp342
g49
(g70
g51
NtRp343
(dp344
g54
(dp345
g74
g75
ssg63
g339
sg56
(lp346
S'path'
p347
asbag49
(g70
g51
NtRp348
(dp349
g54
(dp350
g81
g82
ssg63
g339
sg56
(lp351
S':'
asbag49
(g70
g51
NtRp352
(dp353
g54
(dp354
sg63
g339
sg56
(lp355
g49
(g50
g51
NtRp356
(dp357
g54
(dp358
g62
I3
ssg63
g352
sg56
(lp359
S''
asbasbasbag49
(g65
g51
NtRp360
(dp361
g54
(dp362
sg63
g251
sg56
(lp363
g49
(g70
g51
NtRp364
(dp365
g54
(dp366
g74
g75
ssg63
g360
sg56
(lp367
S'secure'
p368
asbag49
(g70
g51
NtRp369
(dp370
g54
(dp371
g81
g82
ssg63
g360
sg56
(lp372
S':'
asbag49
(g70
g51
NtRp373
(dp374
g54
(dp375
sg63
g360
sg56
(lp376
g49
(g50
g51
NtRp377
(dp378
g54
(dp379
g62
I3
ssg63
g373
sg56
(lp380
S''
asbasbasbag49
(g65
g51
NtRp381
(dp382
g54
(dp383
sg63
g251
sg56
(lp384
g49
(g70
g51
NtRp385
(dp386
g54
(dp387
g74
g75
ssg63
g381
sg56
(lp388
S'version'
p389
asbag49
(g70
g51
NtRp390
(dp391
g54
(dp392
g81
g82
ssg63
g381
sg56
(lp393
S':'
asbag49
(g70
g51
NtRp394
(dp395
g54
(dp396
sg63
g381
sg56
(lp397
g49
(g50
g51
NtRp398
(dp399
g54
(dp400
g62
I3
ssg63
g394
sg56
(lp401
S''
asbasbasbasbasbasbasbag49
(g65
g51
NtRp402
(dp403
g54
(dp404
sg63
g226
sg56
(lp405
g49
(g70
g51
NtRp406
(dp407
g54
(dp408
g74
g75
ssg63
g402
sg56
(lp409
S'session_id_unioeste_code'
p410
asbag49
(g70
g51
NtRp411
(dp412
g54
(dp413
g81
g82
ssg63
g402
sg56
(lp414
S':'
asbag49
(g70
g51
NtRp415
(dp416
g54
(dp417
sg63
g402
sg56
(lp418
g49
(g50
g51
NtRp419
(dp420
g54
(dp421
g62
I4
ssg63
g415
sg56
(lp422
g49
(g58
g51
NtRp423
(dp424
g54
(dp425
g62
I3
ssg63
Nsg56
(lp426
g49
(g65
g51
NtRp427
(dp428
g54
(dp429
sg63
g423
sg56
(lp430
g49
(g70
g51
NtRp431
(dp432
g54
(dp433
g74
g75
ssg63
g427
sg56
(lp434
g263
asbag49
(g70
g51
NtRp435
(dp436
g54
(dp437
g81
g82
ssg63
g427
sg56
(lp438
S':'
asbag49
(g70
g51
NtRp439
(dp440
g54
(dp441
sg63
g427
sg56
(lp442
g49
(g50
g51
NtRp443
(dp444
g54
(dp445
g62
I3
ssg63
g439
sg56
(lp446
S''
asbasbasbag49
(g65
g51
NtRp447
(dp448
g54
(dp449
sg63
g423
sg56
(lp450
g49
(g70
g51
NtRp451
(dp452
g54
(dp453
g74
g75
ssg63
g447
sg56
(lp454
g284
asbag49
(g70
g51
NtRp455
(dp456
g54
(dp457
g81
g82
ssg63
g447
sg56
(lp458
S':'
asbag49
(g70
g51
NtRp459
(dp460
g54
(dp461
sg63
g447
sg56
(lp462
g49
(g50
g51
NtRp463
(dp464
g54
(dp465
g62
I3
ssg63
g459
sg56
(lp466
S''
asbasbasbag49
(g65
g51
NtRp467
(dp468
g54
(dp469
sg63
g423
sg56
(lp470
g49
(g70
g51
NtRp471
(dp472
g54
(dp473
g74
g75
ssg63
g467
sg56
(lp474
g305
asbag49
(g70
g51
NtRp475
(dp476
g54
(dp477
g81
g82
ssg63
g467
sg56
(lp478
S':'
asbag49
(g70
g51
NtRp479
(dp480
g54
(dp481
sg63
g467
sg56
(lp482
g49
(g50
g51
NtRp483
(dp484
g54
(dp485
g62
I3
ssg63
g479
sg56
(lp486
S''
asbasbasbag49
(g65
g51
NtRp487
(dp488
g54
(dp489
sg63
g423
sg56
(lp490
g49
(g70
g51
NtRp491
(dp492
g54
(dp493
g74
g75
ssg63
g487
sg56
(lp494
g326
asbag49
(g70
g51
NtRp495
(dp496
g54
(dp497
g81
g82
ssg63
g487
sg56
(lp498
S':'
asbag49
(g70
g51
NtRp499
(dp500
g54
(dp501
sg63
g487
sg56
(lp502
g49
(g50
g51
NtRp503
(dp504
g54
(dp505
g62
I3
ssg63
g499
sg56
(lp506
S''
asbasbasbag49
(g65
g51
NtRp507
(dp508
g54
(dp509
sg63
g423
sg56
(lp510
g49
(g70
g51
NtRp511
(dp512
g54
(dp513
g74
g75
ssg63
g507
sg56
(lp514
g347
asbag49
(g70
g51
NtRp515
(dp516
g54
(dp517
g81
g82
ssg63
g507
sg56
(lp518
S':'
asbag49
(g70
g51
NtRp519
(dp520
g54
(dp521
sg63
g507
sg56
(lp522
g49
(g50
g51
NtRp523
(dp524
g54
(dp525
g62
I3
ssg63
g519
sg56
(lp526
S''
asbasbasbag49
(g65
g51
NtRp527
(dp528
g54
(dp529
sg63
g423
sg56
(lp530
g49
(g70
g51
NtRp531
(dp532
g54
(dp533
g74
g75
ssg63
g527
sg56
(lp534
g368
asbag49
(g70
g51
NtRp535
(dp536
g54
(dp537
g81
g82
ssg63
g527
sg56
(lp538
S':'
asbag49
(g70
g51
NtRp539
(dp540
g54
(dp541
sg63
g527
sg56
(lp542
g49
(g50
g51
NtRp543
(dp544
g54
(dp545
g62
I3
ssg63
g539
sg56
(lp546
S''
asbasbasbag49
(g65
g51
NtRp547
(dp548
g54
(dp549
sg63
g423
sg56
(lp550
g49
(g70
g51
NtRp551
(dp552
g54
(dp553
g74
g75
ssg63
g547
sg56
(lp554
g389
asbag49
(g70
g51
NtRp555
(dp556
g54
(dp557
g81
g82
ssg63
g547
sg56
(lp558
S':'
asbag49
(g70
g51
NtRp559
(dp560
g54
(dp561
sg63
g547
sg56
(lp562
g49
(g50
g51
NtRp563
(dp564
g54
(dp565
g62
I3
ssg63
g559
sg56
(lp566
S''
asbasbasbasbasbasbasbag49
(g65
g51
NtRp567
(dp568
g54
(dp569
sg63
g226
sg56
(lp570
g49
(g70
g51
NtRp571
(dp572
g54
(dp573
g74
g75
ssg63
g567
sg56
(lp574
S'session_id_welcome'
p575
asbag49
(g70
g51
NtRp576
(dp577
g54
(dp578
g81
g82
ssg63
g567
sg56
(lp579
S':'
asbag49
(g70
g51
NtRp580
(dp581
g54
(dp582
sg63
g567
sg56
(lp583
g49
(g50
g51
NtRp584
(dp585
g54
(dp586
g62
I4
ssg63
g580
sg56
(lp587
g49
(g58
g51
NtRp588
(dp589
g54
(dp590
g62
I3
ssg63
Nsg56
(lp591
g49
(g65
g51
NtRp592
(dp593
g54
(dp594
sg63
g588
sg56
(lp595
g49
(g70
g51
NtRp596
(dp597
g54
(dp598
g74
g75
ssg63
g592
sg56
(lp599
g263
asbag49
(g70
g51
NtRp600
(dp601
g54
(dp602
g81
g82
ssg63
g592
sg56
(lp603
S':'
asbag49
(g70
g51
NtRp604
(dp605
g54
(dp606
sg63
g592
sg56
(lp607
g49
(g50
g51
NtRp608
(dp609
g54
(dp610
g62
I3
ssg63
g604
sg56
(lp611
S''
asbasbasbag49
(g65
g51
NtRp612
(dp613
g54
(dp614
sg63
g588
sg56
(lp615
g49
(g70
g51
NtRp616
(dp617
g54
(dp618
g74
g75
ssg63
g612
sg56
(lp619
g284
asbag49
(g70
g51
NtRp620
(dp621
g54
(dp622
g81
g82
ssg63
g612
sg56
(lp623
S':'
asbag49
(g70
g51
NtRp624
(dp625
g54
(dp626
sg63
g612
sg56
(lp627
g49
(g50
g51
NtRp628
(dp629
g54
(dp630
g62
I3
ssg63
g624
sg56
(lp631
S''
asbasbasbag49
(g65
g51
NtRp632
(dp633
g54
(dp634
sg63
g588
sg56
(lp635
g49
(g70
g51
NtRp636
(dp637
g54
(dp638
g74
g75
ssg63
g632
sg56
(lp639
g305
asbag49
(g70
g51
NtRp640
(dp641
g54
(dp642
g81
g82
ssg63
g632
sg56
(lp643
S':'
asbag49
(g70
g51
NtRp644
(dp645
g54
(dp646
sg63
g632
sg56
(lp647
g49
(g50
g51
NtRp648
(dp649
g54
(dp650
g62
I3
ssg63
g644
sg56
(lp651
S''
asbasbasbag49
(g65
g51
NtRp652
(dp653
g54
(dp654
sg63
g588
sg56
(lp655
g49
(g70
g51
NtRp656
(dp657
g54
(dp658
g74
g75
ssg63
g652
sg56
(lp659
g326
asbag49
(g70
g51
NtRp660
(dp661
g54
(dp662
g81
g82
ssg63
g652
sg56
(lp663
S':'
asbag49
(g70
g51
NtRp664
(dp665
g54
(dp666
sg63
g652
sg56
(lp667
g49
(g50
g51
NtRp668
(dp669
g54
(dp670
g62
I3
ssg63
g664
sg56
(lp671
S''
asbasbasbag49
(g65
g51
NtRp672
(dp673
g54
(dp674
sg63
g588
sg56
(lp675
g49
(g70
g51
NtRp676
(dp677
g54
(dp678
g74
g75
ssg63
g672
sg56
(lp679
g347
asbag49
(g70
g51
NtRp680
(dp681
g54
(dp682
g81
g82
ssg63
g672
sg56
(lp683
S':'
asbag49
(g70
g51
NtRp684
(dp685
g54
(dp686
sg63
g672
sg56
(lp687
g49
(g50
g51
NtRp688
(dp689
g54
(dp690
g62
I3
ssg63
g684
sg56
(lp691
S''
asbasbasbag49
(g65
g51
NtRp692
(dp693
g54
(dp694
sg63
g588
sg56
(lp695
g49
(g70
g51
NtRp696
(dp697
g54
(dp698
g74
g75
ssg63
g692
sg56
(lp699
g368
asbag49
(g70
g51
NtRp700
(dp701
g54
(dp702
g81
g82
ssg63
g692
sg56
(lp703
S':'
asbag49
(g70
g51
NtRp704
(dp705
g54
(dp706
sg63
g692
sg56
(lp707
g49
(g50
g51
NtRp708
(dp709
g54
(dp710
g62
I3
ssg63
g704
sg56
(lp711
S''
asbasbasbag49
(g65
g51
NtRp712
(dp713
g54
(dp714
sg63
g588
sg56
(lp715
g49
(g70
g51
NtRp716
(dp717
g54
(dp718
g74
g75
ssg63
g712
sg56
(lp719
g389
asbag49
(g70
g51
NtRp720
(dp721
g54
(dp722
g81
g82
ssg63
g712
sg56
(lp723
S':'
asbag49
(g70
g51
NtRp724
(dp725
g54
(dp726
sg63
g712
sg56
(lp727
g49
(g50
g51
NtRp728
(dp729
g54
(dp730
g62
I3
ssg63
g724
sg56
(lp731
S''
asbasbasbasbasbasbasbasbasbasbasbag49
(g65
g51
NtRp732
(dp733
g54
(dp734
sg63
g59
sg56
(lp735
g49
(g70
g51
NtRp736
(dp737
g54
(dp738
g74
g75
ssg63
g732
sg56
(lp739
S'env'
p740
asbag49
(g70
g51
NtRp741
(dp742
g54
(dp743
g81
g82
ssg63
g732
sg56
(lp744
S':'
asbag49
(g70
g51
NtRp745
(dp746
g54
(dp747
sg63
g732
sg56
(lp748
g49
(g50
g51
NtRp749
(dp750
g54
(dp751
g62
I5
ssg63
g745
sg56
(lp752
g49
(g58
g51
NtRp753
(dp754
g54
(dp755
g62
I4
ssg63
Nsg56
(lp756
g49
(g65
g51
NtRp757
(dp758
g54
(dp759
sg63
g753
sg56
(lp760
g49
(g70
g51
NtRp761
(dp762
g54
(dp763
g74
g75
ssg63
g757
sg56
(lp764
S'app_folders'
p765
asbag49
(g70
g51
NtRp766
(dp767
g54
(dp768
g81
g82
ssg63
g757
sg56
(lp769
S':'
asbag49
(g70
g51
NtRp770
(dp771
g54
(dp772
sg63
g757
sg56
(lp773
g49
(g50
g51
NtRp774
(dp775
g54
(dp776
g62
I4
ssg63
g770
sg56
(lp777
S"set(['C:\\\\web2py\\\\applications\\\\admin\\\\', 'C:\\\\web2py\\\\applications\\\\welcome\\\\', 'C:\\\\web2py\\\\applications\\\\unioeste_code\\\\'])"
p778
asbasbasbag49
(g65
g51
NtRp779
(dp780
g54
(dp781
sg63
g753
sg56
(lp782
g49
(g70
g51
NtRp783
(dp784
g54
(dp785
g74
g75
ssg63
g779
sg56
(lp786
S'applications_parent'
p787
asbag49
(g70
g51
NtRp788
(dp789
g54
(dp790
g81
g82
ssg63
g779
sg56
(lp791
S':'
asbag49
(g70
g51
NtRp792
(dp793
g54
(dp794
sg63
g779
sg56
(lp795
g49
(g50
g51
NtRp796
(dp797
g54
(dp798
g62
I4
ssg63
g792
sg56
(lp799
S'C:\\web2py'
p800
asbasbasbag49
(g65
g51
NtRp801
(dp802
g54
(dp803
sg63
g753
sg56
(lp804
g49
(g70
g51
NtRp805
(dp806
g54
(dp807
g74
g75
ssg63
g801
sg56
(lp808
S'cmd_args'
p809
asbag49
(g70
g51
NtRp810
(dp811
g54
(dp812
g81
g82
ssg63
g801
sg56
(lp813
S':'
asbag49
(g70
g51
NtRp814
(dp815
g54
(dp816
sg63
g801
sg56
(lp817
g49
(g50
g51
NtRp818
(dp819
g54
(dp820
g62
I4
ssg63
g814
sg56
(lp821
g49
(g58
g51
NtRp822
(dp823
g54
(dp824
g62
I3
ssg63
Nsg56
(lp825
sbasbasbasbag49
(g65
g51
NtRp826
(dp827
g54
(dp828
sg63
g753
sg56
(lp829
g49
(g70
g51
NtRp830
(dp831
g54
(dp832
g74
g75
ssg63
g826
sg56
(lp833
S'cmd_options'
p834
asbag49
(g70
g51
NtRp835
(dp836
g54
(dp837
g81
g82
ssg63
g826
sg56
(lp838
S':'
asbag49
(g70
g51
NtRp839
(dp840
g54
(dp841
sg63
g826
sg56
(lp842
g49
(g50
g51
NtRp843
(dp844
g54
(dp845
g62
I4
ssg63
g839
sg56
(lp846
S"<Values at 0x31dc300: {'verbose': False, 'ip': '127.0.0.1', 'shutdown_timeout': 5, 'taskbar': False, 'nocron': False, 'pid_filename': 'httpserver.pid', 'maxthreads': None, 'softcron': False, 'server_name': 'Pedro-PC', 'bpython': False, 'nogui': False, 'port': 8000, 'extcron': False, 'debuglevel': 30, 'test': None, 'folder': 'C:\\\\web2py', 'config': '', 'import_models': False, 'winservice': '', 'shell': None, 'run': '', 'log_filename': 'httpserver.log', 'args': [''], 'socket_timeout': 5, 'ssl_ca_certificate': None, 'scheduler': None, 'profiler_filename': None, 'ssl_private_key': '', 'password': '<ask>', 'request_queue_size': 5, 'ssl_certificate': '', 'cronjob': False, 'numthreads': None, 'quiet': False, 'interfaces': None, 'minthreads': None, 'timeout': 10, 'plain': False, 'nobanner': False}>"
p847
asbasbasbag49
(g65
g51
NtRp848
(dp849
g54
(dp850
sg63
g753
sg56
(lp851
g49
(g70
g51
NtRp852
(dp853
g54
(dp854
g74
g75
ssg63
g848
sg56
(lp855
S'db_sessions'
p856
asbag49
(g70
g51
NtRp857
(dp858
g54
(dp859
g81
g82
ssg63
g848
sg56
(lp860
S':'
asbag49
(g70
g51
NtRp861
(dp862
g54
(dp863
sg63
g848
sg56
(lp864
g49
(g50
g51
NtRp865
(dp866
g54
(dp867
g62
I4
ssg63
g861
sg56
(lp868
S'set([])'
p869
asbasbasbag49
(g65
g51
NtRp870
(dp871
g54
(dp872
sg63
g753
sg56
(lp873
g49
(g70
g51
NtRp874
(dp875
g54
(dp876
g74
g75
ssg63
g870
sg56
(lp877
S'debugging'
p878
asbag49
(g70
g51
NtRp879
(dp880
g54
(dp881
g81
g82
ssg63
g870
sg56
(lp882
S':'
asbag49
(g70
g51
NtRp883
(dp884
g54
(dp885
sg63
g870
sg56
(lp886
g49
(g50
g51
NtRp887
(dp888
g54
(dp889
g62
I4
ssg63
g883
sg56
(lp890
g92
asbasbasbag49
(g65
g51
NtRp891
(dp892
g54
(dp893
sg63
g753
sg56
(lp894
g49
(g70
g51
NtRp895
(dp896
g54
(dp897
g74
g75
ssg63
g891
sg56
(lp898
S'gluon_parent'
p899
asbag49
(g70
g51
NtRp900
(dp901
g54
(dp902
g81
g82
ssg63
g891
sg56
(lp903
S':'
asbag49
(g70
g51
NtRp904
(dp905
g54
(dp906
sg63
g891
sg56
(lp907
g49
(g50
g51
NtRp908
(dp909
g54
(dp910
g62
I4
ssg63
g904
sg56
(lp911
S'C:\\web2py'
p912
asbasbasbag49
(g65
g51
NtRp913
(dp914
g54
(dp915
sg63
g753
sg56
(lp916
g49
(g70
g51
NtRp917
(dp918
g54
(dp919
g74
g75
ssg63
g913
sg56
(lp920
S'http_accept'
p921
asbag49
(g70
g51
NtRp922
(dp923
g54
(dp924
g81
g82
ssg63
g913
sg56
(lp925
S':'
asbag49
(g70
g51
NtRp926
(dp927
g54
(dp928
sg63
g913
sg56
(lp929
g49
(g50
g51
NtRp930
(dp931
g54
(dp932
g62
I4
ssg63
g926
sg56
(lp933
S'text/html,application/xhtml+xml,application/xml;q=0.9,*/*;q=0.8'
p934
asbasbasbag49
(g65
g51
NtRp935
(dp936
g54
(dp937
sg63
g753
sg56
(lp938
g49
(g70
g51
NtRp939
(dp940
g54
(dp941
g74
g75
ssg63
g935
sg56
(lp942
S'http_accept_charset'
p943
asbag49
(g70
g51
NtRp944
(dp945
g54
(dp946
g81
g82
ssg63
g935
sg56
(lp947
S':'
asbag49
(g70
g51
NtRp948
(dp949
g54
(dp950
sg63
g935
sg56
(lp951
g49
(g50
g51
NtRp952
(dp953
g54
(dp954
g62
I4
ssg63
g948
sg56
(lp955
S'ISO-8859-1,utf-8;q=0.7,*;q=0.3'
p956
asbasbasbag49
(g65
g51
NtRp957
(dp958
g54
(dp959
sg63
g753
sg56
(lp960
g49
(g70
g51
NtRp961
(dp962
g54
(dp963
g74
g75
ssg63
g957
sg56
(lp964
S'http_accept_encoding'
p965
asbag49
(g70
g51
NtRp966
(dp967
g54
(dp968
g81
g82
ssg63
g957
sg56
(lp969
S':'
asbag49
(g70
g51
NtRp970
(dp971
g54
(dp972
sg63
g957
sg56
(lp973
g49
(g50
g51
NtRp974
(dp975
g54
(dp976
g62
I4
ssg63
g970
sg56
(lp977
S'gzip,deflate,sdch'
p978
asbasbasbag49
(g65
g51
NtRp979
(dp980
g54
(dp981
sg63
g753
sg56
(lp982
g49
(g70
g51
NtRp983
(dp984
g54
(dp985
g74
g75
ssg63
g979
sg56
(lp986
S'http_accept_language'
p987
asbag49
(g70
g51
NtRp988
(dp989
g54
(dp990
g81
g82
ssg63
g979
sg56
(lp991
S':'
asbag49
(g70
g51
NtRp992
(dp993
g54
(dp994
sg63
g979
sg56
(lp995
g49
(g50
g51
NtRp996
(dp997
g54
(dp998
g62
I4
ssg63
g992
sg56
(lp999
S'pt-BR,pt;q=0.8,en-US;q=0.6,en;q=0.4'
p1000
asbasbasbag49
(g65
g51
NtRp1001
(dp1002
g54
(dp1003
sg63
g753
sg56
(lp1004
g49
(g70
g51
NtRp1005
(dp1006
g54
(dp1007
g74
g75
ssg63
g1001
sg56
(lp1008
S'http_cache_control'
p1009
asbag49
(g70
g51
NtRp1010
(dp1011
g54
(dp1012
g81
g82
ssg63
g1001
sg56
(lp1013
S':'
asbag49
(g70
g51
NtRp1014
(dp1015
g54
(dp1016
sg63
g1001
sg56
(lp1017
g49
(g50
g51
NtRp1018
(dp1019
g54
(dp1020
g62
I4
ssg63
g1014
sg56
(lp1021
S'max-age=0'
p1022
asbasbasbag49
(g65
g51
NtRp1023
(dp1024
g54
(dp1025
sg63
g753
sg56
(lp1026
g49
(g70
g51
NtRp1027
(dp1028
g54
(dp1029
g74
g75
ssg63
g1023
sg56
(lp1030
S'http_connection'
p1031
asbag49
(g70
g51
NtRp1032
(dp1033
g54
(dp1034
g81
g82
ssg63
g1023
sg56
(lp1035
S':'
asbag49
(g70
g51
NtRp1036
(dp1037
g54
(dp1038
sg63
g1023
sg56
(lp1039
g49
(g50
g51
NtRp1040
(dp1041
g54
(dp1042
g62
I4
ssg63
g1036
sg56
(lp1043
S'keep-alive'
p1044
asbasbasbag49
(g65
g51
NtRp1045
(dp1046
g54
(dp1047
sg63
g753
sg56
(lp1048
g49
(g70
g51
NtRp1049
(dp1050
g54
(dp1051
g74
g75
ssg63
g1045
sg56
(lp1052
S'http_cookie'
p1053
asbag49
(g70
g51
NtRp1054
(dp1055
g54
(dp1056
g81
g82
ssg63
g1045
sg56
(lp1057
S':'
asbag49
(g70
g51
NtRp1058
(dp1059
g54
(dp1060
sg63
g1045
sg56
(lp1061
g49
(g50
g51
NtRp1062
(dp1063
g54
(dp1064
g62
I4
ssg63
g1058
sg56
(lp1065
S'session_id_welcome=127.0.0.1-76f3c1b1-2d56-4011-a35f-e7072ae8a814; session_id_unioeste_code=127.0.0.1-bc48ac14-a4c3-4aad-bdf5-edbbf68c575e; session_id_admin=127.0.0.1-b030b836-135a-4bad-8831-8a062289d8a4'
p1066
asbasbasbag49
(g65
g51
NtRp1067
(dp1068
g54
(dp1069
sg63
g753
sg56
(lp1070
g49
(g70
g51
NtRp1071
(dp1072
g54
(dp1073
g74
g75
ssg63
g1067
sg56
(lp1074
S'http_dnt'
p1075
asbag49
(g70
g51
NtRp1076
(dp1077
g54
(dp1078
g81
g82
ssg63
g1067
sg56
(lp1079
S':'
asbag49
(g70
g51
NtRp1080
(dp1081
g54
(dp1082
sg63
g1067
sg56
(lp1083
g49
(g50
g51
NtRp1084
(dp1085
g54
(dp1086
g62
I4
ssg63
g1080
sg56
(lp1087
S'1'
asbasbasbag49
(g65
g51
NtRp1088
(dp1089
g54
(dp1090
sg63
g753
sg56
(lp1091
g49
(g70
g51
NtRp1092
(dp1093
g54
(dp1094
g74
g75
ssg63
g1088
sg56
(lp1095
S'http_host'
p1096
asbag49
(g70
g51
NtRp1097
(dp1098
g54
(dp1099
g81
g82
ssg63
g1088
sg56
(lp1100
S':'
asbag49
(g70
g51
NtRp1101
(dp1102
g54
(dp1103
sg63
g1088
sg56
(lp1104
g49
(g50
g51
NtRp1105
(dp1106
g54
(dp1107
g62
I4
ssg63
g1101
sg56
(lp1108
S'127.0.0.1:8000'
p1109
asbasbasbag49
(g65
g51
NtRp1110
(dp1111
g54
(dp1112
sg63
g753
sg56
(lp1113
g49
(g70
g51
NtRp1114
(dp1115
g54
(dp1116
g74
g75
ssg63
g1110
sg56
(lp1117
S'http_user_agent'
p1118
asbag49
(g70
g51
NtRp1119
(dp1120
g54
(dp1121
g81
g82
ssg63
g1110
sg56
(lp1122
S':'
asbag49
(g70
g51
NtRp1123
(dp1124
g54
(dp1125
sg63
g1110
sg56
(lp1126
g49
(g50
g51
NtRp1127
(dp1128
g54
(dp1129
g62
I4
ssg63
g1123
sg56
(lp1130
S'Mozilla/5.0 (Windows NT 6.1; WOW64) AppleWebKit/536.11 (KHTML, like Gecko) Chrome/20.0.1132.57 Safari/536.11'
p1131
asbasbasbag49
(g65
g51
NtRp1132
(dp1133
g54
(dp1134
sg63
g753
sg56
(lp1135
g49
(g70
g51
NtRp1136
(dp1137
g54
(dp1138
g74
g75
ssg63
g1132
sg56
(lp1139
S'is_jython'
p1140
asbag49
(g70
g51
NtRp1141
(dp1142
g54
(dp1143
g81
g82
ssg63
g1132
sg56
(lp1144
S':'
asbag49
(g70
g51
NtRp1145
(dp1146
g54
(dp1147
sg63
g1132
sg56
(lp1148
g49
(g50
g51
NtRp1149
(dp1150
g54
(dp1151
g62
I4
ssg63
g1145
sg56
(lp1152
g92
asbasbasbag49
(g65
g51
NtRp1153
(dp1154
g54
(dp1155
sg63
g753
sg56
(lp1156
g49
(g70
g51
NtRp1157
(dp1158
g54
(dp1159
g74
g75
ssg63
g1153
sg56
(lp1160
S'is_pypy'
p1161
asbag49
(g70
g51
NtRp1162
(dp1163
g54
(dp1164
g81
g82
ssg63
g1153
sg56
(lp1165
S':'
asbag49
(g70
g51
NtRp1166
(dp1167
g54
(dp1168
sg63
g1153
sg56
(lp1169
g49
(g50
g51
NtRp1170
(dp1171
g54
(dp1172
g62
I4
ssg63
g1166
sg56
(lp1173
g92
asbasbasbag49
(g65
g51
NtRp1174
(dp1175
g54
(dp1176
sg63
g753
sg56
(lp1177
g49
(g70
g51
NtRp1178
(dp1179
g54
(dp1180
g74
g75
ssg63
g1174
sg56
(lp1181
S'path_info'
p1182
asbag49
(g70
g51
NtRp1183
(dp1184
g54
(dp1185
g81
g82
ssg63
g1174
sg56
(lp1186
S':'
asbag49
(g70
g51
NtRp1187
(dp1188
g54
(dp1189
sg63
g1174
sg56
(lp1190
g49
(g50
g51
NtRp1191
(dp1192
g54
(dp1193
g62
I4
ssg63
g1187
sg56
(lp1194
S'/unioeste_code/'
p1195
asbasbasbag49
(g65
g51
NtRp1196
(dp1197
g54
(dp1198
sg63
g753
sg56
(lp1199
g49
(g70
g51
NtRp1200
(dp1201
g54
(dp1202
g74
g75
ssg63
g1196
sg56
(lp1203
S'query_string'
p1204
asbag49
(g70
g51
NtRp1205
(dp1206
g54
(dp1207
g81
g82
ssg63
g1196
sg56
(lp1208
S':'
asbag49
(g70
g51
NtRp1209
(dp1210
g54
(dp1211
sg63
g1196
sg56
(lp1212
g49
(g50
g51
NtRp1213
(dp1214
g54
(dp1215
g62
I4
ssg63
g1209
sg56
(lp1216
S''
asbasbasbag49
(g65
g51
NtRp1217
(dp1218
g54
(dp1219
sg63
g753
sg56
(lp1220
g49
(g70
g51
NtRp1221
(dp1222
g54
(dp1223
g74
g75
ssg63
g1217
sg56
(lp1224
S'remote_addr'
p1225
asbag49
(g70
g51
NtRp1226
(dp1227
g54
(dp1228
g81
g82
ssg63
g1217
sg56
(lp1229
S':'
asbag49
(g70
g51
NtRp1230
(dp1231
g54
(dp1232
sg63
g1217
sg56
(lp1233
g49
(g50
g51
NtRp1234
(dp1235
g54
(dp1236
g62
I4
ssg63
g1230
sg56
(lp1237
g182
asbasbasbag49
(g65
g51
NtRp1238
(dp1239
g54
(dp1240
sg63
g753
sg56
(lp1241
g49
(g70
g51
NtRp1242
(dp1243
g54
(dp1244
g74
g75
ssg63
g1238
sg56
(lp1245
S'remote_port'
p1246
asbag49
(g70
g51
NtRp1247
(dp1248
g54
(dp1249
g81
g82
ssg63
g1238
sg56
(lp1250
S':'
asbag49
(g70
g51
NtRp1251
(dp1252
g54
(dp1253
sg63
g1238
sg56
(lp1254
g49
(g50
g51
NtRp1255
(dp1256
g54
(dp1257
g62
I4
ssg63
g1251
sg56
(lp1258
S'3894'
p1259
asbasbasbag49
(g65
g51
NtRp1260
(dp1261
g54
(dp1262
sg63
g753
sg56
(lp1263
g49
(g70
g51
NtRp1264
(dp1265
g54
(dp1266
g74
g75
ssg63
g1260
sg56
(lp1267
S'request_method'
p1268
asbag49
(g70
g51
NtRp1269
(dp1270
g54
(dp1271
g81
g82
ssg63
g1260
sg56
(lp1272
S':'
asbag49
(g70
g51
NtRp1273
(dp1274
g54
(dp1275
sg63
g1260
sg56
(lp1276
g49
(g50
g51
NtRp1277
(dp1278
g54
(dp1279
g62
I4
ssg63
g1273
sg56
(lp1280
S'GET'
p1281
asbasbasbag49
(g65
g51
NtRp1282
(dp1283
g54
(dp1284
sg63
g753
sg56
(lp1285
g49
(g70
g51
NtRp1286
(dp1287
g54
(dp1288
g74
g75
ssg63
g1282
sg56
(lp1289
S'script_name'
p1290
asbag49
(g70
g51
NtRp1291
(dp1292
g54
(dp1293
g81
g82
ssg63
g1282
sg56
(lp1294
S':'
asbag49
(g70
g51
NtRp1295
(dp1296
g54
(dp1297
sg63
g1282
sg56
(lp1298
g49
(g50
g51
NtRp1299
(dp1300
g54
(dp1301
g62
I4
ssg63
g1295
sg56
(lp1302
S''
asbasbasbag49
(g65
g51
NtRp1303
(dp1304
g54
(dp1305
sg63
g753
sg56
(lp1306
g49
(g70
g51
NtRp1307
(dp1308
g54
(dp1309
g74
g75
ssg63
g1303
sg56
(lp1310
S'server_name'
p1311
asbag49
(g70
g51
NtRp1312
(dp1313
g54
(dp1314
g81
g82
ssg63
g1303
sg56
(lp1315
S':'
asbag49
(g70
g51
NtRp1316
(dp1317
g54
(dp1318
sg63
g1303
sg56
(lp1319
g49
(g50
g51
NtRp1320
(dp1321
g54
(dp1322
g62
I4
ssg63
g1316
sg56
(lp1323
S'Pedro-PC'
p1324
asbasbasbag49
(g65
g51
NtRp1325
(dp1326
g54
(dp1327
sg63
g753
sg56
(lp1328
g49
(g70
g51
NtRp1329
(dp1330
g54
(dp1331
g74
g75
ssg63
g1325
sg56
(lp1332
S'server_port'
p1333
asbag49
(g70
g51
NtRp1334
(dp1335
g54
(dp1336
g81
g82
ssg63
g1325
sg56
(lp1337
S':'
asbag49
(g70
g51
NtRp1338
(dp1339
g54
(dp1340
sg63
g1325
sg56
(lp1341
g49
(g50
g51
NtRp1342
(dp1343
g54
(dp1344
g62
I4
ssg63
g1338
sg56
(lp1345
S'8000'
p1346
asbasbasbag49
(g65
g51
NtRp1347
(dp1348
g54
(dp1349
sg63
g753
sg56
(lp1350
g49
(g70
g51
NtRp1351
(dp1352
g54
(dp1353
g74
g75
ssg63
g1347
sg56
(lp1354
S'server_protocol'
p1355
asbag49
(g70
g51
NtRp1356
(dp1357
g54
(dp1358
g81
g82
ssg63
g1347
sg56
(lp1359
S':'
asbag49
(g70
g51
NtRp1360
(dp1361
g54
(dp1362
sg63
g1347
sg56
(lp1363
g49
(g50
g51
NtRp1364
(dp1365
g54
(dp1366
g62
I4
ssg63
g1360
sg56
(lp1367
S'HTTP/1.1'
p1368
asbasbasbag49
(g65
g51
NtRp1369
(dp1370
g54
(dp1371
sg63
g753
sg56
(lp1372
g49
(g70
g51
NtRp1373
(dp1374
g54
(dp1375
g74
g75
ssg63
g1369
sg56
(lp1376
S'server_software'
p1377
asbag49
(g70
g51
NtRp1378
(dp1379
g54
(dp1380
g81
g82
ssg63
g1369
sg56
(lp1381
S':'
asbag49
(g70
g51
NtRp1382
(dp1383
g54
(dp1384
sg63
g1369
sg56
(lp1385
g49
(g50
g51
NtRp1386
(dp1387
g54
(dp1388
g62
I4
ssg63
g1382
sg56
(lp1389
S'Rocket 1.2.4'
p1390
asbasbasbag49
(g65
g51
NtRp1391
(dp1392
g54
(dp1393
sg63
g753
sg56
(lp1394
g49
(g70
g51
NtRp1395
(dp1396
g54
(dp1397
g74
g75
ssg63
g1391
sg56
(lp1398
S'web2py_crontype'
p1399
asbag49
(g70
g51
NtRp1400
(dp1401
g54
(dp1402
g81
g82
ssg63
g1391
sg56
(lp1403
S':'
asbag49
(g70
g51
NtRp1404
(dp1405
g54
(dp1406
sg63
g1391
sg56
(lp1407
g49
(g50
g51
NtRp1408
(dp1409
g54
(dp1410
g62
I4
ssg63
g1404
sg56
(lp1411
S'hard'
p1412
asbasbasbag49
(g65
g51
NtRp1413
(dp1414
g54
(dp1415
sg63
g753
sg56
(lp1416
g49
(g70
g51
NtRp1417
(dp1418
g54
(dp1419
g74
g75
ssg63
g1413
sg56
(lp1420
S'web2py_path'
p1421
asbag49
(g70
g51
NtRp1422
(dp1423
g54
(dp1424
g81
g82
ssg63
g1413
sg56
(lp1425
S':'
asbag49
(g70
g51
NtRp1426
(dp1427
g54
(dp1428
sg63
g1413
sg56
(lp1429
g49
(g50
g51
NtRp1430
(dp1431
g54
(dp1432
g62
I4
ssg63
g1426
sg56
(lp1433
g800
asbasbasbag49
(g65
g51
NtRp1434
(dp1435
g54
(dp1436
sg63
g753
sg56
(lp1437
g49
(g70
g51
NtRp1438
(dp1439
g54
(dp1440
g74
g75
ssg63
g1434
sg56
(lp1441
S'web2py_version'
p1442
asbag49
(g70
g51
NtRp1443
(dp1444
g54
(dp1445
g81
g82
ssg63
g1434
sg56
(lp1446
S':'
asbag49
(g70
g51
NtRp1447
(dp1448
g54
(dp1449
sg63
g1434
sg56
(lp1450
g49
(g50
g51
NtRp1451
(dp1452
g54
(dp1453
g62
I4
ssg63
g1447
sg56
(lp1454
g49
(g58
g51
NtRp1455
(dp1456
g54
(dp1457
g62
I3
ssg63
Nsg56
(lp1458
g49
(g65
g51
NtRp1459
(dp1460
g54
(dp1461
sg63
g1455
sg56
(lp1462
g49
(g70
g51
NtRp1463
(dp1464
g54
(dp1465
sg63
g1459
sg56
(lp1466
g49
(g50
g51
NtRp1467
(dp1468
g54
(dp1469
g62
I3
ssg63
g1463
sg56
(lp1470
S'1'
asbasbasbag49
(g65
g51
NtRp1471
(dp1472
g54
(dp1473
sg63
g1455
sg56
(lp1474
g49
(g70
g51
NtRp1475
(dp1476
g54
(dp1477
sg63
g1471
sg56
(lp1478
g49
(g50
g51
NtRp1479
(dp1480
g54
(dp1481
g62
I3
ssg63
g1475
sg56
(lp1482
S'99'
p1483
asbasbasbag49
(g65
g51
NtRp1484
(dp1485
g54
(dp1486
sg63
g1455
sg56
(lp1487
g49
(g70
g51
NtRp1488
(dp1489
g54
(dp1490
sg63
g1484
sg56
(lp1491
g49
(g50
g51
NtRp1492
(dp1493
g54
(dp1494
g62
I3
ssg63
g1488
sg56
(lp1495
S'7'
asbasbasbag49
(g65
g51
NtRp1496
(dp1497
g54
(dp1498
sg63
g1455
sg56
(lp1499
g49
(g70
g51
NtRp1500
(dp1501
g54
(dp1502
sg63
g1496
sg56
(lp1503
g49
(g50
g51
NtRp1504
(dp1505
g54
(dp1506
g62
I3
ssg63
g1500
sg56
(lp1507
S'datetime.datetime(2012, 3, 4, 22, 12, 8)'
p1508
asbasbasbag49
(g65
g51
NtRp1509
(dp1510
g54
(dp1511
sg63
g1455
sg56
(lp1512
g49
(g70
g51
NtRp1513
(dp1514
g54
(dp1515
sg63
g1509
sg56
(lp1516
g49
(g50
g51
NtRp1517
(dp1518
g54
(dp1519
g62
I3
ssg63
g1513
sg56
(lp1520
S'stable'
p1521
asbasbasbasbasbasbasbag49
(g65
g51
NtRp1522
(dp1523
g54
(dp1524
sg63
g753
sg56
(lp1525
g49
(g70
g51
NtRp1526
(dp1527
g54
(dp1528
g74
g75
ssg63
g1522
sg56
(lp1529
S'wsgi_errors'
p1530
asbag49
(g70
g51
NtRp1531
(dp1532
g54
(dp1533
g81
g82
ssg63
g1522
sg56
(lp1534
S':'
asbag49
(g70
g51
NtRp1535
(dp1536
g54
(dp1537
sg63
g1522
sg56
(lp1538
g49
(g50
g51
NtRp1539
(dp1540
g54
(dp1541
g62
I4
ssg63
g1535
sg56
(lp1542
S'<__main__.Stderr object at 0x00356670>'
p1543
asbasbasbag49
(g65
g51
NtRp1544
(dp1545
g54
(dp1546
sg63
g753
sg56
(lp1547
g49
(g70
g51
NtRp1548
(dp1549
g54
(dp1550
g74
g75
ssg63
g1544
sg56
(lp1551
S'wsgi_file_wrapper'
p1552
asbag49
(g70
g51
NtRp1553
(dp1554
g54
(dp1555
g81
g82
ssg63
g1544
sg56
(lp1556
S':'
asbag49
(g70
g51
NtRp1557
(dp1558
g54
(dp1559
sg63
g1544
sg56
(lp1560
g49
(g50
g51
NtRp1561
(dp1562
g54
(dp1563
g62
I4
ssg63
g1557
sg56
(lp1564
S'<class wsgiref.util.FileWrapper at 0x02FCDE10>'
p1565
asbasbasbag49
(g65
g51
NtRp1566
(dp1567
g54
(dp1568
sg63
g753
sg56
(lp1569
g49
(g70
g51
NtRp1570
(dp1571
g54
(dp1572
g74
g75
ssg63
g1566
sg56
(lp1573
S'wsgi_input'
p1574
asbag49
(g70
g51
NtRp1575
(dp1576
g54
(dp1577
g81
g82
ssg63
g1566
sg56
(lp1578
S':'
asbag49
(g70
g51
NtRp1579
(dp1580
g54
(dp1581
sg63
g1566
sg56
(lp1582
g49
(g50
g51
NtRp1583
(dp1584
g54
(dp1585
g62
I4
ssg63
g1579
sg56
(lp1586
S'<socket._fileobject object at 0x0615B2B0>'
p1587
asbasbasbag49
(g65
g51
NtRp1588
(dp1589
g54
(dp1590
sg63
g753
sg56
(lp1591
g49
(g70
g51
NtRp1592
(dp1593
g54
(dp1594
g74
g75
ssg63
g1588
sg56
(lp1595
S'wsgi_multiprocess'
p1596
asbag49
(g70
g51
NtRp1597
(dp1598
g54
(dp1599
g81
g82
ssg63
g1588
sg56
(lp1600
S':'
asbag49
(g70
g51
NtRp1601
(dp1602
g54
(dp1603
sg63
g1588
sg56
(lp1604
g49
(g50
g51
NtRp1605
(dp1606
g54
(dp1607
g62
I4
ssg63
g1601
sg56
(lp1608
g92
asbasbasbag49
(g65
g51
NtRp1609
(dp1610
g54
(dp1611
sg63
g753
sg56
(lp1612
g49
(g70
g51
NtRp1613
(dp1614
g54
(dp1615
g74
g75
ssg63
g1609
sg56
(lp1616
S'wsgi_multithread'
p1617
asbag49
(g70
g51
NtRp1618
(dp1619
g54
(dp1620
g81
g82
ssg63
g1609
sg56
(lp1621
S':'
asbag49
(g70
g51
NtRp1622
(dp1623
g54
(dp1624
sg63
g1609
sg56
(lp1625
g49
(g50
g51
NtRp1626
(dp1627
g54
(dp1628
g62
I4
ssg63
g1622
sg56
(lp1629
S'True'
p1630
asbasbasbag49
(g65
g51
NtRp1631
(dp1632
g54
(dp1633
sg63
g753
sg56
(lp1634
g49
(g70
g51
NtRp1635
(dp1636
g54
(dp1637
g74
g75
ssg63
g1631
sg56
(lp1638
S'wsgi_run_once'
p1639
asbag49
(g70
g51
NtRp1640
(dp1641
g54
(dp1642
g81
g82
ssg63
g1631
sg56
(lp1643
S':'
asbag49
(g70
g51
NtRp1644
(dp1645
g54
(dp1646
sg63
g1631
sg56
(lp1647
g49
(g50
g51
NtRp1648
(dp1649
g54
(dp1650
g62
I4
ssg63
g1644
sg56
(lp1651
g92
asbasbasbag49
(g65
g51
NtRp1652
(dp1653
g54
(dp1654
sg63
g753
sg56
(lp1655
g49
(g70
g51
NtRp1656
(dp1657
g54
(dp1658
g74
g75
ssg63
g1652
sg56
(lp1659
S'wsgi_url_scheme'
p1660
asbag49
(g70
g51
NtRp1661
(dp1662
g54
(dp1663
g81
g82
ssg63
g1652
sg56
(lp1664
S':'
asbag49
(g70
g51
NtRp1665
(dp1666
g54
(dp1667
sg63
g1652
sg56
(lp1668
g49
(g50
g51
NtRp1669
(dp1670
g54
(dp1671
g62
I4
ssg63
g1665
sg56
(lp1672
S'http'
p1673
asbasbasbag49
(g65
g51
NtRp1674
(dp1675
g54
(dp1676
sg63
g753
sg56
(lp1677
g49
(g70
g51
NtRp1678
(dp1679
g54
(dp1680
g74
g75
ssg63
g1674
sg56
(lp1681
S'wsgi_version'
p1682
asbag49
(g70
g51
NtRp1683
(dp1684
g54
(dp1685
g81
g82
ssg63
g1674
sg56
(lp1686
S':'
asbag49
(g70
g51
NtRp1687
(dp1688
g54
(dp1689
sg63
g1674
sg56
(lp1690
g49
(g50
g51
NtRp1691
(dp1692
g54
(dp1693
g62
I4
ssg63
g1687
sg56
(lp1694
g49
(g58
g51
NtRp1695
(dp1696
g54
(dp1697
g62
I3
ssg63
Nsg56
(lp1698
g49
(g65
g51
NtRp1699
(dp1700
g54
(dp1701
sg63
g1695
sg56
(lp1702
g49
(g70
g51
NtRp1703
(dp1704
g54
(dp1705
sg63
g1699
sg56
(lp1706
g49
(g50
g51
NtRp1707
(dp1708
g54
(dp1709
g62
I3
ssg63
g1703
sg56
(lp1710
S'1'
asbasbasbag49
(g65
g51
NtRp1711
(dp1712
g54
(dp1713
sg63
g1695
sg56
(lp1714
g49
(g70
g51
NtRp1715
(dp1716
g54
(dp1717
sg63
g1711
sg56
(lp1718
g49
(g50
g51
NtRp1719
(dp1720
g54
(dp1721
g62
I3
ssg63
g1715
sg56
(lp1722
S'0'
asbasbasbasbasbasbasbasbasbasbasbag49
(g65
g51
NtRp1723
(dp1724
g54
(dp1725
sg63
g59
sg56
(lp1726
g49
(g70
g51
NtRp1727
(dp1728
g54
(dp1729
g74
g75
ssg63
g1723
sg56
(lp1730
S'extension'
p1731
asbag49
(g70
g51
NtRp1732
(dp1733
g54
(dp1734
g81
g82
ssg63
g1723
sg56
(lp1735
S':'
asbag49
(g70
g51
NtRp1736
(dp1737
g54
(dp1738
sg63
g1723
sg56
(lp1739
g49
(g50
g51
NtRp1740
(dp1741
g54
(dp1742
g62
I5
ssg63
g1736
sg56
(lp1743
S'html'
p1744
asbasbasbag49
(g65
g51
NtRp1745
(dp1746
g54
(dp1747
sg63
g59
sg56
(lp1748
g49
(g70
g51
NtRp1749
(dp1750
g54
(dp1751
g74
g75
ssg63
g1745
sg56
(lp1752
S'folder'
p1753
asbag49
(g70
g51
NtRp1754
(dp1755
g54
(dp1756
g81
g82
ssg63
g1745
sg56
(lp1757
S':'
asbag49
(g70
g51
NtRp1758
(dp1759
g54
(dp1760
sg63
g1745
sg56
(lp1761
g49
(g50
g51
NtRp1762
(dp1763
g54
(dp1764
g62
I5
ssg63
g1758
sg56
(lp1765
S'C:\\web2py\\applications\\unioeste_code\\'
p1766
asbasbasbag49
(g65
g51
NtRp1767
(dp1768
g54
(dp1769
sg63
g59
sg56
(lp1770
g49
(g70
g51
NtRp1771
(dp1772
g54
(dp1773
g74
g75
ssg63
g1767
sg56
(lp1774
S'function'
p1775
asbag49
(g70
g51
NtRp1776
(dp1777
g54
(dp1778
g81
g82
ssg63
g1767
sg56
(lp1779
S':'
asbag49
(g70
g51
NtRp1780
(dp1781
g54
(dp1782
sg63
g1767
sg56
(lp1783
g49
(g50
g51
NtRp1784
(dp1785
g54
(dp1786
g62
I5
ssg63
g1780
sg56
(lp1787
S'index'
p1788
asbasbasbag49
(g65
g51
NtRp1789
(dp1790
g54
(dp1791
sg63
g59
sg56
(lp1792
g49
(g70
g51
NtRp1793
(dp1794
g54
(dp1795
g74
g75
ssg63
g1789
sg56
(lp1796
S'get_vars'
p1797
asbag49
(g70
g51
NtRp1798
(dp1799
g54
(dp1800
g81
g82
ssg63
g1789
sg56
(lp1801
S':'
asbag49
(g70
g51
NtRp1802
(dp1803
g54
(dp1804
sg63
g1789
sg56
(lp1805
g49
(g50
g51
NtRp1806
(dp1807
g54
(dp1808
g62
I5
ssg63
g1802
sg56
(lp1809
g49
(g58
g51
NtRp1810
(dp1811
g54
(dp1812
g62
I4
ssg63
Nsg56
(lp1813
sbasbasbasbag49
(g65
g51
NtRp1814
(dp1815
g54
(dp1816
sg63
g59
sg56
(lp1817
g49
(g70
g51
NtRp1818
(dp1819
g54
(dp1820
g74
g75
ssg63
g1814
sg56
(lp1821
S'global_settings'
p1822
asbag49
(g70
g51
NtRp1823
(dp1824
g54
(dp1825
g81
g82
ssg63
g1814
sg56
(lp1826
S':'
asbag49
(g70
g51
NtRp1827
(dp1828
g54
(dp1829
sg63
g1814
sg56
(lp1830
g49
(g50
g51
NtRp1831
(dp1832
g54
(dp1833
g62
I5
ssg63
g1827
sg56
(lp1834
g49
(g58
g51
NtRp1835
(dp1836
g54
(dp1837
g62
I4
ssg63
Nsg56
(lp1838
g49
(g65
g51
NtRp1839
(dp1840
g54
(dp1841
sg63
g1835
sg56
(lp1842
g49
(g70
g51
NtRp1843
(dp1844
g54
(dp1845
g74
g75
ssg63
g1839
sg56
(lp1846
g765
asbag49
(g70
g51
NtRp1847
(dp1848
g54
(dp1849
g81
g82
ssg63
g1839
sg56
(lp1850
S':'
asbag49
(g70
g51
NtRp1851
(dp1852
g54
(dp1853
sg63
g1839
sg56
(lp1854
g49
(g50
g51
NtRp1855
(dp1856
g54
(dp1857
g62
I4
ssg63
g1851
sg56
(lp1858
S"set(['C:\\\\web2py\\\\applications\\\\admin\\\\', 'C:\\\\web2py\\\\applications\\\\welcome\\\\', 'C:\\\\web2py\\\\applications\\\\unioeste_code\\\\'])"
p1859
asbasbasbag49
(g65
g51
NtRp1860
(dp1861
g54
(dp1862
sg63
g1835
sg56
(lp1863
g49
(g70
g51
NtRp1864
(dp1865
g54
(dp1866
g74
g75
ssg63
g1860
sg56
(lp1867
g787
asbag49
(g70
g51
NtRp1868
(dp1869
g54
(dp1870
g81
g82
ssg63
g1860
sg56
(lp1871
S':'
asbag49
(g70
g51
NtRp1872
(dp1873
g54
(dp1874
sg63
g1860
sg56
(lp1875
g49
(g50
g51
NtRp1876
(dp1877
g54
(dp1878
g62
I4
ssg63
g1872
sg56
(lp1879
g800
asbasbasbag49
(g65
g51
NtRp1880
(dp1881
g54
(dp1882
sg63
g1835
sg56
(lp1883
g49
(g70
g51
NtRp1884
(dp1885
g54
(dp1886
g74
g75
ssg63
g1880
sg56
(lp1887
g809
asbag49
(g70
g51
NtRp1888
(dp1889
g54
(dp1890
g81
g82
ssg63
g1880
sg56
(lp1891
S':'
asbag49
(g70
g51
NtRp1892
(dp1893
g54
(dp1894
sg63
g1880
sg56
(lp1895
g49
(g50
g51
NtRp1896
(dp1897
g54
(dp1898
g62
I4
ssg63
g1892
sg56
(lp1899
g49
(g58
g51
NtRp1900
(dp1901
g54
(dp1902
g62
I3
ssg63
Nsg56
(lp1903
sbasbasbasbag49
(g65
g51
NtRp1904
(dp1905
g54
(dp1906
sg63
g1835
sg56
(lp1907
g49
(g70
g51
NtRp1908
(dp1909
g54
(dp1910
g74
g75
ssg63
g1904
sg56
(lp1911
g834
asbag49
(g70
g51
NtRp1912
(dp1913
g54
(dp1914
g81
g82
ssg63
g1904
sg56
(lp1915
S':'
asbag49
(g70
g51
NtRp1916
(dp1917
g54
(dp1918
sg63
g1904
sg56
(lp1919
g49
(g50
g51
NtRp1920
(dp1921
g54
(dp1922
g62
I4
ssg63
g1916
sg56
(lp1923
S"<Values at 0x31dc300: {'verbose': False, 'ip': '127.0.0.1', 'shutdown_timeout': 5, 'taskbar': False, 'nocron': False, 'pid_filename': 'httpserver.pid', 'maxthreads': None, 'softcron': False, 'server_name': 'Pedro-PC', 'bpython': False, 'nogui': False, 'port': 8000, 'extcron': False, 'debuglevel': 30, 'test': None, 'folder': 'C:\\\\web2py', 'config': '', 'import_models': False, 'winservice': '', 'shell': None, 'run': '', 'log_filename': 'httpserver.log', 'args': [''], 'socket_timeout': 5, 'ssl_ca_certificate': None, 'scheduler': None, 'profiler_filename': None, 'ssl_private_key': '', 'password': '<ask>', 'request_queue_size': 5, 'ssl_certificate': '', 'cronjob': False, 'numthreads': None, 'quiet': False, 'interfaces': None, 'minthreads': None, 'timeout': 10, 'plain': False, 'nobanner': False}>"
p1924
asbasbasbag49
(g65
g51
NtRp1925
(dp1926
g54
(dp1927
sg63
g1835
sg56
(lp1928
g49
(g70
g51
NtRp1929
(dp1930
g54
(dp1931
g74
g75
ssg63
g1925
sg56
(lp1932
g856
asbag49
(g70
g51
NtRp1933
(dp1934
g54
(dp1935
g81
g82
ssg63
g1925
sg56
(lp1936
S':'
asbag49
(g70
g51
NtRp1937
(dp1938
g54
(dp1939
sg63
g1925
sg56
(lp1940
g49
(g50
g51
NtRp1941
(dp1942
g54
(dp1943
g62
I4
ssg63
g1937
sg56
(lp1944
S'set([])'
p1945
asbasbasbag49
(g65
g51
NtRp1946
(dp1947
g54
(dp1948
sg63
g1835
sg56
(lp1949
g49
(g70
g51
NtRp1950
(dp1951
g54
(dp1952
g74
g75
ssg63
g1946
sg56
(lp1953
g878
asbag49
(g70
g51
NtRp1954
(dp1955
g54
(dp1956
g81
g82
ssg63
g1946
sg56
(lp1957
S':'
asbag49
(g70
g51
NtRp1958
(dp1959
g54
(dp1960
sg63
g1946
sg56
(lp1961
g49
(g50
g51
NtRp1962
(dp1963
g54
(dp1964
g62
I4
ssg63
g1958
sg56
(lp1965
g92
asbasbasbag49
(g65
g51
NtRp1966
(dp1967
g54
(dp1968
sg63
g1835
sg56
(lp1969
g49
(g70
g51
NtRp1970
(dp1971
g54
(dp1972
g74
g75
ssg63
g1966
sg56
(lp1973
g899
asbag49
(g70
g51
NtRp1974
(dp1975
g54
(dp1976
g81
g82
ssg63
g1966
sg56
(lp1977
S':'
asbag49
(g70
g51
NtRp1978
(dp1979
g54
(dp1980
sg63
g1966
sg56
(lp1981
g49
(g50
g51
NtRp1982
(dp1983
g54
(dp1984
g62
I4
ssg63
g1978
sg56
(lp1985
g912
asbasbasbag49
(g65
g51
NtRp1986
(dp1987
g54
(dp1988
sg63
g1835
sg56
(lp1989
g49
(g70
g51
NtRp1990
(dp1991
g54
(dp1992
g74
g75
ssg63
g1986
sg56
(lp1993
g1140
asbag49
(g70
g51
NtRp1994
(dp1995
g54
(dp1996
g81
g82
ssg63
g1986
sg56
(lp1997
S':'
asbag49
(g70
g51
NtRp1998
(dp1999
g54
(dp2000
sg63
g1986
sg56
(lp2001
g49
(g50
g51
NtRp2002
(dp2003
g54
(dp2004
g62
I4
ssg63
g1998
sg56
(lp2005
g92
asbasbasbag49
(g65
g51
NtRp2006
(dp2007
g54
(dp2008
sg63
g1835
sg56
(lp2009
g49
(g70
g51
NtRp2010
(dp2011
g54
(dp2012
g74
g75
ssg63
g2006
sg56
(lp2013
g1161
asbag49
(g70
g51
NtRp2014
(dp2015
g54
(dp2016
g81
g82
ssg63
g2006
sg56
(lp2017
S':'
asbag49
(g70
g51
NtRp2018
(dp2019
g54
(dp2020
sg63
g2006
sg56
(lp2021
g49
(g50
g51
NtRp2022
(dp2023
g54
(dp2024
g62
I4
ssg63
g2018
sg56
(lp2025
g92
asbasbasbag49
(g65
g51
NtRp2026
(dp2027
g54
(dp2028
sg63
g1835
sg56
(lp2029
g49
(g70
g51
NtRp2030
(dp2031
g54
(dp2032
g74
g75
ssg63
g2026
sg56
(lp2033
g1399
asbag49
(g70
g51
NtRp2034
(dp2035
g54
(dp2036
g81
g82
ssg63
g2026
sg56
(lp2037
S':'
asbag49
(g70
g51
NtRp2038
(dp2039
g54
(dp2040
sg63
g2026
sg56
(lp2041
g49
(g50
g51
NtRp2042
(dp2043
g54
(dp2044
g62
I4
ssg63
g2038
sg56
(lp2045
g1412
asbasbasbag49
(g65
g51
NtRp2046
(dp2047
g54
(dp2048
sg63
g1835
sg56
(lp2049
g49
(g70
g51
NtRp2050
(dp2051
g54
(dp2052
g74
g75
ssg63
g2046
sg56
(lp2053
g1442
asbag49
(g70
g51
NtRp2054
(dp2055
g54
(dp2056
g81
g82
ssg63
g2046
sg56
(lp2057
S':'
asbag49
(g70
g51
NtRp2058
(dp2059
g54
(dp2060
sg63
g2046
sg56
(lp2061
g49
(g50
g51
NtRp2062
(dp2063
g54
(dp2064
g62
I4
ssg63
g2058
sg56
(lp2065
g49
(g58
g51
NtRp2066
(dp2067
g54
(dp2068
g62
I3
ssg63
Nsg56
(lp2069
g49
(g65
g51
NtRp2070
(dp2071
g54
(dp2072
sg63
g2066
sg56
(lp2073
g49
(g70
g51
NtRp2074
(dp2075
g54
(dp2076
sg63
g2070
sg56
(lp2077
g49
(g50
g51
NtRp2078
(dp2079
g54
(dp2080
g62
I3
ssg63
g2074
sg56
(lp2081
S'1'
asbasbasbag49
(g65
g51
NtRp2082
(dp2083
g54
(dp2084
sg63
g2066
sg56
(lp2085
g49
(g70
g51
NtRp2086
(dp2087
g54
(dp2088
sg63
g2082
sg56
(lp2089
g49
(g50
g51
NtRp2090
(dp2091
g54
(dp2092
g62
I3
ssg63
g2086
sg56
(lp2093
S'99'
p2094
asbasbasbag49
(g65
g51
NtRp2095
(dp2096
g54
(dp2097
sg63
g2066
sg56
(lp2098
g49
(g70
g51
NtRp2099
(dp2100
g54
(dp2101
sg63
g2095
sg56
(lp2102
g49
(g50
g51
NtRp2103
(dp2104
g54
(dp2105
g62
I3
ssg63
g2099
sg56
(lp2106
S'7'
asbasbasbag49
(g65
g51
NtRp2107
(dp2108
g54
(dp2109
sg63
g2066
sg56
(lp2110
g49
(g70
g51
NtRp2111
(dp2112
g54
(dp2113
sg63
g2107
sg56
(lp2114
g49
(g50
g51
NtRp2115
(dp2116
g54
(dp2117
g62
I3
ssg63
g2111
sg56
(lp2118
S'datetime.datetime(2012, 3, 4, 22, 12, 8)'
p2119
asbasbasbag49
(g65
g51
NtRp2120
(dp2121
g54
(dp2122
sg63
g2066
sg56
(lp2123
g49
(g70
g51
NtRp2124
(dp2125
g54
(dp2126
sg63
g2120
sg56
(lp2127
g49
(g50
g51
NtRp2128
(dp2129
g54
(dp2130
g62
I3
ssg63
g2124
sg56
(lp2131
g1521
asbasbasbasbasbasbasbasbasbasbasbag49
(g65
g51
NtRp2132
(dp2133
g54
(dp2134
sg63
g59
sg56
(lp2135
g49
(g70
g51
NtRp2136
(dp2137
g54
(dp2138
g74
g75
ssg63
g2132
sg56
(lp2139
S'is_https'
p2140
asbag49
(g70
g51
NtRp2141
(dp2142
g54
(dp2143
g81
g82
ssg63
g2132
sg56
(lp2144
S':'
asbag49
(g70
g51
NtRp2145
(dp2146
g54
(dp2147
sg63
g2132
sg56
(lp2148
g49
(g50
g51
NtRp2149
(dp2150
g54
(dp2151
g62
I5
ssg63
g2145
sg56
(lp2152
g92
asbasbasbag49
(g65
g51
NtRp2153
(dp2154
g54
(dp2155
sg63
g59
sg56
(lp2156
g49
(g70
g51
NtRp2157
(dp2158
g54
(dp2159
g74
g75
ssg63
g2153
sg56
(lp2160
S'is_local'
p2161
asbag49
(g70
g51
NtRp2162
(dp2163
g54
(dp2164
g81
g82
ssg63
g2153
sg56
(lp2165
S':'
asbag49
(g70
g51
NtRp2166
(dp2167
g54
(dp2168
sg63
g2153
sg56
(lp2169
g49
(g50
g51
NtRp2170
(dp2171
g54
(dp2172
g62
I5
ssg63
g2166
sg56
(lp2173
g1630
asbasbasbag49
(g65
g51
NtRp2174
(dp2175
g54
(dp2176
sg63
g59
sg56
(lp2177
g49
(g70
g51
NtRp2178
(dp2179
g54
(dp2180
g74
g75
ssg63
g2174
sg56
(lp2181
S'is_restful'
p2182
asbag49
(g70
g51
NtRp2183
(dp2184
g54
(dp2185
g81
g82
ssg63
g2174
sg56
(lp2186
S':'
asbag49
(g70
g51
NtRp2187
(dp2188
g54
(dp2189
sg63
g2174
sg56
(lp2190
g49
(g50
g51
NtRp2191
(dp2192
g54
(dp2193
g62
I5
ssg63
g2187
sg56
(lp2194
g92
asbasbasbag49
(g65
g51
NtRp2195
(dp2196
g54
(dp2197
sg63
g59
sg56
(lp2198
g49
(g70
g51
NtRp2199
(dp2200
g54
(dp2201
g74
g75
ssg63
g2195
sg56
(lp2202
S'now'
p2203
asbag49
(g70
g51
NtRp2204
(dp2205
g54
(dp2206
g81
g82
ssg63
g2195
sg56
(lp2207
S':'
asbag49
(g70
g51
NtRp2208
(dp2209
g54
(dp2210
sg63
g2195
sg56
(lp2211
g49
(g50
g51
NtRp2212
(dp2213
g54
(dp2214
g62
I5
ssg63
g2208
sg56
(lp2215
S'datetime.datetime(2012, 7, 30, 23, 8, 5, 433000)'
p2216
asbasbasbag49
(g65
g51
NtRp2217
(dp2218
g54
(dp2219
sg63
g59
sg56
(lp2220
g49
(g70
g51
NtRp2221
(dp2222
g54
(dp2223
g74
g75
ssg63
g2217
sg56
(lp2224
S'post_vars'
p2225
asbag49
(g70
g51
NtRp2226
(dp2227
g54
(dp2228
g81
g82
ssg63
g2217
sg56
(lp2229
S':'
asbag49
(g70
g51
NtRp2230
(dp2231
g54
(dp2232
sg63
g2217
sg56
(lp2233
g49
(g50
g51
NtRp2234
(dp2235
g54
(dp2236
g62
I5
ssg63
g2230
sg56
(lp2237
g49
(g58
g51
NtRp2238
(dp2239
g54
(dp2240
g62
I4
ssg63
Nsg56
(lp2241
sbasbasbasbag49
(g65
g51
NtRp2242
(dp2243
g54
(dp2244
sg63
g59
sg56
(lp2245
g49
(g70
g51
NtRp2246
(dp2247
g54
(dp2248
g74
g75
ssg63
g2242
sg56
(lp2249
S'url'
p2250
asbag49
(g70
g51
NtRp2251
(dp2252
g54
(dp2253
g81
g82
ssg63
g2242
sg56
(lp2254
S':'
asbag49
(g70
g51
NtRp2255
(dp2256
g54
(dp2257
sg63
g2242
sg56
(lp2258
g49
(g50
g51
NtRp2259
(dp2260
g54
(dp2261
g62
I5
ssg63
g2255
sg56
(lp2262
S'/unioeste_code/default/index'
p2263
asbasbasbag49
(g65
g51
NtRp2264
(dp2265
g54
(dp2266
sg63
g59
sg56
(lp2267
g49
(g70
g51
NtRp2268
(dp2269
g54
(dp2270
g74
g75
ssg63
g2264
sg56
(lp2271
S'utcnow'
p2272
asbag49
(g70
g51
NtRp2273
(dp2274
g54
(dp2275
g81
g82
ssg63
g2264
sg56
(lp2276
S':'
asbag49
(g70
g51
NtRp2277
(dp2278
g54
(dp2279
sg63
g2264
sg56
(lp2280
g49
(g50
g51
NtRp2281
(dp2282
g54
(dp2283
g62
I5
ssg63
g2277
sg56
(lp2284
S'datetime.datetime(2012, 7, 31, 2, 8, 5, 433000)'
p2285
asbasbasbag49
(g65
g51
NtRp2286
(dp2287
g54
(dp2288
sg63
g59
sg56
(lp2289
g49
(g70
g51
NtRp2290
(dp2291
g54
(dp2292
g74
g75
ssg63
g2286
sg56
(lp2293
S'uuid'
p2294
asbag49
(g70
g51
NtRp2295
(dp2296
g54
(dp2297
g81
g82
ssg63
g2286
sg56
(lp2298
S':'
asbag49
(g70
g51
NtRp2299
(dp2300
g54
(dp2301
sg63
g2286
sg56
(lp2302
g49
(g50
g51
NtRp2303
(dp2304
g54
(dp2305
g62
I5
ssg63
g2299
sg56
(lp2306
S'unioeste_code/127.0.0.1.2012-07-30.23-08-05.0308fae4-1539-4555-b2d1-b97fb7c5ef57'
p2307
asbasbasbag49
(g65
g51
NtRp2308
(dp2309
g54
(dp2310
sg63
g59
sg56
(lp2311
g49
(g70
g51
NtRp2312
(dp2313
g54
(dp2314
g74
g75
ssg63
g2308
sg56
(lp2315
S'vars'
p2316
asbag49
(g70
g51
NtRp2317
(dp2318
g54
(dp2319
g81
g82
ssg63
g2308
sg56
(lp2320
S':'
asbag49
(g70
g51
NtRp2321
(dp2322
g54
(dp2323
sg63
g2308
sg56
(lp2324
g49
(g50
g51
NtRp2325
(dp2326
g54
(dp2327
g62
I5
ssg63
g2321
sg56
(lp2328
g49
(g58
g51
NtRp2329
(dp2330
g54
(dp2331
g62
I4
ssg63
Nsg56
(lp2332
sbasbasbasbag49
(g65
g51
NtRp2333
(dp2334
g54
(dp2335
sg63
g59
sg56
(lp2336
g49
(g70
g51
NtRp2337
(dp2338
g54
(dp2339
g74
g75
ssg63
g2333
sg56
(lp2340
S'wsgi'
p2341
asbag49
(g70
g51
NtRp2342
(dp2343
g54
(dp2344
g81
g82
ssg63
g2333
sg56
(lp2345
S':'
asbag49
(g70
g51
NtRp2346
(dp2347
g54
(dp2348
sg63
g2333
sg56
(lp2349
g49
(g50
g51
NtRp2350
(dp2351
g54
(dp2352
g62
I5
ssg63
g2346
sg56
(lp2353
g49
(g58
g51
NtRp2354
(dp2355
g54
(dp2356
g62
I4
ssg63
Nsg56
(lp2357
g49
(g65
g51
NtRp2358
(dp2359
g54
(dp2360
sg63
g2354
sg56
(lp2361
g49
(g70
g51
NtRp2362
(dp2363
g54
(dp2364
g74
g75
ssg63
g2358
sg56
(lp2365
S'environ'
p2366
asbag49
(g70
g51
NtRp2367
(dp2368
g54
(dp2369
g81
g82
ssg63
g2358
sg56
(lp2370
S':'
asbag49
(g70
g51
NtRp2371
(dp2372
g54
(dp2373
sg63
g2358
sg56
(lp2374
g49
(g50
g51
NtRp2375
(dp2376
g54
(dp2377
g62
I4
ssg63
g2371
sg56
(lp2378
g49
(g58
g51
NtRp2379
(dp2380
g54
(dp2381
g62
I3
ssg63
Nsg56
(lp2382
g49
(g65
g51
NtRp2383
(dp2384
g54
(dp2385
sg63
g2379
sg56
(lp2386
g49
(g70
g51
NtRp2387
(dp2388
g54
(dp2389
g74
g75
ssg63
g2383
sg56
(lp2390
S'HTTP_ACCEPT'
p2391
asbag49
(g70
g51
NtRp2392
(dp2393
g54
(dp2394
g81
g82
ssg63
g2383
sg56
(lp2395
S':'
asbag49
(g70
g51
NtRp2396
(dp2397
g54
(dp2398
sg63
g2383
sg56
(lp2399
g49
(g50
g51
NtRp2400
(dp2401
g54
(dp2402
g62
I3
ssg63
g2396
sg56
(lp2403
g934
asbasbasbag49
(g65
g51
NtRp2404
(dp2405
g54
(dp2406
sg63
g2379
sg56
(lp2407
g49
(g70
g51
NtRp2408
(dp2409
g54
(dp2410
g74
g75
ssg63
g2404
sg56
(lp2411
S'HTTP_ACCEPT_CHARSET'
p2412
asbag49
(g70
g51
NtRp2413
(dp2414
g54
(dp2415
g81
g82
ssg63
g2404
sg56
(lp2416
S':'
asbag49
(g70
g51
NtRp2417
(dp2418
g54
(dp2419
sg63
g2404
sg56
(lp2420
g49
(g50
g51
NtRp2421
(dp2422
g54
(dp2423
g62
I3
ssg63
g2417
sg56
(lp2424
g956
asbasbasbag49
(g65
g51
NtRp2425
(dp2426
g54
(dp2427
sg63
g2379
sg56
(lp2428
g49
(g70
g51
NtRp2429
(dp2430
g54
(dp2431
g74
g75
ssg63
g2425
sg56
(lp2432
S'HTTP_ACCEPT_ENCODING'
p2433
asbag49
(g70
g51
NtRp2434
(dp2435
g54
(dp2436
g81
g82
ssg63
g2425
sg56
(lp2437
S':'
asbag49
(g70
g51
NtRp2438
(dp2439
g54
(dp2440
sg63
g2425
sg56
(lp2441
g49
(g50
g51
NtRp2442
(dp2443
g54
(dp2444
g62
I3
ssg63
g2438
sg56
(lp2445
g978
asbasbasbag49
(g65
g51
NtRp2446
(dp2447
g54
(dp2448
sg63
g2379
sg56
(lp2449
g49
(g70
g51
NtRp2450
(dp2451
g54
(dp2452
g74
g75
ssg63
g2446
sg56
(lp2453
S'HTTP_ACCEPT_LANGUAGE'
p2454
asbag49
(g70
g51
NtRp2455
(dp2456
g54
(dp2457
g81
g82
ssg63
g2446
sg56
(lp2458
S':'
asbag49
(g70
g51
NtRp2459
(dp2460
g54
(dp2461
sg63
g2446
sg56
(lp2462
g49
(g50
g51
NtRp2463
(dp2464
g54
(dp2465
g62
I3
ssg63
g2459
sg56
(lp2466
g1000
asbasbasbag49
(g65
g51
NtRp2467
(dp2468
g54
(dp2469
sg63
g2379
sg56
(lp2470
g49
(g70
g51
NtRp2471
(dp2472
g54
(dp2473
g74
g75
ssg63
g2467
sg56
(lp2474
S'HTTP_CACHE_CONTROL'
p2475
asbag49
(g70
g51
NtRp2476
(dp2477
g54
(dp2478
g81
g82
ssg63
g2467
sg56
(lp2479
S':'
asbag49
(g70
g51
NtRp2480
(dp2481
g54
(dp2482
sg63
g2467
sg56
(lp2483
g49
(g50
g51
NtRp2484
(dp2485
g54
(dp2486
g62
I3
ssg63
g2480
sg56
(lp2487
g1022
asbasbasbag49
(g65
g51
NtRp2488
(dp2489
g54
(dp2490
sg63
g2379
sg56
(lp2491
g49
(g70
g51
NtRp2492
(dp2493
g54
(dp2494
g74
g75
ssg63
g2488
sg56
(lp2495
S'HTTP_CONNECTION'
p2496
asbag49
(g70
g51
NtRp2497
(dp2498
g54
(dp2499
g81
g82
ssg63
g2488
sg56
(lp2500
S':'
asbag49
(g70
g51
NtRp2501
(dp2502
g54
(dp2503
sg63
g2488
sg56
(lp2504
g49
(g50
g51
NtRp2505
(dp2506
g54
(dp2507
g62
I3
ssg63
g2501
sg56
(lp2508
g1044
asbasbasbag49
(g65
g51
NtRp2509
(dp2510
g54
(dp2511
sg63
g2379
sg56
(lp2512
g49
(g70
g51
NtRp2513
(dp2514
g54
(dp2515
g74
g75
ssg63
g2509
sg56
(lp2516
S'HTTP_COOKIE'
p2517
asbag49
(g70
g51
NtRp2518
(dp2519
g54
(dp2520
g81
g82
ssg63
g2509
sg56
(lp2521
S':'
asbag49
(g70
g51
NtRp2522
(dp2523
g54
(dp2524
sg63
g2509
sg56
(lp2525
g49
(g50
g51
NtRp2526
(dp2527
g54
(dp2528
g62
I3
ssg63
g2522
sg56
(lp2529
g1066
asbasbasbag49
(g65
g51
NtRp2530
(dp2531
g54
(dp2532
sg63
g2379
sg56
(lp2533
g49
(g70
g51
NtRp2534
(dp2535
g54
(dp2536
g74
g75
ssg63
g2530
sg56
(lp2537
S'HTTP_DNT'
p2538
asbag49
(g70
g51
NtRp2539
(dp2540
g54
(dp2541
g81
g82
ssg63
g2530
sg56
(lp2542
S':'
asbag49
(g70
g51
NtRp2543
(dp2544
g54
(dp2545
sg63
g2530
sg56
(lp2546
g49
(g50
g51
NtRp2547
(dp2548
g54
(dp2549
g62
I3
ssg63
g2543
sg56
(lp2550
S'1'
asbasbasbag49
(g65
g51
NtRp2551
(dp2552
g54
(dp2553
sg63
g2379
sg56
(lp2554
g49
(g70
g51
NtRp2555
(dp2556
g54
(dp2557
g74
g75
ssg63
g2551
sg56
(lp2558
S'HTTP_HOST'
p2559
asbag49
(g70
g51
NtRp2560
(dp2561
g54
(dp2562
g81
g82
ssg63
g2551
sg56
(lp2563
S':'
asbag49
(g70
g51
NtRp2564
(dp2565
g54
(dp2566
sg63
g2551
sg56
(lp2567
g49
(g50
g51
NtRp2568
(dp2569
g54
(dp2570
g62
I3
ssg63
g2564
sg56
(lp2571
g1109
asbasbasbag49
(g65
g51
NtRp2572
(dp2573
g54
(dp2574
sg63
g2379
sg56
(lp2575
g49
(g70
g51
NtRp2576
(dp2577
g54
(dp2578
g74
g75
ssg63
g2572
sg56
(lp2579
S'HTTP_USER_AGENT'
p2580
asbag49
(g70
g51
NtRp2581
(dp2582
g54
(dp2583
g81
g82
ssg63
g2572
sg56
(lp2584
S':'
asbag49
(g70
g51
NtRp2585
(dp2586
g54
(dp2587
sg63
g2572
sg56
(lp2588
g49
(g50
g51
NtRp2589
(dp2590
g54
(dp2591
g62
I3
ssg63
g2585
sg56
(lp2592
g1131
asbasbasbag49
(g65
g51
NtRp2593
(dp2594
g54
(dp2595
sg63
g2379
sg56
(lp2596
g49
(g70
g51
NtRp2597
(dp2598
g54
(dp2599
g74
g75
ssg63
g2593
sg56
(lp2600
S'PATH_INFO'
p2601
asbag49
(g70
g51
NtRp2602
(dp2603
g54
(dp2604
g81
g82
ssg63
g2593
sg56
(lp2605
S':'
asbag49
(g70
g51
NtRp2606
(dp2607
g54
(dp2608
sg63
g2593
sg56
(lp2609
g49
(g50
g51
NtRp2610
(dp2611
g54
(dp2612
g62
I3
ssg63
g2606
sg56
(lp2613
g1195
asbasbasbag49
(g65
g51
NtRp2614
(dp2615
g54
(dp2616
sg63
g2379
sg56
(lp2617
g49
(g70
g51
NtRp2618
(dp2619
g54
(dp2620
g74
g75
ssg63
g2614
sg56
(lp2621
S'QUERY_STRING'
p2622
asbag49
(g70
g51
NtRp2623
(dp2624
g54
(dp2625
g81
g82
ssg63
g2614
sg56
(lp2626
S':'
asbag49
(g70
g51
NtRp2627
(dp2628
g54
(dp2629
sg63
g2614
sg56
(lp2630
g49
(g50
g51
NtRp2631
(dp2632
g54
(dp2633
g62
I3
ssg63
g2627
sg56
(lp2634
S''
asbasbasbag49
(g65
g51
NtRp2635
(dp2636
g54
(dp2637
sg63
g2379
sg56
(lp2638
g49
(g70
g51
NtRp2639
(dp2640
g54
(dp2641
g74
g75
ssg63
g2635
sg56
(lp2642
S'REMOTE_ADDR'
p2643
asbag49
(g70
g51
NtRp2644
(dp2645
g54
(dp2646
g81
g82
ssg63
g2635
sg56
(lp2647
S':'
asbag49
(g70
g51
NtRp2648
(dp2649
g54
(dp2650
sg63
g2635
sg56
(lp2651
g49
(g50
g51
NtRp2652
(dp2653
g54
(dp2654
g62
I3
ssg63
g2648
sg56
(lp2655
g182
asbasbasbag49
(g65
g51
NtRp2656
(dp2657
g54
(dp2658
sg63
g2379
sg56
(lp2659
g49
(g70
g51
NtRp2660
(dp2661
g54
(dp2662
g74
g75
ssg63
g2656
sg56
(lp2663
S'REMOTE_PORT'
p2664
asbag49
(g70
g51
NtRp2665
(dp2666
g54
(dp2667
g81
g82
ssg63
g2656
sg56
(lp2668
S':'
asbag49
(g70
g51
NtRp2669
(dp2670
g54
(dp2671
sg63
g2656
sg56
(lp2672
g49
(g50
g51
NtRp2673
(dp2674
g54
(dp2675
g62
I3
ssg63
g2669
sg56
(lp2676
g1259
asbasbasbag49
(g65
g51
NtRp2677
(dp2678
g54
(dp2679
sg63
g2379
sg56
(lp2680
g49
(g70
g51
NtRp2681
(dp2682
g54
(dp2683
g74
g75
ssg63
g2677
sg56
(lp2684
S'REQUEST_METHOD'
p2685
asbag49
(g70
g51
NtRp2686
(dp2687
g54
(dp2688
g81
g82
ssg63
g2677
sg56
(lp2689
S':'
asbag49
(g70
g51
NtRp2690
(dp2691
g54
(dp2692
sg63
g2677
sg56
(lp2693
g49
(g50
g51
NtRp2694
(dp2695
g54
(dp2696
g62
I3
ssg63
g2690
sg56
(lp2697
g1281
asbasbasbag49
(g65
g51
NtRp2698
(dp2699
g54
(dp2700
sg63
g2379
sg56
(lp2701
g49
(g70
g51
NtRp2702
(dp2703
g54
(dp2704
g74
g75
ssg63
g2698
sg56
(lp2705
S'SCRIPT_NAME'
p2706
asbag49
(g70
g51
NtRp2707
(dp2708
g54
(dp2709
g81
g82
ssg63
g2698
sg56
(lp2710
S':'
asbag49
(g70
g51
NtRp2711
(dp2712
g54
(dp2713
sg63
g2698
sg56
(lp2714
g49
(g50
g51
NtRp2715
(dp2716
g54
(dp2717
g62
I3
ssg63
g2711
sg56
(lp2718
S''
asbasbasbag49
(g65
g51
NtRp2719
(dp2720
g54
(dp2721
sg63
g2379
sg56
(lp2722
g49
(g70
g51
NtRp2723
(dp2724
g54
(dp2725
g74
g75
ssg63
g2719
sg56
(lp2726
S'SERVER_NAME'
p2727
asbag49
(g70
g51
NtRp2728
(dp2729
g54
(dp2730
g81
g82
ssg63
g2719
sg56
(lp2731
S':'
asbag49
(g70
g51
NtRp2732
(dp2733
g54
(dp2734
sg63
g2719
sg56
(lp2735
g49
(g50
g51
NtRp2736
(dp2737
g54
(dp2738
g62
I3
ssg63
g2732
sg56
(lp2739
g1324
asbasbasbag49
(g65
g51
NtRp2740
(dp2741
g54
(dp2742
sg63
g2379
sg56
(lp2743
g49
(g70
g51
NtRp2744
(dp2745
g54
(dp2746
g74
g75
ssg63
g2740
sg56
(lp2747
S'SERVER_PORT'
p2748
asbag49
(g70
g51
NtRp2749
(dp2750
g54
(dp2751
g81
g82
ssg63
g2740
sg56
(lp2752
S':'
asbag49
(g70
g51
NtRp2753
(dp2754
g54
(dp2755
sg63
g2740
sg56
(lp2756
g49
(g50
g51
NtRp2757
(dp2758
g54
(dp2759
g62
I3
ssg63
g2753
sg56
(lp2760
g1346
asbasbasbag49
(g65
g51
NtRp2761
(dp2762
g54
(dp2763
sg63
g2379
sg56
(lp2764
g49
(g70
g51
NtRp2765
(dp2766
g54
(dp2767
g74
g75
ssg63
g2761
sg56
(lp2768
S'SERVER_PROTOCOL'
p2769
asbag49
(g70
g51
NtRp2770
(dp2771
g54
(dp2772
g81
g82
ssg63
g2761
sg56
(lp2773
S':'
asbag49
(g70
g51
NtRp2774
(dp2775
g54
(dp2776
sg63
g2761
sg56
(lp2777
g49
(g50
g51
NtRp2778
(dp2779
g54
(dp2780
g62
I3
ssg63
g2774
sg56
(lp2781
g1368
asbasbasbag49
(g65
g51
NtRp2782
(dp2783
g54
(dp2784
sg63
g2379
sg56
(lp2785
g49
(g70
g51
NtRp2786
(dp2787
g54
(dp2788
g74
g75
ssg63
g2782
sg56
(lp2789
S'SERVER_SOFTWARE'
p2790
asbag49
(g70
g51
NtRp2791
(dp2792
g54
(dp2793
g81
g82
ssg63
g2782
sg56
(lp2794
S':'
asbag49
(g70
g51
NtRp2795
(dp2796
g54
(dp2797
sg63
g2782
sg56
(lp2798
g49
(g50
g51
NtRp2799
(dp2800
g54
(dp2801
g62
I3
ssg63
g2795
sg56
(lp2802
g1390
asbasbasbag49
(g65
g51
NtRp2803
(dp2804
g54
(dp2805
sg63
g2379
sg56
(lp2806
g49
(g70
g51
NtRp2807
(dp2808
g54
(dp2809
g74
g75
ssg63
g2803
sg56
(lp2810
S'wsgi.errors'
p2811
asbag49
(g70
g51
NtRp2812
(dp2813
g54
(dp2814
g81
g82
ssg63
g2803
sg56
(lp2815
S':'
asbag49
(g70
g51
NtRp2816
(dp2817
g54
(dp2818
sg63
g2803
sg56
(lp2819
g49
(g50
g51
NtRp2820
(dp2821
g54
(dp2822
g62
I3
ssg63
g2816
sg56
(lp2823
S'<__main__.Stderr object at 0x00356670>'
p2824
asbasbasbag49
(g65
g51
NtRp2825
(dp2826
g54
(dp2827
sg63
g2379
sg56
(lp2828
g49
(g70
g51
NtRp2829
(dp2830
g54
(dp2831
g74
g75
ssg63
g2825
sg56
(lp2832
S'wsgi.file_wrapper'
p2833
asbag49
(g70
g51
NtRp2834
(dp2835
g54
(dp2836
g81
g82
ssg63
g2825
sg56
(lp2837
S':'
asbag49
(g70
g51
NtRp2838
(dp2839
g54
(dp2840
sg63
g2825
sg56
(lp2841
g49
(g50
g51
NtRp2842
(dp2843
g54
(dp2844
g62
I3
ssg63
g2838
sg56
(lp2845
S'<class wsgiref.util.FileWrapper at 0x02FCDE10>'
p2846
asbasbasbag49
(g65
g51
NtRp2847
(dp2848
g54
(dp2849
sg63
g2379
sg56
(lp2850
g49
(g70
g51
NtRp2851
(dp2852
g54
(dp2853
g74
g75
ssg63
g2847
sg56
(lp2854
S'wsgi.input'
p2855
asbag49
(g70
g51
NtRp2856
(dp2857
g54
(dp2858
g81
g82
ssg63
g2847
sg56
(lp2859
S':'
asbag49
(g70
g51
NtRp2860
(dp2861
g54
(dp2862
sg63
g2847
sg56
(lp2863
g49
(g50
g51
NtRp2864
(dp2865
g54
(dp2866
g62
I3
ssg63
g2860
sg56
(lp2867
S'<cStringIO.StringO object at 0x06CA05A0>'
p2868
asbasbasbag49
(g65
g51
NtRp2869
(dp2870
g54
(dp2871
sg63
g2379
sg56
(lp2872
g49
(g70
g51
NtRp2873
(dp2874
g54
(dp2875
g74
g75
ssg63
g2869
sg56
(lp2876
S'wsgi.multiprocess'
p2877
asbag49
(g70
g51
NtRp2878
(dp2879
g54
(dp2880
g81
g82
ssg63
g2869
sg56
(lp2881
S':'
asbag49
(g70
g51
NtRp2882
(dp2883
g54
(dp2884
sg63
g2869
sg56
(lp2885
g49
(g50
g51
NtRp2886
(dp2887
g54
(dp2888
g62
I3
ssg63
g2882
sg56
(lp2889
g92
asbasbasbag49
(g65
g51
NtRp2890
(dp2891
g54
(dp2892
sg63
g2379
sg56
(lp2893
g49
(g70
g51
NtRp2894
(dp2895
g54
(dp2896
g74
g75
ssg63
g2890
sg56
(lp2897
S'wsgi.multithread'
p2898
asbag49
(g70
g51
NtRp2899
(dp2900
g54
(dp2901
g81
g82
ssg63
g2890
sg56
(lp2902
S':'
asbag49
(g70
g51
NtRp2903
(dp2904
g54
(dp2905
sg63
g2890
sg56
(lp2906
g49
(g50
g51
NtRp2907
(dp2908
g54
(dp2909
g62
I3
ssg63
g2903
sg56
(lp2910
g1630
asbasbasbag49
(g65
g51
NtRp2911
(dp2912
g54
(dp2913
sg63
g2379
sg56
(lp2914
g49
(g70
g51
NtRp2915
(dp2916
g54
(dp2917
g74
g75
ssg63
g2911
sg56
(lp2918
S'wsgi.run_once'
p2919
asbag49
(g70
g51
NtRp2920
(dp2921
g54
(dp2922
g81
g82
ssg63
g2911
sg56
(lp2923
S':'
asbag49
(g70
g51
NtRp2924
(dp2925
g54
(dp2926
sg63
g2911
sg56
(lp2927
g49
(g50
g51
NtRp2928
(dp2929
g54
(dp2930
g62
I3
ssg63
g2924
sg56
(lp2931
g92
asbasbasbag49
(g65
g51
NtRp2932
(dp2933
g54
(dp2934
sg63
g2379
sg56
(lp2935
g49
(g70
g51
NtRp2936
(dp2937
g54
(dp2938
g74
g75
ssg63
g2932
sg56
(lp2939
S'wsgi.url_scheme'
p2940
asbag49
(g70
g51
NtRp2941
(dp2942
g54
(dp2943
g81
g82
ssg63
g2932
sg56
(lp2944
S':'
asbag49
(g70
g51
NtRp2945
(dp2946
g54
(dp2947
sg63
g2932
sg56
(lp2948
g49
(g50
g51
NtRp2949
(dp2950
g54
(dp2951
g62
I3
ssg63
g2945
sg56
(lp2952
g1673
asbasbasbag49
(g65
g51
NtRp2953
(dp2954
g54
(dp2955
sg63
g2379
sg56
(lp2956
g49
(g70
g51
NtRp2957
(dp2958
g54
(dp2959
g74
g75
ssg63
g2953
sg56
(lp2960
S'wsgi.version'
p2961
asbag49
(g70
g51
NtRp2962
(dp2963
g54
(dp2964
g81
g82
ssg63
g2953
sg56
(lp2965
S':'
asbag49
(g70
g51
NtRp2966
(dp2967
g54
(dp2968
sg63
g2953
sg56
(lp2969
g49
(g50
g51
NtRp2970
(dp2971
g54
(dp2972
g62
I3
ssg63
g2966
sg56
(lp2973
S'1'
asbasbasbasbasbasbasbasbasbasbasbasbasbsS'frames'
p2974
(lp2975
(dp2976
S'file'
p2977
S'C:\\web2py\\gluon\\restricted.py'
p2978
sS'dump'
p2979
(dp2980
sS'lnum'
p2981
I205
sS'lines'
p2982
(dp2983
sS'call'
p2984
S'(code=r"response.write(\'<!DOCTYPE html>\\n<!-- paulirish....ponse.write(\'\\n</body>\\n</html>\\n\', escape=False)", environment={\'A\': <class \'gluon.html.A\'>, \'Auth\': <class \'gluon.tools.Auth\'>, \'B\': <class \'gluon.html.B\'>, \'BEAUTIFY\': <class \'gluon.html.BEAUTIFY\'>, \'BODY\': <class \'gluon.html.BODY\'>, \'BR\': <class \'gluon.html.BR\'>, \'BUTTON\': <class \'gluon.html.BUTTON\'>, \'CAT\': <class \'gluon.html.CAT\'>, \'CENTER\': <class \'gluon.html.CENTER\'>, \'CLEANUP\': <class \'gluon.validators.CLEANUP\'>, ...}, layer=r\'C:\\web2py\\applications\\unioeste_code\\views\\default/index.html\')'
p2985
sS'func'
p2986
S'restricted'
p2987
sa(dp2988
g2977
S'C:\\web2py\\applications\\unioeste_code\\views\\default\\index.html'
p2989
sg2979
(dp2990
sg2981
I90
sg2982
(dp2991
I96
S'if right_sidebar_enabled:'
p2992
sI97
S'    response.write(\'\\n        <div class="four columns">\\n          \', escape=False)'
p2993
sI98
S"    response.write('\\n          <h3>Right Sidebar</h3>\\n          <p></p>\\n          ', escape=False)"
p2994
sI99
S"    response.write('\\n        </div>    \\n        ', escape=False)"
p2995
sI100
S'    pass'
p2996
sI81
S"response.write('\\n<ul>\\n', escape=False)"
p2997
sI82
S'for problem in problems:'
p2998
sI83
S"    response.write('\\n', escape=False)"
p2999
sI84
S'    user = db(db.auth_user.id==problem.created_by).select().first()'
p3000
sI85
S"    response.write('\\n', escape=False)"
p3001
sI86
S'    response.write(LI(A(problem.title, _style="font-weight:bold;",_href=URL("Problem", args=problem.id)), " by " + user.first_name + " " + user.last_name + " ", SPAN(prettydate(problem.created_on), _style="color:green;font-weight:bold;")))'
p3002
sI87
S"    response.write('\\n', escape=False)"
p3003
sI88
S'    pass'
p3004
sI89
S"response.write('\\n\\n\\n', escape=False)"
p3005
sI90
S'from pyGravatar import Gravatar'
p3006
sI91
S"response.write('\\n', escape=False)"
p3007
sI92
S'IMG(_src=Gravatar(auth.user.email).thumb())'
p3008
sI93
S"response.write('\\n\\n\\n</ul>\\n\\n', escape=False)"
p3009
sI94
S"response.write('\\n          ', escape=False)"
p3010
sI95
S"response.write('\\n        </div>\\n        \\n        ', escape=False)"
p3011
ssg2984
S'()'
p3012
sg2986
S'<module>'
p3013
sa(dp3014
g2977
S'C:\\web2py\\gluon\\custom_import.py'
p3015
sg2979
(dp3016
sg2981
I289
sg2982
(dp3017
sg2984
S"(self=<gluon.custom_import._Web2pyImporter object at 0x030613B0>, name='pyGravatar', globals={'A': <class 'gluon.html.A'>, 'Auth': <class 'gluon.tools.Auth'>, 'B': <class 'gluon.html.B'>, 'BEAUTIFY': <class 'gluon.html.BEAUTIFY'>, 'BODY': <class 'gluon.html.BODY'>, 'BR': <class 'gluon.html.BR'>, 'BUTTON': <class 'gluon.html.BUTTON'>, 'CAT': <class 'gluon.html.CAT'>, 'CENTER': <class 'gluon.html.CENTER'>, 'CLEANUP': <class 'gluon.validators.CLEANUP'>, ...}, locals={'A': <class 'gluon.html.A'>, 'Auth': <class 'gluon.tools.Auth'>, 'B': <class 'gluon.html.B'>, 'BEAUTIFY': <class 'gluon.html.BEAUTIFY'>, 'BODY': <class 'gluon.html.BODY'>, 'BR': <class 'gluon.html.BR'>, 'BUTTON': <class 'gluon.html.BUTTON'>, 'CAT': <class 'gluon.html.CAT'>, 'CENTER': <class 'gluon.html.CENTER'>, 'CLEANUP': <class 'gluon.validators.CLEANUP'>, ...}, fromlist=('Gravatar',), level=-1)"
p3018
sg2986
S'__call__'
p3019
sa(dp3020
g2977
S'C:\\web2py\\gluon\\custom_import.py'
p3021
sg2979
(dp3022
sg2981
I78
sg2982
(dp3023
sg2984
S"(self=<gluon.custom_import._Web2pyImporter object at 0x030613B0>, name='applications.unioeste_code.modules.pyGravatar', globals={'A': <class 'gluon.html.A'>, 'Auth': <class 'gluon.tools.Auth'>, 'B': <class 'gluon.html.B'>, 'BEAUTIFY': <class 'gluon.html.BEAUTIFY'>, 'BODY': <class 'gluon.html.BODY'>, 'BR': <class 'gluon.html.BR'>, 'BUTTON': <class 'gluon.html.BUTTON'>, 'CAT': <class 'gluon.html.CAT'>, 'CENTER': <class 'gluon.html.CENTER'>, 'CLEANUP': <class 'gluon.validators.CLEANUP'>, ...}, locals={'A': <class 'gluon.html.A'>, 'Auth': <class 'gluon.tools.Auth'>, 'B': <class 'gluon.html.B'>, 'BEAUTIFY': <class 'gluon.html.BEAUTIFY'>, 'BODY': <class 'gluon.html.BODY'>, 'BR': <class 'gluon.html.BR'>, 'BUTTON': <class 'gluon.html.BUTTON'>, 'CAT': <class 'gluon.html.CAT'>, 'CENTER': <class 'gluon.html.CENTER'>, 'CLEANUP': <class 'gluon.validators.CLEANUP'>, ...}, fromlist=('Gravatar',), level=-1)"
p3024
sg2986
g3019
sa(dp3025
g2977
S'C:\\web2py\\applications\\unioeste_code\\modules\\pyGravatar.py'
p3026
sg2979
(dp3027
sg2981
I27
sg2982
(dp3028
I22
S"RATINGS         = ['g', 'pg', 'r', 'x']"
p3029
sI23
S'MAX_SIZE        = 512'
p3030
sI24
S'MIN_SIZE        = 1'
p3031
sI25
S"DEFAULTS        = ['404', 'mm', 'identicon', 'monsterid', 'wavatar', 'retro']"
p3032
sI26
S''
sI27
S'class Gravatar(object):'
p3033
sI28
S'    """'
p3034
sI29
S'    Represents a Gravatar user.'
p3035
sI30
S'    """'
p3036
sI31
S''
ssg2984
S'()'
p3037
sg2986
S'<module>'
p3038
sa(dp3039
g2977
S'C:\\web2py\\applications\\unioeste_code\\modules\\pyGravatar.py'
p3040
sg2979
(dp3041
sg2981
I47
sg2982
(dp3042
I42
S'    @property'
p3043
sI43
S'    def secure(self):'
p3044
sI44
S'        """Return the secure parameter."""'
p3045
sI45
S'        return self._secure'
p3046
sI46
S''
sI47
S'    @secure.setter'
p3047
sI48
S'    def secure(self, value):'
p3048
sI49
S'        """Set the secure parameter and regenerate the thumbnail link."""'
p3049
sI50
S'        self._secure = value'
p3050
sI51
S'        self._thumb  = self._link_to_img()'
p3051
ssg2984
S'()'
p3052
sg2986
S'Gravatar'
p3053
sasS'pyver'
p3054
S'Python 2.5.4: C:\\web2py\\web2py_no_console.exe'
p3055
sS'session'
p3056
g49
(g50
g51
NtRp3057
(dp3058
g54
(dp3059
sg56
(lp3060
g49
(g58
g51
NtRp3061
(dp3062
g54
(dp3063
g62
I5
ssg63
Nsg56
(lp3064
sbasbsS'etype'
p3065
S"<type 'exceptions.AttributeError'>"
p3066
sS'date'
p3067
S'Mon Jul 30 23:08:05 2012'
p3068
sS'response'
p3069
g49
(g50
g51
NtRp3070
(dp3071
g54
(dp3072
sg56
(lp3073
g49
(g58
g51
NtRp3074
(dp3075
g54
(dp3076
g62
I5
ssg63
Nsg56
(lp3077
g49
(g65
g51
NtRp3078
(dp3079
g54
(dp3080
sg63
g3074
sg56
(lp3081
g49
(g70
g51
NtRp3082
(dp3083
g54
(dp3084
g74
g75
ssg63
g3078
sg56
(lp3085
g147
asbag49
(g70
g51
NtRp3086
(dp3087
g54
(dp3088
g81
g82
ssg63
g3078
sg56
(lp3089
S':'
asbag49
(g70
g51
NtRp3090
(dp3091
g54
(dp3092
sg63
g3078
sg56
(lp3093
g49
(g50
g51
NtRp3094
(dp3095
g54
(dp3096
g62
I5
ssg63
g3090
sg56
(lp3097
S'<cStringIO.StringO object at 0x06CA00C0>'
p3098
asbasbasbag49
(g65
g51
NtRp3099
(dp3100
g54
(dp3101
sg63
g3074
sg56
(lp3102
g49
(g70
g51
NtRp3103
(dp3104
g54
(dp3105
g74
g75
ssg63
g3099
sg56
(lp3106
g213
asbag49
(g70
g51
NtRp3107
(dp3108
g54
(dp3109
g81
g82
ssg63
g3099
sg56
(lp3110
S':'
asbag49
(g70
g51
NtRp3111
(dp3112
g54
(dp3113
sg63
g3099
sg56
(lp3114
g49
(g50
g51
NtRp3115
(dp3116
g54
(dp3117
g62
I5
ssg63
g3111
sg56
(lp3118
g49
(g58
g51
NtRp3119
(dp3120
g54
(dp3121
g62
I4
ssg63
Nsg56
(lp3122
g49
(g65
g51
NtRp3123
(dp3124
g54
(dp3125
sg63
g3119
sg56
(lp3126
g49
(g70
g51
NtRp3127
(dp3128
g54
(dp3129
g74
g75
ssg63
g3123
sg56
(lp3130
S'session_id_unioeste_code'
p3131
asbag49
(g70
g51
NtRp3132
(dp3133
g54
(dp3134
g81
g82
ssg63
g3123
sg56
(lp3135
S':'
asbag49
(g70
g51
NtRp3136
(dp3137
g54
(dp3138
sg63
g3123
sg56
(lp3139
g49
(g50
g51
NtRp3140
(dp3141
g54
(dp3142
g62
I4
ssg63
g3136
sg56
(lp3143
g49
(g58
g51
NtRp3144
(dp3145
g54
(dp3146
g62
I3
ssg63
Nsg56
(lp3147
g49
(g65
g51
NtRp3148
(dp3149
g54
(dp3150
sg63
g3144
sg56
(lp3151
g49
(g70
g51
NtRp3152
(dp3153
g54
(dp3154
g74
g75
ssg63
g3148
sg56
(lp3155
g263
asbag49
(g70
g51
NtRp3156
(dp3157
g54
(dp3158
g81
g82
ssg63
g3148
sg56
(lp3159
S':'
asbag49
(g70
g51
NtRp3160
(dp3161
g54
(dp3162
sg63
g3148
sg56
(lp3163
g49
(g50
g51
NtRp3164
(dp3165
g54
(dp3166
g62
I3
ssg63
g3160
sg56
(lp3167
S''
asbasbasbag49
(g65
g51
NtRp3168
(dp3169
g54
(dp3170
sg63
g3144
sg56
(lp3171
g49
(g70
g51
NtRp3172
(dp3173
g54
(dp3174
g74
g75
ssg63
g3168
sg56
(lp3175
g284
asbag49
(g70
g51
NtRp3176
(dp3177
g54
(dp3178
g81
g82
ssg63
g3168
sg56
(lp3179
S':'
asbag49
(g70
g51
NtRp3180
(dp3181
g54
(dp3182
sg63
g3168
sg56
(lp3183
g49
(g50
g51
NtRp3184
(dp3185
g54
(dp3186
g62
I3
ssg63
g3180
sg56
(lp3187
S''
asbasbasbag49
(g65
g51
NtRp3188
(dp3189
g54
(dp3190
sg63
g3144
sg56
(lp3191
g49
(g70
g51
NtRp3192
(dp3193
g54
(dp3194
g74
g75
ssg63
g3188
sg56
(lp3195
g305
asbag49
(g70
g51
NtRp3196
(dp3197
g54
(dp3198
g81
g82
ssg63
g3188
sg56
(lp3199
S':'
asbag49
(g70
g51
NtRp3200
(dp3201
g54
(dp3202
sg63
g3188
sg56
(lp3203
g49
(g50
g51
NtRp3204
(dp3205
g54
(dp3206
g62
I3
ssg63
g3200
sg56
(lp3207
S''
asbasbasbag49
(g65
g51
NtRp3208
(dp3209
g54
(dp3210
sg63
g3144
sg56
(lp3211
g49
(g70
g51
NtRp3212
(dp3213
g54
(dp3214
g74
g75
ssg63
g3208
sg56
(lp3215
g326
asbag49
(g70
g51
NtRp3216
(dp3217
g54
(dp3218
g81
g82
ssg63
g3208
sg56
(lp3219
S':'
asbag49
(g70
g51
NtRp3220
(dp3221
g54
(dp3222
sg63
g3208
sg56
(lp3223
g49
(g50
g51
NtRp3224
(dp3225
g54
(dp3226
g62
I3
ssg63
g3220
sg56
(lp3227
S''
asbasbasbag49
(g65
g51
NtRp3228
(dp3229
g54
(dp3230
sg63
g3144
sg56
(lp3231
g49
(g70
g51
NtRp3232
(dp3233
g54
(dp3234
g74
g75
ssg63
g3228
sg56
(lp3235
g347
asbag49
(g70
g51
NtRp3236
(dp3237
g54
(dp3238
g81
g82
ssg63
g3228
sg56
(lp3239
S':'
asbag49
(g70
g51
NtRp3240
(dp3241
g54
(dp3242
sg63
g3228
sg56
(lp3243
g49
(g50
g51
NtRp3244
(dp3245
g54
(dp3246
g62
I3
ssg63
g3240
sg56
(lp3247
S'/'
asbasbasbag49
(g65
g51
NtRp3248
(dp3249
g54
(dp3250
sg63
g3144
sg56
(lp3251
g49
(g70
g51
NtRp3252
(dp3253
g54
(dp3254
g74
g75
ssg63
g3248
sg56
(lp3255
g368
asbag49
(g70
g51
NtRp3256
(dp3257
g54
(dp3258
g81
g82
ssg63
g3248
sg56
(lp3259
S':'
asbag49
(g70
g51
NtRp3260
(dp3261
g54
(dp3262
sg63
g3248
sg56
(lp3263
g49
(g50
g51
NtRp3264
(dp3265
g54
(dp3266
g62
I3
ssg63
g3260
sg56
(lp3267
S''
asbasbasbag49
(g65
g51
NtRp3268
(dp3269
g54
(dp3270
sg63
g3144
sg56
(lp3271
g49
(g70
g51
NtRp3272
(dp3273
g54
(dp3274
g74
g75
ssg63
g3268
sg56
(lp3275
g389
asbag49
(g70
g51
NtRp3276
(dp3277
g54
(dp3278
g81
g82
ssg63
g3268
sg56
(lp3279
S':'
asbag49
(g70
g51
NtRp3280
(dp3281
g54
(dp3282
sg63
g3268
sg56
(lp3283
g49
(g50
g51
NtRp3284
(dp3285
g54
(dp3286
g62
I3
ssg63
g3280
sg56
(lp3287
S''
asbasbasbasbasbasbasbasbasbasbasbag49
(g65
g51
NtRp3288
(dp3289
g54
(dp3290
sg63
g3074
sg56
(lp3291
g49
(g70
g51
NtRp3292
(dp3293
g54
(dp3294
g74
g75
ssg63
g3288
sg56
(lp3295
S'delimiters'
p3296
asbag49
(g70
g51
NtRp3297
(dp3298
g54
(dp3299
g81
g82
ssg63
g3288
sg56
(lp3300
S':'
asbag49
(g70
g51
NtRp3301
(dp3302
g54
(dp3303
sg63
g3288
sg56
(lp3304
g49
(g50
g51
NtRp3305
(dp3306
g54
(dp3307
g62
I5
ssg63
g3301
sg56
(lp3308
g49
(g58
g51
NtRp3309
(dp3310
g54
(dp3311
g62
I4
ssg63
Nsg56
(lp3312
g49
(g65
g51
NtRp3313
(dp3314
g54
(dp3315
sg63
g3309
sg56
(lp3316
g49
(g70
g51
NtRp3317
(dp3318
g54
(dp3319
sg63
g3313
sg56
(lp3320
g49
(g50
g51
NtRp3321
(dp3322
g54
(dp3323
g62
I4
ssg63
g3317
sg56
(lp3324
S'{{'
p3325
asbasbasbag49
(g65
g51
NtRp3326
(dp3327
g54
(dp3328
sg63
g3309
sg56
(lp3329
g49
(g70
g51
NtRp3330
(dp3331
g54
(dp3332
sg63
g3326
sg56
(lp3333
g49
(g50
g51
NtRp3334
(dp3335
g54
(dp3336
g62
I4
ssg63
g3330
sg56
(lp3337
S'}}'
p3338
asbasbasbasbasbasbasbag49
(g65
g51
NtRp3339
(dp3340
g54
(dp3341
sg63
g3074
sg56
(lp3342
g49
(g70
g51
NtRp3343
(dp3344
g54
(dp3345
g74
g75
ssg63
g3339
sg56
(lp3346
S'files'
p3347
asbag49
(g70
g51
NtRp3348
(dp3349
g54
(dp3350
g81
g82
ssg63
g3339
sg56
(lp3351
S':'
asbag49
(g70
g51
NtRp3352
(dp3353
g54
(dp3354
sg63
g3339
sg56
(lp3355
g49
(g50
g51
NtRp3356
(dp3357
g54
(dp3358
g62
I5
ssg63
g3352
sg56
(lp3359
g49
(g58
g51
NtRp3360
(dp3361
g54
(dp3362
g62
I4
ssg63
Nsg56
(lp3363
g49
(g65
g51
NtRp3364
(dp3365
g54
(dp3366
sg63
g3360
sg56
(lp3367
g49
(g70
g51
NtRp3368
(dp3369
g54
(dp3370
sg63
g3364
sg56
(lp3371
g49
(g50
g51
NtRp3372
(dp3373
g54
(dp3374
g62
I4
ssg63
g3368
sg56
(lp3375
S'/unioeste_code/static/js/jquery.js'
p3376
asbasbasbag49
(g65
g51
NtRp3377
(dp3378
g54
(dp3379
sg63
g3360
sg56
(lp3380
g49
(g70
g51
NtRp3381
(dp3382
g54
(dp3383
sg63
g3377
sg56
(lp3384
g49
(g50
g51
NtRp3385
(dp3386
g54
(dp3387
g62
I4
ssg63
g3381
sg56
(lp3388
S'/unioeste_code/static/css/calendar.css'
p3389
asbasbasbag49
(g65
g51
NtRp3390
(dp3391
g54
(dp3392
sg63
g3360
sg56
(lp3393
g49
(g70
g51
NtRp3394
(dp3395
g54
(dp3396
sg63
g3390
sg56
(lp3397
g49
(g50
g51
NtRp3398
(dp3399
g54
(dp3400
g62
I4
ssg63
g3394
sg56
(lp3401
S'/unioeste_code/static/js/calendar.js'
p3402
asbasbasbag49
(g65
g51
NtRp3403
(dp3404
g54
(dp3405
sg63
g3360
sg56
(lp3406
g49
(g70
g51
NtRp3407
(dp3408
g54
(dp3409
sg63
g3403
sg56
(lp3410
g49
(g50
g51
NtRp3411
(dp3412
g54
(dp3413
g62
I4
ssg63
g3407
sg56
(lp3414
S'/unioeste_code/static/js/web2py.js'
p3415
asbasbasbag49
(g65
g51
NtRp3416
(dp3417
g54
(dp3418
sg63
g3360
sg56
(lp3419
g49
(g70
g51
NtRp3420
(dp3421
g54
(dp3422
sg63
g3416
sg56
(lp3423
g49
(g50
g51
NtRp3424
(dp3425
g54
(dp3426
g62
I4
ssg63
g3420
sg56
(lp3427
S'/unioeste_code/static/css/skeleton.css'
p3428
asbasbasbag49
(g65
g51
NtRp3429
(dp3430
g54
(dp3431
sg63
g3360
sg56
(lp3432
g49
(g70
g51
NtRp3433
(dp3434
g54
(dp3435
sg63
g3429
sg56
(lp3436
g49
(g50
g51
NtRp3437
(dp3438
g54
(dp3439
g62
I4
ssg63
g3433
sg56
(lp3440
S'/unioeste_code/static/css/web2py.css'
p3441
asbasbasbag49
(g65
g51
NtRp3442
(dp3443
g54
(dp3444
sg63
g3360
sg56
(lp3445
g49
(g70
g51
NtRp3446
(dp3447
g54
(dp3448
sg63
g3442
sg56
(lp3449
g49
(g50
g51
NtRp3450
(dp3451
g54
(dp3452
g62
I4
ssg63
g3446
sg56
(lp3453
S'/unioeste_code/static/css/superfish.css'
p3454
asbasbasbag49
(g65
g51
NtRp3455
(dp3456
g54
(dp3457
sg63
g3360
sg56
(lp3458
g49
(g70
g51
NtRp3459
(dp3460
g54
(dp3461
sg63
g3455
sg56
(lp3462
g49
(g50
g51
NtRp3463
(dp3464
g54
(dp3465
g62
I4
ssg63
g3459
sg56
(lp3466
S'/unioeste_code/static/js/superfish.js'
p3467
asbasbasbasbasbasbasbag49
(g65
g51
NtRp3468
(dp3469
g54
(dp3470
sg63
g3074
sg56
(lp3471
g49
(g70
g51
NtRp3472
(dp3473
g54
(dp3474
g74
g75
ssg63
g3468
sg56
(lp3475
S'flash'
p3476
asbag49
(g70
g51
NtRp3477
(dp3478
g54
(dp3479
g81
g82
ssg63
g3468
sg56
(lp3480
S':'
asbag49
(g70
g51
NtRp3481
(dp3482
g54
(dp3483
sg63
g3468
sg56
(lp3484
g49
(g50
g51
NtRp3485
(dp3486
g54
(dp3487
g62
I5
ssg63
g3481
sg56
(lp3488
S''
asbasbasbag49
(g65
g51
NtRp3489
(dp3490
g54
(dp3491
sg63
g3074
sg56
(lp3492
g49
(g70
g51
NtRp3493
(dp3494
g54
(dp3495
g74
g75
ssg63
g3489
sg56
(lp3496
S'generic_patterns'
p3497
asbag49
(g70
g51
NtRp3498
(dp3499
g54
(dp3500
g81
g82
ssg63
g3489
sg56
(lp3501
S':'
asbag49
(g70
g51
NtRp3502
(dp3503
g54
(dp3504
sg63
g3489
sg56
(lp3505
g49
(g50
g51
NtRp3506
(dp3507
g54
(dp3508
g62
I5
ssg63
g3502
sg56
(lp3509
g49
(g58
g51
NtRp3510
(dp3511
g54
(dp3512
g62
I4
ssg63
Nsg56
(lp3513
sbasbasbasbag49
(g65
g51
NtRp3514
(dp3515
g54
(dp3516
sg63
g3074
sg56
(lp3517
g49
(g70
g51
NtRp3518
(dp3519
g54
(dp3520
g74
g75
ssg63
g3514
sg56
(lp3521
S'headers'
p3522
asbag49
(g70
g51
NtRp3523
(dp3524
g54
(dp3525
g81
g82
ssg63
g3514
sg56
(lp3526
S':'
asbag49
(g70
g51
NtRp3527
(dp3528
g54
(dp3529
sg63
g3514
sg56
(lp3530
g49
(g50
g51
NtRp3531
(dp3532
g54
(dp3533
g62
I5
ssg63
g3527
sg56
(lp3534
g49
(g58
g51
NtRp3535
(dp3536
g54
(dp3537
g62
I4
ssg63
Nsg56
(lp3538
g49
(g65
g51
NtRp3539
(dp3540
g54
(dp3541
sg63
g3535
sg56
(lp3542
g49
(g70
g51
NtRp3543
(dp3544
g54
(dp3545
g74
g75
ssg63
g3539
sg56
(lp3546
S'Cache-Control'
p3547
asbag49
(g70
g51
NtRp3548
(dp3549
g54
(dp3550
g81
g82
ssg63
g3539
sg56
(lp3551
S':'
asbag49
(g70
g51
NtRp3552
(dp3553
g54
(dp3554
sg63
g3539
sg56
(lp3555
g49
(g50
g51
NtRp3556
(dp3557
g54
(dp3558
g62
I4
ssg63
g3552
sg56
(lp3559
S'no-store, no-cache, must-revalidate, post-check=0, pre-check=0'
p3560
asbasbasbag49
(g65
g51
NtRp3561
(dp3562
g54
(dp3563
sg63
g3535
sg56
(lp3564
g49
(g70
g51
NtRp3565
(dp3566
g54
(dp3567
g74
g75
ssg63
g3561
sg56
(lp3568
S'Content-Type'
p3569
asbag49
(g70
g51
NtRp3570
(dp3571
g54
(dp3572
g81
g82
ssg63
g3561
sg56
(lp3573
S':'
asbag49
(g70
g51
NtRp3574
(dp3575
g54
(dp3576
sg63
g3561
sg56
(lp3577
g49
(g50
g51
NtRp3578
(dp3579
g54
(dp3580
g62
I4
ssg63
g3574
sg56
(lp3581
S'text/html; charset=utf-8'
p3582
asbasbasbag49
(g65
g51
NtRp3583
(dp3584
g54
(dp3585
sg63
g3535
sg56
(lp3586
g49
(g70
g51
NtRp3587
(dp3588
g54
(dp3589
g74
g75
ssg63
g3583
sg56
(lp3590
S'Expires'
p3591
asbag49
(g70
g51
NtRp3592
(dp3593
g54
(dp3594
g81
g82
ssg63
g3583
sg56
(lp3595
S':'
asbag49
(g70
g51
NtRp3596
(dp3597
g54
(dp3598
sg63
g3583
sg56
(lp3599
g49
(g50
g51
NtRp3600
(dp3601
g54
(dp3602
g62
I4
ssg63
g3596
sg56
(lp3603
S'Tue, 31 Jul 2012 02:08:05 GMT'
p3604
asbasbasbag49
(g65
g51
NtRp3605
(dp3606
g54
(dp3607
sg63
g3535
sg56
(lp3608
g49
(g70
g51
NtRp3609
(dp3610
g54
(dp3611
g74
g75
ssg63
g3605
sg56
(lp3612
S'Pragma'
p3613
asbag49
(g70
g51
NtRp3614
(dp3615
g54
(dp3616
g81
g82
ssg63
g3605
sg56
(lp3617
S':'
asbag49
(g70
g51
NtRp3618
(dp3619
g54
(dp3620
sg63
g3605
sg56
(lp3621
g49
(g50
g51
NtRp3622
(dp3623
g54
(dp3624
g62
I4
ssg63
g3618
sg56
(lp3625
S'no-cache'
p3626
asbasbasbag49
(g65
g51
NtRp3627
(dp3628
g54
(dp3629
sg63
g3535
sg56
(lp3630
g49
(g70
g51
NtRp3631
(dp3632
g54
(dp3633
g74
g75
ssg63
g3627
sg56
(lp3634
S'X-Powered-By'
p3635
asbag49
(g70
g51
NtRp3636
(dp3637
g54
(dp3638
g81
g82
ssg63
g3627
sg56
(lp3639
S':'
asbag49
(g70
g51
NtRp3640
(dp3641
g54
(dp3642
sg63
g3627
sg56
(lp3643
g49
(g50
g51
NtRp3644
(dp3645
g54
(dp3646
g62
I4
ssg63
g3640
sg56
(lp3647
S'web2py'
p3648
asbasbasbasbasbasbasbag49
(g65
g51
NtRp3649
(dp3650
g54
(dp3651
sg63
g3074
sg56
(lp3652
g49
(g70
g51
NtRp3653
(dp3654
g54
(dp3655
g74
g75
ssg63
g3649
sg56
(lp3656
S'menu'
p3657
asbag49
(g70
g51
NtRp3658
(dp3659
g54
(dp3660
g81
g82
ssg63
g3649
sg56
(lp3661
S':'
asbag49
(g70
g51
NtRp3662
(dp3663
g54
(dp3664
sg63
g3649
sg56
(lp3665
g49
(g50
g51
NtRp3666
(dp3667
g54
(dp3668
g62
I5
ssg63
g3662
sg56
(lp3669
g49
(g58
g51
NtRp3670
(dp3671
g54
(dp3672
g62
I4
ssg63
Nsg56
(lp3673
g49
(g65
g51
NtRp3674
(dp3675
g54
(dp3676
sg63
g3670
sg56
(lp3677
g49
(g70
g51
NtRp3678
(dp3679
g54
(dp3680
sg63
g3674
sg56
(lp3681
g49
(g50
g51
NtRp3682
(dp3683
g54
(dp3684
g62
I4
ssg63
g3678
sg56
(lp3685
g49
(g58
g51
NtRp3686
(dp3687
g54
(dp3688
g62
I3
ssg63
Nsg56
(lp3689
g49
(g65
g51
NtRp3690
(dp3691
g54
(dp3692
sg63
g3686
sg56
(lp3693
g49
(g70
g51
NtRp3694
(dp3695
g54
(dp3696
sg63
g3690
sg56
(lp3697
g49
(g50
g51
NtRp3698
(dp3699
g54
(dp3700
g62
I3
ssg63
g3694
sg56
(lp3701
cgluon.languages
lazyT_unpickle
p3702
(S't\x04\x00\x00\x00Home'
tRp3703
asbasbasbag49
(g65
g51
NtRp3704
(dp3705
g54
(dp3706
sg63
g3686
sg56
(lp3707
g49
(g70
g51
NtRp3708
(dp3709
g54
(dp3710
sg63
g3704
sg56
(lp3711
g49
(g50
g51
NtRp3712
(dp3713
g54
(dp3714
g62
I3
ssg63
g3708
sg56
(lp3715
g92
asbasbasbag49
(g65
g51
NtRp3716
(dp3717
g54
(dp3718
sg63
g3686
sg56
(lp3719
g49
(g70
g51
NtRp3720
(dp3721
g54
(dp3722
sg63
g3716
sg56
(lp3723
g49
(g50
g51
NtRp3724
(dp3725
g54
(dp3726
g62
I3
ssg63
g3720
sg56
(lp3727
S'/unioeste_code/default/index'
p3728
asbasbasbag49
(g65
g51
NtRp3729
(dp3730
g54
(dp3731
sg63
g3686
sg56
(lp3732
g49
(g70
g51
NtRp3733
(dp3734
g54
(dp3735
sg63
g3729
sg56
(lp3736
g49
(g50
g51
NtRp3737
(dp3738
g54
(dp3739
g62
I3
ssg63
g3733
sg56
(lp3740
g49
(g58
g51
NtRp3741
(dp3742
g54
(dp3743
g62
I2
ssg63
Nsg56
(lp3744
sbasbasbasbasbasbasbasbag49
(g65
g51
NtRp3745
(dp3746
g54
(dp3747
sg63
g3670
sg56
(lp3748
g49
(g70
g51
NtRp3749
(dp3750
g54
(dp3751
sg63
g3745
sg56
(lp3752
g49
(g50
g51
NtRp3753
(dp3754
g54
(dp3755
g62
I4
ssg63
g3749
sg56
(lp3756
g49
(g58
g51
NtRp3757
(dp3758
g54
(dp3759
g62
I3
ssg63
Nsg56
(lp3760
g49
(g65
g51
NtRp3761
(dp3762
g54
(dp3763
sg63
g3757
sg56
(lp3764
g49
(g70
g51
NtRp3765
(dp3766
g54
(dp3767
sg63
g3761
sg56
(lp3768
g49
(g50
g51
NtRp3769
(dp3770
g54
(dp3771
g62
I3
ssg63
g3765
sg56
(lp3772
g49
(cgluon.html
SPAN
p3773
g51
NtRp3774
(dp3775
g54
(dp3776
g74
S'color:yellow'
p3777
ssg63
g49
(cgluon.html
A
p3778
g51
NtRp3779
(dp3780
g54
(dp3781
S'_onclick'
p3782
S'javascript:void(0);return false;'
p3783
sS'_href'
p3784
S'#'
ssg63
g49
(cgluon.html
LI
p3785
g51
NtRp3786
(dp3787
g54
(dp3788
S'_class'
p3789
S'web2py-menu-expand'
p3790
ssg63
g49
(cgluon.html
UL
p3791
g51
NtRp3792
(dp3793
g54
(dp3794
S'mobile'
p3795
I00
sS'li_class'
p3796
g3790
sg3789
S'sf-menu'
p3797
sS'ul_class'
p3798
S'web2py-menu-vertical'
p3799
sS'li_active'
p3800
S'web2py-menu-active'
p3801
ssg63
Nsg56
(lp3802
g49
(g3785
g51
NtRp3803
(dp3804
g54
(dp3805
sg63
g3792
sg56
(lp3806
g49
(g3778
g51
NtRp3807
(dp3808
g54
(dp3809
g3784
g3728
ssg63
g3803
sg56
(lp3810
g3703
asbasbag3786
asbsg56
(lp3811
g3779
ag49
(g3791
g51
NtRp3812
(dp3813
g54
(dp3814
g3789
g3799
ssg63
g3786
sg56
(lp3815
g49
(g3785
g51
NtRp3816
(dp3817
g54
(dp3818
sg63
g3812
sg56
(lp3819
g49
(g3778
g51
NtRp3820
(dp3821
g54
(dp3822
g3784
S'/admin/default/site'
p3823
ssg63
g3816
sg56
(lp3824
g3702
(S's\x08\x00\x00\x00My Sites'
tRp3825
asbasbag49
(g3785
g51
NtRp3826
(dp3827
g54
(dp3828
g3789
g3790
ssg63
g3812
sg56
(lp3829
g49
(g3778
g51
NtRp3830
(dp3831
g54
(dp3832
g3784
S'/admin/default/design/unioeste_code'
p3833
ssg63
g3826
sg56
(lp3834
g3702
(S's\x08\x00\x00\x00This App'
tRp3835
asbag49
(g3791
g51
NtRp3836
(dp3837
g54
(dp3838
g3789
g3799
ssg63
g3826
sg56
(lp3839
g49
(g3785
g51
NtRp3840
(dp3841
g54
(dp3842
sg63
g3836
sg56
(lp3843
g49
(g3778
g51
NtRp3844
(dp3845
g54
(dp3846
g3784
S'/admin/default/edit/unioeste_code/controllers/default.py'
p3847
ssg63
g3840
sg56
(lp3848
g3702
(S't\x0b\x00\x00\x00Controlador'
tRp3849
asbasbag49
(g3785
g51
NtRp3850
(dp3851
g54
(dp3852
sg63
g3836
sg56
(lp3853
g49
(g3778
g51
NtRp3854
(dp3855
g54
(dp3856
g3784
S'/admin/default/edit/unioeste_code/views/default/index.html'
p3857
ssg63
g3850
sg56
(lp3858
g3702
(S's\x0e\x00\x00\x00Visualiza\xc3\xa7\xc3\xa3o'
tRp3859
asbasbag49
(g3785
g51
NtRp3860
(dp3861
g54
(dp3862
sg63
g3836
sg56
(lp3863
g49
(g3778
g51
NtRp3864
(dp3865
g54
(dp3866
g3784
S'/admin/default/edit/unioeste_code/views/layout.html'
p3867
ssg63
g3860
sg56
(lp3868
g3702
(S't\x06\x00\x00\x00Layout'
tRp3869
asbasbag49
(g3785
g51
NtRp3870
(dp3871
g54
(dp3872
sg63
g3836
sg56
(lp3873
g49
(g3778
g51
NtRp3874
(dp3875
g54
(dp3876
g3784
S'/admin/default/edit/unioeste_code/static/css/web2py.css'
p3877
ssg63
g3870
sg56
(lp3878
g3702
(S't\n\x00\x00\x00Stylesheet'
tRp3879
asbasbag49
(g3785
g51
NtRp3880
(dp3881
g54
(dp3882
sg63
g3836
sg56
(lp3883
g49
(g3778
g51
NtRp3884
(dp3885
g54
(dp3886
g3784
S'/admin/default/edit/unioeste_code/models/db.py'
p3887
ssg63
g3880
sg56
(lp3888
g3702
(S's\t\x00\x00\x00Modelo BD'
tRp3889
asbasbag49
(g3785
g51
NtRp3890
(dp3891
g54
(dp3892
sg63
g3836
sg56
(lp3893
g49
(g3778
g51
NtRp3894
(dp3895
g54
(dp3896
g3784
S'/admin/default/edit/unioeste_code/models/menu.py'
p3897
ssg63
g3890
sg56
(lp3898
g3702
(S's\x0e\x00\x00\x00Modelo de Menu'
tRp3899
asbasbag49
(g3785
g51
NtRp3900
(dp3901
g54
(dp3902
sg63
g3836
sg56
(lp3903
g49
(g3778
g51
NtRp3904
(dp3905
g54
(dp3906
g3784
S'/unioeste_code/appadmin/index'
p3907
ssg63
g3900
sg56
(lp3908
g3702
(S's\x0e\x00\x00\x00Banco de dados'
tRp3909
asbasbag49
(g3785
g51
NtRp3910
(dp3911
g54
(dp3912
sg63
g3836
sg56
(lp3913
g49
(g3778
g51
NtRp3914
(dp3915
g54
(dp3916
g3784
S'/admin/default/errors/unioeste_code'
p3917
ssg63
g3910
sg56
(lp3918
g3702
(S't\x06\x00\x00\x00Errors'
tRp3919
asbasbag49
(g3785
g51
NtRp3920
(dp3921
g54
(dp3922
sg63
g3836
sg56
(lp3923
g49
(g3778
g51
NtRp3924
(dp3925
g54
(dp3926
g3784
S'/admin/default/about/unioeste_code'
p3927
ssg63
g3920
sg56
(lp3928
g3702
(S't\x05\x00\x00\x00About'
tRp3929
asbasbasbasbag49
(g3785
g51
NtRp3930
(dp3931
g54
(dp3932
g3789
g3790
ssg63
g3812
sg56
(lp3933
g49
(g3778
g51
NtRp3934
(dp3935
g54
(dp3936
g3784
S'http://www.web2py.com'
p3937
ssg63
g3930
sg56
(lp3938
S'web2py.com'
p3939
asbag49
(g3791
g51
NtRp3940
(dp3941
g54
(dp3942
g3789
g3799
ssg63
g3930
sg56
(lp3943
g49
(g3785
g51
NtRp3944
(dp3945
g54
(dp3946
sg63
g3940
sg56
(lp3947
g49
(g3778
g51
NtRp3948
(dp3949
g54
(dp3950
g3784
S'http://www.web2py.com/examples/default/download'
p3951
ssg63
g3944
sg56
(lp3952
g3702
(S't\x08\x00\x00\x00Download'
tRp3953
asbasbag49
(g3785
g51
NtRp3954
(dp3955
g54
(dp3956
sg63
g3940
sg56
(lp3957
g49
(g3778
g51
NtRp3958
(dp3959
g54
(dp3960
g3784
S'http://www.web2py.com/examples/default/support'
p3961
ssg63
g3954
sg56
(lp3962
g3702
(S't\x07\x00\x00\x00Support'
tRp3963
asbasbag49
(g3785
g51
NtRp3964
(dp3965
g54
(dp3966
sg63
g3940
sg56
(lp3967
g49
(g3778
g51
NtRp3968
(dp3969
g54
(dp3970
g3784
S'http://web2py.com/demo_admin'
p3971
ssg63
g3964
sg56
(lp3972
g3702
(S't\x04\x00\x00\x00Demo'
tRp3973
asbasbag49
(g3785
g51
NtRp3974
(dp3975
g54
(dp3976
sg63
g3940
sg56
(lp3977
g49
(g3778
g51
NtRp3978
(dp3979
g54
(dp3980
g3784
S'http://web2py.com/examples/default/examples'
p3981
ssg63
g3974
sg56
(lp3982
g3702
(S's\x0e\x00\x00\x00Quick Examples'
tRp3983
asbasbag49
(g3785
g51
NtRp3984
(dp3985
g54
(dp3986
sg63
g3940
sg56
(lp3987
g49
(g3778
g51
NtRp3988
(dp3989
g54
(dp3990
g3784
S'http://web2py.com/AlterEgo'
p3991
ssg63
g3984
sg56
(lp3992
g3702
(S't\x03\x00\x00\x00FAQ'
tRp3993
asbasbag49
(g3785
g51
NtRp3994
(dp3995
g54
(dp3996
sg63
g3940
sg56
(lp3997
g49
(g3778
g51
NtRp3998
(dp3999
g54
(dp4000
g3784
S'http://www.web2py.com/examples/default/videos/'
p4001
ssg63
g3994
sg56
(lp4002
g3702
(S't\x06\x00\x00\x00Videos'
tRp4003
asbasbag49
(g3785
g51
NtRp4004
(dp4005
g54
(dp4006
sg63
g3940
sg56
(lp4007
g49
(g3778
g51
NtRp4008
(dp4009
g54
(dp4010
g3784
S'http://web2py.com/appliances'
p4011
ssg63
g4004
sg56
(lp4012
g3702
(S's\x11\x00\x00\x00Free Applications'
tRp4013
asbasbag49
(g3785
g51
NtRp4014
(dp4015
g54
(dp4016
sg63
g3940
sg56
(lp4017
g49
(g3778
g51
NtRp4018
(dp4019
g54
(dp4020
g3784
S'http://web2py.com/plugins'
p4021
ssg63
g4014
sg56
(lp4022
g3702
(S't\x07\x00\x00\x00Plugins'
tRp4023
asbasbag49
(g3785
g51
NtRp4024
(dp4025
g54
(dp4026
sg63
g3940
sg56
(lp4027
g49
(g3778
g51
NtRp4028
(dp4029
g54
(dp4030
g3784
S'http://web2py.com/layouts'
p4031
ssg63
g4024
sg56
(lp4032
g3702
(S't\x07\x00\x00\x00Layouts'
tRp4033
asbasbag49
(g3785
g51
NtRp4034
(dp4035
g54
(dp4036
sg63
g3940
sg56
(lp4037
g49
(g3778
g51
NtRp4038
(dp4039
g54
(dp4040
g3784
S'http://web2pyslices.com/'
p4041
ssg63
g4034
sg56
(lp4042
g3702
(S't\x07\x00\x00\x00Recipes'
tRp4043
asbasbag49
(g3785
g51
NtRp4044
(dp4045
g54
(dp4046
sg63
g3940
sg56
(lp4047
g49
(g3778
g51
NtRp4048
(dp4049
g54
(dp4050
g3784
S'http://web2py.com/semantic'
p4051
ssg63
g4044
sg56
(lp4052
g3702
(S't\x08\x00\x00\x00Semantic'
tRp4053
asbasbasbasbag49
(g3785
g51
NtRp4054
(dp4055
g54
(dp4056
g3789
g3790
ssg63
g3812
sg56
(lp4057
g49
(g3778
g51
NtRp4058
(dp4059
g54
(dp4060
g3784
S'http://www.web2py.com/book'
p4061
ssg63
g4054
sg56
(lp4062
g3702
(S't\r\x00\x00\x00Documentation'
tRp4063
asbag49
(g3791
g51
NtRp4064
(dp4065
g54
(dp4066
g3789
g3799
ssg63
g4054
sg56
(lp4067
g49
(g3785
g51
NtRp4068
(dp4069
g54
(dp4070
sg63
g4064
sg56
(lp4071
g49
(g3778
g51
NtRp4072
(dp4073
g54
(dp4074
g3784
S'http://www.web2py.com/book/default/chapter/00'
p4075
ssg63
g4068
sg56
(lp4076
g3702
(S't\x07\x00\x00\x00Preface'
tRp4077
asbasbag49
(g3785
g51
NtRp4078
(dp4079
g54
(dp4080
sg63
g4064
sg56
(lp4081
g49
(g3778
g51
NtRp4082
(dp4083
g54
(dp4084
g3784
S'http://www.web2py.com/book/default/chapter/01'
p4085
ssg63
g4078
sg56
(lp4086
g3702
(S't\x0c\x00\x00\x00Introduction'
tRp4087
asbasbag49
(g3785
g51
NtRp4088
(dp4089
g54
(dp4090
sg63
g4064
sg56
(lp4091
g49
(g3778
g51
NtRp4092
(dp4093
g54
(dp4094
g3784
S'http://www.web2py.com/book/default/chapter/02'
p4095
ssg63
g4088
sg56
(lp4096
g3702
(S't\x06\x00\x00\x00Python'
tRp4097
asbasbag49
(g3785
g51
NtRp4098
(dp4099
g54
(dp4100
sg63
g4064
sg56
(lp4101
g49
(g3778
g51
NtRp4102
(dp4103
g54
(dp4104
g3784
S'http://www.web2py.com/book/default/chapter/03'
p4105
ssg63
g4098
sg56
(lp4106
g3702
(S't\x08\x00\x00\x00Overview'
tRp4107
asbasbag49
(g3785
g51
NtRp4108
(dp4109
g54
(dp4110
sg63
g4064
sg56
(lp4111
g49
(g3778
g51
NtRp4112
(dp4113
g54
(dp4114
g3784
S'http://www.web2py.com/book/default/chapter/04'
p4115
ssg63
g4108
sg56
(lp4116
g3702
(S's\x08\x00\x00\x00The Core'
tRp4117
asbasbag49
(g3785
g51
NtRp4118
(dp4119
g54
(dp4120
sg63
g4064
sg56
(lp4121
g49
(g3778
g51
NtRp4122
(dp4123
g54
(dp4124
g3784
S'http://www.web2py.com/book/default/chapter/05'
p4125
ssg63
g4118
sg56
(lp4126
g3702
(S's\t\x00\x00\x00The Views'
tRp4127
asbasbag49
(g3785
g51
NtRp4128
(dp4129
g54
(dp4130
sg63
g4064
sg56
(lp4131
g49
(g3778
g51
NtRp4132
(dp4133
g54
(dp4134
g3784
S'http://www.web2py.com/book/default/chapter/06'
p4135
ssg63
g4128
sg56
(lp4136
g3702
(S's\x0e\x00\x00\x00Banco de dados'
tRp4137
asbasbag49
(g3785
g51
NtRp4138
(dp4139
g54
(dp4140
sg63
g4064
sg56
(lp4141
g49
(g3778
g51
NtRp4142
(dp4143
g54
(dp4144
g3784
S'http://www.web2py.com/book/default/chapter/07'
p4145
ssg63
g4138
sg56
(lp4146
g3702
(S's\x14\x00\x00\x00Forms and Validators'
tRp4147
asbasbag49
(g3785
g51
NtRp4148
(dp4149
g54
(dp4150
sg63
g4064
sg56
(lp4151
g49
(g3778
g51
NtRp4152
(dp4153
g54
(dp4154
g3784
S'http://www.web2py.com/book/default/chapter/08'
p4155
ssg63
g4148
sg56
(lp4156
g3702
(S's\r\x00\x00\x00Email and SMS'
tRp4157
asbasbag49
(g3785
g51
NtRp4158
(dp4159
g54
(dp4160
sg63
g4064
sg56
(lp4161
g49
(g3778
g51
NtRp4162
(dp4163
g54
(dp4164
g3784
S'http://www.web2py.com/book/default/chapter/09'
p4165
ssg63
g4158
sg56
(lp4166
g3702
(S's\x0e\x00\x00\x00Access Control'
tRp4167
asbasbag49
(g3785
g51
NtRp4168
(dp4169
g54
(dp4170
sg63
g4064
sg56
(lp4171
g49
(g3778
g51
NtRp4172
(dp4173
g54
(dp4174
g3784
S'http://www.web2py.com/book/default/chapter/10'
p4175
ssg63
g4168
sg56
(lp4176
g3702
(S't\x08\x00\x00\x00Services'
tRp4177
asbasbag49
(g3785
g51
NtRp4178
(dp4179
g54
(dp4180
sg63
g4064
sg56
(lp4181
g49
(g3778
g51
NtRp4182
(dp4183
g54
(dp4184
g3784
S'http://www.web2py.com/book/default/chapter/11'
p4185
ssg63
g4178
sg56
(lp4186
g3702
(S's\x0c\x00\x00\x00Ajax Recipes'
tRp4187
asbasbag49
(g3785
g51
NtRp4188
(dp4189
g54
(dp4190
sg63
g4064
sg56
(lp4191
g49
(g3778
g51
NtRp4192
(dp4193
g54
(dp4194
g3784
S'http://www.web2py.com/book/default/chapter/12'
p4195
ssg63
g4188
sg56
(lp4196
g3702
(S's\x16\x00\x00\x00Components and Plugins'
tRp4197
asbasbag49
(g3785
g51
NtRp4198
(dp4199
g54
(dp4200
sg63
g4064
sg56
(lp4201
g49
(g3778
g51
NtRp4202
(dp4203
g54
(dp4204
g3784
S'http://www.web2py.com/book/default/chapter/13'
p4205
ssg63
g4198
sg56
(lp4206
g3702
(S's\x12\x00\x00\x00Deployment Recipes'
tRp4207
asbasbag49
(g3785
g51
NtRp4208
(dp4209
g54
(dp4210
sg63
g4064
sg56
(lp4211
g49
(g3778
g51
NtRp4212
(dp4213
g54
(dp4214
g3784
S'http://www.web2py.com/book/default/chapter/14'
p4215
ssg63
g4208
sg56
(lp4216
g3702
(S's\r\x00\x00\x00Other Recipes'
tRp4217
asbasbag49
(g3785
g51
NtRp4218
(dp4219
g54
(dp4220
sg63
g4064
sg56
(lp4221
g49
(g3778
g51
NtRp4222
(dp4223
g54
(dp4224
g3784
S'http://stores.lulu.com/web2py'
p4225
ssg63
g4218
sg56
(lp4226
g3702
(S's\r\x00\x00\x00Buy this book'
tRp4227
asbasbasbasbag49
(g3785
g51
NtRp4228
(dp4229
g54
(dp4230
g3789
g3790
ssg63
g3812
sg56
(lp4231
g49
(g3778
g51
NtRp4232
(dp4233
g54
(dp4234
g3782
g3783
sg3784
S'#'
ssg63
g4228
sg56
(lp4235
g3702
(S't\t\x00\x00\x00Community'
tRp4236
asbag49
(g3791
g51
NtRp4237
(dp4238
g54
(dp4239
g3789
g3799
ssg63
g4228
sg56
(lp4240
g49
(g3785
g51
NtRp4241
(dp4242
g54
(dp4243
sg63
g4237
sg56
(lp4244
g49
(g3778
g51
NtRp4245
(dp4246
g54
(dp4247
g3784
S'http://www.web2py.com/examples/default/usergroups'
p4248
ssg63
g4241
sg56
(lp4249
g3702
(S't\x06\x00\x00\x00Groups'
tRp4250
asbasbag49
(g3785
g51
NtRp4251
(dp4252
g54
(dp4253
sg63
g4237
sg56
(lp4254
g49
(g3778
g51
NtRp4255
(dp4256
g54
(dp4257
g3784
S'http://twitter.com/web2py'
p4258
ssg63
g4251
sg56
(lp4259
g3702
(S't\x07\x00\x00\x00Twitter'
tRp4260
asbasbag49
(g3785
g51
NtRp4261
(dp4262
g54
(dp4263
sg63
g4237
sg56
(lp4264
g49
(g3778
g51
NtRp4265
(dp4266
g54
(dp4267
g3784
S'http://webchat.freenode.net/?channels=web2py'
p4268
ssg63
g4261
sg56
(lp4269
g3702
(S's\t\x00\x00\x00Live Chat'
tRp4270
asbasbasbasbag49
(g3785
g51
NtRp4271
(dp4272
g54
(dp4273
g3789
g3790
ssg63
g3812
sg56
(lp4274
g49
(g3778
g51
NtRp4275
(dp4276
g54
(dp4277
g3782
g3783
sg3784
S'#'
ssg63
g4271
sg56
(lp4278
g3702
(S't\x07\x00\x00\x00Plugins'
tRp4279
asbag49
(g3791
g51
NtRp4280
(dp4281
g54
(dp4282
g3789
g3799
ssg63
g4271
sg56
(lp4283
g49
(g3785
g51
NtRp4284
(dp4285
g54
(dp4286
sg63
g4280
sg56
(lp4287
g49
(g3778
g51
NtRp4288
(dp4289
g54
(dp4290
g3784
S'http://web2py.com/examples/default/download'
p4291
ssg63
g4284
sg56
(lp4292
S'plugin_wiki'
p4293
asbasbag49
(g3785
g51
NtRp4294
(dp4295
g54
(dp4296
sg63
g4280
sg56
(lp4297
g49
(g3778
g51
NtRp4298
(dp4299
g54
(dp4300
g3784
g4021
ssg63
g4294
sg56
(lp4301
g3702
(S's\r\x00\x00\x00Other Plugins'
tRp4302
asbasbag49
(g3785
g51
NtRp4303
(dp4304
g54
(dp4305
sg63
g4280
sg56
(lp4306
g49
(g3778
g51
NtRp4307
(dp4308
g54
(dp4309
g3784
g4031
ssg63
g4303
sg56
(lp4310
g3702
(S's\x0e\x00\x00\x00Layout Plugins'
tRp4311
asbasbasbasbasbasbsg56
(lp4312
g3774
asbsg56
(lp4313
g3648
asbasbasbasbag49
(g65
g51
NtRp4314
(dp4315
g54
(dp4316
sg63
g3757
sg56
(lp4317
g49
(g70
g51
NtRp4318
(dp4319
g54
(dp4320
sg63
g4314
sg56
(lp4321
g49
(g50
g51
NtRp4322
(dp4323
g54
(dp4324
g62
I3
ssg63
g4318
sg56
(lp4325
g92
asbasbasbag49
(g65
g51
NtRp4326
(dp4327
g54
(dp4328
sg63
g3757
sg56
(lp4329
g49
(g70
g51
NtRp4330
(dp4331
g54
(dp4332
sg63
g4326
sg56
(lp4333
g49
(g50
g51
NtRp4334
(dp4335
g54
(dp4336
g62
I3
ssg63
g4330
sg56
(lp4337
S'None'
p4338
asbasbasbag49
(g65
g51
NtRp4339
(dp4340
g54
(dp4341
sg63
g3757
sg56
(lp4342
g49
(g70
g51
NtRp4343
(dp4344
g54
(dp4345
sg63
g4339
sg56
(lp4346
g49
(g50
g51
NtRp4347
(dp4348
g54
(dp4349
g62
I3
ssg63
g4343
sg56
(lp4350
g49
(g58
g51
NtRp4351
(dp4352
g54
(dp4353
g62
I2
ssg63
Nsg56
(lp4354
g49
(g65
g51
NtRp4355
(dp4356
g54
(dp4357
sg63
g4351
sg56
(lp4358
g49
(g70
g51
NtRp4359
(dp4360
g54
(dp4361
sg63
g4355
sg56
(lp4362
g49
(g50
g51
NtRp4363
(dp4364
g54
(dp4365
g62
I2
ssg63
g4359
sg56
(lp4366
g49
(g58
g51
NtRp4367
(dp4368
g54
(dp4369
g62
I1
ssg63
Nsg56
(lp4370
g49
(g65
g51
NtRp4371
(dp4372
g54
(dp4373
sg63
g4367
sg56
(lp4374
g49
(g70
g51
NtRp4375
(dp4376
g54
(dp4377
sg63
g4371
sg56
(lp4378
g49
(g50
g51
NtRp4379
(dp4380
g54
(dp4381
g62
I1
ssg63
g4375
sg56
(lp4382
g3825
asbasbasbag49
(g65
g51
NtRp4383
(dp4384
g54
(dp4385
sg63
g4367
sg56
(lp4386
g49
(g70
g51
NtRp4387
(dp4388
g54
(dp4389
sg63
g4383
sg56
(lp4390
g49
(g50
g51
NtRp4391
(dp4392
g54
(dp4393
g62
I1
ssg63
g4387
sg56
(lp4394
I00
asbasbasbag49
(g65
g51
NtRp4395
(dp4396
g54
(dp4397
sg63
g4367
sg56
(lp4398
g49
(g70
g51
NtRp4399
(dp4400
g54
(dp4401
sg63
g4395
sg56
(lp4402
g49
(g50
g51
NtRp4403
(dp4404
g54
(dp4405
g62
I1
ssg63
g4399
sg56
(lp4406
g3823
asbasbasbasbasbasbasbag49
(g65
g51
NtRp4407
(dp4408
g54
(dp4409
sg63
g4351
sg56
(lp4410
g49
(g70
g51
NtRp4411
(dp4412
g54
(dp4413
sg63
g4407
sg56
(lp4414
g49
(g50
g51
NtRp4415
(dp4416
g54
(dp4417
g62
I2
ssg63
g4411
sg56
(lp4418
g49
(g58
g51
NtRp4419
(dp4420
g54
(dp4421
g62
I1
ssg63
Nsg56
(lp4422
g49
(g65
g51
NtRp4423
(dp4424
g54
(dp4425
sg63
g4419
sg56
(lp4426
g49
(g70
g51
NtRp4427
(dp4428
g54
(dp4429
sg63
g4423
sg56
(lp4430
g49
(g50
g51
NtRp4431
(dp4432
g54
(dp4433
g62
I1
ssg63
g4427
sg56
(lp4434
g3835
asbasbasbag49
(g65
g51
NtRp4435
(dp4436
g54
(dp4437
sg63
g4419
sg56
(lp4438
g49
(g70
g51
NtRp4439
(dp4440
g54
(dp4441
sg63
g4435
sg56
(lp4442
g49
(g50
g51
NtRp4443
(dp4444
g54
(dp4445
g62
I1
ssg63
g4439
sg56
(lp4446
I00
asbasbasbag49
(g65
g51
NtRp4447
(dp4448
g54
(dp4449
sg63
g4419
sg56
(lp4450
g49
(g70
g51
NtRp4451
(dp4452
g54
(dp4453
sg63
g4447
sg56
(lp4454
g49
(g50
g51
NtRp4455
(dp4456
g54
(dp4457
g62
I1
ssg63
g4451
sg56
(lp4458
g3833
asbasbasbag49
(g65
g51
NtRp4459
(dp4460
g54
(dp4461
sg63
g4419
sg56
(lp4462
g49
(g70
g51
NtRp4463
(dp4464
g54
(dp4465
sg63
g4459
sg56
(lp4466
g49
(g50
g51
NtRp4467
(dp4468
g54
(dp4469
g62
I1
ssg63
g4463
sg56
(lp4470
(lp4471
(g3849
I00
g3847
tp4472
a(g3859
I00
g3857
tp4473
a(g3869
I00
g3867
tp4474
a(g3879
I00
g3877
tp4475
a(g3889
I00
g3887
tp4476
a(g3899
I00
g3897
tp4477
a(g3909
I00
g3907
tp4478
a(g3919
I00
g3917
tp4479
a(g3929
I00
g3927
tp4480
aasbasbasbasbasbasbasbag49
(g65
g51
NtRp4481
(dp4482
g54
(dp4483
sg63
g4351
sg56
(lp4484
g49
(g70
g51
NtRp4485
(dp4486
g54
(dp4487
sg63
g4481
sg56
(lp4488
g49
(g50
g51
NtRp4489
(dp4490
g54
(dp4491
g62
I2
ssg63
g4485
sg56
(lp4492
g49
(g58
g51
NtRp4493
(dp4494
g54
(dp4495
g62
I1
ssg63
Nsg56
(lp4496
g49
(g65
g51
NtRp4497
(dp4498
g54
(dp4499
sg63
g4493
sg56
(lp4500
g49
(g70
g51
NtRp4501
(dp4502
g54
(dp4503
sg63
g4497
sg56
(lp4504
g49
(g50
g51
NtRp4505
(dp4506
g54
(dp4507
g62
I1
ssg63
g4501
sg56
(lp4508
g3939
asbasbasbag49
(g65
g51
NtRp4509
(dp4510
g54
(dp4511
sg63
g4493
sg56
(lp4512
g49
(g70
g51
NtRp4513
(dp4514
g54
(dp4515
sg63
g4509
sg56
(lp4516
g49
(g50
g51
NtRp4517
(dp4518
g54
(dp4519
g62
I1
ssg63
g4513
sg56
(lp4520
I00
asbasbasbag49
(g65
g51
NtRp4521
(dp4522
g54
(dp4523
sg63
g4493
sg56
(lp4524
g49
(g70
g51
NtRp4525
(dp4526
g54
(dp4527
sg63
g4521
sg56
(lp4528
g49
(g50
g51
NtRp4529
(dp4530
g54
(dp4531
g62
I1
ssg63
g4525
sg56
(lp4532
g3937
asbasbasbag49
(g65
g51
NtRp4533
(dp4534
g54
(dp4535
sg63
g4493
sg56
(lp4536
g49
(g70
g51
NtRp4537
(dp4538
g54
(dp4539
sg63
g4533
sg56
(lp4540
g49
(g50
g51
NtRp4541
(dp4542
g54
(dp4543
g62
I1
ssg63
g4537
sg56
(lp4544
(lp4545
(g3953
I00
g3951
tp4546
a(g3963
I00
g3961
tp4547
a(g3973
I00
g3971
tp4548
a(g3983
I00
g3981
tp4549
a(g3993
I00
g3991
tp4550
a(g4003
I00
g4001
tp4551
a(g4013
I00
g4011
tp4552
a(g4023
I00
g4021
tp4553
a(g4033
I00
g4031
tp4554
a(g4043
I00
g4041
tp4555
a(g4053
I00
g4051
tp4556
aasbasbasbasbasbasbasbag49
(g65
g51
NtRp4557
(dp4558
g54
(dp4559
sg63
g4351
sg56
(lp4560
g49
(g70
g51
NtRp4561
(dp4562
g54
(dp4563
sg63
g4557
sg56
(lp4564
g49
(g50
g51
NtRp4565
(dp4566
g54
(dp4567
g62
I2
ssg63
g4561
sg56
(lp4568
g49
(g58
g51
NtRp4569
(dp4570
g54
(dp4571
g62
I1
ssg63
Nsg56
(lp4572
g49
(g65
g51
NtRp4573
(dp4574
g54
(dp4575
sg63
g4569
sg56
(lp4576
g49
(g70
g51
NtRp4577
(dp4578
g54
(dp4579
sg63
g4573
sg56
(lp4580
g49
(g50
g51
NtRp4581
(dp4582
g54
(dp4583
g62
I1
ssg63
g4577
sg56
(lp4584
g4063
asbasbasbag49
(g65
g51
NtRp4585
(dp4586
g54
(dp4587
sg63
g4569
sg56
(lp4588
g49
(g70
g51
NtRp4589
(dp4590
g54
(dp4591
sg63
g4585
sg56
(lp4592
g49
(g50
g51
NtRp4593
(dp4594
g54
(dp4595
g62
I1
ssg63
g4589
sg56
(lp4596
I00
asbasbasbag49
(g65
g51
NtRp4597
(dp4598
g54
(dp4599
sg63
g4569
sg56
(lp4600
g49
(g70
g51
NtRp4601
(dp4602
g54
(dp4603
sg63
g4597
sg56
(lp4604
g49
(g50
g51
NtRp4605
(dp4606
g54
(dp4607
g62
I1
ssg63
g4601
sg56
(lp4608
g4061
asbasbasbag49
(g65
g51
NtRp4609
(dp4610
g54
(dp4611
sg63
g4569
sg56
(lp4612
g49
(g70
g51
NtRp4613
(dp4614
g54
(dp4615
sg63
g4609
sg56
(lp4616
g49
(g50
g51
NtRp4617
(dp4618
g54
(dp4619
g62
I1
ssg63
g4613
sg56
(lp4620
(lp4621
(g4077
I00
g4075
tp4622
a(g4087
I00
g4085
tp4623
a(g4097
I00
g4095
tp4624
a(g4107
I00
g4105
tp4625
a(g4117
I00
g4115
tp4626
a(g4127
I00
g4125
tp4627
a(g4137
I00
g4135
tp4628
a(g4147
I00
g4145
tp4629
a(g4157
I00
g4155
tp4630
a(g4167
I00
g4165
tp4631
a(g4177
I00
g4175
tp4632
a(g4187
I00
g4185
tp4633
a(g4197
I00
g4195
tp4634
a(g4207
I00
g4205
tp4635
a(g4217
I00
g4215
tp4636
a(g4227
I00
g4225
tp4637
aasbasbasbasbasbasbasbag49
(g65
g51
NtRp4638
(dp4639
g54
(dp4640
sg63
g4351
sg56
(lp4641
g49
(g70
g51
NtRp4642
(dp4643
g54
(dp4644
sg63
g4638
sg56
(lp4645
g49
(g50
g51
NtRp4646
(dp4647
g54
(dp4648
g62
I2
ssg63
g4642
sg56
(lp4649
g49
(g58
g51
NtRp4650
(dp4651
g54
(dp4652
g62
I1
ssg63
Nsg56
(lp4653
g49
(g65
g51
NtRp4654
(dp4655
g54
(dp4656
sg63
g4650
sg56
(lp4657
g49
(g70
g51
NtRp4658
(dp4659
g54
(dp4660
sg63
g4654
sg56
(lp4661
g49
(g50
g51
NtRp4662
(dp4663
g54
(dp4664
g62
I1
ssg63
g4658
sg56
(lp4665
g4236
asbasbasbag49
(g65
g51
NtRp4666
(dp4667
g54
(dp4668
sg63
g4650
sg56
(lp4669
g49
(g70
g51
NtRp4670
(dp4671
g54
(dp4672
sg63
g4666
sg56
(lp4673
g49
(g50
g51
NtRp4674
(dp4675
g54
(dp4676
g62
I1
ssg63
g4670
sg56
(lp4677
I00
asbasbasbag49
(g65
g51
NtRp4678
(dp4679
g54
(dp4680
sg63
g4650
sg56
(lp4681
g49
(g70
g51
NtRp4682
(dp4683
g54
(dp4684
sg63
g4678
sg56
(lp4685
g49
(g50
g51
NtRp4686
(dp4687
g54
(dp4688
g62
I1
ssg63
g4682
sg56
(lp4689
Nasbasbasbag49
(g65
g51
NtRp4690
(dp4691
g54
(dp4692
sg63
g4650
sg56
(lp4693
g49
(g70
g51
NtRp4694
(dp4695
g54
(dp4696
sg63
g4690
sg56
(lp4697
g49
(g50
g51
NtRp4698
(dp4699
g54
(dp4700
g62
I1
ssg63
g4694
sg56
(lp4701
(lp4702
(g4250
I00
g4248
tp4703
a(g4260
I00
g4258
tp4704
a(g4270
I00
g4268
tp4705
aasbasbasbasbasbasbasbag49
(g65
g51
NtRp4706
(dp4707
g54
(dp4708
sg63
g4351
sg56
(lp4709
g49
(g70
g51
NtRp4710
(dp4711
g54
(dp4712
sg63
g4706
sg56
(lp4713
g49
(g50
g51
NtRp4714
(dp4715
g54
(dp4716
g62
I2
ssg63
g4710
sg56
(lp4717
g49
(g58
g51
NtRp4718
(dp4719
g54
(dp4720
g62
I1
ssg63
Nsg56
(lp4721
g49
(g65
g51
NtRp4722
(dp4723
g54
(dp4724
sg63
g4718
sg56
(lp4725
g49
(g70
g51
NtRp4726
(dp4727
g54
(dp4728
sg63
g4722
sg56
(lp4729
g49
(g50
g51
NtRp4730
(dp4731
g54
(dp4732
g62
I1
ssg63
g4726
sg56
(lp4733
g4279
asbasbasbag49
(g65
g51
NtRp4734
(dp4735
g54
(dp4736
sg63
g4718
sg56
(lp4737
g49
(g70
g51
NtRp4738
(dp4739
g54
(dp4740
sg63
g4734
sg56
(lp4741
g49
(g50
g51
NtRp4742
(dp4743
g54
(dp4744
g62
I1
ssg63
g4738
sg56
(lp4745
I00
asbasbasbag49
(g65
g51
NtRp4746
(dp4747
g54
(dp4748
sg63
g4718
sg56
(lp4749
g49
(g70
g51
NtRp4750
(dp4751
g54
(dp4752
sg63
g4746
sg56
(lp4753
g49
(g50
g51
NtRp4754
(dp4755
g54
(dp4756
g62
I1
ssg63
g4750
sg56
(lp4757
Nasbasbasbag49
(g65
g51
NtRp4758
(dp4759
g54
(dp4760
sg63
g4718
sg56
(lp4761
g49
(g70
g51
NtRp4762
(dp4763
g54
(dp4764
sg63
g4758
sg56
(lp4765
g49
(g50
g51
NtRp4766
(dp4767
g54
(dp4768
g62
I1
ssg63
g4762
sg56
(lp4769
(lp4770
(g4293
I00
g4291
tp4771
a(g4302
I00
g4021
tp4772
a(g4311
I00
g4031
tp4773
aasbasbasbasbasbasbasbasbasbasbasbasbasbasbasbasbasbasbasbag49
(g65
g51
NtRp4774
(dp4775
g54
(dp4776
sg63
g3074
sg56
(lp4777
g49
(g70
g51
NtRp4778
(dp4779
g54
(dp4780
g74
g75
ssg63
g4774
sg56
(lp4781
S'meta'
p4782
asbag49
(g70
g51
NtRp4783
(dp4784
g54
(dp4785
g81
g82
ssg63
g4774
sg56
(lp4786
S':'
asbag49
(g70
g51
NtRp4787
(dp4788
g54
(dp4789
sg63
g4774
sg56
(lp4790
g49
(g50
g51
NtRp4791
(dp4792
g54
(dp4793
g62
I5
ssg63
g4787
sg56
(lp4794
g49
(g58
g51
NtRp4795
(dp4796
g54
(dp4797
g62
I4
ssg63
Nsg56
(lp4798
g49
(g65
g51
NtRp4799
(dp4800
g54
(dp4801
sg63
g4795
sg56
(lp4802
g49
(g70
g51
NtRp4803
(dp4804
g54
(dp4805
g74
g75
ssg63
g4799
sg56
(lp4806
S'author'
p4807
asbag49
(g70
g51
NtRp4808
(dp4809
g54
(dp4810
g81
g82
ssg63
g4799
sg56
(lp4811
S':'
asbag49
(g70
g51
NtRp4812
(dp4813
g54
(dp4814
sg63
g4799
sg56
(lp4815
g49
(g50
g51
NtRp4816
(dp4817
g54
(dp4818
g62
I4
ssg63
g4812
sg56
(lp4819
S'Your Name <you@example.com>'
p4820
asbasbasbag49
(g65
g51
NtRp4821
(dp4822
g54
(dp4823
sg63
g4795
sg56
(lp4824
g49
(g70
g51
NtRp4825
(dp4826
g54
(dp4827
g74
g75
ssg63
g4821
sg56
(lp4828
S'copyright'
p4829
asbag49
(g70
g51
NtRp4830
(dp4831
g54
(dp4832
g81
g82
ssg63
g4821
sg56
(lp4833
S':'
asbag49
(g70
g51
NtRp4834
(dp4835
g54
(dp4836
sg63
g4821
sg56
(lp4837
g49
(g50
g51
NtRp4838
(dp4839
g54
(dp4840
g62
I4
ssg63
g4834
sg56
(lp4841
S'Copyright 2011'
p4842
asbasbasbag49
(g65
g51
NtRp4843
(dp4844
g54
(dp4845
sg63
g4795
sg56
(lp4846
g49
(g70
g51
NtRp4847
(dp4848
g54
(dp4849
g74
g75
ssg63
g4843
sg56
(lp4850
S'description'
p4851
asbag49
(g70
g51
NtRp4852
(dp4853
g54
(dp4854
g81
g82
ssg63
g4843
sg56
(lp4855
S':'
asbag49
(g70
g51
NtRp4856
(dp4857
g54
(dp4858
sg63
g4843
sg56
(lp4859
g49
(g50
g51
NtRp4860
(dp4861
g54
(dp4862
g62
I4
ssg63
g4856
sg56
(lp4863
S'a cool new app'
p4864
asbasbasbag49
(g65
g51
NtRp4865
(dp4866
g54
(dp4867
sg63
g4795
sg56
(lp4868
g49
(g70
g51
NtRp4869
(dp4870
g54
(dp4871
g74
g75
ssg63
g4865
sg56
(lp4872
S'generator'
p4873
asbag49
(g70
g51
NtRp4874
(dp4875
g54
(dp4876
g81
g82
ssg63
g4865
sg56
(lp4877
S':'
asbag49
(g70
g51
NtRp4878
(dp4879
g54
(dp4880
sg63
g4865
sg56
(lp4881
g49
(g50
g51
NtRp4882
(dp4883
g54
(dp4884
g62
I4
ssg63
g4878
sg56
(lp4885
S'Web2py Web Framework'
p4886
asbasbasbag49
(g65
g51
NtRp4887
(dp4888
g54
(dp4889
sg63
g4795
sg56
(lp4890
g49
(g70
g51
NtRp4891
(dp4892
g54
(dp4893
g74
g75
ssg63
g4887
sg56
(lp4894
S'keywords'
p4895
asbag49
(g70
g51
NtRp4896
(dp4897
g54
(dp4898
g81
g82
ssg63
g4887
sg56
(lp4899
S':'
asbag49
(g70
g51
NtRp4900
(dp4901
g54
(dp4902
sg63
g4887
sg56
(lp4903
g49
(g50
g51
NtRp4904
(dp4905
g54
(dp4906
g62
I4
ssg63
g4900
sg56
(lp4907
S'web2py, python, framework'
p4908
asbasbasbasbasbasbasbag49
(g65
g51
NtRp4909
(dp4910
g54
(dp4911
sg63
g3074
sg56
(lp4912
g49
(g70
g51
NtRp4913
(dp4914
g54
(dp4915
g74
g75
ssg63
g4909
sg56
(lp4916
S'postprocessing'
p4917
asbag49
(g70
g51
NtRp4918
(dp4919
g54
(dp4920
g81
g82
ssg63
g4909
sg56
(lp4921
S':'
asbag49
(g70
g51
NtRp4922
(dp4923
g54
(dp4924
sg63
g4909
sg56
(lp4925
g49
(g50
g51
NtRp4926
(dp4927
g54
(dp4928
g62
I5
ssg63
g4922
sg56
(lp4929
g49
(g58
g51
NtRp4930
(dp4931
g54
(dp4932
g62
I4
ssg63
Nsg56
(lp4933
sbasbasbasbag49
(g65
g51
NtRp4934
(dp4935
g54
(dp4936
sg63
g3074
sg56
(lp4937
g49
(g70
g51
NtRp4938
(dp4939
g54
(dp4940
g74
g75
ssg63
g4934
sg56
(lp4941
S'session_file'
p4942
asbag49
(g70
g51
NtRp4943
(dp4944
g54
(dp4945
g81
g82
ssg63
g4934
sg56
(lp4946
S':'
asbag49
(g70
g51
NtRp4947
(dp4948
g54
(dp4949
sg63
g4934
sg56
(lp4950
g49
(g50
g51
NtRp4951
(dp4952
g54
(dp4953
g62
I5
ssg63
g4947
sg56
(lp4954
S"<open file 'C:\\web2py\\applications\\unioeste_code\\sessions\\127.0.0.1-bc48ac14-a4c3-4aad-bdf5-edbbf68c575e', mode 'rb+' at 0x0616C4A0>"
p4955
asbasbasbag49
(g65
g51
NtRp4956
(dp4957
g54
(dp4958
sg63
g3074
sg56
(lp4959
g49
(g70
g51
NtRp4960
(dp4961
g54
(dp4962
g74
g75
ssg63
g4956
sg56
(lp4963
S'session_filename'
p4964
asbag49
(g70
g51
NtRp4965
(dp4966
g54
(dp4967
g81
g82
ssg63
g4956
sg56
(lp4968
S':'
asbag49
(g70
g51
NtRp4969
(dp4970
g54
(dp4971
sg63
g4956
sg56
(lp4972
g49
(g50
g51
NtRp4973
(dp4974
g54
(dp4975
g62
I5
ssg63
g4969
sg56
(lp4976
S'C:\\web2py\\applications\\unioeste_code\\sessions\\127.0.0.1-bc48ac14-a4c3-4aad-bdf5-edbbf68c575e'
p4977
asbasbasbag49
(g65
g51
NtRp4978
(dp4979
g54
(dp4980
sg63
g3074
sg56
(lp4981
g49
(g70
g51
NtRp4982
(dp4983
g54
(dp4984
g74
g75
ssg63
g4978
sg56
(lp4985
S'session_id'
p4986
asbag49
(g70
g51
NtRp4987
(dp4988
g54
(dp4989
g81
g82
ssg63
g4978
sg56
(lp4990
S':'
asbag49
(g70
g51
NtRp4991
(dp4992
g54
(dp4993
sg63
g4978
sg56
(lp4994
g49
(g50
g51
NtRp4995
(dp4996
g54
(dp4997
g62
I5
ssg63
g4991
sg56
(lp4998
S'127.0.0.1-bc48ac14-a4c3-4aad-bdf5-edbbf68c575e'
p4999
asbasbasbag49
(g65
g51
NtRp5000
(dp5001
g54
(dp5002
sg63
g3074
sg56
(lp5003
g49
(g70
g51
NtRp5004
(dp5005
g54
(dp5006
g74
g75
ssg63
g5000
sg56
(lp5007
S'session_id_name'
p5008
asbag49
(g70
g51
NtRp5009
(dp5010
g54
(dp5011
g81
g82
ssg63
g5000
sg56
(lp5012
S':'
asbag49
(g70
g51
NtRp5013
(dp5014
g54
(dp5015
sg63
g5000
sg56
(lp5016
g49
(g50
g51
NtRp5017
(dp5018
g54
(dp5019
g62
I5
ssg63
g5013
sg56
(lp5020
g3131
asbasbasbag49
(g65
g51
NtRp5021
(dp5022
g54
(dp5023
sg63
g3074
sg56
(lp5024
g49
(g70
g51
NtRp5025
(dp5026
g54
(dp5027
g74
g75
ssg63
g5021
sg56
(lp5028
S'session_locked'
p5029
asbag49
(g70
g51
NtRp5030
(dp5031
g54
(dp5032
g81
g82
ssg63
g5021
sg56
(lp5033
S':'
asbag49
(g70
g51
NtRp5034
(dp5035
g54
(dp5036
sg63
g5021
sg56
(lp5037
g49
(g50
g51
NtRp5038
(dp5039
g54
(dp5040
g62
I5
ssg63
g5034
sg56
(lp5041
g1630
asbasbasbag49
(g65
g51
NtRp5042
(dp5043
g54
(dp5044
sg63
g3074
sg56
(lp5045
g49
(g70
g51
NtRp5046
(dp5047
g54
(dp5048
g74
g75
ssg63
g5042
sg56
(lp5049
S'session_new'
p5050
asbag49
(g70
g51
NtRp5051
(dp5052
g54
(dp5053
g81
g82
ssg63
g5042
sg56
(lp5054
S':'
asbag49
(g70
g51
NtRp5055
(dp5056
g54
(dp5057
sg63
g5042
sg56
(lp5058
g49
(g50
g51
NtRp5059
(dp5060
g54
(dp5061
g62
I5
ssg63
g5055
sg56
(lp5062
g92
asbasbasbag49
(g65
g51
NtRp5063
(dp5064
g54
(dp5065
sg63
g3074
sg56
(lp5066
g49
(g70
g51
NtRp5067
(dp5068
g54
(dp5069
g74
g75
ssg63
g5063
sg56
(lp5070
S'status'
p5071
asbag49
(g70
g51
NtRp5072
(dp5073
g54
(dp5074
g81
g82
ssg63
g5063
sg56
(lp5075
S':'
asbag49
(g70
g51
NtRp5076
(dp5077
g54
(dp5078
sg63
g5063
sg56
(lp5079
g49
(g50
g51
NtRp5080
(dp5081
g54
(dp5082
g62
I5
ssg63
g5076
sg56
(lp5083
S'200'
p5084
asbasbasbag49
(g65
g51
NtRp5085
(dp5086
g54
(dp5087
sg63
g3074
sg56
(lp5088
g49
(g70
g51
NtRp5089
(dp5090
g54
(dp5091
g74
g75
ssg63
g5085
sg56
(lp5092
S'subtitle'
p5093
asbag49
(g70
g51
NtRp5094
(dp5095
g54
(dp5096
g81
g82
ssg63
g5085
sg56
(lp5097
S':'
asbag49
(g70
g51
NtRp5098
(dp5099
g54
(dp5100
sg63
g5085
sg56
(lp5101
g49
(g50
g51
NtRp5102
(dp5103
g54
(dp5104
g62
I5
ssg63
g5098
sg56
(lp5105
g3702
(S's\x0f\x00\x00\x00Personalize-me!'
tRp5106
asbasbasbag49
(g65
g51
NtRp5107
(dp5108
g54
(dp5109
sg63
g3074
sg56
(lp5110
g49
(g70
g51
NtRp5111
(dp5112
g54
(dp5113
g74
g75
ssg63
g5107
sg56
(lp5114
S'title'
p5115
asbag49
(g70
g51
NtRp5116
(dp5117
g54
(dp5118
g81
g82
ssg63
g5107
sg56
(lp5119
S':'
asbag49
(g70
g51
NtRp5120
(dp5121
g54
(dp5122
sg63
g5107
sg56
(lp5123
g49
(g50
g51
NtRp5124
(dp5125
g54
(dp5126
g62
I5
ssg63
g5120
sg56
(lp5127
S'Unioeste Code'
p5128
asbasbasbag49
(g65
g51
NtRp5129
(dp5130
g54
(dp5131
sg63
g3074
sg56
(lp5132
g49
(g70
g51
NtRp5133
(dp5134
g54
(dp5135
g74
g75
ssg63
g5129
sg56
(lp5136
g2294
asbag49
(g70
g51
NtRp5137
(dp5138
g54
(dp5139
g81
g82
ssg63
g5129
sg56
(lp5140
S':'
asbag49
(g70
g51
NtRp5141
(dp5142
g54
(dp5143
sg63
g5129
sg56
(lp5144
g49
(g50
g51
NtRp5145
(dp5146
g54
(dp5147
g62
I5
ssg63
g5141
sg56
(lp5148
g2307
asbasbasbag49
(g65
g51
NtRp5149
(dp5150
g54
(dp5151
sg63
g3074
sg56
(lp5152
g49
(g70
g51
NtRp5153
(dp5154
g54
(dp5155
g74
g75
ssg63
g5149
sg56
(lp5156
S'view'
p5157
asbag49
(g70
g51
NtRp5158
(dp5159
g54
(dp5160
g81
g82
ssg63
g5149
sg56
(lp5161
S':'
asbag49
(g70
g51
NtRp5162
(dp5163
g54
(dp5164
sg63
g5149
sg56
(lp5165
g49
(g50
g51
NtRp5166
(dp5167
g54
(dp5168
g62
I5
ssg63
g5162
sg56
(lp5169
S'default/index.html'
p5170
asbasbasbasbasbsS'locals'
p5171
(dp5172
S'__module__'
p5173
S"'applications.unioeste_code.modules.pyGravatar'"
p5174
sg40
S"'\\n    Represents a Gravatar user.\\n    '"
p5175
sg42
S'<function __init__ at 0x067595B0>'
p5176
sg368
S'<property object at 0x06EF2F58>'
p5177
sssS'traceback'
p5178
S'Traceback (most recent call last):\n  File "gluon/restricted.py", line 205, in restricted\n  File "C:\\web2py\\applications\\unioeste_code\\views\\default/index.html", line 90, in <module>\n  File "gluon/custom_import.py", line 289, in __call__\n  File "gluon/custom_import.py", line 78, in __call__\n  File "applications\\unioeste_code\\modules\\pyGravatar.py", line 27, in <module>\n  File "applications\\unioeste_code\\modules\\pyGravatar.py", line 47, in Gravatar\nAttributeError: \'property\' object has no attribute \'setter\'\n'
p5179
s.