(dp1
S'output'
p2
S"<type 'exceptions.NameError'> global name 'message' is not defined"
p3
sS'layer'
p4
S'C:\\web2py\\applications\\unioeste_code\\controllers/default.py'
p5
sS'code'
p6
S'# -*- coding: utf-8 -*-\n# this file is released under public domain and you can use without limitations\n\n#########################################################################\n## This is a samples controller\n## - index is the default action of any application\n## - user is required for authentication and authorization\n## - download is for downloading files uploaded in the db (does streaming)\n## - call exposes all registered services (none by default)\n#########################################################################\n\ndef index():\n    problems = db().select(db.problem.ALL, orderby = db.problem.title)\n    return dict(problems=problems)\n\n@auth.requires_login()\ndef showProblem():\n    problem = db(db.problem.id==request.args(0)).select().first()\n    db.code.problem_id.default = problem.id\n    form = SQLFORM(db.code)\n    if form.process().accepted:\n        response.flash = \'your code is posted\'\n    codes = db(db.code.problem_id == problem.id).select()    \n    return dict(problem=problem, codes=codes, form=form)\n\ndef showCode():\n    return dict(message=message)\n\ndef problems():\n    problems = db().select(db.problem.ALL, orderby = db.problem.title)\n    return dict(problems=problems)\n\n@auth.requires_membership(\'manager\')\ndef manageCode():\n    grid = SQLFORM.smartgrid(db.code)\n    return dict(grid=grid)\n\ndef user():\n    """\n    exposes:\n    http://..../[app]/default/user/login\n    http://..../[app]/default/user/logout\n    http://..../[app]/default/user/register\n    http://..../[app]/default/user/profile\n    http://..../[app]/default/user/retrieve_password\n    http://..../[app]/default/user/change_password\n    use @auth.requires_login()\n        @auth.requires_membership(\'group name\')\n        @auth.requires_permission(\'read\',\'table name\',record_id)\n    to decorate functions that need access control\n    """\n    return dict(form=auth())\n\n\ndef download():\n    """\n    allows downloading of uploaded files\n    http://..../[app]/default/download/[filename]\n    """\n    return response.download(request,db)\n\n\ndef call():\n    """\n    exposes services. for example:\n    http://..../[app]/default/call/jsonrpc\n    decorate with @services.jsonrpc the functions to expose\n    supports xml, json, xmlrpc, jsonrpc, amfrpc, rss, csv\n    """\n    return service()\n\n\n@auth.requires_signature()\ndef data():\n    """\n    http://..../[app]/default/data/tables\n    http://..../[app]/default/data/create/[table]\n    http://..../[app]/default/data/read/[table]/[id]\n    http://..../[app]/default/data/update/[table]/[id]\n    http://..../[app]/default/data/delete/[table]/[id]\n    http://..../[app]/default/data/select/[table]\n    http://..../[app]/default/data/search/[table]\n    but URLs must be signed, i.e. linked with\n      A(\'table\',_href=URL(\'data/tables\',user_signature=True))\n    or with the signed load operator\n      LOAD(\'default\',\'data.load\',args=\'tables\',ajax=True,user_signature=True)\n    """\n    return dict(form=crud())\n\n\nresponse._vars=response._caller(showCode)\n'
p7
sS'snapshot'
p8
(dp9
S'exception'
p10
(dp11
S'__hash__'
p12
S"<method-wrapper '__hash__' of exceptions.NameError object at 0x067B8B20>"
p13
sS'__setattr__'
p14
S"<method-wrapper '__setattr__' of exceptions.NameError object at 0x067B8B20>"
p15
sS'__reduce_ex__'
p16
S'<built-in method __reduce_ex__ of exceptions.NameError object at 0x067B8B20>'
p17
sS'__getslice__'
p18
S"<method-wrapper '__getslice__' of exceptions.NameError object at 0x067B8B20>"
p19
sS'__getitem__'
p20
S"<method-wrapper '__getitem__' of exceptions.NameError object at 0x067B8B20>"
p21
sS'__setstate__'
p22
S'<built-in method __setstate__ of exceptions.NameError object at 0x067B8B20>'
p23
sS'__reduce__'
p24
S'<built-in method __reduce__ of exceptions.NameError object at 0x067B8B20>'
p25
sS'__str__'
p26
S"<method-wrapper '__str__' of exceptions.NameError object at 0x067B8B20>"
p27
sS'args'
p28
S'("global name \'message\' is not defined",)'
p29
sS'__getattribute__'
p30
S"<method-wrapper '__getattribute__' of exceptions.NameError object at 0x067B8B20>"
p31
sS'__class__'
p32
S"<type 'exceptions.NameError'>"
p33
sS'__delattr__'
p34
S"<method-wrapper '__delattr__' of exceptions.NameError object at 0x067B8B20>"
p35
sS'__repr__'
p36
S"<method-wrapper '__repr__' of exceptions.NameError object at 0x067B8B20>"
p37
sS'__dict__'
p38
S'{}'
p39
sS'__doc__'
p40
S"'Name not found globally.'"
p41
sS'__init__'
p42
S"<method-wrapper '__init__' of exceptions.NameError object at 0x067B8B20>"
p43
sS'__new__'
p44
S'<built-in method __new__ of type object at 0x1E1CD8D8>'
p45
ssS'evalue'
p46
S"global name 'message' is not defined"
p47
sS'request'
p48
ccopy_reg
_reconstructor
p49
(cgluon.html
BEAUTIFY
p50
c__builtin__
object
p51
NtRp52
(dp53
S'attributes'
p54
(dp55
sS'components'
p56
(lp57
g49
(cgluon.html
TABLE
p58
g51
NtRp59
(dp60
g54
(dp61
S'level'
p62
I5
ssS'parent'
p63
Nsg56
(lp64
g49
(cgluon.html
TR
p65
g51
NtRp66
(dp67
g54
(dp68
sg63
g59
sg56
(lp69
g49
(cgluon.html
TD
p70
g51
NtRp71
(dp72
g54
(dp73
S'_style'
p74
S'font-weight:bold;vertical-align:top'
p75
ssg63
g66
sg56
(lp76
S'ajax'
p77
asbag49
(g70
g51
NtRp78
(dp79
g54
(dp80
S'_valign'
p81
S'top'
p82
ssg63
g66
sg56
(lp83
S':'
asbag49
(g70
g51
NtRp84
(dp85
g54
(dp86
sg63
g66
sg56
(lp87
g49
(g50
g51
NtRp88
(dp89
g54
(dp90
g62
I5
ssg63
g84
sg56
(lp91
S'False'
p92
asbasbasbag49
(g65
g51
NtRp93
(dp94
g54
(dp95
sg63
g59
sg56
(lp96
g49
(g70
g51
NtRp97
(dp98
g54
(dp99
g74
g75
ssg63
g93
sg56
(lp100
S'application'
p101
asbag49
(g70
g51
NtRp102
(dp103
g54
(dp104
g81
g82
ssg63
g93
sg56
(lp105
S':'
asbag49
(g70
g51
NtRp106
(dp107
g54
(dp108
sg63
g93
sg56
(lp109
g49
(g50
g51
NtRp110
(dp111
g54
(dp112
g62
I5
ssg63
g106
sg56
(lp113
S'unioeste_code'
p114
asbasbasbag49
(g65
g51
NtRp115
(dp116
g54
(dp117
sg63
g59
sg56
(lp118
g49
(g70
g51
NtRp119
(dp120
g54
(dp121
g74
g75
ssg63
g115
sg56
(lp122
g28
asbag49
(g70
g51
NtRp123
(dp124
g54
(dp125
g81
g82
ssg63
g115
sg56
(lp126
S':'
asbag49
(g70
g51
NtRp127
(dp128
g54
(dp129
sg63
g115
sg56
(lp130
g49
(g50
g51
NtRp131
(dp132
g54
(dp133
g62
I5
ssg63
g127
sg56
(lp134
g49
(g58
g51
NtRp135
(dp136
g54
(dp137
g62
I4
ssg63
Nsg56
(lp138
g49
(g65
g51
NtRp139
(dp140
g54
(dp141
sg63
g135
sg56
(lp142
g49
(g70
g51
NtRp143
(dp144
g54
(dp145
sg63
g139
sg56
(lp146
g49
(g50
g51
NtRp147
(dp148
g54
(dp149
g62
I4
ssg63
g143
sg56
(lp150
S'1'
asbasbasbasbasbasbasbag49
(g65
g51
NtRp151
(dp152
g54
(dp153
sg63
g59
sg56
(lp154
g49
(g70
g51
NtRp155
(dp156
g54
(dp157
g74
g75
ssg63
g151
sg56
(lp158
S'body'
p159
asbag49
(g70
g51
NtRp160
(dp161
g54
(dp162
g81
g82
ssg63
g151
sg56
(lp163
S':'
asbag49
(g70
g51
NtRp164
(dp165
g54
(dp166
sg63
g151
sg56
(lp167
g49
(g50
g51
NtRp168
(dp169
g54
(dp170
g62
I5
ssg63
g164
sg56
(lp171
S'<cStringIO.StringO object at 0x068C5100>'
p172
asbasbasbag49
(g65
g51
NtRp173
(dp174
g54
(dp175
sg63
g59
sg56
(lp176
g49
(g70
g51
NtRp177
(dp178
g54
(dp179
g74
g75
ssg63
g173
sg56
(lp180
S'client'
p181
asbag49
(g70
g51
NtRp182
(dp183
g54
(dp184
g81
g82
ssg63
g173
sg56
(lp185
S':'
asbag49
(g70
g51
NtRp186
(dp187
g54
(dp188
sg63
g173
sg56
(lp189
g49
(g50
g51
NtRp190
(dp191
g54
(dp192
g62
I5
ssg63
g186
sg56
(lp193
S'127.0.0.1'
p194
asbasbasbag49
(g65
g51
NtRp195
(dp196
g54
(dp197
sg63
g59
sg56
(lp198
g49
(g70
g51
NtRp199
(dp200
g54
(dp201
g74
g75
ssg63
g195
sg56
(lp202
S'controller'
p203
asbag49
(g70
g51
NtRp204
(dp205
g54
(dp206
g81
g82
ssg63
g195
sg56
(lp207
S':'
asbag49
(g70
g51
NtRp208
(dp209
g54
(dp210
sg63
g195
sg56
(lp211
g49
(g50
g51
NtRp212
(dp213
g54
(dp214
g62
I5
ssg63
g208
sg56
(lp215
S'default'
p216
asbasbasbag49
(g65
g51
NtRp217
(dp218
g54
(dp219
sg63
g59
sg56
(lp220
g49
(g70
g51
NtRp221
(dp222
g54
(dp223
g74
g75
ssg63
g217
sg56
(lp224
S'cookies'
p225
asbag49
(g70
g51
NtRp226
(dp227
g54
(dp228
g81
g82
ssg63
g217
sg56
(lp229
S':'
asbag49
(g70
g51
NtRp230
(dp231
g54
(dp232
sg63
g217
sg56
(lp233
g49
(g50
g51
NtRp234
(dp235
g54
(dp236
g62
I5
ssg63
g230
sg56
(lp237
g49
(g58
g51
NtRp238
(dp239
g54
(dp240
g62
I4
ssg63
Nsg56
(lp241
g49
(g65
g51
NtRp242
(dp243
g54
(dp244
sg63
g238
sg56
(lp245
g49
(g70
g51
NtRp246
(dp247
g54
(dp248
g74
g75
ssg63
g242
sg56
(lp249
S'session_id_admin'
p250
asbag49
(g70
g51
NtRp251
(dp252
g54
(dp253
g81
g82
ssg63
g242
sg56
(lp254
S':'
asbag49
(g70
g51
NtRp255
(dp256
g54
(dp257
sg63
g242
sg56
(lp258
g49
(g50
g51
NtRp259
(dp260
g54
(dp261
g62
I4
ssg63
g255
sg56
(lp262
g49
(g58
g51
NtRp263
(dp264
g54
(dp265
g62
I3
ssg63
Nsg56
(lp266
g49
(g65
g51
NtRp267
(dp268
g54
(dp269
sg63
g263
sg56
(lp270
g49
(g70
g51
NtRp271
(dp272
g54
(dp273
g74
g75
ssg63
g267
sg56
(lp274
S'comment'
p275
asbag49
(g70
g51
NtRp276
(dp277
g54
(dp278
g81
g82
ssg63
g267
sg56
(lp279
S':'
asbag49
(g70
g51
NtRp280
(dp281
g54
(dp282
sg63
g267
sg56
(lp283
g49
(g50
g51
NtRp284
(dp285
g54
(dp286
g62
I3
ssg63
g280
sg56
(lp287
S''
asbasbasbag49
(g65
g51
NtRp288
(dp289
g54
(dp290
sg63
g263
sg56
(lp291
g49
(g70
g51
NtRp292
(dp293
g54
(dp294
g74
g75
ssg63
g288
sg56
(lp295
S'domain'
p296
asbag49
(g70
g51
NtRp297
(dp298
g54
(dp299
g81
g82
ssg63
g288
sg56
(lp300
S':'
asbag49
(g70
g51
NtRp301
(dp302
g54
(dp303
sg63
g288
sg56
(lp304
g49
(g50
g51
NtRp305
(dp306
g54
(dp307
g62
I3
ssg63
g301
sg56
(lp308
S''
asbasbasbag49
(g65
g51
NtRp309
(dp310
g54
(dp311
sg63
g263
sg56
(lp312
g49
(g70
g51
NtRp313
(dp314
g54
(dp315
g74
g75
ssg63
g309
sg56
(lp316
S'expires'
p317
asbag49
(g70
g51
NtRp318
(dp319
g54
(dp320
g81
g82
ssg63
g309
sg56
(lp321
S':'
asbag49
(g70
g51
NtRp322
(dp323
g54
(dp324
sg63
g309
sg56
(lp325
g49
(g50
g51
NtRp326
(dp327
g54
(dp328
g62
I3
ssg63
g322
sg56
(lp329
S''
asbasbasbag49
(g65
g51
NtRp330
(dp331
g54
(dp332
sg63
g263
sg56
(lp333
g49
(g70
g51
NtRp334
(dp335
g54
(dp336
g74
g75
ssg63
g330
sg56
(lp337
S'max-age'
p338
asbag49
(g70
g51
NtRp339
(dp340
g54
(dp341
g81
g82
ssg63
g330
sg56
(lp342
S':'
asbag49
(g70
g51
NtRp343
(dp344
g54
(dp345
sg63
g330
sg56
(lp346
g49
(g50
g51
NtRp347
(dp348
g54
(dp349
g62
I3
ssg63
g343
sg56
(lp350
S''
asbasbasbag49
(g65
g51
NtRp351
(dp352
g54
(dp353
sg63
g263
sg56
(lp354
g49
(g70
g51
NtRp355
(dp356
g54
(dp357
g74
g75
ssg63
g351
sg56
(lp358
S'path'
p359
asbag49
(g70
g51
NtRp360
(dp361
g54
(dp362
g81
g82
ssg63
g351
sg56
(lp363
S':'
asbag49
(g70
g51
NtRp364
(dp365
g54
(dp366
sg63
g351
sg56
(lp367
g49
(g50
g51
NtRp368
(dp369
g54
(dp370
g62
I3
ssg63
g364
sg56
(lp371
S''
asbasbasbag49
(g65
g51
NtRp372
(dp373
g54
(dp374
sg63
g263
sg56
(lp375
g49
(g70
g51
NtRp376
(dp377
g54
(dp378
g74
g75
ssg63
g372
sg56
(lp379
S'secure'
p380
asbag49
(g70
g51
NtRp381
(dp382
g54
(dp383
g81
g82
ssg63
g372
sg56
(lp384
S':'
asbag49
(g70
g51
NtRp385
(dp386
g54
(dp387
sg63
g372
sg56
(lp388
g49
(g50
g51
NtRp389
(dp390
g54
(dp391
g62
I3
ssg63
g385
sg56
(lp392
S''
asbasbasbag49
(g65
g51
NtRp393
(dp394
g54
(dp395
sg63
g263
sg56
(lp396
g49
(g70
g51
NtRp397
(dp398
g54
(dp399
g74
g75
ssg63
g393
sg56
(lp400
S'version'
p401
asbag49
(g70
g51
NtRp402
(dp403
g54
(dp404
g81
g82
ssg63
g393
sg56
(lp405
S':'
asbag49
(g70
g51
NtRp406
(dp407
g54
(dp408
sg63
g393
sg56
(lp409
g49
(g50
g51
NtRp410
(dp411
g54
(dp412
g62
I3
ssg63
g406
sg56
(lp413
S''
asbasbasbasbasbasbasbag49
(g65
g51
NtRp414
(dp415
g54
(dp416
sg63
g238
sg56
(lp417
g49
(g70
g51
NtRp418
(dp419
g54
(dp420
g74
g75
ssg63
g414
sg56
(lp421
S'session_id_unioeste_code'
p422
asbag49
(g70
g51
NtRp423
(dp424
g54
(dp425
g81
g82
ssg63
g414
sg56
(lp426
S':'
asbag49
(g70
g51
NtRp427
(dp428
g54
(dp429
sg63
g414
sg56
(lp430
g49
(g50
g51
NtRp431
(dp432
g54
(dp433
g62
I4
ssg63
g427
sg56
(lp434
g49
(g58
g51
NtRp435
(dp436
g54
(dp437
g62
I3
ssg63
Nsg56
(lp438
g49
(g65
g51
NtRp439
(dp440
g54
(dp441
sg63
g435
sg56
(lp442
g49
(g70
g51
NtRp443
(dp444
g54
(dp445
g74
g75
ssg63
g439
sg56
(lp446
g275
asbag49
(g70
g51
NtRp447
(dp448
g54
(dp449
g81
g82
ssg63
g439
sg56
(lp450
S':'
asbag49
(g70
g51
NtRp451
(dp452
g54
(dp453
sg63
g439
sg56
(lp454
g49
(g50
g51
NtRp455
(dp456
g54
(dp457
g62
I3
ssg63
g451
sg56
(lp458
S''
asbasbasbag49
(g65
g51
NtRp459
(dp460
g54
(dp461
sg63
g435
sg56
(lp462
g49
(g70
g51
NtRp463
(dp464
g54
(dp465
g74
g75
ssg63
g459
sg56
(lp466
g296
asbag49
(g70
g51
NtRp467
(dp468
g54
(dp469
g81
g82
ssg63
g459
sg56
(lp470
S':'
asbag49
(g70
g51
NtRp471
(dp472
g54
(dp473
sg63
g459
sg56
(lp474
g49
(g50
g51
NtRp475
(dp476
g54
(dp477
g62
I3
ssg63
g471
sg56
(lp478
S''
asbasbasbag49
(g65
g51
NtRp479
(dp480
g54
(dp481
sg63
g435
sg56
(lp482
g49
(g70
g51
NtRp483
(dp484
g54
(dp485
g74
g75
ssg63
g479
sg56
(lp486
g317
asbag49
(g70
g51
NtRp487
(dp488
g54
(dp489
g81
g82
ssg63
g479
sg56
(lp490
S':'
asbag49
(g70
g51
NtRp491
(dp492
g54
(dp493
sg63
g479
sg56
(lp494
g49
(g50
g51
NtRp495
(dp496
g54
(dp497
g62
I3
ssg63
g491
sg56
(lp498
S''
asbasbasbag49
(g65
g51
NtRp499
(dp500
g54
(dp501
sg63
g435
sg56
(lp502
g49
(g70
g51
NtRp503
(dp504
g54
(dp505
g74
g75
ssg63
g499
sg56
(lp506
g338
asbag49
(g70
g51
NtRp507
(dp508
g54
(dp509
g81
g82
ssg63
g499
sg56
(lp510
S':'
asbag49
(g70
g51
NtRp511
(dp512
g54
(dp513
sg63
g499
sg56
(lp514
g49
(g50
g51
NtRp515
(dp516
g54
(dp517
g62
I3
ssg63
g511
sg56
(lp518
S''
asbasbasbag49
(g65
g51
NtRp519
(dp520
g54
(dp521
sg63
g435
sg56
(lp522
g49
(g70
g51
NtRp523
(dp524
g54
(dp525
g74
g75
ssg63
g519
sg56
(lp526
g359
asbag49
(g70
g51
NtRp527
(dp528
g54
(dp529
g81
g82
ssg63
g519
sg56
(lp530
S':'
asbag49
(g70
g51
NtRp531
(dp532
g54
(dp533
sg63
g519
sg56
(lp534
g49
(g50
g51
NtRp535
(dp536
g54
(dp537
g62
I3
ssg63
g531
sg56
(lp538
S''
asbasbasbag49
(g65
g51
NtRp539
(dp540
g54
(dp541
sg63
g435
sg56
(lp542
g49
(g70
g51
NtRp543
(dp544
g54
(dp545
g74
g75
ssg63
g539
sg56
(lp546
g380
asbag49
(g70
g51
NtRp547
(dp548
g54
(dp549
g81
g82
ssg63
g539
sg56
(lp550
S':'
asbag49
(g70
g51
NtRp551
(dp552
g54
(dp553
sg63
g539
sg56
(lp554
g49
(g50
g51
NtRp555
(dp556
g54
(dp557
g62
I3
ssg63
g551
sg56
(lp558
S''
asbasbasbag49
(g65
g51
NtRp559
(dp560
g54
(dp561
sg63
g435
sg56
(lp562
g49
(g70
g51
NtRp563
(dp564
g54
(dp565
g74
g75
ssg63
g559
sg56
(lp566
g401
asbag49
(g70
g51
NtRp567
(dp568
g54
(dp569
g81
g82
ssg63
g559
sg56
(lp570
S':'
asbag49
(g70
g51
NtRp571
(dp572
g54
(dp573
sg63
g559
sg56
(lp574
g49
(g50
g51
NtRp575
(dp576
g54
(dp577
g62
I3
ssg63
g571
sg56
(lp578
S''
asbasbasbasbasbasbasbasbasbasbasbag49
(g65
g51
NtRp579
(dp580
g54
(dp581
sg63
g59
sg56
(lp582
g49
(g70
g51
NtRp583
(dp584
g54
(dp585
g74
g75
ssg63
g579
sg56
(lp586
S'env'
p587
asbag49
(g70
g51
NtRp588
(dp589
g54
(dp590
g81
g82
ssg63
g579
sg56
(lp591
S':'
asbag49
(g70
g51
NtRp592
(dp593
g54
(dp594
sg63
g579
sg56
(lp595
g49
(g50
g51
NtRp596
(dp597
g54
(dp598
g62
I5
ssg63
g592
sg56
(lp599
g49
(g58
g51
NtRp600
(dp601
g54
(dp602
g62
I4
ssg63
Nsg56
(lp603
g49
(g65
g51
NtRp604
(dp605
g54
(dp606
sg63
g600
sg56
(lp607
g49
(g70
g51
NtRp608
(dp609
g54
(dp610
g74
g75
ssg63
g604
sg56
(lp611
S'app_folders'
p612
asbag49
(g70
g51
NtRp613
(dp614
g54
(dp615
g81
g82
ssg63
g604
sg56
(lp616
S':'
asbag49
(g70
g51
NtRp617
(dp618
g54
(dp619
sg63
g604
sg56
(lp620
g49
(g50
g51
NtRp621
(dp622
g54
(dp623
g62
I4
ssg63
g617
sg56
(lp624
S"set(['C:\\\\web2py\\\\applications\\\\admin\\\\', 'C:\\\\web2py\\\\applications\\\\welcome\\\\', 'C:\\\\web2py\\\\applications\\\\unioeste_code\\\\'])"
p625
asbasbasbag49
(g65
g51
NtRp626
(dp627
g54
(dp628
sg63
g600
sg56
(lp629
g49
(g70
g51
NtRp630
(dp631
g54
(dp632
g74
g75
ssg63
g626
sg56
(lp633
S'applications_parent'
p634
asbag49
(g70
g51
NtRp635
(dp636
g54
(dp637
g81
g82
ssg63
g626
sg56
(lp638
S':'
asbag49
(g70
g51
NtRp639
(dp640
g54
(dp641
sg63
g626
sg56
(lp642
g49
(g50
g51
NtRp643
(dp644
g54
(dp645
g62
I4
ssg63
g639
sg56
(lp646
S'C:\\web2py'
p647
asbasbasbag49
(g65
g51
NtRp648
(dp649
g54
(dp650
sg63
g600
sg56
(lp651
g49
(g70
g51
NtRp652
(dp653
g54
(dp654
g74
g75
ssg63
g648
sg56
(lp655
S'cmd_args'
p656
asbag49
(g70
g51
NtRp657
(dp658
g54
(dp659
g81
g82
ssg63
g648
sg56
(lp660
S':'
asbag49
(g70
g51
NtRp661
(dp662
g54
(dp663
sg63
g648
sg56
(lp664
g49
(g50
g51
NtRp665
(dp666
g54
(dp667
g62
I4
ssg63
g661
sg56
(lp668
g49
(g58
g51
NtRp669
(dp670
g54
(dp671
g62
I3
ssg63
Nsg56
(lp672
sbasbasbasbag49
(g65
g51
NtRp673
(dp674
g54
(dp675
sg63
g600
sg56
(lp676
g49
(g70
g51
NtRp677
(dp678
g54
(dp679
g74
g75
ssg63
g673
sg56
(lp680
S'cmd_options'
p681
asbag49
(g70
g51
NtRp682
(dp683
g54
(dp684
g81
g82
ssg63
g673
sg56
(lp685
S':'
asbag49
(g70
g51
NtRp686
(dp687
g54
(dp688
sg63
g673
sg56
(lp689
g49
(g50
g51
NtRp690
(dp691
g54
(dp692
g62
I4
ssg63
g686
sg56
(lp693
S"<Values at 0x309c300: {'verbose': False, 'ip': '127.0.0.1', 'shutdown_timeout': 5, 'taskbar': False, 'nocron': False, 'pid_filename': 'httpserver.pid', 'maxthreads': None, 'softcron': False, 'server_name': 'Pedro-PC', 'bpython': False, 'nogui': False, 'port': 8000, 'extcron': False, 'debuglevel': 30, 'test': None, 'folder': 'C:\\\\web2py', 'config': '', 'import_models': False, 'winservice': '', 'shell': None, 'run': '', 'log_filename': 'httpserver.log', 'args': [''], 'socket_timeout': 5, 'ssl_ca_certificate': None, 'scheduler': None, 'profiler_filename': None, 'ssl_private_key': '', 'password': '<ask>', 'request_queue_size': 5, 'ssl_certificate': '', 'cronjob': False, 'numthreads': None, 'quiet': False, 'interfaces': None, 'minthreads': None, 'timeout': 10, 'plain': False, 'nobanner': False}>"
p694
asbasbasbag49
(g65
g51
NtRp695
(dp696
g54
(dp697
sg63
g600
sg56
(lp698
g49
(g70
g51
NtRp699
(dp700
g54
(dp701
g74
g75
ssg63
g695
sg56
(lp702
S'db_sessions'
p703
asbag49
(g70
g51
NtRp704
(dp705
g54
(dp706
g81
g82
ssg63
g695
sg56
(lp707
S':'
asbag49
(g70
g51
NtRp708
(dp709
g54
(dp710
sg63
g695
sg56
(lp711
g49
(g50
g51
NtRp712
(dp713
g54
(dp714
g62
I4
ssg63
g708
sg56
(lp715
S'set([])'
p716
asbasbasbag49
(g65
g51
NtRp717
(dp718
g54
(dp719
sg63
g600
sg56
(lp720
g49
(g70
g51
NtRp721
(dp722
g54
(dp723
g74
g75
ssg63
g717
sg56
(lp724
S'debugging'
p725
asbag49
(g70
g51
NtRp726
(dp727
g54
(dp728
g81
g82
ssg63
g717
sg56
(lp729
S':'
asbag49
(g70
g51
NtRp730
(dp731
g54
(dp732
sg63
g717
sg56
(lp733
g49
(g50
g51
NtRp734
(dp735
g54
(dp736
g62
I4
ssg63
g730
sg56
(lp737
g92
asbasbasbag49
(g65
g51
NtRp738
(dp739
g54
(dp740
sg63
g600
sg56
(lp741
g49
(g70
g51
NtRp742
(dp743
g54
(dp744
g74
g75
ssg63
g738
sg56
(lp745
S'gluon_parent'
p746
asbag49
(g70
g51
NtRp747
(dp748
g54
(dp749
g81
g82
ssg63
g738
sg56
(lp750
S':'
asbag49
(g70
g51
NtRp751
(dp752
g54
(dp753
sg63
g738
sg56
(lp754
g49
(g50
g51
NtRp755
(dp756
g54
(dp757
g62
I4
ssg63
g751
sg56
(lp758
S'C:\\web2py'
p759
asbasbasbag49
(g65
g51
NtRp760
(dp761
g54
(dp762
sg63
g600
sg56
(lp763
g49
(g70
g51
NtRp764
(dp765
g54
(dp766
g74
g75
ssg63
g760
sg56
(lp767
S'http_accept'
p768
asbag49
(g70
g51
NtRp769
(dp770
g54
(dp771
g81
g82
ssg63
g760
sg56
(lp772
S':'
asbag49
(g70
g51
NtRp773
(dp774
g54
(dp775
sg63
g760
sg56
(lp776
g49
(g50
g51
NtRp777
(dp778
g54
(dp779
g62
I4
ssg63
g773
sg56
(lp780
S'text/html,application/xhtml+xml,application/xml;q=0.9,*/*;q=0.8'
p781
asbasbasbag49
(g65
g51
NtRp782
(dp783
g54
(dp784
sg63
g600
sg56
(lp785
g49
(g70
g51
NtRp786
(dp787
g54
(dp788
g74
g75
ssg63
g782
sg56
(lp789
S'http_accept_charset'
p790
asbag49
(g70
g51
NtRp791
(dp792
g54
(dp793
g81
g82
ssg63
g782
sg56
(lp794
S':'
asbag49
(g70
g51
NtRp795
(dp796
g54
(dp797
sg63
g782
sg56
(lp798
g49
(g50
g51
NtRp799
(dp800
g54
(dp801
g62
I4
ssg63
g795
sg56
(lp802
S'ISO-8859-1,utf-8;q=0.7,*;q=0.3'
p803
asbasbasbag49
(g65
g51
NtRp804
(dp805
g54
(dp806
sg63
g600
sg56
(lp807
g49
(g70
g51
NtRp808
(dp809
g54
(dp810
g74
g75
ssg63
g804
sg56
(lp811
S'http_accept_encoding'
p812
asbag49
(g70
g51
NtRp813
(dp814
g54
(dp815
g81
g82
ssg63
g804
sg56
(lp816
S':'
asbag49
(g70
g51
NtRp817
(dp818
g54
(dp819
sg63
g804
sg56
(lp820
g49
(g50
g51
NtRp821
(dp822
g54
(dp823
g62
I4
ssg63
g817
sg56
(lp824
S'gzip,deflate,sdch'
p825
asbasbasbag49
(g65
g51
NtRp826
(dp827
g54
(dp828
sg63
g600
sg56
(lp829
g49
(g70
g51
NtRp830
(dp831
g54
(dp832
g74
g75
ssg63
g826
sg56
(lp833
S'http_accept_language'
p834
asbag49
(g70
g51
NtRp835
(dp836
g54
(dp837
g81
g82
ssg63
g826
sg56
(lp838
S':'
asbag49
(g70
g51
NtRp839
(dp840
g54
(dp841
sg63
g826
sg56
(lp842
g49
(g50
g51
NtRp843
(dp844
g54
(dp845
g62
I4
ssg63
g839
sg56
(lp846
S'pt-BR,pt;q=0.8,en-US;q=0.6,en;q=0.4'
p847
asbasbasbag49
(g65
g51
NtRp848
(dp849
g54
(dp850
sg63
g600
sg56
(lp851
g49
(g70
g51
NtRp852
(dp853
g54
(dp854
g74
g75
ssg63
g848
sg56
(lp855
S'http_connection'
p856
asbag49
(g70
g51
NtRp857
(dp858
g54
(dp859
g81
g82
ssg63
g848
sg56
(lp860
S':'
asbag49
(g70
g51
NtRp861
(dp862
g54
(dp863
sg63
g848
sg56
(lp864
g49
(g50
g51
NtRp865
(dp866
g54
(dp867
g62
I4
ssg63
g861
sg56
(lp868
S'keep-alive'
p869
asbasbasbag49
(g65
g51
NtRp870
(dp871
g54
(dp872
sg63
g600
sg56
(lp873
g49
(g70
g51
NtRp874
(dp875
g54
(dp876
g74
g75
ssg63
g870
sg56
(lp877
S'http_cookie'
p878
asbag49
(g70
g51
NtRp879
(dp880
g54
(dp881
g81
g82
ssg63
g870
sg56
(lp882
S':'
asbag49
(g70
g51
NtRp883
(dp884
g54
(dp885
sg63
g870
sg56
(lp886
g49
(g50
g51
NtRp887
(dp888
g54
(dp889
g62
I4
ssg63
g883
sg56
(lp890
S'session_id_admin=127.0.0.1-642cccd8-e60e-420d-bb22-90e7c2fbcbb0; session_id_unioeste_code=127.0.0.1-ac0e57bf-2a61-4ff7-b75a-c2e830b4787a'
p891
asbasbasbag49
(g65
g51
NtRp892
(dp893
g54
(dp894
sg63
g600
sg56
(lp895
g49
(g70
g51
NtRp896
(dp897
g54
(dp898
g74
g75
ssg63
g892
sg56
(lp899
S'http_dnt'
p900
asbag49
(g70
g51
NtRp901
(dp902
g54
(dp903
g81
g82
ssg63
g892
sg56
(lp904
S':'
asbag49
(g70
g51
NtRp905
(dp906
g54
(dp907
sg63
g892
sg56
(lp908
g49
(g50
g51
NtRp909
(dp910
g54
(dp911
g62
I4
ssg63
g905
sg56
(lp912
S'1'
asbasbasbag49
(g65
g51
NtRp913
(dp914
g54
(dp915
sg63
g600
sg56
(lp916
g49
(g70
g51
NtRp917
(dp918
g54
(dp919
g74
g75
ssg63
g913
sg56
(lp920
S'http_host'
p921
asbag49
(g70
g51
NtRp922
(dp923
g54
(dp924
g81
g82
ssg63
g913
sg56
(lp925
S':'
asbag49
(g70
g51
NtRp926
(dp927
g54
(dp928
sg63
g913
sg56
(lp929
g49
(g50
g51
NtRp930
(dp931
g54
(dp932
g62
I4
ssg63
g926
sg56
(lp933
S'localhost:8000'
p934
asbasbasbag49
(g65
g51
NtRp935
(dp936
g54
(dp937
sg63
g600
sg56
(lp938
g49
(g70
g51
NtRp939
(dp940
g54
(dp941
g74
g75
ssg63
g935
sg56
(lp942
S'http_referer'
p943
asbag49
(g70
g51
NtRp944
(dp945
g54
(dp946
g81
g82
ssg63
g935
sg56
(lp947
S':'
asbag49
(g70
g51
NtRp948
(dp949
g54
(dp950
sg63
g935
sg56
(lp951
g49
(g50
g51
NtRp952
(dp953
g54
(dp954
g62
I4
ssg63
g948
sg56
(lp955
S'http://localhost:8000/unioeste_code/default/showProblem/1'
p956
asbasbasbag49
(g65
g51
NtRp957
(dp958
g54
(dp959
sg63
g600
sg56
(lp960
g49
(g70
g51
NtRp961
(dp962
g54
(dp963
g74
g75
ssg63
g957
sg56
(lp964
S'http_user_agent'
p965
asbag49
(g70
g51
NtRp966
(dp967
g54
(dp968
g81
g82
ssg63
g957
sg56
(lp969
S':'
asbag49
(g70
g51
NtRp970
(dp971
g54
(dp972
sg63
g957
sg56
(lp973
g49
(g50
g51
NtRp974
(dp975
g54
(dp976
g62
I4
ssg63
g970
sg56
(lp977
S'Mozilla/5.0 (Windows NT 6.1; WOW64) AppleWebKit/536.11 (KHTML, like Gecko) Chrome/20.0.1132.57 Safari/536.11'
p978
asbasbasbag49
(g65
g51
NtRp979
(dp980
g54
(dp981
sg63
g600
sg56
(lp982
g49
(g70
g51
NtRp983
(dp984
g54
(dp985
g74
g75
ssg63
g979
sg56
(lp986
S'is_jython'
p987
asbag49
(g70
g51
NtRp988
(dp989
g54
(dp990
g81
g82
ssg63
g979
sg56
(lp991
S':'
asbag49
(g70
g51
NtRp992
(dp993
g54
(dp994
sg63
g979
sg56
(lp995
g49
(g50
g51
NtRp996
(dp997
g54
(dp998
g62
I4
ssg63
g992
sg56
(lp999
g92
asbasbasbag49
(g65
g51
NtRp1000
(dp1001
g54
(dp1002
sg63
g600
sg56
(lp1003
g49
(g70
g51
NtRp1004
(dp1005
g54
(dp1006
g74
g75
ssg63
g1000
sg56
(lp1007
S'is_pypy'
p1008
asbag49
(g70
g51
NtRp1009
(dp1010
g54
(dp1011
g81
g82
ssg63
g1000
sg56
(lp1012
S':'
asbag49
(g70
g51
NtRp1013
(dp1014
g54
(dp1015
sg63
g1000
sg56
(lp1016
g49
(g50
g51
NtRp1017
(dp1018
g54
(dp1019
g62
I4
ssg63
g1013
sg56
(lp1020
g92
asbasbasbag49
(g65
g51
NtRp1021
(dp1022
g54
(dp1023
sg63
g600
sg56
(lp1024
g49
(g70
g51
NtRp1025
(dp1026
g54
(dp1027
g74
g75
ssg63
g1021
sg56
(lp1028
S'path_info'
p1029
asbag49
(g70
g51
NtRp1030
(dp1031
g54
(dp1032
g81
g82
ssg63
g1021
sg56
(lp1033
S':'
asbag49
(g70
g51
NtRp1034
(dp1035
g54
(dp1036
sg63
g1021
sg56
(lp1037
g49
(g50
g51
NtRp1038
(dp1039
g54
(dp1040
g62
I4
ssg63
g1034
sg56
(lp1041
S'/unioeste_code/default/showCode/1'
p1042
asbasbasbag49
(g65
g51
NtRp1043
(dp1044
g54
(dp1045
sg63
g600
sg56
(lp1046
g49
(g70
g51
NtRp1047
(dp1048
g54
(dp1049
g74
g75
ssg63
g1043
sg56
(lp1050
S'query_string'
p1051
asbag49
(g70
g51
NtRp1052
(dp1053
g54
(dp1054
g81
g82
ssg63
g1043
sg56
(lp1055
S':'
asbag49
(g70
g51
NtRp1056
(dp1057
g54
(dp1058
sg63
g1043
sg56
(lp1059
g49
(g50
g51
NtRp1060
(dp1061
g54
(dp1062
g62
I4
ssg63
g1056
sg56
(lp1063
S''
asbasbasbag49
(g65
g51
NtRp1064
(dp1065
g54
(dp1066
sg63
g600
sg56
(lp1067
g49
(g70
g51
NtRp1068
(dp1069
g54
(dp1070
g74
g75
ssg63
g1064
sg56
(lp1071
S'remote_addr'
p1072
asbag49
(g70
g51
NtRp1073
(dp1074
g54
(dp1075
g81
g82
ssg63
g1064
sg56
(lp1076
S':'
asbag49
(g70
g51
NtRp1077
(dp1078
g54
(dp1079
sg63
g1064
sg56
(lp1080
g49
(g50
g51
NtRp1081
(dp1082
g54
(dp1083
g62
I4
ssg63
g1077
sg56
(lp1084
g194
asbasbasbag49
(g65
g51
NtRp1085
(dp1086
g54
(dp1087
sg63
g600
sg56
(lp1088
g49
(g70
g51
NtRp1089
(dp1090
g54
(dp1091
g74
g75
ssg63
g1085
sg56
(lp1092
S'remote_port'
p1093
asbag49
(g70
g51
NtRp1094
(dp1095
g54
(dp1096
g81
g82
ssg63
g1085
sg56
(lp1097
S':'
asbag49
(g70
g51
NtRp1098
(dp1099
g54
(dp1100
sg63
g1085
sg56
(lp1101
g49
(g50
g51
NtRp1102
(dp1103
g54
(dp1104
g62
I4
ssg63
g1098
sg56
(lp1105
S'56187'
p1106
asbasbasbag49
(g65
g51
NtRp1107
(dp1108
g54
(dp1109
sg63
g600
sg56
(lp1110
g49
(g70
g51
NtRp1111
(dp1112
g54
(dp1113
g74
g75
ssg63
g1107
sg56
(lp1114
S'request_method'
p1115
asbag49
(g70
g51
NtRp1116
(dp1117
g54
(dp1118
g81
g82
ssg63
g1107
sg56
(lp1119
S':'
asbag49
(g70
g51
NtRp1120
(dp1121
g54
(dp1122
sg63
g1107
sg56
(lp1123
g49
(g50
g51
NtRp1124
(dp1125
g54
(dp1126
g62
I4
ssg63
g1120
sg56
(lp1127
S'GET'
p1128
asbasbasbag49
(g65
g51
NtRp1129
(dp1130
g54
(dp1131
sg63
g600
sg56
(lp1132
g49
(g70
g51
NtRp1133
(dp1134
g54
(dp1135
g74
g75
ssg63
g1129
sg56
(lp1136
S'script_name'
p1137
asbag49
(g70
g51
NtRp1138
(dp1139
g54
(dp1140
g81
g82
ssg63
g1129
sg56
(lp1141
S':'
asbag49
(g70
g51
NtRp1142
(dp1143
g54
(dp1144
sg63
g1129
sg56
(lp1145
g49
(g50
g51
NtRp1146
(dp1147
g54
(dp1148
g62
I4
ssg63
g1142
sg56
(lp1149
S''
asbasbasbag49
(g65
g51
NtRp1150
(dp1151
g54
(dp1152
sg63
g600
sg56
(lp1153
g49
(g70
g51
NtRp1154
(dp1155
g54
(dp1156
g74
g75
ssg63
g1150
sg56
(lp1157
S'server_name'
p1158
asbag49
(g70
g51
NtRp1159
(dp1160
g54
(dp1161
g81
g82
ssg63
g1150
sg56
(lp1162
S':'
asbag49
(g70
g51
NtRp1163
(dp1164
g54
(dp1165
sg63
g1150
sg56
(lp1166
g49
(g50
g51
NtRp1167
(dp1168
g54
(dp1169
g62
I4
ssg63
g1163
sg56
(lp1170
S'Pedro-PC'
p1171
asbasbasbag49
(g65
g51
NtRp1172
(dp1173
g54
(dp1174
sg63
g600
sg56
(lp1175
g49
(g70
g51
NtRp1176
(dp1177
g54
(dp1178
g74
g75
ssg63
g1172
sg56
(lp1179
S'server_port'
p1180
asbag49
(g70
g51
NtRp1181
(dp1182
g54
(dp1183
g81
g82
ssg63
g1172
sg56
(lp1184
S':'
asbag49
(g70
g51
NtRp1185
(dp1186
g54
(dp1187
sg63
g1172
sg56
(lp1188
g49
(g50
g51
NtRp1189
(dp1190
g54
(dp1191
g62
I4
ssg63
g1185
sg56
(lp1192
S'8000'
p1193
asbasbasbag49
(g65
g51
NtRp1194
(dp1195
g54
(dp1196
sg63
g600
sg56
(lp1197
g49
(g70
g51
NtRp1198
(dp1199
g54
(dp1200
g74
g75
ssg63
g1194
sg56
(lp1201
S'server_protocol'
p1202
asbag49
(g70
g51
NtRp1203
(dp1204
g54
(dp1205
g81
g82
ssg63
g1194
sg56
(lp1206
S':'
asbag49
(g70
g51
NtRp1207
(dp1208
g54
(dp1209
sg63
g1194
sg56
(lp1210
g49
(g50
g51
NtRp1211
(dp1212
g54
(dp1213
g62
I4
ssg63
g1207
sg56
(lp1214
S'HTTP/1.1'
p1215
asbasbasbag49
(g65
g51
NtRp1216
(dp1217
g54
(dp1218
sg63
g600
sg56
(lp1219
g49
(g70
g51
NtRp1220
(dp1221
g54
(dp1222
g74
g75
ssg63
g1216
sg56
(lp1223
S'server_software'
p1224
asbag49
(g70
g51
NtRp1225
(dp1226
g54
(dp1227
g81
g82
ssg63
g1216
sg56
(lp1228
S':'
asbag49
(g70
g51
NtRp1229
(dp1230
g54
(dp1231
sg63
g1216
sg56
(lp1232
g49
(g50
g51
NtRp1233
(dp1234
g54
(dp1235
g62
I4
ssg63
g1229
sg56
(lp1236
S'Rocket 1.2.4'
p1237
asbasbasbag49
(g65
g51
NtRp1238
(dp1239
g54
(dp1240
sg63
g600
sg56
(lp1241
g49
(g70
g51
NtRp1242
(dp1243
g54
(dp1244
g74
g75
ssg63
g1238
sg56
(lp1245
S'web2py_crontype'
p1246
asbag49
(g70
g51
NtRp1247
(dp1248
g54
(dp1249
g81
g82
ssg63
g1238
sg56
(lp1250
S':'
asbag49
(g70
g51
NtRp1251
(dp1252
g54
(dp1253
sg63
g1238
sg56
(lp1254
g49
(g50
g51
NtRp1255
(dp1256
g54
(dp1257
g62
I4
ssg63
g1251
sg56
(lp1258
S'hard'
p1259
asbasbasbag49
(g65
g51
NtRp1260
(dp1261
g54
(dp1262
sg63
g600
sg56
(lp1263
g49
(g70
g51
NtRp1264
(dp1265
g54
(dp1266
g74
g75
ssg63
g1260
sg56
(lp1267
S'web2py_path'
p1268
asbag49
(g70
g51
NtRp1269
(dp1270
g54
(dp1271
g81
g82
ssg63
g1260
sg56
(lp1272
S':'
asbag49
(g70
g51
NtRp1273
(dp1274
g54
(dp1275
sg63
g1260
sg56
(lp1276
g49
(g50
g51
NtRp1277
(dp1278
g54
(dp1279
g62
I4
ssg63
g1273
sg56
(lp1280
g647
asbasbasbag49
(g65
g51
NtRp1281
(dp1282
g54
(dp1283
sg63
g600
sg56
(lp1284
g49
(g70
g51
NtRp1285
(dp1286
g54
(dp1287
g74
g75
ssg63
g1281
sg56
(lp1288
S'web2py_version'
p1289
asbag49
(g70
g51
NtRp1290
(dp1291
g54
(dp1292
g81
g82
ssg63
g1281
sg56
(lp1293
S':'
asbag49
(g70
g51
NtRp1294
(dp1295
g54
(dp1296
sg63
g1281
sg56
(lp1297
g49
(g50
g51
NtRp1298
(dp1299
g54
(dp1300
g62
I4
ssg63
g1294
sg56
(lp1301
g49
(g58
g51
NtRp1302
(dp1303
g54
(dp1304
g62
I3
ssg63
Nsg56
(lp1305
g49
(g65
g51
NtRp1306
(dp1307
g54
(dp1308
sg63
g1302
sg56
(lp1309
g49
(g70
g51
NtRp1310
(dp1311
g54
(dp1312
sg63
g1306
sg56
(lp1313
g49
(g50
g51
NtRp1314
(dp1315
g54
(dp1316
g62
I3
ssg63
g1310
sg56
(lp1317
S'1'
asbasbasbag49
(g65
g51
NtRp1318
(dp1319
g54
(dp1320
sg63
g1302
sg56
(lp1321
g49
(g70
g51
NtRp1322
(dp1323
g54
(dp1324
sg63
g1318
sg56
(lp1325
g49
(g50
g51
NtRp1326
(dp1327
g54
(dp1328
g62
I3
ssg63
g1322
sg56
(lp1329
S'99'
p1330
asbasbasbag49
(g65
g51
NtRp1331
(dp1332
g54
(dp1333
sg63
g1302
sg56
(lp1334
g49
(g70
g51
NtRp1335
(dp1336
g54
(dp1337
sg63
g1331
sg56
(lp1338
g49
(g50
g51
NtRp1339
(dp1340
g54
(dp1341
g62
I3
ssg63
g1335
sg56
(lp1342
S'7'
asbasbasbag49
(g65
g51
NtRp1343
(dp1344
g54
(dp1345
sg63
g1302
sg56
(lp1346
g49
(g70
g51
NtRp1347
(dp1348
g54
(dp1349
sg63
g1343
sg56
(lp1350
g49
(g50
g51
NtRp1351
(dp1352
g54
(dp1353
g62
I3
ssg63
g1347
sg56
(lp1354
S'datetime.datetime(2012, 3, 4, 22, 12, 8)'
p1355
asbasbasbag49
(g65
g51
NtRp1356
(dp1357
g54
(dp1358
sg63
g1302
sg56
(lp1359
g49
(g70
g51
NtRp1360
(dp1361
g54
(dp1362
sg63
g1356
sg56
(lp1363
g49
(g50
g51
NtRp1364
(dp1365
g54
(dp1366
g62
I3
ssg63
g1360
sg56
(lp1367
S'stable'
p1368
asbasbasbasbasbasbasbag49
(g65
g51
NtRp1369
(dp1370
g54
(dp1371
sg63
g600
sg56
(lp1372
g49
(g70
g51
NtRp1373
(dp1374
g54
(dp1375
g74
g75
ssg63
g1369
sg56
(lp1376
S'wsgi_errors'
p1377
asbag49
(g70
g51
NtRp1378
(dp1379
g54
(dp1380
g81
g82
ssg63
g1369
sg56
(lp1381
S':'
asbag49
(g70
g51
NtRp1382
(dp1383
g54
(dp1384
sg63
g1369
sg56
(lp1385
g49
(g50
g51
NtRp1386
(dp1387
g54
(dp1388
g62
I4
ssg63
g1382
sg56
(lp1389
S'<__main__.Stderr object at 0x00486670>'
p1390
asbasbasbag49
(g65
g51
NtRp1391
(dp1392
g54
(dp1393
sg63
g600
sg56
(lp1394
g49
(g70
g51
NtRp1395
(dp1396
g54
(dp1397
g74
g75
ssg63
g1391
sg56
(lp1398
S'wsgi_file_wrapper'
p1399
asbag49
(g70
g51
NtRp1400
(dp1401
g54
(dp1402
g81
g82
ssg63
g1391
sg56
(lp1403
S':'
asbag49
(g70
g51
NtRp1404
(dp1405
g54
(dp1406
sg63
g1391
sg56
(lp1407
g49
(g50
g51
NtRp1408
(dp1409
g54
(dp1410
g62
I4
ssg63
g1404
sg56
(lp1411
S'<class wsgiref.util.FileWrapper at 0x02E8DE10>'
p1412
asbasbasbag49
(g65
g51
NtRp1413
(dp1414
g54
(dp1415
sg63
g600
sg56
(lp1416
g49
(g70
g51
NtRp1417
(dp1418
g54
(dp1419
g74
g75
ssg63
g1413
sg56
(lp1420
S'wsgi_input'
p1421
asbag49
(g70
g51
NtRp1422
(dp1423
g54
(dp1424
g81
g82
ssg63
g1413
sg56
(lp1425
S':'
asbag49
(g70
g51
NtRp1426
(dp1427
g54
(dp1428
sg63
g1413
sg56
(lp1429
g49
(g50
g51
NtRp1430
(dp1431
g54
(dp1432
g62
I4
ssg63
g1426
sg56
(lp1433
S'<socket._fileobject object at 0x06947370>'
p1434
asbasbasbag49
(g65
g51
NtRp1435
(dp1436
g54
(dp1437
sg63
g600
sg56
(lp1438
g49
(g70
g51
NtRp1439
(dp1440
g54
(dp1441
g74
g75
ssg63
g1435
sg56
(lp1442
S'wsgi_multiprocess'
p1443
asbag49
(g70
g51
NtRp1444
(dp1445
g54
(dp1446
g81
g82
ssg63
g1435
sg56
(lp1447
S':'
asbag49
(g70
g51
NtRp1448
(dp1449
g54
(dp1450
sg63
g1435
sg56
(lp1451
g49
(g50
g51
NtRp1452
(dp1453
g54
(dp1454
g62
I4
ssg63
g1448
sg56
(lp1455
g92
asbasbasbag49
(g65
g51
NtRp1456
(dp1457
g54
(dp1458
sg63
g600
sg56
(lp1459
g49
(g70
g51
NtRp1460
(dp1461
g54
(dp1462
g74
g75
ssg63
g1456
sg56
(lp1463
S'wsgi_multithread'
p1464
asbag49
(g70
g51
NtRp1465
(dp1466
g54
(dp1467
g81
g82
ssg63
g1456
sg56
(lp1468
S':'
asbag49
(g70
g51
NtRp1469
(dp1470
g54
(dp1471
sg63
g1456
sg56
(lp1472
g49
(g50
g51
NtRp1473
(dp1474
g54
(dp1475
g62
I4
ssg63
g1469
sg56
(lp1476
S'True'
p1477
asbasbasbag49
(g65
g51
NtRp1478
(dp1479
g54
(dp1480
sg63
g600
sg56
(lp1481
g49
(g70
g51
NtRp1482
(dp1483
g54
(dp1484
g74
g75
ssg63
g1478
sg56
(lp1485
S'wsgi_run_once'
p1486
asbag49
(g70
g51
NtRp1487
(dp1488
g54
(dp1489
g81
g82
ssg63
g1478
sg56
(lp1490
S':'
asbag49
(g70
g51
NtRp1491
(dp1492
g54
(dp1493
sg63
g1478
sg56
(lp1494
g49
(g50
g51
NtRp1495
(dp1496
g54
(dp1497
g62
I4
ssg63
g1491
sg56
(lp1498
g92
asbasbasbag49
(g65
g51
NtRp1499
(dp1500
g54
(dp1501
sg63
g600
sg56
(lp1502
g49
(g70
g51
NtRp1503
(dp1504
g54
(dp1505
g74
g75
ssg63
g1499
sg56
(lp1506
S'wsgi_url_scheme'
p1507
asbag49
(g70
g51
NtRp1508
(dp1509
g54
(dp1510
g81
g82
ssg63
g1499
sg56
(lp1511
S':'
asbag49
(g70
g51
NtRp1512
(dp1513
g54
(dp1514
sg63
g1499
sg56
(lp1515
g49
(g50
g51
NtRp1516
(dp1517
g54
(dp1518
g62
I4
ssg63
g1512
sg56
(lp1519
S'http'
p1520
asbasbasbag49
(g65
g51
NtRp1521
(dp1522
g54
(dp1523
sg63
g600
sg56
(lp1524
g49
(g70
g51
NtRp1525
(dp1526
g54
(dp1527
g74
g75
ssg63
g1521
sg56
(lp1528
S'wsgi_version'
p1529
asbag49
(g70
g51
NtRp1530
(dp1531
g54
(dp1532
g81
g82
ssg63
g1521
sg56
(lp1533
S':'
asbag49
(g70
g51
NtRp1534
(dp1535
g54
(dp1536
sg63
g1521
sg56
(lp1537
g49
(g50
g51
NtRp1538
(dp1539
g54
(dp1540
g62
I4
ssg63
g1534
sg56
(lp1541
g49
(g58
g51
NtRp1542
(dp1543
g54
(dp1544
g62
I3
ssg63
Nsg56
(lp1545
g49
(g65
g51
NtRp1546
(dp1547
g54
(dp1548
sg63
g1542
sg56
(lp1549
g49
(g70
g51
NtRp1550
(dp1551
g54
(dp1552
sg63
g1546
sg56
(lp1553
g49
(g50
g51
NtRp1554
(dp1555
g54
(dp1556
g62
I3
ssg63
g1550
sg56
(lp1557
S'1'
asbasbasbag49
(g65
g51
NtRp1558
(dp1559
g54
(dp1560
sg63
g1542
sg56
(lp1561
g49
(g70
g51
NtRp1562
(dp1563
g54
(dp1564
sg63
g1558
sg56
(lp1565
g49
(g50
g51
NtRp1566
(dp1567
g54
(dp1568
g62
I3
ssg63
g1562
sg56
(lp1569
S'0'
asbasbasbasbasbasbasbasbasbasbasbag49
(g65
g51
NtRp1570
(dp1571
g54
(dp1572
sg63
g59
sg56
(lp1573
g49
(g70
g51
NtRp1574
(dp1575
g54
(dp1576
g74
g75
ssg63
g1570
sg56
(lp1577
S'extension'
p1578
asbag49
(g70
g51
NtRp1579
(dp1580
g54
(dp1581
g81
g82
ssg63
g1570
sg56
(lp1582
S':'
asbag49
(g70
g51
NtRp1583
(dp1584
g54
(dp1585
sg63
g1570
sg56
(lp1586
g49
(g50
g51
NtRp1587
(dp1588
g54
(dp1589
g62
I5
ssg63
g1583
sg56
(lp1590
S'html'
p1591
asbasbasbag49
(g65
g51
NtRp1592
(dp1593
g54
(dp1594
sg63
g59
sg56
(lp1595
g49
(g70
g51
NtRp1596
(dp1597
g54
(dp1598
g74
g75
ssg63
g1592
sg56
(lp1599
S'folder'
p1600
asbag49
(g70
g51
NtRp1601
(dp1602
g54
(dp1603
g81
g82
ssg63
g1592
sg56
(lp1604
S':'
asbag49
(g70
g51
NtRp1605
(dp1606
g54
(dp1607
sg63
g1592
sg56
(lp1608
g49
(g50
g51
NtRp1609
(dp1610
g54
(dp1611
g62
I5
ssg63
g1605
sg56
(lp1612
S'C:\\web2py\\applications\\unioeste_code\\'
p1613
asbasbasbag49
(g65
g51
NtRp1614
(dp1615
g54
(dp1616
sg63
g59
sg56
(lp1617
g49
(g70
g51
NtRp1618
(dp1619
g54
(dp1620
g74
g75
ssg63
g1614
sg56
(lp1621
S'function'
p1622
asbag49
(g70
g51
NtRp1623
(dp1624
g54
(dp1625
g81
g82
ssg63
g1614
sg56
(lp1626
S':'
asbag49
(g70
g51
NtRp1627
(dp1628
g54
(dp1629
sg63
g1614
sg56
(lp1630
g49
(g50
g51
NtRp1631
(dp1632
g54
(dp1633
g62
I5
ssg63
g1627
sg56
(lp1634
S'showCode'
p1635
asbasbasbag49
(g65
g51
NtRp1636
(dp1637
g54
(dp1638
sg63
g59
sg56
(lp1639
g49
(g70
g51
NtRp1640
(dp1641
g54
(dp1642
g74
g75
ssg63
g1636
sg56
(lp1643
S'get_vars'
p1644
asbag49
(g70
g51
NtRp1645
(dp1646
g54
(dp1647
g81
g82
ssg63
g1636
sg56
(lp1648
S':'
asbag49
(g70
g51
NtRp1649
(dp1650
g54
(dp1651
sg63
g1636
sg56
(lp1652
g49
(g50
g51
NtRp1653
(dp1654
g54
(dp1655
g62
I5
ssg63
g1649
sg56
(lp1656
g49
(g58
g51
NtRp1657
(dp1658
g54
(dp1659
g62
I4
ssg63
Nsg56
(lp1660
sbasbasbasbag49
(g65
g51
NtRp1661
(dp1662
g54
(dp1663
sg63
g59
sg56
(lp1664
g49
(g70
g51
NtRp1665
(dp1666
g54
(dp1667
g74
g75
ssg63
g1661
sg56
(lp1668
S'global_settings'
p1669
asbag49
(g70
g51
NtRp1670
(dp1671
g54
(dp1672
g81
g82
ssg63
g1661
sg56
(lp1673
S':'
asbag49
(g70
g51
NtRp1674
(dp1675
g54
(dp1676
sg63
g1661
sg56
(lp1677
g49
(g50
g51
NtRp1678
(dp1679
g54
(dp1680
g62
I5
ssg63
g1674
sg56
(lp1681
g49
(g58
g51
NtRp1682
(dp1683
g54
(dp1684
g62
I4
ssg63
Nsg56
(lp1685
g49
(g65
g51
NtRp1686
(dp1687
g54
(dp1688
sg63
g1682
sg56
(lp1689
g49
(g70
g51
NtRp1690
(dp1691
g54
(dp1692
g74
g75
ssg63
g1686
sg56
(lp1693
g612
asbag49
(g70
g51
NtRp1694
(dp1695
g54
(dp1696
g81
g82
ssg63
g1686
sg56
(lp1697
S':'
asbag49
(g70
g51
NtRp1698
(dp1699
g54
(dp1700
sg63
g1686
sg56
(lp1701
g49
(g50
g51
NtRp1702
(dp1703
g54
(dp1704
g62
I4
ssg63
g1698
sg56
(lp1705
S"set(['C:\\\\web2py\\\\applications\\\\admin\\\\', 'C:\\\\web2py\\\\applications\\\\welcome\\\\', 'C:\\\\web2py\\\\applications\\\\unioeste_code\\\\'])"
p1706
asbasbasbag49
(g65
g51
NtRp1707
(dp1708
g54
(dp1709
sg63
g1682
sg56
(lp1710
g49
(g70
g51
NtRp1711
(dp1712
g54
(dp1713
g74
g75
ssg63
g1707
sg56
(lp1714
g634
asbag49
(g70
g51
NtRp1715
(dp1716
g54
(dp1717
g81
g82
ssg63
g1707
sg56
(lp1718
S':'
asbag49
(g70
g51
NtRp1719
(dp1720
g54
(dp1721
sg63
g1707
sg56
(lp1722
g49
(g50
g51
NtRp1723
(dp1724
g54
(dp1725
g62
I4
ssg63
g1719
sg56
(lp1726
g647
asbasbasbag49
(g65
g51
NtRp1727
(dp1728
g54
(dp1729
sg63
g1682
sg56
(lp1730
g49
(g70
g51
NtRp1731
(dp1732
g54
(dp1733
g74
g75
ssg63
g1727
sg56
(lp1734
g656
asbag49
(g70
g51
NtRp1735
(dp1736
g54
(dp1737
g81
g82
ssg63
g1727
sg56
(lp1738
S':'
asbag49
(g70
g51
NtRp1739
(dp1740
g54
(dp1741
sg63
g1727
sg56
(lp1742
g49
(g50
g51
NtRp1743
(dp1744
g54
(dp1745
g62
I4
ssg63
g1739
sg56
(lp1746
g49
(g58
g51
NtRp1747
(dp1748
g54
(dp1749
g62
I3
ssg63
Nsg56
(lp1750
sbasbasbasbag49
(g65
g51
NtRp1751
(dp1752
g54
(dp1753
sg63
g1682
sg56
(lp1754
g49
(g70
g51
NtRp1755
(dp1756
g54
(dp1757
g74
g75
ssg63
g1751
sg56
(lp1758
g681
asbag49
(g70
g51
NtRp1759
(dp1760
g54
(dp1761
g81
g82
ssg63
g1751
sg56
(lp1762
S':'
asbag49
(g70
g51
NtRp1763
(dp1764
g54
(dp1765
sg63
g1751
sg56
(lp1766
g49
(g50
g51
NtRp1767
(dp1768
g54
(dp1769
g62
I4
ssg63
g1763
sg56
(lp1770
S"<Values at 0x309c300: {'verbose': False, 'ip': '127.0.0.1', 'shutdown_timeout': 5, 'taskbar': False, 'nocron': False, 'pid_filename': 'httpserver.pid', 'maxthreads': None, 'softcron': False, 'server_name': 'Pedro-PC', 'bpython': False, 'nogui': False, 'port': 8000, 'extcron': False, 'debuglevel': 30, 'test': None, 'folder': 'C:\\\\web2py', 'config': '', 'import_models': False, 'winservice': '', 'shell': None, 'run': '', 'log_filename': 'httpserver.log', 'args': [''], 'socket_timeout': 5, 'ssl_ca_certificate': None, 'scheduler': None, 'profiler_filename': None, 'ssl_private_key': '', 'password': '<ask>', 'request_queue_size': 5, 'ssl_certificate': '', 'cronjob': False, 'numthreads': None, 'quiet': False, 'interfaces': None, 'minthreads': None, 'timeout': 10, 'plain': False, 'nobanner': False}>"
p1771
asbasbasbag49
(g65
g51
NtRp1772
(dp1773
g54
(dp1774
sg63
g1682
sg56
(lp1775
g49
(g70
g51
NtRp1776
(dp1777
g54
(dp1778
g74
g75
ssg63
g1772
sg56
(lp1779
g703
asbag49
(g70
g51
NtRp1780
(dp1781
g54
(dp1782
g81
g82
ssg63
g1772
sg56
(lp1783
S':'
asbag49
(g70
g51
NtRp1784
(dp1785
g54
(dp1786
sg63
g1772
sg56
(lp1787
g49
(g50
g51
NtRp1788
(dp1789
g54
(dp1790
g62
I4
ssg63
g1784
sg56
(lp1791
S'set([])'
p1792
asbasbasbag49
(g65
g51
NtRp1793
(dp1794
g54
(dp1795
sg63
g1682
sg56
(lp1796
g49
(g70
g51
NtRp1797
(dp1798
g54
(dp1799
g74
g75
ssg63
g1793
sg56
(lp1800
g725
asbag49
(g70
g51
NtRp1801
(dp1802
g54
(dp1803
g81
g82
ssg63
g1793
sg56
(lp1804
S':'
asbag49
(g70
g51
NtRp1805
(dp1806
g54
(dp1807
sg63
g1793
sg56
(lp1808
g49
(g50
g51
NtRp1809
(dp1810
g54
(dp1811
g62
I4
ssg63
g1805
sg56
(lp1812
g92
asbasbasbag49
(g65
g51
NtRp1813
(dp1814
g54
(dp1815
sg63
g1682
sg56
(lp1816
g49
(g70
g51
NtRp1817
(dp1818
g54
(dp1819
g74
g75
ssg63
g1813
sg56
(lp1820
g746
asbag49
(g70
g51
NtRp1821
(dp1822
g54
(dp1823
g81
g82
ssg63
g1813
sg56
(lp1824
S':'
asbag49
(g70
g51
NtRp1825
(dp1826
g54
(dp1827
sg63
g1813
sg56
(lp1828
g49
(g50
g51
NtRp1829
(dp1830
g54
(dp1831
g62
I4
ssg63
g1825
sg56
(lp1832
g759
asbasbasbag49
(g65
g51
NtRp1833
(dp1834
g54
(dp1835
sg63
g1682
sg56
(lp1836
g49
(g70
g51
NtRp1837
(dp1838
g54
(dp1839
g74
g75
ssg63
g1833
sg56
(lp1840
g987
asbag49
(g70
g51
NtRp1841
(dp1842
g54
(dp1843
g81
g82
ssg63
g1833
sg56
(lp1844
S':'
asbag49
(g70
g51
NtRp1845
(dp1846
g54
(dp1847
sg63
g1833
sg56
(lp1848
g49
(g50
g51
NtRp1849
(dp1850
g54
(dp1851
g62
I4
ssg63
g1845
sg56
(lp1852
g92
asbasbasbag49
(g65
g51
NtRp1853
(dp1854
g54
(dp1855
sg63
g1682
sg56
(lp1856
g49
(g70
g51
NtRp1857
(dp1858
g54
(dp1859
g74
g75
ssg63
g1853
sg56
(lp1860
g1008
asbag49
(g70
g51
NtRp1861
(dp1862
g54
(dp1863
g81
g82
ssg63
g1853
sg56
(lp1864
S':'
asbag49
(g70
g51
NtRp1865
(dp1866
g54
(dp1867
sg63
g1853
sg56
(lp1868
g49
(g50
g51
NtRp1869
(dp1870
g54
(dp1871
g62
I4
ssg63
g1865
sg56
(lp1872
g92
asbasbasbag49
(g65
g51
NtRp1873
(dp1874
g54
(dp1875
sg63
g1682
sg56
(lp1876
g49
(g70
g51
NtRp1877
(dp1878
g54
(dp1879
g74
g75
ssg63
g1873
sg56
(lp1880
g1246
asbag49
(g70
g51
NtRp1881
(dp1882
g54
(dp1883
g81
g82
ssg63
g1873
sg56
(lp1884
S':'
asbag49
(g70
g51
NtRp1885
(dp1886
g54
(dp1887
sg63
g1873
sg56
(lp1888
g49
(g50
g51
NtRp1889
(dp1890
g54
(dp1891
g62
I4
ssg63
g1885
sg56
(lp1892
g1259
asbasbasbag49
(g65
g51
NtRp1893
(dp1894
g54
(dp1895
sg63
g1682
sg56
(lp1896
g49
(g70
g51
NtRp1897
(dp1898
g54
(dp1899
g74
g75
ssg63
g1893
sg56
(lp1900
g1289
asbag49
(g70
g51
NtRp1901
(dp1902
g54
(dp1903
g81
g82
ssg63
g1893
sg56
(lp1904
S':'
asbag49
(g70
g51
NtRp1905
(dp1906
g54
(dp1907
sg63
g1893
sg56
(lp1908
g49
(g50
g51
NtRp1909
(dp1910
g54
(dp1911
g62
I4
ssg63
g1905
sg56
(lp1912
g49
(g58
g51
NtRp1913
(dp1914
g54
(dp1915
g62
I3
ssg63
Nsg56
(lp1916
g49
(g65
g51
NtRp1917
(dp1918
g54
(dp1919
sg63
g1913
sg56
(lp1920
g49
(g70
g51
NtRp1921
(dp1922
g54
(dp1923
sg63
g1917
sg56
(lp1924
g49
(g50
g51
NtRp1925
(dp1926
g54
(dp1927
g62
I3
ssg63
g1921
sg56
(lp1928
S'1'
asbasbasbag49
(g65
g51
NtRp1929
(dp1930
g54
(dp1931
sg63
g1913
sg56
(lp1932
g49
(g70
g51
NtRp1933
(dp1934
g54
(dp1935
sg63
g1929
sg56
(lp1936
g49
(g50
g51
NtRp1937
(dp1938
g54
(dp1939
g62
I3
ssg63
g1933
sg56
(lp1940
S'99'
p1941
asbasbasbag49
(g65
g51
NtRp1942
(dp1943
g54
(dp1944
sg63
g1913
sg56
(lp1945
g49
(g70
g51
NtRp1946
(dp1947
g54
(dp1948
sg63
g1942
sg56
(lp1949
g49
(g50
g51
NtRp1950
(dp1951
g54
(dp1952
g62
I3
ssg63
g1946
sg56
(lp1953
S'7'
asbasbasbag49
(g65
g51
NtRp1954
(dp1955
g54
(dp1956
sg63
g1913
sg56
(lp1957
g49
(g70
g51
NtRp1958
(dp1959
g54
(dp1960
sg63
g1954
sg56
(lp1961
g49
(g50
g51
NtRp1962
(dp1963
g54
(dp1964
g62
I3
ssg63
g1958
sg56
(lp1965
S'datetime.datetime(2012, 3, 4, 22, 12, 8)'
p1966
asbasbasbag49
(g65
g51
NtRp1967
(dp1968
g54
(dp1969
sg63
g1913
sg56
(lp1970
g49
(g70
g51
NtRp1971
(dp1972
g54
(dp1973
sg63
g1967
sg56
(lp1974
g49
(g50
g51
NtRp1975
(dp1976
g54
(dp1977
g62
I3
ssg63
g1971
sg56
(lp1978
g1368
asbasbasbasbasbasbasbasbasbasbasbag49
(g65
g51
NtRp1979
(dp1980
g54
(dp1981
sg63
g59
sg56
(lp1982
g49
(g70
g51
NtRp1983
(dp1984
g54
(dp1985
g74
g75
ssg63
g1979
sg56
(lp1986
S'is_https'
p1987
asbag49
(g70
g51
NtRp1988
(dp1989
g54
(dp1990
g81
g82
ssg63
g1979
sg56
(lp1991
S':'
asbag49
(g70
g51
NtRp1992
(dp1993
g54
(dp1994
sg63
g1979
sg56
(lp1995
g49
(g50
g51
NtRp1996
(dp1997
g54
(dp1998
g62
I5
ssg63
g1992
sg56
(lp1999
g92
asbasbasbag49
(g65
g51
NtRp2000
(dp2001
g54
(dp2002
sg63
g59
sg56
(lp2003
g49
(g70
g51
NtRp2004
(dp2005
g54
(dp2006
g74
g75
ssg63
g2000
sg56
(lp2007
S'is_local'
p2008
asbag49
(g70
g51
NtRp2009
(dp2010
g54
(dp2011
g81
g82
ssg63
g2000
sg56
(lp2012
S':'
asbag49
(g70
g51
NtRp2013
(dp2014
g54
(dp2015
sg63
g2000
sg56
(lp2016
g49
(g50
g51
NtRp2017
(dp2018
g54
(dp2019
g62
I5
ssg63
g2013
sg56
(lp2020
g1477
asbasbasbag49
(g65
g51
NtRp2021
(dp2022
g54
(dp2023
sg63
g59
sg56
(lp2024
g49
(g70
g51
NtRp2025
(dp2026
g54
(dp2027
g74
g75
ssg63
g2021
sg56
(lp2028
S'is_restful'
p2029
asbag49
(g70
g51
NtRp2030
(dp2031
g54
(dp2032
g81
g82
ssg63
g2021
sg56
(lp2033
S':'
asbag49
(g70
g51
NtRp2034
(dp2035
g54
(dp2036
sg63
g2021
sg56
(lp2037
g49
(g50
g51
NtRp2038
(dp2039
g54
(dp2040
g62
I5
ssg63
g2034
sg56
(lp2041
g92
asbasbasbag49
(g65
g51
NtRp2042
(dp2043
g54
(dp2044
sg63
g59
sg56
(lp2045
g49
(g70
g51
NtRp2046
(dp2047
g54
(dp2048
g74
g75
ssg63
g2042
sg56
(lp2049
S'now'
p2050
asbag49
(g70
g51
NtRp2051
(dp2052
g54
(dp2053
g81
g82
ssg63
g2042
sg56
(lp2054
S':'
asbag49
(g70
g51
NtRp2055
(dp2056
g54
(dp2057
sg63
g2042
sg56
(lp2058
g49
(g50
g51
NtRp2059
(dp2060
g54
(dp2061
g62
I5
ssg63
g2055
sg56
(lp2062
S'datetime.datetime(2012, 7, 30, 0, 57, 36, 187000)'
p2063
asbasbasbag49
(g65
g51
NtRp2064
(dp2065
g54
(dp2066
sg63
g59
sg56
(lp2067
g49
(g70
g51
NtRp2068
(dp2069
g54
(dp2070
g74
g75
ssg63
g2064
sg56
(lp2071
S'post_vars'
p2072
asbag49
(g70
g51
NtRp2073
(dp2074
g54
(dp2075
g81
g82
ssg63
g2064
sg56
(lp2076
S':'
asbag49
(g70
g51
NtRp2077
(dp2078
g54
(dp2079
sg63
g2064
sg56
(lp2080
g49
(g50
g51
NtRp2081
(dp2082
g54
(dp2083
g62
I5
ssg63
g2077
sg56
(lp2084
g49
(g58
g51
NtRp2085
(dp2086
g54
(dp2087
g62
I4
ssg63
Nsg56
(lp2088
sbasbasbasbag49
(g65
g51
NtRp2089
(dp2090
g54
(dp2091
sg63
g59
sg56
(lp2092
g49
(g70
g51
NtRp2093
(dp2094
g54
(dp2095
g74
g75
ssg63
g2089
sg56
(lp2096
S'raw_args'
p2097
asbag49
(g70
g51
NtRp2098
(dp2099
g54
(dp2100
g81
g82
ssg63
g2089
sg56
(lp2101
S':'
asbag49
(g70
g51
NtRp2102
(dp2103
g54
(dp2104
sg63
g2089
sg56
(lp2105
g49
(g50
g51
NtRp2106
(dp2107
g54
(dp2108
g62
I5
ssg63
g2102
sg56
(lp2109
S'1'
asbasbasbag49
(g65
g51
NtRp2110
(dp2111
g54
(dp2112
sg63
g59
sg56
(lp2113
g49
(g70
g51
NtRp2114
(dp2115
g54
(dp2116
g74
g75
ssg63
g2110
sg56
(lp2117
S'url'
p2118
asbag49
(g70
g51
NtRp2119
(dp2120
g54
(dp2121
g81
g82
ssg63
g2110
sg56
(lp2122
S':'
asbag49
(g70
g51
NtRp2123
(dp2124
g54
(dp2125
sg63
g2110
sg56
(lp2126
g49
(g50
g51
NtRp2127
(dp2128
g54
(dp2129
g62
I5
ssg63
g2123
sg56
(lp2130
S'/unioeste_code/default/showCode/1'
p2131
asbasbasbag49
(g65
g51
NtRp2132
(dp2133
g54
(dp2134
sg63
g59
sg56
(lp2135
g49
(g70
g51
NtRp2136
(dp2137
g54
(dp2138
g74
g75
ssg63
g2132
sg56
(lp2139
S'utcnow'
p2140
asbag49
(g70
g51
NtRp2141
(dp2142
g54
(dp2143
g81
g82
ssg63
g2132
sg56
(lp2144
S':'
asbag49
(g70
g51
NtRp2145
(dp2146
g54
(dp2147
sg63
g2132
sg56
(lp2148
g49
(g50
g51
NtRp2149
(dp2150
g54
(dp2151
g62
I5
ssg63
g2145
sg56
(lp2152
S'datetime.datetime(2012, 7, 30, 3, 57, 36, 187000)'
p2153
asbasbasbag49
(g65
g51
NtRp2154
(dp2155
g54
(dp2156
sg63
g59
sg56
(lp2157
g49
(g70
g51
NtRp2158
(dp2159
g54
(dp2160
g74
g75
ssg63
g2154
sg56
(lp2161
S'uuid'
p2162
asbag49
(g70
g51
NtRp2163
(dp2164
g54
(dp2165
g81
g82
ssg63
g2154
sg56
(lp2166
S':'
asbag49
(g70
g51
NtRp2167
(dp2168
g54
(dp2169
sg63
g2154
sg56
(lp2170
g49
(g50
g51
NtRp2171
(dp2172
g54
(dp2173
g62
I5
ssg63
g2167
sg56
(lp2174
S'unioeste_code/127.0.0.1.2012-07-30.00-57-36.80980673-c3e7-4c35-a7c5-b20320f1fa29'
p2175
asbasbasbag49
(g65
g51
NtRp2176
(dp2177
g54
(dp2178
sg63
g59
sg56
(lp2179
g49
(g70
g51
NtRp2180
(dp2181
g54
(dp2182
g74
g75
ssg63
g2176
sg56
(lp2183
S'vars'
p2184
asbag49
(g70
g51
NtRp2185
(dp2186
g54
(dp2187
g81
g82
ssg63
g2176
sg56
(lp2188
S':'
asbag49
(g70
g51
NtRp2189
(dp2190
g54
(dp2191
sg63
g2176
sg56
(lp2192
g49
(g50
g51
NtRp2193
(dp2194
g54
(dp2195
g62
I5
ssg63
g2189
sg56
(lp2196
g49
(g58
g51
NtRp2197
(dp2198
g54
(dp2199
g62
I4
ssg63
Nsg56
(lp2200
sbasbasbasbag49
(g65
g51
NtRp2201
(dp2202
g54
(dp2203
sg63
g59
sg56
(lp2204
g49
(g70
g51
NtRp2205
(dp2206
g54
(dp2207
g74
g75
ssg63
g2201
sg56
(lp2208
S'wsgi'
p2209
asbag49
(g70
g51
NtRp2210
(dp2211
g54
(dp2212
g81
g82
ssg63
g2201
sg56
(lp2213
S':'
asbag49
(g70
g51
NtRp2214
(dp2215
g54
(dp2216
sg63
g2201
sg56
(lp2217
g49
(g50
g51
NtRp2218
(dp2219
g54
(dp2220
g62
I5
ssg63
g2214
sg56
(lp2221
g49
(g58
g51
NtRp2222
(dp2223
g54
(dp2224
g62
I4
ssg63
Nsg56
(lp2225
g49
(g65
g51
NtRp2226
(dp2227
g54
(dp2228
sg63
g2222
sg56
(lp2229
g49
(g70
g51
NtRp2230
(dp2231
g54
(dp2232
g74
g75
ssg63
g2226
sg56
(lp2233
S'environ'
p2234
asbag49
(g70
g51
NtRp2235
(dp2236
g54
(dp2237
g81
g82
ssg63
g2226
sg56
(lp2238
S':'
asbag49
(g70
g51
NtRp2239
(dp2240
g54
(dp2241
sg63
g2226
sg56
(lp2242
g49
(g50
g51
NtRp2243
(dp2244
g54
(dp2245
g62
I4
ssg63
g2239
sg56
(lp2246
g49
(g58
g51
NtRp2247
(dp2248
g54
(dp2249
g62
I3
ssg63
Nsg56
(lp2250
g49
(g65
g51
NtRp2251
(dp2252
g54
(dp2253
sg63
g2247
sg56
(lp2254
g49
(g70
g51
NtRp2255
(dp2256
g54
(dp2257
g74
g75
ssg63
g2251
sg56
(lp2258
S'HTTP_ACCEPT'
p2259
asbag49
(g70
g51
NtRp2260
(dp2261
g54
(dp2262
g81
g82
ssg63
g2251
sg56
(lp2263
S':'
asbag49
(g70
g51
NtRp2264
(dp2265
g54
(dp2266
sg63
g2251
sg56
(lp2267
g49
(g50
g51
NtRp2268
(dp2269
g54
(dp2270
g62
I3
ssg63
g2264
sg56
(lp2271
g781
asbasbasbag49
(g65
g51
NtRp2272
(dp2273
g54
(dp2274
sg63
g2247
sg56
(lp2275
g49
(g70
g51
NtRp2276
(dp2277
g54
(dp2278
g74
g75
ssg63
g2272
sg56
(lp2279
S'HTTP_ACCEPT_CHARSET'
p2280
asbag49
(g70
g51
NtRp2281
(dp2282
g54
(dp2283
g81
g82
ssg63
g2272
sg56
(lp2284
S':'
asbag49
(g70
g51
NtRp2285
(dp2286
g54
(dp2287
sg63
g2272
sg56
(lp2288
g49
(g50
g51
NtRp2289
(dp2290
g54
(dp2291
g62
I3
ssg63
g2285
sg56
(lp2292
g803
asbasbasbag49
(g65
g51
NtRp2293
(dp2294
g54
(dp2295
sg63
g2247
sg56
(lp2296
g49
(g70
g51
NtRp2297
(dp2298
g54
(dp2299
g74
g75
ssg63
g2293
sg56
(lp2300
S'HTTP_ACCEPT_ENCODING'
p2301
asbag49
(g70
g51
NtRp2302
(dp2303
g54
(dp2304
g81
g82
ssg63
g2293
sg56
(lp2305
S':'
asbag49
(g70
g51
NtRp2306
(dp2307
g54
(dp2308
sg63
g2293
sg56
(lp2309
g49
(g50
g51
NtRp2310
(dp2311
g54
(dp2312
g62
I3
ssg63
g2306
sg56
(lp2313
g825
asbasbasbag49
(g65
g51
NtRp2314
(dp2315
g54
(dp2316
sg63
g2247
sg56
(lp2317
g49
(g70
g51
NtRp2318
(dp2319
g54
(dp2320
g74
g75
ssg63
g2314
sg56
(lp2321
S'HTTP_ACCEPT_LANGUAGE'
p2322
asbag49
(g70
g51
NtRp2323
(dp2324
g54
(dp2325
g81
g82
ssg63
g2314
sg56
(lp2326
S':'
asbag49
(g70
g51
NtRp2327
(dp2328
g54
(dp2329
sg63
g2314
sg56
(lp2330
g49
(g50
g51
NtRp2331
(dp2332
g54
(dp2333
g62
I3
ssg63
g2327
sg56
(lp2334
g847
asbasbasbag49
(g65
g51
NtRp2335
(dp2336
g54
(dp2337
sg63
g2247
sg56
(lp2338
g49
(g70
g51
NtRp2339
(dp2340
g54
(dp2341
g74
g75
ssg63
g2335
sg56
(lp2342
S'HTTP_CONNECTION'
p2343
asbag49
(g70
g51
NtRp2344
(dp2345
g54
(dp2346
g81
g82
ssg63
g2335
sg56
(lp2347
S':'
asbag49
(g70
g51
NtRp2348
(dp2349
g54
(dp2350
sg63
g2335
sg56
(lp2351
g49
(g50
g51
NtRp2352
(dp2353
g54
(dp2354
g62
I3
ssg63
g2348
sg56
(lp2355
g869
asbasbasbag49
(g65
g51
NtRp2356
(dp2357
g54
(dp2358
sg63
g2247
sg56
(lp2359
g49
(g70
g51
NtRp2360
(dp2361
g54
(dp2362
g74
g75
ssg63
g2356
sg56
(lp2363
S'HTTP_COOKIE'
p2364
asbag49
(g70
g51
NtRp2365
(dp2366
g54
(dp2367
g81
g82
ssg63
g2356
sg56
(lp2368
S':'
asbag49
(g70
g51
NtRp2369
(dp2370
g54
(dp2371
sg63
g2356
sg56
(lp2372
g49
(g50
g51
NtRp2373
(dp2374
g54
(dp2375
g62
I3
ssg63
g2369
sg56
(lp2376
g891
asbasbasbag49
(g65
g51
NtRp2377
(dp2378
g54
(dp2379
sg63
g2247
sg56
(lp2380
g49
(g70
g51
NtRp2381
(dp2382
g54
(dp2383
g74
g75
ssg63
g2377
sg56
(lp2384
S'HTTP_DNT'
p2385
asbag49
(g70
g51
NtRp2386
(dp2387
g54
(dp2388
g81
g82
ssg63
g2377
sg56
(lp2389
S':'
asbag49
(g70
g51
NtRp2390
(dp2391
g54
(dp2392
sg63
g2377
sg56
(lp2393
g49
(g50
g51
NtRp2394
(dp2395
g54
(dp2396
g62
I3
ssg63
g2390
sg56
(lp2397
S'1'
asbasbasbag49
(g65
g51
NtRp2398
(dp2399
g54
(dp2400
sg63
g2247
sg56
(lp2401
g49
(g70
g51
NtRp2402
(dp2403
g54
(dp2404
g74
g75
ssg63
g2398
sg56
(lp2405
S'HTTP_HOST'
p2406
asbag49
(g70
g51
NtRp2407
(dp2408
g54
(dp2409
g81
g82
ssg63
g2398
sg56
(lp2410
S':'
asbag49
(g70
g51
NtRp2411
(dp2412
g54
(dp2413
sg63
g2398
sg56
(lp2414
g49
(g50
g51
NtRp2415
(dp2416
g54
(dp2417
g62
I3
ssg63
g2411
sg56
(lp2418
g934
asbasbasbag49
(g65
g51
NtRp2419
(dp2420
g54
(dp2421
sg63
g2247
sg56
(lp2422
g49
(g70
g51
NtRp2423
(dp2424
g54
(dp2425
g74
g75
ssg63
g2419
sg56
(lp2426
S'HTTP_REFERER'
p2427
asbag49
(g70
g51
NtRp2428
(dp2429
g54
(dp2430
g81
g82
ssg63
g2419
sg56
(lp2431
S':'
asbag49
(g70
g51
NtRp2432
(dp2433
g54
(dp2434
sg63
g2419
sg56
(lp2435
g49
(g50
g51
NtRp2436
(dp2437
g54
(dp2438
g62
I3
ssg63
g2432
sg56
(lp2439
g956
asbasbasbag49
(g65
g51
NtRp2440
(dp2441
g54
(dp2442
sg63
g2247
sg56
(lp2443
g49
(g70
g51
NtRp2444
(dp2445
g54
(dp2446
g74
g75
ssg63
g2440
sg56
(lp2447
S'HTTP_USER_AGENT'
p2448
asbag49
(g70
g51
NtRp2449
(dp2450
g54
(dp2451
g81
g82
ssg63
g2440
sg56
(lp2452
S':'
asbag49
(g70
g51
NtRp2453
(dp2454
g54
(dp2455
sg63
g2440
sg56
(lp2456
g49
(g50
g51
NtRp2457
(dp2458
g54
(dp2459
g62
I3
ssg63
g2453
sg56
(lp2460
g978
asbasbasbag49
(g65
g51
NtRp2461
(dp2462
g54
(dp2463
sg63
g2247
sg56
(lp2464
g49
(g70
g51
NtRp2465
(dp2466
g54
(dp2467
g74
g75
ssg63
g2461
sg56
(lp2468
S'PATH_INFO'
p2469
asbag49
(g70
g51
NtRp2470
(dp2471
g54
(dp2472
g81
g82
ssg63
g2461
sg56
(lp2473
S':'
asbag49
(g70
g51
NtRp2474
(dp2475
g54
(dp2476
sg63
g2461
sg56
(lp2477
g49
(g50
g51
NtRp2478
(dp2479
g54
(dp2480
g62
I3
ssg63
g2474
sg56
(lp2481
g1042
asbasbasbag49
(g65
g51
NtRp2482
(dp2483
g54
(dp2484
sg63
g2247
sg56
(lp2485
g49
(g70
g51
NtRp2486
(dp2487
g54
(dp2488
g74
g75
ssg63
g2482
sg56
(lp2489
S'QUERY_STRING'
p2490
asbag49
(g70
g51
NtRp2491
(dp2492
g54
(dp2493
g81
g82
ssg63
g2482
sg56
(lp2494
S':'
asbag49
(g70
g51
NtRp2495
(dp2496
g54
(dp2497
sg63
g2482
sg56
(lp2498
g49
(g50
g51
NtRp2499
(dp2500
g54
(dp2501
g62
I3
ssg63
g2495
sg56
(lp2502
S''
asbasbasbag49
(g65
g51
NtRp2503
(dp2504
g54
(dp2505
sg63
g2247
sg56
(lp2506
g49
(g70
g51
NtRp2507
(dp2508
g54
(dp2509
g74
g75
ssg63
g2503
sg56
(lp2510
S'REMOTE_ADDR'
p2511
asbag49
(g70
g51
NtRp2512
(dp2513
g54
(dp2514
g81
g82
ssg63
g2503
sg56
(lp2515
S':'
asbag49
(g70
g51
NtRp2516
(dp2517
g54
(dp2518
sg63
g2503
sg56
(lp2519
g49
(g50
g51
NtRp2520
(dp2521
g54
(dp2522
g62
I3
ssg63
g2516
sg56
(lp2523
g194
asbasbasbag49
(g65
g51
NtRp2524
(dp2525
g54
(dp2526
sg63
g2247
sg56
(lp2527
g49
(g70
g51
NtRp2528
(dp2529
g54
(dp2530
g74
g75
ssg63
g2524
sg56
(lp2531
S'REMOTE_PORT'
p2532
asbag49
(g70
g51
NtRp2533
(dp2534
g54
(dp2535
g81
g82
ssg63
g2524
sg56
(lp2536
S':'
asbag49
(g70
g51
NtRp2537
(dp2538
g54
(dp2539
sg63
g2524
sg56
(lp2540
g49
(g50
g51
NtRp2541
(dp2542
g54
(dp2543
g62
I3
ssg63
g2537
sg56
(lp2544
g1106
asbasbasbag49
(g65
g51
NtRp2545
(dp2546
g54
(dp2547
sg63
g2247
sg56
(lp2548
g49
(g70
g51
NtRp2549
(dp2550
g54
(dp2551
g74
g75
ssg63
g2545
sg56
(lp2552
S'REQUEST_METHOD'
p2553
asbag49
(g70
g51
NtRp2554
(dp2555
g54
(dp2556
g81
g82
ssg63
g2545
sg56
(lp2557
S':'
asbag49
(g70
g51
NtRp2558
(dp2559
g54
(dp2560
sg63
g2545
sg56
(lp2561
g49
(g50
g51
NtRp2562
(dp2563
g54
(dp2564
g62
I3
ssg63
g2558
sg56
(lp2565
g1128
asbasbasbag49
(g65
g51
NtRp2566
(dp2567
g54
(dp2568
sg63
g2247
sg56
(lp2569
g49
(g70
g51
NtRp2570
(dp2571
g54
(dp2572
g74
g75
ssg63
g2566
sg56
(lp2573
S'SCRIPT_NAME'
p2574
asbag49
(g70
g51
NtRp2575
(dp2576
g54
(dp2577
g81
g82
ssg63
g2566
sg56
(lp2578
S':'
asbag49
(g70
g51
NtRp2579
(dp2580
g54
(dp2581
sg63
g2566
sg56
(lp2582
g49
(g50
g51
NtRp2583
(dp2584
g54
(dp2585
g62
I3
ssg63
g2579
sg56
(lp2586
S''
asbasbasbag49
(g65
g51
NtRp2587
(dp2588
g54
(dp2589
sg63
g2247
sg56
(lp2590
g49
(g70
g51
NtRp2591
(dp2592
g54
(dp2593
g74
g75
ssg63
g2587
sg56
(lp2594
S'SERVER_NAME'
p2595
asbag49
(g70
g51
NtRp2596
(dp2597
g54
(dp2598
g81
g82
ssg63
g2587
sg56
(lp2599
S':'
asbag49
(g70
g51
NtRp2600
(dp2601
g54
(dp2602
sg63
g2587
sg56
(lp2603
g49
(g50
g51
NtRp2604
(dp2605
g54
(dp2606
g62
I3
ssg63
g2600
sg56
(lp2607
g1171
asbasbasbag49
(g65
g51
NtRp2608
(dp2609
g54
(dp2610
sg63
g2247
sg56
(lp2611
g49
(g70
g51
NtRp2612
(dp2613
g54
(dp2614
g74
g75
ssg63
g2608
sg56
(lp2615
S'SERVER_PORT'
p2616
asbag49
(g70
g51
NtRp2617
(dp2618
g54
(dp2619
g81
g82
ssg63
g2608
sg56
(lp2620
S':'
asbag49
(g70
g51
NtRp2621
(dp2622
g54
(dp2623
sg63
g2608
sg56
(lp2624
g49
(g50
g51
NtRp2625
(dp2626
g54
(dp2627
g62
I3
ssg63
g2621
sg56
(lp2628
g1193
asbasbasbag49
(g65
g51
NtRp2629
(dp2630
g54
(dp2631
sg63
g2247
sg56
(lp2632
g49
(g70
g51
NtRp2633
(dp2634
g54
(dp2635
g74
g75
ssg63
g2629
sg56
(lp2636
S'SERVER_PROTOCOL'
p2637
asbag49
(g70
g51
NtRp2638
(dp2639
g54
(dp2640
g81
g82
ssg63
g2629
sg56
(lp2641
S':'
asbag49
(g70
g51
NtRp2642
(dp2643
g54
(dp2644
sg63
g2629
sg56
(lp2645
g49
(g50
g51
NtRp2646
(dp2647
g54
(dp2648
g62
I3
ssg63
g2642
sg56
(lp2649
g1215
asbasbasbag49
(g65
g51
NtRp2650
(dp2651
g54
(dp2652
sg63
g2247
sg56
(lp2653
g49
(g70
g51
NtRp2654
(dp2655
g54
(dp2656
g74
g75
ssg63
g2650
sg56
(lp2657
S'SERVER_SOFTWARE'
p2658
asbag49
(g70
g51
NtRp2659
(dp2660
g54
(dp2661
g81
g82
ssg63
g2650
sg56
(lp2662
S':'
asbag49
(g70
g51
NtRp2663
(dp2664
g54
(dp2665
sg63
g2650
sg56
(lp2666
g49
(g50
g51
NtRp2667
(dp2668
g54
(dp2669
g62
I3
ssg63
g2663
sg56
(lp2670
g1237
asbasbasbag49
(g65
g51
NtRp2671
(dp2672
g54
(dp2673
sg63
g2247
sg56
(lp2674
g49
(g70
g51
NtRp2675
(dp2676
g54
(dp2677
g74
g75
ssg63
g2671
sg56
(lp2678
S'wsgi.errors'
p2679
asbag49
(g70
g51
NtRp2680
(dp2681
g54
(dp2682
g81
g82
ssg63
g2671
sg56
(lp2683
S':'
asbag49
(g70
g51
NtRp2684
(dp2685
g54
(dp2686
sg63
g2671
sg56
(lp2687
g49
(g50
g51
NtRp2688
(dp2689
g54
(dp2690
g62
I3
ssg63
g2684
sg56
(lp2691
S'<__main__.Stderr object at 0x00486670>'
p2692
asbasbasbag49
(g65
g51
NtRp2693
(dp2694
g54
(dp2695
sg63
g2247
sg56
(lp2696
g49
(g70
g51
NtRp2697
(dp2698
g54
(dp2699
g74
g75
ssg63
g2693
sg56
(lp2700
S'wsgi.file_wrapper'
p2701
asbag49
(g70
g51
NtRp2702
(dp2703
g54
(dp2704
g81
g82
ssg63
g2693
sg56
(lp2705
S':'
asbag49
(g70
g51
NtRp2706
(dp2707
g54
(dp2708
sg63
g2693
sg56
(lp2709
g49
(g50
g51
NtRp2710
(dp2711
g54
(dp2712
g62
I3
ssg63
g2706
sg56
(lp2713
S'<class wsgiref.util.FileWrapper at 0x02E8DE10>'
p2714
asbasbasbag49
(g65
g51
NtRp2715
(dp2716
g54
(dp2717
sg63
g2247
sg56
(lp2718
g49
(g70
g51
NtRp2719
(dp2720
g54
(dp2721
g74
g75
ssg63
g2715
sg56
(lp2722
S'wsgi.input'
p2723
asbag49
(g70
g51
NtRp2724
(dp2725
g54
(dp2726
g81
g82
ssg63
g2715
sg56
(lp2727
S':'
asbag49
(g70
g51
NtRp2728
(dp2729
g54
(dp2730
sg63
g2715
sg56
(lp2731
g49
(g50
g51
NtRp2732
(dp2733
g54
(dp2734
g62
I3
ssg63
g2728
sg56
(lp2735
S'<cStringIO.StringO object at 0x068C5100>'
p2736
asbasbasbag49
(g65
g51
NtRp2737
(dp2738
g54
(dp2739
sg63
g2247
sg56
(lp2740
g49
(g70
g51
NtRp2741
(dp2742
g54
(dp2743
g74
g75
ssg63
g2737
sg56
(lp2744
S'wsgi.multiprocess'
p2745
asbag49
(g70
g51
NtRp2746
(dp2747
g54
(dp2748
g81
g82
ssg63
g2737
sg56
(lp2749
S':'
asbag49
(g70
g51
NtRp2750
(dp2751
g54
(dp2752
sg63
g2737
sg56
(lp2753
g49
(g50
g51
NtRp2754
(dp2755
g54
(dp2756
g62
I3
ssg63
g2750
sg56
(lp2757
g92
asbasbasbag49
(g65
g51
NtRp2758
(dp2759
g54
(dp2760
sg63
g2247
sg56
(lp2761
g49
(g70
g51
NtRp2762
(dp2763
g54
(dp2764
g74
g75
ssg63
g2758
sg56
(lp2765
S'wsgi.multithread'
p2766
asbag49
(g70
g51
NtRp2767
(dp2768
g54
(dp2769
g81
g82
ssg63
g2758
sg56
(lp2770
S':'
asbag49
(g70
g51
NtRp2771
(dp2772
g54
(dp2773
sg63
g2758
sg56
(lp2774
g49
(g50
g51
NtRp2775
(dp2776
g54
(dp2777
g62
I3
ssg63
g2771
sg56
(lp2778
g1477
asbasbasbag49
(g65
g51
NtRp2779
(dp2780
g54
(dp2781
sg63
g2247
sg56
(lp2782
g49
(g70
g51
NtRp2783
(dp2784
g54
(dp2785
g74
g75
ssg63
g2779
sg56
(lp2786
S'wsgi.run_once'
p2787
asbag49
(g70
g51
NtRp2788
(dp2789
g54
(dp2790
g81
g82
ssg63
g2779
sg56
(lp2791
S':'
asbag49
(g70
g51
NtRp2792
(dp2793
g54
(dp2794
sg63
g2779
sg56
(lp2795
g49
(g50
g51
NtRp2796
(dp2797
g54
(dp2798
g62
I3
ssg63
g2792
sg56
(lp2799
g92
asbasbasbag49
(g65
g51
NtRp2800
(dp2801
g54
(dp2802
sg63
g2247
sg56
(lp2803
g49
(g70
g51
NtRp2804
(dp2805
g54
(dp2806
g74
g75
ssg63
g2800
sg56
(lp2807
S'wsgi.url_scheme'
p2808
asbag49
(g70
g51
NtRp2809
(dp2810
g54
(dp2811
g81
g82
ssg63
g2800
sg56
(lp2812
S':'
asbag49
(g70
g51
NtRp2813
(dp2814
g54
(dp2815
sg63
g2800
sg56
(lp2816
g49
(g50
g51
NtRp2817
(dp2818
g54
(dp2819
g62
I3
ssg63
g2813
sg56
(lp2820
g1520
asbasbasbag49
(g65
g51
NtRp2821
(dp2822
g54
(dp2823
sg63
g2247
sg56
(lp2824
g49
(g70
g51
NtRp2825
(dp2826
g54
(dp2827
g74
g75
ssg63
g2821
sg56
(lp2828
S'wsgi.version'
p2829
asbag49
(g70
g51
NtRp2830
(dp2831
g54
(dp2832
g81
g82
ssg63
g2821
sg56
(lp2833
S':'
asbag49
(g70
g51
NtRp2834
(dp2835
g54
(dp2836
sg63
g2821
sg56
(lp2837
g49
(g50
g51
NtRp2838
(dp2839
g54
(dp2840
g62
I3
ssg63
g2834
sg56
(lp2841
S'1'
asbasbasbasbasbasbasbasbasbasbasbasbasbsS'frames'
p2842
(lp2843
(dp2844
S'file'
p2845
S'C:\\web2py\\gluon\\restricted.py'
p2846
sS'dump'
p2847
(dp2848
sS'lnum'
p2849
I205
sS'lines'
p2850
(dp2851
sS'call'
p2852
S"(code='# -*- coding: utf-8 -*-\\n# this file is released ...d())\\n\\n\\nresponse._vars=response._caller(showCode)\\n', environment={'A': <class 'gluon.html.A'>, 'Auth': <class 'gluon.tools.Auth'>, 'B': <class 'gluon.html.B'>, 'BEAUTIFY': <class 'gluon.html.BEAUTIFY'>, 'BODY': <class 'gluon.html.BODY'>, 'BR': <class 'gluon.html.BR'>, 'BUTTON': <class 'gluon.html.BUTTON'>, 'CAT': <class 'gluon.html.CAT'>, 'CENTER': <class 'gluon.html.CENTER'>, 'CLEANUP': <class 'gluon.validators.CLEANUP'>, ...}, layer=r'C:\\web2py\\applications\\unioeste_code\\controllers/default.py')"
p2853
sS'func'
p2854
S'restricted'
p2855
sa(dp2856
g2845
S'C:\\web2py\\applications\\unioeste_code\\controllers\\default.py'
p2857
sg2847
(dp2858
sg2849
I91
sg2850
(dp2859
I80
S'    http://..../[app]/default/data/delete/[table]/[id]'
p2860
sI81
S'    http://..../[app]/default/data/select/[table]'
p2861
sI82
S'    http://..../[app]/default/data/search/[table]'
p2862
sI83
S'    but URLs must be signed, i.e. linked with'
p2863
sI84
S"      A('table',_href=URL('data/tables',user_signature=True))"
p2864
sI85
S'    or with the signed load operator'
p2865
sI86
S"      LOAD('default','data.load',args='tables',ajax=True,user_signature=True)"
p2866
sI87
S'    """'
p2867
sI88
S'    return dict(form=crud())'
p2868
sI89
S''
ssg2852
S'()'
p2869
sg2854
S'<module>'
p2870
sa(dp2871
g2845
S'C:\\web2py\\gluon\\globals.py'
p2872
sg2847
(dp2873
sg2849
I173
sg2850
(dp2874
sg2852
S'(f=<function showCode at 0x06330B30>)'
p2875
sg2854
S'<lambda>'
p2876
sa(dp2877
g2845
S'C:\\web2py\\applications\\unioeste_code\\controllers\\default.py'
p2878
sg2847
(dp2879
sg2849
I27
sg2850
(dp2880
I22
S"        response.flash = 'your code is posted'"
p2881
sI23
S'    codes = db(db.code.problem_id == problem.id).select()'
p2882
sI24
S'    return dict(problem=problem, codes=codes, form=form)'
p2883
sI25
S''
sI26
S'def showCode():'
p2884
sI27
S'    return dict(message=message)'
p2885
sI28
S''
sI29
S'def problems():'
p2886
sI30
S'    problems = db().select(db.problem.ALL, orderby = db.problem.title)'
p2887
sI31
S'    return dict(problems=problems)'
p2888
ssg2852
S'()'
p2889
sg2854
S'showCode'
p2890
sasS'pyver'
p2891
S'Python 2.5.4: C:\\web2py\\web2py_no_console.exe'
p2892
sS'session'
p2893
g49
(g50
g51
NtRp2894
(dp2895
g54
(dp2896
sg56
(lp2897
g49
(g58
g51
NtRp2898
(dp2899
g54
(dp2900
g62
I5
ssg63
Nsg56
(lp2901
g49
(g65
g51
NtRp2902
(dp2903
g54
(dp2904
sg63
g2898
sg56
(lp2905
g49
(g70
g51
NtRp2906
(dp2907
g54
(dp2908
g74
g75
ssg63
g2902
sg56
(lp2909
S'auth'
p2910
asbag49
(g70
g51
NtRp2911
(dp2912
g54
(dp2913
g81
g82
ssg63
g2902
sg56
(lp2914
S':'
asbag49
(g70
g51
NtRp2915
(dp2916
g54
(dp2917
sg63
g2902
sg56
(lp2918
g49
(g50
g51
NtRp2919
(dp2920
g54
(dp2921
g62
I5
ssg63
g2915
sg56
(lp2922
g49
(g58
g51
NtRp2923
(dp2924
g54
(dp2925
g62
I4
ssg63
Nsg56
(lp2926
g49
(g65
g51
NtRp2927
(dp2928
g54
(dp2929
sg63
g2923
sg56
(lp2930
g49
(g70
g51
NtRp2931
(dp2932
g54
(dp2933
g74
g75
ssg63
g2927
sg56
(lp2934
S'expiration'
p2935
asbag49
(g70
g51
NtRp2936
(dp2937
g54
(dp2938
g81
g82
ssg63
g2927
sg56
(lp2939
S':'
asbag49
(g70
g51
NtRp2940
(dp2941
g54
(dp2942
sg63
g2927
sg56
(lp2943
g49
(g50
g51
NtRp2944
(dp2945
g54
(dp2946
g62
I4
ssg63
g2940
sg56
(lp2947
S'3600'
p2948
asbasbasbag49
(g65
g51
NtRp2949
(dp2950
g54
(dp2951
sg63
g2923
sg56
(lp2952
g49
(g70
g51
NtRp2953
(dp2954
g54
(dp2955
g74
g75
ssg63
g2949
sg56
(lp2956
S'hmac_key'
p2957
asbag49
(g70
g51
NtRp2958
(dp2959
g54
(dp2960
g81
g82
ssg63
g2949
sg56
(lp2961
S':'
asbag49
(g70
g51
NtRp2962
(dp2963
g54
(dp2964
sg63
g2949
sg56
(lp2965
g49
(g50
g51
NtRp2966
(dp2967
g54
(dp2968
g62
I4
ssg63
g2962
sg56
(lp2969
S'995a0c66-3f99-485b-9dcd-26805f1668c1'
p2970
asbasbasbag49
(g65
g51
NtRp2971
(dp2972
g54
(dp2973
sg63
g2923
sg56
(lp2974
g49
(g70
g51
NtRp2975
(dp2976
g54
(dp2977
g74
g75
ssg63
g2971
sg56
(lp2978
S'last_visit'
p2979
asbag49
(g70
g51
NtRp2980
(dp2981
g54
(dp2982
g81
g82
ssg63
g2971
sg56
(lp2983
S':'
asbag49
(g70
g51
NtRp2984
(dp2985
g54
(dp2986
sg63
g2971
sg56
(lp2987
g49
(g50
g51
NtRp2988
(dp2989
g54
(dp2990
g62
I4
ssg63
g2984
sg56
(lp2991
S'datetime.datetime(2012, 7, 30, 0, 57, 14, 432000)'
p2992
asbasbasbag49
(g65
g51
NtRp2993
(dp2994
g54
(dp2995
sg63
g2923
sg56
(lp2996
g49
(g70
g51
NtRp2997
(dp2998
g54
(dp2999
g74
g75
ssg63
g2993
sg56
(lp3000
S'remember'
p3001
asbag49
(g70
g51
NtRp3002
(dp3003
g54
(dp3004
g81
g82
ssg63
g2993
sg56
(lp3005
S':'
asbag49
(g70
g51
NtRp3006
(dp3007
g54
(dp3008
sg63
g2993
sg56
(lp3009
g49
(g50
g51
NtRp3010
(dp3011
g54
(dp3012
g62
I4
ssg63
g3006
sg56
(lp3013
g92
asbasbasbag49
(g65
g51
NtRp3014
(dp3015
g54
(dp3016
sg63
g2923
sg56
(lp3017
g49
(g70
g51
NtRp3018
(dp3019
g54
(dp3020
g74
g75
ssg63
g3014
sg56
(lp3021
S'user'
p3022
asbag49
(g70
g51
NtRp3023
(dp3024
g54
(dp3025
g81
g82
ssg63
g3014
sg56
(lp3026
S':'
asbag49
(g70
g51
NtRp3027
(dp3028
g54
(dp3029
sg63
g3014
sg56
(lp3030
g49
(g50
g51
NtRp3031
(dp3032
g54
(dp3033
g62
I4
ssg63
g3027
sg56
(lp3034
g49
(g58
g51
NtRp3035
(dp3036
g54
(dp3037
g62
I3
ssg63
Nsg56
(lp3038
g49
(g65
g51
NtRp3039
(dp3040
g54
(dp3041
sg63
g3035
sg56
(lp3042
g49
(g70
g51
NtRp3043
(dp3044
g54
(dp3045
g74
g75
ssg63
g3039
sg56
(lp3046
S'email'
p3047
asbag49
(g70
g51
NtRp3048
(dp3049
g54
(dp3050
g81
g82
ssg63
g3039
sg56
(lp3051
S':'
asbag49
(g70
g51
NtRp3052
(dp3053
g54
(dp3054
sg63
g3039
sg56
(lp3055
g49
(g50
g51
NtRp3056
(dp3057
g54
(dp3058
g62
I3
ssg63
g3052
sg56
(lp3059
S'scmirror1@gmail.com'
p3060
asbasbasbag49
(g65
g51
NtRp3061
(dp3062
g54
(dp3063
sg63
g3035
sg56
(lp3064
g49
(g70
g51
NtRp3065
(dp3066
g54
(dp3067
g74
g75
ssg63
g3061
sg56
(lp3068
S'first_name'
p3069
asbag49
(g70
g51
NtRp3070
(dp3071
g54
(dp3072
g81
g82
ssg63
g3061
sg56
(lp3073
S':'
asbag49
(g70
g51
NtRp3074
(dp3075
g54
(dp3076
sg63
g3061
sg56
(lp3077
g49
(g50
g51
NtRp3078
(dp3079
g54
(dp3080
g62
I3
ssg63
g3074
sg56
(lp3081
S'Pedro'
p3082
asbasbasbag49
(g65
g51
NtRp3083
(dp3084
g54
(dp3085
sg63
g3035
sg56
(lp3086
g49
(g70
g51
NtRp3087
(dp3088
g54
(dp3089
g74
g75
ssg63
g3083
sg56
(lp3090
S'id'
p3091
asbag49
(g70
g51
NtRp3092
(dp3093
g54
(dp3094
g81
g82
ssg63
g3083
sg56
(lp3095
S':'
asbag49
(g70
g51
NtRp3096
(dp3097
g54
(dp3098
sg63
g3083
sg56
(lp3099
g49
(g50
g51
NtRp3100
(dp3101
g54
(dp3102
g62
I3
ssg63
g3096
sg56
(lp3103
S'1'
asbasbasbag49
(g65
g51
NtRp3104
(dp3105
g54
(dp3106
sg63
g3035
sg56
(lp3107
g49
(g70
g51
NtRp3108
(dp3109
g54
(dp3110
g74
g75
ssg63
g3104
sg56
(lp3111
S'last_name'
p3112
asbag49
(g70
g51
NtRp3113
(dp3114
g54
(dp3115
g81
g82
ssg63
g3104
sg56
(lp3116
S':'
asbag49
(g70
g51
NtRp3117
(dp3118
g54
(dp3119
sg63
g3104
sg56
(lp3120
g49
(g50
g51
NtRp3121
(dp3122
g54
(dp3123
g62
I3
ssg63
g3117
sg56
(lp3124
S'Lacerda'
p3125
asbasbasbag49
(g65
g51
NtRp3126
(dp3127
g54
(dp3128
sg63
g3035
sg56
(lp3129
g49
(g70
g51
NtRp3130
(dp3131
g54
(dp3132
g74
g75
ssg63
g3126
sg56
(lp3133
S'password'
p3134
asbag49
(g70
g51
NtRp3135
(dp3136
g54
(dp3137
g81
g82
ssg63
g3126
sg56
(lp3138
S':'
asbag49
(g70
g51
NtRp3139
(dp3140
g54
(dp3141
sg63
g3126
sg56
(lp3142
g49
(g50
g51
NtRp3143
(dp3144
g54
(dp3145
g62
I3
ssg63
g3139
sg56
(lp3146
S'4297f44b13955235245b2497399d7a93'
p3147
asbasbasbag49
(g65
g51
NtRp3148
(dp3149
g54
(dp3150
sg63
g3035
sg56
(lp3151
g49
(g70
g51
NtRp3152
(dp3153
g54
(dp3154
g74
g75
ssg63
g3148
sg56
(lp3155
S'registration_id'
p3156
asbag49
(g70
g51
NtRp3157
(dp3158
g54
(dp3159
g81
g82
ssg63
g3148
sg56
(lp3160
S':'
asbag49
(g70
g51
NtRp3161
(dp3162
g54
(dp3163
sg63
g3148
sg56
(lp3164
g49
(g50
g51
NtRp3165
(dp3166
g54
(dp3167
g62
I3
ssg63
g3161
sg56
(lp3168
S''
asbasbasbag49
(g65
g51
NtRp3169
(dp3170
g54
(dp3171
sg63
g3035
sg56
(lp3172
g49
(g70
g51
NtRp3173
(dp3174
g54
(dp3175
g74
g75
ssg63
g3169
sg56
(lp3176
S'registration_key'
p3177
asbag49
(g70
g51
NtRp3178
(dp3179
g54
(dp3180
g81
g82
ssg63
g3169
sg56
(lp3181
S':'
asbag49
(g70
g51
NtRp3182
(dp3183
g54
(dp3184
sg63
g3169
sg56
(lp3185
g49
(g50
g51
NtRp3186
(dp3187
g54
(dp3188
g62
I3
ssg63
g3182
sg56
(lp3189
S''
asbasbasbag49
(g65
g51
NtRp3190
(dp3191
g54
(dp3192
sg63
g3035
sg56
(lp3193
g49
(g70
g51
NtRp3194
(dp3195
g54
(dp3196
g74
g75
ssg63
g3190
sg56
(lp3197
S'reset_password_key'
p3198
asbag49
(g70
g51
NtRp3199
(dp3200
g54
(dp3201
g81
g82
ssg63
g3190
sg56
(lp3202
S':'
asbag49
(g70
g51
NtRp3203
(dp3204
g54
(dp3205
sg63
g3190
sg56
(lp3206
g49
(g50
g51
NtRp3207
(dp3208
g54
(dp3209
g62
I3
ssg63
g3203
sg56
(lp3210
S''
asbasbasbasbasbasbasbag49
(g65
g51
NtRp3211
(dp3212
g54
(dp3213
sg63
g2923
sg56
(lp3214
g49
(g70
g51
NtRp3215
(dp3216
g54
(dp3217
g74
g75
ssg63
g3211
sg56
(lp3218
S'user_groups'
p3219
asbag49
(g70
g51
NtRp3220
(dp3221
g54
(dp3222
g81
g82
ssg63
g3211
sg56
(lp3223
S':'
asbag49
(g70
g51
NtRp3224
(dp3225
g54
(dp3226
sg63
g3211
sg56
(lp3227
g49
(g50
g51
NtRp3228
(dp3229
g54
(dp3230
g62
I4
ssg63
g3224
sg56
(lp3231
g49
(g58
g51
NtRp3232
(dp3233
g54
(dp3234
g62
I3
ssg63
Nsg56
(lp3235
g49
(g65
g51
NtRp3236
(dp3237
g54
(dp3238
sg63
g3232
sg56
(lp3239
g49
(g70
g51
NtRp3240
(dp3241
g54
(dp3242
g74
g75
ssg63
g3236
sg56
(lp3243
S'1'
asbag49
(g70
g51
NtRp3244
(dp3245
g54
(dp3246
g81
g82
ssg63
g3236
sg56
(lp3247
S':'
asbag49
(g70
g51
NtRp3248
(dp3249
g54
(dp3250
sg63
g3236
sg56
(lp3251
g49
(g50
g51
NtRp3252
(dp3253
g54
(dp3254
g62
I3
ssg63
g3248
sg56
(lp3255
S'user_1'
p3256
asbasbasbag49
(g65
g51
NtRp3257
(dp3258
g54
(dp3259
sg63
g3232
sg56
(lp3260
g49
(g70
g51
NtRp3261
(dp3262
g54
(dp3263
g74
g75
ssg63
g3257
sg56
(lp3264
S'2'
asbag49
(g70
g51
NtRp3265
(dp3266
g54
(dp3267
g81
g82
ssg63
g3257
sg56
(lp3268
S':'
asbag49
(g70
g51
NtRp3269
(dp3270
g54
(dp3271
sg63
g3257
sg56
(lp3272
g49
(g50
g51
NtRp3273
(dp3274
g54
(dp3275
g62
I3
ssg63
g3269
sg56
(lp3276
S'manager'
p3277
asbasbasbasbasbasbasbasbasbasbasbasbasbsS'etype'
p3278
S"<type 'exceptions.NameError'>"
p3279
sS'date'
p3280
S'Mon Jul 30 00:57:36 2012'
p3281
sS'response'
p3282
g49
(g50
g51
NtRp3283
(dp3284
g54
(dp3285
sg56
(lp3286
g49
(g58
g51
NtRp3287
(dp3288
g54
(dp3289
g62
I5
ssg63
Nsg56
(lp3290
g49
(g65
g51
NtRp3291
(dp3292
g54
(dp3293
sg63
g3287
sg56
(lp3294
g49
(g70
g51
NtRp3295
(dp3296
g54
(dp3297
g74
g75
ssg63
g3291
sg56
(lp3298
g159
asbag49
(g70
g51
NtRp3299
(dp3300
g54
(dp3301
g81
g82
ssg63
g3291
sg56
(lp3302
S':'
asbag49
(g70
g51
NtRp3303
(dp3304
g54
(dp3305
sg63
g3291
sg56
(lp3306
g49
(g50
g51
NtRp3307
(dp3308
g54
(dp3309
g62
I5
ssg63
g3303
sg56
(lp3310
S'<cStringIO.StringO object at 0x068C5840>'
p3311
asbasbasbag49
(g65
g51
NtRp3312
(dp3313
g54
(dp3314
sg63
g3287
sg56
(lp3315
g49
(g70
g51
NtRp3316
(dp3317
g54
(dp3318
g74
g75
ssg63
g3312
sg56
(lp3319
g225
asbag49
(g70
g51
NtRp3320
(dp3321
g54
(dp3322
g81
g82
ssg63
g3312
sg56
(lp3323
S':'
asbag49
(g70
g51
NtRp3324
(dp3325
g54
(dp3326
sg63
g3312
sg56
(lp3327
g49
(g50
g51
NtRp3328
(dp3329
g54
(dp3330
g62
I5
ssg63
g3324
sg56
(lp3331
g49
(g58
g51
NtRp3332
(dp3333
g54
(dp3334
g62
I4
ssg63
Nsg56
(lp3335
g49
(g65
g51
NtRp3336
(dp3337
g54
(dp3338
sg63
g3332
sg56
(lp3339
g49
(g70
g51
NtRp3340
(dp3341
g54
(dp3342
g74
g75
ssg63
g3336
sg56
(lp3343
S'session_id_unioeste_code'
p3344
asbag49
(g70
g51
NtRp3345
(dp3346
g54
(dp3347
g81
g82
ssg63
g3336
sg56
(lp3348
S':'
asbag49
(g70
g51
NtRp3349
(dp3350
g54
(dp3351
sg63
g3336
sg56
(lp3352
g49
(g50
g51
NtRp3353
(dp3354
g54
(dp3355
g62
I4
ssg63
g3349
sg56
(lp3356
g49
(g58
g51
NtRp3357
(dp3358
g54
(dp3359
g62
I3
ssg63
Nsg56
(lp3360
g49
(g65
g51
NtRp3361
(dp3362
g54
(dp3363
sg63
g3357
sg56
(lp3364
g49
(g70
g51
NtRp3365
(dp3366
g54
(dp3367
g74
g75
ssg63
g3361
sg56
(lp3368
g275
asbag49
(g70
g51
NtRp3369
(dp3370
g54
(dp3371
g81
g82
ssg63
g3361
sg56
(lp3372
S':'
asbag49
(g70
g51
NtRp3373
(dp3374
g54
(dp3375
sg63
g3361
sg56
(lp3376
g49
(g50
g51
NtRp3377
(dp3378
g54
(dp3379
g62
I3
ssg63
g3373
sg56
(lp3380
S''
asbasbasbag49
(g65
g51
NtRp3381
(dp3382
g54
(dp3383
sg63
g3357
sg56
(lp3384
g49
(g70
g51
NtRp3385
(dp3386
g54
(dp3387
g74
g75
ssg63
g3381
sg56
(lp3388
g296
asbag49
(g70
g51
NtRp3389
(dp3390
g54
(dp3391
g81
g82
ssg63
g3381
sg56
(lp3392
S':'
asbag49
(g70
g51
NtRp3393
(dp3394
g54
(dp3395
sg63
g3381
sg56
(lp3396
g49
(g50
g51
NtRp3397
(dp3398
g54
(dp3399
g62
I3
ssg63
g3393
sg56
(lp3400
S''
asbasbasbag49
(g65
g51
NtRp3401
(dp3402
g54
(dp3403
sg63
g3357
sg56
(lp3404
g49
(g70
g51
NtRp3405
(dp3406
g54
(dp3407
g74
g75
ssg63
g3401
sg56
(lp3408
g317
asbag49
(g70
g51
NtRp3409
(dp3410
g54
(dp3411
g81
g82
ssg63
g3401
sg56
(lp3412
S':'
asbag49
(g70
g51
NtRp3413
(dp3414
g54
(dp3415
sg63
g3401
sg56
(lp3416
g49
(g50
g51
NtRp3417
(dp3418
g54
(dp3419
g62
I3
ssg63
g3413
sg56
(lp3420
S''
asbasbasbag49
(g65
g51
NtRp3421
(dp3422
g54
(dp3423
sg63
g3357
sg56
(lp3424
g49
(g70
g51
NtRp3425
(dp3426
g54
(dp3427
g74
g75
ssg63
g3421
sg56
(lp3428
g338
asbag49
(g70
g51
NtRp3429
(dp3430
g54
(dp3431
g81
g82
ssg63
g3421
sg56
(lp3432
S':'
asbag49
(g70
g51
NtRp3433
(dp3434
g54
(dp3435
sg63
g3421
sg56
(lp3436
g49
(g50
g51
NtRp3437
(dp3438
g54
(dp3439
g62
I3
ssg63
g3433
sg56
(lp3440
S''
asbasbasbag49
(g65
g51
NtRp3441
(dp3442
g54
(dp3443
sg63
g3357
sg56
(lp3444
g49
(g70
g51
NtRp3445
(dp3446
g54
(dp3447
g74
g75
ssg63
g3441
sg56
(lp3448
g359
asbag49
(g70
g51
NtRp3449
(dp3450
g54
(dp3451
g81
g82
ssg63
g3441
sg56
(lp3452
S':'
asbag49
(g70
g51
NtRp3453
(dp3454
g54
(dp3455
sg63
g3441
sg56
(lp3456
g49
(g50
g51
NtRp3457
(dp3458
g54
(dp3459
g62
I3
ssg63
g3453
sg56
(lp3460
S'/'
asbasbasbag49
(g65
g51
NtRp3461
(dp3462
g54
(dp3463
sg63
g3357
sg56
(lp3464
g49
(g70
g51
NtRp3465
(dp3466
g54
(dp3467
g74
g75
ssg63
g3461
sg56
(lp3468
g380
asbag49
(g70
g51
NtRp3469
(dp3470
g54
(dp3471
g81
g82
ssg63
g3461
sg56
(lp3472
S':'
asbag49
(g70
g51
NtRp3473
(dp3474
g54
(dp3475
sg63
g3461
sg56
(lp3476
g49
(g50
g51
NtRp3477
(dp3478
g54
(dp3479
g62
I3
ssg63
g3473
sg56
(lp3480
S''
asbasbasbag49
(g65
g51
NtRp3481
(dp3482
g54
(dp3483
sg63
g3357
sg56
(lp3484
g49
(g70
g51
NtRp3485
(dp3486
g54
(dp3487
g74
g75
ssg63
g3481
sg56
(lp3488
g401
asbag49
(g70
g51
NtRp3489
(dp3490
g54
(dp3491
g81
g82
ssg63
g3481
sg56
(lp3492
S':'
asbag49
(g70
g51
NtRp3493
(dp3494
g54
(dp3495
sg63
g3481
sg56
(lp3496
g49
(g50
g51
NtRp3497
(dp3498
g54
(dp3499
g62
I3
ssg63
g3493
sg56
(lp3500
S''
asbasbasbasbasbasbasbasbasbasbasbag49
(g65
g51
NtRp3501
(dp3502
g54
(dp3503
sg63
g3287
sg56
(lp3504
g49
(g70
g51
NtRp3505
(dp3506
g54
(dp3507
g74
g75
ssg63
g3501
sg56
(lp3508
S'delimiters'
p3509
asbag49
(g70
g51
NtRp3510
(dp3511
g54
(dp3512
g81
g82
ssg63
g3501
sg56
(lp3513
S':'
asbag49
(g70
g51
NtRp3514
(dp3515
g54
(dp3516
sg63
g3501
sg56
(lp3517
g49
(g50
g51
NtRp3518
(dp3519
g54
(dp3520
g62
I5
ssg63
g3514
sg56
(lp3521
g49
(g58
g51
NtRp3522
(dp3523
g54
(dp3524
g62
I4
ssg63
Nsg56
(lp3525
g49
(g65
g51
NtRp3526
(dp3527
g54
(dp3528
sg63
g3522
sg56
(lp3529
g49
(g70
g51
NtRp3530
(dp3531
g54
(dp3532
sg63
g3526
sg56
(lp3533
g49
(g50
g51
NtRp3534
(dp3535
g54
(dp3536
g62
I4
ssg63
g3530
sg56
(lp3537
S'{{'
p3538
asbasbasbag49
(g65
g51
NtRp3539
(dp3540
g54
(dp3541
sg63
g3522
sg56
(lp3542
g49
(g70
g51
NtRp3543
(dp3544
g54
(dp3545
sg63
g3539
sg56
(lp3546
g49
(g50
g51
NtRp3547
(dp3548
g54
(dp3549
g62
I4
ssg63
g3543
sg56
(lp3550
S'}}'
p3551
asbasbasbasbasbasbasbag49
(g65
g51
NtRp3552
(dp3553
g54
(dp3554
sg63
g3287
sg56
(lp3555
g49
(g70
g51
NtRp3556
(dp3557
g54
(dp3558
g74
g75
ssg63
g3552
sg56
(lp3559
S'files'
p3560
asbag49
(g70
g51
NtRp3561
(dp3562
g54
(dp3563
g81
g82
ssg63
g3552
sg56
(lp3564
S':'
asbag49
(g70
g51
NtRp3565
(dp3566
g54
(dp3567
sg63
g3552
sg56
(lp3568
g49
(g50
g51
NtRp3569
(dp3570
g54
(dp3571
g62
I5
ssg63
g3565
sg56
(lp3572
g49
(g58
g51
NtRp3573
(dp3574
g54
(dp3575
g62
I4
ssg63
Nsg56
(lp3576
sbasbasbasbag49
(g65
g51
NtRp3577
(dp3578
g54
(dp3579
sg63
g3287
sg56
(lp3580
g49
(g70
g51
NtRp3581
(dp3582
g54
(dp3583
g74
g75
ssg63
g3577
sg56
(lp3584
S'flash'
p3585
asbag49
(g70
g51
NtRp3586
(dp3587
g54
(dp3588
g81
g82
ssg63
g3577
sg56
(lp3589
S':'
asbag49
(g70
g51
NtRp3590
(dp3591
g54
(dp3592
sg63
g3577
sg56
(lp3593
g49
(g50
g51
NtRp3594
(dp3595
g54
(dp3596
g62
I5
ssg63
g3590
sg56
(lp3597
S''
asbasbasbag49
(g65
g51
NtRp3598
(dp3599
g54
(dp3600
sg63
g3287
sg56
(lp3601
g49
(g70
g51
NtRp3602
(dp3603
g54
(dp3604
g74
g75
ssg63
g3598
sg56
(lp3605
S'generic_patterns'
p3606
asbag49
(g70
g51
NtRp3607
(dp3608
g54
(dp3609
g81
g82
ssg63
g3598
sg56
(lp3610
S':'
asbag49
(g70
g51
NtRp3611
(dp3612
g54
(dp3613
sg63
g3598
sg56
(lp3614
g49
(g50
g51
NtRp3615
(dp3616
g54
(dp3617
g62
I5
ssg63
g3611
sg56
(lp3618
g49
(g58
g51
NtRp3619
(dp3620
g54
(dp3621
g62
I4
ssg63
Nsg56
(lp3622
sbasbasbasbag49
(g65
g51
NtRp3623
(dp3624
g54
(dp3625
sg63
g3287
sg56
(lp3626
g49
(g70
g51
NtRp3627
(dp3628
g54
(dp3629
g74
g75
ssg63
g3623
sg56
(lp3630
S'headers'
p3631
asbag49
(g70
g51
NtRp3632
(dp3633
g54
(dp3634
g81
g82
ssg63
g3623
sg56
(lp3635
S':'
asbag49
(g70
g51
NtRp3636
(dp3637
g54
(dp3638
sg63
g3623
sg56
(lp3639
g49
(g50
g51
NtRp3640
(dp3641
g54
(dp3642
g62
I5
ssg63
g3636
sg56
(lp3643
g49
(g58
g51
NtRp3644
(dp3645
g54
(dp3646
g62
I4
ssg63
Nsg56
(lp3647
g49
(g65
g51
NtRp3648
(dp3649
g54
(dp3650
sg63
g3644
sg56
(lp3651
g49
(g70
g51
NtRp3652
(dp3653
g54
(dp3654
g74
g75
ssg63
g3648
sg56
(lp3655
S'Cache-Control'
p3656
asbag49
(g70
g51
NtRp3657
(dp3658
g54
(dp3659
g81
g82
ssg63
g3648
sg56
(lp3660
S':'
asbag49
(g70
g51
NtRp3661
(dp3662
g54
(dp3663
sg63
g3648
sg56
(lp3664
g49
(g50
g51
NtRp3665
(dp3666
g54
(dp3667
g62
I4
ssg63
g3661
sg56
(lp3668
S'no-store, no-cache, must-revalidate, post-check=0, pre-check=0'
p3669
asbasbasbag49
(g65
g51
NtRp3670
(dp3671
g54
(dp3672
sg63
g3644
sg56
(lp3673
g49
(g70
g51
NtRp3674
(dp3675
g54
(dp3676
g74
g75
ssg63
g3670
sg56
(lp3677
S'Content-Type'
p3678
asbag49
(g70
g51
NtRp3679
(dp3680
g54
(dp3681
g81
g82
ssg63
g3670
sg56
(lp3682
S':'
asbag49
(g70
g51
NtRp3683
(dp3684
g54
(dp3685
sg63
g3670
sg56
(lp3686
g49
(g50
g51
NtRp3687
(dp3688
g54
(dp3689
g62
I4
ssg63
g3683
sg56
(lp3690
S'text/html; charset=utf-8'
p3691
asbasbasbag49
(g65
g51
NtRp3692
(dp3693
g54
(dp3694
sg63
g3644
sg56
(lp3695
g49
(g70
g51
NtRp3696
(dp3697
g54
(dp3698
g74
g75
ssg63
g3692
sg56
(lp3699
S'Expires'
p3700
asbag49
(g70
g51
NtRp3701
(dp3702
g54
(dp3703
g81
g82
ssg63
g3692
sg56
(lp3704
S':'
asbag49
(g70
g51
NtRp3705
(dp3706
g54
(dp3707
sg63
g3692
sg56
(lp3708
g49
(g50
g51
NtRp3709
(dp3710
g54
(dp3711
g62
I4
ssg63
g3705
sg56
(lp3712
S'Mon, 30 Jul 2012 03:57:36 GMT'
p3713
asbasbasbag49
(g65
g51
NtRp3714
(dp3715
g54
(dp3716
sg63
g3644
sg56
(lp3717
g49
(g70
g51
NtRp3718
(dp3719
g54
(dp3720
g74
g75
ssg63
g3714
sg56
(lp3721
S'Pragma'
p3722
asbag49
(g70
g51
NtRp3723
(dp3724
g54
(dp3725
g81
g82
ssg63
g3714
sg56
(lp3726
S':'
asbag49
(g70
g51
NtRp3727
(dp3728
g54
(dp3729
sg63
g3714
sg56
(lp3730
g49
(g50
g51
NtRp3731
(dp3732
g54
(dp3733
g62
I4
ssg63
g3727
sg56
(lp3734
S'no-cache'
p3735
asbasbasbag49
(g65
g51
NtRp3736
(dp3737
g54
(dp3738
sg63
g3644
sg56
(lp3739
g49
(g70
g51
NtRp3740
(dp3741
g54
(dp3742
g74
g75
ssg63
g3736
sg56
(lp3743
S'X-Powered-By'
p3744
asbag49
(g70
g51
NtRp3745
(dp3746
g54
(dp3747
g81
g82
ssg63
g3736
sg56
(lp3748
S':'
asbag49
(g70
g51
NtRp3749
(dp3750
g54
(dp3751
sg63
g3736
sg56
(lp3752
g49
(g50
g51
NtRp3753
(dp3754
g54
(dp3755
g62
I4
ssg63
g3749
sg56
(lp3756
S'web2py'
p3757
asbasbasbasbasbasbasbag49
(g65
g51
NtRp3758
(dp3759
g54
(dp3760
sg63
g3287
sg56
(lp3761
g49
(g70
g51
NtRp3762
(dp3763
g54
(dp3764
g74
g75
ssg63
g3758
sg56
(lp3765
S'menu'
p3766
asbag49
(g70
g51
NtRp3767
(dp3768
g54
(dp3769
g81
g82
ssg63
g3758
sg56
(lp3770
S':'
asbag49
(g70
g51
NtRp3771
(dp3772
g54
(dp3773
sg63
g3758
sg56
(lp3774
g49
(g50
g51
NtRp3775
(dp3776
g54
(dp3777
g62
I5
ssg63
g3771
sg56
(lp3778
g49
(g58
g51
NtRp3779
(dp3780
g54
(dp3781
g62
I4
ssg63
Nsg56
(lp3782
g49
(g65
g51
NtRp3783
(dp3784
g54
(dp3785
sg63
g3779
sg56
(lp3786
g49
(g70
g51
NtRp3787
(dp3788
g54
(dp3789
sg63
g3783
sg56
(lp3790
g49
(g50
g51
NtRp3791
(dp3792
g54
(dp3793
g62
I4
ssg63
g3787
sg56
(lp3794
g49
(g58
g51
NtRp3795
(dp3796
g54
(dp3797
g62
I3
ssg63
Nsg56
(lp3798
g49
(g65
g51
NtRp3799
(dp3800
g54
(dp3801
sg63
g3795
sg56
(lp3802
g49
(g70
g51
NtRp3803
(dp3804
g54
(dp3805
sg63
g3799
sg56
(lp3806
g49
(g50
g51
NtRp3807
(dp3808
g54
(dp3809
g62
I3
ssg63
g3803
sg56
(lp3810
cgluon.languages
lazyT_unpickle
p3811
(S't\x04\x00\x00\x00Home'
tRp3812
asbasbasbag49
(g65
g51
NtRp3813
(dp3814
g54
(dp3815
sg63
g3795
sg56
(lp3816
g49
(g70
g51
NtRp3817
(dp3818
g54
(dp3819
sg63
g3813
sg56
(lp3820
g49
(g50
g51
NtRp3821
(dp3822
g54
(dp3823
g62
I3
ssg63
g3817
sg56
(lp3824
g92
asbasbasbag49
(g65
g51
NtRp3825
(dp3826
g54
(dp3827
sg63
g3795
sg56
(lp3828
g49
(g70
g51
NtRp3829
(dp3830
g54
(dp3831
sg63
g3825
sg56
(lp3832
g49
(g50
g51
NtRp3833
(dp3834
g54
(dp3835
g62
I3
ssg63
g3829
sg56
(lp3836
S'/unioeste_code/default/index'
p3837
asbasbasbag49
(g65
g51
NtRp3838
(dp3839
g54
(dp3840
sg63
g3795
sg56
(lp3841
g49
(g70
g51
NtRp3842
(dp3843
g54
(dp3844
sg63
g3838
sg56
(lp3845
g49
(g50
g51
NtRp3846
(dp3847
g54
(dp3848
g62
I3
ssg63
g3842
sg56
(lp3849
g49
(g58
g51
NtRp3850
(dp3851
g54
(dp3852
g62
I2
ssg63
Nsg56
(lp3853
sbasbasbasbasbasbasbasbag49
(g65
g51
NtRp3854
(dp3855
g54
(dp3856
sg63
g3779
sg56
(lp3857
g49
(g70
g51
NtRp3858
(dp3859
g54
(dp3860
sg63
g3854
sg56
(lp3861
g49
(g50
g51
NtRp3862
(dp3863
g54
(dp3864
g62
I4
ssg63
g3858
sg56
(lp3865
g49
(g58
g51
NtRp3866
(dp3867
g54
(dp3868
g62
I3
ssg63
Nsg56
(lp3869
g49
(g65
g51
NtRp3870
(dp3871
g54
(dp3872
sg63
g3866
sg56
(lp3873
g49
(g70
g51
NtRp3874
(dp3875
g54
(dp3876
sg63
g3870
sg56
(lp3877
g49
(g50
g51
NtRp3878
(dp3879
g54
(dp3880
g62
I3
ssg63
g3874
sg56
(lp3881
g49
(cgluon.html
SPAN
p3882
g51
NtRp3883
(dp3884
g54
(dp3885
g74
S'color:yellow'
p3886
ssg63
Nsg56
(lp3887
g3757
asbasbasbasbag49
(g65
g51
NtRp3888
(dp3889
g54
(dp3890
sg63
g3866
sg56
(lp3891
g49
(g70
g51
NtRp3892
(dp3893
g54
(dp3894
sg63
g3888
sg56
(lp3895
g49
(g50
g51
NtRp3896
(dp3897
g54
(dp3898
g62
I3
ssg63
g3892
sg56
(lp3899
g92
asbasbasbag49
(g65
g51
NtRp3900
(dp3901
g54
(dp3902
sg63
g3866
sg56
(lp3903
g49
(g70
g51
NtRp3904
(dp3905
g54
(dp3906
sg63
g3900
sg56
(lp3907
g49
(g50
g51
NtRp3908
(dp3909
g54
(dp3910
g62
I3
ssg63
g3904
sg56
(lp3911
S'None'
p3912
asbasbasbag49
(g65
g51
NtRp3913
(dp3914
g54
(dp3915
sg63
g3866
sg56
(lp3916
g49
(g70
g51
NtRp3917
(dp3918
g54
(dp3919
sg63
g3913
sg56
(lp3920
g49
(g50
g51
NtRp3921
(dp3922
g54
(dp3923
g62
I3
ssg63
g3917
sg56
(lp3924
g49
(g58
g51
NtRp3925
(dp3926
g54
(dp3927
g62
I2
ssg63
Nsg56
(lp3928
g49
(g65
g51
NtRp3929
(dp3930
g54
(dp3931
sg63
g3925
sg56
(lp3932
g49
(g70
g51
NtRp3933
(dp3934
g54
(dp3935
sg63
g3929
sg56
(lp3936
g49
(g50
g51
NtRp3937
(dp3938
g54
(dp3939
g62
I2
ssg63
g3933
sg56
(lp3940
g49
(g58
g51
NtRp3941
(dp3942
g54
(dp3943
g62
I1
ssg63
Nsg56
(lp3944
g49
(g65
g51
NtRp3945
(dp3946
g54
(dp3947
sg63
g3941
sg56
(lp3948
g49
(g70
g51
NtRp3949
(dp3950
g54
(dp3951
sg63
g3945
sg56
(lp3952
g49
(g50
g51
NtRp3953
(dp3954
g54
(dp3955
g62
I1
ssg63
g3949
sg56
(lp3956
g3811
(S's\x08\x00\x00\x00My Sites'
tRp3957
asbasbasbag49
(g65
g51
NtRp3958
(dp3959
g54
(dp3960
sg63
g3941
sg56
(lp3961
g49
(g70
g51
NtRp3962
(dp3963
g54
(dp3964
sg63
g3958
sg56
(lp3965
g49
(g50
g51
NtRp3966
(dp3967
g54
(dp3968
g62
I1
ssg63
g3962
sg56
(lp3969
I00
asbasbasbag49
(g65
g51
NtRp3970
(dp3971
g54
(dp3972
sg63
g3941
sg56
(lp3973
g49
(g70
g51
NtRp3974
(dp3975
g54
(dp3976
sg63
g3970
sg56
(lp3977
g49
(g50
g51
NtRp3978
(dp3979
g54
(dp3980
g62
I1
ssg63
g3974
sg56
(lp3981
S'/admin/default/site'
p3982
asbasbasbasbasbasbasbag49
(g65
g51
NtRp3983
(dp3984
g54
(dp3985
sg63
g3925
sg56
(lp3986
g49
(g70
g51
NtRp3987
(dp3988
g54
(dp3989
sg63
g3983
sg56
(lp3990
g49
(g50
g51
NtRp3991
(dp3992
g54
(dp3993
g62
I2
ssg63
g3987
sg56
(lp3994
g49
(g58
g51
NtRp3995
(dp3996
g54
(dp3997
g62
I1
ssg63
Nsg56
(lp3998
g49
(g65
g51
NtRp3999
(dp4000
g54
(dp4001
sg63
g3995
sg56
(lp4002
g49
(g70
g51
NtRp4003
(dp4004
g54
(dp4005
sg63
g3999
sg56
(lp4006
g49
(g50
g51
NtRp4007
(dp4008
g54
(dp4009
g62
I1
ssg63
g4003
sg56
(lp4010
g3811
(S's\x08\x00\x00\x00This App'
tRp4011
asbasbasbag49
(g65
g51
NtRp4012
(dp4013
g54
(dp4014
sg63
g3995
sg56
(lp4015
g49
(g70
g51
NtRp4016
(dp4017
g54
(dp4018
sg63
g4012
sg56
(lp4019
g49
(g50
g51
NtRp4020
(dp4021
g54
(dp4022
g62
I1
ssg63
g4016
sg56
(lp4023
I00
asbasbasbag49
(g65
g51
NtRp4024
(dp4025
g54
(dp4026
sg63
g3995
sg56
(lp4027
g49
(g70
g51
NtRp4028
(dp4029
g54
(dp4030
sg63
g4024
sg56
(lp4031
g49
(g50
g51
NtRp4032
(dp4033
g54
(dp4034
g62
I1
ssg63
g4028
sg56
(lp4035
S'/admin/default/design/unioeste_code'
p4036
asbasbasbag49
(g65
g51
NtRp4037
(dp4038
g54
(dp4039
sg63
g3995
sg56
(lp4040
g49
(g70
g51
NtRp4041
(dp4042
g54
(dp4043
sg63
g4037
sg56
(lp4044
g49
(g50
g51
NtRp4045
(dp4046
g54
(dp4047
g62
I1
ssg63
g4041
sg56
(lp4048
(lp4049
(g3811
(S't\x0b\x00\x00\x00Controlador'
tRp4050
I00
S'/admin/default/edit/unioeste_code/controllers/default.py'
tp4051
a(g3811
(S's\x0e\x00\x00\x00Visualiza\xc3\xa7\xc3\xa3o'
tRp4052
I00
S'/admin/default/edit/unioeste_code/views/default/showCode.html'
tp4053
a(g3811
(S't\x06\x00\x00\x00Layout'
tRp4054
I00
S'/admin/default/edit/unioeste_code/views/layout.html'
tp4055
a(g3811
(S't\n\x00\x00\x00Stylesheet'
tRp4056
I00
S'/admin/default/edit/unioeste_code/static/css/web2py.css'
tp4057
a(g3811
(S's\t\x00\x00\x00Modelo BD'
tRp4058
I00
S'/admin/default/edit/unioeste_code/models/db.py'
tp4059
a(g3811
(S's\x0e\x00\x00\x00Modelo de Menu'
tRp4060
I00
S'/admin/default/edit/unioeste_code/models/menu.py'
tp4061
a(g3811
(S's\x0e\x00\x00\x00Banco de dados'
tRp4062
I00
S'/unioeste_code/appadmin/index'
tp4063
a(g3811
(S't\x06\x00\x00\x00Errors'
tRp4064
I00
S'/admin/default/errors/unioeste_code'
tp4065
a(g3811
(S't\x05\x00\x00\x00About'
tRp4066
I00
S'/admin/default/about/unioeste_code'
tp4067
aasbasbasbasbasbasbasbag49
(g65
g51
NtRp4068
(dp4069
g54
(dp4070
sg63
g3925
sg56
(lp4071
g49
(g70
g51
NtRp4072
(dp4073
g54
(dp4074
sg63
g4068
sg56
(lp4075
g49
(g50
g51
NtRp4076
(dp4077
g54
(dp4078
g62
I2
ssg63
g4072
sg56
(lp4079
g49
(g58
g51
NtRp4080
(dp4081
g54
(dp4082
g62
I1
ssg63
Nsg56
(lp4083
g49
(g65
g51
NtRp4084
(dp4085
g54
(dp4086
sg63
g4080
sg56
(lp4087
g49
(g70
g51
NtRp4088
(dp4089
g54
(dp4090
sg63
g4084
sg56
(lp4091
g49
(g50
g51
NtRp4092
(dp4093
g54
(dp4094
g62
I1
ssg63
g4088
sg56
(lp4095
S'web2py.com'
p4096
asbasbasbag49
(g65
g51
NtRp4097
(dp4098
g54
(dp4099
sg63
g4080
sg56
(lp4100
g49
(g70
g51
NtRp4101
(dp4102
g54
(dp4103
sg63
g4097
sg56
(lp4104
g49
(g50
g51
NtRp4105
(dp4106
g54
(dp4107
g62
I1
ssg63
g4101
sg56
(lp4108
I00
asbasbasbag49
(g65
g51
NtRp4109
(dp4110
g54
(dp4111
sg63
g4080
sg56
(lp4112
g49
(g70
g51
NtRp4113
(dp4114
g54
(dp4115
sg63
g4109
sg56
(lp4116
g49
(g50
g51
NtRp4117
(dp4118
g54
(dp4119
g62
I1
ssg63
g4113
sg56
(lp4120
S'http://www.web2py.com'
p4121
asbasbasbag49
(g65
g51
NtRp4122
(dp4123
g54
(dp4124
sg63
g4080
sg56
(lp4125
g49
(g70
g51
NtRp4126
(dp4127
g54
(dp4128
sg63
g4122
sg56
(lp4129
g49
(g50
g51
NtRp4130
(dp4131
g54
(dp4132
g62
I1
ssg63
g4126
sg56
(lp4133
(lp4134
(g3811
(S't\x08\x00\x00\x00Download'
tRp4135
I00
S'http://www.web2py.com/examples/default/download'
p4136
tp4137
a(g3811
(S't\x07\x00\x00\x00Support'
tRp4138
I00
S'http://www.web2py.com/examples/default/support'
p4139
tp4140
a(g3811
(S't\x04\x00\x00\x00Demo'
tRp4141
I00
S'http://web2py.com/demo_admin'
p4142
tp4143
a(g3811
(S's\x0e\x00\x00\x00Quick Examples'
tRp4144
I00
S'http://web2py.com/examples/default/examples'
p4145
tp4146
a(g3811
(S't\x03\x00\x00\x00FAQ'
tRp4147
I00
S'http://web2py.com/AlterEgo'
p4148
tp4149
a(g3811
(S't\x06\x00\x00\x00Videos'
tRp4150
I00
S'http://www.web2py.com/examples/default/videos/'
p4151
tp4152
a(g3811
(S's\x11\x00\x00\x00Free Applications'
tRp4153
I00
S'http://web2py.com/appliances'
p4154
tp4155
a(g3811
(S't\x07\x00\x00\x00Plugins'
tRp4156
I00
S'http://web2py.com/plugins'
p4157
tp4158
a(g3811
(S't\x07\x00\x00\x00Layouts'
tRp4159
I00
S'http://web2py.com/layouts'
p4160
tp4161
a(g3811
(S't\x07\x00\x00\x00Recipes'
tRp4162
I00
S'http://web2pyslices.com/'
p4163
tp4164
a(g3811
(S't\x08\x00\x00\x00Semantic'
tRp4165
I00
S'http://web2py.com/semantic'
p4166
tp4167
aasbasbasbasbasbasbasbag49
(g65
g51
NtRp4168
(dp4169
g54
(dp4170
sg63
g3925
sg56
(lp4171
g49
(g70
g51
NtRp4172
(dp4173
g54
(dp4174
sg63
g4168
sg56
(lp4175
g49
(g50
g51
NtRp4176
(dp4177
g54
(dp4178
g62
I2
ssg63
g4172
sg56
(lp4179
g49
(g58
g51
NtRp4180
(dp4181
g54
(dp4182
g62
I1
ssg63
Nsg56
(lp4183
g49
(g65
g51
NtRp4184
(dp4185
g54
(dp4186
sg63
g4180
sg56
(lp4187
g49
(g70
g51
NtRp4188
(dp4189
g54
(dp4190
sg63
g4184
sg56
(lp4191
g49
(g50
g51
NtRp4192
(dp4193
g54
(dp4194
g62
I1
ssg63
g4188
sg56
(lp4195
g3811
(S't\r\x00\x00\x00Documentation'
tRp4196
asbasbasbag49
(g65
g51
NtRp4197
(dp4198
g54
(dp4199
sg63
g4180
sg56
(lp4200
g49
(g70
g51
NtRp4201
(dp4202
g54
(dp4203
sg63
g4197
sg56
(lp4204
g49
(g50
g51
NtRp4205
(dp4206
g54
(dp4207
g62
I1
ssg63
g4201
sg56
(lp4208
I00
asbasbasbag49
(g65
g51
NtRp4209
(dp4210
g54
(dp4211
sg63
g4180
sg56
(lp4212
g49
(g70
g51
NtRp4213
(dp4214
g54
(dp4215
sg63
g4209
sg56
(lp4216
g49
(g50
g51
NtRp4217
(dp4218
g54
(dp4219
g62
I1
ssg63
g4213
sg56
(lp4220
S'http://www.web2py.com/book'
p4221
asbasbasbag49
(g65
g51
NtRp4222
(dp4223
g54
(dp4224
sg63
g4180
sg56
(lp4225
g49
(g70
g51
NtRp4226
(dp4227
g54
(dp4228
sg63
g4222
sg56
(lp4229
g49
(g50
g51
NtRp4230
(dp4231
g54
(dp4232
g62
I1
ssg63
g4226
sg56
(lp4233
(lp4234
(g3811
(S't\x07\x00\x00\x00Preface'
tRp4235
I00
S'http://www.web2py.com/book/default/chapter/00'
p4236
tp4237
a(g3811
(S't\x0c\x00\x00\x00Introduction'
tRp4238
I00
S'http://www.web2py.com/book/default/chapter/01'
p4239
tp4240
a(g3811
(S't\x06\x00\x00\x00Python'
tRp4241
I00
S'http://www.web2py.com/book/default/chapter/02'
p4242
tp4243
a(g3811
(S't\x08\x00\x00\x00Overview'
tRp4244
I00
S'http://www.web2py.com/book/default/chapter/03'
p4245
tp4246
a(g3811
(S's\x08\x00\x00\x00The Core'
tRp4247
I00
S'http://www.web2py.com/book/default/chapter/04'
p4248
tp4249
a(g3811
(S's\t\x00\x00\x00The Views'
tRp4250
I00
S'http://www.web2py.com/book/default/chapter/05'
p4251
tp4252
a(g3811
(S's\x0e\x00\x00\x00Banco de dados'
tRp4253
I00
S'http://www.web2py.com/book/default/chapter/06'
p4254
tp4255
a(g3811
(S's\x14\x00\x00\x00Forms and Validators'
tRp4256
I00
S'http://www.web2py.com/book/default/chapter/07'
p4257
tp4258
a(g3811
(S's\r\x00\x00\x00Email and SMS'
tRp4259
I00
S'http://www.web2py.com/book/default/chapter/08'
p4260
tp4261
a(g3811
(S's\x0e\x00\x00\x00Access Control'
tRp4262
I00
S'http://www.web2py.com/book/default/chapter/09'
p4263
tp4264
a(g3811
(S't\x08\x00\x00\x00Services'
tRp4265
I00
S'http://www.web2py.com/book/default/chapter/10'
p4266
tp4267
a(g3811
(S's\x0c\x00\x00\x00Ajax Recipes'
tRp4268
I00
S'http://www.web2py.com/book/default/chapter/11'
p4269
tp4270
a(g3811
(S's\x16\x00\x00\x00Components and Plugins'
tRp4271
I00
S'http://www.web2py.com/book/default/chapter/12'
p4272
tp4273
a(g3811
(S's\x12\x00\x00\x00Deployment Recipes'
tRp4274
I00
S'http://www.web2py.com/book/default/chapter/13'
p4275
tp4276
a(g3811
(S's\r\x00\x00\x00Other Recipes'
tRp4277
I00
S'http://www.web2py.com/book/default/chapter/14'
p4278
tp4279
a(g3811
(S's\r\x00\x00\x00Buy this book'
tRp4280
I00
S'http://stores.lulu.com/web2py'
p4281
tp4282
aasbasbasbasbasbasbasbag49
(g65
g51
NtRp4283
(dp4284
g54
(dp4285
sg63
g3925
sg56
(lp4286
g49
(g70
g51
NtRp4287
(dp4288
g54
(dp4289
sg63
g4283
sg56
(lp4290
g49
(g50
g51
NtRp4291
(dp4292
g54
(dp4293
g62
I2
ssg63
g4287
sg56
(lp4294
g49
(g58
g51
NtRp4295
(dp4296
g54
(dp4297
g62
I1
ssg63
Nsg56
(lp4298
g49
(g65
g51
NtRp4299
(dp4300
g54
(dp4301
sg63
g4295
sg56
(lp4302
g49
(g70
g51
NtRp4303
(dp4304
g54
(dp4305
sg63
g4299
sg56
(lp4306
g49
(g50
g51
NtRp4307
(dp4308
g54
(dp4309
g62
I1
ssg63
g4303
sg56
(lp4310
g3811
(S't\t\x00\x00\x00Community'
tRp4311
asbasbasbag49
(g65
g51
NtRp4312
(dp4313
g54
(dp4314
sg63
g4295
sg56
(lp4315
g49
(g70
g51
NtRp4316
(dp4317
g54
(dp4318
sg63
g4312
sg56
(lp4319
g49
(g50
g51
NtRp4320
(dp4321
g54
(dp4322
g62
I1
ssg63
g4316
sg56
(lp4323
I00
asbasbasbag49
(g65
g51
NtRp4324
(dp4325
g54
(dp4326
sg63
g4295
sg56
(lp4327
g49
(g70
g51
NtRp4328
(dp4329
g54
(dp4330
sg63
g4324
sg56
(lp4331
g49
(g50
g51
NtRp4332
(dp4333
g54
(dp4334
g62
I1
ssg63
g4328
sg56
(lp4335
Nasbasbasbag49
(g65
g51
NtRp4336
(dp4337
g54
(dp4338
sg63
g4295
sg56
(lp4339
g49
(g70
g51
NtRp4340
(dp4341
g54
(dp4342
sg63
g4336
sg56
(lp4343
g49
(g50
g51
NtRp4344
(dp4345
g54
(dp4346
g62
I1
ssg63
g4340
sg56
(lp4347
(lp4348
(g3811
(S't\x06\x00\x00\x00Groups'
tRp4349
I00
S'http://www.web2py.com/examples/default/usergroups'
p4350
tp4351
a(g3811
(S't\x07\x00\x00\x00Twitter'
tRp4352
I00
S'http://twitter.com/web2py'
p4353
tp4354
a(g3811
(S's\t\x00\x00\x00Live Chat'
tRp4355
I00
S'http://webchat.freenode.net/?channels=web2py'
p4356
tp4357
aasbasbasbasbasbasbasbag49
(g65
g51
NtRp4358
(dp4359
g54
(dp4360
sg63
g3925
sg56
(lp4361
g49
(g70
g51
NtRp4362
(dp4363
g54
(dp4364
sg63
g4358
sg56
(lp4365
g49
(g50
g51
NtRp4366
(dp4367
g54
(dp4368
g62
I2
ssg63
g4362
sg56
(lp4369
g49
(g58
g51
NtRp4370
(dp4371
g54
(dp4372
g62
I1
ssg63
Nsg56
(lp4373
g49
(g65
g51
NtRp4374
(dp4375
g54
(dp4376
sg63
g4370
sg56
(lp4377
g49
(g70
g51
NtRp4378
(dp4379
g54
(dp4380
sg63
g4374
sg56
(lp4381
g49
(g50
g51
NtRp4382
(dp4383
g54
(dp4384
g62
I1
ssg63
g4378
sg56
(lp4385
g3811
(S't\x07\x00\x00\x00Plugins'
tRp4386
asbasbasbag49
(g65
g51
NtRp4387
(dp4388
g54
(dp4389
sg63
g4370
sg56
(lp4390
g49
(g70
g51
NtRp4391
(dp4392
g54
(dp4393
sg63
g4387
sg56
(lp4394
g49
(g50
g51
NtRp4395
(dp4396
g54
(dp4397
g62
I1
ssg63
g4391
sg56
(lp4398
I00
asbasbasbag49
(g65
g51
NtRp4399
(dp4400
g54
(dp4401
sg63
g4370
sg56
(lp4402
g49
(g70
g51
NtRp4403
(dp4404
g54
(dp4405
sg63
g4399
sg56
(lp4406
g49
(g50
g51
NtRp4407
(dp4408
g54
(dp4409
g62
I1
ssg63
g4403
sg56
(lp4410
Nasbasbasbag49
(g65
g51
NtRp4411
(dp4412
g54
(dp4413
sg63
g4370
sg56
(lp4414
g49
(g70
g51
NtRp4415
(dp4416
g54
(dp4417
sg63
g4411
sg56
(lp4418
g49
(g50
g51
NtRp4419
(dp4420
g54
(dp4421
g62
I1
ssg63
g4415
sg56
(lp4422
(lp4423
(S'plugin_wiki'
p4424
I00
S'http://web2py.com/examples/default/download'
p4425
tp4426
a(g3811
(S's\r\x00\x00\x00Other Plugins'
tRp4427
I00
g4157
tp4428
a(g3811
(S's\x0e\x00\x00\x00Layout Plugins'
tRp4429
I00
g4160
tp4430
aasbasbasbasbasbasbasbasbasbasbasbasbasbasbasbasbasbasbasbag49
(g65
g51
NtRp4431
(dp4432
g54
(dp4433
sg63
g3287
sg56
(lp4434
g49
(g70
g51
NtRp4435
(dp4436
g54
(dp4437
g74
g75
ssg63
g4431
sg56
(lp4438
S'meta'
p4439
asbag49
(g70
g51
NtRp4440
(dp4441
g54
(dp4442
g81
g82
ssg63
g4431
sg56
(lp4443
S':'
asbag49
(g70
g51
NtRp4444
(dp4445
g54
(dp4446
sg63
g4431
sg56
(lp4447
g49
(g50
g51
NtRp4448
(dp4449
g54
(dp4450
g62
I5
ssg63
g4444
sg56
(lp4451
g49
(g58
g51
NtRp4452
(dp4453
g54
(dp4454
g62
I4
ssg63
Nsg56
(lp4455
g49
(g65
g51
NtRp4456
(dp4457
g54
(dp4458
sg63
g4452
sg56
(lp4459
g49
(g70
g51
NtRp4460
(dp4461
g54
(dp4462
g74
g75
ssg63
g4456
sg56
(lp4463
S'author'
p4464
asbag49
(g70
g51
NtRp4465
(dp4466
g54
(dp4467
g81
g82
ssg63
g4456
sg56
(lp4468
S':'
asbag49
(g70
g51
NtRp4469
(dp4470
g54
(dp4471
sg63
g4456
sg56
(lp4472
g49
(g50
g51
NtRp4473
(dp4474
g54
(dp4475
g62
I4
ssg63
g4469
sg56
(lp4476
S'Your Name <you@example.com>'
p4477
asbasbasbag49
(g65
g51
NtRp4478
(dp4479
g54
(dp4480
sg63
g4452
sg56
(lp4481
g49
(g70
g51
NtRp4482
(dp4483
g54
(dp4484
g74
g75
ssg63
g4478
sg56
(lp4485
S'copyright'
p4486
asbag49
(g70
g51
NtRp4487
(dp4488
g54
(dp4489
g81
g82
ssg63
g4478
sg56
(lp4490
S':'
asbag49
(g70
g51
NtRp4491
(dp4492
g54
(dp4493
sg63
g4478
sg56
(lp4494
g49
(g50
g51
NtRp4495
(dp4496
g54
(dp4497
g62
I4
ssg63
g4491
sg56
(lp4498
S'Copyright 2011'
p4499
asbasbasbag49
(g65
g51
NtRp4500
(dp4501
g54
(dp4502
sg63
g4452
sg56
(lp4503
g49
(g70
g51
NtRp4504
(dp4505
g54
(dp4506
g74
g75
ssg63
g4500
sg56
(lp4507
S'description'
p4508
asbag49
(g70
g51
NtRp4509
(dp4510
g54
(dp4511
g81
g82
ssg63
g4500
sg56
(lp4512
S':'
asbag49
(g70
g51
NtRp4513
(dp4514
g54
(dp4515
sg63
g4500
sg56
(lp4516
g49
(g50
g51
NtRp4517
(dp4518
g54
(dp4519
g62
I4
ssg63
g4513
sg56
(lp4520
S'a cool new app'
p4521
asbasbasbag49
(g65
g51
NtRp4522
(dp4523
g54
(dp4524
sg63
g4452
sg56
(lp4525
g49
(g70
g51
NtRp4526
(dp4527
g54
(dp4528
g74
g75
ssg63
g4522
sg56
(lp4529
S'generator'
p4530
asbag49
(g70
g51
NtRp4531
(dp4532
g54
(dp4533
g81
g82
ssg63
g4522
sg56
(lp4534
S':'
asbag49
(g70
g51
NtRp4535
(dp4536
g54
(dp4537
sg63
g4522
sg56
(lp4538
g49
(g50
g51
NtRp4539
(dp4540
g54
(dp4541
g62
I4
ssg63
g4535
sg56
(lp4542
S'Web2py Web Framework'
p4543
asbasbasbag49
(g65
g51
NtRp4544
(dp4545
g54
(dp4546
sg63
g4452
sg56
(lp4547
g49
(g70
g51
NtRp4548
(dp4549
g54
(dp4550
g74
g75
ssg63
g4544
sg56
(lp4551
S'keywords'
p4552
asbag49
(g70
g51
NtRp4553
(dp4554
g54
(dp4555
g81
g82
ssg63
g4544
sg56
(lp4556
S':'
asbag49
(g70
g51
NtRp4557
(dp4558
g54
(dp4559
sg63
g4544
sg56
(lp4560
g49
(g50
g51
NtRp4561
(dp4562
g54
(dp4563
g62
I4
ssg63
g4557
sg56
(lp4564
S'web2py, python, framework'
p4565
asbasbasbasbasbasbasbag49
(g65
g51
NtRp4566
(dp4567
g54
(dp4568
sg63
g3287
sg56
(lp4569
g49
(g70
g51
NtRp4570
(dp4571
g54
(dp4572
g74
g75
ssg63
g4566
sg56
(lp4573
S'postprocessing'
p4574
asbag49
(g70
g51
NtRp4575
(dp4576
g54
(dp4577
g81
g82
ssg63
g4566
sg56
(lp4578
S':'
asbag49
(g70
g51
NtRp4579
(dp4580
g54
(dp4581
sg63
g4566
sg56
(lp4582
g49
(g50
g51
NtRp4583
(dp4584
g54
(dp4585
g62
I5
ssg63
g4579
sg56
(lp4586
g49
(g58
g51
NtRp4587
(dp4588
g54
(dp4589
g62
I4
ssg63
Nsg56
(lp4590
sbasbasbasbag49
(g65
g51
NtRp4591
(dp4592
g54
(dp4593
sg63
g3287
sg56
(lp4594
g49
(g70
g51
NtRp4595
(dp4596
g54
(dp4597
g74
g75
ssg63
g4591
sg56
(lp4598
S'session_file'
p4599
asbag49
(g70
g51
NtRp4600
(dp4601
g54
(dp4602
g81
g82
ssg63
g4591
sg56
(lp4603
S':'
asbag49
(g70
g51
NtRp4604
(dp4605
g54
(dp4606
sg63
g4591
sg56
(lp4607
g49
(g50
g51
NtRp4608
(dp4609
g54
(dp4610
g62
I5
ssg63
g4604
sg56
(lp4611
S"<open file 'C:\\web2py\\applications\\unioeste_code\\sessions\\127.0.0.1-ac0e57bf-2a61-4ff7-b75a-c2e830b4787a', mode 'rb+' at 0x068583C8>"
p4612
asbasbasbag49
(g65
g51
NtRp4613
(dp4614
g54
(dp4615
sg63
g3287
sg56
(lp4616
g49
(g70
g51
NtRp4617
(dp4618
g54
(dp4619
g74
g75
ssg63
g4613
sg56
(lp4620
S'session_filename'
p4621
asbag49
(g70
g51
NtRp4622
(dp4623
g54
(dp4624
g81
g82
ssg63
g4613
sg56
(lp4625
S':'
asbag49
(g70
g51
NtRp4626
(dp4627
g54
(dp4628
sg63
g4613
sg56
(lp4629
g49
(g50
g51
NtRp4630
(dp4631
g54
(dp4632
g62
I5
ssg63
g4626
sg56
(lp4633
S'C:\\web2py\\applications\\unioeste_code\\sessions\\127.0.0.1-ac0e57bf-2a61-4ff7-b75a-c2e830b4787a'
p4634
asbasbasbag49
(g65
g51
NtRp4635
(dp4636
g54
(dp4637
sg63
g3287
sg56
(lp4638
g49
(g70
g51
NtRp4639
(dp4640
g54
(dp4641
g74
g75
ssg63
g4635
sg56
(lp4642
S'session_id'
p4643
asbag49
(g70
g51
NtRp4644
(dp4645
g54
(dp4646
g81
g82
ssg63
g4635
sg56
(lp4647
S':'
asbag49
(g70
g51
NtRp4648
(dp4649
g54
(dp4650
sg63
g4635
sg56
(lp4651
g49
(g50
g51
NtRp4652
(dp4653
g54
(dp4654
g62
I5
ssg63
g4648
sg56
(lp4655
S'127.0.0.1-ac0e57bf-2a61-4ff7-b75a-c2e830b4787a'
p4656
asbasbasbag49
(g65
g51
NtRp4657
(dp4658
g54
(dp4659
sg63
g3287
sg56
(lp4660
g49
(g70
g51
NtRp4661
(dp4662
g54
(dp4663
g74
g75
ssg63
g4657
sg56
(lp4664
S'session_id_name'
p4665
asbag49
(g70
g51
NtRp4666
(dp4667
g54
(dp4668
g81
g82
ssg63
g4657
sg56
(lp4669
S':'
asbag49
(g70
g51
NtRp4670
(dp4671
g54
(dp4672
sg63
g4657
sg56
(lp4673
g49
(g50
g51
NtRp4674
(dp4675
g54
(dp4676
g62
I5
ssg63
g4670
sg56
(lp4677
g3344
asbasbasbag49
(g65
g51
NtRp4678
(dp4679
g54
(dp4680
sg63
g3287
sg56
(lp4681
g49
(g70
g51
NtRp4682
(dp4683
g54
(dp4684
g74
g75
ssg63
g4678
sg56
(lp4685
S'session_locked'
p4686
asbag49
(g70
g51
NtRp4687
(dp4688
g54
(dp4689
g81
g82
ssg63
g4678
sg56
(lp4690
S':'
asbag49
(g70
g51
NtRp4691
(dp4692
g54
(dp4693
sg63
g4678
sg56
(lp4694
g49
(g50
g51
NtRp4695
(dp4696
g54
(dp4697
g62
I5
ssg63
g4691
sg56
(lp4698
g1477
asbasbasbag49
(g65
g51
NtRp4699
(dp4700
g54
(dp4701
sg63
g3287
sg56
(lp4702
g49
(g70
g51
NtRp4703
(dp4704
g54
(dp4705
g74
g75
ssg63
g4699
sg56
(lp4706
S'session_new'
p4707
asbag49
(g70
g51
NtRp4708
(dp4709
g54
(dp4710
g81
g82
ssg63
g4699
sg56
(lp4711
S':'
asbag49
(g70
g51
NtRp4712
(dp4713
g54
(dp4714
sg63
g4699
sg56
(lp4715
g49
(g50
g51
NtRp4716
(dp4717
g54
(dp4718
g62
I5
ssg63
g4712
sg56
(lp4719
g92
asbasbasbag49
(g65
g51
NtRp4720
(dp4721
g54
(dp4722
sg63
g3287
sg56
(lp4723
g49
(g70
g51
NtRp4724
(dp4725
g54
(dp4726
g74
g75
ssg63
g4720
sg56
(lp4727
S'status'
p4728
asbag49
(g70
g51
NtRp4729
(dp4730
g54
(dp4731
g81
g82
ssg63
g4720
sg56
(lp4732
S':'
asbag49
(g70
g51
NtRp4733
(dp4734
g54
(dp4735
sg63
g4720
sg56
(lp4736
g49
(g50
g51
NtRp4737
(dp4738
g54
(dp4739
g62
I5
ssg63
g4733
sg56
(lp4740
S'200'
p4741
asbasbasbag49
(g65
g51
NtRp4742
(dp4743
g54
(dp4744
sg63
g3287
sg56
(lp4745
g49
(g70
g51
NtRp4746
(dp4747
g54
(dp4748
g74
g75
ssg63
g4742
sg56
(lp4749
S'subtitle'
p4750
asbag49
(g70
g51
NtRp4751
(dp4752
g54
(dp4753
g81
g82
ssg63
g4742
sg56
(lp4754
S':'
asbag49
(g70
g51
NtRp4755
(dp4756
g54
(dp4757
sg63
g4742
sg56
(lp4758
g49
(g50
g51
NtRp4759
(dp4760
g54
(dp4761
g62
I5
ssg63
g4755
sg56
(lp4762
g3811
(S's\x0f\x00\x00\x00Personalize-me!'
tRp4763
asbasbasbag49
(g65
g51
NtRp4764
(dp4765
g54
(dp4766
sg63
g3287
sg56
(lp4767
g49
(g70
g51
NtRp4768
(dp4769
g54
(dp4770
g74
g75
ssg63
g4764
sg56
(lp4771
S'title'
p4772
asbag49
(g70
g51
NtRp4773
(dp4774
g54
(dp4775
g81
g82
ssg63
g4764
sg56
(lp4776
S':'
asbag49
(g70
g51
NtRp4777
(dp4778
g54
(dp4779
sg63
g4764
sg56
(lp4780
g49
(g50
g51
NtRp4781
(dp4782
g54
(dp4783
g62
I5
ssg63
g4777
sg56
(lp4784
S'Unioeste Code'
p4785
asbasbasbag49
(g65
g51
NtRp4786
(dp4787
g54
(dp4788
sg63
g3287
sg56
(lp4789
g49
(g70
g51
NtRp4790
(dp4791
g54
(dp4792
g74
g75
ssg63
g4786
sg56
(lp4793
g2162
asbag49
(g70
g51
NtRp4794
(dp4795
g54
(dp4796
g81
g82
ssg63
g4786
sg56
(lp4797
S':'
asbag49
(g70
g51
NtRp4798
(dp4799
g54
(dp4800
sg63
g4786
sg56
(lp4801
g49
(g50
g51
NtRp4802
(dp4803
g54
(dp4804
g62
I5
ssg63
g4798
sg56
(lp4805
g2175
asbasbasbag49
(g65
g51
NtRp4806
(dp4807
g54
(dp4808
sg63
g3287
sg56
(lp4809
g49
(g70
g51
NtRp4810
(dp4811
g54
(dp4812
g74
g75
ssg63
g4806
sg56
(lp4813
S'view'
p4814
asbag49
(g70
g51
NtRp4815
(dp4816
g54
(dp4817
g81
g82
ssg63
g4806
sg56
(lp4818
S':'
asbag49
(g70
g51
NtRp4819
(dp4820
g54
(dp4821
sg63
g4806
sg56
(lp4822
g49
(g50
g51
NtRp4823
(dp4824
g54
(dp4825
g62
I5
ssg63
g4819
sg56
(lp4826
S'default/showCode.html'
p4827
asbasbasbasbasbsS'locals'
p4828
(dp4829
ssS'traceback'
p4830
S'Traceback (most recent call last):\n  File "gluon/restricted.py", line 205, in restricted\n  File "C:\\web2py\\applications\\unioeste_code\\controllers/default.py", line 91, in <module>\n  File "gluon/globals.py", line 173, in <lambda>\n  File "C:\\web2py\\applications\\unioeste_code\\controllers/default.py", line 27, in showCode\nNameError: global name \'message\' is not defined\n'
p4831
s.