(dp1
S'output'
p2
S"<type 'exceptions.SyntaxError'> invalid syntax (default/index.html, line 32)"
p3
sS'layer'
p4
S'C:\\web2py\\applications\\unioeste_code\\views\\default/index.html'
p5
sS'code'
p6
S'response.write(\'<!DOCTYPE html>\\r\\n<html lang="en">\\r\\n  <head>\\r\\n    <meta charset="utf-8">\\r\\n    <title>\', escape=False)\nresponse.write(response.title or request.application)\nresponse.write(\'</title>\\r\\n    <meta name="viewport" content="width=device-width, initial-scale=1.0">\\r\\n    <meta name="description" content="">\\r\\n    <meta name="author" content="">\\r\\n\\r\\n    <!-- Le HTML5 shim, for IE6-8 support of HTML5 elements -->\\r\\n    <!--[if lt IE 9]>\\r\\n      <script src="http://html5shim.googlecode.com/svn/trunk/html5.js"></script>\\r\\n    <![endif]-->\\r\\n\\r\\n    <!-- Le fav and touch icons -->\\r\\n    <link rel="shortcut icon" href="../assets/ico/favicon.ico">\\r\\n    <link rel="apple-touch-icon-precomposed" sizes="144x144" href="../assets/ico/apple-touch-icon-144-precomposed.png">\\r\\n    <link rel="apple-touch-icon-precomposed" sizes="114x114" href="../assets/ico/apple-touch-icon-114-precomposed.png">\\r\\n    <link rel="apple-touch-icon-precomposed" sizes="72x72" href="../assets/ico/apple-touch-icon-72-precomposed.png">\\r\\n    <link rel="apple-touch-icon-precomposed" href="../assets/ico/apple-touch-icon-57-precomposed.png">\\r\\n\\r\\n    <!-- include stylesheets -->\\r\\n\\r\\n    <link href="/unioeste_code/static/css/bootstrap.css" rel="stylesheet">\\r\\n    <link href="/unioeste_code/static/css/bootstrap-responsive.css" rel="stylesheet">\\r\\n    <script src="/unioeste_code/static/js/jquery.js" type="text/javascript"></script>\\r\\n    <script src="/unioeste_code/static/js/bootstrap.js" type="text/javascript"></script>\\r\\n\\r\\n    <!-- Distancia do topo pro layout-->\\r\\n      <style>\\r\\n      body {\\r\\n        padding-top: 60px; /* 60px to make the container go all the way to the bottom of the topbar */\\r\\n      }\\r\\n      </style>\\r\\n\\r\\n      <!-- Le CSS customizado, font e tals-->\\r\\n      <link href="/unioeste_code/static/css/font_style.css" rel="stylesheet">\\r\\n\\r\\n  </head>\\r\\n\\r\\n  <body>\\r\\n\\r\\n    <div class="navbar navbar-fixed-top">\\r\\n      <div class="navbar-inner">\\r\\n        <div class="container">\\r\\n          <a class="btn btn-navbar" data-toggle="collapse" data-target=".nav-collapse">\\r\\n            <span class="icon-bar"></span>\\r\\n            <span class="icon-bar"></span>\\r\\n            <span class="icon-bar"></span>\\r\\n          </a>\\r\\n          <a class="brand" href="\', escape=False)\nresponse.write(URL(\'index\'))\nresponse.write(\'">\', escape=False)\nresponse.write(response.title or request.application)\nresponse.write(\'</a>\\r\\n          <div class="nav-collapse">\\r\\n          <ul class="nav pull-right">\\r\\n            <li class="divider-vertical"></li>\\r\\n            <li>\', escape=False)\nresponse.write(\'auth\' in globals() and auth.navbar(prefix=\'\',separators=(" [ "," | "," ] ")))\nresponse.write(\'</li>\\r\\n            <li class="divider-vertical"></li>\\r\\n           </ul>         \\r\\n\\r\\n          </div><!--/.nav-collapse -->\\r\\n        </div>\\r\\n      </div>\\r\\n    </div>\\r\\n\\r\\n<!-- Corpo principal da p\\xc3\\xa1gina! -->\\r\\n  \\r\\n    <div class="container">\\r\\n      \\r\\n      \', escape=False)\nresponse.write(\'\\r\\n      \', escape=False)\nresponse.write(\'\\n\\n\\n\', escape=False)\nresponse.write(H1(T("Current Problems")))\nresponse.write(\'\\n\\n<br/>\\n\\n\', escape=False)\nfor problem in problems:\n    response.write(\'\\n\', escape=False)\n    user = db(db.auth_user.id==problem.created_by).select().first()\n    response.write(\'\\n\\n<ul>\\n\', escape=False)\n    response.write(A(problem.title, _style="font-weight:bold;",_href=URL("Problem", args=problem.id)))\n    response.write(\'\\n\', escape=False)\n    response.write(B(" [" + user.first_name + " " + user.last_name + "] "))\n    response.write(\'\\n\', escape=False)\n    response.write(SPAN(prettydate(problem.created_on), _style="font-size: 80%" ))\n    response.write(\'\\n\', escape=False)\n    codes = db(db.code.problem_id == problem.id).select()\n    response.write(\'\\n\', escape=False)\n    for code in codes:\n        response.write(\'\\n<li>\\n\\t\', escape=False)\n        codeuser = db(db.auth_user.id == code.created_by).select().first()\n        response.write(\'\\n\\t\', escape=False)\n        response.write(B(" [" + codeuser.first_name + " " + codeuser.last_name + "] "))\n        response.write(\'\\n\\t\', escape=False)\n        response.write(SPAN(prettydate(problem.created_on), _style="font-size: 80%" )))\n        response.write(\'\\n</li>\\n\', escape=False)\n        pass\n    response.write(\'\\n</ul>\\n\', escape=False)\n    pass\nresponse.write(\'\\n\\n\\n\\n\\n\', escape=False)\nresponse.write(\'\\r\\n      \', escape=False)\nresponse.write(\'\\r\\n\\r\\n    </div> <!-- /container -->\\r\\n\\r\\n  </body>\\r\\n</html>\\r\\n\\r\\n\', escape=False)'
p7
sS'snapshot'
p8
(dp9
S'exception'
p10
(dp11
S'__getslice__'
p12
S"<method-wrapper '__getslice__' of exceptions.SyntaxError object at 0x060E9EF0>"
p13
sS'text'
p14
S'\'        response.write(SPAN(prettydate(problem.created_on), _style="font-size: 80%" )))\\n\''
p15
sS'__str__'
p16
S"<method-wrapper '__str__' of exceptions.SyntaxError object at 0x060E9EF0>"
p17
sS'__reduce__'
p18
S'<built-in method __reduce__ of exceptions.SyntaxError object at 0x060E9EF0>'
p19
sS'__dict__'
p20
S'{}'
p21
sS'__init__'
p22
S"<method-wrapper '__init__' of exceptions.SyntaxError object at 0x060E9EF0>"
p23
sS'__setattr__'
p24
S"<method-wrapper '__setattr__' of exceptions.SyntaxError object at 0x060E9EF0>"
p25
sS'__reduce_ex__'
p26
S'<built-in method __reduce_ex__ of exceptions.SyntaxError object at 0x060E9EF0>'
p27
sS'__new__'
p28
S'<built-in method __new__ of type object at 0x1E1CDBD0>'
p29
sS'__class__'
p30
S"<type 'exceptions.SyntaxError'>"
p31
sS'filename'
p32
S"r'C:\\web2py\\applications\\unioeste_code\\views\\default/index.html'"
p33
sS'lineno'
p34
S'32'
p35
sS'msg'
p36
S"'invalid syntax'"
p37
sS'__doc__'
p38
S"'Invalid syntax.'"
p39
sS'__getitem__'
p40
S"<method-wrapper '__getitem__' of exceptions.SyntaxError object at 0x060E9EF0>"
p41
sS'__setstate__'
p42
S'<built-in method __setstate__ of exceptions.SyntaxError object at 0x060E9EF0>'
p43
sS'__getattribute__'
p44
S"<method-wrapper '__getattribute__' of exceptions.SyntaxError object at 0x060E9EF0>"
p45
sS'print_file_and_line'
p46
S'None'
p47
sS'args'
p48
S'(\'invalid syntax\', (r\'C:\\web2py\\applications\\unioeste_code\\views\\default/index.html\', 32, 87, \'        response.write(SPAN(prettydate(problem.created_on), _style="font-size: 80%" )))\\n\'))'
p49
sS'offset'
p50
S'87'
p51
sS'__delattr__'
p52
S"<method-wrapper '__delattr__' of exceptions.SyntaxError object at 0x060E9EF0>"
p53
sS'__repr__'
p54
S"<method-wrapper '__repr__' of exceptions.SyntaxError object at 0x060E9EF0>"
p55
sS'__hash__'
p56
S"<method-wrapper '__hash__' of exceptions.SyntaxError object at 0x060E9EF0>"
p57
ssS'evalue'
p58
S'invalid syntax (default/index.html, line 32)'
p59
sS'request'
p60
ccopy_reg
_reconstructor
p61
(cgluon.html
BEAUTIFY
p62
c__builtin__
object
p63
NtRp64
(dp65
S'attributes'
p66
(dp67
sS'components'
p68
(lp69
g61
(cgluon.html
TABLE
p70
g63
NtRp71
(dp72
g66
(dp73
S'level'
p74
I5
ssS'parent'
p75
Nsg68
(lp76
g61
(cgluon.html
TR
p77
g63
NtRp78
(dp79
g66
(dp80
sg75
g71
sg68
(lp81
g61
(cgluon.html
TD
p82
g63
NtRp83
(dp84
g66
(dp85
S'_style'
p86
S'font-weight:bold;vertical-align:top'
p87
ssg75
g78
sg68
(lp88
S'ajax'
p89
asbag61
(g82
g63
NtRp90
(dp91
g66
(dp92
S'_valign'
p93
S'top'
p94
ssg75
g78
sg68
(lp95
S':'
asbag61
(g82
g63
NtRp96
(dp97
g66
(dp98
sg75
g78
sg68
(lp99
g61
(g62
g63
NtRp100
(dp101
g66
(dp102
g74
I5
ssg75
g96
sg68
(lp103
S'False'
p104
asbasbasbag61
(g77
g63
NtRp105
(dp106
g66
(dp107
sg75
g71
sg68
(lp108
g61
(g82
g63
NtRp109
(dp110
g66
(dp111
g86
g87
ssg75
g105
sg68
(lp112
S'application'
p113
asbag61
(g82
g63
NtRp114
(dp115
g66
(dp116
g93
g94
ssg75
g105
sg68
(lp117
S':'
asbag61
(g82
g63
NtRp118
(dp119
g66
(dp120
sg75
g105
sg68
(lp121
g61
(g62
g63
NtRp122
(dp123
g66
(dp124
g74
I5
ssg75
g118
sg68
(lp125
S'unioeste_code'
p126
asbasbasbag61
(g77
g63
NtRp127
(dp128
g66
(dp129
sg75
g71
sg68
(lp130
g61
(g82
g63
NtRp131
(dp132
g66
(dp133
g86
g87
ssg75
g127
sg68
(lp134
g48
asbag61
(g82
g63
NtRp135
(dp136
g66
(dp137
g93
g94
ssg75
g127
sg68
(lp138
S':'
asbag61
(g82
g63
NtRp139
(dp140
g66
(dp141
sg75
g127
sg68
(lp142
g61
(g62
g63
NtRp143
(dp144
g66
(dp145
g74
I5
ssg75
g139
sg68
(lp146
g61
(g70
g63
NtRp147
(dp148
g66
(dp149
g74
I4
ssg75
Nsg68
(lp150
sbasbasbasbag61
(g77
g63
NtRp151
(dp152
g66
(dp153
sg75
g71
sg68
(lp154
g61
(g82
g63
NtRp155
(dp156
g66
(dp157
g86
g87
ssg75
g151
sg68
(lp158
S'body'
p159
asbag61
(g82
g63
NtRp160
(dp161
g66
(dp162
g93
g94
ssg75
g151
sg68
(lp163
S':'
asbag61
(g82
g63
NtRp164
(dp165
g66
(dp166
sg75
g151
sg68
(lp167
g61
(g62
g63
NtRp168
(dp169
g66
(dp170
g74
I5
ssg75
g164
sg68
(lp171
S'<cStringIO.StringO object at 0x06197880>'
p172
asbasbasbag61
(g77
g63
NtRp173
(dp174
g66
(dp175
sg75
g71
sg68
(lp176
g61
(g82
g63
NtRp177
(dp178
g66
(dp179
g86
g87
ssg75
g173
sg68
(lp180
S'client'
p181
asbag61
(g82
g63
NtRp182
(dp183
g66
(dp184
g93
g94
ssg75
g173
sg68
(lp185
S':'
asbag61
(g82
g63
NtRp186
(dp187
g66
(dp188
sg75
g173
sg68
(lp189
g61
(g62
g63
NtRp190
(dp191
g66
(dp192
g74
I5
ssg75
g186
sg68
(lp193
S'127.0.0.1'
p194
asbasbasbag61
(g77
g63
NtRp195
(dp196
g66
(dp197
sg75
g71
sg68
(lp198
g61
(g82
g63
NtRp199
(dp200
g66
(dp201
g86
g87
ssg75
g195
sg68
(lp202
S'controller'
p203
asbag61
(g82
g63
NtRp204
(dp205
g66
(dp206
g93
g94
ssg75
g195
sg68
(lp207
S':'
asbag61
(g82
g63
NtRp208
(dp209
g66
(dp210
sg75
g195
sg68
(lp211
g61
(g62
g63
NtRp212
(dp213
g66
(dp214
g74
I5
ssg75
g208
sg68
(lp215
S'default'
p216
asbasbasbag61
(g77
g63
NtRp217
(dp218
g66
(dp219
sg75
g71
sg68
(lp220
g61
(g82
g63
NtRp221
(dp222
g66
(dp223
g86
g87
ssg75
g217
sg68
(lp224
S'cookies'
p225
asbag61
(g82
g63
NtRp226
(dp227
g66
(dp228
g93
g94
ssg75
g217
sg68
(lp229
S':'
asbag61
(g82
g63
NtRp230
(dp231
g66
(dp232
sg75
g217
sg68
(lp233
g61
(g62
g63
NtRp234
(dp235
g66
(dp236
g74
I5
ssg75
g230
sg68
(lp237
g61
(g70
g63
NtRp238
(dp239
g66
(dp240
g74
I4
ssg75
Nsg68
(lp241
g61
(g77
g63
NtRp242
(dp243
g66
(dp244
sg75
g238
sg68
(lp245
g61
(g82
g63
NtRp246
(dp247
g66
(dp248
g86
g87
ssg75
g242
sg68
(lp249
S'session_id_unioeste_code'
p250
asbag61
(g82
g63
NtRp251
(dp252
g66
(dp253
g93
g94
ssg75
g242
sg68
(lp254
S':'
asbag61
(g82
g63
NtRp255
(dp256
g66
(dp257
sg75
g242
sg68
(lp258
g61
(g62
g63
NtRp259
(dp260
g66
(dp261
g74
I4
ssg75
g255
sg68
(lp262
g61
(g70
g63
NtRp263
(dp264
g66
(dp265
g74
I3
ssg75
Nsg68
(lp266
g61
(g77
g63
NtRp267
(dp268
g66
(dp269
sg75
g263
sg68
(lp270
g61
(g82
g63
NtRp271
(dp272
g66
(dp273
g86
g87
ssg75
g267
sg68
(lp274
S'comment'
p275
asbag61
(g82
g63
NtRp276
(dp277
g66
(dp278
g93
g94
ssg75
g267
sg68
(lp279
S':'
asbag61
(g82
g63
NtRp280
(dp281
g66
(dp282
sg75
g267
sg68
(lp283
g61
(g62
g63
NtRp284
(dp285
g66
(dp286
g74
I3
ssg75
g280
sg68
(lp287
S''
asbasbasbag61
(g77
g63
NtRp288
(dp289
g66
(dp290
sg75
g263
sg68
(lp291
g61
(g82
g63
NtRp292
(dp293
g66
(dp294
g86
g87
ssg75
g288
sg68
(lp295
S'domain'
p296
asbag61
(g82
g63
NtRp297
(dp298
g66
(dp299
g93
g94
ssg75
g288
sg68
(lp300
S':'
asbag61
(g82
g63
NtRp301
(dp302
g66
(dp303
sg75
g288
sg68
(lp304
g61
(g62
g63
NtRp305
(dp306
g66
(dp307
g74
I3
ssg75
g301
sg68
(lp308
S''
asbasbasbag61
(g77
g63
NtRp309
(dp310
g66
(dp311
sg75
g263
sg68
(lp312
g61
(g82
g63
NtRp313
(dp314
g66
(dp315
g86
g87
ssg75
g309
sg68
(lp316
S'expires'
p317
asbag61
(g82
g63
NtRp318
(dp319
g66
(dp320
g93
g94
ssg75
g309
sg68
(lp321
S':'
asbag61
(g82
g63
NtRp322
(dp323
g66
(dp324
sg75
g309
sg68
(lp325
g61
(g62
g63
NtRp326
(dp327
g66
(dp328
g74
I3
ssg75
g322
sg68
(lp329
S''
asbasbasbag61
(g77
g63
NtRp330
(dp331
g66
(dp332
sg75
g263
sg68
(lp333
g61
(g82
g63
NtRp334
(dp335
g66
(dp336
g86
g87
ssg75
g330
sg68
(lp337
S'max-age'
p338
asbag61
(g82
g63
NtRp339
(dp340
g66
(dp341
g93
g94
ssg75
g330
sg68
(lp342
S':'
asbag61
(g82
g63
NtRp343
(dp344
g66
(dp345
sg75
g330
sg68
(lp346
g61
(g62
g63
NtRp347
(dp348
g66
(dp349
g74
I3
ssg75
g343
sg68
(lp350
S''
asbasbasbag61
(g77
g63
NtRp351
(dp352
g66
(dp353
sg75
g263
sg68
(lp354
g61
(g82
g63
NtRp355
(dp356
g66
(dp357
g86
g87
ssg75
g351
sg68
(lp358
S'path'
p359
asbag61
(g82
g63
NtRp360
(dp361
g66
(dp362
g93
g94
ssg75
g351
sg68
(lp363
S':'
asbag61
(g82
g63
NtRp364
(dp365
g66
(dp366
sg75
g351
sg68
(lp367
g61
(g62
g63
NtRp368
(dp369
g66
(dp370
g74
I3
ssg75
g364
sg68
(lp371
S''
asbasbasbag61
(g77
g63
NtRp372
(dp373
g66
(dp374
sg75
g263
sg68
(lp375
g61
(g82
g63
NtRp376
(dp377
g66
(dp378
g86
g87
ssg75
g372
sg68
(lp379
S'secure'
p380
asbag61
(g82
g63
NtRp381
(dp382
g66
(dp383
g93
g94
ssg75
g372
sg68
(lp384
S':'
asbag61
(g82
g63
NtRp385
(dp386
g66
(dp387
sg75
g372
sg68
(lp388
g61
(g62
g63
NtRp389
(dp390
g66
(dp391
g74
I3
ssg75
g385
sg68
(lp392
S''
asbasbasbag61
(g77
g63
NtRp393
(dp394
g66
(dp395
sg75
g263
sg68
(lp396
g61
(g82
g63
NtRp397
(dp398
g66
(dp399
g86
g87
ssg75
g393
sg68
(lp400
S'version'
p401
asbag61
(g82
g63
NtRp402
(dp403
g66
(dp404
g93
g94
ssg75
g393
sg68
(lp405
S':'
asbag61
(g82
g63
NtRp406
(dp407
g66
(dp408
sg75
g393
sg68
(lp409
g61
(g62
g63
NtRp410
(dp411
g66
(dp412
g74
I3
ssg75
g406
sg68
(lp413
S''
asbasbasbasbasbasbasbag61
(g77
g63
NtRp414
(dp415
g66
(dp416
sg75
g238
sg68
(lp417
g61
(g82
g63
NtRp418
(dp419
g66
(dp420
g86
g87
ssg75
g414
sg68
(lp421
S'session_id_welcome'
p422
asbag61
(g82
g63
NtRp423
(dp424
g66
(dp425
g93
g94
ssg75
g414
sg68
(lp426
S':'
asbag61
(g82
g63
NtRp427
(dp428
g66
(dp429
sg75
g414
sg68
(lp430
g61
(g62
g63
NtRp431
(dp432
g66
(dp433
g74
I4
ssg75
g427
sg68
(lp434
g61
(g70
g63
NtRp435
(dp436
g66
(dp437
g74
I3
ssg75
Nsg68
(lp438
g61
(g77
g63
NtRp439
(dp440
g66
(dp441
sg75
g435
sg68
(lp442
g61
(g82
g63
NtRp443
(dp444
g66
(dp445
g86
g87
ssg75
g439
sg68
(lp446
g275
asbag61
(g82
g63
NtRp447
(dp448
g66
(dp449
g93
g94
ssg75
g439
sg68
(lp450
S':'
asbag61
(g82
g63
NtRp451
(dp452
g66
(dp453
sg75
g439
sg68
(lp454
g61
(g62
g63
NtRp455
(dp456
g66
(dp457
g74
I3
ssg75
g451
sg68
(lp458
S''
asbasbasbag61
(g77
g63
NtRp459
(dp460
g66
(dp461
sg75
g435
sg68
(lp462
g61
(g82
g63
NtRp463
(dp464
g66
(dp465
g86
g87
ssg75
g459
sg68
(lp466
g296
asbag61
(g82
g63
NtRp467
(dp468
g66
(dp469
g93
g94
ssg75
g459
sg68
(lp470
S':'
asbag61
(g82
g63
NtRp471
(dp472
g66
(dp473
sg75
g459
sg68
(lp474
g61
(g62
g63
NtRp475
(dp476
g66
(dp477
g74
I3
ssg75
g471
sg68
(lp478
S''
asbasbasbag61
(g77
g63
NtRp479
(dp480
g66
(dp481
sg75
g435
sg68
(lp482
g61
(g82
g63
NtRp483
(dp484
g66
(dp485
g86
g87
ssg75
g479
sg68
(lp486
g317
asbag61
(g82
g63
NtRp487
(dp488
g66
(dp489
g93
g94
ssg75
g479
sg68
(lp490
S':'
asbag61
(g82
g63
NtRp491
(dp492
g66
(dp493
sg75
g479
sg68
(lp494
g61
(g62
g63
NtRp495
(dp496
g66
(dp497
g74
I3
ssg75
g491
sg68
(lp498
S''
asbasbasbag61
(g77
g63
NtRp499
(dp500
g66
(dp501
sg75
g435
sg68
(lp502
g61
(g82
g63
NtRp503
(dp504
g66
(dp505
g86
g87
ssg75
g499
sg68
(lp506
g338
asbag61
(g82
g63
NtRp507
(dp508
g66
(dp509
g93
g94
ssg75
g499
sg68
(lp510
S':'
asbag61
(g82
g63
NtRp511
(dp512
g66
(dp513
sg75
g499
sg68
(lp514
g61
(g62
g63
NtRp515
(dp516
g66
(dp517
g74
I3
ssg75
g511
sg68
(lp518
S''
asbasbasbag61
(g77
g63
NtRp519
(dp520
g66
(dp521
sg75
g435
sg68
(lp522
g61
(g82
g63
NtRp523
(dp524
g66
(dp525
g86
g87
ssg75
g519
sg68
(lp526
g359
asbag61
(g82
g63
NtRp527
(dp528
g66
(dp529
g93
g94
ssg75
g519
sg68
(lp530
S':'
asbag61
(g82
g63
NtRp531
(dp532
g66
(dp533
sg75
g519
sg68
(lp534
g61
(g62
g63
NtRp535
(dp536
g66
(dp537
g74
I3
ssg75
g531
sg68
(lp538
S''
asbasbasbag61
(g77
g63
NtRp539
(dp540
g66
(dp541
sg75
g435
sg68
(lp542
g61
(g82
g63
NtRp543
(dp544
g66
(dp545
g86
g87
ssg75
g539
sg68
(lp546
g380
asbag61
(g82
g63
NtRp547
(dp548
g66
(dp549
g93
g94
ssg75
g539
sg68
(lp550
S':'
asbag61
(g82
g63
NtRp551
(dp552
g66
(dp553
sg75
g539
sg68
(lp554
g61
(g62
g63
NtRp555
(dp556
g66
(dp557
g74
I3
ssg75
g551
sg68
(lp558
S''
asbasbasbag61
(g77
g63
NtRp559
(dp560
g66
(dp561
sg75
g435
sg68
(lp562
g61
(g82
g63
NtRp563
(dp564
g66
(dp565
g86
g87
ssg75
g559
sg68
(lp566
g401
asbag61
(g82
g63
NtRp567
(dp568
g66
(dp569
g93
g94
ssg75
g559
sg68
(lp570
S':'
asbag61
(g82
g63
NtRp571
(dp572
g66
(dp573
sg75
g559
sg68
(lp574
g61
(g62
g63
NtRp575
(dp576
g66
(dp577
g74
I3
ssg75
g571
sg68
(lp578
S''
asbasbasbasbasbasbasbasbasbasbasbag61
(g77
g63
NtRp579
(dp580
g66
(dp581
sg75
g71
sg68
(lp582
g61
(g82
g63
NtRp583
(dp584
g66
(dp585
g86
g87
ssg75
g579
sg68
(lp586
S'env'
p587
asbag61
(g82
g63
NtRp588
(dp589
g66
(dp590
g93
g94
ssg75
g579
sg68
(lp591
S':'
asbag61
(g82
g63
NtRp592
(dp593
g66
(dp594
sg75
g579
sg68
(lp595
g61
(g62
g63
NtRp596
(dp597
g66
(dp598
g74
I5
ssg75
g592
sg68
(lp599
g61
(g70
g63
NtRp600
(dp601
g66
(dp602
g74
I4
ssg75
Nsg68
(lp603
g61
(g77
g63
NtRp604
(dp605
g66
(dp606
sg75
g600
sg68
(lp607
g61
(g82
g63
NtRp608
(dp609
g66
(dp610
g86
g87
ssg75
g604
sg68
(lp611
S'app_folders'
p612
asbag61
(g82
g63
NtRp613
(dp614
g66
(dp615
g93
g94
ssg75
g604
sg68
(lp616
S':'
asbag61
(g82
g63
NtRp617
(dp618
g66
(dp619
sg75
g604
sg68
(lp620
g61
(g62
g63
NtRp621
(dp622
g66
(dp623
g74
I4
ssg75
g617
sg68
(lp624
S"set(['C:\\\\web2py\\\\applications\\\\welcome\\\\', 'C:\\\\web2py\\\\applications\\\\unioeste_code\\\\'])"
p625
asbasbasbag61
(g77
g63
NtRp626
(dp627
g66
(dp628
sg75
g600
sg68
(lp629
g61
(g82
g63
NtRp630
(dp631
g66
(dp632
g86
g87
ssg75
g626
sg68
(lp633
S'applications_parent'
p634
asbag61
(g82
g63
NtRp635
(dp636
g66
(dp637
g93
g94
ssg75
g626
sg68
(lp638
S':'
asbag61
(g82
g63
NtRp639
(dp640
g66
(dp641
sg75
g626
sg68
(lp642
g61
(g62
g63
NtRp643
(dp644
g66
(dp645
g74
I4
ssg75
g639
sg68
(lp646
S'C:\\web2py'
p647
asbasbasbag61
(g77
g63
NtRp648
(dp649
g66
(dp650
sg75
g600
sg68
(lp651
g61
(g82
g63
NtRp652
(dp653
g66
(dp654
g86
g87
ssg75
g648
sg68
(lp655
S'cmd_args'
p656
asbag61
(g82
g63
NtRp657
(dp658
g66
(dp659
g93
g94
ssg75
g648
sg68
(lp660
S':'
asbag61
(g82
g63
NtRp661
(dp662
g66
(dp663
sg75
g648
sg68
(lp664
g61
(g62
g63
NtRp665
(dp666
g66
(dp667
g74
I4
ssg75
g661
sg68
(lp668
g61
(g70
g63
NtRp669
(dp670
g66
(dp671
g74
I3
ssg75
Nsg68
(lp672
sbasbasbasbag61
(g77
g63
NtRp673
(dp674
g66
(dp675
sg75
g600
sg68
(lp676
g61
(g82
g63
NtRp677
(dp678
g66
(dp679
g86
g87
ssg75
g673
sg68
(lp680
S'cmd_options'
p681
asbag61
(g82
g63
NtRp682
(dp683
g66
(dp684
g93
g94
ssg75
g673
sg68
(lp685
S':'
asbag61
(g82
g63
NtRp686
(dp687
g66
(dp688
sg75
g673
sg68
(lp689
g61
(g62
g63
NtRp690
(dp691
g66
(dp692
g74
I4
ssg75
g686
sg68
(lp693
S"<Values at 0x305c300: {'verbose': False, 'ip': '127.0.0.1', 'shutdown_timeout': 5, 'taskbar': False, 'nocron': False, 'pid_filename': 'httpserver.pid', 'maxthreads': None, 'softcron': False, 'server_name': 'Pedro-PC', 'bpython': False, 'nogui': False, 'port': 8000, 'extcron': False, 'debuglevel': 30, 'test': None, 'folder': 'C:\\\\web2py', 'config': '', 'import_models': False, 'winservice': '', 'shell': None, 'run': '', 'log_filename': 'httpserver.log', 'args': [''], 'socket_timeout': 5, 'ssl_ca_certificate': None, 'scheduler': None, 'profiler_filename': None, 'ssl_private_key': '', 'password': '<ask>', 'request_queue_size': 5, 'ssl_certificate': '', 'cronjob': False, 'numthreads': None, 'quiet': False, 'interfaces': None, 'minthreads': None, 'timeout': 10, 'plain': False, 'nobanner': False}>"
p694
asbasbasbag61
(g77
g63
NtRp695
(dp696
g66
(dp697
sg75
g600
sg68
(lp698
g61
(g82
g63
NtRp699
(dp700
g66
(dp701
g86
g87
ssg75
g695
sg68
(lp702
S'db_sessions'
p703
asbag61
(g82
g63
NtRp704
(dp705
g66
(dp706
g93
g94
ssg75
g695
sg68
(lp707
S':'
asbag61
(g82
g63
NtRp708
(dp709
g66
(dp710
sg75
g695
sg68
(lp711
g61
(g62
g63
NtRp712
(dp713
g66
(dp714
g74
I4
ssg75
g708
sg68
(lp715
S'set([])'
p716
asbasbasbag61
(g77
g63
NtRp717
(dp718
g66
(dp719
sg75
g600
sg68
(lp720
g61
(g82
g63
NtRp721
(dp722
g66
(dp723
g86
g87
ssg75
g717
sg68
(lp724
S'debugging'
p725
asbag61
(g82
g63
NtRp726
(dp727
g66
(dp728
g93
g94
ssg75
g717
sg68
(lp729
S':'
asbag61
(g82
g63
NtRp730
(dp731
g66
(dp732
sg75
g717
sg68
(lp733
g61
(g62
g63
NtRp734
(dp735
g66
(dp736
g74
I4
ssg75
g730
sg68
(lp737
g104
asbasbasbag61
(g77
g63
NtRp738
(dp739
g66
(dp740
sg75
g600
sg68
(lp741
g61
(g82
g63
NtRp742
(dp743
g66
(dp744
g86
g87
ssg75
g738
sg68
(lp745
S'gluon_parent'
p746
asbag61
(g82
g63
NtRp747
(dp748
g66
(dp749
g93
g94
ssg75
g738
sg68
(lp750
S':'
asbag61
(g82
g63
NtRp751
(dp752
g66
(dp753
sg75
g738
sg68
(lp754
g61
(g62
g63
NtRp755
(dp756
g66
(dp757
g74
I4
ssg75
g751
sg68
(lp758
S'C:\\web2py'
p759
asbasbasbag61
(g77
g63
NtRp760
(dp761
g66
(dp762
sg75
g600
sg68
(lp763
g61
(g82
g63
NtRp764
(dp765
g66
(dp766
g86
g87
ssg75
g760
sg68
(lp767
S'http_accept'
p768
asbag61
(g82
g63
NtRp769
(dp770
g66
(dp771
g93
g94
ssg75
g760
sg68
(lp772
S':'
asbag61
(g82
g63
NtRp773
(dp774
g66
(dp775
sg75
g760
sg68
(lp776
g61
(g62
g63
NtRp777
(dp778
g66
(dp779
g74
I4
ssg75
g773
sg68
(lp780
S'text/html,application/xhtml+xml,application/xml;q=0.9,*/*;q=0.8'
p781
asbasbasbag61
(g77
g63
NtRp782
(dp783
g66
(dp784
sg75
g600
sg68
(lp785
g61
(g82
g63
NtRp786
(dp787
g66
(dp788
g86
g87
ssg75
g782
sg68
(lp789
S'http_accept_charset'
p790
asbag61
(g82
g63
NtRp791
(dp792
g66
(dp793
g93
g94
ssg75
g782
sg68
(lp794
S':'
asbag61
(g82
g63
NtRp795
(dp796
g66
(dp797
sg75
g782
sg68
(lp798
g61
(g62
g63
NtRp799
(dp800
g66
(dp801
g74
I4
ssg75
g795
sg68
(lp802
S'ISO-8859-1,utf-8;q=0.7,*;q=0.3'
p803
asbasbasbag61
(g77
g63
NtRp804
(dp805
g66
(dp806
sg75
g600
sg68
(lp807
g61
(g82
g63
NtRp808
(dp809
g66
(dp810
g86
g87
ssg75
g804
sg68
(lp811
S'http_accept_encoding'
p812
asbag61
(g82
g63
NtRp813
(dp814
g66
(dp815
g93
g94
ssg75
g804
sg68
(lp816
S':'
asbag61
(g82
g63
NtRp817
(dp818
g66
(dp819
sg75
g804
sg68
(lp820
g61
(g62
g63
NtRp821
(dp822
g66
(dp823
g74
I4
ssg75
g817
sg68
(lp824
S'gzip,deflate,sdch'
p825
asbasbasbag61
(g77
g63
NtRp826
(dp827
g66
(dp828
sg75
g600
sg68
(lp829
g61
(g82
g63
NtRp830
(dp831
g66
(dp832
g86
g87
ssg75
g826
sg68
(lp833
S'http_accept_language'
p834
asbag61
(g82
g63
NtRp835
(dp836
g66
(dp837
g93
g94
ssg75
g826
sg68
(lp838
S':'
asbag61
(g82
g63
NtRp839
(dp840
g66
(dp841
sg75
g826
sg68
(lp842
g61
(g62
g63
NtRp843
(dp844
g66
(dp845
g74
I4
ssg75
g839
sg68
(lp846
S'pt-BR,pt;q=0.8,en-US;q=0.6,en;q=0.4'
p847
asbasbasbag61
(g77
g63
NtRp848
(dp849
g66
(dp850
sg75
g600
sg68
(lp851
g61
(g82
g63
NtRp852
(dp853
g66
(dp854
g86
g87
ssg75
g848
sg68
(lp855
S'http_cache_control'
p856
asbag61
(g82
g63
NtRp857
(dp858
g66
(dp859
g93
g94
ssg75
g848
sg68
(lp860
S':'
asbag61
(g82
g63
NtRp861
(dp862
g66
(dp863
sg75
g848
sg68
(lp864
g61
(g62
g63
NtRp865
(dp866
g66
(dp867
g74
I4
ssg75
g861
sg68
(lp868
S'max-age=0'
p869
asbasbasbag61
(g77
g63
NtRp870
(dp871
g66
(dp872
sg75
g600
sg68
(lp873
g61
(g82
g63
NtRp874
(dp875
g66
(dp876
g86
g87
ssg75
g870
sg68
(lp877
S'http_connection'
p878
asbag61
(g82
g63
NtRp879
(dp880
g66
(dp881
g93
g94
ssg75
g870
sg68
(lp882
S':'
asbag61
(g82
g63
NtRp883
(dp884
g66
(dp885
sg75
g870
sg68
(lp886
g61
(g62
g63
NtRp887
(dp888
g66
(dp889
g74
I4
ssg75
g883
sg68
(lp890
S'keep-alive'
p891
asbasbasbag61
(g77
g63
NtRp892
(dp893
g66
(dp894
sg75
g600
sg68
(lp895
g61
(g82
g63
NtRp896
(dp897
g66
(dp898
g86
g87
ssg75
g892
sg68
(lp899
S'http_cookie'
p900
asbag61
(g82
g63
NtRp901
(dp902
g66
(dp903
g93
g94
ssg75
g892
sg68
(lp904
S':'
asbag61
(g82
g63
NtRp905
(dp906
g66
(dp907
sg75
g892
sg68
(lp908
g61
(g62
g63
NtRp909
(dp910
g66
(dp911
g74
I4
ssg75
g905
sg68
(lp912
S'session_id_welcome=127.0.0.1-7b46b28e-5754-4239-bc6f-93bad992be06; session_id_unioeste_code=127.0.0.1-e59d045c-674a-4956-aa17-8fef39f61cb3'
p913
asbasbasbag61
(g77
g63
NtRp914
(dp915
g66
(dp916
sg75
g600
sg68
(lp917
g61
(g82
g63
NtRp918
(dp919
g66
(dp920
g86
g87
ssg75
g914
sg68
(lp921
S'http_dnt'
p922
asbag61
(g82
g63
NtRp923
(dp924
g66
(dp925
g93
g94
ssg75
g914
sg68
(lp926
S':'
asbag61
(g82
g63
NtRp927
(dp928
g66
(dp929
sg75
g914
sg68
(lp930
g61
(g62
g63
NtRp931
(dp932
g66
(dp933
g74
I4
ssg75
g927
sg68
(lp934
S'1'
asbasbasbag61
(g77
g63
NtRp935
(dp936
g66
(dp937
sg75
g600
sg68
(lp938
g61
(g82
g63
NtRp939
(dp940
g66
(dp941
g86
g87
ssg75
g935
sg68
(lp942
S'http_host'
p943
asbag61
(g82
g63
NtRp944
(dp945
g66
(dp946
g93
g94
ssg75
g935
sg68
(lp947
S':'
asbag61
(g82
g63
NtRp948
(dp949
g66
(dp950
sg75
g935
sg68
(lp951
g61
(g62
g63
NtRp952
(dp953
g66
(dp954
g74
I4
ssg75
g948
sg68
(lp955
S'127.0.0.1:8000'
p956
asbasbasbag61
(g77
g63
NtRp957
(dp958
g66
(dp959
sg75
g600
sg68
(lp960
g61
(g82
g63
NtRp961
(dp962
g66
(dp963
g86
g87
ssg75
g957
sg68
(lp964
S'http_user_agent'
p965
asbag61
(g82
g63
NtRp966
(dp967
g66
(dp968
g93
g94
ssg75
g957
sg68
(lp969
S':'
asbag61
(g82
g63
NtRp970
(dp971
g66
(dp972
sg75
g957
sg68
(lp973
g61
(g62
g63
NtRp974
(dp975
g66
(dp976
g74
I4
ssg75
g970
sg68
(lp977
S'Mozilla/5.0 (Windows NT 6.1; WOW64) AppleWebKit/537.1 (KHTML, like Gecko) Chrome/21.0.1180.60 Safari/537.1'
p978
asbasbasbag61
(g77
g63
NtRp979
(dp980
g66
(dp981
sg75
g600
sg68
(lp982
g61
(g82
g63
NtRp983
(dp984
g66
(dp985
g86
g87
ssg75
g979
sg68
(lp986
S'is_jython'
p987
asbag61
(g82
g63
NtRp988
(dp989
g66
(dp990
g93
g94
ssg75
g979
sg68
(lp991
S':'
asbag61
(g82
g63
NtRp992
(dp993
g66
(dp994
sg75
g979
sg68
(lp995
g61
(g62
g63
NtRp996
(dp997
g66
(dp998
g74
I4
ssg75
g992
sg68
(lp999
g104
asbasbasbag61
(g77
g63
NtRp1000
(dp1001
g66
(dp1002
sg75
g600
sg68
(lp1003
g61
(g82
g63
NtRp1004
(dp1005
g66
(dp1006
g86
g87
ssg75
g1000
sg68
(lp1007
S'is_pypy'
p1008
asbag61
(g82
g63
NtRp1009
(dp1010
g66
(dp1011
g93
g94
ssg75
g1000
sg68
(lp1012
S':'
asbag61
(g82
g63
NtRp1013
(dp1014
g66
(dp1015
sg75
g1000
sg68
(lp1016
g61
(g62
g63
NtRp1017
(dp1018
g66
(dp1019
g74
I4
ssg75
g1013
sg68
(lp1020
g104
asbasbasbag61
(g77
g63
NtRp1021
(dp1022
g66
(dp1023
sg75
g600
sg68
(lp1024
g61
(g82
g63
NtRp1025
(dp1026
g66
(dp1027
g86
g87
ssg75
g1021
sg68
(lp1028
S'path_info'
p1029
asbag61
(g82
g63
NtRp1030
(dp1031
g66
(dp1032
g93
g94
ssg75
g1021
sg68
(lp1033
S':'
asbag61
(g82
g63
NtRp1034
(dp1035
g66
(dp1036
sg75
g1021
sg68
(lp1037
g61
(g62
g63
NtRp1038
(dp1039
g66
(dp1040
g74
I4
ssg75
g1034
sg68
(lp1041
S'/unioeste_code/default/index'
p1042
asbasbasbag61
(g77
g63
NtRp1043
(dp1044
g66
(dp1045
sg75
g600
sg68
(lp1046
g61
(g82
g63
NtRp1047
(dp1048
g66
(dp1049
g86
g87
ssg75
g1043
sg68
(lp1050
S'query_string'
p1051
asbag61
(g82
g63
NtRp1052
(dp1053
g66
(dp1054
g93
g94
ssg75
g1043
sg68
(lp1055
S':'
asbag61
(g82
g63
NtRp1056
(dp1057
g66
(dp1058
sg75
g1043
sg68
(lp1059
g61
(g62
g63
NtRp1060
(dp1061
g66
(dp1062
g74
I4
ssg75
g1056
sg68
(lp1063
S''
asbasbasbag61
(g77
g63
NtRp1064
(dp1065
g66
(dp1066
sg75
g600
sg68
(lp1067
g61
(g82
g63
NtRp1068
(dp1069
g66
(dp1070
g86
g87
ssg75
g1064
sg68
(lp1071
S'remote_addr'
p1072
asbag61
(g82
g63
NtRp1073
(dp1074
g66
(dp1075
g93
g94
ssg75
g1064
sg68
(lp1076
S':'
asbag61
(g82
g63
NtRp1077
(dp1078
g66
(dp1079
sg75
g1064
sg68
(lp1080
g61
(g62
g63
NtRp1081
(dp1082
g66
(dp1083
g74
I4
ssg75
g1077
sg68
(lp1084
g194
asbasbasbag61
(g77
g63
NtRp1085
(dp1086
g66
(dp1087
sg75
g600
sg68
(lp1088
g61
(g82
g63
NtRp1089
(dp1090
g66
(dp1091
g86
g87
ssg75
g1085
sg68
(lp1092
S'remote_port'
p1093
asbag61
(g82
g63
NtRp1094
(dp1095
g66
(dp1096
g93
g94
ssg75
g1085
sg68
(lp1097
S':'
asbag61
(g82
g63
NtRp1098
(dp1099
g66
(dp1100
sg75
g1085
sg68
(lp1101
g61
(g62
g63
NtRp1102
(dp1103
g66
(dp1104
g74
I4
ssg75
g1098
sg68
(lp1105
S'4891'
p1106
asbasbasbag61
(g77
g63
NtRp1107
(dp1108
g66
(dp1109
sg75
g600
sg68
(lp1110
g61
(g82
g63
NtRp1111
(dp1112
g66
(dp1113
g86
g87
ssg75
g1107
sg68
(lp1114
S'request_method'
p1115
asbag61
(g82
g63
NtRp1116
(dp1117
g66
(dp1118
g93
g94
ssg75
g1107
sg68
(lp1119
S':'
asbag61
(g82
g63
NtRp1120
(dp1121
g66
(dp1122
sg75
g1107
sg68
(lp1123
g61
(g62
g63
NtRp1124
(dp1125
g66
(dp1126
g74
I4
ssg75
g1120
sg68
(lp1127
S'GET'
p1128
asbasbasbag61
(g77
g63
NtRp1129
(dp1130
g66
(dp1131
sg75
g600
sg68
(lp1132
g61
(g82
g63
NtRp1133
(dp1134
g66
(dp1135
g86
g87
ssg75
g1129
sg68
(lp1136
S'script_name'
p1137
asbag61
(g82
g63
NtRp1138
(dp1139
g66
(dp1140
g93
g94
ssg75
g1129
sg68
(lp1141
S':'
asbag61
(g82
g63
NtRp1142
(dp1143
g66
(dp1144
sg75
g1129
sg68
(lp1145
g61
(g62
g63
NtRp1146
(dp1147
g66
(dp1148
g74
I4
ssg75
g1142
sg68
(lp1149
S''
asbasbasbag61
(g77
g63
NtRp1150
(dp1151
g66
(dp1152
sg75
g600
sg68
(lp1153
g61
(g82
g63
NtRp1154
(dp1155
g66
(dp1156
g86
g87
ssg75
g1150
sg68
(lp1157
S'server_name'
p1158
asbag61
(g82
g63
NtRp1159
(dp1160
g66
(dp1161
g93
g94
ssg75
g1150
sg68
(lp1162
S':'
asbag61
(g82
g63
NtRp1163
(dp1164
g66
(dp1165
sg75
g1150
sg68
(lp1166
g61
(g62
g63
NtRp1167
(dp1168
g66
(dp1169
g74
I4
ssg75
g1163
sg68
(lp1170
S'Pedro-PC'
p1171
asbasbasbag61
(g77
g63
NtRp1172
(dp1173
g66
(dp1174
sg75
g600
sg68
(lp1175
g61
(g82
g63
NtRp1176
(dp1177
g66
(dp1178
g86
g87
ssg75
g1172
sg68
(lp1179
S'server_port'
p1180
asbag61
(g82
g63
NtRp1181
(dp1182
g66
(dp1183
g93
g94
ssg75
g1172
sg68
(lp1184
S':'
asbag61
(g82
g63
NtRp1185
(dp1186
g66
(dp1187
sg75
g1172
sg68
(lp1188
g61
(g62
g63
NtRp1189
(dp1190
g66
(dp1191
g74
I4
ssg75
g1185
sg68
(lp1192
S'8000'
p1193
asbasbasbag61
(g77
g63
NtRp1194
(dp1195
g66
(dp1196
sg75
g600
sg68
(lp1197
g61
(g82
g63
NtRp1198
(dp1199
g66
(dp1200
g86
g87
ssg75
g1194
sg68
(lp1201
S'server_protocol'
p1202
asbag61
(g82
g63
NtRp1203
(dp1204
g66
(dp1205
g93
g94
ssg75
g1194
sg68
(lp1206
S':'
asbag61
(g82
g63
NtRp1207
(dp1208
g66
(dp1209
sg75
g1194
sg68
(lp1210
g61
(g62
g63
NtRp1211
(dp1212
g66
(dp1213
g74
I4
ssg75
g1207
sg68
(lp1214
S'HTTP/1.1'
p1215
asbasbasbag61
(g77
g63
NtRp1216
(dp1217
g66
(dp1218
sg75
g600
sg68
(lp1219
g61
(g82
g63
NtRp1220
(dp1221
g66
(dp1222
g86
g87
ssg75
g1216
sg68
(lp1223
S'server_software'
p1224
asbag61
(g82
g63
NtRp1225
(dp1226
g66
(dp1227
g93
g94
ssg75
g1216
sg68
(lp1228
S':'
asbag61
(g82
g63
NtRp1229
(dp1230
g66
(dp1231
sg75
g1216
sg68
(lp1232
g61
(g62
g63
NtRp1233
(dp1234
g66
(dp1235
g74
I4
ssg75
g1229
sg68
(lp1236
S'Rocket 1.2.4'
p1237
asbasbasbag61
(g77
g63
NtRp1238
(dp1239
g66
(dp1240
sg75
g600
sg68
(lp1241
g61
(g82
g63
NtRp1242
(dp1243
g66
(dp1244
g86
g87
ssg75
g1238
sg68
(lp1245
S'web2py_crontype'
p1246
asbag61
(g82
g63
NtRp1247
(dp1248
g66
(dp1249
g93
g94
ssg75
g1238
sg68
(lp1250
S':'
asbag61
(g82
g63
NtRp1251
(dp1252
g66
(dp1253
sg75
g1238
sg68
(lp1254
g61
(g62
g63
NtRp1255
(dp1256
g66
(dp1257
g74
I4
ssg75
g1251
sg68
(lp1258
S'hard'
p1259
asbasbasbag61
(g77
g63
NtRp1260
(dp1261
g66
(dp1262
sg75
g600
sg68
(lp1263
g61
(g82
g63
NtRp1264
(dp1265
g66
(dp1266
g86
g87
ssg75
g1260
sg68
(lp1267
S'web2py_path'
p1268
asbag61
(g82
g63
NtRp1269
(dp1270
g66
(dp1271
g93
g94
ssg75
g1260
sg68
(lp1272
S':'
asbag61
(g82
g63
NtRp1273
(dp1274
g66
(dp1275
sg75
g1260
sg68
(lp1276
g61
(g62
g63
NtRp1277
(dp1278
g66
(dp1279
g74
I4
ssg75
g1273
sg68
(lp1280
g647
asbasbasbag61
(g77
g63
NtRp1281
(dp1282
g66
(dp1283
sg75
g600
sg68
(lp1284
g61
(g82
g63
NtRp1285
(dp1286
g66
(dp1287
g86
g87
ssg75
g1281
sg68
(lp1288
S'web2py_version'
p1289
asbag61
(g82
g63
NtRp1290
(dp1291
g66
(dp1292
g93
g94
ssg75
g1281
sg68
(lp1293
S':'
asbag61
(g82
g63
NtRp1294
(dp1295
g66
(dp1296
sg75
g1281
sg68
(lp1297
g61
(g62
g63
NtRp1298
(dp1299
g66
(dp1300
g74
I4
ssg75
g1294
sg68
(lp1301
g61
(g70
g63
NtRp1302
(dp1303
g66
(dp1304
g74
I3
ssg75
Nsg68
(lp1305
g61
(g77
g63
NtRp1306
(dp1307
g66
(dp1308
sg75
g1302
sg68
(lp1309
g61
(g82
g63
NtRp1310
(dp1311
g66
(dp1312
sg75
g1306
sg68
(lp1313
g61
(g62
g63
NtRp1314
(dp1315
g66
(dp1316
g74
I3
ssg75
g1310
sg68
(lp1317
S'1'
asbasbasbag61
(g77
g63
NtRp1318
(dp1319
g66
(dp1320
sg75
g1302
sg68
(lp1321
g61
(g82
g63
NtRp1322
(dp1323
g66
(dp1324
sg75
g1318
sg68
(lp1325
g61
(g62
g63
NtRp1326
(dp1327
g66
(dp1328
g74
I3
ssg75
g1322
sg68
(lp1329
S'99'
p1330
asbasbasbag61
(g77
g63
NtRp1331
(dp1332
g66
(dp1333
sg75
g1302
sg68
(lp1334
g61
(g82
g63
NtRp1335
(dp1336
g66
(dp1337
sg75
g1331
sg68
(lp1338
g61
(g62
g63
NtRp1339
(dp1340
g66
(dp1341
g74
I3
ssg75
g1335
sg68
(lp1342
S'7'
asbasbasbag61
(g77
g63
NtRp1343
(dp1344
g66
(dp1345
sg75
g1302
sg68
(lp1346
g61
(g82
g63
NtRp1347
(dp1348
g66
(dp1349
sg75
g1343
sg68
(lp1350
g61
(g62
g63
NtRp1351
(dp1352
g66
(dp1353
g74
I3
ssg75
g1347
sg68
(lp1354
S'datetime.datetime(2012, 3, 4, 22, 12, 8)'
p1355
asbasbasbag61
(g77
g63
NtRp1356
(dp1357
g66
(dp1358
sg75
g1302
sg68
(lp1359
g61
(g82
g63
NtRp1360
(dp1361
g66
(dp1362
sg75
g1356
sg68
(lp1363
g61
(g62
g63
NtRp1364
(dp1365
g66
(dp1366
g74
I3
ssg75
g1360
sg68
(lp1367
S'stable'
p1368
asbasbasbasbasbasbasbag61
(g77
g63
NtRp1369
(dp1370
g66
(dp1371
sg75
g600
sg68
(lp1372
g61
(g82
g63
NtRp1373
(dp1374
g66
(dp1375
g86
g87
ssg75
g1369
sg68
(lp1376
S'wsgi_errors'
p1377
asbag61
(g82
g63
NtRp1378
(dp1379
g66
(dp1380
g93
g94
ssg75
g1369
sg68
(lp1381
S':'
asbag61
(g82
g63
NtRp1382
(dp1383
g66
(dp1384
sg75
g1369
sg68
(lp1385
g61
(g62
g63
NtRp1386
(dp1387
g66
(dp1388
g74
I4
ssg75
g1382
sg68
(lp1389
S'<__main__.Stderr object at 0x00486670>'
p1390
asbasbasbag61
(g77
g63
NtRp1391
(dp1392
g66
(dp1393
sg75
g600
sg68
(lp1394
g61
(g82
g63
NtRp1395
(dp1396
g66
(dp1397
g86
g87
ssg75
g1391
sg68
(lp1398
S'wsgi_file_wrapper'
p1399
asbag61
(g82
g63
NtRp1400
(dp1401
g66
(dp1402
g93
g94
ssg75
g1391
sg68
(lp1403
S':'
asbag61
(g82
g63
NtRp1404
(dp1405
g66
(dp1406
sg75
g1391
sg68
(lp1407
g61
(g62
g63
NtRp1408
(dp1409
g66
(dp1410
g74
I4
ssg75
g1404
sg68
(lp1411
S'<class wsgiref.util.FileWrapper at 0x02E4DE10>'
p1412
asbasbasbag61
(g77
g63
NtRp1413
(dp1414
g66
(dp1415
sg75
g600
sg68
(lp1416
g61
(g82
g63
NtRp1417
(dp1418
g66
(dp1419
g86
g87
ssg75
g1413
sg68
(lp1420
S'wsgi_input'
p1421
asbag61
(g82
g63
NtRp1422
(dp1423
g66
(dp1424
g93
g94
ssg75
g1413
sg68
(lp1425
S':'
asbag61
(g82
g63
NtRp1426
(dp1427
g66
(dp1428
sg75
g1413
sg68
(lp1429
g61
(g62
g63
NtRp1430
(dp1431
g66
(dp1432
g74
I4
ssg75
g1426
sg68
(lp1433
S'<socket._fileobject object at 0x0305ADB0>'
p1434
asbasbasbag61
(g77
g63
NtRp1435
(dp1436
g66
(dp1437
sg75
g600
sg68
(lp1438
g61
(g82
g63
NtRp1439
(dp1440
g66
(dp1441
g86
g87
ssg75
g1435
sg68
(lp1442
S'wsgi_multiprocess'
p1443
asbag61
(g82
g63
NtRp1444
(dp1445
g66
(dp1446
g93
g94
ssg75
g1435
sg68
(lp1447
S':'
asbag61
(g82
g63
NtRp1448
(dp1449
g66
(dp1450
sg75
g1435
sg68
(lp1451
g61
(g62
g63
NtRp1452
(dp1453
g66
(dp1454
g74
I4
ssg75
g1448
sg68
(lp1455
g104
asbasbasbag61
(g77
g63
NtRp1456
(dp1457
g66
(dp1458
sg75
g600
sg68
(lp1459
g61
(g82
g63
NtRp1460
(dp1461
g66
(dp1462
g86
g87
ssg75
g1456
sg68
(lp1463
S'wsgi_multithread'
p1464
asbag61
(g82
g63
NtRp1465
(dp1466
g66
(dp1467
g93
g94
ssg75
g1456
sg68
(lp1468
S':'
asbag61
(g82
g63
NtRp1469
(dp1470
g66
(dp1471
sg75
g1456
sg68
(lp1472
g61
(g62
g63
NtRp1473
(dp1474
g66
(dp1475
g74
I4
ssg75
g1469
sg68
(lp1476
S'True'
p1477
asbasbasbag61
(g77
g63
NtRp1478
(dp1479
g66
(dp1480
sg75
g600
sg68
(lp1481
g61
(g82
g63
NtRp1482
(dp1483
g66
(dp1484
g86
g87
ssg75
g1478
sg68
(lp1485
S'wsgi_run_once'
p1486
asbag61
(g82
g63
NtRp1487
(dp1488
g66
(dp1489
g93
g94
ssg75
g1478
sg68
(lp1490
S':'
asbag61
(g82
g63
NtRp1491
(dp1492
g66
(dp1493
sg75
g1478
sg68
(lp1494
g61
(g62
g63
NtRp1495
(dp1496
g66
(dp1497
g74
I4
ssg75
g1491
sg68
(lp1498
g104
asbasbasbag61
(g77
g63
NtRp1499
(dp1500
g66
(dp1501
sg75
g600
sg68
(lp1502
g61
(g82
g63
NtRp1503
(dp1504
g66
(dp1505
g86
g87
ssg75
g1499
sg68
(lp1506
S'wsgi_url_scheme'
p1507
asbag61
(g82
g63
NtRp1508
(dp1509
g66
(dp1510
g93
g94
ssg75
g1499
sg68
(lp1511
S':'
asbag61
(g82
g63
NtRp1512
(dp1513
g66
(dp1514
sg75
g1499
sg68
(lp1515
g61
(g62
g63
NtRp1516
(dp1517
g66
(dp1518
g74
I4
ssg75
g1512
sg68
(lp1519
S'http'
p1520
asbasbasbag61
(g77
g63
NtRp1521
(dp1522
g66
(dp1523
sg75
g600
sg68
(lp1524
g61
(g82
g63
NtRp1525
(dp1526
g66
(dp1527
g86
g87
ssg75
g1521
sg68
(lp1528
S'wsgi_version'
p1529
asbag61
(g82
g63
NtRp1530
(dp1531
g66
(dp1532
g93
g94
ssg75
g1521
sg68
(lp1533
S':'
asbag61
(g82
g63
NtRp1534
(dp1535
g66
(dp1536
sg75
g1521
sg68
(lp1537
g61
(g62
g63
NtRp1538
(dp1539
g66
(dp1540
g74
I4
ssg75
g1534
sg68
(lp1541
g61
(g70
g63
NtRp1542
(dp1543
g66
(dp1544
g74
I3
ssg75
Nsg68
(lp1545
g61
(g77
g63
NtRp1546
(dp1547
g66
(dp1548
sg75
g1542
sg68
(lp1549
g61
(g82
g63
NtRp1550
(dp1551
g66
(dp1552
sg75
g1546
sg68
(lp1553
g61
(g62
g63
NtRp1554
(dp1555
g66
(dp1556
g74
I3
ssg75
g1550
sg68
(lp1557
S'1'
asbasbasbag61
(g77
g63
NtRp1558
(dp1559
g66
(dp1560
sg75
g1542
sg68
(lp1561
g61
(g82
g63
NtRp1562
(dp1563
g66
(dp1564
sg75
g1558
sg68
(lp1565
g61
(g62
g63
NtRp1566
(dp1567
g66
(dp1568
g74
I3
ssg75
g1562
sg68
(lp1569
S'0'
asbasbasbasbasbasbasbasbasbasbasbag61
(g77
g63
NtRp1570
(dp1571
g66
(dp1572
sg75
g71
sg68
(lp1573
g61
(g82
g63
NtRp1574
(dp1575
g66
(dp1576
g86
g87
ssg75
g1570
sg68
(lp1577
S'extension'
p1578
asbag61
(g82
g63
NtRp1579
(dp1580
g66
(dp1581
g93
g94
ssg75
g1570
sg68
(lp1582
S':'
asbag61
(g82
g63
NtRp1583
(dp1584
g66
(dp1585
sg75
g1570
sg68
(lp1586
g61
(g62
g63
NtRp1587
(dp1588
g66
(dp1589
g74
I5
ssg75
g1583
sg68
(lp1590
S'html'
p1591
asbasbasbag61
(g77
g63
NtRp1592
(dp1593
g66
(dp1594
sg75
g71
sg68
(lp1595
g61
(g82
g63
NtRp1596
(dp1597
g66
(dp1598
g86
g87
ssg75
g1592
sg68
(lp1599
S'folder'
p1600
asbag61
(g82
g63
NtRp1601
(dp1602
g66
(dp1603
g93
g94
ssg75
g1592
sg68
(lp1604
S':'
asbag61
(g82
g63
NtRp1605
(dp1606
g66
(dp1607
sg75
g1592
sg68
(lp1608
g61
(g62
g63
NtRp1609
(dp1610
g66
(dp1611
g74
I5
ssg75
g1605
sg68
(lp1612
S'C:\\web2py\\applications\\unioeste_code\\'
p1613
asbasbasbag61
(g77
g63
NtRp1614
(dp1615
g66
(dp1616
sg75
g71
sg68
(lp1617
g61
(g82
g63
NtRp1618
(dp1619
g66
(dp1620
g86
g87
ssg75
g1614
sg68
(lp1621
S'function'
p1622
asbag61
(g82
g63
NtRp1623
(dp1624
g66
(dp1625
g93
g94
ssg75
g1614
sg68
(lp1626
S':'
asbag61
(g82
g63
NtRp1627
(dp1628
g66
(dp1629
sg75
g1614
sg68
(lp1630
g61
(g62
g63
NtRp1631
(dp1632
g66
(dp1633
g74
I5
ssg75
g1627
sg68
(lp1634
S'index'
p1635
asbasbasbag61
(g77
g63
NtRp1636
(dp1637
g66
(dp1638
sg75
g71
sg68
(lp1639
g61
(g82
g63
NtRp1640
(dp1641
g66
(dp1642
g86
g87
ssg75
g1636
sg68
(lp1643
S'get_vars'
p1644
asbag61
(g82
g63
NtRp1645
(dp1646
g66
(dp1647
g93
g94
ssg75
g1636
sg68
(lp1648
S':'
asbag61
(g82
g63
NtRp1649
(dp1650
g66
(dp1651
sg75
g1636
sg68
(lp1652
g61
(g62
g63
NtRp1653
(dp1654
g66
(dp1655
g74
I5
ssg75
g1649
sg68
(lp1656
g61
(g70
g63
NtRp1657
(dp1658
g66
(dp1659
g74
I4
ssg75
Nsg68
(lp1660
sbasbasbasbag61
(g77
g63
NtRp1661
(dp1662
g66
(dp1663
sg75
g71
sg68
(lp1664
g61
(g82
g63
NtRp1665
(dp1666
g66
(dp1667
g86
g87
ssg75
g1661
sg68
(lp1668
S'global_settings'
p1669
asbag61
(g82
g63
NtRp1670
(dp1671
g66
(dp1672
g93
g94
ssg75
g1661
sg68
(lp1673
S':'
asbag61
(g82
g63
NtRp1674
(dp1675
g66
(dp1676
sg75
g1661
sg68
(lp1677
g61
(g62
g63
NtRp1678
(dp1679
g66
(dp1680
g74
I5
ssg75
g1674
sg68
(lp1681
g61
(g70
g63
NtRp1682
(dp1683
g66
(dp1684
g74
I4
ssg75
Nsg68
(lp1685
g61
(g77
g63
NtRp1686
(dp1687
g66
(dp1688
sg75
g1682
sg68
(lp1689
g61
(g82
g63
NtRp1690
(dp1691
g66
(dp1692
g86
g87
ssg75
g1686
sg68
(lp1693
g612
asbag61
(g82
g63
NtRp1694
(dp1695
g66
(dp1696
g93
g94
ssg75
g1686
sg68
(lp1697
S':'
asbag61
(g82
g63
NtRp1698
(dp1699
g66
(dp1700
sg75
g1686
sg68
(lp1701
g61
(g62
g63
NtRp1702
(dp1703
g66
(dp1704
g74
I4
ssg75
g1698
sg68
(lp1705
S"set(['C:\\\\web2py\\\\applications\\\\welcome\\\\', 'C:\\\\web2py\\\\applications\\\\unioeste_code\\\\'])"
p1706
asbasbasbag61
(g77
g63
NtRp1707
(dp1708
g66
(dp1709
sg75
g1682
sg68
(lp1710
g61
(g82
g63
NtRp1711
(dp1712
g66
(dp1713
g86
g87
ssg75
g1707
sg68
(lp1714
g634
asbag61
(g82
g63
NtRp1715
(dp1716
g66
(dp1717
g93
g94
ssg75
g1707
sg68
(lp1718
S':'
asbag61
(g82
g63
NtRp1719
(dp1720
g66
(dp1721
sg75
g1707
sg68
(lp1722
g61
(g62
g63
NtRp1723
(dp1724
g66
(dp1725
g74
I4
ssg75
g1719
sg68
(lp1726
g647
asbasbasbag61
(g77
g63
NtRp1727
(dp1728
g66
(dp1729
sg75
g1682
sg68
(lp1730
g61
(g82
g63
NtRp1731
(dp1732
g66
(dp1733
g86
g87
ssg75
g1727
sg68
(lp1734
g656
asbag61
(g82
g63
NtRp1735
(dp1736
g66
(dp1737
g93
g94
ssg75
g1727
sg68
(lp1738
S':'
asbag61
(g82
g63
NtRp1739
(dp1740
g66
(dp1741
sg75
g1727
sg68
(lp1742
g61
(g62
g63
NtRp1743
(dp1744
g66
(dp1745
g74
I4
ssg75
g1739
sg68
(lp1746
g61
(g70
g63
NtRp1747
(dp1748
g66
(dp1749
g74
I3
ssg75
Nsg68
(lp1750
sbasbasbasbag61
(g77
g63
NtRp1751
(dp1752
g66
(dp1753
sg75
g1682
sg68
(lp1754
g61
(g82
g63
NtRp1755
(dp1756
g66
(dp1757
g86
g87
ssg75
g1751
sg68
(lp1758
g681
asbag61
(g82
g63
NtRp1759
(dp1760
g66
(dp1761
g93
g94
ssg75
g1751
sg68
(lp1762
S':'
asbag61
(g82
g63
NtRp1763
(dp1764
g66
(dp1765
sg75
g1751
sg68
(lp1766
g61
(g62
g63
NtRp1767
(dp1768
g66
(dp1769
g74
I4
ssg75
g1763
sg68
(lp1770
S"<Values at 0x305c300: {'verbose': False, 'ip': '127.0.0.1', 'shutdown_timeout': 5, 'taskbar': False, 'nocron': False, 'pid_filename': 'httpserver.pid', 'maxthreads': None, 'softcron': False, 'server_name': 'Pedro-PC', 'bpython': False, 'nogui': False, 'port': 8000, 'extcron': False, 'debuglevel': 30, 'test': None, 'folder': 'C:\\\\web2py', 'config': '', 'import_models': False, 'winservice': '', 'shell': None, 'run': '', 'log_filename': 'httpserver.log', 'args': [''], 'socket_timeout': 5, 'ssl_ca_certificate': None, 'scheduler': None, 'profiler_filename': None, 'ssl_private_key': '', 'password': '<ask>', 'request_queue_size': 5, 'ssl_certificate': '', 'cronjob': False, 'numthreads': None, 'quiet': False, 'interfaces': None, 'minthreads': None, 'timeout': 10, 'plain': False, 'nobanner': False}>"
p1771
asbasbasbag61
(g77
g63
NtRp1772
(dp1773
g66
(dp1774
sg75
g1682
sg68
(lp1775
g61
(g82
g63
NtRp1776
(dp1777
g66
(dp1778
g86
g87
ssg75
g1772
sg68
(lp1779
g703
asbag61
(g82
g63
NtRp1780
(dp1781
g66
(dp1782
g93
g94
ssg75
g1772
sg68
(lp1783
S':'
asbag61
(g82
g63
NtRp1784
(dp1785
g66
(dp1786
sg75
g1772
sg68
(lp1787
g61
(g62
g63
NtRp1788
(dp1789
g66
(dp1790
g74
I4
ssg75
g1784
sg68
(lp1791
S'set([])'
p1792
asbasbasbag61
(g77
g63
NtRp1793
(dp1794
g66
(dp1795
sg75
g1682
sg68
(lp1796
g61
(g82
g63
NtRp1797
(dp1798
g66
(dp1799
g86
g87
ssg75
g1793
sg68
(lp1800
g725
asbag61
(g82
g63
NtRp1801
(dp1802
g66
(dp1803
g93
g94
ssg75
g1793
sg68
(lp1804
S':'
asbag61
(g82
g63
NtRp1805
(dp1806
g66
(dp1807
sg75
g1793
sg68
(lp1808
g61
(g62
g63
NtRp1809
(dp1810
g66
(dp1811
g74
I4
ssg75
g1805
sg68
(lp1812
g104
asbasbasbag61
(g77
g63
NtRp1813
(dp1814
g66
(dp1815
sg75
g1682
sg68
(lp1816
g61
(g82
g63
NtRp1817
(dp1818
g66
(dp1819
g86
g87
ssg75
g1813
sg68
(lp1820
g746
asbag61
(g82
g63
NtRp1821
(dp1822
g66
(dp1823
g93
g94
ssg75
g1813
sg68
(lp1824
S':'
asbag61
(g82
g63
NtRp1825
(dp1826
g66
(dp1827
sg75
g1813
sg68
(lp1828
g61
(g62
g63
NtRp1829
(dp1830
g66
(dp1831
g74
I4
ssg75
g1825
sg68
(lp1832
g759
asbasbasbag61
(g77
g63
NtRp1833
(dp1834
g66
(dp1835
sg75
g1682
sg68
(lp1836
g61
(g82
g63
NtRp1837
(dp1838
g66
(dp1839
g86
g87
ssg75
g1833
sg68
(lp1840
g987
asbag61
(g82
g63
NtRp1841
(dp1842
g66
(dp1843
g93
g94
ssg75
g1833
sg68
(lp1844
S':'
asbag61
(g82
g63
NtRp1845
(dp1846
g66
(dp1847
sg75
g1833
sg68
(lp1848
g61
(g62
g63
NtRp1849
(dp1850
g66
(dp1851
g74
I4
ssg75
g1845
sg68
(lp1852
g104
asbasbasbag61
(g77
g63
NtRp1853
(dp1854
g66
(dp1855
sg75
g1682
sg68
(lp1856
g61
(g82
g63
NtRp1857
(dp1858
g66
(dp1859
g86
g87
ssg75
g1853
sg68
(lp1860
g1008
asbag61
(g82
g63
NtRp1861
(dp1862
g66
(dp1863
g93
g94
ssg75
g1853
sg68
(lp1864
S':'
asbag61
(g82
g63
NtRp1865
(dp1866
g66
(dp1867
sg75
g1853
sg68
(lp1868
g61
(g62
g63
NtRp1869
(dp1870
g66
(dp1871
g74
I4
ssg75
g1865
sg68
(lp1872
g104
asbasbasbag61
(g77
g63
NtRp1873
(dp1874
g66
(dp1875
sg75
g1682
sg68
(lp1876
g61
(g82
g63
NtRp1877
(dp1878
g66
(dp1879
g86
g87
ssg75
g1873
sg68
(lp1880
g1246
asbag61
(g82
g63
NtRp1881
(dp1882
g66
(dp1883
g93
g94
ssg75
g1873
sg68
(lp1884
S':'
asbag61
(g82
g63
NtRp1885
(dp1886
g66
(dp1887
sg75
g1873
sg68
(lp1888
g61
(g62
g63
NtRp1889
(dp1890
g66
(dp1891
g74
I4
ssg75
g1885
sg68
(lp1892
g1259
asbasbasbag61
(g77
g63
NtRp1893
(dp1894
g66
(dp1895
sg75
g1682
sg68
(lp1896
g61
(g82
g63
NtRp1897
(dp1898
g66
(dp1899
g86
g87
ssg75
g1893
sg68
(lp1900
g1289
asbag61
(g82
g63
NtRp1901
(dp1902
g66
(dp1903
g93
g94
ssg75
g1893
sg68
(lp1904
S':'
asbag61
(g82
g63
NtRp1905
(dp1906
g66
(dp1907
sg75
g1893
sg68
(lp1908
g61
(g62
g63
NtRp1909
(dp1910
g66
(dp1911
g74
I4
ssg75
g1905
sg68
(lp1912
g61
(g70
g63
NtRp1913
(dp1914
g66
(dp1915
g74
I3
ssg75
Nsg68
(lp1916
g61
(g77
g63
NtRp1917
(dp1918
g66
(dp1919
sg75
g1913
sg68
(lp1920
g61
(g82
g63
NtRp1921
(dp1922
g66
(dp1923
sg75
g1917
sg68
(lp1924
g61
(g62
g63
NtRp1925
(dp1926
g66
(dp1927
g74
I3
ssg75
g1921
sg68
(lp1928
S'1'
asbasbasbag61
(g77
g63
NtRp1929
(dp1930
g66
(dp1931
sg75
g1913
sg68
(lp1932
g61
(g82
g63
NtRp1933
(dp1934
g66
(dp1935
sg75
g1929
sg68
(lp1936
g61
(g62
g63
NtRp1937
(dp1938
g66
(dp1939
g74
I3
ssg75
g1933
sg68
(lp1940
S'99'
p1941
asbasbasbag61
(g77
g63
NtRp1942
(dp1943
g66
(dp1944
sg75
g1913
sg68
(lp1945
g61
(g82
g63
NtRp1946
(dp1947
g66
(dp1948
sg75
g1942
sg68
(lp1949
g61
(g62
g63
NtRp1950
(dp1951
g66
(dp1952
g74
I3
ssg75
g1946
sg68
(lp1953
S'7'
asbasbasbag61
(g77
g63
NtRp1954
(dp1955
g66
(dp1956
sg75
g1913
sg68
(lp1957
g61
(g82
g63
NtRp1958
(dp1959
g66
(dp1960
sg75
g1954
sg68
(lp1961
g61
(g62
g63
NtRp1962
(dp1963
g66
(dp1964
g74
I3
ssg75
g1958
sg68
(lp1965
S'datetime.datetime(2012, 3, 4, 22, 12, 8)'
p1966
asbasbasbag61
(g77
g63
NtRp1967
(dp1968
g66
(dp1969
sg75
g1913
sg68
(lp1970
g61
(g82
g63
NtRp1971
(dp1972
g66
(dp1973
sg75
g1967
sg68
(lp1974
g61
(g62
g63
NtRp1975
(dp1976
g66
(dp1977
g74
I3
ssg75
g1971
sg68
(lp1978
g1368
asbasbasbasbasbasbasbasbasbasbasbag61
(g77
g63
NtRp1979
(dp1980
g66
(dp1981
sg75
g71
sg68
(lp1982
g61
(g82
g63
NtRp1983
(dp1984
g66
(dp1985
g86
g87
ssg75
g1979
sg68
(lp1986
S'is_https'
p1987
asbag61
(g82
g63
NtRp1988
(dp1989
g66
(dp1990
g93
g94
ssg75
g1979
sg68
(lp1991
S':'
asbag61
(g82
g63
NtRp1992
(dp1993
g66
(dp1994
sg75
g1979
sg68
(lp1995
g61
(g62
g63
NtRp1996
(dp1997
g66
(dp1998
g74
I5
ssg75
g1992
sg68
(lp1999
g104
asbasbasbag61
(g77
g63
NtRp2000
(dp2001
g66
(dp2002
sg75
g71
sg68
(lp2003
g61
(g82
g63
NtRp2004
(dp2005
g66
(dp2006
g86
g87
ssg75
g2000
sg68
(lp2007
S'is_local'
p2008
asbag61
(g82
g63
NtRp2009
(dp2010
g66
(dp2011
g93
g94
ssg75
g2000
sg68
(lp2012
S':'
asbag61
(g82
g63
NtRp2013
(dp2014
g66
(dp2015
sg75
g2000
sg68
(lp2016
g61
(g62
g63
NtRp2017
(dp2018
g66
(dp2019
g74
I5
ssg75
g2013
sg68
(lp2020
g1477
asbasbasbag61
(g77
g63
NtRp2021
(dp2022
g66
(dp2023
sg75
g71
sg68
(lp2024
g61
(g82
g63
NtRp2025
(dp2026
g66
(dp2027
g86
g87
ssg75
g2021
sg68
(lp2028
S'is_restful'
p2029
asbag61
(g82
g63
NtRp2030
(dp2031
g66
(dp2032
g93
g94
ssg75
g2021
sg68
(lp2033
S':'
asbag61
(g82
g63
NtRp2034
(dp2035
g66
(dp2036
sg75
g2021
sg68
(lp2037
g61
(g62
g63
NtRp2038
(dp2039
g66
(dp2040
g74
I5
ssg75
g2034
sg68
(lp2041
g104
asbasbasbag61
(g77
g63
NtRp2042
(dp2043
g66
(dp2044
sg75
g71
sg68
(lp2045
g61
(g82
g63
NtRp2046
(dp2047
g66
(dp2048
g86
g87
ssg75
g2042
sg68
(lp2049
S'now'
p2050
asbag61
(g82
g63
NtRp2051
(dp2052
g66
(dp2053
g93
g94
ssg75
g2042
sg68
(lp2054
S':'
asbag61
(g82
g63
NtRp2055
(dp2056
g66
(dp2057
sg75
g2042
sg68
(lp2058
g61
(g62
g63
NtRp2059
(dp2060
g66
(dp2061
g74
I5
ssg75
g2055
sg68
(lp2062
S'datetime.datetime(2012, 8, 3, 4, 14, 46, 216000)'
p2063
asbasbasbag61
(g77
g63
NtRp2064
(dp2065
g66
(dp2066
sg75
g71
sg68
(lp2067
g61
(g82
g63
NtRp2068
(dp2069
g66
(dp2070
g86
g87
ssg75
g2064
sg68
(lp2071
S'post_vars'
p2072
asbag61
(g82
g63
NtRp2073
(dp2074
g66
(dp2075
g93
g94
ssg75
g2064
sg68
(lp2076
S':'
asbag61
(g82
g63
NtRp2077
(dp2078
g66
(dp2079
sg75
g2064
sg68
(lp2080
g61
(g62
g63
NtRp2081
(dp2082
g66
(dp2083
g74
I5
ssg75
g2077
sg68
(lp2084
g61
(g70
g63
NtRp2085
(dp2086
g66
(dp2087
g74
I4
ssg75
Nsg68
(lp2088
sbasbasbasbag61
(g77
g63
NtRp2089
(dp2090
g66
(dp2091
sg75
g71
sg68
(lp2092
g61
(g82
g63
NtRp2093
(dp2094
g66
(dp2095
g86
g87
ssg75
g2089
sg68
(lp2096
S'url'
p2097
asbag61
(g82
g63
NtRp2098
(dp2099
g66
(dp2100
g93
g94
ssg75
g2089
sg68
(lp2101
S':'
asbag61
(g82
g63
NtRp2102
(dp2103
g66
(dp2104
sg75
g2089
sg68
(lp2105
g61
(g62
g63
NtRp2106
(dp2107
g66
(dp2108
g74
I5
ssg75
g2102
sg68
(lp2109
S'/unioeste_code/default/index'
p2110
asbasbasbag61
(g77
g63
NtRp2111
(dp2112
g66
(dp2113
sg75
g71
sg68
(lp2114
g61
(g82
g63
NtRp2115
(dp2116
g66
(dp2117
g86
g87
ssg75
g2111
sg68
(lp2118
S'utcnow'
p2119
asbag61
(g82
g63
NtRp2120
(dp2121
g66
(dp2122
g93
g94
ssg75
g2111
sg68
(lp2123
S':'
asbag61
(g82
g63
NtRp2124
(dp2125
g66
(dp2126
sg75
g2111
sg68
(lp2127
g61
(g62
g63
NtRp2128
(dp2129
g66
(dp2130
g74
I5
ssg75
g2124
sg68
(lp2131
S'datetime.datetime(2012, 8, 3, 7, 14, 46, 216000)'
p2132
asbasbasbag61
(g77
g63
NtRp2133
(dp2134
g66
(dp2135
sg75
g71
sg68
(lp2136
g61
(g82
g63
NtRp2137
(dp2138
g66
(dp2139
g86
g87
ssg75
g2133
sg68
(lp2140
S'uuid'
p2141
asbag61
(g82
g63
NtRp2142
(dp2143
g66
(dp2144
g93
g94
ssg75
g2133
sg68
(lp2145
S':'
asbag61
(g82
g63
NtRp2146
(dp2147
g66
(dp2148
sg75
g2133
sg68
(lp2149
g61
(g62
g63
NtRp2150
(dp2151
g66
(dp2152
g74
I5
ssg75
g2146
sg68
(lp2153
S'unioeste_code/127.0.0.1.2012-08-03.04-14-46.e2c15761-c51f-4f0f-9d64-82654767757e'
p2154
asbasbasbag61
(g77
g63
NtRp2155
(dp2156
g66
(dp2157
sg75
g71
sg68
(lp2158
g61
(g82
g63
NtRp2159
(dp2160
g66
(dp2161
g86
g87
ssg75
g2155
sg68
(lp2162
S'vars'
p2163
asbag61
(g82
g63
NtRp2164
(dp2165
g66
(dp2166
g93
g94
ssg75
g2155
sg68
(lp2167
S':'
asbag61
(g82
g63
NtRp2168
(dp2169
g66
(dp2170
sg75
g2155
sg68
(lp2171
g61
(g62
g63
NtRp2172
(dp2173
g66
(dp2174
g74
I5
ssg75
g2168
sg68
(lp2175
g61
(g70
g63
NtRp2176
(dp2177
g66
(dp2178
g74
I4
ssg75
Nsg68
(lp2179
sbasbasbasbag61
(g77
g63
NtRp2180
(dp2181
g66
(dp2182
sg75
g71
sg68
(lp2183
g61
(g82
g63
NtRp2184
(dp2185
g66
(dp2186
g86
g87
ssg75
g2180
sg68
(lp2187
S'wsgi'
p2188
asbag61
(g82
g63
NtRp2189
(dp2190
g66
(dp2191
g93
g94
ssg75
g2180
sg68
(lp2192
S':'
asbag61
(g82
g63
NtRp2193
(dp2194
g66
(dp2195
sg75
g2180
sg68
(lp2196
g61
(g62
g63
NtRp2197
(dp2198
g66
(dp2199
g74
I5
ssg75
g2193
sg68
(lp2200
g61
(g70
g63
NtRp2201
(dp2202
g66
(dp2203
g74
I4
ssg75
Nsg68
(lp2204
g61
(g77
g63
NtRp2205
(dp2206
g66
(dp2207
sg75
g2201
sg68
(lp2208
g61
(g82
g63
NtRp2209
(dp2210
g66
(dp2211
g86
g87
ssg75
g2205
sg68
(lp2212
S'environ'
p2213
asbag61
(g82
g63
NtRp2214
(dp2215
g66
(dp2216
g93
g94
ssg75
g2205
sg68
(lp2217
S':'
asbag61
(g82
g63
NtRp2218
(dp2219
g66
(dp2220
sg75
g2205
sg68
(lp2221
g61
(g62
g63
NtRp2222
(dp2223
g66
(dp2224
g74
I4
ssg75
g2218
sg68
(lp2225
g61
(g70
g63
NtRp2226
(dp2227
g66
(dp2228
g74
I3
ssg75
Nsg68
(lp2229
g61
(g77
g63
NtRp2230
(dp2231
g66
(dp2232
sg75
g2226
sg68
(lp2233
g61
(g82
g63
NtRp2234
(dp2235
g66
(dp2236
g86
g87
ssg75
g2230
sg68
(lp2237
S'HTTP_ACCEPT'
p2238
asbag61
(g82
g63
NtRp2239
(dp2240
g66
(dp2241
g93
g94
ssg75
g2230
sg68
(lp2242
S':'
asbag61
(g82
g63
NtRp2243
(dp2244
g66
(dp2245
sg75
g2230
sg68
(lp2246
g61
(g62
g63
NtRp2247
(dp2248
g66
(dp2249
g74
I3
ssg75
g2243
sg68
(lp2250
g781
asbasbasbag61
(g77
g63
NtRp2251
(dp2252
g66
(dp2253
sg75
g2226
sg68
(lp2254
g61
(g82
g63
NtRp2255
(dp2256
g66
(dp2257
g86
g87
ssg75
g2251
sg68
(lp2258
S'HTTP_ACCEPT_CHARSET'
p2259
asbag61
(g82
g63
NtRp2260
(dp2261
g66
(dp2262
g93
g94
ssg75
g2251
sg68
(lp2263
S':'
asbag61
(g82
g63
NtRp2264
(dp2265
g66
(dp2266
sg75
g2251
sg68
(lp2267
g61
(g62
g63
NtRp2268
(dp2269
g66
(dp2270
g74
I3
ssg75
g2264
sg68
(lp2271
g803
asbasbasbag61
(g77
g63
NtRp2272
(dp2273
g66
(dp2274
sg75
g2226
sg68
(lp2275
g61
(g82
g63
NtRp2276
(dp2277
g66
(dp2278
g86
g87
ssg75
g2272
sg68
(lp2279
S'HTTP_ACCEPT_ENCODING'
p2280
asbag61
(g82
g63
NtRp2281
(dp2282
g66
(dp2283
g93
g94
ssg75
g2272
sg68
(lp2284
S':'
asbag61
(g82
g63
NtRp2285
(dp2286
g66
(dp2287
sg75
g2272
sg68
(lp2288
g61
(g62
g63
NtRp2289
(dp2290
g66
(dp2291
g74
I3
ssg75
g2285
sg68
(lp2292
g825
asbasbasbag61
(g77
g63
NtRp2293
(dp2294
g66
(dp2295
sg75
g2226
sg68
(lp2296
g61
(g82
g63
NtRp2297
(dp2298
g66
(dp2299
g86
g87
ssg75
g2293
sg68
(lp2300
S'HTTP_ACCEPT_LANGUAGE'
p2301
asbag61
(g82
g63
NtRp2302
(dp2303
g66
(dp2304
g93
g94
ssg75
g2293
sg68
(lp2305
S':'
asbag61
(g82
g63
NtRp2306
(dp2307
g66
(dp2308
sg75
g2293
sg68
(lp2309
g61
(g62
g63
NtRp2310
(dp2311
g66
(dp2312
g74
I3
ssg75
g2306
sg68
(lp2313
g847
asbasbasbag61
(g77
g63
NtRp2314
(dp2315
g66
(dp2316
sg75
g2226
sg68
(lp2317
g61
(g82
g63
NtRp2318
(dp2319
g66
(dp2320
g86
g87
ssg75
g2314
sg68
(lp2321
S'HTTP_CACHE_CONTROL'
p2322
asbag61
(g82
g63
NtRp2323
(dp2324
g66
(dp2325
g93
g94
ssg75
g2314
sg68
(lp2326
S':'
asbag61
(g82
g63
NtRp2327
(dp2328
g66
(dp2329
sg75
g2314
sg68
(lp2330
g61
(g62
g63
NtRp2331
(dp2332
g66
(dp2333
g74
I3
ssg75
g2327
sg68
(lp2334
g869
asbasbasbag61
(g77
g63
NtRp2335
(dp2336
g66
(dp2337
sg75
g2226
sg68
(lp2338
g61
(g82
g63
NtRp2339
(dp2340
g66
(dp2341
g86
g87
ssg75
g2335
sg68
(lp2342
S'HTTP_CONNECTION'
p2343
asbag61
(g82
g63
NtRp2344
(dp2345
g66
(dp2346
g93
g94
ssg75
g2335
sg68
(lp2347
S':'
asbag61
(g82
g63
NtRp2348
(dp2349
g66
(dp2350
sg75
g2335
sg68
(lp2351
g61
(g62
g63
NtRp2352
(dp2353
g66
(dp2354
g74
I3
ssg75
g2348
sg68
(lp2355
g891
asbasbasbag61
(g77
g63
NtRp2356
(dp2357
g66
(dp2358
sg75
g2226
sg68
(lp2359
g61
(g82
g63
NtRp2360
(dp2361
g66
(dp2362
g86
g87
ssg75
g2356
sg68
(lp2363
S'HTTP_COOKIE'
p2364
asbag61
(g82
g63
NtRp2365
(dp2366
g66
(dp2367
g93
g94
ssg75
g2356
sg68
(lp2368
S':'
asbag61
(g82
g63
NtRp2369
(dp2370
g66
(dp2371
sg75
g2356
sg68
(lp2372
g61
(g62
g63
NtRp2373
(dp2374
g66
(dp2375
g74
I3
ssg75
g2369
sg68
(lp2376
g913
asbasbasbag61
(g77
g63
NtRp2377
(dp2378
g66
(dp2379
sg75
g2226
sg68
(lp2380
g61
(g82
g63
NtRp2381
(dp2382
g66
(dp2383
g86
g87
ssg75
g2377
sg68
(lp2384
S'HTTP_DNT'
p2385
asbag61
(g82
g63
NtRp2386
(dp2387
g66
(dp2388
g93
g94
ssg75
g2377
sg68
(lp2389
S':'
asbag61
(g82
g63
NtRp2390
(dp2391
g66
(dp2392
sg75
g2377
sg68
(lp2393
g61
(g62
g63
NtRp2394
(dp2395
g66
(dp2396
g74
I3
ssg75
g2390
sg68
(lp2397
S'1'
asbasbasbag61
(g77
g63
NtRp2398
(dp2399
g66
(dp2400
sg75
g2226
sg68
(lp2401
g61
(g82
g63
NtRp2402
(dp2403
g66
(dp2404
g86
g87
ssg75
g2398
sg68
(lp2405
S'HTTP_HOST'
p2406
asbag61
(g82
g63
NtRp2407
(dp2408
g66
(dp2409
g93
g94
ssg75
g2398
sg68
(lp2410
S':'
asbag61
(g82
g63
NtRp2411
(dp2412
g66
(dp2413
sg75
g2398
sg68
(lp2414
g61
(g62
g63
NtRp2415
(dp2416
g66
(dp2417
g74
I3
ssg75
g2411
sg68
(lp2418
g956
asbasbasbag61
(g77
g63
NtRp2419
(dp2420
g66
(dp2421
sg75
g2226
sg68
(lp2422
g61
(g82
g63
NtRp2423
(dp2424
g66
(dp2425
g86
g87
ssg75
g2419
sg68
(lp2426
S'HTTP_USER_AGENT'
p2427
asbag61
(g82
g63
NtRp2428
(dp2429
g66
(dp2430
g93
g94
ssg75
g2419
sg68
(lp2431
S':'
asbag61
(g82
g63
NtRp2432
(dp2433
g66
(dp2434
sg75
g2419
sg68
(lp2435
g61
(g62
g63
NtRp2436
(dp2437
g66
(dp2438
g74
I3
ssg75
g2432
sg68
(lp2439
g978
asbasbasbag61
(g77
g63
NtRp2440
(dp2441
g66
(dp2442
sg75
g2226
sg68
(lp2443
g61
(g82
g63
NtRp2444
(dp2445
g66
(dp2446
g86
g87
ssg75
g2440
sg68
(lp2447
S'PATH_INFO'
p2448
asbag61
(g82
g63
NtRp2449
(dp2450
g66
(dp2451
g93
g94
ssg75
g2440
sg68
(lp2452
S':'
asbag61
(g82
g63
NtRp2453
(dp2454
g66
(dp2455
sg75
g2440
sg68
(lp2456
g61
(g62
g63
NtRp2457
(dp2458
g66
(dp2459
g74
I3
ssg75
g2453
sg68
(lp2460
g1042
asbasbasbag61
(g77
g63
NtRp2461
(dp2462
g66
(dp2463
sg75
g2226
sg68
(lp2464
g61
(g82
g63
NtRp2465
(dp2466
g66
(dp2467
g86
g87
ssg75
g2461
sg68
(lp2468
S'QUERY_STRING'
p2469
asbag61
(g82
g63
NtRp2470
(dp2471
g66
(dp2472
g93
g94
ssg75
g2461
sg68
(lp2473
S':'
asbag61
(g82
g63
NtRp2474
(dp2475
g66
(dp2476
sg75
g2461
sg68
(lp2477
g61
(g62
g63
NtRp2478
(dp2479
g66
(dp2480
g74
I3
ssg75
g2474
sg68
(lp2481
S''
asbasbasbag61
(g77
g63
NtRp2482
(dp2483
g66
(dp2484
sg75
g2226
sg68
(lp2485
g61
(g82
g63
NtRp2486
(dp2487
g66
(dp2488
g86
g87
ssg75
g2482
sg68
(lp2489
S'REMOTE_ADDR'
p2490
asbag61
(g82
g63
NtRp2491
(dp2492
g66
(dp2493
g93
g94
ssg75
g2482
sg68
(lp2494
S':'
asbag61
(g82
g63
NtRp2495
(dp2496
g66
(dp2497
sg75
g2482
sg68
(lp2498
g61
(g62
g63
NtRp2499
(dp2500
g66
(dp2501
g74
I3
ssg75
g2495
sg68
(lp2502
g194
asbasbasbag61
(g77
g63
NtRp2503
(dp2504
g66
(dp2505
sg75
g2226
sg68
(lp2506
g61
(g82
g63
NtRp2507
(dp2508
g66
(dp2509
g86
g87
ssg75
g2503
sg68
(lp2510
S'REMOTE_PORT'
p2511
asbag61
(g82
g63
NtRp2512
(dp2513
g66
(dp2514
g93
g94
ssg75
g2503
sg68
(lp2515
S':'
asbag61
(g82
g63
NtRp2516
(dp2517
g66
(dp2518
sg75
g2503
sg68
(lp2519
g61
(g62
g63
NtRp2520
(dp2521
g66
(dp2522
g74
I3
ssg75
g2516
sg68
(lp2523
g1106
asbasbasbag61
(g77
g63
NtRp2524
(dp2525
g66
(dp2526
sg75
g2226
sg68
(lp2527
g61
(g82
g63
NtRp2528
(dp2529
g66
(dp2530
g86
g87
ssg75
g2524
sg68
(lp2531
S'REQUEST_METHOD'
p2532
asbag61
(g82
g63
NtRp2533
(dp2534
g66
(dp2535
g93
g94
ssg75
g2524
sg68
(lp2536
S':'
asbag61
(g82
g63
NtRp2537
(dp2538
g66
(dp2539
sg75
g2524
sg68
(lp2540
g61
(g62
g63
NtRp2541
(dp2542
g66
(dp2543
g74
I3
ssg75
g2537
sg68
(lp2544
g1128
asbasbasbag61
(g77
g63
NtRp2545
(dp2546
g66
(dp2547
sg75
g2226
sg68
(lp2548
g61
(g82
g63
NtRp2549
(dp2550
g66
(dp2551
g86
g87
ssg75
g2545
sg68
(lp2552
S'SCRIPT_NAME'
p2553
asbag61
(g82
g63
NtRp2554
(dp2555
g66
(dp2556
g93
g94
ssg75
g2545
sg68
(lp2557
S':'
asbag61
(g82
g63
NtRp2558
(dp2559
g66
(dp2560
sg75
g2545
sg68
(lp2561
g61
(g62
g63
NtRp2562
(dp2563
g66
(dp2564
g74
I3
ssg75
g2558
sg68
(lp2565
S''
asbasbasbag61
(g77
g63
NtRp2566
(dp2567
g66
(dp2568
sg75
g2226
sg68
(lp2569
g61
(g82
g63
NtRp2570
(dp2571
g66
(dp2572
g86
g87
ssg75
g2566
sg68
(lp2573
S'SERVER_NAME'
p2574
asbag61
(g82
g63
NtRp2575
(dp2576
g66
(dp2577
g93
g94
ssg75
g2566
sg68
(lp2578
S':'
asbag61
(g82
g63
NtRp2579
(dp2580
g66
(dp2581
sg75
g2566
sg68
(lp2582
g61
(g62
g63
NtRp2583
(dp2584
g66
(dp2585
g74
I3
ssg75
g2579
sg68
(lp2586
g1171
asbasbasbag61
(g77
g63
NtRp2587
(dp2588
g66
(dp2589
sg75
g2226
sg68
(lp2590
g61
(g82
g63
NtRp2591
(dp2592
g66
(dp2593
g86
g87
ssg75
g2587
sg68
(lp2594
S'SERVER_PORT'
p2595
asbag61
(g82
g63
NtRp2596
(dp2597
g66
(dp2598
g93
g94
ssg75
g2587
sg68
(lp2599
S':'
asbag61
(g82
g63
NtRp2600
(dp2601
g66
(dp2602
sg75
g2587
sg68
(lp2603
g61
(g62
g63
NtRp2604
(dp2605
g66
(dp2606
g74
I3
ssg75
g2600
sg68
(lp2607
g1193
asbasbasbag61
(g77
g63
NtRp2608
(dp2609
g66
(dp2610
sg75
g2226
sg68
(lp2611
g61
(g82
g63
NtRp2612
(dp2613
g66
(dp2614
g86
g87
ssg75
g2608
sg68
(lp2615
S'SERVER_PROTOCOL'
p2616
asbag61
(g82
g63
NtRp2617
(dp2618
g66
(dp2619
g93
g94
ssg75
g2608
sg68
(lp2620
S':'
asbag61
(g82
g63
NtRp2621
(dp2622
g66
(dp2623
sg75
g2608
sg68
(lp2624
g61
(g62
g63
NtRp2625
(dp2626
g66
(dp2627
g74
I3
ssg75
g2621
sg68
(lp2628
g1215
asbasbasbag61
(g77
g63
NtRp2629
(dp2630
g66
(dp2631
sg75
g2226
sg68
(lp2632
g61
(g82
g63
NtRp2633
(dp2634
g66
(dp2635
g86
g87
ssg75
g2629
sg68
(lp2636
S'SERVER_SOFTWARE'
p2637
asbag61
(g82
g63
NtRp2638
(dp2639
g66
(dp2640
g93
g94
ssg75
g2629
sg68
(lp2641
S':'
asbag61
(g82
g63
NtRp2642
(dp2643
g66
(dp2644
sg75
g2629
sg68
(lp2645
g61
(g62
g63
NtRp2646
(dp2647
g66
(dp2648
g74
I3
ssg75
g2642
sg68
(lp2649
g1237
asbasbasbag61
(g77
g63
NtRp2650
(dp2651
g66
(dp2652
sg75
g2226
sg68
(lp2653
g61
(g82
g63
NtRp2654
(dp2655
g66
(dp2656
g86
g87
ssg75
g2650
sg68
(lp2657
S'wsgi.errors'
p2658
asbag61
(g82
g63
NtRp2659
(dp2660
g66
(dp2661
g93
g94
ssg75
g2650
sg68
(lp2662
S':'
asbag61
(g82
g63
NtRp2663
(dp2664
g66
(dp2665
sg75
g2650
sg68
(lp2666
g61
(g62
g63
NtRp2667
(dp2668
g66
(dp2669
g74
I3
ssg75
g2663
sg68
(lp2670
S'<__main__.Stderr object at 0x00486670>'
p2671
asbasbasbag61
(g77
g63
NtRp2672
(dp2673
g66
(dp2674
sg75
g2226
sg68
(lp2675
g61
(g82
g63
NtRp2676
(dp2677
g66
(dp2678
g86
g87
ssg75
g2672
sg68
(lp2679
S'wsgi.file_wrapper'
p2680
asbag61
(g82
g63
NtRp2681
(dp2682
g66
(dp2683
g93
g94
ssg75
g2672
sg68
(lp2684
S':'
asbag61
(g82
g63
NtRp2685
(dp2686
g66
(dp2687
sg75
g2672
sg68
(lp2688
g61
(g62
g63
NtRp2689
(dp2690
g66
(dp2691
g74
I3
ssg75
g2685
sg68
(lp2692
S'<class wsgiref.util.FileWrapper at 0x02E4DE10>'
p2693
asbasbasbag61
(g77
g63
NtRp2694
(dp2695
g66
(dp2696
sg75
g2226
sg68
(lp2697
g61
(g82
g63
NtRp2698
(dp2699
g66
(dp2700
g86
g87
ssg75
g2694
sg68
(lp2701
S'wsgi.input'
p2702
asbag61
(g82
g63
NtRp2703
(dp2704
g66
(dp2705
g93
g94
ssg75
g2694
sg68
(lp2706
S':'
asbag61
(g82
g63
NtRp2707
(dp2708
g66
(dp2709
sg75
g2694
sg68
(lp2710
g61
(g62
g63
NtRp2711
(dp2712
g66
(dp2713
g74
I3
ssg75
g2707
sg68
(lp2714
S'<cStringIO.StringO object at 0x06197880>'
p2715
asbasbasbag61
(g77
g63
NtRp2716
(dp2717
g66
(dp2718
sg75
g2226
sg68
(lp2719
g61
(g82
g63
NtRp2720
(dp2721
g66
(dp2722
g86
g87
ssg75
g2716
sg68
(lp2723
S'wsgi.multiprocess'
p2724
asbag61
(g82
g63
NtRp2725
(dp2726
g66
(dp2727
g93
g94
ssg75
g2716
sg68
(lp2728
S':'
asbag61
(g82
g63
NtRp2729
(dp2730
g66
(dp2731
sg75
g2716
sg68
(lp2732
g61
(g62
g63
NtRp2733
(dp2734
g66
(dp2735
g74
I3
ssg75
g2729
sg68
(lp2736
g104
asbasbasbag61
(g77
g63
NtRp2737
(dp2738
g66
(dp2739
sg75
g2226
sg68
(lp2740
g61
(g82
g63
NtRp2741
(dp2742
g66
(dp2743
g86
g87
ssg75
g2737
sg68
(lp2744
S'wsgi.multithread'
p2745
asbag61
(g82
g63
NtRp2746
(dp2747
g66
(dp2748
g93
g94
ssg75
g2737
sg68
(lp2749
S':'
asbag61
(g82
g63
NtRp2750
(dp2751
g66
(dp2752
sg75
g2737
sg68
(lp2753
g61
(g62
g63
NtRp2754
(dp2755
g66
(dp2756
g74
I3
ssg75
g2750
sg68
(lp2757
g1477
asbasbasbag61
(g77
g63
NtRp2758
(dp2759
g66
(dp2760
sg75
g2226
sg68
(lp2761
g61
(g82
g63
NtRp2762
(dp2763
g66
(dp2764
g86
g87
ssg75
g2758
sg68
(lp2765
S'wsgi.run_once'
p2766
asbag61
(g82
g63
NtRp2767
(dp2768
g66
(dp2769
g93
g94
ssg75
g2758
sg68
(lp2770
S':'
asbag61
(g82
g63
NtRp2771
(dp2772
g66
(dp2773
sg75
g2758
sg68
(lp2774
g61
(g62
g63
NtRp2775
(dp2776
g66
(dp2777
g74
I3
ssg75
g2771
sg68
(lp2778
g104
asbasbasbag61
(g77
g63
NtRp2779
(dp2780
g66
(dp2781
sg75
g2226
sg68
(lp2782
g61
(g82
g63
NtRp2783
(dp2784
g66
(dp2785
g86
g87
ssg75
g2779
sg68
(lp2786
S'wsgi.url_scheme'
p2787
asbag61
(g82
g63
NtRp2788
(dp2789
g66
(dp2790
g93
g94
ssg75
g2779
sg68
(lp2791
S':'
asbag61
(g82
g63
NtRp2792
(dp2793
g66
(dp2794
sg75
g2779
sg68
(lp2795
g61
(g62
g63
NtRp2796
(dp2797
g66
(dp2798
g74
I3
ssg75
g2792
sg68
(lp2799
g1520
asbasbasbag61
(g77
g63
NtRp2800
(dp2801
g66
(dp2802
sg75
g2226
sg68
(lp2803
g61
(g82
g63
NtRp2804
(dp2805
g66
(dp2806
g86
g87
ssg75
g2800
sg68
(lp2807
S'wsgi.version'
p2808
asbag61
(g82
g63
NtRp2809
(dp2810
g66
(dp2811
g93
g94
ssg75
g2800
sg68
(lp2812
S':'
asbag61
(g82
g63
NtRp2813
(dp2814
g66
(dp2815
sg75
g2800
sg68
(lp2816
g61
(g62
g63
NtRp2817
(dp2818
g66
(dp2819
g74
I3
ssg75
g2813
sg68
(lp2820
S'1'
asbasbasbasbasbasbasbasbasbasbasbasbasbsS'frames'
p2821
(lp2822
(dp2823
S'file'
p2824
S'C:\\web2py\\gluon\\restricted.py'
p2825
sS'dump'
p2826
(dp2827
sS'lnum'
p2828
I204
sS'lines'
p2829
(dp2830
sS'call'
p2831
S'(code=\'response.write(\\\'<!DOCTYPE html>\\\\r\\\\n<html lang="e...n\\\\r\\\\n  </body>\\\\r\\\\n</html>\\\\r\\\\n\\\\r\\\\n\\\', escape=False)\', environment={\'A\': <class \'gluon.html.A\'>, \'Auth\': <class \'gluon.tools.Auth\'>, \'B\': <class \'gluon.html.B\'>, \'BEAUTIFY\': <class \'gluon.html.BEAUTIFY\'>, \'BODY\': <class \'gluon.html.BODY\'>, \'BR\': <class \'gluon.html.BR\'>, \'BUTTON\': <class \'gluon.html.BUTTON\'>, \'CAT\': <class \'gluon.html.CAT\'>, \'CENTER\': <class \'gluon.html.CENTER\'>, \'CLEANUP\': <class \'gluon.validators.CLEANUP\'>, ...}, layer=r\'C:\\web2py\\applications\\unioeste_code\\views\\default/index.html\')'
p2832
sS'func'
p2833
S'restricted'
p2834
sa(dp2835
g2824
S'C:\\web2py\\gluon\\restricted.py'
p2836
sg2826
(dp2837
sg2828
I189
sg2829
(dp2838
sg2831
S'(code=\'response.write(\\\'<!DOCTYPE html>\\\\r\\\\n<html lang="e...n\\\\r\\\\n  </body>\\\\r\\\\n</html>\\\\r\\\\n\\\\r\\\\n\\\', escape=False)\', layer=r\'C:\\web2py\\applications\\unioeste_code\\views\\default/index.html\')'
p2839
sg2833
S'compile2'
p2840
sasS'pyver'
p2841
S'Python 2.5.4: C:\\web2py\\web2py_no_console.exe'
p2842
sS'session'
p2843
g61
(g62
g63
NtRp2844
(dp2845
g66
(dp2846
sg68
(lp2847
g61
(g70
g63
NtRp2848
(dp2849
g66
(dp2850
g74
I5
ssg75
Nsg68
(lp2851
g61
(g77
g63
NtRp2852
(dp2853
g66
(dp2854
sg75
g2848
sg68
(lp2855
g61
(g82
g63
NtRp2856
(dp2857
g66
(dp2858
g86
g87
ssg75
g2852
sg68
(lp2859
S'auth'
p2860
asbag61
(g82
g63
NtRp2861
(dp2862
g66
(dp2863
g93
g94
ssg75
g2852
sg68
(lp2864
S':'
asbag61
(g82
g63
NtRp2865
(dp2866
g66
(dp2867
sg75
g2852
sg68
(lp2868
g61
(g62
g63
NtRp2869
(dp2870
g66
(dp2871
g74
I5
ssg75
g2865
sg68
(lp2872
g61
(g70
g63
NtRp2873
(dp2874
g66
(dp2875
g74
I4
ssg75
Nsg68
(lp2876
g61
(g77
g63
NtRp2877
(dp2878
g66
(dp2879
sg75
g2873
sg68
(lp2880
g61
(g82
g63
NtRp2881
(dp2882
g66
(dp2883
g86
g87
ssg75
g2877
sg68
(lp2884
S'expiration'
p2885
asbag61
(g82
g63
NtRp2886
(dp2887
g66
(dp2888
g93
g94
ssg75
g2877
sg68
(lp2889
S':'
asbag61
(g82
g63
NtRp2890
(dp2891
g66
(dp2892
sg75
g2877
sg68
(lp2893
g61
(g62
g63
NtRp2894
(dp2895
g66
(dp2896
g74
I4
ssg75
g2890
sg68
(lp2897
S'3600'
p2898
asbasbasbag61
(g77
g63
NtRp2899
(dp2900
g66
(dp2901
sg75
g2873
sg68
(lp2902
g61
(g82
g63
NtRp2903
(dp2904
g66
(dp2905
g86
g87
ssg75
g2899
sg68
(lp2906
S'hmac_key'
p2907
asbag61
(g82
g63
NtRp2908
(dp2909
g66
(dp2910
g93
g94
ssg75
g2899
sg68
(lp2911
S':'
asbag61
(g82
g63
NtRp2912
(dp2913
g66
(dp2914
sg75
g2899
sg68
(lp2915
g61
(g62
g63
NtRp2916
(dp2917
g66
(dp2918
g74
I4
ssg75
g2912
sg68
(lp2919
S'9ad49da2-2c3d-4288-915d-a4317cc63e77'
p2920
asbasbasbag61
(g77
g63
NtRp2921
(dp2922
g66
(dp2923
sg75
g2873
sg68
(lp2924
g61
(g82
g63
NtRp2925
(dp2926
g66
(dp2927
g86
g87
ssg75
g2921
sg68
(lp2928
S'last_visit'
p2929
asbag61
(g82
g63
NtRp2930
(dp2931
g66
(dp2932
g93
g94
ssg75
g2921
sg68
(lp2933
S':'
asbag61
(g82
g63
NtRp2934
(dp2935
g66
(dp2936
sg75
g2921
sg68
(lp2937
g61
(g62
g63
NtRp2938
(dp2939
g66
(dp2940
g74
I4
ssg75
g2934
sg68
(lp2941
S'datetime.datetime(2012, 8, 3, 4, 14, 46, 216000)'
p2942
asbasbasbag61
(g77
g63
NtRp2943
(dp2944
g66
(dp2945
sg75
g2873
sg68
(lp2946
g61
(g82
g63
NtRp2947
(dp2948
g66
(dp2949
g86
g87
ssg75
g2943
sg68
(lp2950
S'remember'
p2951
asbag61
(g82
g63
NtRp2952
(dp2953
g66
(dp2954
g93
g94
ssg75
g2943
sg68
(lp2955
S':'
asbag61
(g82
g63
NtRp2956
(dp2957
g66
(dp2958
sg75
g2943
sg68
(lp2959
g61
(g62
g63
NtRp2960
(dp2961
g66
(dp2962
g74
I4
ssg75
g2956
sg68
(lp2963
g104
asbasbasbag61
(g77
g63
NtRp2964
(dp2965
g66
(dp2966
sg75
g2873
sg68
(lp2967
g61
(g82
g63
NtRp2968
(dp2969
g66
(dp2970
g86
g87
ssg75
g2964
sg68
(lp2971
S'user'
p2972
asbag61
(g82
g63
NtRp2973
(dp2974
g66
(dp2975
g93
g94
ssg75
g2964
sg68
(lp2976
S':'
asbag61
(g82
g63
NtRp2977
(dp2978
g66
(dp2979
sg75
g2964
sg68
(lp2980
g61
(g62
g63
NtRp2981
(dp2982
g66
(dp2983
g74
I4
ssg75
g2977
sg68
(lp2984
g61
(g70
g63
NtRp2985
(dp2986
g66
(dp2987
g74
I3
ssg75
Nsg68
(lp2988
g61
(g77
g63
NtRp2989
(dp2990
g66
(dp2991
sg75
g2985
sg68
(lp2992
g61
(g82
g63
NtRp2993
(dp2994
g66
(dp2995
g86
g87
ssg75
g2989
sg68
(lp2996
S'email'
p2997
asbag61
(g82
g63
NtRp2998
(dp2999
g66
(dp3000
g93
g94
ssg75
g2989
sg68
(lp3001
S':'
asbag61
(g82
g63
NtRp3002
(dp3003
g66
(dp3004
sg75
g2989
sg68
(lp3005
g61
(g62
g63
NtRp3006
(dp3007
g66
(dp3008
g74
I3
ssg75
g3002
sg68
(lp3009
S'scmirror1@gmail.com'
p3010
asbasbasbag61
(g77
g63
NtRp3011
(dp3012
g66
(dp3013
sg75
g2985
sg68
(lp3014
g61
(g82
g63
NtRp3015
(dp3016
g66
(dp3017
g86
g87
ssg75
g3011
sg68
(lp3018
S'first_name'
p3019
asbag61
(g82
g63
NtRp3020
(dp3021
g66
(dp3022
g93
g94
ssg75
g3011
sg68
(lp3023
S':'
asbag61
(g82
g63
NtRp3024
(dp3025
g66
(dp3026
sg75
g3011
sg68
(lp3027
g61
(g62
g63
NtRp3028
(dp3029
g66
(dp3030
g74
I3
ssg75
g3024
sg68
(lp3031
S'Pedro'
p3032
asbasbasbag61
(g77
g63
NtRp3033
(dp3034
g66
(dp3035
sg75
g2985
sg68
(lp3036
g61
(g82
g63
NtRp3037
(dp3038
g66
(dp3039
g86
g87
ssg75
g3033
sg68
(lp3040
S'id'
p3041
asbag61
(g82
g63
NtRp3042
(dp3043
g66
(dp3044
g93
g94
ssg75
g3033
sg68
(lp3045
S':'
asbag61
(g82
g63
NtRp3046
(dp3047
g66
(dp3048
sg75
g3033
sg68
(lp3049
g61
(g62
g63
NtRp3050
(dp3051
g66
(dp3052
g74
I3
ssg75
g3046
sg68
(lp3053
S'1'
asbasbasbag61
(g77
g63
NtRp3054
(dp3055
g66
(dp3056
sg75
g2985
sg68
(lp3057
g61
(g82
g63
NtRp3058
(dp3059
g66
(dp3060
g86
g87
ssg75
g3054
sg68
(lp3061
S'last_name'
p3062
asbag61
(g82
g63
NtRp3063
(dp3064
g66
(dp3065
g93
g94
ssg75
g3054
sg68
(lp3066
S':'
asbag61
(g82
g63
NtRp3067
(dp3068
g66
(dp3069
sg75
g3054
sg68
(lp3070
g61
(g62
g63
NtRp3071
(dp3072
g66
(dp3073
g74
I3
ssg75
g3067
sg68
(lp3074
S'Lacerda'
p3075
asbasbasbag61
(g77
g63
NtRp3076
(dp3077
g66
(dp3078
sg75
g2985
sg68
(lp3079
g61
(g82
g63
NtRp3080
(dp3081
g66
(dp3082
g86
g87
ssg75
g3076
sg68
(lp3083
S'password'
p3084
asbag61
(g82
g63
NtRp3085
(dp3086
g66
(dp3087
g93
g94
ssg75
g3076
sg68
(lp3088
S':'
asbag61
(g82
g63
NtRp3089
(dp3090
g66
(dp3091
sg75
g3076
sg68
(lp3092
g61
(g62
g63
NtRp3093
(dp3094
g66
(dp3095
g74
I3
ssg75
g3089
sg68
(lp3096
S'4297f44b13955235245b2497399d7a93'
p3097
asbasbasbag61
(g77
g63
NtRp3098
(dp3099
g66
(dp3100
sg75
g2985
sg68
(lp3101
g61
(g82
g63
NtRp3102
(dp3103
g66
(dp3104
g86
g87
ssg75
g3098
sg68
(lp3105
S'registration_id'
p3106
asbag61
(g82
g63
NtRp3107
(dp3108
g66
(dp3109
g93
g94
ssg75
g3098
sg68
(lp3110
S':'
asbag61
(g82
g63
NtRp3111
(dp3112
g66
(dp3113
sg75
g3098
sg68
(lp3114
g61
(g62
g63
NtRp3115
(dp3116
g66
(dp3117
g74
I3
ssg75
g3111
sg68
(lp3118
S''
asbasbasbag61
(g77
g63
NtRp3119
(dp3120
g66
(dp3121
sg75
g2985
sg68
(lp3122
g61
(g82
g63
NtRp3123
(dp3124
g66
(dp3125
g86
g87
ssg75
g3119
sg68
(lp3126
S'registration_key'
p3127
asbag61
(g82
g63
NtRp3128
(dp3129
g66
(dp3130
g93
g94
ssg75
g3119
sg68
(lp3131
S':'
asbag61
(g82
g63
NtRp3132
(dp3133
g66
(dp3134
sg75
g3119
sg68
(lp3135
g61
(g62
g63
NtRp3136
(dp3137
g66
(dp3138
g74
I3
ssg75
g3132
sg68
(lp3139
S''
asbasbasbag61
(g77
g63
NtRp3140
(dp3141
g66
(dp3142
sg75
g2985
sg68
(lp3143
g61
(g82
g63
NtRp3144
(dp3145
g66
(dp3146
g86
g87
ssg75
g3140
sg68
(lp3147
S'reset_password_key'
p3148
asbag61
(g82
g63
NtRp3149
(dp3150
g66
(dp3151
g93
g94
ssg75
g3140
sg68
(lp3152
S':'
asbag61
(g82
g63
NtRp3153
(dp3154
g66
(dp3155
sg75
g3140
sg68
(lp3156
g61
(g62
g63
NtRp3157
(dp3158
g66
(dp3159
g74
I3
ssg75
g3153
sg68
(lp3160
S''
asbasbasbasbasbasbasbag61
(g77
g63
NtRp3161
(dp3162
g66
(dp3163
sg75
g2873
sg68
(lp3164
g61
(g82
g63
NtRp3165
(dp3166
g66
(dp3167
g86
g87
ssg75
g3161
sg68
(lp3168
S'user_groups'
p3169
asbag61
(g82
g63
NtRp3170
(dp3171
g66
(dp3172
g93
g94
ssg75
g3161
sg68
(lp3173
S':'
asbag61
(g82
g63
NtRp3174
(dp3175
g66
(dp3176
sg75
g3161
sg68
(lp3177
g61
(g62
g63
NtRp3178
(dp3179
g66
(dp3180
g74
I4
ssg75
g3174
sg68
(lp3181
g61
(g70
g63
NtRp3182
(dp3183
g66
(dp3184
g74
I3
ssg75
Nsg68
(lp3185
g61
(g77
g63
NtRp3186
(dp3187
g66
(dp3188
sg75
g3182
sg68
(lp3189
g61
(g82
g63
NtRp3190
(dp3191
g66
(dp3192
g86
g87
ssg75
g3186
sg68
(lp3193
S'1'
asbag61
(g82
g63
NtRp3194
(dp3195
g66
(dp3196
g93
g94
ssg75
g3186
sg68
(lp3197
S':'
asbag61
(g82
g63
NtRp3198
(dp3199
g66
(dp3200
sg75
g3186
sg68
(lp3201
g61
(g62
g63
NtRp3202
(dp3203
g66
(dp3204
g74
I3
ssg75
g3198
sg68
(lp3205
S'user_1'
p3206
asbasbasbag61
(g77
g63
NtRp3207
(dp3208
g66
(dp3209
sg75
g3182
sg68
(lp3210
g61
(g82
g63
NtRp3211
(dp3212
g66
(dp3213
g86
g87
ssg75
g3207
sg68
(lp3214
S'2'
asbag61
(g82
g63
NtRp3215
(dp3216
g66
(dp3217
g93
g94
ssg75
g3207
sg68
(lp3218
S':'
asbag61
(g82
g63
NtRp3219
(dp3220
g66
(dp3221
sg75
g3207
sg68
(lp3222
g61
(g62
g63
NtRp3223
(dp3224
g66
(dp3225
g74
I3
ssg75
g3219
sg68
(lp3226
S'manager'
p3227
asbasbasbasbasbasbasbasbasbasbasbasbasbsS'etype'
p3228
S"<type 'exceptions.SyntaxError'>"
p3229
sS'date'
p3230
S'Fri Aug 03 04:14:46 2012'
p3231
sS'response'
p3232
g61
(g62
g63
NtRp3233
(dp3234
g66
(dp3235
sg68
(lp3236
g61
(g70
g63
NtRp3237
(dp3238
g66
(dp3239
g74
I5
ssg75
Nsg68
(lp3240
g61
(g77
g63
NtRp3241
(dp3242
g66
(dp3243
sg75
g3237
sg68
(lp3244
g61
(g82
g63
NtRp3245
(dp3246
g66
(dp3247
g86
g87
ssg75
g3241
sg68
(lp3248
g159
asbag61
(g82
g63
NtRp3249
(dp3250
g66
(dp3251
g93
g94
ssg75
g3241
sg68
(lp3252
S':'
asbag61
(g82
g63
NtRp3253
(dp3254
g66
(dp3255
sg75
g3241
sg68
(lp3256
g61
(g62
g63
NtRp3257
(dp3258
g66
(dp3259
g74
I5
ssg75
g3253
sg68
(lp3260
S'<cStringIO.StringO object at 0x064A4D80>'
p3261
asbasbasbag61
(g77
g63
NtRp3262
(dp3263
g66
(dp3264
sg75
g3237
sg68
(lp3265
g61
(g82
g63
NtRp3266
(dp3267
g66
(dp3268
g86
g87
ssg75
g3262
sg68
(lp3269
g225
asbag61
(g82
g63
NtRp3270
(dp3271
g66
(dp3272
g93
g94
ssg75
g3262
sg68
(lp3273
S':'
asbag61
(g82
g63
NtRp3274
(dp3275
g66
(dp3276
sg75
g3262
sg68
(lp3277
g61
(g62
g63
NtRp3278
(dp3279
g66
(dp3280
g74
I5
ssg75
g3274
sg68
(lp3281
g61
(g70
g63
NtRp3282
(dp3283
g66
(dp3284
g74
I4
ssg75
Nsg68
(lp3285
g61
(g77
g63
NtRp3286
(dp3287
g66
(dp3288
sg75
g3282
sg68
(lp3289
g61
(g82
g63
NtRp3290
(dp3291
g66
(dp3292
g86
g87
ssg75
g3286
sg68
(lp3293
S'session_id_unioeste_code'
p3294
asbag61
(g82
g63
NtRp3295
(dp3296
g66
(dp3297
g93
g94
ssg75
g3286
sg68
(lp3298
S':'
asbag61
(g82
g63
NtRp3299
(dp3300
g66
(dp3301
sg75
g3286
sg68
(lp3302
g61
(g62
g63
NtRp3303
(dp3304
g66
(dp3305
g74
I4
ssg75
g3299
sg68
(lp3306
g61
(g70
g63
NtRp3307
(dp3308
g66
(dp3309
g74
I3
ssg75
Nsg68
(lp3310
g61
(g77
g63
NtRp3311
(dp3312
g66
(dp3313
sg75
g3307
sg68
(lp3314
g61
(g82
g63
NtRp3315
(dp3316
g66
(dp3317
g86
g87
ssg75
g3311
sg68
(lp3318
g275
asbag61
(g82
g63
NtRp3319
(dp3320
g66
(dp3321
g93
g94
ssg75
g3311
sg68
(lp3322
S':'
asbag61
(g82
g63
NtRp3323
(dp3324
g66
(dp3325
sg75
g3311
sg68
(lp3326
g61
(g62
g63
NtRp3327
(dp3328
g66
(dp3329
g74
I3
ssg75
g3323
sg68
(lp3330
S''
asbasbasbag61
(g77
g63
NtRp3331
(dp3332
g66
(dp3333
sg75
g3307
sg68
(lp3334
g61
(g82
g63
NtRp3335
(dp3336
g66
(dp3337
g86
g87
ssg75
g3331
sg68
(lp3338
g296
asbag61
(g82
g63
NtRp3339
(dp3340
g66
(dp3341
g93
g94
ssg75
g3331
sg68
(lp3342
S':'
asbag61
(g82
g63
NtRp3343
(dp3344
g66
(dp3345
sg75
g3331
sg68
(lp3346
g61
(g62
g63
NtRp3347
(dp3348
g66
(dp3349
g74
I3
ssg75
g3343
sg68
(lp3350
S''
asbasbasbag61
(g77
g63
NtRp3351
(dp3352
g66
(dp3353
sg75
g3307
sg68
(lp3354
g61
(g82
g63
NtRp3355
(dp3356
g66
(dp3357
g86
g87
ssg75
g3351
sg68
(lp3358
g317
asbag61
(g82
g63
NtRp3359
(dp3360
g66
(dp3361
g93
g94
ssg75
g3351
sg68
(lp3362
S':'
asbag61
(g82
g63
NtRp3363
(dp3364
g66
(dp3365
sg75
g3351
sg68
(lp3366
g61
(g62
g63
NtRp3367
(dp3368
g66
(dp3369
g74
I3
ssg75
g3363
sg68
(lp3370
S''
asbasbasbag61
(g77
g63
NtRp3371
(dp3372
g66
(dp3373
sg75
g3307
sg68
(lp3374
g61
(g82
g63
NtRp3375
(dp3376
g66
(dp3377
g86
g87
ssg75
g3371
sg68
(lp3378
g338
asbag61
(g82
g63
NtRp3379
(dp3380
g66
(dp3381
g93
g94
ssg75
g3371
sg68
(lp3382
S':'
asbag61
(g82
g63
NtRp3383
(dp3384
g66
(dp3385
sg75
g3371
sg68
(lp3386
g61
(g62
g63
NtRp3387
(dp3388
g66
(dp3389
g74
I3
ssg75
g3383
sg68
(lp3390
S''
asbasbasbag61
(g77
g63
NtRp3391
(dp3392
g66
(dp3393
sg75
g3307
sg68
(lp3394
g61
(g82
g63
NtRp3395
(dp3396
g66
(dp3397
g86
g87
ssg75
g3391
sg68
(lp3398
g359
asbag61
(g82
g63
NtRp3399
(dp3400
g66
(dp3401
g93
g94
ssg75
g3391
sg68
(lp3402
S':'
asbag61
(g82
g63
NtRp3403
(dp3404
g66
(dp3405
sg75
g3391
sg68
(lp3406
g61
(g62
g63
NtRp3407
(dp3408
g66
(dp3409
g74
I3
ssg75
g3403
sg68
(lp3410
S'/'
asbasbasbag61
(g77
g63
NtRp3411
(dp3412
g66
(dp3413
sg75
g3307
sg68
(lp3414
g61
(g82
g63
NtRp3415
(dp3416
g66
(dp3417
g86
g87
ssg75
g3411
sg68
(lp3418
g380
asbag61
(g82
g63
NtRp3419
(dp3420
g66
(dp3421
g93
g94
ssg75
g3411
sg68
(lp3422
S':'
asbag61
(g82
g63
NtRp3423
(dp3424
g66
(dp3425
sg75
g3411
sg68
(lp3426
g61
(g62
g63
NtRp3427
(dp3428
g66
(dp3429
g74
I3
ssg75
g3423
sg68
(lp3430
S''
asbasbasbag61
(g77
g63
NtRp3431
(dp3432
g66
(dp3433
sg75
g3307
sg68
(lp3434
g61
(g82
g63
NtRp3435
(dp3436
g66
(dp3437
g86
g87
ssg75
g3431
sg68
(lp3438
g401
asbag61
(g82
g63
NtRp3439
(dp3440
g66
(dp3441
g93
g94
ssg75
g3431
sg68
(lp3442
S':'
asbag61
(g82
g63
NtRp3443
(dp3444
g66
(dp3445
sg75
g3431
sg68
(lp3446
g61
(g62
g63
NtRp3447
(dp3448
g66
(dp3449
g74
I3
ssg75
g3443
sg68
(lp3450
S''
asbasbasbasbasbasbasbasbasbasbasbag61
(g77
g63
NtRp3451
(dp3452
g66
(dp3453
sg75
g3237
sg68
(lp3454
g61
(g82
g63
NtRp3455
(dp3456
g66
(dp3457
g86
g87
ssg75
g3451
sg68
(lp3458
S'delimiters'
p3459
asbag61
(g82
g63
NtRp3460
(dp3461
g66
(dp3462
g93
g94
ssg75
g3451
sg68
(lp3463
S':'
asbag61
(g82
g63
NtRp3464
(dp3465
g66
(dp3466
sg75
g3451
sg68
(lp3467
g61
(g62
g63
NtRp3468
(dp3469
g66
(dp3470
g74
I5
ssg75
g3464
sg68
(lp3471
g61
(g70
g63
NtRp3472
(dp3473
g66
(dp3474
g74
I4
ssg75
Nsg68
(lp3475
g61
(g77
g63
NtRp3476
(dp3477
g66
(dp3478
sg75
g3472
sg68
(lp3479
g61
(g82
g63
NtRp3480
(dp3481
g66
(dp3482
sg75
g3476
sg68
(lp3483
g61
(g62
g63
NtRp3484
(dp3485
g66
(dp3486
g74
I4
ssg75
g3480
sg68
(lp3487
S'{{'
p3488
asbasbasbag61
(g77
g63
NtRp3489
(dp3490
g66
(dp3491
sg75
g3472
sg68
(lp3492
g61
(g82
g63
NtRp3493
(dp3494
g66
(dp3495
sg75
g3489
sg68
(lp3496
g61
(g62
g63
NtRp3497
(dp3498
g66
(dp3499
g74
I4
ssg75
g3493
sg68
(lp3500
S'}}'
p3501
asbasbasbasbasbasbasbag61
(g77
g63
NtRp3502
(dp3503
g66
(dp3504
sg75
g3237
sg68
(lp3505
g61
(g82
g63
NtRp3506
(dp3507
g66
(dp3508
g86
g87
ssg75
g3502
sg68
(lp3509
S'files'
p3510
asbag61
(g82
g63
NtRp3511
(dp3512
g66
(dp3513
g93
g94
ssg75
g3502
sg68
(lp3514
S':'
asbag61
(g82
g63
NtRp3515
(dp3516
g66
(dp3517
sg75
g3502
sg68
(lp3518
g61
(g62
g63
NtRp3519
(dp3520
g66
(dp3521
g74
I5
ssg75
g3515
sg68
(lp3522
g61
(g70
g63
NtRp3523
(dp3524
g66
(dp3525
g74
I4
ssg75
Nsg68
(lp3526
sbasbasbasbag61
(g77
g63
NtRp3527
(dp3528
g66
(dp3529
sg75
g3237
sg68
(lp3530
g61
(g82
g63
NtRp3531
(dp3532
g66
(dp3533
g86
g87
ssg75
g3527
sg68
(lp3534
S'flash'
p3535
asbag61
(g82
g63
NtRp3536
(dp3537
g66
(dp3538
g93
g94
ssg75
g3527
sg68
(lp3539
S':'
asbag61
(g82
g63
NtRp3540
(dp3541
g66
(dp3542
sg75
g3527
sg68
(lp3543
g61
(g62
g63
NtRp3544
(dp3545
g66
(dp3546
g74
I5
ssg75
g3540
sg68
(lp3547
S''
asbasbasbag61
(g77
g63
NtRp3548
(dp3549
g66
(dp3550
sg75
g3237
sg68
(lp3551
g61
(g82
g63
NtRp3552
(dp3553
g66
(dp3554
g86
g87
ssg75
g3548
sg68
(lp3555
S'generic_patterns'
p3556
asbag61
(g82
g63
NtRp3557
(dp3558
g66
(dp3559
g93
g94
ssg75
g3548
sg68
(lp3560
S':'
asbag61
(g82
g63
NtRp3561
(dp3562
g66
(dp3563
sg75
g3548
sg68
(lp3564
g61
(g62
g63
NtRp3565
(dp3566
g66
(dp3567
g74
I5
ssg75
g3561
sg68
(lp3568
g61
(g70
g63
NtRp3569
(dp3570
g66
(dp3571
g74
I4
ssg75
Nsg68
(lp3572
sbasbasbasbag61
(g77
g63
NtRp3573
(dp3574
g66
(dp3575
sg75
g3237
sg68
(lp3576
g61
(g82
g63
NtRp3577
(dp3578
g66
(dp3579
g86
g87
ssg75
g3573
sg68
(lp3580
S'headers'
p3581
asbag61
(g82
g63
NtRp3582
(dp3583
g66
(dp3584
g93
g94
ssg75
g3573
sg68
(lp3585
S':'
asbag61
(g82
g63
NtRp3586
(dp3587
g66
(dp3588
sg75
g3573
sg68
(lp3589
g61
(g62
g63
NtRp3590
(dp3591
g66
(dp3592
g74
I5
ssg75
g3586
sg68
(lp3593
g61
(g70
g63
NtRp3594
(dp3595
g66
(dp3596
g74
I4
ssg75
Nsg68
(lp3597
g61
(g77
g63
NtRp3598
(dp3599
g66
(dp3600
sg75
g3594
sg68
(lp3601
g61
(g82
g63
NtRp3602
(dp3603
g66
(dp3604
g86
g87
ssg75
g3598
sg68
(lp3605
S'Cache-Control'
p3606
asbag61
(g82
g63
NtRp3607
(dp3608
g66
(dp3609
g93
g94
ssg75
g3598
sg68
(lp3610
S':'
asbag61
(g82
g63
NtRp3611
(dp3612
g66
(dp3613
sg75
g3598
sg68
(lp3614
g61
(g62
g63
NtRp3615
(dp3616
g66
(dp3617
g74
I4
ssg75
g3611
sg68
(lp3618
S'no-store, no-cache, must-revalidate, post-check=0, pre-check=0'
p3619
asbasbasbag61
(g77
g63
NtRp3620
(dp3621
g66
(dp3622
sg75
g3594
sg68
(lp3623
g61
(g82
g63
NtRp3624
(dp3625
g66
(dp3626
g86
g87
ssg75
g3620
sg68
(lp3627
S'Content-Type'
p3628
asbag61
(g82
g63
NtRp3629
(dp3630
g66
(dp3631
g93
g94
ssg75
g3620
sg68
(lp3632
S':'
asbag61
(g82
g63
NtRp3633
(dp3634
g66
(dp3635
sg75
g3620
sg68
(lp3636
g61
(g62
g63
NtRp3637
(dp3638
g66
(dp3639
g74
I4
ssg75
g3633
sg68
(lp3640
S'text/html; charset=utf-8'
p3641
asbasbasbag61
(g77
g63
NtRp3642
(dp3643
g66
(dp3644
sg75
g3594
sg68
(lp3645
g61
(g82
g63
NtRp3646
(dp3647
g66
(dp3648
g86
g87
ssg75
g3642
sg68
(lp3649
S'Expires'
p3650
asbag61
(g82
g63
NtRp3651
(dp3652
g66
(dp3653
g93
g94
ssg75
g3642
sg68
(lp3654
S':'
asbag61
(g82
g63
NtRp3655
(dp3656
g66
(dp3657
sg75
g3642
sg68
(lp3658
g61
(g62
g63
NtRp3659
(dp3660
g66
(dp3661
g74
I4
ssg75
g3655
sg68
(lp3662
S'Fri, 03 Aug 2012 07:14:46 GMT'
p3663
asbasbasbag61
(g77
g63
NtRp3664
(dp3665
g66
(dp3666
sg75
g3594
sg68
(lp3667
g61
(g82
g63
NtRp3668
(dp3669
g66
(dp3670
g86
g87
ssg75
g3664
sg68
(lp3671
S'Pragma'
p3672
asbag61
(g82
g63
NtRp3673
(dp3674
g66
(dp3675
g93
g94
ssg75
g3664
sg68
(lp3676
S':'
asbag61
(g82
g63
NtRp3677
(dp3678
g66
(dp3679
sg75
g3664
sg68
(lp3680
g61
(g62
g63
NtRp3681
(dp3682
g66
(dp3683
g74
I4
ssg75
g3677
sg68
(lp3684
S'no-cache'
p3685
asbasbasbag61
(g77
g63
NtRp3686
(dp3687
g66
(dp3688
sg75
g3594
sg68
(lp3689
g61
(g82
g63
NtRp3690
(dp3691
g66
(dp3692
g86
g87
ssg75
g3686
sg68
(lp3693
S'X-Powered-By'
p3694
asbag61
(g82
g63
NtRp3695
(dp3696
g66
(dp3697
g93
g94
ssg75
g3686
sg68
(lp3698
S':'
asbag61
(g82
g63
NtRp3699
(dp3700
g66
(dp3701
sg75
g3686
sg68
(lp3702
g61
(g62
g63
NtRp3703
(dp3704
g66
(dp3705
g74
I4
ssg75
g3699
sg68
(lp3706
S'web2py'
p3707
asbasbasbasbasbasbasbag61
(g77
g63
NtRp3708
(dp3709
g66
(dp3710
sg75
g3237
sg68
(lp3711
g61
(g82
g63
NtRp3712
(dp3713
g66
(dp3714
g86
g87
ssg75
g3708
sg68
(lp3715
S'menu'
p3716
asbag61
(g82
g63
NtRp3717
(dp3718
g66
(dp3719
g93
g94
ssg75
g3708
sg68
(lp3720
S':'
asbag61
(g82
g63
NtRp3721
(dp3722
g66
(dp3723
sg75
g3708
sg68
(lp3724
g61
(g62
g63
NtRp3725
(dp3726
g66
(dp3727
g74
I5
ssg75
g3721
sg68
(lp3728
g61
(g70
g63
NtRp3729
(dp3730
g66
(dp3731
g74
I4
ssg75
Nsg68
(lp3732
g61
(g77
g63
NtRp3733
(dp3734
g66
(dp3735
sg75
g3729
sg68
(lp3736
g61
(g82
g63
NtRp3737
(dp3738
g66
(dp3739
sg75
g3733
sg68
(lp3740
g61
(g62
g63
NtRp3741
(dp3742
g66
(dp3743
g74
I4
ssg75
g3737
sg68
(lp3744
g61
(g70
g63
NtRp3745
(dp3746
g66
(dp3747
g74
I3
ssg75
Nsg68
(lp3748
g61
(g77
g63
NtRp3749
(dp3750
g66
(dp3751
sg75
g3745
sg68
(lp3752
g61
(g82
g63
NtRp3753
(dp3754
g66
(dp3755
sg75
g3749
sg68
(lp3756
g61
(g62
g63
NtRp3757
(dp3758
g66
(dp3759
g74
I3
ssg75
g3753
sg68
(lp3760
cgluon.languages
lazyT_unpickle
p3761
(S't\x04\x00\x00\x00Home'
tRp3762
asbasbasbag61
(g77
g63
NtRp3763
(dp3764
g66
(dp3765
sg75
g3745
sg68
(lp3766
g61
(g82
g63
NtRp3767
(dp3768
g66
(dp3769
sg75
g3763
sg68
(lp3770
g61
(g62
g63
NtRp3771
(dp3772
g66
(dp3773
g74
I3
ssg75
g3767
sg68
(lp3774
g104
asbasbasbag61
(g77
g63
NtRp3775
(dp3776
g66
(dp3777
sg75
g3745
sg68
(lp3778
g61
(g82
g63
NtRp3779
(dp3780
g66
(dp3781
sg75
g3775
sg68
(lp3782
g61
(g62
g63
NtRp3783
(dp3784
g66
(dp3785
g74
I3
ssg75
g3779
sg68
(lp3786
S'/unioeste_code/default/index'
p3787
asbasbasbag61
(g77
g63
NtRp3788
(dp3789
g66
(dp3790
sg75
g3745
sg68
(lp3791
g61
(g82
g63
NtRp3792
(dp3793
g66
(dp3794
sg75
g3788
sg68
(lp3795
g61
(g62
g63
NtRp3796
(dp3797
g66
(dp3798
g74
I3
ssg75
g3792
sg68
(lp3799
g61
(g70
g63
NtRp3800
(dp3801
g66
(dp3802
g74
I2
ssg75
Nsg68
(lp3803
sbasbasbasbasbasbasbasbag61
(g77
g63
NtRp3804
(dp3805
g66
(dp3806
sg75
g3729
sg68
(lp3807
g61
(g82
g63
NtRp3808
(dp3809
g66
(dp3810
sg75
g3804
sg68
(lp3811
g61
(g62
g63
NtRp3812
(dp3813
g66
(dp3814
g74
I4
ssg75
g3808
sg68
(lp3815
g61
(g70
g63
NtRp3816
(dp3817
g66
(dp3818
g74
I3
ssg75
Nsg68
(lp3819
g61
(g77
g63
NtRp3820
(dp3821
g66
(dp3822
sg75
g3816
sg68
(lp3823
g61
(g82
g63
NtRp3824
(dp3825
g66
(dp3826
sg75
g3820
sg68
(lp3827
g61
(g62
g63
NtRp3828
(dp3829
g66
(dp3830
g74
I3
ssg75
g3824
sg68
(lp3831
g61
(cgluon.html
SPAN
p3832
g63
NtRp3833
(dp3834
g66
(dp3835
g86
S'color:yellow'
p3836
ssg75
Nsg68
(lp3837
g3707
asbasbasbasbag61
(g77
g63
NtRp3838
(dp3839
g66
(dp3840
sg75
g3816
sg68
(lp3841
g61
(g82
g63
NtRp3842
(dp3843
g66
(dp3844
sg75
g3838
sg68
(lp3845
g61
(g62
g63
NtRp3846
(dp3847
g66
(dp3848
g74
I3
ssg75
g3842
sg68
(lp3849
g104
asbasbasbag61
(g77
g63
NtRp3850
(dp3851
g66
(dp3852
sg75
g3816
sg68
(lp3853
g61
(g82
g63
NtRp3854
(dp3855
g66
(dp3856
sg75
g3850
sg68
(lp3857
g61
(g62
g63
NtRp3858
(dp3859
g66
(dp3860
g74
I3
ssg75
g3854
sg68
(lp3861
S'None'
p3862
asbasbasbag61
(g77
g63
NtRp3863
(dp3864
g66
(dp3865
sg75
g3816
sg68
(lp3866
g61
(g82
g63
NtRp3867
(dp3868
g66
(dp3869
sg75
g3863
sg68
(lp3870
g61
(g62
g63
NtRp3871
(dp3872
g66
(dp3873
g74
I3
ssg75
g3867
sg68
(lp3874
g61
(g70
g63
NtRp3875
(dp3876
g66
(dp3877
g74
I2
ssg75
Nsg68
(lp3878
g61
(g77
g63
NtRp3879
(dp3880
g66
(dp3881
sg75
g3875
sg68
(lp3882
g61
(g82
g63
NtRp3883
(dp3884
g66
(dp3885
sg75
g3879
sg68
(lp3886
g61
(g62
g63
NtRp3887
(dp3888
g66
(dp3889
g74
I2
ssg75
g3883
sg68
(lp3890
g61
(g70
g63
NtRp3891
(dp3892
g66
(dp3893
g74
I1
ssg75
Nsg68
(lp3894
g61
(g77
g63
NtRp3895
(dp3896
g66
(dp3897
sg75
g3891
sg68
(lp3898
g61
(g82
g63
NtRp3899
(dp3900
g66
(dp3901
sg75
g3895
sg68
(lp3902
g61
(g62
g63
NtRp3903
(dp3904
g66
(dp3905
g74
I1
ssg75
g3899
sg68
(lp3906
g3761
(S's\x08\x00\x00\x00My Sites'
tRp3907
asbasbasbag61
(g77
g63
NtRp3908
(dp3909
g66
(dp3910
sg75
g3891
sg68
(lp3911
g61
(g82
g63
NtRp3912
(dp3913
g66
(dp3914
sg75
g3908
sg68
(lp3915
g61
(g62
g63
NtRp3916
(dp3917
g66
(dp3918
g74
I1
ssg75
g3912
sg68
(lp3919
I00
asbasbasbag61
(g77
g63
NtRp3920
(dp3921
g66
(dp3922
sg75
g3891
sg68
(lp3923
g61
(g82
g63
NtRp3924
(dp3925
g66
(dp3926
sg75
g3920
sg68
(lp3927
g61
(g62
g63
NtRp3928
(dp3929
g66
(dp3930
g74
I1
ssg75
g3924
sg68
(lp3931
S'/admin/default/site'
p3932
asbasbasbasbasbasbasbag61
(g77
g63
NtRp3933
(dp3934
g66
(dp3935
sg75
g3875
sg68
(lp3936
g61
(g82
g63
NtRp3937
(dp3938
g66
(dp3939
sg75
g3933
sg68
(lp3940
g61
(g62
g63
NtRp3941
(dp3942
g66
(dp3943
g74
I2
ssg75
g3937
sg68
(lp3944
g61
(g70
g63
NtRp3945
(dp3946
g66
(dp3947
g74
I1
ssg75
Nsg68
(lp3948
g61
(g77
g63
NtRp3949
(dp3950
g66
(dp3951
sg75
g3945
sg68
(lp3952
g61
(g82
g63
NtRp3953
(dp3954
g66
(dp3955
sg75
g3949
sg68
(lp3956
g61
(g62
g63
NtRp3957
(dp3958
g66
(dp3959
g74
I1
ssg75
g3953
sg68
(lp3960
g3761
(S's\x08\x00\x00\x00This App'
tRp3961
asbasbasbag61
(g77
g63
NtRp3962
(dp3963
g66
(dp3964
sg75
g3945
sg68
(lp3965
g61
(g82
g63
NtRp3966
(dp3967
g66
(dp3968
sg75
g3962
sg68
(lp3969
g61
(g62
g63
NtRp3970
(dp3971
g66
(dp3972
g74
I1
ssg75
g3966
sg68
(lp3973
I00
asbasbasbag61
(g77
g63
NtRp3974
(dp3975
g66
(dp3976
sg75
g3945
sg68
(lp3977
g61
(g82
g63
NtRp3978
(dp3979
g66
(dp3980
sg75
g3974
sg68
(lp3981
g61
(g62
g63
NtRp3982
(dp3983
g66
(dp3984
g74
I1
ssg75
g3978
sg68
(lp3985
S'/admin/default/design/unioeste_code'
p3986
asbasbasbag61
(g77
g63
NtRp3987
(dp3988
g66
(dp3989
sg75
g3945
sg68
(lp3990
g61
(g82
g63
NtRp3991
(dp3992
g66
(dp3993
sg75
g3987
sg68
(lp3994
g61
(g62
g63
NtRp3995
(dp3996
g66
(dp3997
g74
I1
ssg75
g3991
sg68
(lp3998
(lp3999
(g3761
(S't\x0b\x00\x00\x00Controlador'
tRp4000
I00
S'/admin/default/edit/unioeste_code/controllers/default.py'
tp4001
a(g3761
(S's\x0e\x00\x00\x00Visualiza\xc3\xa7\xc3\xa3o'
tRp4002
I00
S'/admin/default/edit/unioeste_code/views/default/index.html'
tp4003
a(g3761
(S't\x06\x00\x00\x00Layout'
tRp4004
I00
S'/admin/default/edit/unioeste_code/views/layout.html'
tp4005
a(g3761
(S't\n\x00\x00\x00Stylesheet'
tRp4006
I00
S'/admin/default/edit/unioeste_code/static/css/web2py.css'
tp4007
a(g3761
(S's\t\x00\x00\x00Modelo BD'
tRp4008
I00
S'/admin/default/edit/unioeste_code/models/db.py'
tp4009
a(g3761
(S's\x0e\x00\x00\x00Modelo de Menu'
tRp4010
I00
S'/admin/default/edit/unioeste_code/models/menu.py'
tp4011
a(g3761
(S's\x0e\x00\x00\x00Banco de dados'
tRp4012
I00
S'/unioeste_code/appadmin/index'
tp4013
a(g3761
(S't\x06\x00\x00\x00Errors'
tRp4014
I00
S'/admin/default/errors/unioeste_code'
tp4015
a(g3761
(S't\x05\x00\x00\x00About'
tRp4016
I00
S'/admin/default/about/unioeste_code'
tp4017
aasbasbasbasbasbasbasbag61
(g77
g63
NtRp4018
(dp4019
g66
(dp4020
sg75
g3875
sg68
(lp4021
g61
(g82
g63
NtRp4022
(dp4023
g66
(dp4024
sg75
g4018
sg68
(lp4025
g61
(g62
g63
NtRp4026
(dp4027
g66
(dp4028
g74
I2
ssg75
g4022
sg68
(lp4029
g61
(g70
g63
NtRp4030
(dp4031
g66
(dp4032
g74
I1
ssg75
Nsg68
(lp4033
g61
(g77
g63
NtRp4034
(dp4035
g66
(dp4036
sg75
g4030
sg68
(lp4037
g61
(g82
g63
NtRp4038
(dp4039
g66
(dp4040
sg75
g4034
sg68
(lp4041
g61
(g62
g63
NtRp4042
(dp4043
g66
(dp4044
g74
I1
ssg75
g4038
sg68
(lp4045
S'web2py.com'
p4046
asbasbasbag61
(g77
g63
NtRp4047
(dp4048
g66
(dp4049
sg75
g4030
sg68
(lp4050
g61
(g82
g63
NtRp4051
(dp4052
g66
(dp4053
sg75
g4047
sg68
(lp4054
g61
(g62
g63
NtRp4055
(dp4056
g66
(dp4057
g74
I1
ssg75
g4051
sg68
(lp4058
I00
asbasbasbag61
(g77
g63
NtRp4059
(dp4060
g66
(dp4061
sg75
g4030
sg68
(lp4062
g61
(g82
g63
NtRp4063
(dp4064
g66
(dp4065
sg75
g4059
sg68
(lp4066
g61
(g62
g63
NtRp4067
(dp4068
g66
(dp4069
g74
I1
ssg75
g4063
sg68
(lp4070
S'http://www.web2py.com'
p4071
asbasbasbag61
(g77
g63
NtRp4072
(dp4073
g66
(dp4074
sg75
g4030
sg68
(lp4075
g61
(g82
g63
NtRp4076
(dp4077
g66
(dp4078
sg75
g4072
sg68
(lp4079
g61
(g62
g63
NtRp4080
(dp4081
g66
(dp4082
g74
I1
ssg75
g4076
sg68
(lp4083
(lp4084
(g3761
(S't\x08\x00\x00\x00Download'
tRp4085
I00
S'http://www.web2py.com/examples/default/download'
p4086
tp4087
a(g3761
(S't\x07\x00\x00\x00Support'
tRp4088
I00
S'http://www.web2py.com/examples/default/support'
p4089
tp4090
a(g3761
(S't\x04\x00\x00\x00Demo'
tRp4091
I00
S'http://web2py.com/demo_admin'
p4092
tp4093
a(g3761
(S's\x0e\x00\x00\x00Quick Examples'
tRp4094
I00
S'http://web2py.com/examples/default/examples'
p4095
tp4096
a(g3761
(S't\x03\x00\x00\x00FAQ'
tRp4097
I00
S'http://web2py.com/AlterEgo'
p4098
tp4099
a(g3761
(S't\x06\x00\x00\x00Videos'
tRp4100
I00
S'http://www.web2py.com/examples/default/videos/'
p4101
tp4102
a(g3761
(S's\x11\x00\x00\x00Free Applications'
tRp4103
I00
S'http://web2py.com/appliances'
p4104
tp4105
a(g3761
(S't\x07\x00\x00\x00Plugins'
tRp4106
I00
S'http://web2py.com/plugins'
p4107
tp4108
a(g3761
(S't\x07\x00\x00\x00Layouts'
tRp4109
I00
S'http://web2py.com/layouts'
p4110
tp4111
a(g3761
(S't\x07\x00\x00\x00Recipes'
tRp4112
I00
S'http://web2pyslices.com/'
p4113
tp4114
a(g3761
(S't\x08\x00\x00\x00Semantic'
tRp4115
I00
S'http://web2py.com/semantic'
p4116
tp4117
aasbasbasbasbasbasbasbag61
(g77
g63
NtRp4118
(dp4119
g66
(dp4120
sg75
g3875
sg68
(lp4121
g61
(g82
g63
NtRp4122
(dp4123
g66
(dp4124
sg75
g4118
sg68
(lp4125
g61
(g62
g63
NtRp4126
(dp4127
g66
(dp4128
g74
I2
ssg75
g4122
sg68
(lp4129
g61
(g70
g63
NtRp4130
(dp4131
g66
(dp4132
g74
I1
ssg75
Nsg68
(lp4133
g61
(g77
g63
NtRp4134
(dp4135
g66
(dp4136
sg75
g4130
sg68
(lp4137
g61
(g82
g63
NtRp4138
(dp4139
g66
(dp4140
sg75
g4134
sg68
(lp4141
g61
(g62
g63
NtRp4142
(dp4143
g66
(dp4144
g74
I1
ssg75
g4138
sg68
(lp4145
g3761
(S't\r\x00\x00\x00Documentation'
tRp4146
asbasbasbag61
(g77
g63
NtRp4147
(dp4148
g66
(dp4149
sg75
g4130
sg68
(lp4150
g61
(g82
g63
NtRp4151
(dp4152
g66
(dp4153
sg75
g4147
sg68
(lp4154
g61
(g62
g63
NtRp4155
(dp4156
g66
(dp4157
g74
I1
ssg75
g4151
sg68
(lp4158
I00
asbasbasbag61
(g77
g63
NtRp4159
(dp4160
g66
(dp4161
sg75
g4130
sg68
(lp4162
g61
(g82
g63
NtRp4163
(dp4164
g66
(dp4165
sg75
g4159
sg68
(lp4166
g61
(g62
g63
NtRp4167
(dp4168
g66
(dp4169
g74
I1
ssg75
g4163
sg68
(lp4170
S'http://www.web2py.com/book'
p4171
asbasbasbag61
(g77
g63
NtRp4172
(dp4173
g66
(dp4174
sg75
g4130
sg68
(lp4175
g61
(g82
g63
NtRp4176
(dp4177
g66
(dp4178
sg75
g4172
sg68
(lp4179
g61
(g62
g63
NtRp4180
(dp4181
g66
(dp4182
g74
I1
ssg75
g4176
sg68
(lp4183
(lp4184
(g3761
(S't\x07\x00\x00\x00Preface'
tRp4185
I00
S'http://www.web2py.com/book/default/chapter/00'
p4186
tp4187
a(g3761
(S't\x0c\x00\x00\x00Introduction'
tRp4188
I00
S'http://www.web2py.com/book/default/chapter/01'
p4189
tp4190
a(g3761
(S't\x06\x00\x00\x00Python'
tRp4191
I00
S'http://www.web2py.com/book/default/chapter/02'
p4192
tp4193
a(g3761
(S't\x08\x00\x00\x00Overview'
tRp4194
I00
S'http://www.web2py.com/book/default/chapter/03'
p4195
tp4196
a(g3761
(S's\x08\x00\x00\x00The Core'
tRp4197
I00
S'http://www.web2py.com/book/default/chapter/04'
p4198
tp4199
a(g3761
(S's\t\x00\x00\x00The Views'
tRp4200
I00
S'http://www.web2py.com/book/default/chapter/05'
p4201
tp4202
a(g3761
(S's\x0e\x00\x00\x00Banco de dados'
tRp4203
I00
S'http://www.web2py.com/book/default/chapter/06'
p4204
tp4205
a(g3761
(S's\x14\x00\x00\x00Forms and Validators'
tRp4206
I00
S'http://www.web2py.com/book/default/chapter/07'
p4207
tp4208
a(g3761
(S's\r\x00\x00\x00Email and SMS'
tRp4209
I00
S'http://www.web2py.com/book/default/chapter/08'
p4210
tp4211
a(g3761
(S's\x0e\x00\x00\x00Access Control'
tRp4212
I00
S'http://www.web2py.com/book/default/chapter/09'
p4213
tp4214
a(g3761
(S't\x08\x00\x00\x00Services'
tRp4215
I00
S'http://www.web2py.com/book/default/chapter/10'
p4216
tp4217
a(g3761
(S's\x0c\x00\x00\x00Ajax Recipes'
tRp4218
I00
S'http://www.web2py.com/book/default/chapter/11'
p4219
tp4220
a(g3761
(S's\x16\x00\x00\x00Components and Plugins'
tRp4221
I00
S'http://www.web2py.com/book/default/chapter/12'
p4222
tp4223
a(g3761
(S's\x12\x00\x00\x00Deployment Recipes'
tRp4224
I00
S'http://www.web2py.com/book/default/chapter/13'
p4225
tp4226
a(g3761
(S's\r\x00\x00\x00Other Recipes'
tRp4227
I00
S'http://www.web2py.com/book/default/chapter/14'
p4228
tp4229
a(g3761
(S's\r\x00\x00\x00Buy this book'
tRp4230
I00
S'http://stores.lulu.com/web2py'
p4231
tp4232
aasbasbasbasbasbasbasbag61
(g77
g63
NtRp4233
(dp4234
g66
(dp4235
sg75
g3875
sg68
(lp4236
g61
(g82
g63
NtRp4237
(dp4238
g66
(dp4239
sg75
g4233
sg68
(lp4240
g61
(g62
g63
NtRp4241
(dp4242
g66
(dp4243
g74
I2
ssg75
g4237
sg68
(lp4244
g61
(g70
g63
NtRp4245
(dp4246
g66
(dp4247
g74
I1
ssg75
Nsg68
(lp4248
g61
(g77
g63
NtRp4249
(dp4250
g66
(dp4251
sg75
g4245
sg68
(lp4252
g61
(g82
g63
NtRp4253
(dp4254
g66
(dp4255
sg75
g4249
sg68
(lp4256
g61
(g62
g63
NtRp4257
(dp4258
g66
(dp4259
g74
I1
ssg75
g4253
sg68
(lp4260
g3761
(S't\t\x00\x00\x00Community'
tRp4261
asbasbasbag61
(g77
g63
NtRp4262
(dp4263
g66
(dp4264
sg75
g4245
sg68
(lp4265
g61
(g82
g63
NtRp4266
(dp4267
g66
(dp4268
sg75
g4262
sg68
(lp4269
g61
(g62
g63
NtRp4270
(dp4271
g66
(dp4272
g74
I1
ssg75
g4266
sg68
(lp4273
I00
asbasbasbag61
(g77
g63
NtRp4274
(dp4275
g66
(dp4276
sg75
g4245
sg68
(lp4277
g61
(g82
g63
NtRp4278
(dp4279
g66
(dp4280
sg75
g4274
sg68
(lp4281
g61
(g62
g63
NtRp4282
(dp4283
g66
(dp4284
g74
I1
ssg75
g4278
sg68
(lp4285
Nasbasbasbag61
(g77
g63
NtRp4286
(dp4287
g66
(dp4288
sg75
g4245
sg68
(lp4289
g61
(g82
g63
NtRp4290
(dp4291
g66
(dp4292
sg75
g4286
sg68
(lp4293
g61
(g62
g63
NtRp4294
(dp4295
g66
(dp4296
g74
I1
ssg75
g4290
sg68
(lp4297
(lp4298
(g3761
(S't\x06\x00\x00\x00Groups'
tRp4299
I00
S'http://www.web2py.com/examples/default/usergroups'
p4300
tp4301
a(g3761
(S't\x07\x00\x00\x00Twitter'
tRp4302
I00
S'http://twitter.com/web2py'
p4303
tp4304
a(g3761
(S's\t\x00\x00\x00Live Chat'
tRp4305
I00
S'http://webchat.freenode.net/?channels=web2py'
p4306
tp4307
aasbasbasbasbasbasbasbag61
(g77
g63
NtRp4308
(dp4309
g66
(dp4310
sg75
g3875
sg68
(lp4311
g61
(g82
g63
NtRp4312
(dp4313
g66
(dp4314
sg75
g4308
sg68
(lp4315
g61
(g62
g63
NtRp4316
(dp4317
g66
(dp4318
g74
I2
ssg75
g4312
sg68
(lp4319
g61
(g70
g63
NtRp4320
(dp4321
g66
(dp4322
g74
I1
ssg75
Nsg68
(lp4323
g61
(g77
g63
NtRp4324
(dp4325
g66
(dp4326
sg75
g4320
sg68
(lp4327
g61
(g82
g63
NtRp4328
(dp4329
g66
(dp4330
sg75
g4324
sg68
(lp4331
g61
(g62
g63
NtRp4332
(dp4333
g66
(dp4334
g74
I1
ssg75
g4328
sg68
(lp4335
g3761
(S't\x07\x00\x00\x00Plugins'
tRp4336
asbasbasbag61
(g77
g63
NtRp4337
(dp4338
g66
(dp4339
sg75
g4320
sg68
(lp4340
g61
(g82
g63
NtRp4341
(dp4342
g66
(dp4343
sg75
g4337
sg68
(lp4344
g61
(g62
g63
NtRp4345
(dp4346
g66
(dp4347
g74
I1
ssg75
g4341
sg68
(lp4348
I00
asbasbasbag61
(g77
g63
NtRp4349
(dp4350
g66
(dp4351
sg75
g4320
sg68
(lp4352
g61
(g82
g63
NtRp4353
(dp4354
g66
(dp4355
sg75
g4349
sg68
(lp4356
g61
(g62
g63
NtRp4357
(dp4358
g66
(dp4359
g74
I1
ssg75
g4353
sg68
(lp4360
Nasbasbasbag61
(g77
g63
NtRp4361
(dp4362
g66
(dp4363
sg75
g4320
sg68
(lp4364
g61
(g82
g63
NtRp4365
(dp4366
g66
(dp4367
sg75
g4361
sg68
(lp4368
g61
(g62
g63
NtRp4369
(dp4370
g66
(dp4371
g74
I1
ssg75
g4365
sg68
(lp4372
(lp4373
(S'plugin_wiki'
p4374
I00
S'http://web2py.com/examples/default/download'
p4375
tp4376
a(g3761
(S's\r\x00\x00\x00Other Plugins'
tRp4377
I00
g4107
tp4378
a(g3761
(S's\x0e\x00\x00\x00Layout Plugins'
tRp4379
I00
g4110
tp4380
aasbasbasbasbasbasbasbasbasbasbasbasbasbasbasbasbasbasbasbag61
(g77
g63
NtRp4381
(dp4382
g66
(dp4383
sg75
g3237
sg68
(lp4384
g61
(g82
g63
NtRp4385
(dp4386
g66
(dp4387
g86
g87
ssg75
g4381
sg68
(lp4388
S'meta'
p4389
asbag61
(g82
g63
NtRp4390
(dp4391
g66
(dp4392
g93
g94
ssg75
g4381
sg68
(lp4393
S':'
asbag61
(g82
g63
NtRp4394
(dp4395
g66
(dp4396
sg75
g4381
sg68
(lp4397
g61
(g62
g63
NtRp4398
(dp4399
g66
(dp4400
g74
I5
ssg75
g4394
sg68
(lp4401
g61
(g70
g63
NtRp4402
(dp4403
g66
(dp4404
g74
I4
ssg75
Nsg68
(lp4405
g61
(g77
g63
NtRp4406
(dp4407
g66
(dp4408
sg75
g4402
sg68
(lp4409
g61
(g82
g63
NtRp4410
(dp4411
g66
(dp4412
g86
g87
ssg75
g4406
sg68
(lp4413
S'author'
p4414
asbag61
(g82
g63
NtRp4415
(dp4416
g66
(dp4417
g93
g94
ssg75
g4406
sg68
(lp4418
S':'
asbag61
(g82
g63
NtRp4419
(dp4420
g66
(dp4421
sg75
g4406
sg68
(lp4422
g61
(g62
g63
NtRp4423
(dp4424
g66
(dp4425
g74
I4
ssg75
g4419
sg68
(lp4426
S'Your Name <you@example.com>'
p4427
asbasbasbag61
(g77
g63
NtRp4428
(dp4429
g66
(dp4430
sg75
g4402
sg68
(lp4431
g61
(g82
g63
NtRp4432
(dp4433
g66
(dp4434
g86
g87
ssg75
g4428
sg68
(lp4435
S'copyright'
p4436
asbag61
(g82
g63
NtRp4437
(dp4438
g66
(dp4439
g93
g94
ssg75
g4428
sg68
(lp4440
S':'
asbag61
(g82
g63
NtRp4441
(dp4442
g66
(dp4443
sg75
g4428
sg68
(lp4444
g61
(g62
g63
NtRp4445
(dp4446
g66
(dp4447
g74
I4
ssg75
g4441
sg68
(lp4448
S'Copyright 2011'
p4449
asbasbasbag61
(g77
g63
NtRp4450
(dp4451
g66
(dp4452
sg75
g4402
sg68
(lp4453
g61
(g82
g63
NtRp4454
(dp4455
g66
(dp4456
g86
g87
ssg75
g4450
sg68
(lp4457
S'description'
p4458
asbag61
(g82
g63
NtRp4459
(dp4460
g66
(dp4461
g93
g94
ssg75
g4450
sg68
(lp4462
S':'
asbag61
(g82
g63
NtRp4463
(dp4464
g66
(dp4465
sg75
g4450
sg68
(lp4466
g61
(g62
g63
NtRp4467
(dp4468
g66
(dp4469
g74
I4
ssg75
g4463
sg68
(lp4470
S'a cool new app'
p4471
asbasbasbag61
(g77
g63
NtRp4472
(dp4473
g66
(dp4474
sg75
g4402
sg68
(lp4475
g61
(g82
g63
NtRp4476
(dp4477
g66
(dp4478
g86
g87
ssg75
g4472
sg68
(lp4479
S'generator'
p4480
asbag61
(g82
g63
NtRp4481
(dp4482
g66
(dp4483
g93
g94
ssg75
g4472
sg68
(lp4484
S':'
asbag61
(g82
g63
NtRp4485
(dp4486
g66
(dp4487
sg75
g4472
sg68
(lp4488
g61
(g62
g63
NtRp4489
(dp4490
g66
(dp4491
g74
I4
ssg75
g4485
sg68
(lp4492
S'Web2py Web Framework'
p4493
asbasbasbag61
(g77
g63
NtRp4494
(dp4495
g66
(dp4496
sg75
g4402
sg68
(lp4497
g61
(g82
g63
NtRp4498
(dp4499
g66
(dp4500
g86
g87
ssg75
g4494
sg68
(lp4501
S'keywords'
p4502
asbag61
(g82
g63
NtRp4503
(dp4504
g66
(dp4505
g93
g94
ssg75
g4494
sg68
(lp4506
S':'
asbag61
(g82
g63
NtRp4507
(dp4508
g66
(dp4509
sg75
g4494
sg68
(lp4510
g61
(g62
g63
NtRp4511
(dp4512
g66
(dp4513
g74
I4
ssg75
g4507
sg68
(lp4514
S'web2py, python, framework'
p4515
asbasbasbasbasbasbasbag61
(g77
g63
NtRp4516
(dp4517
g66
(dp4518
sg75
g3237
sg68
(lp4519
g61
(g82
g63
NtRp4520
(dp4521
g66
(dp4522
g86
g87
ssg75
g4516
sg68
(lp4523
S'postprocessing'
p4524
asbag61
(g82
g63
NtRp4525
(dp4526
g66
(dp4527
g93
g94
ssg75
g4516
sg68
(lp4528
S':'
asbag61
(g82
g63
NtRp4529
(dp4530
g66
(dp4531
sg75
g4516
sg68
(lp4532
g61
(g62
g63
NtRp4533
(dp4534
g66
(dp4535
g74
I5
ssg75
g4529
sg68
(lp4536
g61
(g70
g63
NtRp4537
(dp4538
g66
(dp4539
g74
I4
ssg75
Nsg68
(lp4540
sbasbasbasbag61
(g77
g63
NtRp4541
(dp4542
g66
(dp4543
sg75
g3237
sg68
(lp4544
g61
(g82
g63
NtRp4545
(dp4546
g66
(dp4547
g86
g87
ssg75
g4541
sg68
(lp4548
S'session_file'
p4549
asbag61
(g82
g63
NtRp4550
(dp4551
g66
(dp4552
g93
g94
ssg75
g4541
sg68
(lp4553
S':'
asbag61
(g82
g63
NtRp4554
(dp4555
g66
(dp4556
sg75
g4541
sg68
(lp4557
g61
(g62
g63
NtRp4558
(dp4559
g66
(dp4560
g74
I5
ssg75
g4554
sg68
(lp4561
S"<open file 'C:\\web2py\\applications\\unioeste_code\\sessions\\127.0.0.1-e59d045c-674a-4956-aa17-8fef39f61cb3', mode 'rb+' at 0x064B3D58>"
p4562
asbasbasbag61
(g77
g63
NtRp4563
(dp4564
g66
(dp4565
sg75
g3237
sg68
(lp4566
g61
(g82
g63
NtRp4567
(dp4568
g66
(dp4569
g86
g87
ssg75
g4563
sg68
(lp4570
S'session_filename'
p4571
asbag61
(g82
g63
NtRp4572
(dp4573
g66
(dp4574
g93
g94
ssg75
g4563
sg68
(lp4575
S':'
asbag61
(g82
g63
NtRp4576
(dp4577
g66
(dp4578
sg75
g4563
sg68
(lp4579
g61
(g62
g63
NtRp4580
(dp4581
g66
(dp4582
g74
I5
ssg75
g4576
sg68
(lp4583
S'C:\\web2py\\applications\\unioeste_code\\sessions\\127.0.0.1-e59d045c-674a-4956-aa17-8fef39f61cb3'
p4584
asbasbasbag61
(g77
g63
NtRp4585
(dp4586
g66
(dp4587
sg75
g3237
sg68
(lp4588
g61
(g82
g63
NtRp4589
(dp4590
g66
(dp4591
g86
g87
ssg75
g4585
sg68
(lp4592
S'session_id'
p4593
asbag61
(g82
g63
NtRp4594
(dp4595
g66
(dp4596
g93
g94
ssg75
g4585
sg68
(lp4597
S':'
asbag61
(g82
g63
NtRp4598
(dp4599
g66
(dp4600
sg75
g4585
sg68
(lp4601
g61
(g62
g63
NtRp4602
(dp4603
g66
(dp4604
g74
I5
ssg75
g4598
sg68
(lp4605
S'127.0.0.1-e59d045c-674a-4956-aa17-8fef39f61cb3'
p4606
asbasbasbag61
(g77
g63
NtRp4607
(dp4608
g66
(dp4609
sg75
g3237
sg68
(lp4610
g61
(g82
g63
NtRp4611
(dp4612
g66
(dp4613
g86
g87
ssg75
g4607
sg68
(lp4614
S'session_id_name'
p4615
asbag61
(g82
g63
NtRp4616
(dp4617
g66
(dp4618
g93
g94
ssg75
g4607
sg68
(lp4619
S':'
asbag61
(g82
g63
NtRp4620
(dp4621
g66
(dp4622
sg75
g4607
sg68
(lp4623
g61
(g62
g63
NtRp4624
(dp4625
g66
(dp4626
g74
I5
ssg75
g4620
sg68
(lp4627
g3294
asbasbasbag61
(g77
g63
NtRp4628
(dp4629
g66
(dp4630
sg75
g3237
sg68
(lp4631
g61
(g82
g63
NtRp4632
(dp4633
g66
(dp4634
g86
g87
ssg75
g4628
sg68
(lp4635
S'session_locked'
p4636
asbag61
(g82
g63
NtRp4637
(dp4638
g66
(dp4639
g93
g94
ssg75
g4628
sg68
(lp4640
S':'
asbag61
(g82
g63
NtRp4641
(dp4642
g66
(dp4643
sg75
g4628
sg68
(lp4644
g61
(g62
g63
NtRp4645
(dp4646
g66
(dp4647
g74
I5
ssg75
g4641
sg68
(lp4648
g1477
asbasbasbag61
(g77
g63
NtRp4649
(dp4650
g66
(dp4651
sg75
g3237
sg68
(lp4652
g61
(g82
g63
NtRp4653
(dp4654
g66
(dp4655
g86
g87
ssg75
g4649
sg68
(lp4656
S'session_new'
p4657
asbag61
(g82
g63
NtRp4658
(dp4659
g66
(dp4660
g93
g94
ssg75
g4649
sg68
(lp4661
S':'
asbag61
(g82
g63
NtRp4662
(dp4663
g66
(dp4664
sg75
g4649
sg68
(lp4665
g61
(g62
g63
NtRp4666
(dp4667
g66
(dp4668
g74
I5
ssg75
g4662
sg68
(lp4669
g104
asbasbasbag61
(g77
g63
NtRp4670
(dp4671
g66
(dp4672
sg75
g3237
sg68
(lp4673
g61
(g82
g63
NtRp4674
(dp4675
g66
(dp4676
g86
g87
ssg75
g4670
sg68
(lp4677
S'status'
p4678
asbag61
(g82
g63
NtRp4679
(dp4680
g66
(dp4681
g93
g94
ssg75
g4670
sg68
(lp4682
S':'
asbag61
(g82
g63
NtRp4683
(dp4684
g66
(dp4685
sg75
g4670
sg68
(lp4686
g61
(g62
g63
NtRp4687
(dp4688
g66
(dp4689
g74
I5
ssg75
g4683
sg68
(lp4690
S'200'
p4691
asbasbasbag61
(g77
g63
NtRp4692
(dp4693
g66
(dp4694
sg75
g3237
sg68
(lp4695
g61
(g82
g63
NtRp4696
(dp4697
g66
(dp4698
g86
g87
ssg75
g4692
sg68
(lp4699
S'subtitle'
p4700
asbag61
(g82
g63
NtRp4701
(dp4702
g66
(dp4703
g93
g94
ssg75
g4692
sg68
(lp4704
S':'
asbag61
(g82
g63
NtRp4705
(dp4706
g66
(dp4707
sg75
g4692
sg68
(lp4708
g61
(g62
g63
NtRp4709
(dp4710
g66
(dp4711
g74
I5
ssg75
g4705
sg68
(lp4712
g3761
(S's\x0f\x00\x00\x00Personalize-me!'
tRp4713
asbasbasbag61
(g77
g63
NtRp4714
(dp4715
g66
(dp4716
sg75
g3237
sg68
(lp4717
g61
(g82
g63
NtRp4718
(dp4719
g66
(dp4720
g86
g87
ssg75
g4714
sg68
(lp4721
S'title'
p4722
asbag61
(g82
g63
NtRp4723
(dp4724
g66
(dp4725
g93
g94
ssg75
g4714
sg68
(lp4726
S':'
asbag61
(g82
g63
NtRp4727
(dp4728
g66
(dp4729
sg75
g4714
sg68
(lp4730
g61
(g62
g63
NtRp4731
(dp4732
g66
(dp4733
g74
I5
ssg75
g4727
sg68
(lp4734
S'Unioeste Code'
p4735
asbasbasbag61
(g77
g63
NtRp4736
(dp4737
g66
(dp4738
sg75
g3237
sg68
(lp4739
g61
(g82
g63
NtRp4740
(dp4741
g66
(dp4742
g86
g87
ssg75
g4736
sg68
(lp4743
g2141
asbag61
(g82
g63
NtRp4744
(dp4745
g66
(dp4746
g93
g94
ssg75
g4736
sg68
(lp4747
S':'
asbag61
(g82
g63
NtRp4748
(dp4749
g66
(dp4750
sg75
g4736
sg68
(lp4751
g61
(g62
g63
NtRp4752
(dp4753
g66
(dp4754
g74
I5
ssg75
g4748
sg68
(lp4755
g2154
asbasbasbag61
(g77
g63
NtRp4756
(dp4757
g66
(dp4758
sg75
g3237
sg68
(lp4759
g61
(g82
g63
NtRp4760
(dp4761
g66
(dp4762
g86
g87
ssg75
g4756
sg68
(lp4763
S'view'
p4764
asbag61
(g82
g63
NtRp4765
(dp4766
g66
(dp4767
g93
g94
ssg75
g4756
sg68
(lp4768
S':'
asbag61
(g82
g63
NtRp4769
(dp4770
g66
(dp4771
sg75
g4756
sg68
(lp4772
g61
(g62
g63
NtRp4773
(dp4774
g66
(dp4775
g74
I5
ssg75
g4769
sg68
(lp4776
S'default/index.html'
p4777
asbasbasbasbasbsS'locals'
p4778
(dp4779
g4
S"r'C:\\web2py\\applications\\unioeste_code\\views\\default/index.html'"
p4780
sg6
S'\'response.write(\\\'<!DOCTYPE html>\\\\r\\\\n<html lang="e...n\\\\r\\\\n  </body>\\\\r\\\\n</html>\\\\r\\\\n\\\\r\\\\n\\\', escape=False)\''
p4781
sssS'traceback'
p4782
S'Traceback (most recent call last):\n  File "gluon/restricted.py", line 204, in restricted\n  File "gluon/restricted.py", line 189, in compile2\n  File "C:\\web2py\\applications\\unioeste_code\\views\\default/index.html", line 32\n    response.write(SPAN(prettydate(problem.created_on), _style="font-size: 80%" )))\n                                                                                  ^\nSyntaxError: invalid syntax\n'
p4783
s.