(dp1
S'output'
p2
S"<type 'exceptions.ValueError'> too many values to unpack"
p3
sS'layer'
p4
S'C:\\web2py\\applications\\unioeste_code\\views\\default/showProblem.html'
p5
sS'code'
p6
S'response.write(\'<!DOCTYPE html>\\n<!-- paulirish.com/2008/conditional-stylesheets-vs-css-hacks-answer-neither/ -->\\n<!--[if lt IE 7]><html class="ie ie6 ie-lte9 ie-lte8 ie-lte7 no-js" lang="\', escape=False)\nresponse.write(T.accepted_language or \'en\')\nresponse.write(\'"> <![endif]-->\\n<!--[if IE 7]><html class="ie ie7 ie-lte9 ie-lte8 ie-lte7 no-js" lang="\', escape=False)\nresponse.write(T.accepted_language or \'en\')\nresponse.write(\'"> <![endif]-->\\n<!--[if IE 8]><html class="ie ie8 ie-lte9 ie-lte8 no-js" lang="\', escape=False)\nresponse.write(T.accepted_language or \'en\')\nresponse.write(\'"> <![endif]-->\\n<!--[if IE 9]><html class="ie9 ie-lte9 no-js" lang="\', escape=False)\nresponse.write(T.accepted_language or \'en\')\nresponse.write(\'"> <![endif]-->\\n<!--[if (gt IE 9)|!(IE)]><!--> <html class="no-js" lang="\', escape=False)\nresponse.write(T.accepted_language or \'en\')\nresponse.write(\'"> <!--<![endif]-->\\n<head>\\n  <meta charset="utf-8" />\\n  <!-- www.phpied.com/conditional-comments-block-downloads/ -->\\n  <!-- Always force latest IE rendering engine\\n\\t   (even in intranet) & Chrome Frame\\n\\t   Remove this if you use the .htaccess -->\\n  <!--[if IE]>\\n    <meta http-equiv="X-UA-Compatible" content="IE=edge\', escape=False)\nresponse.write(not request.is_local and \',chrome=1\' or \'\')\nresponse.write(\'">\\n  <![endif]-->\\n  \\n  <title>\', escape=False)\nresponse.write(response.title or request.application)\nresponse.write(\'</title>\\n  \\n  <!-- http://dev.w3.org/html5/markup/meta.name.html -->\\n  <meta name="application-name" content="\', escape=False)\nresponse.write(request.application)\nresponse.write(\'" />\\n  \\n  <!-- Speaking of Google, don\\\'t forget to set your site up:\\n\\t   http://google.com/webmasters -->\\n  <meta name="google-site-verification" content="" />\\n\\n  <!--  Mobile Viewport Fix\\n\\t  j.mp/mobileviewport & davidbcalhoun.com/2010/viewport-metatag\\n\\t  device-width: Occupy full width of the screen in its current orientation\\n\\t  initial-scale = 1.0 retains dimensions instead of zooming out if page height > device height\\n\\t  user-scalable = yes allows the user to zoom in -->\\n  <meta name="viewport" content="width=device-width, initial-scale=1.0, user-scalable=yes">\\n  \\n  <!-- Place favicon.ico and apple-touch-icon.png in the root of your domain and delete these references -->\\n  <link rel="shortcut icon" href="\', escape=False)\nresponse.write(URL(\'static\',\'favicon.ico\'))\nresponse.write(\'" type="image/x-icon">\\n  <link rel="apple-touch-icon" href="\', escape=False)\nresponse.write(URL(\'static\',\'favicon.png\'))\nresponse.write(\'">\\n\\n  <script src="../static/lib/codemirror.js"></script>\\n  <link rel="stylesheet" href="../static/lib/codemirror.css">\\n  <script src="../static/mode/clike.js"></script>\\n\\n  <!-- All JavaScript at the bottom, except for Modernizr which enables \\n\\t   HTML5 elements & feature detects -->\\n  <script src="\', escape=False)\nresponse.write(URL(\'static\',\'js/modernizr.custom.js\'))\nresponse.write(\'"></script>  \\n\\n  <!-- include stylesheets -->\\n  \', escape=False)\nresponse.files.append(URL(\'static\',\'css/skeleton.css\'))\nresponse.files.append(URL(\'static\',\'css/web2py.css\'))\nif response.menu:\n    response.files.append(URL(\'static\',\'css/superfish.css\'))\n    response.files.append(URL(\'static\',\'js/superfish.js\'))\n    pass\nresponse.write(\'\\n\\n  \', escape=False)\nresponse.write(\'<script type="text/javascript"><!--\\n    // These variables are used by the web2py_ajax_init function in web2py_ajax.js (which is loaded below).\\n    var w2p_ajax_confirm_message = "\', escape=False)\nresponse.write(T(\'Are you sure you want to delete this object?\'))\nresponse.write(\'";\\n    var w2p_ajax_date_format = "\', escape=False)\nresponse.write(T(\'%Y-%m-%d\'))\nresponse.write(\'";\\n    var w2p_ajax_datetime_format = "\', escape=False)\nresponse.write(T(\'%Y-%m-%d %H:%M:%S\'))\nresponse.write(\'";\\n    //--></script>\\n\', escape=False)\nresponse.files.insert(0,URL(\'static\',\'js/jquery.js\'))\nresponse.files.insert(1,URL(\'static\',\'css/calendar.css\'))\nresponse.files.insert(2,URL(\'static\',\'js/calendar.js\'))\nresponse.files.insert(3,URL(\'static\',\'js/web2py.js\'))\nresponse.include_meta()\nresponse.include_files()\nresponse.write(\'\\n\', escape=False)\nresponse.write(\'\\n\\n  \', escape=False)\nif response.menu:\n    response.write(\'\\n  <script type="text/javascript">\\n    jQuery(function(){ jQuery(\\\'ul.sf-menu\\\').supersubs({minWidth:12,maxWidth:30,extraWidth:3}).superfish(); });\\n  </script>\\n  \', escape=False)\n    pass\nresponse.write(\'\\n\\n  \', escape=False)\n# using sidebars need to know what sidebar you want to use\nleft_sidebar_enabled = globals().get(\'left_sidebar_enabled\',False)\nright_sidebar_enabled = globals().get(\'right_sidebar_enabled\',False)\nmiddle_columns = {0:\'sixteen\',1:\'twelve\',2:\'eight\'}[\n(left_sidebar_enabled and 1 or 0)+(right_sidebar_enabled and 1 or 0)]\nresponse.write(\'\\n\\n  <!-- uncomment here to load jquery-ui\\n  <link rel="stylesheet" href="http://ajax.googleapis.com/ajax/libs/jqueryui/1.8.16/themes/base/jquery-ui.css" type="text/css" media="all" />\\n  <script src="http://ajax.googleapis.com/ajax/libs/jqueryui/1.8.16/jquery-ui.min.js" type="text/javascript"></script>\\n  uncomment to load jquery-ui //-->\\n</head>\\n<body>\\n  <div class="wrapper"><!-- for sticky footer -->\\n  \\n    <div class="topbar">\\n      <div class="container">    \\n        <div class="sixteen columns">\\n          <div id="navbar">\', escape=False)\nresponse.write(\'auth\' in globals() and auth.navbar(separators=(\' \',\' | \',\'\')))\nresponse.write(\'</div>\\n          \', escape=False)\nis_mobile=request.user_agent().is_mobile\nresponse.write(\'\\n\\t  \', escape=False)\nif response.menu:\n    response.write(\'\\n          <div id="menu">\\n             \', escape=False)\n    response.write(MENU(response.menu, _class=\'mobile-menu\' if is_mobile else \'sf-menu\',mobile=is_mobile))\n    response.write(\'\\n          </div>\\n          \', escape=False)\n    pass\nresponse.write(\'\\n        </div>\\n      </div>\\n    </div><!-- topbar -->\\n    \\n    <div class="flash">\', escape=False)\nresponse.write(response.flash or \'\')\nresponse.write(\'</div>\\n    \\n    <div class="header">\\n      <div class="container">         \\n        <div class="sixteen columns">\\n          <h1 class="remove-bottom" style="margin-top: .5em;">\\n          \', escape=False)\nresponse.write(response.title or request.application)\nresponse.write(\'\\n          </h1>\\n          <h5>\', escape=False)\nresponse.write(response.subtitle or \'\')\nresponse.write(\'</h5>\\n        </div>\\n        <div class="sixteen columns">\\n          <div class="statusbar clearfix">\\n            \', escape=False)\nresponse.write(\'\\n            <div class="breadcrumbs">\', escape=False)\nresponse.write(request.function.replace(\'_\', \' \').title())\nresponse.write(\'</div>\\n            \', escape=False)\nresponse.write(\'\\n            <!-- AddToAny BEGIN -->\\n            <div style="float:right; padding-top: .25em;" class="a2a_kit a2a_default_style">\\n            <a class="a2a_dd" href="http://www.addtoany.com/share_save">Share</a></div>\\n            <script type="text/javascript" src="http://static.addtoany.com/menu/page.js"></script>\\n            <!-- AddToAny END -->\\n          </div>\\n        </div>\\n      </div>\\n    </div>\\n\\n    <div class="main">\\n      <div class="container">                 \\n        \', escape=False)\nif left_sidebar_enabled:\n    response.write(\'\\n        <div class="four columns left-sidebar">\\n          \', escape=False)\n    response.write(\'\\n          <h3>Left Sidebar</h3>\\n          <p></p>\\n          \', escape=False)\n    response.write(\'\\n        </div>\\n        \', escape=False)\n    pass\nresponse.write(\'\\n        \\n        <div class="\', escape=False)\nresponse.write(middle_columns)\nresponse.write(\' columns center">\\n          \', escape=False)\nresponse.write(\'\\n          \', escape=False)\nresponse.write(\'\\r\\n\\r\\n\', escape=False)\nresponse.write(H1(problem.title))\nresponse.write(\'\\r\\n\', escape=False)\nresponse.write(H2("C\xc3\xb3digos postados", _style="color:green"))\nresponse.write(\'\\r\\n<ul>\\r\\n\', escape=False)\nfor i,code in codes:\n    response.write(\'\\r\\n\', escape=False)\n    user = db(db.auth_user.id==code.created_by).select().first()\n    response.write(\'\\r\\n\', escape=False)\n    s = user.first_name + " " + user.last_name + " - (" + user.email + ")"\n    response.write(\'\\r\\n<LI>\\r\\n\', escape=False)\n    response.write(A( + s, _href=URL("showCode", args=problem.id)))\n    response.write(\'\\r\\n\', escape=False)\n    response.write(prettydate(code.created_on))\n    response.write(\'\\r\\n</LI>\\r\\n\', escape=False)\n    pass\nresponse.write(\'\\r\\n</ul>\\r\\n\\r\\n\', escape=False)\nresponse.write(H2(T("Post your code!")))\nresponse.write(\'\\r\\n\', escape=False)\nresponse.write(form.custom.begin)\nresponse.write(\'\\r\\n<div>\\r\\n\', escape=False)\nresponse.write(form.custom.widget.body)\nresponse.write(\'\\r\\n</div>\\r\\n\', escape=False)\nresponse.write(form.custom.submit)\nresponse.write(\'\\r\\n\', escape=False)\nresponse.write(form.custom.end)\nresponse.write(\'\\r\\n\\r\\n\\r\\n\', escape=False)\nresponse.write(\'\\n          \', escape=False)\nresponse.write(\'\\n        </div>\\n        \\n        \', escape=False)\nif right_sidebar_enabled:\n    response.write(\'\\n        <div class="four columns">\\n          \', escape=False)\n    response.write(\'\\n          <h3>Right Sidebar</h3>\\n          <p></p>\\n          \', escape=False)\n    response.write(\'\\n        </div>    \\n        \', escape=False)\n    pass\nresponse.write(\'\\n        \\n      </div><!-- container -->\\n    </div><!-- main -->\\n    \\n    <div class="push"></div>\\n  </div><!-- wrapper -->\\n\\n  <div class="footer">\\n    <div class="container">    \\n      <div class="sixteen columns">\\n        \', escape=False)\nresponse.write(\' <!-- this is default footer -->\\n        <div class="footer-content clearfix">\\n          <div class="copyright">\', escape=False)\nresponse.write(T(\'Copyright\'))\nresponse.write(\' &#169; 2011</div>\\n          <div style="float: right;">\\n            <a href="http://www.web2py.com/">\\n            <img style="padding-bottom: 0;" src="\', escape=False)\nresponse.write(URL(\'static\',\'images/poweredby.png\'))\nresponse.write(\'"/>\\n            </a>\\n          </div>\\n        </div>\\n        \', escape=False)\nresponse.write(\'\\t\\n      </div>\\n    </div><!-- container -->\\n  </div><!-- footer -->\\n  \\n  <!--[if lt IE 7 ]>\\n\\t<script src="\', escape=False)\nresponse.write(URL(\'static\',\'js/dd_belatedpng.js\'))\nresponse.write(\'"></script>\\n\\t<script> DD_belatedPNG.fix(\\\'img, .png_bg\\\'); //fix any <img> or .png_bg background-images </script>\\n\\t<![endif]-->\\n  \', escape=False)\nif response.google_analytics_id:\n    response.write(\'<script type="text/javascript"> var _gaq = _gaq || []; _gaq.push([\\\'_setAccount\\\', \\\'\', escape=False)\n    response.write(response.google_analytics_id)\n    response.write("\']); _gaq.push([\'_trackPageview\']); (function() { var ga = document.createElement(\'script\'); ga.type = \'text/javascript\'; ga.async = true; ga.src = (\'https:\' == document.location.protocol ? \'https://ssl\' : \'http://www\') + \'.google-analytics.com/ga.js\'; var s = document.getElementsByTagName(\'script\')[0]; s.parentNode.insertBefore(ga, s); })(); </script> ", escape=False)\n    pass\nresponse.write(\'\\n</body>\\n</html>\\n\', escape=False)'
p7
sS'snapshot'
p8
(dp9
S'exception'
p10
(dp11
S'__hash__'
p12
S"<method-wrapper '__hash__' of exceptions.ValueError object at 0x068500D0>"
p13
sS'__setattr__'
p14
S"<method-wrapper '__setattr__' of exceptions.ValueError object at 0x068500D0>"
p15
sS'__reduce_ex__'
p16
S'<built-in method __reduce_ex__ of exceptions.ValueError object at 0x068500D0>'
p17
sS'__getslice__'
p18
S"<method-wrapper '__getslice__' of exceptions.ValueError object at 0x068500D0>"
p19
sS'__getitem__'
p20
S"<method-wrapper '__getitem__' of exceptions.ValueError object at 0x068500D0>"
p21
sS'__setstate__'
p22
S'<built-in method __setstate__ of exceptions.ValueError object at 0x068500D0>'
p23
sS'__reduce__'
p24
S'<built-in method __reduce__ of exceptions.ValueError object at 0x068500D0>'
p25
sS'__str__'
p26
S"<method-wrapper '__str__' of exceptions.ValueError object at 0x068500D0>"
p27
sS'args'
p28
S"('too many values to unpack',)"
p29
sS'__getattribute__'
p30
S"<method-wrapper '__getattribute__' of exceptions.ValueError object at 0x068500D0>"
p31
sS'__class__'
p32
S"<type 'exceptions.ValueError'>"
p33
sS'__delattr__'
p34
S"<method-wrapper '__delattr__' of exceptions.ValueError object at 0x068500D0>"
p35
sS'__repr__'
p36
S"<method-wrapper '__repr__' of exceptions.ValueError object at 0x068500D0>"
p37
sS'__dict__'
p38
S'{}'
p39
sS'__doc__'
p40
S"'Inappropriate argument value (of correct type).'"
p41
sS'__init__'
p42
S"<method-wrapper '__init__' of exceptions.ValueError object at 0x068500D0>"
p43
sS'__new__'
p44
S'<built-in method __new__ of type object at 0x1E1CE080>'
p45
ssS'evalue'
p46
S'too many values to unpack'
p47
sS'request'
p48
ccopy_reg
_reconstructor
p49
(cgluon.html
BEAUTIFY
p50
c__builtin__
object
p51
NtRp52
(dp53
S'attributes'
p54
(dp55
sS'components'
p56
(lp57
g49
(cgluon.html
TABLE
p58
g51
NtRp59
(dp60
g54
(dp61
S'level'
p62
I5
ssS'parent'
p63
Nsg56
(lp64
g49
(cgluon.html
TR
p65
g51
NtRp66
(dp67
g54
(dp68
sg63
g59
sg56
(lp69
g49
(cgluon.html
TD
p70
g51
NtRp71
(dp72
g54
(dp73
S'_style'
p74
S'font-weight:bold;vertical-align:top'
p75
ssg63
g66
sg56
(lp76
S'ajax'
p77
asbag49
(g70
g51
NtRp78
(dp79
g54
(dp80
S'_valign'
p81
S'top'
p82
ssg63
g66
sg56
(lp83
S':'
asbag49
(g70
g51
NtRp84
(dp85
g54
(dp86
sg63
g66
sg56
(lp87
g49
(g50
g51
NtRp88
(dp89
g54
(dp90
g62
I5
ssg63
g84
sg56
(lp91
S'False'
p92
asbasbasbag49
(g65
g51
NtRp93
(dp94
g54
(dp95
sg63
g59
sg56
(lp96
g49
(g70
g51
NtRp97
(dp98
g54
(dp99
g74
g75
ssg63
g93
sg56
(lp100
S'application'
p101
asbag49
(g70
g51
NtRp102
(dp103
g54
(dp104
g81
g82
ssg63
g93
sg56
(lp105
S':'
asbag49
(g70
g51
NtRp106
(dp107
g54
(dp108
sg63
g93
sg56
(lp109
g49
(g50
g51
NtRp110
(dp111
g54
(dp112
g62
I5
ssg63
g106
sg56
(lp113
S'unioeste_code'
p114
asbasbasbag49
(g65
g51
NtRp115
(dp116
g54
(dp117
sg63
g59
sg56
(lp118
g49
(g70
g51
NtRp119
(dp120
g54
(dp121
g74
g75
ssg63
g115
sg56
(lp122
g28
asbag49
(g70
g51
NtRp123
(dp124
g54
(dp125
g81
g82
ssg63
g115
sg56
(lp126
S':'
asbag49
(g70
g51
NtRp127
(dp128
g54
(dp129
sg63
g115
sg56
(lp130
g49
(g50
g51
NtRp131
(dp132
g54
(dp133
g62
I5
ssg63
g127
sg56
(lp134
g49
(g58
g51
NtRp135
(dp136
g54
(dp137
g62
I4
ssg63
Nsg56
(lp138
g49
(g65
g51
NtRp139
(dp140
g54
(dp141
sg63
g135
sg56
(lp142
g49
(g70
g51
NtRp143
(dp144
g54
(dp145
sg63
g139
sg56
(lp146
g49
(g50
g51
NtRp147
(dp148
g54
(dp149
g62
I4
ssg63
g143
sg56
(lp150
S'1'
asbasbasbasbasbasbasbag49
(g65
g51
NtRp151
(dp152
g54
(dp153
sg63
g59
sg56
(lp154
g49
(g70
g51
NtRp155
(dp156
g54
(dp157
g74
g75
ssg63
g151
sg56
(lp158
S'body'
p159
asbag49
(g70
g51
NtRp160
(dp161
g54
(dp162
g81
g82
ssg63
g151
sg56
(lp163
S':'
asbag49
(g70
g51
NtRp164
(dp165
g54
(dp166
sg63
g151
sg56
(lp167
g49
(g50
g51
NtRp168
(dp169
g54
(dp170
g62
I5
ssg63
g164
sg56
(lp171
S'<cStringIO.StringO object at 0x06A5F760>'
p172
asbasbasbag49
(g65
g51
NtRp173
(dp174
g54
(dp175
sg63
g59
sg56
(lp176
g49
(g70
g51
NtRp177
(dp178
g54
(dp179
g74
g75
ssg63
g173
sg56
(lp180
S'client'
p181
asbag49
(g70
g51
NtRp182
(dp183
g54
(dp184
g81
g82
ssg63
g173
sg56
(lp185
S':'
asbag49
(g70
g51
NtRp186
(dp187
g54
(dp188
sg63
g173
sg56
(lp189
g49
(g50
g51
NtRp190
(dp191
g54
(dp192
g62
I5
ssg63
g186
sg56
(lp193
S'127.0.0.1'
p194
asbasbasbag49
(g65
g51
NtRp195
(dp196
g54
(dp197
sg63
g59
sg56
(lp198
g49
(g70
g51
NtRp199
(dp200
g54
(dp201
g74
g75
ssg63
g195
sg56
(lp202
S'controller'
p203
asbag49
(g70
g51
NtRp204
(dp205
g54
(dp206
g81
g82
ssg63
g195
sg56
(lp207
S':'
asbag49
(g70
g51
NtRp208
(dp209
g54
(dp210
sg63
g195
sg56
(lp211
g49
(g50
g51
NtRp212
(dp213
g54
(dp214
g62
I5
ssg63
g208
sg56
(lp215
S'default'
p216
asbasbasbag49
(g65
g51
NtRp217
(dp218
g54
(dp219
sg63
g59
sg56
(lp220
g49
(g70
g51
NtRp221
(dp222
g54
(dp223
g74
g75
ssg63
g217
sg56
(lp224
S'cookies'
p225
asbag49
(g70
g51
NtRp226
(dp227
g54
(dp228
g81
g82
ssg63
g217
sg56
(lp229
S':'
asbag49
(g70
g51
NtRp230
(dp231
g54
(dp232
sg63
g217
sg56
(lp233
g49
(g50
g51
NtRp234
(dp235
g54
(dp236
g62
I5
ssg63
g230
sg56
(lp237
g49
(g58
g51
NtRp238
(dp239
g54
(dp240
g62
I4
ssg63
Nsg56
(lp241
g49
(g65
g51
NtRp242
(dp243
g54
(dp244
sg63
g238
sg56
(lp245
g49
(g70
g51
NtRp246
(dp247
g54
(dp248
g74
g75
ssg63
g242
sg56
(lp249
S'session_id_admin'
p250
asbag49
(g70
g51
NtRp251
(dp252
g54
(dp253
g81
g82
ssg63
g242
sg56
(lp254
S':'
asbag49
(g70
g51
NtRp255
(dp256
g54
(dp257
sg63
g242
sg56
(lp258
g49
(g50
g51
NtRp259
(dp260
g54
(dp261
g62
I4
ssg63
g255
sg56
(lp262
g49
(g58
g51
NtRp263
(dp264
g54
(dp265
g62
I3
ssg63
Nsg56
(lp266
g49
(g65
g51
NtRp267
(dp268
g54
(dp269
sg63
g263
sg56
(lp270
g49
(g70
g51
NtRp271
(dp272
g54
(dp273
g74
g75
ssg63
g267
sg56
(lp274
S'comment'
p275
asbag49
(g70
g51
NtRp276
(dp277
g54
(dp278
g81
g82
ssg63
g267
sg56
(lp279
S':'
asbag49
(g70
g51
NtRp280
(dp281
g54
(dp282
sg63
g267
sg56
(lp283
g49
(g50
g51
NtRp284
(dp285
g54
(dp286
g62
I3
ssg63
g280
sg56
(lp287
S''
asbasbasbag49
(g65
g51
NtRp288
(dp289
g54
(dp290
sg63
g263
sg56
(lp291
g49
(g70
g51
NtRp292
(dp293
g54
(dp294
g74
g75
ssg63
g288
sg56
(lp295
S'domain'
p296
asbag49
(g70
g51
NtRp297
(dp298
g54
(dp299
g81
g82
ssg63
g288
sg56
(lp300
S':'
asbag49
(g70
g51
NtRp301
(dp302
g54
(dp303
sg63
g288
sg56
(lp304
g49
(g50
g51
NtRp305
(dp306
g54
(dp307
g62
I3
ssg63
g301
sg56
(lp308
S''
asbasbasbag49
(g65
g51
NtRp309
(dp310
g54
(dp311
sg63
g263
sg56
(lp312
g49
(g70
g51
NtRp313
(dp314
g54
(dp315
g74
g75
ssg63
g309
sg56
(lp316
S'expires'
p317
asbag49
(g70
g51
NtRp318
(dp319
g54
(dp320
g81
g82
ssg63
g309
sg56
(lp321
S':'
asbag49
(g70
g51
NtRp322
(dp323
g54
(dp324
sg63
g309
sg56
(lp325
g49
(g50
g51
NtRp326
(dp327
g54
(dp328
g62
I3
ssg63
g322
sg56
(lp329
S''
asbasbasbag49
(g65
g51
NtRp330
(dp331
g54
(dp332
sg63
g263
sg56
(lp333
g49
(g70
g51
NtRp334
(dp335
g54
(dp336
g74
g75
ssg63
g330
sg56
(lp337
S'max-age'
p338
asbag49
(g70
g51
NtRp339
(dp340
g54
(dp341
g81
g82
ssg63
g330
sg56
(lp342
S':'
asbag49
(g70
g51
NtRp343
(dp344
g54
(dp345
sg63
g330
sg56
(lp346
g49
(g50
g51
NtRp347
(dp348
g54
(dp349
g62
I3
ssg63
g343
sg56
(lp350
S''
asbasbasbag49
(g65
g51
NtRp351
(dp352
g54
(dp353
sg63
g263
sg56
(lp354
g49
(g70
g51
NtRp355
(dp356
g54
(dp357
g74
g75
ssg63
g351
sg56
(lp358
S'path'
p359
asbag49
(g70
g51
NtRp360
(dp361
g54
(dp362
g81
g82
ssg63
g351
sg56
(lp363
S':'
asbag49
(g70
g51
NtRp364
(dp365
g54
(dp366
sg63
g351
sg56
(lp367
g49
(g50
g51
NtRp368
(dp369
g54
(dp370
g62
I3
ssg63
g364
sg56
(lp371
S''
asbasbasbag49
(g65
g51
NtRp372
(dp373
g54
(dp374
sg63
g263
sg56
(lp375
g49
(g70
g51
NtRp376
(dp377
g54
(dp378
g74
g75
ssg63
g372
sg56
(lp379
S'secure'
p380
asbag49
(g70
g51
NtRp381
(dp382
g54
(dp383
g81
g82
ssg63
g372
sg56
(lp384
S':'
asbag49
(g70
g51
NtRp385
(dp386
g54
(dp387
sg63
g372
sg56
(lp388
g49
(g50
g51
NtRp389
(dp390
g54
(dp391
g62
I3
ssg63
g385
sg56
(lp392
S''
asbasbasbag49
(g65
g51
NtRp393
(dp394
g54
(dp395
sg63
g263
sg56
(lp396
g49
(g70
g51
NtRp397
(dp398
g54
(dp399
g74
g75
ssg63
g393
sg56
(lp400
S'version'
p401
asbag49
(g70
g51
NtRp402
(dp403
g54
(dp404
g81
g82
ssg63
g393
sg56
(lp405
S':'
asbag49
(g70
g51
NtRp406
(dp407
g54
(dp408
sg63
g393
sg56
(lp409
g49
(g50
g51
NtRp410
(dp411
g54
(dp412
g62
I3
ssg63
g406
sg56
(lp413
S''
asbasbasbasbasbasbasbag49
(g65
g51
NtRp414
(dp415
g54
(dp416
sg63
g238
sg56
(lp417
g49
(g70
g51
NtRp418
(dp419
g54
(dp420
g74
g75
ssg63
g414
sg56
(lp421
S'session_id_unioeste_code'
p422
asbag49
(g70
g51
NtRp423
(dp424
g54
(dp425
g81
g82
ssg63
g414
sg56
(lp426
S':'
asbag49
(g70
g51
NtRp427
(dp428
g54
(dp429
sg63
g414
sg56
(lp430
g49
(g50
g51
NtRp431
(dp432
g54
(dp433
g62
I4
ssg63
g427
sg56
(lp434
g49
(g58
g51
NtRp435
(dp436
g54
(dp437
g62
I3
ssg63
Nsg56
(lp438
g49
(g65
g51
NtRp439
(dp440
g54
(dp441
sg63
g435
sg56
(lp442
g49
(g70
g51
NtRp443
(dp444
g54
(dp445
g74
g75
ssg63
g439
sg56
(lp446
g275
asbag49
(g70
g51
NtRp447
(dp448
g54
(dp449
g81
g82
ssg63
g439
sg56
(lp450
S':'
asbag49
(g70
g51
NtRp451
(dp452
g54
(dp453
sg63
g439
sg56
(lp454
g49
(g50
g51
NtRp455
(dp456
g54
(dp457
g62
I3
ssg63
g451
sg56
(lp458
S''
asbasbasbag49
(g65
g51
NtRp459
(dp460
g54
(dp461
sg63
g435
sg56
(lp462
g49
(g70
g51
NtRp463
(dp464
g54
(dp465
g74
g75
ssg63
g459
sg56
(lp466
g296
asbag49
(g70
g51
NtRp467
(dp468
g54
(dp469
g81
g82
ssg63
g459
sg56
(lp470
S':'
asbag49
(g70
g51
NtRp471
(dp472
g54
(dp473
sg63
g459
sg56
(lp474
g49
(g50
g51
NtRp475
(dp476
g54
(dp477
g62
I3
ssg63
g471
sg56
(lp478
S''
asbasbasbag49
(g65
g51
NtRp479
(dp480
g54
(dp481
sg63
g435
sg56
(lp482
g49
(g70
g51
NtRp483
(dp484
g54
(dp485
g74
g75
ssg63
g479
sg56
(lp486
g317
asbag49
(g70
g51
NtRp487
(dp488
g54
(dp489
g81
g82
ssg63
g479
sg56
(lp490
S':'
asbag49
(g70
g51
NtRp491
(dp492
g54
(dp493
sg63
g479
sg56
(lp494
g49
(g50
g51
NtRp495
(dp496
g54
(dp497
g62
I3
ssg63
g491
sg56
(lp498
S''
asbasbasbag49
(g65
g51
NtRp499
(dp500
g54
(dp501
sg63
g435
sg56
(lp502
g49
(g70
g51
NtRp503
(dp504
g54
(dp505
g74
g75
ssg63
g499
sg56
(lp506
g338
asbag49
(g70
g51
NtRp507
(dp508
g54
(dp509
g81
g82
ssg63
g499
sg56
(lp510
S':'
asbag49
(g70
g51
NtRp511
(dp512
g54
(dp513
sg63
g499
sg56
(lp514
g49
(g50
g51
NtRp515
(dp516
g54
(dp517
g62
I3
ssg63
g511
sg56
(lp518
S''
asbasbasbag49
(g65
g51
NtRp519
(dp520
g54
(dp521
sg63
g435
sg56
(lp522
g49
(g70
g51
NtRp523
(dp524
g54
(dp525
g74
g75
ssg63
g519
sg56
(lp526
g359
asbag49
(g70
g51
NtRp527
(dp528
g54
(dp529
g81
g82
ssg63
g519
sg56
(lp530
S':'
asbag49
(g70
g51
NtRp531
(dp532
g54
(dp533
sg63
g519
sg56
(lp534
g49
(g50
g51
NtRp535
(dp536
g54
(dp537
g62
I3
ssg63
g531
sg56
(lp538
S''
asbasbasbag49
(g65
g51
NtRp539
(dp540
g54
(dp541
sg63
g435
sg56
(lp542
g49
(g70
g51
NtRp543
(dp544
g54
(dp545
g74
g75
ssg63
g539
sg56
(lp546
g380
asbag49
(g70
g51
NtRp547
(dp548
g54
(dp549
g81
g82
ssg63
g539
sg56
(lp550
S':'
asbag49
(g70
g51
NtRp551
(dp552
g54
(dp553
sg63
g539
sg56
(lp554
g49
(g50
g51
NtRp555
(dp556
g54
(dp557
g62
I3
ssg63
g551
sg56
(lp558
S''
asbasbasbag49
(g65
g51
NtRp559
(dp560
g54
(dp561
sg63
g435
sg56
(lp562
g49
(g70
g51
NtRp563
(dp564
g54
(dp565
g74
g75
ssg63
g559
sg56
(lp566
g401
asbag49
(g70
g51
NtRp567
(dp568
g54
(dp569
g81
g82
ssg63
g559
sg56
(lp570
S':'
asbag49
(g70
g51
NtRp571
(dp572
g54
(dp573
sg63
g559
sg56
(lp574
g49
(g50
g51
NtRp575
(dp576
g54
(dp577
g62
I3
ssg63
g571
sg56
(lp578
S''
asbasbasbasbasbasbasbag49
(g65
g51
NtRp579
(dp580
g54
(dp581
sg63
g238
sg56
(lp582
g49
(g70
g51
NtRp583
(dp584
g54
(dp585
g74
g75
ssg63
g579
sg56
(lp586
S'session_id_welcome'
p587
asbag49
(g70
g51
NtRp588
(dp589
g54
(dp590
g81
g82
ssg63
g579
sg56
(lp591
S':'
asbag49
(g70
g51
NtRp592
(dp593
g54
(dp594
sg63
g579
sg56
(lp595
g49
(g50
g51
NtRp596
(dp597
g54
(dp598
g62
I4
ssg63
g592
sg56
(lp599
g49
(g58
g51
NtRp600
(dp601
g54
(dp602
g62
I3
ssg63
Nsg56
(lp603
g49
(g65
g51
NtRp604
(dp605
g54
(dp606
sg63
g600
sg56
(lp607
g49
(g70
g51
NtRp608
(dp609
g54
(dp610
g74
g75
ssg63
g604
sg56
(lp611
g275
asbag49
(g70
g51
NtRp612
(dp613
g54
(dp614
g81
g82
ssg63
g604
sg56
(lp615
S':'
asbag49
(g70
g51
NtRp616
(dp617
g54
(dp618
sg63
g604
sg56
(lp619
g49
(g50
g51
NtRp620
(dp621
g54
(dp622
g62
I3
ssg63
g616
sg56
(lp623
S''
asbasbasbag49
(g65
g51
NtRp624
(dp625
g54
(dp626
sg63
g600
sg56
(lp627
g49
(g70
g51
NtRp628
(dp629
g54
(dp630
g74
g75
ssg63
g624
sg56
(lp631
g296
asbag49
(g70
g51
NtRp632
(dp633
g54
(dp634
g81
g82
ssg63
g624
sg56
(lp635
S':'
asbag49
(g70
g51
NtRp636
(dp637
g54
(dp638
sg63
g624
sg56
(lp639
g49
(g50
g51
NtRp640
(dp641
g54
(dp642
g62
I3
ssg63
g636
sg56
(lp643
S''
asbasbasbag49
(g65
g51
NtRp644
(dp645
g54
(dp646
sg63
g600
sg56
(lp647
g49
(g70
g51
NtRp648
(dp649
g54
(dp650
g74
g75
ssg63
g644
sg56
(lp651
g317
asbag49
(g70
g51
NtRp652
(dp653
g54
(dp654
g81
g82
ssg63
g644
sg56
(lp655
S':'
asbag49
(g70
g51
NtRp656
(dp657
g54
(dp658
sg63
g644
sg56
(lp659
g49
(g50
g51
NtRp660
(dp661
g54
(dp662
g62
I3
ssg63
g656
sg56
(lp663
S''
asbasbasbag49
(g65
g51
NtRp664
(dp665
g54
(dp666
sg63
g600
sg56
(lp667
g49
(g70
g51
NtRp668
(dp669
g54
(dp670
g74
g75
ssg63
g664
sg56
(lp671
g338
asbag49
(g70
g51
NtRp672
(dp673
g54
(dp674
g81
g82
ssg63
g664
sg56
(lp675
S':'
asbag49
(g70
g51
NtRp676
(dp677
g54
(dp678
sg63
g664
sg56
(lp679
g49
(g50
g51
NtRp680
(dp681
g54
(dp682
g62
I3
ssg63
g676
sg56
(lp683
S''
asbasbasbag49
(g65
g51
NtRp684
(dp685
g54
(dp686
sg63
g600
sg56
(lp687
g49
(g70
g51
NtRp688
(dp689
g54
(dp690
g74
g75
ssg63
g684
sg56
(lp691
g359
asbag49
(g70
g51
NtRp692
(dp693
g54
(dp694
g81
g82
ssg63
g684
sg56
(lp695
S':'
asbag49
(g70
g51
NtRp696
(dp697
g54
(dp698
sg63
g684
sg56
(lp699
g49
(g50
g51
NtRp700
(dp701
g54
(dp702
g62
I3
ssg63
g696
sg56
(lp703
S''
asbasbasbag49
(g65
g51
NtRp704
(dp705
g54
(dp706
sg63
g600
sg56
(lp707
g49
(g70
g51
NtRp708
(dp709
g54
(dp710
g74
g75
ssg63
g704
sg56
(lp711
g380
asbag49
(g70
g51
NtRp712
(dp713
g54
(dp714
g81
g82
ssg63
g704
sg56
(lp715
S':'
asbag49
(g70
g51
NtRp716
(dp717
g54
(dp718
sg63
g704
sg56
(lp719
g49
(g50
g51
NtRp720
(dp721
g54
(dp722
g62
I3
ssg63
g716
sg56
(lp723
S''
asbasbasbag49
(g65
g51
NtRp724
(dp725
g54
(dp726
sg63
g600
sg56
(lp727
g49
(g70
g51
NtRp728
(dp729
g54
(dp730
g74
g75
ssg63
g724
sg56
(lp731
g401
asbag49
(g70
g51
NtRp732
(dp733
g54
(dp734
g81
g82
ssg63
g724
sg56
(lp735
S':'
asbag49
(g70
g51
NtRp736
(dp737
g54
(dp738
sg63
g724
sg56
(lp739
g49
(g50
g51
NtRp740
(dp741
g54
(dp742
g62
I3
ssg63
g736
sg56
(lp743
S''
asbasbasbasbasbasbasbasbasbasbasbag49
(g65
g51
NtRp744
(dp745
g54
(dp746
sg63
g59
sg56
(lp747
g49
(g70
g51
NtRp748
(dp749
g54
(dp750
g74
g75
ssg63
g744
sg56
(lp751
S'env'
p752
asbag49
(g70
g51
NtRp753
(dp754
g54
(dp755
g81
g82
ssg63
g744
sg56
(lp756
S':'
asbag49
(g70
g51
NtRp757
(dp758
g54
(dp759
sg63
g744
sg56
(lp760
g49
(g50
g51
NtRp761
(dp762
g54
(dp763
g62
I5
ssg63
g757
sg56
(lp764
g49
(g58
g51
NtRp765
(dp766
g54
(dp767
g62
I4
ssg63
Nsg56
(lp768
g49
(g65
g51
NtRp769
(dp770
g54
(dp771
sg63
g765
sg56
(lp772
g49
(g70
g51
NtRp773
(dp774
g54
(dp775
g74
g75
ssg63
g769
sg56
(lp776
S'app_folders'
p777
asbag49
(g70
g51
NtRp778
(dp779
g54
(dp780
g81
g82
ssg63
g769
sg56
(lp781
S':'
asbag49
(g70
g51
NtRp782
(dp783
g54
(dp784
sg63
g769
sg56
(lp785
g49
(g50
g51
NtRp786
(dp787
g54
(dp788
g62
I4
ssg63
g782
sg56
(lp789
S"set(['C:\\\\web2py\\\\applications\\\\admin\\\\', 'C:\\\\web2py\\\\applications\\\\welcome\\\\', 'C:\\\\web2py\\\\applications\\\\unioeste_code\\\\'])"
p790
asbasbasbag49
(g65
g51
NtRp791
(dp792
g54
(dp793
sg63
g765
sg56
(lp794
g49
(g70
g51
NtRp795
(dp796
g54
(dp797
g74
g75
ssg63
g791
sg56
(lp798
S'applications_parent'
p799
asbag49
(g70
g51
NtRp800
(dp801
g54
(dp802
g81
g82
ssg63
g791
sg56
(lp803
S':'
asbag49
(g70
g51
NtRp804
(dp805
g54
(dp806
sg63
g791
sg56
(lp807
g49
(g50
g51
NtRp808
(dp809
g54
(dp810
g62
I4
ssg63
g804
sg56
(lp811
S'C:\\web2py'
p812
asbasbasbag49
(g65
g51
NtRp813
(dp814
g54
(dp815
sg63
g765
sg56
(lp816
g49
(g70
g51
NtRp817
(dp818
g54
(dp819
g74
g75
ssg63
g813
sg56
(lp820
S'cmd_args'
p821
asbag49
(g70
g51
NtRp822
(dp823
g54
(dp824
g81
g82
ssg63
g813
sg56
(lp825
S':'
asbag49
(g70
g51
NtRp826
(dp827
g54
(dp828
sg63
g813
sg56
(lp829
g49
(g50
g51
NtRp830
(dp831
g54
(dp832
g62
I4
ssg63
g826
sg56
(lp833
g49
(g58
g51
NtRp834
(dp835
g54
(dp836
g62
I3
ssg63
Nsg56
(lp837
sbasbasbasbag49
(g65
g51
NtRp838
(dp839
g54
(dp840
sg63
g765
sg56
(lp841
g49
(g70
g51
NtRp842
(dp843
g54
(dp844
g74
g75
ssg63
g838
sg56
(lp845
S'cmd_options'
p846
asbag49
(g70
g51
NtRp847
(dp848
g54
(dp849
g81
g82
ssg63
g838
sg56
(lp850
S':'
asbag49
(g70
g51
NtRp851
(dp852
g54
(dp853
sg63
g838
sg56
(lp854
g49
(g50
g51
NtRp855
(dp856
g54
(dp857
g62
I4
ssg63
g851
sg56
(lp858
S"<Values at 0x309c300: {'verbose': False, 'ip': '127.0.0.1', 'shutdown_timeout': 5, 'taskbar': False, 'nocron': False, 'pid_filename': 'httpserver.pid', 'maxthreads': None, 'softcron': False, 'server_name': 'Pedro-PC', 'bpython': False, 'nogui': False, 'port': 8000, 'extcron': False, 'debuglevel': 30, 'test': None, 'folder': 'C:\\\\web2py', 'config': '', 'import_models': False, 'winservice': '', 'shell': None, 'run': '', 'log_filename': 'httpserver.log', 'args': [''], 'socket_timeout': 5, 'ssl_ca_certificate': None, 'scheduler': None, 'profiler_filename': None, 'ssl_private_key': '', 'password': '<ask>', 'request_queue_size': 5, 'ssl_certificate': '', 'cronjob': False, 'numthreads': None, 'quiet': False, 'interfaces': None, 'minthreads': None, 'timeout': 10, 'plain': False, 'nobanner': False}>"
p859
asbasbasbag49
(g65
g51
NtRp860
(dp861
g54
(dp862
sg63
g765
sg56
(lp863
g49
(g70
g51
NtRp864
(dp865
g54
(dp866
g74
g75
ssg63
g860
sg56
(lp867
S'db_sessions'
p868
asbag49
(g70
g51
NtRp869
(dp870
g54
(dp871
g81
g82
ssg63
g860
sg56
(lp872
S':'
asbag49
(g70
g51
NtRp873
(dp874
g54
(dp875
sg63
g860
sg56
(lp876
g49
(g50
g51
NtRp877
(dp878
g54
(dp879
g62
I4
ssg63
g873
sg56
(lp880
S'set([])'
p881
asbasbasbag49
(g65
g51
NtRp882
(dp883
g54
(dp884
sg63
g765
sg56
(lp885
g49
(g70
g51
NtRp886
(dp887
g54
(dp888
g74
g75
ssg63
g882
sg56
(lp889
S'debugging'
p890
asbag49
(g70
g51
NtRp891
(dp892
g54
(dp893
g81
g82
ssg63
g882
sg56
(lp894
S':'
asbag49
(g70
g51
NtRp895
(dp896
g54
(dp897
sg63
g882
sg56
(lp898
g49
(g50
g51
NtRp899
(dp900
g54
(dp901
g62
I4
ssg63
g895
sg56
(lp902
g92
asbasbasbag49
(g65
g51
NtRp903
(dp904
g54
(dp905
sg63
g765
sg56
(lp906
g49
(g70
g51
NtRp907
(dp908
g54
(dp909
g74
g75
ssg63
g903
sg56
(lp910
S'gluon_parent'
p911
asbag49
(g70
g51
NtRp912
(dp913
g54
(dp914
g81
g82
ssg63
g903
sg56
(lp915
S':'
asbag49
(g70
g51
NtRp916
(dp917
g54
(dp918
sg63
g903
sg56
(lp919
g49
(g50
g51
NtRp920
(dp921
g54
(dp922
g62
I4
ssg63
g916
sg56
(lp923
S'C:\\web2py'
p924
asbasbasbag49
(g65
g51
NtRp925
(dp926
g54
(dp927
sg63
g765
sg56
(lp928
g49
(g70
g51
NtRp929
(dp930
g54
(dp931
g74
g75
ssg63
g925
sg56
(lp932
S'http_accept'
p933
asbag49
(g70
g51
NtRp934
(dp935
g54
(dp936
g81
g82
ssg63
g925
sg56
(lp937
S':'
asbag49
(g70
g51
NtRp938
(dp939
g54
(dp940
sg63
g925
sg56
(lp941
g49
(g50
g51
NtRp942
(dp943
g54
(dp944
g62
I4
ssg63
g938
sg56
(lp945
S'text/html,application/xhtml+xml,application/xml;q=0.9,*/*;q=0.8'
p946
asbasbasbag49
(g65
g51
NtRp947
(dp948
g54
(dp949
sg63
g765
sg56
(lp950
g49
(g70
g51
NtRp951
(dp952
g54
(dp953
g74
g75
ssg63
g947
sg56
(lp954
S'http_accept_charset'
p955
asbag49
(g70
g51
NtRp956
(dp957
g54
(dp958
g81
g82
ssg63
g947
sg56
(lp959
S':'
asbag49
(g70
g51
NtRp960
(dp961
g54
(dp962
sg63
g947
sg56
(lp963
g49
(g50
g51
NtRp964
(dp965
g54
(dp966
g62
I4
ssg63
g960
sg56
(lp967
S'ISO-8859-1,utf-8;q=0.7,*;q=0.3'
p968
asbasbasbag49
(g65
g51
NtRp969
(dp970
g54
(dp971
sg63
g765
sg56
(lp972
g49
(g70
g51
NtRp973
(dp974
g54
(dp975
g74
g75
ssg63
g969
sg56
(lp976
S'http_accept_encoding'
p977
asbag49
(g70
g51
NtRp978
(dp979
g54
(dp980
g81
g82
ssg63
g969
sg56
(lp981
S':'
asbag49
(g70
g51
NtRp982
(dp983
g54
(dp984
sg63
g969
sg56
(lp985
g49
(g50
g51
NtRp986
(dp987
g54
(dp988
g62
I4
ssg63
g982
sg56
(lp989
S'gzip,deflate,sdch'
p990
asbasbasbag49
(g65
g51
NtRp991
(dp992
g54
(dp993
sg63
g765
sg56
(lp994
g49
(g70
g51
NtRp995
(dp996
g54
(dp997
g74
g75
ssg63
g991
sg56
(lp998
S'http_accept_language'
p999
asbag49
(g70
g51
NtRp1000
(dp1001
g54
(dp1002
g81
g82
ssg63
g991
sg56
(lp1003
S':'
asbag49
(g70
g51
NtRp1004
(dp1005
g54
(dp1006
sg63
g991
sg56
(lp1007
g49
(g50
g51
NtRp1008
(dp1009
g54
(dp1010
g62
I4
ssg63
g1004
sg56
(lp1011
S'pt-BR,pt;q=0.8,en-US;q=0.6,en;q=0.4'
p1012
asbasbasbag49
(g65
g51
NtRp1013
(dp1014
g54
(dp1015
sg63
g765
sg56
(lp1016
g49
(g70
g51
NtRp1017
(dp1018
g54
(dp1019
g74
g75
ssg63
g1013
sg56
(lp1020
S'http_cache_control'
p1021
asbag49
(g70
g51
NtRp1022
(dp1023
g54
(dp1024
g81
g82
ssg63
g1013
sg56
(lp1025
S':'
asbag49
(g70
g51
NtRp1026
(dp1027
g54
(dp1028
sg63
g1013
sg56
(lp1029
g49
(g50
g51
NtRp1030
(dp1031
g54
(dp1032
g62
I4
ssg63
g1026
sg56
(lp1033
S'max-age=0'
p1034
asbasbasbag49
(g65
g51
NtRp1035
(dp1036
g54
(dp1037
sg63
g765
sg56
(lp1038
g49
(g70
g51
NtRp1039
(dp1040
g54
(dp1041
g74
g75
ssg63
g1035
sg56
(lp1042
S'http_connection'
p1043
asbag49
(g70
g51
NtRp1044
(dp1045
g54
(dp1046
g81
g82
ssg63
g1035
sg56
(lp1047
S':'
asbag49
(g70
g51
NtRp1048
(dp1049
g54
(dp1050
sg63
g1035
sg56
(lp1051
g49
(g50
g51
NtRp1052
(dp1053
g54
(dp1054
g62
I4
ssg63
g1048
sg56
(lp1055
S'keep-alive'
p1056
asbasbasbag49
(g65
g51
NtRp1057
(dp1058
g54
(dp1059
sg63
g765
sg56
(lp1060
g49
(g70
g51
NtRp1061
(dp1062
g54
(dp1063
g74
g75
ssg63
g1057
sg56
(lp1064
S'http_cookie'
p1065
asbag49
(g70
g51
NtRp1066
(dp1067
g54
(dp1068
g81
g82
ssg63
g1057
sg56
(lp1069
S':'
asbag49
(g70
g51
NtRp1070
(dp1071
g54
(dp1072
sg63
g1057
sg56
(lp1073
g49
(g50
g51
NtRp1074
(dp1075
g54
(dp1076
g62
I4
ssg63
g1070
sg56
(lp1077
S'session_id_welcome=127.0.0.1-428eee6e-d977-48aa-81f9-d00d95c3e4dd; session_id_unioeste_code=127.0.0.1-5989d03c-a209-4e60-9ca5-abb9a6550c68; session_id_admin=127.0.0.1-14baca84-d2d6-4b1f-bf0e-5dde54a5c6a0'
p1078
asbasbasbag49
(g65
g51
NtRp1079
(dp1080
g54
(dp1081
sg63
g765
sg56
(lp1082
g49
(g70
g51
NtRp1083
(dp1084
g54
(dp1085
g74
g75
ssg63
g1079
sg56
(lp1086
S'http_dnt'
p1087
asbag49
(g70
g51
NtRp1088
(dp1089
g54
(dp1090
g81
g82
ssg63
g1079
sg56
(lp1091
S':'
asbag49
(g70
g51
NtRp1092
(dp1093
g54
(dp1094
sg63
g1079
sg56
(lp1095
g49
(g50
g51
NtRp1096
(dp1097
g54
(dp1098
g62
I4
ssg63
g1092
sg56
(lp1099
S'1'
asbasbasbag49
(g65
g51
NtRp1100
(dp1101
g54
(dp1102
sg63
g765
sg56
(lp1103
g49
(g70
g51
NtRp1104
(dp1105
g54
(dp1106
g74
g75
ssg63
g1100
sg56
(lp1107
S'http_host'
p1108
asbag49
(g70
g51
NtRp1109
(dp1110
g54
(dp1111
g81
g82
ssg63
g1100
sg56
(lp1112
S':'
asbag49
(g70
g51
NtRp1113
(dp1114
g54
(dp1115
sg63
g1100
sg56
(lp1116
g49
(g50
g51
NtRp1117
(dp1118
g54
(dp1119
g62
I4
ssg63
g1113
sg56
(lp1120
S'127.0.0.1:8000'
p1121
asbasbasbag49
(g65
g51
NtRp1122
(dp1123
g54
(dp1124
sg63
g765
sg56
(lp1125
g49
(g70
g51
NtRp1126
(dp1127
g54
(dp1128
g74
g75
ssg63
g1122
sg56
(lp1129
S'http_user_agent'
p1130
asbag49
(g70
g51
NtRp1131
(dp1132
g54
(dp1133
g81
g82
ssg63
g1122
sg56
(lp1134
S':'
asbag49
(g70
g51
NtRp1135
(dp1136
g54
(dp1137
sg63
g1122
sg56
(lp1138
g49
(g50
g51
NtRp1139
(dp1140
g54
(dp1141
g62
I4
ssg63
g1135
sg56
(lp1142
S'Mozilla/5.0 (Windows NT 6.1; WOW64) AppleWebKit/536.11 (KHTML, like Gecko) Chrome/20.0.1132.57 Safari/536.11'
p1143
asbasbasbag49
(g65
g51
NtRp1144
(dp1145
g54
(dp1146
sg63
g765
sg56
(lp1147
g49
(g70
g51
NtRp1148
(dp1149
g54
(dp1150
g74
g75
ssg63
g1144
sg56
(lp1151
S'is_jython'
p1152
asbag49
(g70
g51
NtRp1153
(dp1154
g54
(dp1155
g81
g82
ssg63
g1144
sg56
(lp1156
S':'
asbag49
(g70
g51
NtRp1157
(dp1158
g54
(dp1159
sg63
g1144
sg56
(lp1160
g49
(g50
g51
NtRp1161
(dp1162
g54
(dp1163
g62
I4
ssg63
g1157
sg56
(lp1164
g92
asbasbasbag49
(g65
g51
NtRp1165
(dp1166
g54
(dp1167
sg63
g765
sg56
(lp1168
g49
(g70
g51
NtRp1169
(dp1170
g54
(dp1171
g74
g75
ssg63
g1165
sg56
(lp1172
S'is_pypy'
p1173
asbag49
(g70
g51
NtRp1174
(dp1175
g54
(dp1176
g81
g82
ssg63
g1165
sg56
(lp1177
S':'
asbag49
(g70
g51
NtRp1178
(dp1179
g54
(dp1180
sg63
g1165
sg56
(lp1181
g49
(g50
g51
NtRp1182
(dp1183
g54
(dp1184
g62
I4
ssg63
g1178
sg56
(lp1185
g92
asbasbasbag49
(g65
g51
NtRp1186
(dp1187
g54
(dp1188
sg63
g765
sg56
(lp1189
g49
(g70
g51
NtRp1190
(dp1191
g54
(dp1192
g74
g75
ssg63
g1186
sg56
(lp1193
S'path_info'
p1194
asbag49
(g70
g51
NtRp1195
(dp1196
g54
(dp1197
g81
g82
ssg63
g1186
sg56
(lp1198
S':'
asbag49
(g70
g51
NtRp1199
(dp1200
g54
(dp1201
sg63
g1186
sg56
(lp1202
g49
(g50
g51
NtRp1203
(dp1204
g54
(dp1205
g62
I4
ssg63
g1199
sg56
(lp1206
S'/unioeste_code/default/showProblem/1'
p1207
asbasbasbag49
(g65
g51
NtRp1208
(dp1209
g54
(dp1210
sg63
g765
sg56
(lp1211
g49
(g70
g51
NtRp1212
(dp1213
g54
(dp1214
g74
g75
ssg63
g1208
sg56
(lp1215
S'query_string'
p1216
asbag49
(g70
g51
NtRp1217
(dp1218
g54
(dp1219
g81
g82
ssg63
g1208
sg56
(lp1220
S':'
asbag49
(g70
g51
NtRp1221
(dp1222
g54
(dp1223
sg63
g1208
sg56
(lp1224
g49
(g50
g51
NtRp1225
(dp1226
g54
(dp1227
g62
I4
ssg63
g1221
sg56
(lp1228
S''
asbasbasbag49
(g65
g51
NtRp1229
(dp1230
g54
(dp1231
sg63
g765
sg56
(lp1232
g49
(g70
g51
NtRp1233
(dp1234
g54
(dp1235
g74
g75
ssg63
g1229
sg56
(lp1236
S'remote_addr'
p1237
asbag49
(g70
g51
NtRp1238
(dp1239
g54
(dp1240
g81
g82
ssg63
g1229
sg56
(lp1241
S':'
asbag49
(g70
g51
NtRp1242
(dp1243
g54
(dp1244
sg63
g1229
sg56
(lp1245
g49
(g50
g51
NtRp1246
(dp1247
g54
(dp1248
g62
I4
ssg63
g1242
sg56
(lp1249
g194
asbasbasbag49
(g65
g51
NtRp1250
(dp1251
g54
(dp1252
sg63
g765
sg56
(lp1253
g49
(g70
g51
NtRp1254
(dp1255
g54
(dp1256
g74
g75
ssg63
g1250
sg56
(lp1257
S'remote_port'
p1258
asbag49
(g70
g51
NtRp1259
(dp1260
g54
(dp1261
g81
g82
ssg63
g1250
sg56
(lp1262
S':'
asbag49
(g70
g51
NtRp1263
(dp1264
g54
(dp1265
sg63
g1250
sg56
(lp1266
g49
(g50
g51
NtRp1267
(dp1268
g54
(dp1269
g62
I4
ssg63
g1263
sg56
(lp1270
S'38976'
p1271
asbasbasbag49
(g65
g51
NtRp1272
(dp1273
g54
(dp1274
sg63
g765
sg56
(lp1275
g49
(g70
g51
NtRp1276
(dp1277
g54
(dp1278
g74
g75
ssg63
g1272
sg56
(lp1279
S'request_method'
p1280
asbag49
(g70
g51
NtRp1281
(dp1282
g54
(dp1283
g81
g82
ssg63
g1272
sg56
(lp1284
S':'
asbag49
(g70
g51
NtRp1285
(dp1286
g54
(dp1287
sg63
g1272
sg56
(lp1288
g49
(g50
g51
NtRp1289
(dp1290
g54
(dp1291
g62
I4
ssg63
g1285
sg56
(lp1292
S'GET'
p1293
asbasbasbag49
(g65
g51
NtRp1294
(dp1295
g54
(dp1296
sg63
g765
sg56
(lp1297
g49
(g70
g51
NtRp1298
(dp1299
g54
(dp1300
g74
g75
ssg63
g1294
sg56
(lp1301
S'script_name'
p1302
asbag49
(g70
g51
NtRp1303
(dp1304
g54
(dp1305
g81
g82
ssg63
g1294
sg56
(lp1306
S':'
asbag49
(g70
g51
NtRp1307
(dp1308
g54
(dp1309
sg63
g1294
sg56
(lp1310
g49
(g50
g51
NtRp1311
(dp1312
g54
(dp1313
g62
I4
ssg63
g1307
sg56
(lp1314
S''
asbasbasbag49
(g65
g51
NtRp1315
(dp1316
g54
(dp1317
sg63
g765
sg56
(lp1318
g49
(g70
g51
NtRp1319
(dp1320
g54
(dp1321
g74
g75
ssg63
g1315
sg56
(lp1322
S'server_name'
p1323
asbag49
(g70
g51
NtRp1324
(dp1325
g54
(dp1326
g81
g82
ssg63
g1315
sg56
(lp1327
S':'
asbag49
(g70
g51
NtRp1328
(dp1329
g54
(dp1330
sg63
g1315
sg56
(lp1331
g49
(g50
g51
NtRp1332
(dp1333
g54
(dp1334
g62
I4
ssg63
g1328
sg56
(lp1335
S'Pedro-PC'
p1336
asbasbasbag49
(g65
g51
NtRp1337
(dp1338
g54
(dp1339
sg63
g765
sg56
(lp1340
g49
(g70
g51
NtRp1341
(dp1342
g54
(dp1343
g74
g75
ssg63
g1337
sg56
(lp1344
S'server_port'
p1345
asbag49
(g70
g51
NtRp1346
(dp1347
g54
(dp1348
g81
g82
ssg63
g1337
sg56
(lp1349
S':'
asbag49
(g70
g51
NtRp1350
(dp1351
g54
(dp1352
sg63
g1337
sg56
(lp1353
g49
(g50
g51
NtRp1354
(dp1355
g54
(dp1356
g62
I4
ssg63
g1350
sg56
(lp1357
S'8000'
p1358
asbasbasbag49
(g65
g51
NtRp1359
(dp1360
g54
(dp1361
sg63
g765
sg56
(lp1362
g49
(g70
g51
NtRp1363
(dp1364
g54
(dp1365
g74
g75
ssg63
g1359
sg56
(lp1366
S'server_protocol'
p1367
asbag49
(g70
g51
NtRp1368
(dp1369
g54
(dp1370
g81
g82
ssg63
g1359
sg56
(lp1371
S':'
asbag49
(g70
g51
NtRp1372
(dp1373
g54
(dp1374
sg63
g1359
sg56
(lp1375
g49
(g50
g51
NtRp1376
(dp1377
g54
(dp1378
g62
I4
ssg63
g1372
sg56
(lp1379
S'HTTP/1.1'
p1380
asbasbasbag49
(g65
g51
NtRp1381
(dp1382
g54
(dp1383
sg63
g765
sg56
(lp1384
g49
(g70
g51
NtRp1385
(dp1386
g54
(dp1387
g74
g75
ssg63
g1381
sg56
(lp1388
S'server_software'
p1389
asbag49
(g70
g51
NtRp1390
(dp1391
g54
(dp1392
g81
g82
ssg63
g1381
sg56
(lp1393
S':'
asbag49
(g70
g51
NtRp1394
(dp1395
g54
(dp1396
sg63
g1381
sg56
(lp1397
g49
(g50
g51
NtRp1398
(dp1399
g54
(dp1400
g62
I4
ssg63
g1394
sg56
(lp1401
S'Rocket 1.2.4'
p1402
asbasbasbag49
(g65
g51
NtRp1403
(dp1404
g54
(dp1405
sg63
g765
sg56
(lp1406
g49
(g70
g51
NtRp1407
(dp1408
g54
(dp1409
g74
g75
ssg63
g1403
sg56
(lp1410
S'web2py_crontype'
p1411
asbag49
(g70
g51
NtRp1412
(dp1413
g54
(dp1414
g81
g82
ssg63
g1403
sg56
(lp1415
S':'
asbag49
(g70
g51
NtRp1416
(dp1417
g54
(dp1418
sg63
g1403
sg56
(lp1419
g49
(g50
g51
NtRp1420
(dp1421
g54
(dp1422
g62
I4
ssg63
g1416
sg56
(lp1423
S'hard'
p1424
asbasbasbag49
(g65
g51
NtRp1425
(dp1426
g54
(dp1427
sg63
g765
sg56
(lp1428
g49
(g70
g51
NtRp1429
(dp1430
g54
(dp1431
g74
g75
ssg63
g1425
sg56
(lp1432
S'web2py_path'
p1433
asbag49
(g70
g51
NtRp1434
(dp1435
g54
(dp1436
g81
g82
ssg63
g1425
sg56
(lp1437
S':'
asbag49
(g70
g51
NtRp1438
(dp1439
g54
(dp1440
sg63
g1425
sg56
(lp1441
g49
(g50
g51
NtRp1442
(dp1443
g54
(dp1444
g62
I4
ssg63
g1438
sg56
(lp1445
g812
asbasbasbag49
(g65
g51
NtRp1446
(dp1447
g54
(dp1448
sg63
g765
sg56
(lp1449
g49
(g70
g51
NtRp1450
(dp1451
g54
(dp1452
g74
g75
ssg63
g1446
sg56
(lp1453
S'web2py_version'
p1454
asbag49
(g70
g51
NtRp1455
(dp1456
g54
(dp1457
g81
g82
ssg63
g1446
sg56
(lp1458
S':'
asbag49
(g70
g51
NtRp1459
(dp1460
g54
(dp1461
sg63
g1446
sg56
(lp1462
g49
(g50
g51
NtRp1463
(dp1464
g54
(dp1465
g62
I4
ssg63
g1459
sg56
(lp1466
g49
(g58
g51
NtRp1467
(dp1468
g54
(dp1469
g62
I3
ssg63
Nsg56
(lp1470
g49
(g65
g51
NtRp1471
(dp1472
g54
(dp1473
sg63
g1467
sg56
(lp1474
g49
(g70
g51
NtRp1475
(dp1476
g54
(dp1477
sg63
g1471
sg56
(lp1478
g49
(g50
g51
NtRp1479
(dp1480
g54
(dp1481
g62
I3
ssg63
g1475
sg56
(lp1482
S'1'
asbasbasbag49
(g65
g51
NtRp1483
(dp1484
g54
(dp1485
sg63
g1467
sg56
(lp1486
g49
(g70
g51
NtRp1487
(dp1488
g54
(dp1489
sg63
g1483
sg56
(lp1490
g49
(g50
g51
NtRp1491
(dp1492
g54
(dp1493
g62
I3
ssg63
g1487
sg56
(lp1494
S'99'
p1495
asbasbasbag49
(g65
g51
NtRp1496
(dp1497
g54
(dp1498
sg63
g1467
sg56
(lp1499
g49
(g70
g51
NtRp1500
(dp1501
g54
(dp1502
sg63
g1496
sg56
(lp1503
g49
(g50
g51
NtRp1504
(dp1505
g54
(dp1506
g62
I3
ssg63
g1500
sg56
(lp1507
S'7'
asbasbasbag49
(g65
g51
NtRp1508
(dp1509
g54
(dp1510
sg63
g1467
sg56
(lp1511
g49
(g70
g51
NtRp1512
(dp1513
g54
(dp1514
sg63
g1508
sg56
(lp1515
g49
(g50
g51
NtRp1516
(dp1517
g54
(dp1518
g62
I3
ssg63
g1512
sg56
(lp1519
S'datetime.datetime(2012, 3, 4, 22, 12, 8)'
p1520
asbasbasbag49
(g65
g51
NtRp1521
(dp1522
g54
(dp1523
sg63
g1467
sg56
(lp1524
g49
(g70
g51
NtRp1525
(dp1526
g54
(dp1527
sg63
g1521
sg56
(lp1528
g49
(g50
g51
NtRp1529
(dp1530
g54
(dp1531
g62
I3
ssg63
g1525
sg56
(lp1532
S'stable'
p1533
asbasbasbasbasbasbasbag49
(g65
g51
NtRp1534
(dp1535
g54
(dp1536
sg63
g765
sg56
(lp1537
g49
(g70
g51
NtRp1538
(dp1539
g54
(dp1540
g74
g75
ssg63
g1534
sg56
(lp1541
S'wsgi_errors'
p1542
asbag49
(g70
g51
NtRp1543
(dp1544
g54
(dp1545
g81
g82
ssg63
g1534
sg56
(lp1546
S':'
asbag49
(g70
g51
NtRp1547
(dp1548
g54
(dp1549
sg63
g1534
sg56
(lp1550
g49
(g50
g51
NtRp1551
(dp1552
g54
(dp1553
g62
I4
ssg63
g1547
sg56
(lp1554
S'<__main__.Stderr object at 0x00486670>'
p1555
asbasbasbag49
(g65
g51
NtRp1556
(dp1557
g54
(dp1558
sg63
g765
sg56
(lp1559
g49
(g70
g51
NtRp1560
(dp1561
g54
(dp1562
g74
g75
ssg63
g1556
sg56
(lp1563
S'wsgi_file_wrapper'
p1564
asbag49
(g70
g51
NtRp1565
(dp1566
g54
(dp1567
g81
g82
ssg63
g1556
sg56
(lp1568
S':'
asbag49
(g70
g51
NtRp1569
(dp1570
g54
(dp1571
sg63
g1556
sg56
(lp1572
g49
(g50
g51
NtRp1573
(dp1574
g54
(dp1575
g62
I4
ssg63
g1569
sg56
(lp1576
S'<class wsgiref.util.FileWrapper at 0x02E8DE10>'
p1577
asbasbasbag49
(g65
g51
NtRp1578
(dp1579
g54
(dp1580
sg63
g765
sg56
(lp1581
g49
(g70
g51
NtRp1582
(dp1583
g54
(dp1584
g74
g75
ssg63
g1578
sg56
(lp1585
S'wsgi_input'
p1586
asbag49
(g70
g51
NtRp1587
(dp1588
g54
(dp1589
g81
g82
ssg63
g1578
sg56
(lp1590
S':'
asbag49
(g70
g51
NtRp1591
(dp1592
g54
(dp1593
sg63
g1578
sg56
(lp1594
g49
(g50
g51
NtRp1595
(dp1596
g54
(dp1597
g62
I4
ssg63
g1591
sg56
(lp1598
S'<socket._fileobject object at 0x06928DF0>'
p1599
asbasbasbag49
(g65
g51
NtRp1600
(dp1601
g54
(dp1602
sg63
g765
sg56
(lp1603
g49
(g70
g51
NtRp1604
(dp1605
g54
(dp1606
g74
g75
ssg63
g1600
sg56
(lp1607
S'wsgi_multiprocess'
p1608
asbag49
(g70
g51
NtRp1609
(dp1610
g54
(dp1611
g81
g82
ssg63
g1600
sg56
(lp1612
S':'
asbag49
(g70
g51
NtRp1613
(dp1614
g54
(dp1615
sg63
g1600
sg56
(lp1616
g49
(g50
g51
NtRp1617
(dp1618
g54
(dp1619
g62
I4
ssg63
g1613
sg56
(lp1620
g92
asbasbasbag49
(g65
g51
NtRp1621
(dp1622
g54
(dp1623
sg63
g765
sg56
(lp1624
g49
(g70
g51
NtRp1625
(dp1626
g54
(dp1627
g74
g75
ssg63
g1621
sg56
(lp1628
S'wsgi_multithread'
p1629
asbag49
(g70
g51
NtRp1630
(dp1631
g54
(dp1632
g81
g82
ssg63
g1621
sg56
(lp1633
S':'
asbag49
(g70
g51
NtRp1634
(dp1635
g54
(dp1636
sg63
g1621
sg56
(lp1637
g49
(g50
g51
NtRp1638
(dp1639
g54
(dp1640
g62
I4
ssg63
g1634
sg56
(lp1641
S'True'
p1642
asbasbasbag49
(g65
g51
NtRp1643
(dp1644
g54
(dp1645
sg63
g765
sg56
(lp1646
g49
(g70
g51
NtRp1647
(dp1648
g54
(dp1649
g74
g75
ssg63
g1643
sg56
(lp1650
S'wsgi_run_once'
p1651
asbag49
(g70
g51
NtRp1652
(dp1653
g54
(dp1654
g81
g82
ssg63
g1643
sg56
(lp1655
S':'
asbag49
(g70
g51
NtRp1656
(dp1657
g54
(dp1658
sg63
g1643
sg56
(lp1659
g49
(g50
g51
NtRp1660
(dp1661
g54
(dp1662
g62
I4
ssg63
g1656
sg56
(lp1663
g92
asbasbasbag49
(g65
g51
NtRp1664
(dp1665
g54
(dp1666
sg63
g765
sg56
(lp1667
g49
(g70
g51
NtRp1668
(dp1669
g54
(dp1670
g74
g75
ssg63
g1664
sg56
(lp1671
S'wsgi_url_scheme'
p1672
asbag49
(g70
g51
NtRp1673
(dp1674
g54
(dp1675
g81
g82
ssg63
g1664
sg56
(lp1676
S':'
asbag49
(g70
g51
NtRp1677
(dp1678
g54
(dp1679
sg63
g1664
sg56
(lp1680
g49
(g50
g51
NtRp1681
(dp1682
g54
(dp1683
g62
I4
ssg63
g1677
sg56
(lp1684
S'http'
p1685
asbasbasbag49
(g65
g51
NtRp1686
(dp1687
g54
(dp1688
sg63
g765
sg56
(lp1689
g49
(g70
g51
NtRp1690
(dp1691
g54
(dp1692
g74
g75
ssg63
g1686
sg56
(lp1693
S'wsgi_version'
p1694
asbag49
(g70
g51
NtRp1695
(dp1696
g54
(dp1697
g81
g82
ssg63
g1686
sg56
(lp1698
S':'
asbag49
(g70
g51
NtRp1699
(dp1700
g54
(dp1701
sg63
g1686
sg56
(lp1702
g49
(g50
g51
NtRp1703
(dp1704
g54
(dp1705
g62
I4
ssg63
g1699
sg56
(lp1706
g49
(g58
g51
NtRp1707
(dp1708
g54
(dp1709
g62
I3
ssg63
Nsg56
(lp1710
g49
(g65
g51
NtRp1711
(dp1712
g54
(dp1713
sg63
g1707
sg56
(lp1714
g49
(g70
g51
NtRp1715
(dp1716
g54
(dp1717
sg63
g1711
sg56
(lp1718
g49
(g50
g51
NtRp1719
(dp1720
g54
(dp1721
g62
I3
ssg63
g1715
sg56
(lp1722
S'1'
asbasbasbag49
(g65
g51
NtRp1723
(dp1724
g54
(dp1725
sg63
g1707
sg56
(lp1726
g49
(g70
g51
NtRp1727
(dp1728
g54
(dp1729
sg63
g1723
sg56
(lp1730
g49
(g50
g51
NtRp1731
(dp1732
g54
(dp1733
g62
I3
ssg63
g1727
sg56
(lp1734
S'0'
asbasbasbasbasbasbasbasbasbasbasbag49
(g65
g51
NtRp1735
(dp1736
g54
(dp1737
sg63
g59
sg56
(lp1738
g49
(g70
g51
NtRp1739
(dp1740
g54
(dp1741
g74
g75
ssg63
g1735
sg56
(lp1742
S'extension'
p1743
asbag49
(g70
g51
NtRp1744
(dp1745
g54
(dp1746
g81
g82
ssg63
g1735
sg56
(lp1747
S':'
asbag49
(g70
g51
NtRp1748
(dp1749
g54
(dp1750
sg63
g1735
sg56
(lp1751
g49
(g50
g51
NtRp1752
(dp1753
g54
(dp1754
g62
I5
ssg63
g1748
sg56
(lp1755
S'html'
p1756
asbasbasbag49
(g65
g51
NtRp1757
(dp1758
g54
(dp1759
sg63
g59
sg56
(lp1760
g49
(g70
g51
NtRp1761
(dp1762
g54
(dp1763
g74
g75
ssg63
g1757
sg56
(lp1764
S'folder'
p1765
asbag49
(g70
g51
NtRp1766
(dp1767
g54
(dp1768
g81
g82
ssg63
g1757
sg56
(lp1769
S':'
asbag49
(g70
g51
NtRp1770
(dp1771
g54
(dp1772
sg63
g1757
sg56
(lp1773
g49
(g50
g51
NtRp1774
(dp1775
g54
(dp1776
g62
I5
ssg63
g1770
sg56
(lp1777
S'C:\\web2py\\applications\\unioeste_code\\'
p1778
asbasbasbag49
(g65
g51
NtRp1779
(dp1780
g54
(dp1781
sg63
g59
sg56
(lp1782
g49
(g70
g51
NtRp1783
(dp1784
g54
(dp1785
g74
g75
ssg63
g1779
sg56
(lp1786
S'function'
p1787
asbag49
(g70
g51
NtRp1788
(dp1789
g54
(dp1790
g81
g82
ssg63
g1779
sg56
(lp1791
S':'
asbag49
(g70
g51
NtRp1792
(dp1793
g54
(dp1794
sg63
g1779
sg56
(lp1795
g49
(g50
g51
NtRp1796
(dp1797
g54
(dp1798
g62
I5
ssg63
g1792
sg56
(lp1799
S'showProblem'
p1800
asbasbasbag49
(g65
g51
NtRp1801
(dp1802
g54
(dp1803
sg63
g59
sg56
(lp1804
g49
(g70
g51
NtRp1805
(dp1806
g54
(dp1807
g74
g75
ssg63
g1801
sg56
(lp1808
S'get_vars'
p1809
asbag49
(g70
g51
NtRp1810
(dp1811
g54
(dp1812
g81
g82
ssg63
g1801
sg56
(lp1813
S':'
asbag49
(g70
g51
NtRp1814
(dp1815
g54
(dp1816
sg63
g1801
sg56
(lp1817
g49
(g50
g51
NtRp1818
(dp1819
g54
(dp1820
g62
I5
ssg63
g1814
sg56
(lp1821
g49
(g58
g51
NtRp1822
(dp1823
g54
(dp1824
g62
I4
ssg63
Nsg56
(lp1825
sbasbasbasbag49
(g65
g51
NtRp1826
(dp1827
g54
(dp1828
sg63
g59
sg56
(lp1829
g49
(g70
g51
NtRp1830
(dp1831
g54
(dp1832
g74
g75
ssg63
g1826
sg56
(lp1833
S'global_settings'
p1834
asbag49
(g70
g51
NtRp1835
(dp1836
g54
(dp1837
g81
g82
ssg63
g1826
sg56
(lp1838
S':'
asbag49
(g70
g51
NtRp1839
(dp1840
g54
(dp1841
sg63
g1826
sg56
(lp1842
g49
(g50
g51
NtRp1843
(dp1844
g54
(dp1845
g62
I5
ssg63
g1839
sg56
(lp1846
g49
(g58
g51
NtRp1847
(dp1848
g54
(dp1849
g62
I4
ssg63
Nsg56
(lp1850
g49
(g65
g51
NtRp1851
(dp1852
g54
(dp1853
sg63
g1847
sg56
(lp1854
g49
(g70
g51
NtRp1855
(dp1856
g54
(dp1857
g74
g75
ssg63
g1851
sg56
(lp1858
g777
asbag49
(g70
g51
NtRp1859
(dp1860
g54
(dp1861
g81
g82
ssg63
g1851
sg56
(lp1862
S':'
asbag49
(g70
g51
NtRp1863
(dp1864
g54
(dp1865
sg63
g1851
sg56
(lp1866
g49
(g50
g51
NtRp1867
(dp1868
g54
(dp1869
g62
I4
ssg63
g1863
sg56
(lp1870
S"set(['C:\\\\web2py\\\\applications\\\\admin\\\\', 'C:\\\\web2py\\\\applications\\\\welcome\\\\', 'C:\\\\web2py\\\\applications\\\\unioeste_code\\\\'])"
p1871
asbasbasbag49
(g65
g51
NtRp1872
(dp1873
g54
(dp1874
sg63
g1847
sg56
(lp1875
g49
(g70
g51
NtRp1876
(dp1877
g54
(dp1878
g74
g75
ssg63
g1872
sg56
(lp1879
g799
asbag49
(g70
g51
NtRp1880
(dp1881
g54
(dp1882
g81
g82
ssg63
g1872
sg56
(lp1883
S':'
asbag49
(g70
g51
NtRp1884
(dp1885
g54
(dp1886
sg63
g1872
sg56
(lp1887
g49
(g50
g51
NtRp1888
(dp1889
g54
(dp1890
g62
I4
ssg63
g1884
sg56
(lp1891
g812
asbasbasbag49
(g65
g51
NtRp1892
(dp1893
g54
(dp1894
sg63
g1847
sg56
(lp1895
g49
(g70
g51
NtRp1896
(dp1897
g54
(dp1898
g74
g75
ssg63
g1892
sg56
(lp1899
g821
asbag49
(g70
g51
NtRp1900
(dp1901
g54
(dp1902
g81
g82
ssg63
g1892
sg56
(lp1903
S':'
asbag49
(g70
g51
NtRp1904
(dp1905
g54
(dp1906
sg63
g1892
sg56
(lp1907
g49
(g50
g51
NtRp1908
(dp1909
g54
(dp1910
g62
I4
ssg63
g1904
sg56
(lp1911
g49
(g58
g51
NtRp1912
(dp1913
g54
(dp1914
g62
I3
ssg63
Nsg56
(lp1915
sbasbasbasbag49
(g65
g51
NtRp1916
(dp1917
g54
(dp1918
sg63
g1847
sg56
(lp1919
g49
(g70
g51
NtRp1920
(dp1921
g54
(dp1922
g74
g75
ssg63
g1916
sg56
(lp1923
g846
asbag49
(g70
g51
NtRp1924
(dp1925
g54
(dp1926
g81
g82
ssg63
g1916
sg56
(lp1927
S':'
asbag49
(g70
g51
NtRp1928
(dp1929
g54
(dp1930
sg63
g1916
sg56
(lp1931
g49
(g50
g51
NtRp1932
(dp1933
g54
(dp1934
g62
I4
ssg63
g1928
sg56
(lp1935
S"<Values at 0x309c300: {'verbose': False, 'ip': '127.0.0.1', 'shutdown_timeout': 5, 'taskbar': False, 'nocron': False, 'pid_filename': 'httpserver.pid', 'maxthreads': None, 'softcron': False, 'server_name': 'Pedro-PC', 'bpython': False, 'nogui': False, 'port': 8000, 'extcron': False, 'debuglevel': 30, 'test': None, 'folder': 'C:\\\\web2py', 'config': '', 'import_models': False, 'winservice': '', 'shell': None, 'run': '', 'log_filename': 'httpserver.log', 'args': [''], 'socket_timeout': 5, 'ssl_ca_certificate': None, 'scheduler': None, 'profiler_filename': None, 'ssl_private_key': '', 'password': '<ask>', 'request_queue_size': 5, 'ssl_certificate': '', 'cronjob': False, 'numthreads': None, 'quiet': False, 'interfaces': None, 'minthreads': None, 'timeout': 10, 'plain': False, 'nobanner': False}>"
p1936
asbasbasbag49
(g65
g51
NtRp1937
(dp1938
g54
(dp1939
sg63
g1847
sg56
(lp1940
g49
(g70
g51
NtRp1941
(dp1942
g54
(dp1943
g74
g75
ssg63
g1937
sg56
(lp1944
g868
asbag49
(g70
g51
NtRp1945
(dp1946
g54
(dp1947
g81
g82
ssg63
g1937
sg56
(lp1948
S':'
asbag49
(g70
g51
NtRp1949
(dp1950
g54
(dp1951
sg63
g1937
sg56
(lp1952
g49
(g50
g51
NtRp1953
(dp1954
g54
(dp1955
g62
I4
ssg63
g1949
sg56
(lp1956
S'set([])'
p1957
asbasbasbag49
(g65
g51
NtRp1958
(dp1959
g54
(dp1960
sg63
g1847
sg56
(lp1961
g49
(g70
g51
NtRp1962
(dp1963
g54
(dp1964
g74
g75
ssg63
g1958
sg56
(lp1965
g890
asbag49
(g70
g51
NtRp1966
(dp1967
g54
(dp1968
g81
g82
ssg63
g1958
sg56
(lp1969
S':'
asbag49
(g70
g51
NtRp1970
(dp1971
g54
(dp1972
sg63
g1958
sg56
(lp1973
g49
(g50
g51
NtRp1974
(dp1975
g54
(dp1976
g62
I4
ssg63
g1970
sg56
(lp1977
g92
asbasbasbag49
(g65
g51
NtRp1978
(dp1979
g54
(dp1980
sg63
g1847
sg56
(lp1981
g49
(g70
g51
NtRp1982
(dp1983
g54
(dp1984
g74
g75
ssg63
g1978
sg56
(lp1985
g911
asbag49
(g70
g51
NtRp1986
(dp1987
g54
(dp1988
g81
g82
ssg63
g1978
sg56
(lp1989
S':'
asbag49
(g70
g51
NtRp1990
(dp1991
g54
(dp1992
sg63
g1978
sg56
(lp1993
g49
(g50
g51
NtRp1994
(dp1995
g54
(dp1996
g62
I4
ssg63
g1990
sg56
(lp1997
g924
asbasbasbag49
(g65
g51
NtRp1998
(dp1999
g54
(dp2000
sg63
g1847
sg56
(lp2001
g49
(g70
g51
NtRp2002
(dp2003
g54
(dp2004
g74
g75
ssg63
g1998
sg56
(lp2005
g1152
asbag49
(g70
g51
NtRp2006
(dp2007
g54
(dp2008
g81
g82
ssg63
g1998
sg56
(lp2009
S':'
asbag49
(g70
g51
NtRp2010
(dp2011
g54
(dp2012
sg63
g1998
sg56
(lp2013
g49
(g50
g51
NtRp2014
(dp2015
g54
(dp2016
g62
I4
ssg63
g2010
sg56
(lp2017
g92
asbasbasbag49
(g65
g51
NtRp2018
(dp2019
g54
(dp2020
sg63
g1847
sg56
(lp2021
g49
(g70
g51
NtRp2022
(dp2023
g54
(dp2024
g74
g75
ssg63
g2018
sg56
(lp2025
g1173
asbag49
(g70
g51
NtRp2026
(dp2027
g54
(dp2028
g81
g82
ssg63
g2018
sg56
(lp2029
S':'
asbag49
(g70
g51
NtRp2030
(dp2031
g54
(dp2032
sg63
g2018
sg56
(lp2033
g49
(g50
g51
NtRp2034
(dp2035
g54
(dp2036
g62
I4
ssg63
g2030
sg56
(lp2037
g92
asbasbasbag49
(g65
g51
NtRp2038
(dp2039
g54
(dp2040
sg63
g1847
sg56
(lp2041
g49
(g70
g51
NtRp2042
(dp2043
g54
(dp2044
g74
g75
ssg63
g2038
sg56
(lp2045
g1411
asbag49
(g70
g51
NtRp2046
(dp2047
g54
(dp2048
g81
g82
ssg63
g2038
sg56
(lp2049
S':'
asbag49
(g70
g51
NtRp2050
(dp2051
g54
(dp2052
sg63
g2038
sg56
(lp2053
g49
(g50
g51
NtRp2054
(dp2055
g54
(dp2056
g62
I4
ssg63
g2050
sg56
(lp2057
g1424
asbasbasbag49
(g65
g51
NtRp2058
(dp2059
g54
(dp2060
sg63
g1847
sg56
(lp2061
g49
(g70
g51
NtRp2062
(dp2063
g54
(dp2064
g74
g75
ssg63
g2058
sg56
(lp2065
g1454
asbag49
(g70
g51
NtRp2066
(dp2067
g54
(dp2068
g81
g82
ssg63
g2058
sg56
(lp2069
S':'
asbag49
(g70
g51
NtRp2070
(dp2071
g54
(dp2072
sg63
g2058
sg56
(lp2073
g49
(g50
g51
NtRp2074
(dp2075
g54
(dp2076
g62
I4
ssg63
g2070
sg56
(lp2077
g49
(g58
g51
NtRp2078
(dp2079
g54
(dp2080
g62
I3
ssg63
Nsg56
(lp2081
g49
(g65
g51
NtRp2082
(dp2083
g54
(dp2084
sg63
g2078
sg56
(lp2085
g49
(g70
g51
NtRp2086
(dp2087
g54
(dp2088
sg63
g2082
sg56
(lp2089
g49
(g50
g51
NtRp2090
(dp2091
g54
(dp2092
g62
I3
ssg63
g2086
sg56
(lp2093
S'1'
asbasbasbag49
(g65
g51
NtRp2094
(dp2095
g54
(dp2096
sg63
g2078
sg56
(lp2097
g49
(g70
g51
NtRp2098
(dp2099
g54
(dp2100
sg63
g2094
sg56
(lp2101
g49
(g50
g51
NtRp2102
(dp2103
g54
(dp2104
g62
I3
ssg63
g2098
sg56
(lp2105
S'99'
p2106
asbasbasbag49
(g65
g51
NtRp2107
(dp2108
g54
(dp2109
sg63
g2078
sg56
(lp2110
g49
(g70
g51
NtRp2111
(dp2112
g54
(dp2113
sg63
g2107
sg56
(lp2114
g49
(g50
g51
NtRp2115
(dp2116
g54
(dp2117
g62
I3
ssg63
g2111
sg56
(lp2118
S'7'
asbasbasbag49
(g65
g51
NtRp2119
(dp2120
g54
(dp2121
sg63
g2078
sg56
(lp2122
g49
(g70
g51
NtRp2123
(dp2124
g54
(dp2125
sg63
g2119
sg56
(lp2126
g49
(g50
g51
NtRp2127
(dp2128
g54
(dp2129
g62
I3
ssg63
g2123
sg56
(lp2130
S'datetime.datetime(2012, 3, 4, 22, 12, 8)'
p2131
asbasbasbag49
(g65
g51
NtRp2132
(dp2133
g54
(dp2134
sg63
g2078
sg56
(lp2135
g49
(g70
g51
NtRp2136
(dp2137
g54
(dp2138
sg63
g2132
sg56
(lp2139
g49
(g50
g51
NtRp2140
(dp2141
g54
(dp2142
g62
I3
ssg63
g2136
sg56
(lp2143
g1533
asbasbasbasbasbasbasbasbasbasbasbag49
(g65
g51
NtRp2144
(dp2145
g54
(dp2146
sg63
g59
sg56
(lp2147
g49
(g70
g51
NtRp2148
(dp2149
g54
(dp2150
g74
g75
ssg63
g2144
sg56
(lp2151
S'is_https'
p2152
asbag49
(g70
g51
NtRp2153
(dp2154
g54
(dp2155
g81
g82
ssg63
g2144
sg56
(lp2156
S':'
asbag49
(g70
g51
NtRp2157
(dp2158
g54
(dp2159
sg63
g2144
sg56
(lp2160
g49
(g50
g51
NtRp2161
(dp2162
g54
(dp2163
g62
I5
ssg63
g2157
sg56
(lp2164
g92
asbasbasbag49
(g65
g51
NtRp2165
(dp2166
g54
(dp2167
sg63
g59
sg56
(lp2168
g49
(g70
g51
NtRp2169
(dp2170
g54
(dp2171
g74
g75
ssg63
g2165
sg56
(lp2172
S'is_local'
p2173
asbag49
(g70
g51
NtRp2174
(dp2175
g54
(dp2176
g81
g82
ssg63
g2165
sg56
(lp2177
S':'
asbag49
(g70
g51
NtRp2178
(dp2179
g54
(dp2180
sg63
g2165
sg56
(lp2181
g49
(g50
g51
NtRp2182
(dp2183
g54
(dp2184
g62
I5
ssg63
g2178
sg56
(lp2185
g1642
asbasbasbag49
(g65
g51
NtRp2186
(dp2187
g54
(dp2188
sg63
g59
sg56
(lp2189
g49
(g70
g51
NtRp2190
(dp2191
g54
(dp2192
g74
g75
ssg63
g2186
sg56
(lp2193
S'is_restful'
p2194
asbag49
(g70
g51
NtRp2195
(dp2196
g54
(dp2197
g81
g82
ssg63
g2186
sg56
(lp2198
S':'
asbag49
(g70
g51
NtRp2199
(dp2200
g54
(dp2201
sg63
g2186
sg56
(lp2202
g49
(g50
g51
NtRp2203
(dp2204
g54
(dp2205
g62
I5
ssg63
g2199
sg56
(lp2206
g92
asbasbasbag49
(g65
g51
NtRp2207
(dp2208
g54
(dp2209
sg63
g59
sg56
(lp2210
g49
(g70
g51
NtRp2211
(dp2212
g54
(dp2213
g74
g75
ssg63
g2207
sg56
(lp2214
S'now'
p2215
asbag49
(g70
g51
NtRp2216
(dp2217
g54
(dp2218
g81
g82
ssg63
g2207
sg56
(lp2219
S':'
asbag49
(g70
g51
NtRp2220
(dp2221
g54
(dp2222
sg63
g2207
sg56
(lp2223
g49
(g50
g51
NtRp2224
(dp2225
g54
(dp2226
g62
I5
ssg63
g2220
sg56
(lp2227
S'datetime.datetime(2012, 7, 29, 23, 52, 28, 342000)'
p2228
asbasbasbag49
(g65
g51
NtRp2229
(dp2230
g54
(dp2231
sg63
g59
sg56
(lp2232
g49
(g70
g51
NtRp2233
(dp2234
g54
(dp2235
g74
g75
ssg63
g2229
sg56
(lp2236
S'post_vars'
p2237
asbag49
(g70
g51
NtRp2238
(dp2239
g54
(dp2240
g81
g82
ssg63
g2229
sg56
(lp2241
S':'
asbag49
(g70
g51
NtRp2242
(dp2243
g54
(dp2244
sg63
g2229
sg56
(lp2245
g49
(g50
g51
NtRp2246
(dp2247
g54
(dp2248
g62
I5
ssg63
g2242
sg56
(lp2249
g49
(g58
g51
NtRp2250
(dp2251
g54
(dp2252
g62
I4
ssg63
Nsg56
(lp2253
sbasbasbasbag49
(g65
g51
NtRp2254
(dp2255
g54
(dp2256
sg63
g59
sg56
(lp2257
g49
(g70
g51
NtRp2258
(dp2259
g54
(dp2260
g74
g75
ssg63
g2254
sg56
(lp2261
S'raw_args'
p2262
asbag49
(g70
g51
NtRp2263
(dp2264
g54
(dp2265
g81
g82
ssg63
g2254
sg56
(lp2266
S':'
asbag49
(g70
g51
NtRp2267
(dp2268
g54
(dp2269
sg63
g2254
sg56
(lp2270
g49
(g50
g51
NtRp2271
(dp2272
g54
(dp2273
g62
I5
ssg63
g2267
sg56
(lp2274
S'1'
asbasbasbag49
(g65
g51
NtRp2275
(dp2276
g54
(dp2277
sg63
g59
sg56
(lp2278
g49
(g70
g51
NtRp2279
(dp2280
g54
(dp2281
g74
g75
ssg63
g2275
sg56
(lp2282
S'url'
p2283
asbag49
(g70
g51
NtRp2284
(dp2285
g54
(dp2286
g81
g82
ssg63
g2275
sg56
(lp2287
S':'
asbag49
(g70
g51
NtRp2288
(dp2289
g54
(dp2290
sg63
g2275
sg56
(lp2291
g49
(g50
g51
NtRp2292
(dp2293
g54
(dp2294
g62
I5
ssg63
g2288
sg56
(lp2295
S'/unioeste_code/default/showProblem/1'
p2296
asbasbasbag49
(g65
g51
NtRp2297
(dp2298
g54
(dp2299
sg63
g59
sg56
(lp2300
g49
(g70
g51
NtRp2301
(dp2302
g54
(dp2303
g74
g75
ssg63
g2297
sg56
(lp2304
S'utcnow'
p2305
asbag49
(g70
g51
NtRp2306
(dp2307
g54
(dp2308
g81
g82
ssg63
g2297
sg56
(lp2309
S':'
asbag49
(g70
g51
NtRp2310
(dp2311
g54
(dp2312
sg63
g2297
sg56
(lp2313
g49
(g50
g51
NtRp2314
(dp2315
g54
(dp2316
g62
I5
ssg63
g2310
sg56
(lp2317
S'datetime.datetime(2012, 7, 30, 2, 52, 28, 342000)'
p2318
asbasbasbag49
(g65
g51
NtRp2319
(dp2320
g54
(dp2321
sg63
g59
sg56
(lp2322
g49
(g70
g51
NtRp2323
(dp2324
g54
(dp2325
g74
g75
ssg63
g2319
sg56
(lp2326
S'uuid'
p2327
asbag49
(g70
g51
NtRp2328
(dp2329
g54
(dp2330
g81
g82
ssg63
g2319
sg56
(lp2331
S':'
asbag49
(g70
g51
NtRp2332
(dp2333
g54
(dp2334
sg63
g2319
sg56
(lp2335
g49
(g50
g51
NtRp2336
(dp2337
g54
(dp2338
g62
I5
ssg63
g2332
sg56
(lp2339
S'unioeste_code/127.0.0.1.2012-07-29.23-52-28.55efbf87-8e58-48bb-bdcf-04c937f7ba5f'
p2340
asbasbasbag49
(g65
g51
NtRp2341
(dp2342
g54
(dp2343
sg63
g59
sg56
(lp2344
g49
(g70
g51
NtRp2345
(dp2346
g54
(dp2347
g74
g75
ssg63
g2341
sg56
(lp2348
S'vars'
p2349
asbag49
(g70
g51
NtRp2350
(dp2351
g54
(dp2352
g81
g82
ssg63
g2341
sg56
(lp2353
S':'
asbag49
(g70
g51
NtRp2354
(dp2355
g54
(dp2356
sg63
g2341
sg56
(lp2357
g49
(g50
g51
NtRp2358
(dp2359
g54
(dp2360
g62
I5
ssg63
g2354
sg56
(lp2361
g49
(g58
g51
NtRp2362
(dp2363
g54
(dp2364
g62
I4
ssg63
Nsg56
(lp2365
sbasbasbasbag49
(g65
g51
NtRp2366
(dp2367
g54
(dp2368
sg63
g59
sg56
(lp2369
g49
(g70
g51
NtRp2370
(dp2371
g54
(dp2372
g74
g75
ssg63
g2366
sg56
(lp2373
S'wsgi'
p2374
asbag49
(g70
g51
NtRp2375
(dp2376
g54
(dp2377
g81
g82
ssg63
g2366
sg56
(lp2378
S':'
asbag49
(g70
g51
NtRp2379
(dp2380
g54
(dp2381
sg63
g2366
sg56
(lp2382
g49
(g50
g51
NtRp2383
(dp2384
g54
(dp2385
g62
I5
ssg63
g2379
sg56
(lp2386
g49
(g58
g51
NtRp2387
(dp2388
g54
(dp2389
g62
I4
ssg63
Nsg56
(lp2390
g49
(g65
g51
NtRp2391
(dp2392
g54
(dp2393
sg63
g2387
sg56
(lp2394
g49
(g70
g51
NtRp2395
(dp2396
g54
(dp2397
g74
g75
ssg63
g2391
sg56
(lp2398
S'environ'
p2399
asbag49
(g70
g51
NtRp2400
(dp2401
g54
(dp2402
g81
g82
ssg63
g2391
sg56
(lp2403
S':'
asbag49
(g70
g51
NtRp2404
(dp2405
g54
(dp2406
sg63
g2391
sg56
(lp2407
g49
(g50
g51
NtRp2408
(dp2409
g54
(dp2410
g62
I4
ssg63
g2404
sg56
(lp2411
g49
(g58
g51
NtRp2412
(dp2413
g54
(dp2414
g62
I3
ssg63
Nsg56
(lp2415
g49
(g65
g51
NtRp2416
(dp2417
g54
(dp2418
sg63
g2412
sg56
(lp2419
g49
(g70
g51
NtRp2420
(dp2421
g54
(dp2422
g74
g75
ssg63
g2416
sg56
(lp2423
S'HTTP_ACCEPT'
p2424
asbag49
(g70
g51
NtRp2425
(dp2426
g54
(dp2427
g81
g82
ssg63
g2416
sg56
(lp2428
S':'
asbag49
(g70
g51
NtRp2429
(dp2430
g54
(dp2431
sg63
g2416
sg56
(lp2432
g49
(g50
g51
NtRp2433
(dp2434
g54
(dp2435
g62
I3
ssg63
g2429
sg56
(lp2436
g946
asbasbasbag49
(g65
g51
NtRp2437
(dp2438
g54
(dp2439
sg63
g2412
sg56
(lp2440
g49
(g70
g51
NtRp2441
(dp2442
g54
(dp2443
g74
g75
ssg63
g2437
sg56
(lp2444
S'HTTP_ACCEPT_CHARSET'
p2445
asbag49
(g70
g51
NtRp2446
(dp2447
g54
(dp2448
g81
g82
ssg63
g2437
sg56
(lp2449
S':'
asbag49
(g70
g51
NtRp2450
(dp2451
g54
(dp2452
sg63
g2437
sg56
(lp2453
g49
(g50
g51
NtRp2454
(dp2455
g54
(dp2456
g62
I3
ssg63
g2450
sg56
(lp2457
g968
asbasbasbag49
(g65
g51
NtRp2458
(dp2459
g54
(dp2460
sg63
g2412
sg56
(lp2461
g49
(g70
g51
NtRp2462
(dp2463
g54
(dp2464
g74
g75
ssg63
g2458
sg56
(lp2465
S'HTTP_ACCEPT_ENCODING'
p2466
asbag49
(g70
g51
NtRp2467
(dp2468
g54
(dp2469
g81
g82
ssg63
g2458
sg56
(lp2470
S':'
asbag49
(g70
g51
NtRp2471
(dp2472
g54
(dp2473
sg63
g2458
sg56
(lp2474
g49
(g50
g51
NtRp2475
(dp2476
g54
(dp2477
g62
I3
ssg63
g2471
sg56
(lp2478
g990
asbasbasbag49
(g65
g51
NtRp2479
(dp2480
g54
(dp2481
sg63
g2412
sg56
(lp2482
g49
(g70
g51
NtRp2483
(dp2484
g54
(dp2485
g74
g75
ssg63
g2479
sg56
(lp2486
S'HTTP_ACCEPT_LANGUAGE'
p2487
asbag49
(g70
g51
NtRp2488
(dp2489
g54
(dp2490
g81
g82
ssg63
g2479
sg56
(lp2491
S':'
asbag49
(g70
g51
NtRp2492
(dp2493
g54
(dp2494
sg63
g2479
sg56
(lp2495
g49
(g50
g51
NtRp2496
(dp2497
g54
(dp2498
g62
I3
ssg63
g2492
sg56
(lp2499
g1012
asbasbasbag49
(g65
g51
NtRp2500
(dp2501
g54
(dp2502
sg63
g2412
sg56
(lp2503
g49
(g70
g51
NtRp2504
(dp2505
g54
(dp2506
g74
g75
ssg63
g2500
sg56
(lp2507
S'HTTP_CACHE_CONTROL'
p2508
asbag49
(g70
g51
NtRp2509
(dp2510
g54
(dp2511
g81
g82
ssg63
g2500
sg56
(lp2512
S':'
asbag49
(g70
g51
NtRp2513
(dp2514
g54
(dp2515
sg63
g2500
sg56
(lp2516
g49
(g50
g51
NtRp2517
(dp2518
g54
(dp2519
g62
I3
ssg63
g2513
sg56
(lp2520
g1034
asbasbasbag49
(g65
g51
NtRp2521
(dp2522
g54
(dp2523
sg63
g2412
sg56
(lp2524
g49
(g70
g51
NtRp2525
(dp2526
g54
(dp2527
g74
g75
ssg63
g2521
sg56
(lp2528
S'HTTP_CONNECTION'
p2529
asbag49
(g70
g51
NtRp2530
(dp2531
g54
(dp2532
g81
g82
ssg63
g2521
sg56
(lp2533
S':'
asbag49
(g70
g51
NtRp2534
(dp2535
g54
(dp2536
sg63
g2521
sg56
(lp2537
g49
(g50
g51
NtRp2538
(dp2539
g54
(dp2540
g62
I3
ssg63
g2534
sg56
(lp2541
g1056
asbasbasbag49
(g65
g51
NtRp2542
(dp2543
g54
(dp2544
sg63
g2412
sg56
(lp2545
g49
(g70
g51
NtRp2546
(dp2547
g54
(dp2548
g74
g75
ssg63
g2542
sg56
(lp2549
S'HTTP_COOKIE'
p2550
asbag49
(g70
g51
NtRp2551
(dp2552
g54
(dp2553
g81
g82
ssg63
g2542
sg56
(lp2554
S':'
asbag49
(g70
g51
NtRp2555
(dp2556
g54
(dp2557
sg63
g2542
sg56
(lp2558
g49
(g50
g51
NtRp2559
(dp2560
g54
(dp2561
g62
I3
ssg63
g2555
sg56
(lp2562
g1078
asbasbasbag49
(g65
g51
NtRp2563
(dp2564
g54
(dp2565
sg63
g2412
sg56
(lp2566
g49
(g70
g51
NtRp2567
(dp2568
g54
(dp2569
g74
g75
ssg63
g2563
sg56
(lp2570
S'HTTP_DNT'
p2571
asbag49
(g70
g51
NtRp2572
(dp2573
g54
(dp2574
g81
g82
ssg63
g2563
sg56
(lp2575
S':'
asbag49
(g70
g51
NtRp2576
(dp2577
g54
(dp2578
sg63
g2563
sg56
(lp2579
g49
(g50
g51
NtRp2580
(dp2581
g54
(dp2582
g62
I3
ssg63
g2576
sg56
(lp2583
S'1'
asbasbasbag49
(g65
g51
NtRp2584
(dp2585
g54
(dp2586
sg63
g2412
sg56
(lp2587
g49
(g70
g51
NtRp2588
(dp2589
g54
(dp2590
g74
g75
ssg63
g2584
sg56
(lp2591
S'HTTP_HOST'
p2592
asbag49
(g70
g51
NtRp2593
(dp2594
g54
(dp2595
g81
g82
ssg63
g2584
sg56
(lp2596
S':'
asbag49
(g70
g51
NtRp2597
(dp2598
g54
(dp2599
sg63
g2584
sg56
(lp2600
g49
(g50
g51
NtRp2601
(dp2602
g54
(dp2603
g62
I3
ssg63
g2597
sg56
(lp2604
g1121
asbasbasbag49
(g65
g51
NtRp2605
(dp2606
g54
(dp2607
sg63
g2412
sg56
(lp2608
g49
(g70
g51
NtRp2609
(dp2610
g54
(dp2611
g74
g75
ssg63
g2605
sg56
(lp2612
S'HTTP_USER_AGENT'
p2613
asbag49
(g70
g51
NtRp2614
(dp2615
g54
(dp2616
g81
g82
ssg63
g2605
sg56
(lp2617
S':'
asbag49
(g70
g51
NtRp2618
(dp2619
g54
(dp2620
sg63
g2605
sg56
(lp2621
g49
(g50
g51
NtRp2622
(dp2623
g54
(dp2624
g62
I3
ssg63
g2618
sg56
(lp2625
g1143
asbasbasbag49
(g65
g51
NtRp2626
(dp2627
g54
(dp2628
sg63
g2412
sg56
(lp2629
g49
(g70
g51
NtRp2630
(dp2631
g54
(dp2632
g74
g75
ssg63
g2626
sg56
(lp2633
S'PATH_INFO'
p2634
asbag49
(g70
g51
NtRp2635
(dp2636
g54
(dp2637
g81
g82
ssg63
g2626
sg56
(lp2638
S':'
asbag49
(g70
g51
NtRp2639
(dp2640
g54
(dp2641
sg63
g2626
sg56
(lp2642
g49
(g50
g51
NtRp2643
(dp2644
g54
(dp2645
g62
I3
ssg63
g2639
sg56
(lp2646
g1207
asbasbasbag49
(g65
g51
NtRp2647
(dp2648
g54
(dp2649
sg63
g2412
sg56
(lp2650
g49
(g70
g51
NtRp2651
(dp2652
g54
(dp2653
g74
g75
ssg63
g2647
sg56
(lp2654
S'QUERY_STRING'
p2655
asbag49
(g70
g51
NtRp2656
(dp2657
g54
(dp2658
g81
g82
ssg63
g2647
sg56
(lp2659
S':'
asbag49
(g70
g51
NtRp2660
(dp2661
g54
(dp2662
sg63
g2647
sg56
(lp2663
g49
(g50
g51
NtRp2664
(dp2665
g54
(dp2666
g62
I3
ssg63
g2660
sg56
(lp2667
S''
asbasbasbag49
(g65
g51
NtRp2668
(dp2669
g54
(dp2670
sg63
g2412
sg56
(lp2671
g49
(g70
g51
NtRp2672
(dp2673
g54
(dp2674
g74
g75
ssg63
g2668
sg56
(lp2675
S'REMOTE_ADDR'
p2676
asbag49
(g70
g51
NtRp2677
(dp2678
g54
(dp2679
g81
g82
ssg63
g2668
sg56
(lp2680
S':'
asbag49
(g70
g51
NtRp2681
(dp2682
g54
(dp2683
sg63
g2668
sg56
(lp2684
g49
(g50
g51
NtRp2685
(dp2686
g54
(dp2687
g62
I3
ssg63
g2681
sg56
(lp2688
g194
asbasbasbag49
(g65
g51
NtRp2689
(dp2690
g54
(dp2691
sg63
g2412
sg56
(lp2692
g49
(g70
g51
NtRp2693
(dp2694
g54
(dp2695
g74
g75
ssg63
g2689
sg56
(lp2696
S'REMOTE_PORT'
p2697
asbag49
(g70
g51
NtRp2698
(dp2699
g54
(dp2700
g81
g82
ssg63
g2689
sg56
(lp2701
S':'
asbag49
(g70
g51
NtRp2702
(dp2703
g54
(dp2704
sg63
g2689
sg56
(lp2705
g49
(g50
g51
NtRp2706
(dp2707
g54
(dp2708
g62
I3
ssg63
g2702
sg56
(lp2709
g1271
asbasbasbag49
(g65
g51
NtRp2710
(dp2711
g54
(dp2712
sg63
g2412
sg56
(lp2713
g49
(g70
g51
NtRp2714
(dp2715
g54
(dp2716
g74
g75
ssg63
g2710
sg56
(lp2717
S'REQUEST_METHOD'
p2718
asbag49
(g70
g51
NtRp2719
(dp2720
g54
(dp2721
g81
g82
ssg63
g2710
sg56
(lp2722
S':'
asbag49
(g70
g51
NtRp2723
(dp2724
g54
(dp2725
sg63
g2710
sg56
(lp2726
g49
(g50
g51
NtRp2727
(dp2728
g54
(dp2729
g62
I3
ssg63
g2723
sg56
(lp2730
g1293
asbasbasbag49
(g65
g51
NtRp2731
(dp2732
g54
(dp2733
sg63
g2412
sg56
(lp2734
g49
(g70
g51
NtRp2735
(dp2736
g54
(dp2737
g74
g75
ssg63
g2731
sg56
(lp2738
S'SCRIPT_NAME'
p2739
asbag49
(g70
g51
NtRp2740
(dp2741
g54
(dp2742
g81
g82
ssg63
g2731
sg56
(lp2743
S':'
asbag49
(g70
g51
NtRp2744
(dp2745
g54
(dp2746
sg63
g2731
sg56
(lp2747
g49
(g50
g51
NtRp2748
(dp2749
g54
(dp2750
g62
I3
ssg63
g2744
sg56
(lp2751
S''
asbasbasbag49
(g65
g51
NtRp2752
(dp2753
g54
(dp2754
sg63
g2412
sg56
(lp2755
g49
(g70
g51
NtRp2756
(dp2757
g54
(dp2758
g74
g75
ssg63
g2752
sg56
(lp2759
S'SERVER_NAME'
p2760
asbag49
(g70
g51
NtRp2761
(dp2762
g54
(dp2763
g81
g82
ssg63
g2752
sg56
(lp2764
S':'
asbag49
(g70
g51
NtRp2765
(dp2766
g54
(dp2767
sg63
g2752
sg56
(lp2768
g49
(g50
g51
NtRp2769
(dp2770
g54
(dp2771
g62
I3
ssg63
g2765
sg56
(lp2772
g1336
asbasbasbag49
(g65
g51
NtRp2773
(dp2774
g54
(dp2775
sg63
g2412
sg56
(lp2776
g49
(g70
g51
NtRp2777
(dp2778
g54
(dp2779
g74
g75
ssg63
g2773
sg56
(lp2780
S'SERVER_PORT'
p2781
asbag49
(g70
g51
NtRp2782
(dp2783
g54
(dp2784
g81
g82
ssg63
g2773
sg56
(lp2785
S':'
asbag49
(g70
g51
NtRp2786
(dp2787
g54
(dp2788
sg63
g2773
sg56
(lp2789
g49
(g50
g51
NtRp2790
(dp2791
g54
(dp2792
g62
I3
ssg63
g2786
sg56
(lp2793
g1358
asbasbasbag49
(g65
g51
NtRp2794
(dp2795
g54
(dp2796
sg63
g2412
sg56
(lp2797
g49
(g70
g51
NtRp2798
(dp2799
g54
(dp2800
g74
g75
ssg63
g2794
sg56
(lp2801
S'SERVER_PROTOCOL'
p2802
asbag49
(g70
g51
NtRp2803
(dp2804
g54
(dp2805
g81
g82
ssg63
g2794
sg56
(lp2806
S':'
asbag49
(g70
g51
NtRp2807
(dp2808
g54
(dp2809
sg63
g2794
sg56
(lp2810
g49
(g50
g51
NtRp2811
(dp2812
g54
(dp2813
g62
I3
ssg63
g2807
sg56
(lp2814
g1380
asbasbasbag49
(g65
g51
NtRp2815
(dp2816
g54
(dp2817
sg63
g2412
sg56
(lp2818
g49
(g70
g51
NtRp2819
(dp2820
g54
(dp2821
g74
g75
ssg63
g2815
sg56
(lp2822
S'SERVER_SOFTWARE'
p2823
asbag49
(g70
g51
NtRp2824
(dp2825
g54
(dp2826
g81
g82
ssg63
g2815
sg56
(lp2827
S':'
asbag49
(g70
g51
NtRp2828
(dp2829
g54
(dp2830
sg63
g2815
sg56
(lp2831
g49
(g50
g51
NtRp2832
(dp2833
g54
(dp2834
g62
I3
ssg63
g2828
sg56
(lp2835
g1402
asbasbasbag49
(g65
g51
NtRp2836
(dp2837
g54
(dp2838
sg63
g2412
sg56
(lp2839
g49
(g70
g51
NtRp2840
(dp2841
g54
(dp2842
g74
g75
ssg63
g2836
sg56
(lp2843
S'wsgi.errors'
p2844
asbag49
(g70
g51
NtRp2845
(dp2846
g54
(dp2847
g81
g82
ssg63
g2836
sg56
(lp2848
S':'
asbag49
(g70
g51
NtRp2849
(dp2850
g54
(dp2851
sg63
g2836
sg56
(lp2852
g49
(g50
g51
NtRp2853
(dp2854
g54
(dp2855
g62
I3
ssg63
g2849
sg56
(lp2856
S'<__main__.Stderr object at 0x00486670>'
p2857
asbasbasbag49
(g65
g51
NtRp2858
(dp2859
g54
(dp2860
sg63
g2412
sg56
(lp2861
g49
(g70
g51
NtRp2862
(dp2863
g54
(dp2864
g74
g75
ssg63
g2858
sg56
(lp2865
S'wsgi.file_wrapper'
p2866
asbag49
(g70
g51
NtRp2867
(dp2868
g54
(dp2869
g81
g82
ssg63
g2858
sg56
(lp2870
S':'
asbag49
(g70
g51
NtRp2871
(dp2872
g54
(dp2873
sg63
g2858
sg56
(lp2874
g49
(g50
g51
NtRp2875
(dp2876
g54
(dp2877
g62
I3
ssg63
g2871
sg56
(lp2878
S'<class wsgiref.util.FileWrapper at 0x02E8DE10>'
p2879
asbasbasbag49
(g65
g51
NtRp2880
(dp2881
g54
(dp2882
sg63
g2412
sg56
(lp2883
g49
(g70
g51
NtRp2884
(dp2885
g54
(dp2886
g74
g75
ssg63
g2880
sg56
(lp2887
S'wsgi.input'
p2888
asbag49
(g70
g51
NtRp2889
(dp2890
g54
(dp2891
g81
g82
ssg63
g2880
sg56
(lp2892
S':'
asbag49
(g70
g51
NtRp2893
(dp2894
g54
(dp2895
sg63
g2880
sg56
(lp2896
g49
(g50
g51
NtRp2897
(dp2898
g54
(dp2899
g62
I3
ssg63
g2893
sg56
(lp2900
S'<cStringIO.StringO object at 0x06A5F760>'
p2901
asbasbasbag49
(g65
g51
NtRp2902
(dp2903
g54
(dp2904
sg63
g2412
sg56
(lp2905
g49
(g70
g51
NtRp2906
(dp2907
g54
(dp2908
g74
g75
ssg63
g2902
sg56
(lp2909
S'wsgi.multiprocess'
p2910
asbag49
(g70
g51
NtRp2911
(dp2912
g54
(dp2913
g81
g82
ssg63
g2902
sg56
(lp2914
S':'
asbag49
(g70
g51
NtRp2915
(dp2916
g54
(dp2917
sg63
g2902
sg56
(lp2918
g49
(g50
g51
NtRp2919
(dp2920
g54
(dp2921
g62
I3
ssg63
g2915
sg56
(lp2922
g92
asbasbasbag49
(g65
g51
NtRp2923
(dp2924
g54
(dp2925
sg63
g2412
sg56
(lp2926
g49
(g70
g51
NtRp2927
(dp2928
g54
(dp2929
g74
g75
ssg63
g2923
sg56
(lp2930
S'wsgi.multithread'
p2931
asbag49
(g70
g51
NtRp2932
(dp2933
g54
(dp2934
g81
g82
ssg63
g2923
sg56
(lp2935
S':'
asbag49
(g70
g51
NtRp2936
(dp2937
g54
(dp2938
sg63
g2923
sg56
(lp2939
g49
(g50
g51
NtRp2940
(dp2941
g54
(dp2942
g62
I3
ssg63
g2936
sg56
(lp2943
g1642
asbasbasbag49
(g65
g51
NtRp2944
(dp2945
g54
(dp2946
sg63
g2412
sg56
(lp2947
g49
(g70
g51
NtRp2948
(dp2949
g54
(dp2950
g74
g75
ssg63
g2944
sg56
(lp2951
S'wsgi.run_once'
p2952
asbag49
(g70
g51
NtRp2953
(dp2954
g54
(dp2955
g81
g82
ssg63
g2944
sg56
(lp2956
S':'
asbag49
(g70
g51
NtRp2957
(dp2958
g54
(dp2959
sg63
g2944
sg56
(lp2960
g49
(g50
g51
NtRp2961
(dp2962
g54
(dp2963
g62
I3
ssg63
g2957
sg56
(lp2964
g92
asbasbasbag49
(g65
g51
NtRp2965
(dp2966
g54
(dp2967
sg63
g2412
sg56
(lp2968
g49
(g70
g51
NtRp2969
(dp2970
g54
(dp2971
g74
g75
ssg63
g2965
sg56
(lp2972
S'wsgi.url_scheme'
p2973
asbag49
(g70
g51
NtRp2974
(dp2975
g54
(dp2976
g81
g82
ssg63
g2965
sg56
(lp2977
S':'
asbag49
(g70
g51
NtRp2978
(dp2979
g54
(dp2980
sg63
g2965
sg56
(lp2981
g49
(g50
g51
NtRp2982
(dp2983
g54
(dp2984
g62
I3
ssg63
g2978
sg56
(lp2985
g1685
asbasbasbag49
(g65
g51
NtRp2986
(dp2987
g54
(dp2988
sg63
g2412
sg56
(lp2989
g49
(g70
g51
NtRp2990
(dp2991
g54
(dp2992
g74
g75
ssg63
g2986
sg56
(lp2993
S'wsgi.version'
p2994
asbag49
(g70
g51
NtRp2995
(dp2996
g54
(dp2997
g81
g82
ssg63
g2986
sg56
(lp2998
S':'
asbag49
(g70
g51
NtRp2999
(dp3000
g54
(dp3001
sg63
g2986
sg56
(lp3002
g49
(g50
g51
NtRp3003
(dp3004
g54
(dp3005
g62
I3
ssg63
g2999
sg56
(lp3006
S'1'
asbasbasbasbasbasbasbasbasbasbasbasbasbsS'frames'
p3007
(lp3008
(dp3009
S'file'
p3010
S'C:\\web2py\\gluon\\restricted.py'
p3011
sS'dump'
p3012
(dp3013
sS'lnum'
p3014
I205
sS'lines'
p3015
(dp3016
sS'call'
p3017
S'(code=r"response.write(\'<!DOCTYPE html>\\n<!-- paulirish....ponse.write(\'\\n</body>\\n</html>\\n\', escape=False)", environment={\'A\': <class \'gluon.html.A\'>, \'Auth\': <class \'gluon.tools.Auth\'>, \'B\': <class \'gluon.html.B\'>, \'BEAUTIFY\': <class \'gluon.html.BEAUTIFY\'>, \'BODY\': <class \'gluon.html.BODY\'>, \'BR\': <class \'gluon.html.BR\'>, \'BUTTON\': <class \'gluon.html.BUTTON\'>, \'CAT\': <class \'gluon.html.CAT\'>, \'CENTER\': <class \'gluon.html.CENTER\'>, \'CLEANUP\': <class \'gluon.validators.CLEANUP\'>, ...}, layer=r\'C:\\web2py\\applications\\unioeste_code\\views\\default/showProblem.html\')'
p3018
sS'func'
p3019
S'restricted'
p3020
sa(dp3021
g3010
S'C:\\web2py\\applications\\unioeste_code\\views\\default\\showProblem.html'
p3022
sg3012
(dp3023
sg3014
I90
sg3015
(dp3024
I96
S'    response.write(A( + s, _href=URL("showCode", args=problem.id)))'
p3025
sI97
S"    response.write('\\r\\n', escape=False)"
p3026
sI98
S'    response.write(prettydate(code.created_on))'
p3027
sI99
S"    response.write('\\r\\n</LI>\\r\\n', escape=False)"
p3028
sI100
S'    pass'
p3029
sI81
S'response.write(\'\\n        \\n        <div class="\', escape=False)'
p3030
sI82
S'response.write(middle_columns)'
p3031
sI83
S'response.write(\' columns center">\\n          \', escape=False)'
p3032
sI84
S"response.write('\\n          ', escape=False)"
p3033
sI85
S"response.write('\\r\\n\\r\\n', escape=False)"
p3034
sI86
S'response.write(H1(problem.title))'
p3035
sI87
S"response.write('\\r\\n', escape=False)"
p3036
sI88
S'response.write(H2("C\xc3\xb3digos postados", _style="color:green"))'
p3037
sI89
S"response.write('\\r\\n<ul>\\r\\n', escape=False)"
p3038
sI90
S'for i,code in codes:'
p3039
sI91
S"    response.write('\\r\\n', escape=False)"
p3040
sI92
S'    user = db(db.auth_user.id==code.created_by).select().first()'
p3041
sI93
S"    response.write('\\r\\n', escape=False)"
p3042
sI94
S'    s = user.first_name + " " + user.last_name + " - (" + user.email + ")"'
p3043
sI95
S"    response.write('\\r\\n<LI>\\r\\n', escape=False)"
p3044
ssg3017
S'()'
p3045
sg3019
S'<module>'
p3046
sasS'pyver'
p3047
S'Python 2.5.4: C:\\web2py\\web2py_no_console.exe'
p3048
sS'session'
p3049
g49
(g50
g51
NtRp3050
(dp3051
g54
(dp3052
sg56
(lp3053
g49
(g58
g51
NtRp3054
(dp3055
g54
(dp3056
g62
I5
ssg63
Nsg56
(lp3057
sbasbsS'etype'
p3058
S"<type 'exceptions.ValueError'>"
p3059
sS'date'
p3060
S'Sun Jul 29 23:52:28 2012'
p3061
sS'response'
p3062
g49
(g50
g51
NtRp3063
(dp3064
g54
(dp3065
sg56
(lp3066
g49
(g58
g51
NtRp3067
(dp3068
g54
(dp3069
g62
I5
ssg63
Nsg56
(lp3070
g49
(g65
g51
NtRp3071
(dp3072
g54
(dp3073
sg63
g3067
sg56
(lp3074
g49
(g70
g51
NtRp3075
(dp3076
g54
(dp3077
g74
g75
ssg63
g3071
sg56
(lp3078
g159
asbag49
(g70
g51
NtRp3079
(dp3080
g54
(dp3081
g81
g82
ssg63
g3071
sg56
(lp3082
S':'
asbag49
(g70
g51
NtRp3083
(dp3084
g54
(dp3085
sg63
g3071
sg56
(lp3086
g49
(g50
g51
NtRp3087
(dp3088
g54
(dp3089
g62
I5
ssg63
g3083
sg56
(lp3090
S'<cStringIO.StringO object at 0x06A5F8C0>'
p3091
asbasbasbag49
(g65
g51
NtRp3092
(dp3093
g54
(dp3094
sg63
g3067
sg56
(lp3095
g49
(g70
g51
NtRp3096
(dp3097
g54
(dp3098
g74
g75
ssg63
g3092
sg56
(lp3099
g225
asbag49
(g70
g51
NtRp3100
(dp3101
g54
(dp3102
g81
g82
ssg63
g3092
sg56
(lp3103
S':'
asbag49
(g70
g51
NtRp3104
(dp3105
g54
(dp3106
sg63
g3092
sg56
(lp3107
g49
(g50
g51
NtRp3108
(dp3109
g54
(dp3110
g62
I5
ssg63
g3104
sg56
(lp3111
g49
(g58
g51
NtRp3112
(dp3113
g54
(dp3114
g62
I4
ssg63
Nsg56
(lp3115
g49
(g65
g51
NtRp3116
(dp3117
g54
(dp3118
sg63
g3112
sg56
(lp3119
g49
(g70
g51
NtRp3120
(dp3121
g54
(dp3122
g74
g75
ssg63
g3116
sg56
(lp3123
S'session_id_unioeste_code'
p3124
asbag49
(g70
g51
NtRp3125
(dp3126
g54
(dp3127
g81
g82
ssg63
g3116
sg56
(lp3128
S':'
asbag49
(g70
g51
NtRp3129
(dp3130
g54
(dp3131
sg63
g3116
sg56
(lp3132
g49
(g50
g51
NtRp3133
(dp3134
g54
(dp3135
g62
I4
ssg63
g3129
sg56
(lp3136
g49
(g58
g51
NtRp3137
(dp3138
g54
(dp3139
g62
I3
ssg63
Nsg56
(lp3140
g49
(g65
g51
NtRp3141
(dp3142
g54
(dp3143
sg63
g3137
sg56
(lp3144
g49
(g70
g51
NtRp3145
(dp3146
g54
(dp3147
g74
g75
ssg63
g3141
sg56
(lp3148
g275
asbag49
(g70
g51
NtRp3149
(dp3150
g54
(dp3151
g81
g82
ssg63
g3141
sg56
(lp3152
S':'
asbag49
(g70
g51
NtRp3153
(dp3154
g54
(dp3155
sg63
g3141
sg56
(lp3156
g49
(g50
g51
NtRp3157
(dp3158
g54
(dp3159
g62
I3
ssg63
g3153
sg56
(lp3160
S''
asbasbasbag49
(g65
g51
NtRp3161
(dp3162
g54
(dp3163
sg63
g3137
sg56
(lp3164
g49
(g70
g51
NtRp3165
(dp3166
g54
(dp3167
g74
g75
ssg63
g3161
sg56
(lp3168
g296
asbag49
(g70
g51
NtRp3169
(dp3170
g54
(dp3171
g81
g82
ssg63
g3161
sg56
(lp3172
S':'
asbag49
(g70
g51
NtRp3173
(dp3174
g54
(dp3175
sg63
g3161
sg56
(lp3176
g49
(g50
g51
NtRp3177
(dp3178
g54
(dp3179
g62
I3
ssg63
g3173
sg56
(lp3180
S''
asbasbasbag49
(g65
g51
NtRp3181
(dp3182
g54
(dp3183
sg63
g3137
sg56
(lp3184
g49
(g70
g51
NtRp3185
(dp3186
g54
(dp3187
g74
g75
ssg63
g3181
sg56
(lp3188
g317
asbag49
(g70
g51
NtRp3189
(dp3190
g54
(dp3191
g81
g82
ssg63
g3181
sg56
(lp3192
S':'
asbag49
(g70
g51
NtRp3193
(dp3194
g54
(dp3195
sg63
g3181
sg56
(lp3196
g49
(g50
g51
NtRp3197
(dp3198
g54
(dp3199
g62
I3
ssg63
g3193
sg56
(lp3200
S''
asbasbasbag49
(g65
g51
NtRp3201
(dp3202
g54
(dp3203
sg63
g3137
sg56
(lp3204
g49
(g70
g51
NtRp3205
(dp3206
g54
(dp3207
g74
g75
ssg63
g3201
sg56
(lp3208
g338
asbag49
(g70
g51
NtRp3209
(dp3210
g54
(dp3211
g81
g82
ssg63
g3201
sg56
(lp3212
S':'
asbag49
(g70
g51
NtRp3213
(dp3214
g54
(dp3215
sg63
g3201
sg56
(lp3216
g49
(g50
g51
NtRp3217
(dp3218
g54
(dp3219
g62
I3
ssg63
g3213
sg56
(lp3220
S''
asbasbasbag49
(g65
g51
NtRp3221
(dp3222
g54
(dp3223
sg63
g3137
sg56
(lp3224
g49
(g70
g51
NtRp3225
(dp3226
g54
(dp3227
g74
g75
ssg63
g3221
sg56
(lp3228
g359
asbag49
(g70
g51
NtRp3229
(dp3230
g54
(dp3231
g81
g82
ssg63
g3221
sg56
(lp3232
S':'
asbag49
(g70
g51
NtRp3233
(dp3234
g54
(dp3235
sg63
g3221
sg56
(lp3236
g49
(g50
g51
NtRp3237
(dp3238
g54
(dp3239
g62
I3
ssg63
g3233
sg56
(lp3240
S'/'
asbasbasbag49
(g65
g51
NtRp3241
(dp3242
g54
(dp3243
sg63
g3137
sg56
(lp3244
g49
(g70
g51
NtRp3245
(dp3246
g54
(dp3247
g74
g75
ssg63
g3241
sg56
(lp3248
g380
asbag49
(g70
g51
NtRp3249
(dp3250
g54
(dp3251
g81
g82
ssg63
g3241
sg56
(lp3252
S':'
asbag49
(g70
g51
NtRp3253
(dp3254
g54
(dp3255
sg63
g3241
sg56
(lp3256
g49
(g50
g51
NtRp3257
(dp3258
g54
(dp3259
g62
I3
ssg63
g3253
sg56
(lp3260
S''
asbasbasbag49
(g65
g51
NtRp3261
(dp3262
g54
(dp3263
sg63
g3137
sg56
(lp3264
g49
(g70
g51
NtRp3265
(dp3266
g54
(dp3267
g74
g75
ssg63
g3261
sg56
(lp3268
g401
asbag49
(g70
g51
NtRp3269
(dp3270
g54
(dp3271
g81
g82
ssg63
g3261
sg56
(lp3272
S':'
asbag49
(g70
g51
NtRp3273
(dp3274
g54
(dp3275
sg63
g3261
sg56
(lp3276
g49
(g50
g51
NtRp3277
(dp3278
g54
(dp3279
g62
I3
ssg63
g3273
sg56
(lp3280
S''
asbasbasbasbasbasbasbasbasbasbasbag49
(g65
g51
NtRp3281
(dp3282
g54
(dp3283
sg63
g3067
sg56
(lp3284
g49
(g70
g51
NtRp3285
(dp3286
g54
(dp3287
g74
g75
ssg63
g3281
sg56
(lp3288
S'delimiters'
p3289
asbag49
(g70
g51
NtRp3290
(dp3291
g54
(dp3292
g81
g82
ssg63
g3281
sg56
(lp3293
S':'
asbag49
(g70
g51
NtRp3294
(dp3295
g54
(dp3296
sg63
g3281
sg56
(lp3297
g49
(g50
g51
NtRp3298
(dp3299
g54
(dp3300
g62
I5
ssg63
g3294
sg56
(lp3301
g49
(g58
g51
NtRp3302
(dp3303
g54
(dp3304
g62
I4
ssg63
Nsg56
(lp3305
g49
(g65
g51
NtRp3306
(dp3307
g54
(dp3308
sg63
g3302
sg56
(lp3309
g49
(g70
g51
NtRp3310
(dp3311
g54
(dp3312
sg63
g3306
sg56
(lp3313
g49
(g50
g51
NtRp3314
(dp3315
g54
(dp3316
g62
I4
ssg63
g3310
sg56
(lp3317
S'{{'
p3318
asbasbasbag49
(g65
g51
NtRp3319
(dp3320
g54
(dp3321
sg63
g3302
sg56
(lp3322
g49
(g70
g51
NtRp3323
(dp3324
g54
(dp3325
sg63
g3319
sg56
(lp3326
g49
(g50
g51
NtRp3327
(dp3328
g54
(dp3329
g62
I4
ssg63
g3323
sg56
(lp3330
S'}}'
p3331
asbasbasbasbasbasbasbag49
(g65
g51
NtRp3332
(dp3333
g54
(dp3334
sg63
g3067
sg56
(lp3335
g49
(g70
g51
NtRp3336
(dp3337
g54
(dp3338
g74
g75
ssg63
g3332
sg56
(lp3339
S'files'
p3340
asbag49
(g70
g51
NtRp3341
(dp3342
g54
(dp3343
g81
g82
ssg63
g3332
sg56
(lp3344
S':'
asbag49
(g70
g51
NtRp3345
(dp3346
g54
(dp3347
sg63
g3332
sg56
(lp3348
g49
(g50
g51
NtRp3349
(dp3350
g54
(dp3351
g62
I5
ssg63
g3345
sg56
(lp3352
g49
(g58
g51
NtRp3353
(dp3354
g54
(dp3355
g62
I4
ssg63
Nsg56
(lp3356
g49
(g65
g51
NtRp3357
(dp3358
g54
(dp3359
sg63
g3353
sg56
(lp3360
g49
(g70
g51
NtRp3361
(dp3362
g54
(dp3363
sg63
g3357
sg56
(lp3364
g49
(g50
g51
NtRp3365
(dp3366
g54
(dp3367
g62
I4
ssg63
g3361
sg56
(lp3368
S'/unioeste_code/static/js/jquery.js'
p3369
asbasbasbag49
(g65
g51
NtRp3370
(dp3371
g54
(dp3372
sg63
g3353
sg56
(lp3373
g49
(g70
g51
NtRp3374
(dp3375
g54
(dp3376
sg63
g3370
sg56
(lp3377
g49
(g50
g51
NtRp3378
(dp3379
g54
(dp3380
g62
I4
ssg63
g3374
sg56
(lp3381
S'/unioeste_code/static/css/calendar.css'
p3382
asbasbasbag49
(g65
g51
NtRp3383
(dp3384
g54
(dp3385
sg63
g3353
sg56
(lp3386
g49
(g70
g51
NtRp3387
(dp3388
g54
(dp3389
sg63
g3383
sg56
(lp3390
g49
(g50
g51
NtRp3391
(dp3392
g54
(dp3393
g62
I4
ssg63
g3387
sg56
(lp3394
S'/unioeste_code/static/js/calendar.js'
p3395
asbasbasbag49
(g65
g51
NtRp3396
(dp3397
g54
(dp3398
sg63
g3353
sg56
(lp3399
g49
(g70
g51
NtRp3400
(dp3401
g54
(dp3402
sg63
g3396
sg56
(lp3403
g49
(g50
g51
NtRp3404
(dp3405
g54
(dp3406
g62
I4
ssg63
g3400
sg56
(lp3407
S'/unioeste_code/static/js/web2py.js'
p3408
asbasbasbag49
(g65
g51
NtRp3409
(dp3410
g54
(dp3411
sg63
g3353
sg56
(lp3412
g49
(g70
g51
NtRp3413
(dp3414
g54
(dp3415
sg63
g3409
sg56
(lp3416
g49
(g50
g51
NtRp3417
(dp3418
g54
(dp3419
g62
I4
ssg63
g3413
sg56
(lp3420
S'/unioeste_code/static/css/skeleton.css'
p3421
asbasbasbag49
(g65
g51
NtRp3422
(dp3423
g54
(dp3424
sg63
g3353
sg56
(lp3425
g49
(g70
g51
NtRp3426
(dp3427
g54
(dp3428
sg63
g3422
sg56
(lp3429
g49
(g50
g51
NtRp3430
(dp3431
g54
(dp3432
g62
I4
ssg63
g3426
sg56
(lp3433
S'/unioeste_code/static/css/web2py.css'
p3434
asbasbasbag49
(g65
g51
NtRp3435
(dp3436
g54
(dp3437
sg63
g3353
sg56
(lp3438
g49
(g70
g51
NtRp3439
(dp3440
g54
(dp3441
sg63
g3435
sg56
(lp3442
g49
(g50
g51
NtRp3443
(dp3444
g54
(dp3445
g62
I4
ssg63
g3439
sg56
(lp3446
S'/unioeste_code/static/css/superfish.css'
p3447
asbasbasbag49
(g65
g51
NtRp3448
(dp3449
g54
(dp3450
sg63
g3353
sg56
(lp3451
g49
(g70
g51
NtRp3452
(dp3453
g54
(dp3454
sg63
g3448
sg56
(lp3455
g49
(g50
g51
NtRp3456
(dp3457
g54
(dp3458
g62
I4
ssg63
g3452
sg56
(lp3459
S'/unioeste_code/static/js/superfish.js'
p3460
asbasbasbasbasbasbasbag49
(g65
g51
NtRp3461
(dp3462
g54
(dp3463
sg63
g3067
sg56
(lp3464
g49
(g70
g51
NtRp3465
(dp3466
g54
(dp3467
g74
g75
ssg63
g3461
sg56
(lp3468
S'flash'
p3469
asbag49
(g70
g51
NtRp3470
(dp3471
g54
(dp3472
g81
g82
ssg63
g3461
sg56
(lp3473
S':'
asbag49
(g70
g51
NtRp3474
(dp3475
g54
(dp3476
sg63
g3461
sg56
(lp3477
g49
(g50
g51
NtRp3478
(dp3479
g54
(dp3480
g62
I5
ssg63
g3474
sg56
(lp3481
S''
asbasbasbag49
(g65
g51
NtRp3482
(dp3483
g54
(dp3484
sg63
g3067
sg56
(lp3485
g49
(g70
g51
NtRp3486
(dp3487
g54
(dp3488
g74
g75
ssg63
g3482
sg56
(lp3489
S'generic_patterns'
p3490
asbag49
(g70
g51
NtRp3491
(dp3492
g54
(dp3493
g81
g82
ssg63
g3482
sg56
(lp3494
S':'
asbag49
(g70
g51
NtRp3495
(dp3496
g54
(dp3497
sg63
g3482
sg56
(lp3498
g49
(g50
g51
NtRp3499
(dp3500
g54
(dp3501
g62
I5
ssg63
g3495
sg56
(lp3502
g49
(g58
g51
NtRp3503
(dp3504
g54
(dp3505
g62
I4
ssg63
Nsg56
(lp3506
sbasbasbasbag49
(g65
g51
NtRp3507
(dp3508
g54
(dp3509
sg63
g3067
sg56
(lp3510
g49
(g70
g51
NtRp3511
(dp3512
g54
(dp3513
g74
g75
ssg63
g3507
sg56
(lp3514
S'headers'
p3515
asbag49
(g70
g51
NtRp3516
(dp3517
g54
(dp3518
g81
g82
ssg63
g3507
sg56
(lp3519
S':'
asbag49
(g70
g51
NtRp3520
(dp3521
g54
(dp3522
sg63
g3507
sg56
(lp3523
g49
(g50
g51
NtRp3524
(dp3525
g54
(dp3526
g62
I5
ssg63
g3520
sg56
(lp3527
g49
(g58
g51
NtRp3528
(dp3529
g54
(dp3530
g62
I4
ssg63
Nsg56
(lp3531
g49
(g65
g51
NtRp3532
(dp3533
g54
(dp3534
sg63
g3528
sg56
(lp3535
g49
(g70
g51
NtRp3536
(dp3537
g54
(dp3538
g74
g75
ssg63
g3532
sg56
(lp3539
S'Cache-Control'
p3540
asbag49
(g70
g51
NtRp3541
(dp3542
g54
(dp3543
g81
g82
ssg63
g3532
sg56
(lp3544
S':'
asbag49
(g70
g51
NtRp3545
(dp3546
g54
(dp3547
sg63
g3532
sg56
(lp3548
g49
(g50
g51
NtRp3549
(dp3550
g54
(dp3551
g62
I4
ssg63
g3545
sg56
(lp3552
S'no-store, no-cache, must-revalidate, post-check=0, pre-check=0'
p3553
asbasbasbag49
(g65
g51
NtRp3554
(dp3555
g54
(dp3556
sg63
g3528
sg56
(lp3557
g49
(g70
g51
NtRp3558
(dp3559
g54
(dp3560
g74
g75
ssg63
g3554
sg56
(lp3561
S'Content-Type'
p3562
asbag49
(g70
g51
NtRp3563
(dp3564
g54
(dp3565
g81
g82
ssg63
g3554
sg56
(lp3566
S':'
asbag49
(g70
g51
NtRp3567
(dp3568
g54
(dp3569
sg63
g3554
sg56
(lp3570
g49
(g50
g51
NtRp3571
(dp3572
g54
(dp3573
g62
I4
ssg63
g3567
sg56
(lp3574
S'text/html; charset=utf-8'
p3575
asbasbasbag49
(g65
g51
NtRp3576
(dp3577
g54
(dp3578
sg63
g3528
sg56
(lp3579
g49
(g70
g51
NtRp3580
(dp3581
g54
(dp3582
g74
g75
ssg63
g3576
sg56
(lp3583
S'Expires'
p3584
asbag49
(g70
g51
NtRp3585
(dp3586
g54
(dp3587
g81
g82
ssg63
g3576
sg56
(lp3588
S':'
asbag49
(g70
g51
NtRp3589
(dp3590
g54
(dp3591
sg63
g3576
sg56
(lp3592
g49
(g50
g51
NtRp3593
(dp3594
g54
(dp3595
g62
I4
ssg63
g3589
sg56
(lp3596
S'Mon, 30 Jul 2012 02:52:28 GMT'
p3597
asbasbasbag49
(g65
g51
NtRp3598
(dp3599
g54
(dp3600
sg63
g3528
sg56
(lp3601
g49
(g70
g51
NtRp3602
(dp3603
g54
(dp3604
g74
g75
ssg63
g3598
sg56
(lp3605
S'Pragma'
p3606
asbag49
(g70
g51
NtRp3607
(dp3608
g54
(dp3609
g81
g82
ssg63
g3598
sg56
(lp3610
S':'
asbag49
(g70
g51
NtRp3611
(dp3612
g54
(dp3613
sg63
g3598
sg56
(lp3614
g49
(g50
g51
NtRp3615
(dp3616
g54
(dp3617
g62
I4
ssg63
g3611
sg56
(lp3618
S'no-cache'
p3619
asbasbasbag49
(g65
g51
NtRp3620
(dp3621
g54
(dp3622
sg63
g3528
sg56
(lp3623
g49
(g70
g51
NtRp3624
(dp3625
g54
(dp3626
g74
g75
ssg63
g3620
sg56
(lp3627
S'X-Powered-By'
p3628
asbag49
(g70
g51
NtRp3629
(dp3630
g54
(dp3631
g81
g82
ssg63
g3620
sg56
(lp3632
S':'
asbag49
(g70
g51
NtRp3633
(dp3634
g54
(dp3635
sg63
g3620
sg56
(lp3636
g49
(g50
g51
NtRp3637
(dp3638
g54
(dp3639
g62
I4
ssg63
g3633
sg56
(lp3640
S'web2py'
p3641
asbasbasbasbasbasbasbag49
(g65
g51
NtRp3642
(dp3643
g54
(dp3644
sg63
g3067
sg56
(lp3645
g49
(g70
g51
NtRp3646
(dp3647
g54
(dp3648
g74
g75
ssg63
g3642
sg56
(lp3649
S'menu'
p3650
asbag49
(g70
g51
NtRp3651
(dp3652
g54
(dp3653
g81
g82
ssg63
g3642
sg56
(lp3654
S':'
asbag49
(g70
g51
NtRp3655
(dp3656
g54
(dp3657
sg63
g3642
sg56
(lp3658
g49
(g50
g51
NtRp3659
(dp3660
g54
(dp3661
g62
I5
ssg63
g3655
sg56
(lp3662
g49
(g58
g51
NtRp3663
(dp3664
g54
(dp3665
g62
I4
ssg63
Nsg56
(lp3666
g49
(g65
g51
NtRp3667
(dp3668
g54
(dp3669
sg63
g3663
sg56
(lp3670
g49
(g70
g51
NtRp3671
(dp3672
g54
(dp3673
sg63
g3667
sg56
(lp3674
g49
(g50
g51
NtRp3675
(dp3676
g54
(dp3677
g62
I4
ssg63
g3671
sg56
(lp3678
g49
(g58
g51
NtRp3679
(dp3680
g54
(dp3681
g62
I3
ssg63
Nsg56
(lp3682
g49
(g65
g51
NtRp3683
(dp3684
g54
(dp3685
sg63
g3679
sg56
(lp3686
g49
(g70
g51
NtRp3687
(dp3688
g54
(dp3689
sg63
g3683
sg56
(lp3690
g49
(g50
g51
NtRp3691
(dp3692
g54
(dp3693
g62
I3
ssg63
g3687
sg56
(lp3694
cgluon.languages
lazyT_unpickle
p3695
(S't\x04\x00\x00\x00Home'
tRp3696
asbasbasbag49
(g65
g51
NtRp3697
(dp3698
g54
(dp3699
sg63
g3679
sg56
(lp3700
g49
(g70
g51
NtRp3701
(dp3702
g54
(dp3703
sg63
g3697
sg56
(lp3704
g49
(g50
g51
NtRp3705
(dp3706
g54
(dp3707
g62
I3
ssg63
g3701
sg56
(lp3708
g92
asbasbasbag49
(g65
g51
NtRp3709
(dp3710
g54
(dp3711
sg63
g3679
sg56
(lp3712
g49
(g70
g51
NtRp3713
(dp3714
g54
(dp3715
sg63
g3709
sg56
(lp3716
g49
(g50
g51
NtRp3717
(dp3718
g54
(dp3719
g62
I3
ssg63
g3713
sg56
(lp3720
S'/unioeste_code/default/index'
p3721
asbasbasbag49
(g65
g51
NtRp3722
(dp3723
g54
(dp3724
sg63
g3679
sg56
(lp3725
g49
(g70
g51
NtRp3726
(dp3727
g54
(dp3728
sg63
g3722
sg56
(lp3729
g49
(g50
g51
NtRp3730
(dp3731
g54
(dp3732
g62
I3
ssg63
g3726
sg56
(lp3733
g49
(g58
g51
NtRp3734
(dp3735
g54
(dp3736
g62
I2
ssg63
Nsg56
(lp3737
sbasbasbasbasbasbasbasbag49
(g65
g51
NtRp3738
(dp3739
g54
(dp3740
sg63
g3663
sg56
(lp3741
g49
(g70
g51
NtRp3742
(dp3743
g54
(dp3744
sg63
g3738
sg56
(lp3745
g49
(g50
g51
NtRp3746
(dp3747
g54
(dp3748
g62
I4
ssg63
g3742
sg56
(lp3749
g49
(g58
g51
NtRp3750
(dp3751
g54
(dp3752
g62
I3
ssg63
Nsg56
(lp3753
g49
(g65
g51
NtRp3754
(dp3755
g54
(dp3756
sg63
g3750
sg56
(lp3757
g49
(g70
g51
NtRp3758
(dp3759
g54
(dp3760
sg63
g3754
sg56
(lp3761
g49
(g50
g51
NtRp3762
(dp3763
g54
(dp3764
g62
I3
ssg63
g3758
sg56
(lp3765
g49
(cgluon.html
SPAN
p3766
g51
NtRp3767
(dp3768
g54
(dp3769
g74
S'color:yellow'
p3770
ssg63
g49
(cgluon.html
A
p3771
g51
NtRp3772
(dp3773
g54
(dp3774
S'_onclick'
p3775
S'javascript:void(0);return false;'
p3776
sS'_href'
p3777
S'#'
ssg63
g49
(cgluon.html
LI
p3778
g51
NtRp3779
(dp3780
g54
(dp3781
S'_class'
p3782
S'web2py-menu-expand'
p3783
ssg63
g49
(cgluon.html
UL
p3784
g51
NtRp3785
(dp3786
g54
(dp3787
S'mobile'
p3788
I00
sS'li_class'
p3789
g3783
sg3782
S'sf-menu'
p3790
sS'ul_class'
p3791
S'web2py-menu-vertical'
p3792
sS'li_active'
p3793
S'web2py-menu-active'
p3794
ssg63
Nsg56
(lp3795
g49
(g3778
g51
NtRp3796
(dp3797
g54
(dp3798
sg63
g3785
sg56
(lp3799
g49
(g3771
g51
NtRp3800
(dp3801
g54
(dp3802
g3777
g3721
ssg63
g3796
sg56
(lp3803
g3696
asbasbag3779
asbsg56
(lp3804
g3772
ag49
(g3784
g51
NtRp3805
(dp3806
g54
(dp3807
g3782
g3792
ssg63
g3779
sg56
(lp3808
g49
(g3778
g51
NtRp3809
(dp3810
g54
(dp3811
sg63
g3805
sg56
(lp3812
g49
(g3771
g51
NtRp3813
(dp3814
g54
(dp3815
g3777
S'/admin/default/site'
p3816
ssg63
g3809
sg56
(lp3817
g3695
(S's\x08\x00\x00\x00My Sites'
tRp3818
asbasbag49
(g3778
g51
NtRp3819
(dp3820
g54
(dp3821
g3782
g3783
ssg63
g3805
sg56
(lp3822
g49
(g3771
g51
NtRp3823
(dp3824
g54
(dp3825
g3777
S'/admin/default/design/unioeste_code'
p3826
ssg63
g3819
sg56
(lp3827
g3695
(S's\x08\x00\x00\x00This App'
tRp3828
asbag49
(g3784
g51
NtRp3829
(dp3830
g54
(dp3831
g3782
g3792
ssg63
g3819
sg56
(lp3832
g49
(g3778
g51
NtRp3833
(dp3834
g54
(dp3835
sg63
g3829
sg56
(lp3836
g49
(g3771
g51
NtRp3837
(dp3838
g54
(dp3839
g3777
S'/admin/default/edit/unioeste_code/controllers/default.py'
p3840
ssg63
g3833
sg56
(lp3841
g3695
(S't\x0b\x00\x00\x00Controlador'
tRp3842
asbasbag49
(g3778
g51
NtRp3843
(dp3844
g54
(dp3845
sg63
g3829
sg56
(lp3846
g49
(g3771
g51
NtRp3847
(dp3848
g54
(dp3849
g3777
S'/admin/default/edit/unioeste_code/views/default/showProblem.html'
p3850
ssg63
g3843
sg56
(lp3851
g3695
(S's\x0e\x00\x00\x00Visualiza\xc3\xa7\xc3\xa3o'
tRp3852
asbasbag49
(g3778
g51
NtRp3853
(dp3854
g54
(dp3855
sg63
g3829
sg56
(lp3856
g49
(g3771
g51
NtRp3857
(dp3858
g54
(dp3859
g3777
S'/admin/default/edit/unioeste_code/views/layout.html'
p3860
ssg63
g3853
sg56
(lp3861
g3695
(S't\x06\x00\x00\x00Layout'
tRp3862
asbasbag49
(g3778
g51
NtRp3863
(dp3864
g54
(dp3865
sg63
g3829
sg56
(lp3866
g49
(g3771
g51
NtRp3867
(dp3868
g54
(dp3869
g3777
S'/admin/default/edit/unioeste_code/static/css/web2py.css'
p3870
ssg63
g3863
sg56
(lp3871
g3695
(S't\n\x00\x00\x00Stylesheet'
tRp3872
asbasbag49
(g3778
g51
NtRp3873
(dp3874
g54
(dp3875
sg63
g3829
sg56
(lp3876
g49
(g3771
g51
NtRp3877
(dp3878
g54
(dp3879
g3777
S'/admin/default/edit/unioeste_code/models/db.py'
p3880
ssg63
g3873
sg56
(lp3881
g3695
(S's\t\x00\x00\x00Modelo BD'
tRp3882
asbasbag49
(g3778
g51
NtRp3883
(dp3884
g54
(dp3885
sg63
g3829
sg56
(lp3886
g49
(g3771
g51
NtRp3887
(dp3888
g54
(dp3889
g3777
S'/admin/default/edit/unioeste_code/models/menu.py'
p3890
ssg63
g3883
sg56
(lp3891
g3695
(S's\x0e\x00\x00\x00Modelo de Menu'
tRp3892
asbasbag49
(g3778
g51
NtRp3893
(dp3894
g54
(dp3895
sg63
g3829
sg56
(lp3896
g49
(g3771
g51
NtRp3897
(dp3898
g54
(dp3899
g3777
S'/unioeste_code/appadmin/index'
p3900
ssg63
g3893
sg56
(lp3901
g3695
(S's\x0e\x00\x00\x00Banco de dados'
tRp3902
asbasbag49
(g3778
g51
NtRp3903
(dp3904
g54
(dp3905
sg63
g3829
sg56
(lp3906
g49
(g3771
g51
NtRp3907
(dp3908
g54
(dp3909
g3777
S'/admin/default/errors/unioeste_code'
p3910
ssg63
g3903
sg56
(lp3911
g3695
(S't\x06\x00\x00\x00Errors'
tRp3912
asbasbag49
(g3778
g51
NtRp3913
(dp3914
g54
(dp3915
sg63
g3829
sg56
(lp3916
g49
(g3771
g51
NtRp3917
(dp3918
g54
(dp3919
g3777
S'/admin/default/about/unioeste_code'
p3920
ssg63
g3913
sg56
(lp3921
g3695
(S't\x05\x00\x00\x00About'
tRp3922
asbasbasbasbag49
(g3778
g51
NtRp3923
(dp3924
g54
(dp3925
g3782
g3783
ssg63
g3805
sg56
(lp3926
g49
(g3771
g51
NtRp3927
(dp3928
g54
(dp3929
g3777
S'http://www.web2py.com'
p3930
ssg63
g3923
sg56
(lp3931
S'web2py.com'
p3932
asbag49
(g3784
g51
NtRp3933
(dp3934
g54
(dp3935
g3782
g3792
ssg63
g3923
sg56
(lp3936
g49
(g3778
g51
NtRp3937
(dp3938
g54
(dp3939
sg63
g3933
sg56
(lp3940
g49
(g3771
g51
NtRp3941
(dp3942
g54
(dp3943
g3777
S'http://www.web2py.com/examples/default/download'
p3944
ssg63
g3937
sg56
(lp3945
g3695
(S't\x08\x00\x00\x00Download'
tRp3946
asbasbag49
(g3778
g51
NtRp3947
(dp3948
g54
(dp3949
sg63
g3933
sg56
(lp3950
g49
(g3771
g51
NtRp3951
(dp3952
g54
(dp3953
g3777
S'http://www.web2py.com/examples/default/support'
p3954
ssg63
g3947
sg56
(lp3955
g3695
(S't\x07\x00\x00\x00Support'
tRp3956
asbasbag49
(g3778
g51
NtRp3957
(dp3958
g54
(dp3959
sg63
g3933
sg56
(lp3960
g49
(g3771
g51
NtRp3961
(dp3962
g54
(dp3963
g3777
S'http://web2py.com/demo_admin'
p3964
ssg63
g3957
sg56
(lp3965
g3695
(S't\x04\x00\x00\x00Demo'
tRp3966
asbasbag49
(g3778
g51
NtRp3967
(dp3968
g54
(dp3969
sg63
g3933
sg56
(lp3970
g49
(g3771
g51
NtRp3971
(dp3972
g54
(dp3973
g3777
S'http://web2py.com/examples/default/examples'
p3974
ssg63
g3967
sg56
(lp3975
g3695
(S's\x0e\x00\x00\x00Quick Examples'
tRp3976
asbasbag49
(g3778
g51
NtRp3977
(dp3978
g54
(dp3979
sg63
g3933
sg56
(lp3980
g49
(g3771
g51
NtRp3981
(dp3982
g54
(dp3983
g3777
S'http://web2py.com/AlterEgo'
p3984
ssg63
g3977
sg56
(lp3985
g3695
(S't\x03\x00\x00\x00FAQ'
tRp3986
asbasbag49
(g3778
g51
NtRp3987
(dp3988
g54
(dp3989
sg63
g3933
sg56
(lp3990
g49
(g3771
g51
NtRp3991
(dp3992
g54
(dp3993
g3777
S'http://www.web2py.com/examples/default/videos/'
p3994
ssg63
g3987
sg56
(lp3995
g3695
(S't\x06\x00\x00\x00Videos'
tRp3996
asbasbag49
(g3778
g51
NtRp3997
(dp3998
g54
(dp3999
sg63
g3933
sg56
(lp4000
g49
(g3771
g51
NtRp4001
(dp4002
g54
(dp4003
g3777
S'http://web2py.com/appliances'
p4004
ssg63
g3997
sg56
(lp4005
g3695
(S's\x11\x00\x00\x00Free Applications'
tRp4006
asbasbag49
(g3778
g51
NtRp4007
(dp4008
g54
(dp4009
sg63
g3933
sg56
(lp4010
g49
(g3771
g51
NtRp4011
(dp4012
g54
(dp4013
g3777
S'http://web2py.com/plugins'
p4014
ssg63
g4007
sg56
(lp4015
g3695
(S't\x07\x00\x00\x00Plugins'
tRp4016
asbasbag49
(g3778
g51
NtRp4017
(dp4018
g54
(dp4019
sg63
g3933
sg56
(lp4020
g49
(g3771
g51
NtRp4021
(dp4022
g54
(dp4023
g3777
S'http://web2py.com/layouts'
p4024
ssg63
g4017
sg56
(lp4025
g3695
(S't\x07\x00\x00\x00Layouts'
tRp4026
asbasbag49
(g3778
g51
NtRp4027
(dp4028
g54
(dp4029
sg63
g3933
sg56
(lp4030
g49
(g3771
g51
NtRp4031
(dp4032
g54
(dp4033
g3777
S'http://web2pyslices.com/'
p4034
ssg63
g4027
sg56
(lp4035
g3695
(S't\x07\x00\x00\x00Recipes'
tRp4036
asbasbag49
(g3778
g51
NtRp4037
(dp4038
g54
(dp4039
sg63
g3933
sg56
(lp4040
g49
(g3771
g51
NtRp4041
(dp4042
g54
(dp4043
g3777
S'http://web2py.com/semantic'
p4044
ssg63
g4037
sg56
(lp4045
g3695
(S't\x08\x00\x00\x00Semantic'
tRp4046
asbasbasbasbag49
(g3778
g51
NtRp4047
(dp4048
g54
(dp4049
g3782
g3783
ssg63
g3805
sg56
(lp4050
g49
(g3771
g51
NtRp4051
(dp4052
g54
(dp4053
g3777
S'http://www.web2py.com/book'
p4054
ssg63
g4047
sg56
(lp4055
g3695
(S't\r\x00\x00\x00Documentation'
tRp4056
asbag49
(g3784
g51
NtRp4057
(dp4058
g54
(dp4059
g3782
g3792
ssg63
g4047
sg56
(lp4060
g49
(g3778
g51
NtRp4061
(dp4062
g54
(dp4063
sg63
g4057
sg56
(lp4064
g49
(g3771
g51
NtRp4065
(dp4066
g54
(dp4067
g3777
S'http://www.web2py.com/book/default/chapter/00'
p4068
ssg63
g4061
sg56
(lp4069
g3695
(S't\x07\x00\x00\x00Preface'
tRp4070
asbasbag49
(g3778
g51
NtRp4071
(dp4072
g54
(dp4073
sg63
g4057
sg56
(lp4074
g49
(g3771
g51
NtRp4075
(dp4076
g54
(dp4077
g3777
S'http://www.web2py.com/book/default/chapter/01'
p4078
ssg63
g4071
sg56
(lp4079
g3695
(S't\x0c\x00\x00\x00Introduction'
tRp4080
asbasbag49
(g3778
g51
NtRp4081
(dp4082
g54
(dp4083
sg63
g4057
sg56
(lp4084
g49
(g3771
g51
NtRp4085
(dp4086
g54
(dp4087
g3777
S'http://www.web2py.com/book/default/chapter/02'
p4088
ssg63
g4081
sg56
(lp4089
g3695
(S't\x06\x00\x00\x00Python'
tRp4090
asbasbag49
(g3778
g51
NtRp4091
(dp4092
g54
(dp4093
sg63
g4057
sg56
(lp4094
g49
(g3771
g51
NtRp4095
(dp4096
g54
(dp4097
g3777
S'http://www.web2py.com/book/default/chapter/03'
p4098
ssg63
g4091
sg56
(lp4099
g3695
(S't\x08\x00\x00\x00Overview'
tRp4100
asbasbag49
(g3778
g51
NtRp4101
(dp4102
g54
(dp4103
sg63
g4057
sg56
(lp4104
g49
(g3771
g51
NtRp4105
(dp4106
g54
(dp4107
g3777
S'http://www.web2py.com/book/default/chapter/04'
p4108
ssg63
g4101
sg56
(lp4109
g3695
(S's\x08\x00\x00\x00The Core'
tRp4110
asbasbag49
(g3778
g51
NtRp4111
(dp4112
g54
(dp4113
sg63
g4057
sg56
(lp4114
g49
(g3771
g51
NtRp4115
(dp4116
g54
(dp4117
g3777
S'http://www.web2py.com/book/default/chapter/05'
p4118
ssg63
g4111
sg56
(lp4119
g3695
(S's\t\x00\x00\x00The Views'
tRp4120
asbasbag49
(g3778
g51
NtRp4121
(dp4122
g54
(dp4123
sg63
g4057
sg56
(lp4124
g49
(g3771
g51
NtRp4125
(dp4126
g54
(dp4127
g3777
S'http://www.web2py.com/book/default/chapter/06'
p4128
ssg63
g4121
sg56
(lp4129
g3695
(S's\x0e\x00\x00\x00Banco de dados'
tRp4130
asbasbag49
(g3778
g51
NtRp4131
(dp4132
g54
(dp4133
sg63
g4057
sg56
(lp4134
g49
(g3771
g51
NtRp4135
(dp4136
g54
(dp4137
g3777
S'http://www.web2py.com/book/default/chapter/07'
p4138
ssg63
g4131
sg56
(lp4139
g3695
(S's\x14\x00\x00\x00Forms and Validators'
tRp4140
asbasbag49
(g3778
g51
NtRp4141
(dp4142
g54
(dp4143
sg63
g4057
sg56
(lp4144
g49
(g3771
g51
NtRp4145
(dp4146
g54
(dp4147
g3777
S'http://www.web2py.com/book/default/chapter/08'
p4148
ssg63
g4141
sg56
(lp4149
g3695
(S's\r\x00\x00\x00Email and SMS'
tRp4150
asbasbag49
(g3778
g51
NtRp4151
(dp4152
g54
(dp4153
sg63
g4057
sg56
(lp4154
g49
(g3771
g51
NtRp4155
(dp4156
g54
(dp4157
g3777
S'http://www.web2py.com/book/default/chapter/09'
p4158
ssg63
g4151
sg56
(lp4159
g3695
(S's\x0e\x00\x00\x00Access Control'
tRp4160
asbasbag49
(g3778
g51
NtRp4161
(dp4162
g54
(dp4163
sg63
g4057
sg56
(lp4164
g49
(g3771
g51
NtRp4165
(dp4166
g54
(dp4167
g3777
S'http://www.web2py.com/book/default/chapter/10'
p4168
ssg63
g4161
sg56
(lp4169
g3695
(S't\x08\x00\x00\x00Services'
tRp4170
asbasbag49
(g3778
g51
NtRp4171
(dp4172
g54
(dp4173
sg63
g4057
sg56
(lp4174
g49
(g3771
g51
NtRp4175
(dp4176
g54
(dp4177
g3777
S'http://www.web2py.com/book/default/chapter/11'
p4178
ssg63
g4171
sg56
(lp4179
g3695
(S's\x0c\x00\x00\x00Ajax Recipes'
tRp4180
asbasbag49
(g3778
g51
NtRp4181
(dp4182
g54
(dp4183
sg63
g4057
sg56
(lp4184
g49
(g3771
g51
NtRp4185
(dp4186
g54
(dp4187
g3777
S'http://www.web2py.com/book/default/chapter/12'
p4188
ssg63
g4181
sg56
(lp4189
g3695
(S's\x16\x00\x00\x00Components and Plugins'
tRp4190
asbasbag49
(g3778
g51
NtRp4191
(dp4192
g54
(dp4193
sg63
g4057
sg56
(lp4194
g49
(g3771
g51
NtRp4195
(dp4196
g54
(dp4197
g3777
S'http://www.web2py.com/book/default/chapter/13'
p4198
ssg63
g4191
sg56
(lp4199
g3695
(S's\x12\x00\x00\x00Deployment Recipes'
tRp4200
asbasbag49
(g3778
g51
NtRp4201
(dp4202
g54
(dp4203
sg63
g4057
sg56
(lp4204
g49
(g3771
g51
NtRp4205
(dp4206
g54
(dp4207
g3777
S'http://www.web2py.com/book/default/chapter/14'
p4208
ssg63
g4201
sg56
(lp4209
g3695
(S's\r\x00\x00\x00Other Recipes'
tRp4210
asbasbag49
(g3778
g51
NtRp4211
(dp4212
g54
(dp4213
sg63
g4057
sg56
(lp4214
g49
(g3771
g51
NtRp4215
(dp4216
g54
(dp4217
g3777
S'http://stores.lulu.com/web2py'
p4218
ssg63
g4211
sg56
(lp4219
g3695
(S's\r\x00\x00\x00Buy this book'
tRp4220
asbasbasbasbag49
(g3778
g51
NtRp4221
(dp4222
g54
(dp4223
g3782
g3783
ssg63
g3805
sg56
(lp4224
g49
(g3771
g51
NtRp4225
(dp4226
g54
(dp4227
g3775
g3776
sg3777
S'#'
ssg63
g4221
sg56
(lp4228
g3695
(S't\t\x00\x00\x00Community'
tRp4229
asbag49
(g3784
g51
NtRp4230
(dp4231
g54
(dp4232
g3782
g3792
ssg63
g4221
sg56
(lp4233
g49
(g3778
g51
NtRp4234
(dp4235
g54
(dp4236
sg63
g4230
sg56
(lp4237
g49
(g3771
g51
NtRp4238
(dp4239
g54
(dp4240
g3777
S'http://www.web2py.com/examples/default/usergroups'
p4241
ssg63
g4234
sg56
(lp4242
g3695
(S't\x06\x00\x00\x00Groups'
tRp4243
asbasbag49
(g3778
g51
NtRp4244
(dp4245
g54
(dp4246
sg63
g4230
sg56
(lp4247
g49
(g3771
g51
NtRp4248
(dp4249
g54
(dp4250
g3777
S'http://twitter.com/web2py'
p4251
ssg63
g4244
sg56
(lp4252
g3695
(S't\x07\x00\x00\x00Twitter'
tRp4253
asbasbag49
(g3778
g51
NtRp4254
(dp4255
g54
(dp4256
sg63
g4230
sg56
(lp4257
g49
(g3771
g51
NtRp4258
(dp4259
g54
(dp4260
g3777
S'http://webchat.freenode.net/?channels=web2py'
p4261
ssg63
g4254
sg56
(lp4262
g3695
(S's\t\x00\x00\x00Live Chat'
tRp4263
asbasbasbasbag49
(g3778
g51
NtRp4264
(dp4265
g54
(dp4266
g3782
g3783
ssg63
g3805
sg56
(lp4267
g49
(g3771
g51
NtRp4268
(dp4269
g54
(dp4270
g3775
g3776
sg3777
S'#'
ssg63
g4264
sg56
(lp4271
g3695
(S't\x07\x00\x00\x00Plugins'
tRp4272
asbag49
(g3784
g51
NtRp4273
(dp4274
g54
(dp4275
g3782
g3792
ssg63
g4264
sg56
(lp4276
g49
(g3778
g51
NtRp4277
(dp4278
g54
(dp4279
sg63
g4273
sg56
(lp4280
g49
(g3771
g51
NtRp4281
(dp4282
g54
(dp4283
g3777
S'http://web2py.com/examples/default/download'
p4284
ssg63
g4277
sg56
(lp4285
S'plugin_wiki'
p4286
asbasbag49
(g3778
g51
NtRp4287
(dp4288
g54
(dp4289
sg63
g4273
sg56
(lp4290
g49
(g3771
g51
NtRp4291
(dp4292
g54
(dp4293
g3777
g4014
ssg63
g4287
sg56
(lp4294
g3695
(S's\r\x00\x00\x00Other Plugins'
tRp4295
asbasbag49
(g3778
g51
NtRp4296
(dp4297
g54
(dp4298
sg63
g4273
sg56
(lp4299
g49
(g3771
g51
NtRp4300
(dp4301
g54
(dp4302
g3777
g4024
ssg63
g4296
sg56
(lp4303
g3695
(S's\x0e\x00\x00\x00Layout Plugins'
tRp4304
asbasbasbasbasbasbsg56
(lp4305
g3767
asbsg56
(lp4306
g3641
asbasbasbasbag49
(g65
g51
NtRp4307
(dp4308
g54
(dp4309
sg63
g3750
sg56
(lp4310
g49
(g70
g51
NtRp4311
(dp4312
g54
(dp4313
sg63
g4307
sg56
(lp4314
g49
(g50
g51
NtRp4315
(dp4316
g54
(dp4317
g62
I3
ssg63
g4311
sg56
(lp4318
g92
asbasbasbag49
(g65
g51
NtRp4319
(dp4320
g54
(dp4321
sg63
g3750
sg56
(lp4322
g49
(g70
g51
NtRp4323
(dp4324
g54
(dp4325
sg63
g4319
sg56
(lp4326
g49
(g50
g51
NtRp4327
(dp4328
g54
(dp4329
g62
I3
ssg63
g4323
sg56
(lp4330
S'None'
p4331
asbasbasbag49
(g65
g51
NtRp4332
(dp4333
g54
(dp4334
sg63
g3750
sg56
(lp4335
g49
(g70
g51
NtRp4336
(dp4337
g54
(dp4338
sg63
g4332
sg56
(lp4339
g49
(g50
g51
NtRp4340
(dp4341
g54
(dp4342
g62
I3
ssg63
g4336
sg56
(lp4343
g49
(g58
g51
NtRp4344
(dp4345
g54
(dp4346
g62
I2
ssg63
Nsg56
(lp4347
g49
(g65
g51
NtRp4348
(dp4349
g54
(dp4350
sg63
g4344
sg56
(lp4351
g49
(g70
g51
NtRp4352
(dp4353
g54
(dp4354
sg63
g4348
sg56
(lp4355
g49
(g50
g51
NtRp4356
(dp4357
g54
(dp4358
g62
I2
ssg63
g4352
sg56
(lp4359
g49
(g58
g51
NtRp4360
(dp4361
g54
(dp4362
g62
I1
ssg63
Nsg56
(lp4363
g49
(g65
g51
NtRp4364
(dp4365
g54
(dp4366
sg63
g4360
sg56
(lp4367
g49
(g70
g51
NtRp4368
(dp4369
g54
(dp4370
sg63
g4364
sg56
(lp4371
g49
(g50
g51
NtRp4372
(dp4373
g54
(dp4374
g62
I1
ssg63
g4368
sg56
(lp4375
g3818
asbasbasbag49
(g65
g51
NtRp4376
(dp4377
g54
(dp4378
sg63
g4360
sg56
(lp4379
g49
(g70
g51
NtRp4380
(dp4381
g54
(dp4382
sg63
g4376
sg56
(lp4383
g49
(g50
g51
NtRp4384
(dp4385
g54
(dp4386
g62
I1
ssg63
g4380
sg56
(lp4387
I00
asbasbasbag49
(g65
g51
NtRp4388
(dp4389
g54
(dp4390
sg63
g4360
sg56
(lp4391
g49
(g70
g51
NtRp4392
(dp4393
g54
(dp4394
sg63
g4388
sg56
(lp4395
g49
(g50
g51
NtRp4396
(dp4397
g54
(dp4398
g62
I1
ssg63
g4392
sg56
(lp4399
g3816
asbasbasbasbasbasbasbag49
(g65
g51
NtRp4400
(dp4401
g54
(dp4402
sg63
g4344
sg56
(lp4403
g49
(g70
g51
NtRp4404
(dp4405
g54
(dp4406
sg63
g4400
sg56
(lp4407
g49
(g50
g51
NtRp4408
(dp4409
g54
(dp4410
g62
I2
ssg63
g4404
sg56
(lp4411
g49
(g58
g51
NtRp4412
(dp4413
g54
(dp4414
g62
I1
ssg63
Nsg56
(lp4415
g49
(g65
g51
NtRp4416
(dp4417
g54
(dp4418
sg63
g4412
sg56
(lp4419
g49
(g70
g51
NtRp4420
(dp4421
g54
(dp4422
sg63
g4416
sg56
(lp4423
g49
(g50
g51
NtRp4424
(dp4425
g54
(dp4426
g62
I1
ssg63
g4420
sg56
(lp4427
g3828
asbasbasbag49
(g65
g51
NtRp4428
(dp4429
g54
(dp4430
sg63
g4412
sg56
(lp4431
g49
(g70
g51
NtRp4432
(dp4433
g54
(dp4434
sg63
g4428
sg56
(lp4435
g49
(g50
g51
NtRp4436
(dp4437
g54
(dp4438
g62
I1
ssg63
g4432
sg56
(lp4439
I00
asbasbasbag49
(g65
g51
NtRp4440
(dp4441
g54
(dp4442
sg63
g4412
sg56
(lp4443
g49
(g70
g51
NtRp4444
(dp4445
g54
(dp4446
sg63
g4440
sg56
(lp4447
g49
(g50
g51
NtRp4448
(dp4449
g54
(dp4450
g62
I1
ssg63
g4444
sg56
(lp4451
g3826
asbasbasbag49
(g65
g51
NtRp4452
(dp4453
g54
(dp4454
sg63
g4412
sg56
(lp4455
g49
(g70
g51
NtRp4456
(dp4457
g54
(dp4458
sg63
g4452
sg56
(lp4459
g49
(g50
g51
NtRp4460
(dp4461
g54
(dp4462
g62
I1
ssg63
g4456
sg56
(lp4463
(lp4464
(g3842
I00
g3840
tp4465
a(g3852
I00
g3850
tp4466
a(g3862
I00
g3860
tp4467
a(g3872
I00
g3870
tp4468
a(g3882
I00
g3880
tp4469
a(g3892
I00
g3890
tp4470
a(g3902
I00
g3900
tp4471
a(g3912
I00
g3910
tp4472
a(g3922
I00
g3920
tp4473
aasbasbasbasbasbasbasbag49
(g65
g51
NtRp4474
(dp4475
g54
(dp4476
sg63
g4344
sg56
(lp4477
g49
(g70
g51
NtRp4478
(dp4479
g54
(dp4480
sg63
g4474
sg56
(lp4481
g49
(g50
g51
NtRp4482
(dp4483
g54
(dp4484
g62
I2
ssg63
g4478
sg56
(lp4485
g49
(g58
g51
NtRp4486
(dp4487
g54
(dp4488
g62
I1
ssg63
Nsg56
(lp4489
g49
(g65
g51
NtRp4490
(dp4491
g54
(dp4492
sg63
g4486
sg56
(lp4493
g49
(g70
g51
NtRp4494
(dp4495
g54
(dp4496
sg63
g4490
sg56
(lp4497
g49
(g50
g51
NtRp4498
(dp4499
g54
(dp4500
g62
I1
ssg63
g4494
sg56
(lp4501
g3932
asbasbasbag49
(g65
g51
NtRp4502
(dp4503
g54
(dp4504
sg63
g4486
sg56
(lp4505
g49
(g70
g51
NtRp4506
(dp4507
g54
(dp4508
sg63
g4502
sg56
(lp4509
g49
(g50
g51
NtRp4510
(dp4511
g54
(dp4512
g62
I1
ssg63
g4506
sg56
(lp4513
I00
asbasbasbag49
(g65
g51
NtRp4514
(dp4515
g54
(dp4516
sg63
g4486
sg56
(lp4517
g49
(g70
g51
NtRp4518
(dp4519
g54
(dp4520
sg63
g4514
sg56
(lp4521
g49
(g50
g51
NtRp4522
(dp4523
g54
(dp4524
g62
I1
ssg63
g4518
sg56
(lp4525
g3930
asbasbasbag49
(g65
g51
NtRp4526
(dp4527
g54
(dp4528
sg63
g4486
sg56
(lp4529
g49
(g70
g51
NtRp4530
(dp4531
g54
(dp4532
sg63
g4526
sg56
(lp4533
g49
(g50
g51
NtRp4534
(dp4535
g54
(dp4536
g62
I1
ssg63
g4530
sg56
(lp4537
(lp4538
(g3946
I00
g3944
tp4539
a(g3956
I00
g3954
tp4540
a(g3966
I00
g3964
tp4541
a(g3976
I00
g3974
tp4542
a(g3986
I00
g3984
tp4543
a(g3996
I00
g3994
tp4544
a(g4006
I00
g4004
tp4545
a(g4016
I00
g4014
tp4546
a(g4026
I00
g4024
tp4547
a(g4036
I00
g4034
tp4548
a(g4046
I00
g4044
tp4549
aasbasbasbasbasbasbasbag49
(g65
g51
NtRp4550
(dp4551
g54
(dp4552
sg63
g4344
sg56
(lp4553
g49
(g70
g51
NtRp4554
(dp4555
g54
(dp4556
sg63
g4550
sg56
(lp4557
g49
(g50
g51
NtRp4558
(dp4559
g54
(dp4560
g62
I2
ssg63
g4554
sg56
(lp4561
g49
(g58
g51
NtRp4562
(dp4563
g54
(dp4564
g62
I1
ssg63
Nsg56
(lp4565
g49
(g65
g51
NtRp4566
(dp4567
g54
(dp4568
sg63
g4562
sg56
(lp4569
g49
(g70
g51
NtRp4570
(dp4571
g54
(dp4572
sg63
g4566
sg56
(lp4573
g49
(g50
g51
NtRp4574
(dp4575
g54
(dp4576
g62
I1
ssg63
g4570
sg56
(lp4577
g4056
asbasbasbag49
(g65
g51
NtRp4578
(dp4579
g54
(dp4580
sg63
g4562
sg56
(lp4581
g49
(g70
g51
NtRp4582
(dp4583
g54
(dp4584
sg63
g4578
sg56
(lp4585
g49
(g50
g51
NtRp4586
(dp4587
g54
(dp4588
g62
I1
ssg63
g4582
sg56
(lp4589
I00
asbasbasbag49
(g65
g51
NtRp4590
(dp4591
g54
(dp4592
sg63
g4562
sg56
(lp4593
g49
(g70
g51
NtRp4594
(dp4595
g54
(dp4596
sg63
g4590
sg56
(lp4597
g49
(g50
g51
NtRp4598
(dp4599
g54
(dp4600
g62
I1
ssg63
g4594
sg56
(lp4601
g4054
asbasbasbag49
(g65
g51
NtRp4602
(dp4603
g54
(dp4604
sg63
g4562
sg56
(lp4605
g49
(g70
g51
NtRp4606
(dp4607
g54
(dp4608
sg63
g4602
sg56
(lp4609
g49
(g50
g51
NtRp4610
(dp4611
g54
(dp4612
g62
I1
ssg63
g4606
sg56
(lp4613
(lp4614
(g4070
I00
g4068
tp4615
a(g4080
I00
g4078
tp4616
a(g4090
I00
g4088
tp4617
a(g4100
I00
g4098
tp4618
a(g4110
I00
g4108
tp4619
a(g4120
I00
g4118
tp4620
a(g4130
I00
g4128
tp4621
a(g4140
I00
g4138
tp4622
a(g4150
I00
g4148
tp4623
a(g4160
I00
g4158
tp4624
a(g4170
I00
g4168
tp4625
a(g4180
I00
g4178
tp4626
a(g4190
I00
g4188
tp4627
a(g4200
I00
g4198
tp4628
a(g4210
I00
g4208
tp4629
a(g4220
I00
g4218
tp4630
aasbasbasbasbasbasbasbag49
(g65
g51
NtRp4631
(dp4632
g54
(dp4633
sg63
g4344
sg56
(lp4634
g49
(g70
g51
NtRp4635
(dp4636
g54
(dp4637
sg63
g4631
sg56
(lp4638
g49
(g50
g51
NtRp4639
(dp4640
g54
(dp4641
g62
I2
ssg63
g4635
sg56
(lp4642
g49
(g58
g51
NtRp4643
(dp4644
g54
(dp4645
g62
I1
ssg63
Nsg56
(lp4646
g49
(g65
g51
NtRp4647
(dp4648
g54
(dp4649
sg63
g4643
sg56
(lp4650
g49
(g70
g51
NtRp4651
(dp4652
g54
(dp4653
sg63
g4647
sg56
(lp4654
g49
(g50
g51
NtRp4655
(dp4656
g54
(dp4657
g62
I1
ssg63
g4651
sg56
(lp4658
g4229
asbasbasbag49
(g65
g51
NtRp4659
(dp4660
g54
(dp4661
sg63
g4643
sg56
(lp4662
g49
(g70
g51
NtRp4663
(dp4664
g54
(dp4665
sg63
g4659
sg56
(lp4666
g49
(g50
g51
NtRp4667
(dp4668
g54
(dp4669
g62
I1
ssg63
g4663
sg56
(lp4670
I00
asbasbasbag49
(g65
g51
NtRp4671
(dp4672
g54
(dp4673
sg63
g4643
sg56
(lp4674
g49
(g70
g51
NtRp4675
(dp4676
g54
(dp4677
sg63
g4671
sg56
(lp4678
g49
(g50
g51
NtRp4679
(dp4680
g54
(dp4681
g62
I1
ssg63
g4675
sg56
(lp4682
Nasbasbasbag49
(g65
g51
NtRp4683
(dp4684
g54
(dp4685
sg63
g4643
sg56
(lp4686
g49
(g70
g51
NtRp4687
(dp4688
g54
(dp4689
sg63
g4683
sg56
(lp4690
g49
(g50
g51
NtRp4691
(dp4692
g54
(dp4693
g62
I1
ssg63
g4687
sg56
(lp4694
(lp4695
(g4243
I00
g4241
tp4696
a(g4253
I00
g4251
tp4697
a(g4263
I00
g4261
tp4698
aasbasbasbasbasbasbasbag49
(g65
g51
NtRp4699
(dp4700
g54
(dp4701
sg63
g4344
sg56
(lp4702
g49
(g70
g51
NtRp4703
(dp4704
g54
(dp4705
sg63
g4699
sg56
(lp4706
g49
(g50
g51
NtRp4707
(dp4708
g54
(dp4709
g62
I2
ssg63
g4703
sg56
(lp4710
g49
(g58
g51
NtRp4711
(dp4712
g54
(dp4713
g62
I1
ssg63
Nsg56
(lp4714
g49
(g65
g51
NtRp4715
(dp4716
g54
(dp4717
sg63
g4711
sg56
(lp4718
g49
(g70
g51
NtRp4719
(dp4720
g54
(dp4721
sg63
g4715
sg56
(lp4722
g49
(g50
g51
NtRp4723
(dp4724
g54
(dp4725
g62
I1
ssg63
g4719
sg56
(lp4726
g4272
asbasbasbag49
(g65
g51
NtRp4727
(dp4728
g54
(dp4729
sg63
g4711
sg56
(lp4730
g49
(g70
g51
NtRp4731
(dp4732
g54
(dp4733
sg63
g4727
sg56
(lp4734
g49
(g50
g51
NtRp4735
(dp4736
g54
(dp4737
g62
I1
ssg63
g4731
sg56
(lp4738
I00
asbasbasbag49
(g65
g51
NtRp4739
(dp4740
g54
(dp4741
sg63
g4711
sg56
(lp4742
g49
(g70
g51
NtRp4743
(dp4744
g54
(dp4745
sg63
g4739
sg56
(lp4746
g49
(g50
g51
NtRp4747
(dp4748
g54
(dp4749
g62
I1
ssg63
g4743
sg56
(lp4750
Nasbasbasbag49
(g65
g51
NtRp4751
(dp4752
g54
(dp4753
sg63
g4711
sg56
(lp4754
g49
(g70
g51
NtRp4755
(dp4756
g54
(dp4757
sg63
g4751
sg56
(lp4758
g49
(g50
g51
NtRp4759
(dp4760
g54
(dp4761
g62
I1
ssg63
g4755
sg56
(lp4762
(lp4763
(g4286
I00
g4284
tp4764
a(g4295
I00
g4014
tp4765
a(g4304
I00
g4024
tp4766
aasbasbasbasbasbasbasbasbasbasbasbasbasbasbasbasbasbasbasbag49
(g65
g51
NtRp4767
(dp4768
g54
(dp4769
sg63
g3067
sg56
(lp4770
g49
(g70
g51
NtRp4771
(dp4772
g54
(dp4773
g74
g75
ssg63
g4767
sg56
(lp4774
S'meta'
p4775
asbag49
(g70
g51
NtRp4776
(dp4777
g54
(dp4778
g81
g82
ssg63
g4767
sg56
(lp4779
S':'
asbag49
(g70
g51
NtRp4780
(dp4781
g54
(dp4782
sg63
g4767
sg56
(lp4783
g49
(g50
g51
NtRp4784
(dp4785
g54
(dp4786
g62
I5
ssg63
g4780
sg56
(lp4787
g49
(g58
g51
NtRp4788
(dp4789
g54
(dp4790
g62
I4
ssg63
Nsg56
(lp4791
g49
(g65
g51
NtRp4792
(dp4793
g54
(dp4794
sg63
g4788
sg56
(lp4795
g49
(g70
g51
NtRp4796
(dp4797
g54
(dp4798
g74
g75
ssg63
g4792
sg56
(lp4799
S'author'
p4800
asbag49
(g70
g51
NtRp4801
(dp4802
g54
(dp4803
g81
g82
ssg63
g4792
sg56
(lp4804
S':'
asbag49
(g70
g51
NtRp4805
(dp4806
g54
(dp4807
sg63
g4792
sg56
(lp4808
g49
(g50
g51
NtRp4809
(dp4810
g54
(dp4811
g62
I4
ssg63
g4805
sg56
(lp4812
S'Your Name <you@example.com>'
p4813
asbasbasbag49
(g65
g51
NtRp4814
(dp4815
g54
(dp4816
sg63
g4788
sg56
(lp4817
g49
(g70
g51
NtRp4818
(dp4819
g54
(dp4820
g74
g75
ssg63
g4814
sg56
(lp4821
S'copyright'
p4822
asbag49
(g70
g51
NtRp4823
(dp4824
g54
(dp4825
g81
g82
ssg63
g4814
sg56
(lp4826
S':'
asbag49
(g70
g51
NtRp4827
(dp4828
g54
(dp4829
sg63
g4814
sg56
(lp4830
g49
(g50
g51
NtRp4831
(dp4832
g54
(dp4833
g62
I4
ssg63
g4827
sg56
(lp4834
S'Copyright 2011'
p4835
asbasbasbag49
(g65
g51
NtRp4836
(dp4837
g54
(dp4838
sg63
g4788
sg56
(lp4839
g49
(g70
g51
NtRp4840
(dp4841
g54
(dp4842
g74
g75
ssg63
g4836
sg56
(lp4843
S'description'
p4844
asbag49
(g70
g51
NtRp4845
(dp4846
g54
(dp4847
g81
g82
ssg63
g4836
sg56
(lp4848
S':'
asbag49
(g70
g51
NtRp4849
(dp4850
g54
(dp4851
sg63
g4836
sg56
(lp4852
g49
(g50
g51
NtRp4853
(dp4854
g54
(dp4855
g62
I4
ssg63
g4849
sg56
(lp4856
S'a cool new app'
p4857
asbasbasbag49
(g65
g51
NtRp4858
(dp4859
g54
(dp4860
sg63
g4788
sg56
(lp4861
g49
(g70
g51
NtRp4862
(dp4863
g54
(dp4864
g74
g75
ssg63
g4858
sg56
(lp4865
S'generator'
p4866
asbag49
(g70
g51
NtRp4867
(dp4868
g54
(dp4869
g81
g82
ssg63
g4858
sg56
(lp4870
S':'
asbag49
(g70
g51
NtRp4871
(dp4872
g54
(dp4873
sg63
g4858
sg56
(lp4874
g49
(g50
g51
NtRp4875
(dp4876
g54
(dp4877
g62
I4
ssg63
g4871
sg56
(lp4878
S'Web2py Web Framework'
p4879
asbasbasbag49
(g65
g51
NtRp4880
(dp4881
g54
(dp4882
sg63
g4788
sg56
(lp4883
g49
(g70
g51
NtRp4884
(dp4885
g54
(dp4886
g74
g75
ssg63
g4880
sg56
(lp4887
S'keywords'
p4888
asbag49
(g70
g51
NtRp4889
(dp4890
g54
(dp4891
g81
g82
ssg63
g4880
sg56
(lp4892
S':'
asbag49
(g70
g51
NtRp4893
(dp4894
g54
(dp4895
sg63
g4880
sg56
(lp4896
g49
(g50
g51
NtRp4897
(dp4898
g54
(dp4899
g62
I4
ssg63
g4893
sg56
(lp4900
S'web2py, python, framework'
p4901
asbasbasbasbasbasbasbag49
(g65
g51
NtRp4902
(dp4903
g54
(dp4904
sg63
g3067
sg56
(lp4905
g49
(g70
g51
NtRp4906
(dp4907
g54
(dp4908
g74
g75
ssg63
g4902
sg56
(lp4909
S'postprocessing'
p4910
asbag49
(g70
g51
NtRp4911
(dp4912
g54
(dp4913
g81
g82
ssg63
g4902
sg56
(lp4914
S':'
asbag49
(g70
g51
NtRp4915
(dp4916
g54
(dp4917
sg63
g4902
sg56
(lp4918
g49
(g50
g51
NtRp4919
(dp4920
g54
(dp4921
g62
I5
ssg63
g4915
sg56
(lp4922
g49
(g58
g51
NtRp4923
(dp4924
g54
(dp4925
g62
I4
ssg63
Nsg56
(lp4926
sbasbasbasbag49
(g65
g51
NtRp4927
(dp4928
g54
(dp4929
sg63
g3067
sg56
(lp4930
g49
(g70
g51
NtRp4931
(dp4932
g54
(dp4933
g74
g75
ssg63
g4927
sg56
(lp4934
S'session_file'
p4935
asbag49
(g70
g51
NtRp4936
(dp4937
g54
(dp4938
g81
g82
ssg63
g4927
sg56
(lp4939
S':'
asbag49
(g70
g51
NtRp4940
(dp4941
g54
(dp4942
sg63
g4927
sg56
(lp4943
g49
(g50
g51
NtRp4944
(dp4945
g54
(dp4946
g62
I5
ssg63
g4940
sg56
(lp4947
S"<open file 'C:\\web2py\\applications\\unioeste_code\\sessions\\127.0.0.1-5989d03c-a209-4e60-9ca5-abb9a6550c68', mode 'rb+' at 0x06903728>"
p4948
asbasbasbag49
(g65
g51
NtRp4949
(dp4950
g54
(dp4951
sg63
g3067
sg56
(lp4952
g49
(g70
g51
NtRp4953
(dp4954
g54
(dp4955
g74
g75
ssg63
g4949
sg56
(lp4956
S'session_filename'
p4957
asbag49
(g70
g51
NtRp4958
(dp4959
g54
(dp4960
g81
g82
ssg63
g4949
sg56
(lp4961
S':'
asbag49
(g70
g51
NtRp4962
(dp4963
g54
(dp4964
sg63
g4949
sg56
(lp4965
g49
(g50
g51
NtRp4966
(dp4967
g54
(dp4968
g62
I5
ssg63
g4962
sg56
(lp4969
S'C:\\web2py\\applications\\unioeste_code\\sessions\\127.0.0.1-5989d03c-a209-4e60-9ca5-abb9a6550c68'
p4970
asbasbasbag49
(g65
g51
NtRp4971
(dp4972
g54
(dp4973
sg63
g3067
sg56
(lp4974
g49
(g70
g51
NtRp4975
(dp4976
g54
(dp4977
g74
g75
ssg63
g4971
sg56
(lp4978
S'session_id'
p4979
asbag49
(g70
g51
NtRp4980
(dp4981
g54
(dp4982
g81
g82
ssg63
g4971
sg56
(lp4983
S':'
asbag49
(g70
g51
NtRp4984
(dp4985
g54
(dp4986
sg63
g4971
sg56
(lp4987
g49
(g50
g51
NtRp4988
(dp4989
g54
(dp4990
g62
I5
ssg63
g4984
sg56
(lp4991
S'127.0.0.1-5989d03c-a209-4e60-9ca5-abb9a6550c68'
p4992
asbasbasbag49
(g65
g51
NtRp4993
(dp4994
g54
(dp4995
sg63
g3067
sg56
(lp4996
g49
(g70
g51
NtRp4997
(dp4998
g54
(dp4999
g74
g75
ssg63
g4993
sg56
(lp5000
S'session_id_name'
p5001
asbag49
(g70
g51
NtRp5002
(dp5003
g54
(dp5004
g81
g82
ssg63
g4993
sg56
(lp5005
S':'
asbag49
(g70
g51
NtRp5006
(dp5007
g54
(dp5008
sg63
g4993
sg56
(lp5009
g49
(g50
g51
NtRp5010
(dp5011
g54
(dp5012
g62
I5
ssg63
g5006
sg56
(lp5013
g3124
asbasbasbag49
(g65
g51
NtRp5014
(dp5015
g54
(dp5016
sg63
g3067
sg56
(lp5017
g49
(g70
g51
NtRp5018
(dp5019
g54
(dp5020
g74
g75
ssg63
g5014
sg56
(lp5021
S'session_locked'
p5022
asbag49
(g70
g51
NtRp5023
(dp5024
g54
(dp5025
g81
g82
ssg63
g5014
sg56
(lp5026
S':'
asbag49
(g70
g51
NtRp5027
(dp5028
g54
(dp5029
sg63
g5014
sg56
(lp5030
g49
(g50
g51
NtRp5031
(dp5032
g54
(dp5033
g62
I5
ssg63
g5027
sg56
(lp5034
g1642
asbasbasbag49
(g65
g51
NtRp5035
(dp5036
g54
(dp5037
sg63
g3067
sg56
(lp5038
g49
(g70
g51
NtRp5039
(dp5040
g54
(dp5041
g74
g75
ssg63
g5035
sg56
(lp5042
S'session_new'
p5043
asbag49
(g70
g51
NtRp5044
(dp5045
g54
(dp5046
g81
g82
ssg63
g5035
sg56
(lp5047
S':'
asbag49
(g70
g51
NtRp5048
(dp5049
g54
(dp5050
sg63
g5035
sg56
(lp5051
g49
(g50
g51
NtRp5052
(dp5053
g54
(dp5054
g62
I5
ssg63
g5048
sg56
(lp5055
g92
asbasbasbag49
(g65
g51
NtRp5056
(dp5057
g54
(dp5058
sg63
g3067
sg56
(lp5059
g49
(g70
g51
NtRp5060
(dp5061
g54
(dp5062
g74
g75
ssg63
g5056
sg56
(lp5063
S'status'
p5064
asbag49
(g70
g51
NtRp5065
(dp5066
g54
(dp5067
g81
g82
ssg63
g5056
sg56
(lp5068
S':'
asbag49
(g70
g51
NtRp5069
(dp5070
g54
(dp5071
sg63
g5056
sg56
(lp5072
g49
(g50
g51
NtRp5073
(dp5074
g54
(dp5075
g62
I5
ssg63
g5069
sg56
(lp5076
S'200'
p5077
asbasbasbag49
(g65
g51
NtRp5078
(dp5079
g54
(dp5080
sg63
g3067
sg56
(lp5081
g49
(g70
g51
NtRp5082
(dp5083
g54
(dp5084
g74
g75
ssg63
g5078
sg56
(lp5085
S'subtitle'
p5086
asbag49
(g70
g51
NtRp5087
(dp5088
g54
(dp5089
g81
g82
ssg63
g5078
sg56
(lp5090
S':'
asbag49
(g70
g51
NtRp5091
(dp5092
g54
(dp5093
sg63
g5078
sg56
(lp5094
g49
(g50
g51
NtRp5095
(dp5096
g54
(dp5097
g62
I5
ssg63
g5091
sg56
(lp5098
g3695
(S's\x0f\x00\x00\x00Personalize-me!'
tRp5099
asbasbasbag49
(g65
g51
NtRp5100
(dp5101
g54
(dp5102
sg63
g3067
sg56
(lp5103
g49
(g70
g51
NtRp5104
(dp5105
g54
(dp5106
g74
g75
ssg63
g5100
sg56
(lp5107
S'title'
p5108
asbag49
(g70
g51
NtRp5109
(dp5110
g54
(dp5111
g81
g82
ssg63
g5100
sg56
(lp5112
S':'
asbag49
(g70
g51
NtRp5113
(dp5114
g54
(dp5115
sg63
g5100
sg56
(lp5116
g49
(g50
g51
NtRp5117
(dp5118
g54
(dp5119
g62
I5
ssg63
g5113
sg56
(lp5120
S'Unioeste Code'
p5121
asbasbasbag49
(g65
g51
NtRp5122
(dp5123
g54
(dp5124
sg63
g3067
sg56
(lp5125
g49
(g70
g51
NtRp5126
(dp5127
g54
(dp5128
g74
g75
ssg63
g5122
sg56
(lp5129
g2327
asbag49
(g70
g51
NtRp5130
(dp5131
g54
(dp5132
g81
g82
ssg63
g5122
sg56
(lp5133
S':'
asbag49
(g70
g51
NtRp5134
(dp5135
g54
(dp5136
sg63
g5122
sg56
(lp5137
g49
(g50
g51
NtRp5138
(dp5139
g54
(dp5140
g62
I5
ssg63
g5134
sg56
(lp5141
g2340
asbasbasbag49
(g65
g51
NtRp5142
(dp5143
g54
(dp5144
sg63
g3067
sg56
(lp5145
g49
(g70
g51
NtRp5146
(dp5147
g54
(dp5148
g74
g75
ssg63
g5142
sg56
(lp5149
S'view'
p5150
asbag49
(g70
g51
NtRp5151
(dp5152
g54
(dp5153
g81
g82
ssg63
g5142
sg56
(lp5154
S':'
asbag49
(g70
g51
NtRp5155
(dp5156
g54
(dp5157
sg63
g5142
sg56
(lp5158
g49
(g50
g51
NtRp5159
(dp5160
g54
(dp5161
g62
I5
ssg63
g5155
sg56
(lp5162
S'default/showProblem.html'
p5163
asbasbasbasbasbsS'locals'
p5164
(dp5165
S'Service'
p5166
S"<class 'gluon.tools.Service'>"
p5167
sS'OBJECT'
p5168
S"<class 'gluon.html.OBJECT'>"
p5169
sS'SQLDB'
p5170
S"<class 'gluon.dal.DAL'>"
p5171
sg3049
S"<Storage {'_formkey[code/create]': '37779622-6e5... {'version': '20.0.1132.57', 'name': 'Chrome'}}}>"
p5172
sS'LINK'
p5173
S"<class 'gluon.html.LINK'>"
p5174
sS'BR'
p5175
S"<class 'gluon.html.BR'>"
p5176
sS'local_import'
p5177
S'<function <lambda> at 0x069289F0>'
p5178
sS'OPTGROUP'
p5179
S"<class 'gluon.html.OPTGROUP'>"
p5180
sS'PRE'
p5181
S"<class 'gluon.html.PRE'>"
p5182
sS'IS_INT_IN_RANGE'
p5183
S"<class 'gluon.validators.IS_INT_IN_RANGE'>"
p5184
sS'left_sidebar_enabled'
p5185
g92
sS'IS_LOWER'
p5186
S"<class 'gluon.validators.IS_LOWER'>"
p5187
sS'IS_STRONG'
p5188
S"<class 'gluon.validators.IS_STRONG'>"
p5189
sS'Recaptcha'
p5190
S"<class 'gluon.tools.Recaptcha'>"
p5191
sS'cache'
p5192
S'<gluon.cache.Cache object at 0x068B0470>'
p5193
sS'IS_IN_DB'
p5194
S"<class 'gluon.validators.IS_IN_DB'>"
p5195
sS'TAG'
p5196
S'<gluon.html.__TAG__ object at 0x026CBE30>'
p5197
sS'SQLField'
p5198
S"<class 'gluon.dal.Field'>"
p5199
sS'BODY'
p5200
S"<class 'gluon.html.BODY'>"
p5201
sS'IS_DATE_IN_RANGE'
p5202
S"<class 'gluon.validators.IS_DATE_IN_RANGE'>"
p5203
sS'TH'
p5204
S"<class 'gluon.html.TH'>"
p5205
sS'URL'
p5206
S'<function URL at 0x0272D8F0>'
p5207
sS'__file__'
p5208
S"r'C:\\web2py\\applications\\unioeste_code\\views\\default/showProblem.html'"
p5209
sS'db'
p5210
S"<DAL {'comment': <Table {'body': <gluon.dal.Fiel...object at 0x06A7B870>, '_singular': 'Problem'}>}>"
p5211
sS'auth'
p5212
S'<gluon.tools.Auth object at 0x06A5FBB0>'
p5213
sS'P'
S"<class 'gluon.html.P'>"
p5214
sS'TFOOT'
p5215
S"<class 'gluon.html.TFOOT'>"
p5216
sS'XHTML'
p5217
S"<class 'gluon.html.XHTML'>"
p5218
sS'ON'
p5219
g1642
sS'OL'
p5220
S"<class 'gluon.html.OL'>"
p5221
sS'TEXTAREA'
p5222
S"<class 'gluon.html.TEXTAREA'>"
p5223
sS'MENU'
p5224
S"<class 'gluon.html.MENU'>"
p5225
sS'LOAD'
p5226
S'<function LOAD at 0x029A54B0>'
p5227
sS'CODE'
p5228
S"<class 'gluon.html.CODE'>"
p5229
sS'HTTP'
p5230
S"<class 'gluon.http.HTTP'>"
p5231
sS'HR'
p5232
S"<class 'gluon.html.HR'>"
p5233
sS'IS_DATETIME'
p5234
S"<class 'gluon.validators.IS_DATETIME'>"
p5235
sS'HEAD'
p5236
S"<class 'gluon.html.HEAD'>"
p5237
sS'LABEL'
p5238
S"<class 'gluon.html.LABEL'>"
p5239
sS'CLEANUP'
p5240
S"<class 'gluon.validators.CLEANUP'>"
p5241
sS'SELECT'
p5242
S"<class 'gluon.html.SELECT'>"
p5243
sS'CENTER'
p5244
S"<class 'gluon.html.CENTER'>"
p5245
sS'prettydate'
p5246
S'<function prettydate at 0x031EEEF0>'
p5247
sS'Crud'
p5248
S"<class 'gluon.tools.Crud'>"
p5249
sS'Auth'
p5250
S"<class 'gluon.tools.Auth'>"
p5251
sS'__builtins__'
p5252
S"{'ArithmeticError': <type 'exceptions.ArithmeticError'>, 'AssertionError': <type 'exceptions.AssertionError'>, 'AttributeError': <type 'exceptions.AttributeError'>, 'BaseException': <type 'exceptions.BaseException'>, 'DeprecationWarning': <type 'exceptions.DeprecationWarning'>, 'EOFError': <type 'exceptions.EOFError'>, 'Ellipsis': Ellipsis, 'EnvironmentError': <type 'exceptions.EnvironmentError'>, 'Exception': <type 'exceptions.Exception'>, 'False': False, ...}"
p5253
sS'HTML'
p5254
S"<class 'gluon.html.HTML'>"
p5255
sS'SQLFORM'
p5256
S"<class 'gluon.sqlhtml.SQLFORM'>"
p5257
sS'EM'
p5258
S"<class 'gluon.html.EM'>"
p5259
sS'redirect'
p5260
S'<function redirect at 0x023E8F70>'
p5261
sS'FIELDSET'
p5262
S"<class 'gluon.html.FIELDSET'>"
p5263
sS'IS_EQUAL_TO'
p5264
S"<class 'gluon.validators.IS_EQUAL_TO'>"
p5265
sS'embed64'
p5266
S'<function embed64 at 0x02731430>'
p5267
sS'IS_LIST_OF'
p5268
S"<class 'gluon.validators.IS_LIST_OF'>"
p5269
sS'__name__'
p5270
S"'__restricted__'"
p5271
sS'EMBED'
p5272
S"<class 'gluon.html.EMBED'>"
p5273
sS'_'
S'<function _ at 0x069280F0>'
p5274
sS'FORM'
p5275
S"<class 'gluon.html.FORM'>"
p5276
sS'H2'
p5277
S"<class 'gluon.html.H2'>"
p5278
sS'H3'
p5279
S"<class 'gluon.html.H3'>"
p5280
sS'BUTTON'
p5281
S"<class 'gluon.html.BUTTON'>"
p5282
sS'H1'
p5283
S"<class 'gluon.html.H1'>"
p5284
sS'H6'
p5285
S"<class 'gluon.html.H6'>"
p5286
sS'H4'
p5287
S"<class 'gluon.html.H4'>"
p5288
sS'H5'
p5289
S"<class 'gluon.html.H5'>"
p5290
sS'UL'
p5291
S"<class 'gluon.html.UL'>"
p5292
sS'IS_UPPER'
p5293
S"<class 'gluon.validators.IS_UPPER'>"
p5294
sS'xmlescape'
p5295
S'<function xmlescape at 0x0272D870>'
p5296
sS'IS_TIME'
p5297
S"<class 'gluon.validators.IS_TIME'>"
p5298
sS'OPTION'
p5299
S"<class 'gluon.html.OPTION'>"
p5300
sS'TITLE'
p5301
S"<class 'gluon.html.TITLE'>"
p5302
sS'CRYPT'
p5303
S"<class 'gluon.validators.CRYPT'>"
p5304
sS'IS_EMPTY_OR'
p5305
S"<class 'gluon.validators.IS_EMPTY_OR'>"
p5306
sS'MARKMIN'
p5307
S"<class 'gluon.html.MARKMIN'>"
p5308
sS'INPUT'
p5309
S"<class 'gluon.html.INPUT'>"
p5310
sS'COL'
p5311
S"<class 'gluon.html.COL'>"
p5312
sS'SCRIPT'
p5313
S"<class 'gluon.html.SCRIPT'>"
p5314
sS'geocode'
p5315
S'<function geocode at 0x031EE830>'
p5316
sS'is_mobile'
p5317
g92
sS'TABLE'
p5318
S"<class 'gluon.html.TABLE'>"
p5319
sS'IS_IPV4'
p5320
S"<class 'gluon.validators.IS_IPV4'>"
p5321
sS'IS_LENGTH'
p5322
S"<class 'gluon.validators.IS_LENGTH'>"
p5323
sS'XML'
p5324
S"<class 'gluon.html.XML'>"
p5325
sS'B'
S"<class 'gluon.html.B'>"
p5326
sS'form'
p5327
S'<gluon.sqlhtml.SQLFORM object at 0x069C8590>'
p5328
sS'SQLTABLE'
p5329
S"<class 'gluon.sqlhtml.SQLTABLE'>"
p5330
sS'IS_MATCH'
p5331
S"<class 'gluon.validators.IS_MATCH'>"
p5332
sS'IS_ALPHANUMERIC'
p5333
S"<class 'gluon.validators.IS_ALPHANUMERIC'>"
p5334
sS'SPAN'
p5335
S"<class 'gluon.html.SPAN'>"
p5336
sS'IS_SLUG'
p5337
S"<class 'gluon.validators.IS_SLUG'>"
p5338
sS'BEAUTIFY'
p5339
S"<class 'gluon.html.BEAUTIFY'>"
p5340
sS'META'
p5341
S"<class 'gluon.html.META'>"
p5342
sS'problem'
p5343
S"<Row {'body': 'Imprimir na tela os N primeiros n...lete_record': <function <lambda> at 0x06906A70>}>"
p5344
sS'fetch'
p5345
S'<function fetch at 0x031E86B0>'
p5346
sS'IS_DATE'
p5347
S"<class 'gluon.validators.IS_DATE'>"
p5348
sS'IS_EMAIL'
p5349
S"<class 'gluon.validators.IS_EMAIL'>"
p5350
sS'IS_NOT_EMPTY'
p5351
S"<class 'gluon.validators.IS_NOT_EMPTY'>"
p5352
sg48
S"<Storage {'body': <cStringIO.StringO object at 0..._vars': <Storage {}>, 'post_vars': <Storage {}>}>"
p5353
sS'TBODY'
p5354
S"<class 'gluon.html.TBODY'>"
p5355
sS'CAT'
p5356
S"<class 'gluon.html.CAT'>"
p5357
sS'Field'
p5358
S"<class 'gluon.dal.Field'>"
p5359
sS'middle_columns'
p5360
S"'sixteen'"
p5361
sS'Mail'
p5362
S"<class 'gluon.tools.Mail'>"
p5363
sS'DIV'
p5364
S"<class 'gluon.html.DIV'>"
p5365
sS'LEGEND'
p5366
S"<class 'gluon.html.LEGEND'>"
p5367
sS'codes'
p5368
S'<gluon.dal.Rows object at 0x069C83D0>'
p5369
sS'IMG'
p5370
S"<class 'gluon.html.IMG'>"
p5371
sS'COLGROUP'
p5372
S"<class 'gluon.html.COLGROUP'>"
p5373
sS'DAL'
p5374
S"<class 'gluon.dal.DAL'>"
p5375
sS'TT'
p5376
S"<class 'gluon.html.TT'>"
p5377
sS'TR'
p5378
S"<class 'gluon.html.TR'>"
p5379
sS'LI'
p5380
S"<class 'gluon.html.LI'>"
p5381
sS'right_sidebar_enabled'
p5382
g92
sS'IFRAME'
p5383
S"<class 'gluon.html.IFRAME'>"
p5384
sS'TD'
p5385
S"<class 'gluon.html.TD'>"
p5386
sS'PluginManager'
p5387
S"<class 'gluon.tools.PluginManager'>"
p5388
sS'IS_URL'
p5389
S"<class 'gluon.validators.IS_URL'>"
p5390
sS'A'
S"<class 'gluon.html.A'>"
p5391
sS'STYLE'
p5392
S"<class 'gluon.html.STYLE'>"
p5393
sS'IS_DATETIME_IN_RANGE'
p5394
S"<class 'gluon.validators.IS_DATETIME_IN_RANGE'>"
p5395
sS'IS_IMAGE'
p5396
S"<class 'gluon.validators.IS_IMAGE'>"
p5397
sS'I'
S"<class 'gluon.html.I'>"
p5398
sS'crud'
p5399
S'<gluon.tools.Crud object at 0x069F79F0>'
p5400
sS'IS_NOT_IN_DB'
p5401
S"<class 'gluon.validators.IS_NOT_IN_DB'>"
p5402
sg3062
S"<Storage {'body': <cStringIO.StringO object at 0...0x06928AB0>, 'view': 'default/showProblem.html'}>"
p5403
sS'THEAD'
p5404
S"<class 'gluon.html.THEAD'>"
p5405
sS'IS_NULL_OR'
p5406
S"<class 'gluon.validators.IS_EMPTY_OR'>"
p5407
sS'IS_FLOAT_IN_RANGE'
p5408
S"<class 'gluon.validators.IS_FLOAT_IN_RANGE'>"
p5409
sS'IS_EXPR'
p5410
S"<class 'gluon.validators.IS_EXPR'>"
p5411
sS'T'
S'<gluon.languages.translator object at 0x06A5FFB0>'
p5412
sS'IS_IN_SET'
p5413
S"<class 'gluon.validators.IS_IN_SET'>"
p5414
sS'IS_UPLOAD_FILENAME'
p5415
S"<class 'gluon.validators.IS_UPLOAD_FILENAME'>"
p5416
sS'IS_DECIMAL_IN_RANGE'
p5417
S"<class 'gluon.validators.IS_DECIMAL_IN_RANGE'>"
p5418
sssS'traceback'
p5419
S'Traceback (most recent call last):\n  File "gluon/restricted.py", line 205, in restricted\n  File "C:\\web2py\\applications\\unioeste_code\\views\\default/showProblem.html", line 90, in <module>\nValueError: too many values to unpack\n'
p5420
s.