(dp1
S'output'
p2
S"<type 'exceptions.SyntaxError'> invalid syntax (default/index.html, line 19)"
p3
sS'layer'
p4
S'C:\\web2py\\applications\\unioeste_code\\views\\default/index.html'
p5
sS'code'
p6
S'response.write(\'<!DOCTYPE html>\\r\\n<html lang="en">\\r\\n  <head>\\r\\n    <meta charset="utf-8">\\r\\n    <title>\', escape=False)\nresponse.write(response.title or request.application)\nresponse.write(\'</title>\\r\\n    <meta name="viewport" content="width=device-width, initial-scale=1.0">\\r\\n    <meta name="description" content="">\\r\\n    <meta name="author" content="">\\r\\n\\r\\n    <!-- Le HTML5 shim, for IE6-8 support of HTML5 elements -->\\r\\n    <!--[if lt IE 9]>\\r\\n      <script src="http://html5shim.googlecode.com/svn/trunk/html5.js"></script>\\r\\n    <![endif]-->\\r\\n\\r\\n    <!-- Le fav and touch icons -->\\r\\n    <link rel="shortcut icon" href="../assets/ico/favicon.ico">\\r\\n    <link rel="apple-touch-icon-precomposed" sizes="144x144" href="../assets/ico/apple-touch-icon-144-precomposed.png">\\r\\n    <link rel="apple-touch-icon-precomposed" sizes="114x114" href="../assets/ico/apple-touch-icon-114-precomposed.png">\\r\\n    <link rel="apple-touch-icon-precomposed" sizes="72x72" href="../assets/ico/apple-touch-icon-72-precomposed.png">\\r\\n    <link rel="apple-touch-icon-precomposed" href="../assets/ico/apple-touch-icon-57-precomposed.png">\\r\\n\\r\\n    <!-- include stylesheets -->\\r\\n\\r\\n    <link href="/unioeste_code/static/css/bootstrap.css" rel="stylesheet">\\r\\n    <link href="/unioeste_code/static/css/bootstrap-responsive.css" rel="stylesheet">\\r\\n    <script src="/unioeste_code/static/js/jquery.js" type="text/javascript"></script>\\r\\n    <script src="/unioeste_code/static/js/bootstrap.js" type="text/javascript"></script>\\r\\n\\r\\n    <!-- Distancia do topo pro layout-->\\r\\n      <style>\\r\\n      body {\\r\\n        padding-top: 60px; /* 60px to make the container go all the way to the bottom of the topbar */\\r\\n      }\\r\\n      </style>\\r\\n\\r\\n      <!-- Le CSS customizado, font e tals-->\\r\\n      <link href="/unioeste_code/static/css/font_style.css" rel="stylesheet">\\r\\n\\r\\n  </head>\\r\\n\\r\\n  <body>\\r\\n\\r\\n    <div class="navbar navbar-fixed-top">\\r\\n      <div class="navbar-inner">\\r\\n        <div class="container">\\r\\n          <a class="btn btn-navbar" data-toggle="collapse" data-target=".nav-collapse">\\r\\n            <span class="icon-bar"></span>\\r\\n            <span class="icon-bar"></span>\\r\\n            <span class="icon-bar"></span>\\r\\n          </a>\\r\\n          <a class="brand" href="\', escape=False)\nresponse.write(URL(\'index\'))\nresponse.write(\'">\', escape=False)\nresponse.write(response.title or request.application)\nresponse.write(\'</a>\\r\\n          <div class="nav-collapse">\\r\\n          <ul class="nav pull-right">\\r\\n            <li class="divider-vertical"></li>\\r\\n            <li class="uc_topbar"><a href="#">Sobre</a></li>\\r\\n            <li class="divider-vertical"></li>\\r\\n            <li class="uc_topbar"><a href="#">Login!</a></li>\\r\\n            <li class="divider-vertical"></li>\\r\\n\\r\\n<!-- Drop Down Login\\r\\n            <li class="dropdown">\\r\\n              <a href="#" class="dropdown-toggle" data-toggle="dropdown">Dropdown <b class="caret"></b></a>\\r\\n              <ul class="dropdown-menu">\\r\\n                <li><a href="#">Action</a></li>\\r\\n                <li><a href="#">Another action</a></li>\\r\\n                <li><a href="#">Something else here</a></li>\\r\\n                <li class="divider"></li>\\r\\n                <li><a href="#">Separated link</a></li>\\r\\n              </ul>\\r\\n            </li>\\r\\n          </ul>\\r\\n-->\\r\\n          </div><!--/.nav-collapse -->\\r\\n        </div>\\r\\n      </div>\\r\\n    </div>\\r\\n\\r\\n<!-- Corpo principal da p\\xc3\\xa1gina! -->\\r\\n\\r\\n    <div class="container">\\r\\n      \', escape=False)\nresponse.write(\'\\r\\n      \', escape=False)\nresponse.write(\'\\n\\n\\n\', escape=False)\nresponse.write(H1(T("Current Problems")))\nresponse.write(\'\\n\\n\', escape=False)\nfor problem in problems:\n    response.write(\'\\n\', escape=False)\n    user = db(db.auth_user.id==problem.created_by).select().first()\n    response.write(\'\\n\\n<ul>\\n\', escape=False)\n    response.write(A(problem.title, _style="font-weight:bold;",_href=URL("Problem", args=problem.id)))\n    response.write(\'\\n\', escape=False)\n    response.write(B(" (" + user.first_name + " " + user.last_name + ") ")\n    response.write(\'\\n\', escape=False)\n    response.write(SPAN(prettydate(problem.created_on)))\n    response.write(\'\\n</ul>\\n\', escape=False)\n    pass\nresponse.write(\'\\n\\n\\n\\n\\n\', escape=False)\nresponse.write(\'\\r\\n      \', escape=False)\nresponse.write(\'\\r\\n\\r\\n    </div> <!-- /container -->\\r\\n\\r\\n  </body>\\r\\n</html>\\r\\n\\r\\n\', escape=False)'
p7
sS'snapshot'
p8
(dp9
S'exception'
p10
(dp11
S'__getslice__'
p12
S"<method-wrapper '__getslice__' of exceptions.SyntaxError object at 0x072573F0>"
p13
sS'text'
p14
S'"    response.write(\'\\\\n\', escape=False)\\n"'
p15
sS'__str__'
p16
S"<method-wrapper '__str__' of exceptions.SyntaxError object at 0x072573F0>"
p17
sS'__reduce__'
p18
S'<built-in method __reduce__ of exceptions.SyntaxError object at 0x072573F0>'
p19
sS'__dict__'
p20
S'{}'
p21
sS'__init__'
p22
S"<method-wrapper '__init__' of exceptions.SyntaxError object at 0x072573F0>"
p23
sS'__setattr__'
p24
S"<method-wrapper '__setattr__' of exceptions.SyntaxError object at 0x072573F0>"
p25
sS'__reduce_ex__'
p26
S'<built-in method __reduce_ex__ of exceptions.SyntaxError object at 0x072573F0>'
p27
sS'__new__'
p28
S'<built-in method __new__ of type object at 0x1E1CDBD0>'
p29
sS'__class__'
p30
S"<type 'exceptions.SyntaxError'>"
p31
sS'filename'
p32
S"r'C:\\web2py\\applications\\unioeste_code\\views\\default/index.html'"
p33
sS'lineno'
p34
S'19'
p35
sS'msg'
p36
S"'invalid syntax'"
p37
sS'__doc__'
p38
S"'Invalid syntax.'"
p39
sS'__getitem__'
p40
S"<method-wrapper '__getitem__' of exceptions.SyntaxError object at 0x072573F0>"
p41
sS'__setstate__'
p42
S'<built-in method __setstate__ of exceptions.SyntaxError object at 0x072573F0>'
p43
sS'__getattribute__'
p44
S"<method-wrapper '__getattribute__' of exceptions.SyntaxError object at 0x072573F0>"
p45
sS'print_file_and_line'
p46
S'None'
p47
sS'args'
p48
S'(\'invalid syntax\', (r\'C:\\web2py\\applications\\unioeste_code\\views\\default/index.html\', 19, 12, "    response.write(\'\\\\n\', escape=False)\\n"))'
p49
sS'offset'
p50
S'12'
p51
sS'__delattr__'
p52
S"<method-wrapper '__delattr__' of exceptions.SyntaxError object at 0x072573F0>"
p53
sS'__repr__'
p54
S"<method-wrapper '__repr__' of exceptions.SyntaxError object at 0x072573F0>"
p55
sS'__hash__'
p56
S"<method-wrapper '__hash__' of exceptions.SyntaxError object at 0x072573F0>"
p57
ssS'evalue'
p58
S'invalid syntax (default/index.html, line 19)'
p59
sS'request'
p60
ccopy_reg
_reconstructor
p61
(cgluon.html
BEAUTIFY
p62
c__builtin__
object
p63
NtRp64
(dp65
S'attributes'
p66
(dp67
sS'components'
p68
(lp69
g61
(cgluon.html
TABLE
p70
g63
NtRp71
(dp72
g66
(dp73
S'level'
p74
I5
ssS'parent'
p75
Nsg68
(lp76
g61
(cgluon.html
TR
p77
g63
NtRp78
(dp79
g66
(dp80
sg75
g71
sg68
(lp81
g61
(cgluon.html
TD
p82
g63
NtRp83
(dp84
g66
(dp85
S'_style'
p86
S'font-weight:bold;vertical-align:top'
p87
ssg75
g78
sg68
(lp88
S'ajax'
p89
asbag61
(g82
g63
NtRp90
(dp91
g66
(dp92
S'_valign'
p93
S'top'
p94
ssg75
g78
sg68
(lp95
S':'
asbag61
(g82
g63
NtRp96
(dp97
g66
(dp98
sg75
g78
sg68
(lp99
g61
(g62
g63
NtRp100
(dp101
g66
(dp102
g74
I5
ssg75
g96
sg68
(lp103
S'False'
p104
asbasbasbag61
(g77
g63
NtRp105
(dp106
g66
(dp107
sg75
g71
sg68
(lp108
g61
(g82
g63
NtRp109
(dp110
g66
(dp111
g86
g87
ssg75
g105
sg68
(lp112
S'application'
p113
asbag61
(g82
g63
NtRp114
(dp115
g66
(dp116
g93
g94
ssg75
g105
sg68
(lp117
S':'
asbag61
(g82
g63
NtRp118
(dp119
g66
(dp120
sg75
g105
sg68
(lp121
g61
(g62
g63
NtRp122
(dp123
g66
(dp124
g74
I5
ssg75
g118
sg68
(lp125
S'unioeste_code'
p126
asbasbasbag61
(g77
g63
NtRp127
(dp128
g66
(dp129
sg75
g71
sg68
(lp130
g61
(g82
g63
NtRp131
(dp132
g66
(dp133
g86
g87
ssg75
g127
sg68
(lp134
g48
asbag61
(g82
g63
NtRp135
(dp136
g66
(dp137
g93
g94
ssg75
g127
sg68
(lp138
S':'
asbag61
(g82
g63
NtRp139
(dp140
g66
(dp141
sg75
g127
sg68
(lp142
g61
(g62
g63
NtRp143
(dp144
g66
(dp145
g74
I5
ssg75
g139
sg68
(lp146
g61
(g70
g63
NtRp147
(dp148
g66
(dp149
g74
I4
ssg75
Nsg68
(lp150
sbasbasbasbag61
(g77
g63
NtRp151
(dp152
g66
(dp153
sg75
g71
sg68
(lp154
g61
(g82
g63
NtRp155
(dp156
g66
(dp157
g86
g87
ssg75
g151
sg68
(lp158
S'body'
p159
asbag61
(g82
g63
NtRp160
(dp161
g66
(dp162
g93
g94
ssg75
g151
sg68
(lp163
S':'
asbag61
(g82
g63
NtRp164
(dp165
g66
(dp166
sg75
g151
sg68
(lp167
g61
(g62
g63
NtRp168
(dp169
g66
(dp170
g74
I5
ssg75
g164
sg68
(lp171
S'<cStringIO.StringO object at 0x06F9EAE0>'
p172
asbasbasbag61
(g77
g63
NtRp173
(dp174
g66
(dp175
sg75
g71
sg68
(lp176
g61
(g82
g63
NtRp177
(dp178
g66
(dp179
g86
g87
ssg75
g173
sg68
(lp180
S'client'
p181
asbag61
(g82
g63
NtRp182
(dp183
g66
(dp184
g93
g94
ssg75
g173
sg68
(lp185
S':'
asbag61
(g82
g63
NtRp186
(dp187
g66
(dp188
sg75
g173
sg68
(lp189
g61
(g62
g63
NtRp190
(dp191
g66
(dp192
g74
I5
ssg75
g186
sg68
(lp193
S'127.0.0.1'
p194
asbasbasbag61
(g77
g63
NtRp195
(dp196
g66
(dp197
sg75
g71
sg68
(lp198
g61
(g82
g63
NtRp199
(dp200
g66
(dp201
g86
g87
ssg75
g195
sg68
(lp202
S'controller'
p203
asbag61
(g82
g63
NtRp204
(dp205
g66
(dp206
g93
g94
ssg75
g195
sg68
(lp207
S':'
asbag61
(g82
g63
NtRp208
(dp209
g66
(dp210
sg75
g195
sg68
(lp211
g61
(g62
g63
NtRp212
(dp213
g66
(dp214
g74
I5
ssg75
g208
sg68
(lp215
S'default'
p216
asbasbasbag61
(g77
g63
NtRp217
(dp218
g66
(dp219
sg75
g71
sg68
(lp220
g61
(g82
g63
NtRp221
(dp222
g66
(dp223
g86
g87
ssg75
g217
sg68
(lp224
S'cookies'
p225
asbag61
(g82
g63
NtRp226
(dp227
g66
(dp228
g93
g94
ssg75
g217
sg68
(lp229
S':'
asbag61
(g82
g63
NtRp230
(dp231
g66
(dp232
sg75
g217
sg68
(lp233
g61
(g62
g63
NtRp234
(dp235
g66
(dp236
g74
I5
ssg75
g230
sg68
(lp237
g61
(g70
g63
NtRp238
(dp239
g66
(dp240
g74
I4
ssg75
Nsg68
(lp241
g61
(g77
g63
NtRp242
(dp243
g66
(dp244
sg75
g238
sg68
(lp245
g61
(g82
g63
NtRp246
(dp247
g66
(dp248
g86
g87
ssg75
g242
sg68
(lp249
S'session_id_admin'
p250
asbag61
(g82
g63
NtRp251
(dp252
g66
(dp253
g93
g94
ssg75
g242
sg68
(lp254
S':'
asbag61
(g82
g63
NtRp255
(dp256
g66
(dp257
sg75
g242
sg68
(lp258
g61
(g62
g63
NtRp259
(dp260
g66
(dp261
g74
I4
ssg75
g255
sg68
(lp262
g61
(g70
g63
NtRp263
(dp264
g66
(dp265
g74
I3
ssg75
Nsg68
(lp266
g61
(g77
g63
NtRp267
(dp268
g66
(dp269
sg75
g263
sg68
(lp270
g61
(g82
g63
NtRp271
(dp272
g66
(dp273
g86
g87
ssg75
g267
sg68
(lp274
S'comment'
p275
asbag61
(g82
g63
NtRp276
(dp277
g66
(dp278
g93
g94
ssg75
g267
sg68
(lp279
S':'
asbag61
(g82
g63
NtRp280
(dp281
g66
(dp282
sg75
g267
sg68
(lp283
g61
(g62
g63
NtRp284
(dp285
g66
(dp286
g74
I3
ssg75
g280
sg68
(lp287
S''
asbasbasbag61
(g77
g63
NtRp288
(dp289
g66
(dp290
sg75
g263
sg68
(lp291
g61
(g82
g63
NtRp292
(dp293
g66
(dp294
g86
g87
ssg75
g288
sg68
(lp295
S'domain'
p296
asbag61
(g82
g63
NtRp297
(dp298
g66
(dp299
g93
g94
ssg75
g288
sg68
(lp300
S':'
asbag61
(g82
g63
NtRp301
(dp302
g66
(dp303
sg75
g288
sg68
(lp304
g61
(g62
g63
NtRp305
(dp306
g66
(dp307
g74
I3
ssg75
g301
sg68
(lp308
S''
asbasbasbag61
(g77
g63
NtRp309
(dp310
g66
(dp311
sg75
g263
sg68
(lp312
g61
(g82
g63
NtRp313
(dp314
g66
(dp315
g86
g87
ssg75
g309
sg68
(lp316
S'expires'
p317
asbag61
(g82
g63
NtRp318
(dp319
g66
(dp320
g93
g94
ssg75
g309
sg68
(lp321
S':'
asbag61
(g82
g63
NtRp322
(dp323
g66
(dp324
sg75
g309
sg68
(lp325
g61
(g62
g63
NtRp326
(dp327
g66
(dp328
g74
I3
ssg75
g322
sg68
(lp329
S''
asbasbasbag61
(g77
g63
NtRp330
(dp331
g66
(dp332
sg75
g263
sg68
(lp333
g61
(g82
g63
NtRp334
(dp335
g66
(dp336
g86
g87
ssg75
g330
sg68
(lp337
S'max-age'
p338
asbag61
(g82
g63
NtRp339
(dp340
g66
(dp341
g93
g94
ssg75
g330
sg68
(lp342
S':'
asbag61
(g82
g63
NtRp343
(dp344
g66
(dp345
sg75
g330
sg68
(lp346
g61
(g62
g63
NtRp347
(dp348
g66
(dp349
g74
I3
ssg75
g343
sg68
(lp350
S''
asbasbasbag61
(g77
g63
NtRp351
(dp352
g66
(dp353
sg75
g263
sg68
(lp354
g61
(g82
g63
NtRp355
(dp356
g66
(dp357
g86
g87
ssg75
g351
sg68
(lp358
S'path'
p359
asbag61
(g82
g63
NtRp360
(dp361
g66
(dp362
g93
g94
ssg75
g351
sg68
(lp363
S':'
asbag61
(g82
g63
NtRp364
(dp365
g66
(dp366
sg75
g351
sg68
(lp367
g61
(g62
g63
NtRp368
(dp369
g66
(dp370
g74
I3
ssg75
g364
sg68
(lp371
S''
asbasbasbag61
(g77
g63
NtRp372
(dp373
g66
(dp374
sg75
g263
sg68
(lp375
g61
(g82
g63
NtRp376
(dp377
g66
(dp378
g86
g87
ssg75
g372
sg68
(lp379
S'secure'
p380
asbag61
(g82
g63
NtRp381
(dp382
g66
(dp383
g93
g94
ssg75
g372
sg68
(lp384
S':'
asbag61
(g82
g63
NtRp385
(dp386
g66
(dp387
sg75
g372
sg68
(lp388
g61
(g62
g63
NtRp389
(dp390
g66
(dp391
g74
I3
ssg75
g385
sg68
(lp392
S''
asbasbasbag61
(g77
g63
NtRp393
(dp394
g66
(dp395
sg75
g263
sg68
(lp396
g61
(g82
g63
NtRp397
(dp398
g66
(dp399
g86
g87
ssg75
g393
sg68
(lp400
S'version'
p401
asbag61
(g82
g63
NtRp402
(dp403
g66
(dp404
g93
g94
ssg75
g393
sg68
(lp405
S':'
asbag61
(g82
g63
NtRp406
(dp407
g66
(dp408
sg75
g393
sg68
(lp409
g61
(g62
g63
NtRp410
(dp411
g66
(dp412
g74
I3
ssg75
g406
sg68
(lp413
S''
asbasbasbasbasbasbasbag61
(g77
g63
NtRp414
(dp415
g66
(dp416
sg75
g238
sg68
(lp417
g61
(g82
g63
NtRp418
(dp419
g66
(dp420
g86
g87
ssg75
g414
sg68
(lp421
S'session_id_unioeste_code'
p422
asbag61
(g82
g63
NtRp423
(dp424
g66
(dp425
g93
g94
ssg75
g414
sg68
(lp426
S':'
asbag61
(g82
g63
NtRp427
(dp428
g66
(dp429
sg75
g414
sg68
(lp430
g61
(g62
g63
NtRp431
(dp432
g66
(dp433
g74
I4
ssg75
g427
sg68
(lp434
g61
(g70
g63
NtRp435
(dp436
g66
(dp437
g74
I3
ssg75
Nsg68
(lp438
g61
(g77
g63
NtRp439
(dp440
g66
(dp441
sg75
g435
sg68
(lp442
g61
(g82
g63
NtRp443
(dp444
g66
(dp445
g86
g87
ssg75
g439
sg68
(lp446
g275
asbag61
(g82
g63
NtRp447
(dp448
g66
(dp449
g93
g94
ssg75
g439
sg68
(lp450
S':'
asbag61
(g82
g63
NtRp451
(dp452
g66
(dp453
sg75
g439
sg68
(lp454
g61
(g62
g63
NtRp455
(dp456
g66
(dp457
g74
I3
ssg75
g451
sg68
(lp458
S''
asbasbasbag61
(g77
g63
NtRp459
(dp460
g66
(dp461
sg75
g435
sg68
(lp462
g61
(g82
g63
NtRp463
(dp464
g66
(dp465
g86
g87
ssg75
g459
sg68
(lp466
g296
asbag61
(g82
g63
NtRp467
(dp468
g66
(dp469
g93
g94
ssg75
g459
sg68
(lp470
S':'
asbag61
(g82
g63
NtRp471
(dp472
g66
(dp473
sg75
g459
sg68
(lp474
g61
(g62
g63
NtRp475
(dp476
g66
(dp477
g74
I3
ssg75
g471
sg68
(lp478
S''
asbasbasbag61
(g77
g63
NtRp479
(dp480
g66
(dp481
sg75
g435
sg68
(lp482
g61
(g82
g63
NtRp483
(dp484
g66
(dp485
g86
g87
ssg75
g479
sg68
(lp486
g317
asbag61
(g82
g63
NtRp487
(dp488
g66
(dp489
g93
g94
ssg75
g479
sg68
(lp490
S':'
asbag61
(g82
g63
NtRp491
(dp492
g66
(dp493
sg75
g479
sg68
(lp494
g61
(g62
g63
NtRp495
(dp496
g66
(dp497
g74
I3
ssg75
g491
sg68
(lp498
S''
asbasbasbag61
(g77
g63
NtRp499
(dp500
g66
(dp501
sg75
g435
sg68
(lp502
g61
(g82
g63
NtRp503
(dp504
g66
(dp505
g86
g87
ssg75
g499
sg68
(lp506
g338
asbag61
(g82
g63
NtRp507
(dp508
g66
(dp509
g93
g94
ssg75
g499
sg68
(lp510
S':'
asbag61
(g82
g63
NtRp511
(dp512
g66
(dp513
sg75
g499
sg68
(lp514
g61
(g62
g63
NtRp515
(dp516
g66
(dp517
g74
I3
ssg75
g511
sg68
(lp518
S''
asbasbasbag61
(g77
g63
NtRp519
(dp520
g66
(dp521
sg75
g435
sg68
(lp522
g61
(g82
g63
NtRp523
(dp524
g66
(dp525
g86
g87
ssg75
g519
sg68
(lp526
g359
asbag61
(g82
g63
NtRp527
(dp528
g66
(dp529
g93
g94
ssg75
g519
sg68
(lp530
S':'
asbag61
(g82
g63
NtRp531
(dp532
g66
(dp533
sg75
g519
sg68
(lp534
g61
(g62
g63
NtRp535
(dp536
g66
(dp537
g74
I3
ssg75
g531
sg68
(lp538
S''
asbasbasbag61
(g77
g63
NtRp539
(dp540
g66
(dp541
sg75
g435
sg68
(lp542
g61
(g82
g63
NtRp543
(dp544
g66
(dp545
g86
g87
ssg75
g539
sg68
(lp546
g380
asbag61
(g82
g63
NtRp547
(dp548
g66
(dp549
g93
g94
ssg75
g539
sg68
(lp550
S':'
asbag61
(g82
g63
NtRp551
(dp552
g66
(dp553
sg75
g539
sg68
(lp554
g61
(g62
g63
NtRp555
(dp556
g66
(dp557
g74
I3
ssg75
g551
sg68
(lp558
S''
asbasbasbag61
(g77
g63
NtRp559
(dp560
g66
(dp561
sg75
g435
sg68
(lp562
g61
(g82
g63
NtRp563
(dp564
g66
(dp565
g86
g87
ssg75
g559
sg68
(lp566
g401
asbag61
(g82
g63
NtRp567
(dp568
g66
(dp569
g93
g94
ssg75
g559
sg68
(lp570
S':'
asbag61
(g82
g63
NtRp571
(dp572
g66
(dp573
sg75
g559
sg68
(lp574
g61
(g62
g63
NtRp575
(dp576
g66
(dp577
g74
I3
ssg75
g571
sg68
(lp578
S''
asbasbasbasbasbasbasbag61
(g77
g63
NtRp579
(dp580
g66
(dp581
sg75
g238
sg68
(lp582
g61
(g82
g63
NtRp583
(dp584
g66
(dp585
g86
g87
ssg75
g579
sg68
(lp586
S'session_id_welcome'
p587
asbag61
(g82
g63
NtRp588
(dp589
g66
(dp590
g93
g94
ssg75
g579
sg68
(lp591
S':'
asbag61
(g82
g63
NtRp592
(dp593
g66
(dp594
sg75
g579
sg68
(lp595
g61
(g62
g63
NtRp596
(dp597
g66
(dp598
g74
I4
ssg75
g592
sg68
(lp599
g61
(g70
g63
NtRp600
(dp601
g66
(dp602
g74
I3
ssg75
Nsg68
(lp603
g61
(g77
g63
NtRp604
(dp605
g66
(dp606
sg75
g600
sg68
(lp607
g61
(g82
g63
NtRp608
(dp609
g66
(dp610
g86
g87
ssg75
g604
sg68
(lp611
g275
asbag61
(g82
g63
NtRp612
(dp613
g66
(dp614
g93
g94
ssg75
g604
sg68
(lp615
S':'
asbag61
(g82
g63
NtRp616
(dp617
g66
(dp618
sg75
g604
sg68
(lp619
g61
(g62
g63
NtRp620
(dp621
g66
(dp622
g74
I3
ssg75
g616
sg68
(lp623
S''
asbasbasbag61
(g77
g63
NtRp624
(dp625
g66
(dp626
sg75
g600
sg68
(lp627
g61
(g82
g63
NtRp628
(dp629
g66
(dp630
g86
g87
ssg75
g624
sg68
(lp631
g296
asbag61
(g82
g63
NtRp632
(dp633
g66
(dp634
g93
g94
ssg75
g624
sg68
(lp635
S':'
asbag61
(g82
g63
NtRp636
(dp637
g66
(dp638
sg75
g624
sg68
(lp639
g61
(g62
g63
NtRp640
(dp641
g66
(dp642
g74
I3
ssg75
g636
sg68
(lp643
S''
asbasbasbag61
(g77
g63
NtRp644
(dp645
g66
(dp646
sg75
g600
sg68
(lp647
g61
(g82
g63
NtRp648
(dp649
g66
(dp650
g86
g87
ssg75
g644
sg68
(lp651
g317
asbag61
(g82
g63
NtRp652
(dp653
g66
(dp654
g93
g94
ssg75
g644
sg68
(lp655
S':'
asbag61
(g82
g63
NtRp656
(dp657
g66
(dp658
sg75
g644
sg68
(lp659
g61
(g62
g63
NtRp660
(dp661
g66
(dp662
g74
I3
ssg75
g656
sg68
(lp663
S''
asbasbasbag61
(g77
g63
NtRp664
(dp665
g66
(dp666
sg75
g600
sg68
(lp667
g61
(g82
g63
NtRp668
(dp669
g66
(dp670
g86
g87
ssg75
g664
sg68
(lp671
g338
asbag61
(g82
g63
NtRp672
(dp673
g66
(dp674
g93
g94
ssg75
g664
sg68
(lp675
S':'
asbag61
(g82
g63
NtRp676
(dp677
g66
(dp678
sg75
g664
sg68
(lp679
g61
(g62
g63
NtRp680
(dp681
g66
(dp682
g74
I3
ssg75
g676
sg68
(lp683
S''
asbasbasbag61
(g77
g63
NtRp684
(dp685
g66
(dp686
sg75
g600
sg68
(lp687
g61
(g82
g63
NtRp688
(dp689
g66
(dp690
g86
g87
ssg75
g684
sg68
(lp691
g359
asbag61
(g82
g63
NtRp692
(dp693
g66
(dp694
g93
g94
ssg75
g684
sg68
(lp695
S':'
asbag61
(g82
g63
NtRp696
(dp697
g66
(dp698
sg75
g684
sg68
(lp699
g61
(g62
g63
NtRp700
(dp701
g66
(dp702
g74
I3
ssg75
g696
sg68
(lp703
S''
asbasbasbag61
(g77
g63
NtRp704
(dp705
g66
(dp706
sg75
g600
sg68
(lp707
g61
(g82
g63
NtRp708
(dp709
g66
(dp710
g86
g87
ssg75
g704
sg68
(lp711
g380
asbag61
(g82
g63
NtRp712
(dp713
g66
(dp714
g93
g94
ssg75
g704
sg68
(lp715
S':'
asbag61
(g82
g63
NtRp716
(dp717
g66
(dp718
sg75
g704
sg68
(lp719
g61
(g62
g63
NtRp720
(dp721
g66
(dp722
g74
I3
ssg75
g716
sg68
(lp723
S''
asbasbasbag61
(g77
g63
NtRp724
(dp725
g66
(dp726
sg75
g600
sg68
(lp727
g61
(g82
g63
NtRp728
(dp729
g66
(dp730
g86
g87
ssg75
g724
sg68
(lp731
g401
asbag61
(g82
g63
NtRp732
(dp733
g66
(dp734
g93
g94
ssg75
g724
sg68
(lp735
S':'
asbag61
(g82
g63
NtRp736
(dp737
g66
(dp738
sg75
g724
sg68
(lp739
g61
(g62
g63
NtRp740
(dp741
g66
(dp742
g74
I3
ssg75
g736
sg68
(lp743
S''
asbasbasbasbasbasbasbasbasbasbasbag61
(g77
g63
NtRp744
(dp745
g66
(dp746
sg75
g71
sg68
(lp747
g61
(g82
g63
NtRp748
(dp749
g66
(dp750
g86
g87
ssg75
g744
sg68
(lp751
S'env'
p752
asbag61
(g82
g63
NtRp753
(dp754
g66
(dp755
g93
g94
ssg75
g744
sg68
(lp756
S':'
asbag61
(g82
g63
NtRp757
(dp758
g66
(dp759
sg75
g744
sg68
(lp760
g61
(g62
g63
NtRp761
(dp762
g66
(dp763
g74
I5
ssg75
g757
sg68
(lp764
g61
(g70
g63
NtRp765
(dp766
g66
(dp767
g74
I4
ssg75
Nsg68
(lp768
g61
(g77
g63
NtRp769
(dp770
g66
(dp771
sg75
g765
sg68
(lp772
g61
(g82
g63
NtRp773
(dp774
g66
(dp775
g86
g87
ssg75
g769
sg68
(lp776
S'app_folders'
p777
asbag61
(g82
g63
NtRp778
(dp779
g66
(dp780
g93
g94
ssg75
g769
sg68
(lp781
S':'
asbag61
(g82
g63
NtRp782
(dp783
g66
(dp784
sg75
g769
sg68
(lp785
g61
(g62
g63
NtRp786
(dp787
g66
(dp788
g74
I4
ssg75
g782
sg68
(lp789
S"set(['C:\\\\web2py\\\\applications\\\\admin\\\\', 'C:\\\\web2py\\\\applications\\\\welcome\\\\', 'C:\\\\web2py\\\\applications\\\\unioeste_code\\\\'])"
p790
asbasbasbag61
(g77
g63
NtRp791
(dp792
g66
(dp793
sg75
g765
sg68
(lp794
g61
(g82
g63
NtRp795
(dp796
g66
(dp797
g86
g87
ssg75
g791
sg68
(lp798
S'applications_parent'
p799
asbag61
(g82
g63
NtRp800
(dp801
g66
(dp802
g93
g94
ssg75
g791
sg68
(lp803
S':'
asbag61
(g82
g63
NtRp804
(dp805
g66
(dp806
sg75
g791
sg68
(lp807
g61
(g62
g63
NtRp808
(dp809
g66
(dp810
g74
I4
ssg75
g804
sg68
(lp811
S'C:\\web2py'
p812
asbasbasbag61
(g77
g63
NtRp813
(dp814
g66
(dp815
sg75
g765
sg68
(lp816
g61
(g82
g63
NtRp817
(dp818
g66
(dp819
g86
g87
ssg75
g813
sg68
(lp820
S'cmd_args'
p821
asbag61
(g82
g63
NtRp822
(dp823
g66
(dp824
g93
g94
ssg75
g813
sg68
(lp825
S':'
asbag61
(g82
g63
NtRp826
(dp827
g66
(dp828
sg75
g813
sg68
(lp829
g61
(g62
g63
NtRp830
(dp831
g66
(dp832
g74
I4
ssg75
g826
sg68
(lp833
g61
(g70
g63
NtRp834
(dp835
g66
(dp836
g74
I3
ssg75
Nsg68
(lp837
sbasbasbasbag61
(g77
g63
NtRp838
(dp839
g66
(dp840
sg75
g765
sg68
(lp841
g61
(g82
g63
NtRp842
(dp843
g66
(dp844
g86
g87
ssg75
g838
sg68
(lp845
S'cmd_options'
p846
asbag61
(g82
g63
NtRp847
(dp848
g66
(dp849
g93
g94
ssg75
g838
sg68
(lp850
S':'
asbag61
(g82
g63
NtRp851
(dp852
g66
(dp853
sg75
g838
sg68
(lp854
g61
(g62
g63
NtRp855
(dp856
g66
(dp857
g74
I4
ssg75
g851
sg68
(lp858
S"<Values at 0x325c300: {'verbose': False, 'ip': '127.0.0.1', 'shutdown_timeout': 5, 'taskbar': False, 'nocron': False, 'pid_filename': 'httpserver.pid', 'maxthreads': None, 'softcron': False, 'server_name': 'Pedro-PC', 'bpython': False, 'nogui': False, 'port': 8000, 'extcron': False, 'debuglevel': 30, 'test': None, 'folder': 'C:\\\\web2py', 'config': '', 'import_models': False, 'winservice': '', 'shell': None, 'run': '', 'log_filename': 'httpserver.log', 'args': [''], 'socket_timeout': 5, 'ssl_ca_certificate': None, 'scheduler': None, 'profiler_filename': None, 'ssl_private_key': '', 'password': '<ask>', 'request_queue_size': 5, 'ssl_certificate': '', 'cronjob': False, 'numthreads': None, 'quiet': False, 'interfaces': None, 'minthreads': None, 'timeout': 10, 'plain': False, 'nobanner': False}>"
p859
asbasbasbag61
(g77
g63
NtRp860
(dp861
g66
(dp862
sg75
g765
sg68
(lp863
g61
(g82
g63
NtRp864
(dp865
g66
(dp866
g86
g87
ssg75
g860
sg68
(lp867
S'db_sessions'
p868
asbag61
(g82
g63
NtRp869
(dp870
g66
(dp871
g93
g94
ssg75
g860
sg68
(lp872
S':'
asbag61
(g82
g63
NtRp873
(dp874
g66
(dp875
sg75
g860
sg68
(lp876
g61
(g62
g63
NtRp877
(dp878
g66
(dp879
g74
I4
ssg75
g873
sg68
(lp880
S'set([])'
p881
asbasbasbag61
(g77
g63
NtRp882
(dp883
g66
(dp884
sg75
g765
sg68
(lp885
g61
(g82
g63
NtRp886
(dp887
g66
(dp888
g86
g87
ssg75
g882
sg68
(lp889
S'debugging'
p890
asbag61
(g82
g63
NtRp891
(dp892
g66
(dp893
g93
g94
ssg75
g882
sg68
(lp894
S':'
asbag61
(g82
g63
NtRp895
(dp896
g66
(dp897
sg75
g882
sg68
(lp898
g61
(g62
g63
NtRp899
(dp900
g66
(dp901
g74
I4
ssg75
g895
sg68
(lp902
g104
asbasbasbag61
(g77
g63
NtRp903
(dp904
g66
(dp905
sg75
g765
sg68
(lp906
g61
(g82
g63
NtRp907
(dp908
g66
(dp909
g86
g87
ssg75
g903
sg68
(lp910
S'gluon_parent'
p911
asbag61
(g82
g63
NtRp912
(dp913
g66
(dp914
g93
g94
ssg75
g903
sg68
(lp915
S':'
asbag61
(g82
g63
NtRp916
(dp917
g66
(dp918
sg75
g903
sg68
(lp919
g61
(g62
g63
NtRp920
(dp921
g66
(dp922
g74
I4
ssg75
g916
sg68
(lp923
S'C:\\web2py'
p924
asbasbasbag61
(g77
g63
NtRp925
(dp926
g66
(dp927
sg75
g765
sg68
(lp928
g61
(g82
g63
NtRp929
(dp930
g66
(dp931
g86
g87
ssg75
g925
sg68
(lp932
S'http_accept'
p933
asbag61
(g82
g63
NtRp934
(dp935
g66
(dp936
g93
g94
ssg75
g925
sg68
(lp937
S':'
asbag61
(g82
g63
NtRp938
(dp939
g66
(dp940
sg75
g925
sg68
(lp941
g61
(g62
g63
NtRp942
(dp943
g66
(dp944
g74
I4
ssg75
g938
sg68
(lp945
S'text/html,application/xhtml+xml,application/xml;q=0.9,*/*;q=0.8'
p946
asbasbasbag61
(g77
g63
NtRp947
(dp948
g66
(dp949
sg75
g765
sg68
(lp950
g61
(g82
g63
NtRp951
(dp952
g66
(dp953
g86
g87
ssg75
g947
sg68
(lp954
S'http_accept_charset'
p955
asbag61
(g82
g63
NtRp956
(dp957
g66
(dp958
g93
g94
ssg75
g947
sg68
(lp959
S':'
asbag61
(g82
g63
NtRp960
(dp961
g66
(dp962
sg75
g947
sg68
(lp963
g61
(g62
g63
NtRp964
(dp965
g66
(dp966
g74
I4
ssg75
g960
sg68
(lp967
S'ISO-8859-1,utf-8;q=0.7,*;q=0.3'
p968
asbasbasbag61
(g77
g63
NtRp969
(dp970
g66
(dp971
sg75
g765
sg68
(lp972
g61
(g82
g63
NtRp973
(dp974
g66
(dp975
g86
g87
ssg75
g969
sg68
(lp976
S'http_accept_encoding'
p977
asbag61
(g82
g63
NtRp978
(dp979
g66
(dp980
g93
g94
ssg75
g969
sg68
(lp981
S':'
asbag61
(g82
g63
NtRp982
(dp983
g66
(dp984
sg75
g969
sg68
(lp985
g61
(g62
g63
NtRp986
(dp987
g66
(dp988
g74
I4
ssg75
g982
sg68
(lp989
S'gzip,deflate,sdch'
p990
asbasbasbag61
(g77
g63
NtRp991
(dp992
g66
(dp993
sg75
g765
sg68
(lp994
g61
(g82
g63
NtRp995
(dp996
g66
(dp997
g86
g87
ssg75
g991
sg68
(lp998
S'http_accept_language'
p999
asbag61
(g82
g63
NtRp1000
(dp1001
g66
(dp1002
g93
g94
ssg75
g991
sg68
(lp1003
S':'
asbag61
(g82
g63
NtRp1004
(dp1005
g66
(dp1006
sg75
g991
sg68
(lp1007
g61
(g62
g63
NtRp1008
(dp1009
g66
(dp1010
g74
I4
ssg75
g1004
sg68
(lp1011
S'pt-BR,pt;q=0.8,en-US;q=0.6,en;q=0.4'
p1012
asbasbasbag61
(g77
g63
NtRp1013
(dp1014
g66
(dp1015
sg75
g765
sg68
(lp1016
g61
(g82
g63
NtRp1017
(dp1018
g66
(dp1019
g86
g87
ssg75
g1013
sg68
(lp1020
S'http_cache_control'
p1021
asbag61
(g82
g63
NtRp1022
(dp1023
g66
(dp1024
g93
g94
ssg75
g1013
sg68
(lp1025
S':'
asbag61
(g82
g63
NtRp1026
(dp1027
g66
(dp1028
sg75
g1013
sg68
(lp1029
g61
(g62
g63
NtRp1030
(dp1031
g66
(dp1032
g74
I4
ssg75
g1026
sg68
(lp1033
S'max-age=0'
p1034
asbasbasbag61
(g77
g63
NtRp1035
(dp1036
g66
(dp1037
sg75
g765
sg68
(lp1038
g61
(g82
g63
NtRp1039
(dp1040
g66
(dp1041
g86
g87
ssg75
g1035
sg68
(lp1042
S'http_connection'
p1043
asbag61
(g82
g63
NtRp1044
(dp1045
g66
(dp1046
g93
g94
ssg75
g1035
sg68
(lp1047
S':'
asbag61
(g82
g63
NtRp1048
(dp1049
g66
(dp1050
sg75
g1035
sg68
(lp1051
g61
(g62
g63
NtRp1052
(dp1053
g66
(dp1054
g74
I4
ssg75
g1048
sg68
(lp1055
S'keep-alive'
p1056
asbasbasbag61
(g77
g63
NtRp1057
(dp1058
g66
(dp1059
sg75
g765
sg68
(lp1060
g61
(g82
g63
NtRp1061
(dp1062
g66
(dp1063
g86
g87
ssg75
g1057
sg68
(lp1064
S'http_cookie'
p1065
asbag61
(g82
g63
NtRp1066
(dp1067
g66
(dp1068
g93
g94
ssg75
g1057
sg68
(lp1069
S':'
asbag61
(g82
g63
NtRp1070
(dp1071
g66
(dp1072
sg75
g1057
sg68
(lp1073
g61
(g62
g63
NtRp1074
(dp1075
g66
(dp1076
g74
I4
ssg75
g1070
sg68
(lp1077
S'session_id_welcome=127.0.0.1-c2af5b44-a172-4105-aab0-657c8bcc3912; session_id_unioeste_code=127.0.0.1-d63b25dc-54ab-4837-86c6-738372b4cce3; session_id_admin=127.0.0.1-769ea8f8-1436-42b9-b141-df8ea05cf10f'
p1078
asbasbasbag61
(g77
g63
NtRp1079
(dp1080
g66
(dp1081
sg75
g765
sg68
(lp1082
g61
(g82
g63
NtRp1083
(dp1084
g66
(dp1085
g86
g87
ssg75
g1079
sg68
(lp1086
S'http_dnt'
p1087
asbag61
(g82
g63
NtRp1088
(dp1089
g66
(dp1090
g93
g94
ssg75
g1079
sg68
(lp1091
S':'
asbag61
(g82
g63
NtRp1092
(dp1093
g66
(dp1094
sg75
g1079
sg68
(lp1095
g61
(g62
g63
NtRp1096
(dp1097
g66
(dp1098
g74
I4
ssg75
g1092
sg68
(lp1099
S'1'
asbasbasbag61
(g77
g63
NtRp1100
(dp1101
g66
(dp1102
sg75
g765
sg68
(lp1103
g61
(g82
g63
NtRp1104
(dp1105
g66
(dp1106
g86
g87
ssg75
g1100
sg68
(lp1107
S'http_host'
p1108
asbag61
(g82
g63
NtRp1109
(dp1110
g66
(dp1111
g93
g94
ssg75
g1100
sg68
(lp1112
S':'
asbag61
(g82
g63
NtRp1113
(dp1114
g66
(dp1115
sg75
g1100
sg68
(lp1116
g61
(g62
g63
NtRp1117
(dp1118
g66
(dp1119
g74
I4
ssg75
g1113
sg68
(lp1120
S'127.0.0.1:8000'
p1121
asbasbasbag61
(g77
g63
NtRp1122
(dp1123
g66
(dp1124
sg75
g765
sg68
(lp1125
g61
(g82
g63
NtRp1126
(dp1127
g66
(dp1128
g86
g87
ssg75
g1122
sg68
(lp1129
S'http_user_agent'
p1130
asbag61
(g82
g63
NtRp1131
(dp1132
g66
(dp1133
g93
g94
ssg75
g1122
sg68
(lp1134
S':'
asbag61
(g82
g63
NtRp1135
(dp1136
g66
(dp1137
sg75
g1122
sg68
(lp1138
g61
(g62
g63
NtRp1139
(dp1140
g66
(dp1141
g74
I4
ssg75
g1135
sg68
(lp1142
S'Mozilla/5.0 (Windows NT 6.1; WOW64) AppleWebKit/536.11 (KHTML, like Gecko) Chrome/20.0.1132.57 Safari/536.11'
p1143
asbasbasbag61
(g77
g63
NtRp1144
(dp1145
g66
(dp1146
sg75
g765
sg68
(lp1147
g61
(g82
g63
NtRp1148
(dp1149
g66
(dp1150
g86
g87
ssg75
g1144
sg68
(lp1151
S'is_jython'
p1152
asbag61
(g82
g63
NtRp1153
(dp1154
g66
(dp1155
g93
g94
ssg75
g1144
sg68
(lp1156
S':'
asbag61
(g82
g63
NtRp1157
(dp1158
g66
(dp1159
sg75
g1144
sg68
(lp1160
g61
(g62
g63
NtRp1161
(dp1162
g66
(dp1163
g74
I4
ssg75
g1157
sg68
(lp1164
g104
asbasbasbag61
(g77
g63
NtRp1165
(dp1166
g66
(dp1167
sg75
g765
sg68
(lp1168
g61
(g82
g63
NtRp1169
(dp1170
g66
(dp1171
g86
g87
ssg75
g1165
sg68
(lp1172
S'is_pypy'
p1173
asbag61
(g82
g63
NtRp1174
(dp1175
g66
(dp1176
g93
g94
ssg75
g1165
sg68
(lp1177
S':'
asbag61
(g82
g63
NtRp1178
(dp1179
g66
(dp1180
sg75
g1165
sg68
(lp1181
g61
(g62
g63
NtRp1182
(dp1183
g66
(dp1184
g74
I4
ssg75
g1178
sg68
(lp1185
g104
asbasbasbag61
(g77
g63
NtRp1186
(dp1187
g66
(dp1188
sg75
g765
sg68
(lp1189
g61
(g82
g63
NtRp1190
(dp1191
g66
(dp1192
g86
g87
ssg75
g1186
sg68
(lp1193
S'path_info'
p1194
asbag61
(g82
g63
NtRp1195
(dp1196
g66
(dp1197
g93
g94
ssg75
g1186
sg68
(lp1198
S':'
asbag61
(g82
g63
NtRp1199
(dp1200
g66
(dp1201
sg75
g1186
sg68
(lp1202
g61
(g62
g63
NtRp1203
(dp1204
g66
(dp1205
g74
I4
ssg75
g1199
sg68
(lp1206
S'/unioeste_code/'
p1207
asbasbasbag61
(g77
g63
NtRp1208
(dp1209
g66
(dp1210
sg75
g765
sg68
(lp1211
g61
(g82
g63
NtRp1212
(dp1213
g66
(dp1214
g86
g87
ssg75
g1208
sg68
(lp1215
S'query_string'
p1216
asbag61
(g82
g63
NtRp1217
(dp1218
g66
(dp1219
g93
g94
ssg75
g1208
sg68
(lp1220
S':'
asbag61
(g82
g63
NtRp1221
(dp1222
g66
(dp1223
sg75
g1208
sg68
(lp1224
g61
(g62
g63
NtRp1225
(dp1226
g66
(dp1227
g74
I4
ssg75
g1221
sg68
(lp1228
S''
asbasbasbag61
(g77
g63
NtRp1229
(dp1230
g66
(dp1231
sg75
g765
sg68
(lp1232
g61
(g82
g63
NtRp1233
(dp1234
g66
(dp1235
g86
g87
ssg75
g1229
sg68
(lp1236
S'remote_addr'
p1237
asbag61
(g82
g63
NtRp1238
(dp1239
g66
(dp1240
g93
g94
ssg75
g1229
sg68
(lp1241
S':'
asbag61
(g82
g63
NtRp1242
(dp1243
g66
(dp1244
sg75
g1229
sg68
(lp1245
g61
(g62
g63
NtRp1246
(dp1247
g66
(dp1248
g74
I4
ssg75
g1242
sg68
(lp1249
g194
asbasbasbag61
(g77
g63
NtRp1250
(dp1251
g66
(dp1252
sg75
g765
sg68
(lp1253
g61
(g82
g63
NtRp1254
(dp1255
g66
(dp1256
g86
g87
ssg75
g1250
sg68
(lp1257
S'remote_port'
p1258
asbag61
(g82
g63
NtRp1259
(dp1260
g66
(dp1261
g93
g94
ssg75
g1250
sg68
(lp1262
S':'
asbag61
(g82
g63
NtRp1263
(dp1264
g66
(dp1265
sg75
g1250
sg68
(lp1266
g61
(g62
g63
NtRp1267
(dp1268
g66
(dp1269
g74
I4
ssg75
g1263
sg68
(lp1270
S'5733'
p1271
asbasbasbag61
(g77
g63
NtRp1272
(dp1273
g66
(dp1274
sg75
g765
sg68
(lp1275
g61
(g82
g63
NtRp1276
(dp1277
g66
(dp1278
g86
g87
ssg75
g1272
sg68
(lp1279
S'request_method'
p1280
asbag61
(g82
g63
NtRp1281
(dp1282
g66
(dp1283
g93
g94
ssg75
g1272
sg68
(lp1284
S':'
asbag61
(g82
g63
NtRp1285
(dp1286
g66
(dp1287
sg75
g1272
sg68
(lp1288
g61
(g62
g63
NtRp1289
(dp1290
g66
(dp1291
g74
I4
ssg75
g1285
sg68
(lp1292
S'GET'
p1293
asbasbasbag61
(g77
g63
NtRp1294
(dp1295
g66
(dp1296
sg75
g765
sg68
(lp1297
g61
(g82
g63
NtRp1298
(dp1299
g66
(dp1300
g86
g87
ssg75
g1294
sg68
(lp1301
S'script_name'
p1302
asbag61
(g82
g63
NtRp1303
(dp1304
g66
(dp1305
g93
g94
ssg75
g1294
sg68
(lp1306
S':'
asbag61
(g82
g63
NtRp1307
(dp1308
g66
(dp1309
sg75
g1294
sg68
(lp1310
g61
(g62
g63
NtRp1311
(dp1312
g66
(dp1313
g74
I4
ssg75
g1307
sg68
(lp1314
S''
asbasbasbag61
(g77
g63
NtRp1315
(dp1316
g66
(dp1317
sg75
g765
sg68
(lp1318
g61
(g82
g63
NtRp1319
(dp1320
g66
(dp1321
g86
g87
ssg75
g1315
sg68
(lp1322
S'server_name'
p1323
asbag61
(g82
g63
NtRp1324
(dp1325
g66
(dp1326
g93
g94
ssg75
g1315
sg68
(lp1327
S':'
asbag61
(g82
g63
NtRp1328
(dp1329
g66
(dp1330
sg75
g1315
sg68
(lp1331
g61
(g62
g63
NtRp1332
(dp1333
g66
(dp1334
g74
I4
ssg75
g1328
sg68
(lp1335
S'Pedro-PC'
p1336
asbasbasbag61
(g77
g63
NtRp1337
(dp1338
g66
(dp1339
sg75
g765
sg68
(lp1340
g61
(g82
g63
NtRp1341
(dp1342
g66
(dp1343
g86
g87
ssg75
g1337
sg68
(lp1344
S'server_port'
p1345
asbag61
(g82
g63
NtRp1346
(dp1347
g66
(dp1348
g93
g94
ssg75
g1337
sg68
(lp1349
S':'
asbag61
(g82
g63
NtRp1350
(dp1351
g66
(dp1352
sg75
g1337
sg68
(lp1353
g61
(g62
g63
NtRp1354
(dp1355
g66
(dp1356
g74
I4
ssg75
g1350
sg68
(lp1357
S'8000'
p1358
asbasbasbag61
(g77
g63
NtRp1359
(dp1360
g66
(dp1361
sg75
g765
sg68
(lp1362
g61
(g82
g63
NtRp1363
(dp1364
g66
(dp1365
g86
g87
ssg75
g1359
sg68
(lp1366
S'server_protocol'
p1367
asbag61
(g82
g63
NtRp1368
(dp1369
g66
(dp1370
g93
g94
ssg75
g1359
sg68
(lp1371
S':'
asbag61
(g82
g63
NtRp1372
(dp1373
g66
(dp1374
sg75
g1359
sg68
(lp1375
g61
(g62
g63
NtRp1376
(dp1377
g66
(dp1378
g74
I4
ssg75
g1372
sg68
(lp1379
S'HTTP/1.1'
p1380
asbasbasbag61
(g77
g63
NtRp1381
(dp1382
g66
(dp1383
sg75
g765
sg68
(lp1384
g61
(g82
g63
NtRp1385
(dp1386
g66
(dp1387
g86
g87
ssg75
g1381
sg68
(lp1388
S'server_software'
p1389
asbag61
(g82
g63
NtRp1390
(dp1391
g66
(dp1392
g93
g94
ssg75
g1381
sg68
(lp1393
S':'
asbag61
(g82
g63
NtRp1394
(dp1395
g66
(dp1396
sg75
g1381
sg68
(lp1397
g61
(g62
g63
NtRp1398
(dp1399
g66
(dp1400
g74
I4
ssg75
g1394
sg68
(lp1401
S'Rocket 1.2.4'
p1402
asbasbasbag61
(g77
g63
NtRp1403
(dp1404
g66
(dp1405
sg75
g765
sg68
(lp1406
g61
(g82
g63
NtRp1407
(dp1408
g66
(dp1409
g86
g87
ssg75
g1403
sg68
(lp1410
S'web2py_crontype'
p1411
asbag61
(g82
g63
NtRp1412
(dp1413
g66
(dp1414
g93
g94
ssg75
g1403
sg68
(lp1415
S':'
asbag61
(g82
g63
NtRp1416
(dp1417
g66
(dp1418
sg75
g1403
sg68
(lp1419
g61
(g62
g63
NtRp1420
(dp1421
g66
(dp1422
g74
I4
ssg75
g1416
sg68
(lp1423
S'hard'
p1424
asbasbasbag61
(g77
g63
NtRp1425
(dp1426
g66
(dp1427
sg75
g765
sg68
(lp1428
g61
(g82
g63
NtRp1429
(dp1430
g66
(dp1431
g86
g87
ssg75
g1425
sg68
(lp1432
S'web2py_path'
p1433
asbag61
(g82
g63
NtRp1434
(dp1435
g66
(dp1436
g93
g94
ssg75
g1425
sg68
(lp1437
S':'
asbag61
(g82
g63
NtRp1438
(dp1439
g66
(dp1440
sg75
g1425
sg68
(lp1441
g61
(g62
g63
NtRp1442
(dp1443
g66
(dp1444
g74
I4
ssg75
g1438
sg68
(lp1445
g812
asbasbasbag61
(g77
g63
NtRp1446
(dp1447
g66
(dp1448
sg75
g765
sg68
(lp1449
g61
(g82
g63
NtRp1450
(dp1451
g66
(dp1452
g86
g87
ssg75
g1446
sg68
(lp1453
S'web2py_version'
p1454
asbag61
(g82
g63
NtRp1455
(dp1456
g66
(dp1457
g93
g94
ssg75
g1446
sg68
(lp1458
S':'
asbag61
(g82
g63
NtRp1459
(dp1460
g66
(dp1461
sg75
g1446
sg68
(lp1462
g61
(g62
g63
NtRp1463
(dp1464
g66
(dp1465
g74
I4
ssg75
g1459
sg68
(lp1466
g61
(g70
g63
NtRp1467
(dp1468
g66
(dp1469
g74
I3
ssg75
Nsg68
(lp1470
g61
(g77
g63
NtRp1471
(dp1472
g66
(dp1473
sg75
g1467
sg68
(lp1474
g61
(g82
g63
NtRp1475
(dp1476
g66
(dp1477
sg75
g1471
sg68
(lp1478
g61
(g62
g63
NtRp1479
(dp1480
g66
(dp1481
g74
I3
ssg75
g1475
sg68
(lp1482
S'1'
asbasbasbag61
(g77
g63
NtRp1483
(dp1484
g66
(dp1485
sg75
g1467
sg68
(lp1486
g61
(g82
g63
NtRp1487
(dp1488
g66
(dp1489
sg75
g1483
sg68
(lp1490
g61
(g62
g63
NtRp1491
(dp1492
g66
(dp1493
g74
I3
ssg75
g1487
sg68
(lp1494
S'99'
p1495
asbasbasbag61
(g77
g63
NtRp1496
(dp1497
g66
(dp1498
sg75
g1467
sg68
(lp1499
g61
(g82
g63
NtRp1500
(dp1501
g66
(dp1502
sg75
g1496
sg68
(lp1503
g61
(g62
g63
NtRp1504
(dp1505
g66
(dp1506
g74
I3
ssg75
g1500
sg68
(lp1507
S'7'
asbasbasbag61
(g77
g63
NtRp1508
(dp1509
g66
(dp1510
sg75
g1467
sg68
(lp1511
g61
(g82
g63
NtRp1512
(dp1513
g66
(dp1514
sg75
g1508
sg68
(lp1515
g61
(g62
g63
NtRp1516
(dp1517
g66
(dp1518
g74
I3
ssg75
g1512
sg68
(lp1519
S'datetime.datetime(2012, 3, 4, 22, 12, 8)'
p1520
asbasbasbag61
(g77
g63
NtRp1521
(dp1522
g66
(dp1523
sg75
g1467
sg68
(lp1524
g61
(g82
g63
NtRp1525
(dp1526
g66
(dp1527
sg75
g1521
sg68
(lp1528
g61
(g62
g63
NtRp1529
(dp1530
g66
(dp1531
g74
I3
ssg75
g1525
sg68
(lp1532
S'stable'
p1533
asbasbasbasbasbasbasbag61
(g77
g63
NtRp1534
(dp1535
g66
(dp1536
sg75
g765
sg68
(lp1537
g61
(g82
g63
NtRp1538
(dp1539
g66
(dp1540
g86
g87
ssg75
g1534
sg68
(lp1541
S'wsgi_errors'
p1542
asbag61
(g82
g63
NtRp1543
(dp1544
g66
(dp1545
g93
g94
ssg75
g1534
sg68
(lp1546
S':'
asbag61
(g82
g63
NtRp1547
(dp1548
g66
(dp1549
sg75
g1534
sg68
(lp1550
g61
(g62
g63
NtRp1551
(dp1552
g66
(dp1553
g74
I4
ssg75
g1547
sg68
(lp1554
S'<__main__.Stderr object at 0x01D96670>'
p1555
asbasbasbag61
(g77
g63
NtRp1556
(dp1557
g66
(dp1558
sg75
g765
sg68
(lp1559
g61
(g82
g63
NtRp1560
(dp1561
g66
(dp1562
g86
g87
ssg75
g1556
sg68
(lp1563
S'wsgi_file_wrapper'
p1564
asbag61
(g82
g63
NtRp1565
(dp1566
g66
(dp1567
g93
g94
ssg75
g1556
sg68
(lp1568
S':'
asbag61
(g82
g63
NtRp1569
(dp1570
g66
(dp1571
sg75
g1556
sg68
(lp1572
g61
(g62
g63
NtRp1573
(dp1574
g66
(dp1575
g74
I4
ssg75
g1569
sg68
(lp1576
S'<class wsgiref.util.FileWrapper at 0x0304DE10>'
p1577
asbasbasbag61
(g77
g63
NtRp1578
(dp1579
g66
(dp1580
sg75
g765
sg68
(lp1581
g61
(g82
g63
NtRp1582
(dp1583
g66
(dp1584
g86
g87
ssg75
g1578
sg68
(lp1585
S'wsgi_input'
p1586
asbag61
(g82
g63
NtRp1587
(dp1588
g66
(dp1589
g93
g94
ssg75
g1578
sg68
(lp1590
S':'
asbag61
(g82
g63
NtRp1591
(dp1592
g66
(dp1593
sg75
g1578
sg68
(lp1594
g61
(g62
g63
NtRp1595
(dp1596
g66
(dp1597
g74
I4
ssg75
g1591
sg68
(lp1598
S'<socket._fileobject object at 0x070C95B0>'
p1599
asbasbasbag61
(g77
g63
NtRp1600
(dp1601
g66
(dp1602
sg75
g765
sg68
(lp1603
g61
(g82
g63
NtRp1604
(dp1605
g66
(dp1606
g86
g87
ssg75
g1600
sg68
(lp1607
S'wsgi_multiprocess'
p1608
asbag61
(g82
g63
NtRp1609
(dp1610
g66
(dp1611
g93
g94
ssg75
g1600
sg68
(lp1612
S':'
asbag61
(g82
g63
NtRp1613
(dp1614
g66
(dp1615
sg75
g1600
sg68
(lp1616
g61
(g62
g63
NtRp1617
(dp1618
g66
(dp1619
g74
I4
ssg75
g1613
sg68
(lp1620
g104
asbasbasbag61
(g77
g63
NtRp1621
(dp1622
g66
(dp1623
sg75
g765
sg68
(lp1624
g61
(g82
g63
NtRp1625
(dp1626
g66
(dp1627
g86
g87
ssg75
g1621
sg68
(lp1628
S'wsgi_multithread'
p1629
asbag61
(g82
g63
NtRp1630
(dp1631
g66
(dp1632
g93
g94
ssg75
g1621
sg68
(lp1633
S':'
asbag61
(g82
g63
NtRp1634
(dp1635
g66
(dp1636
sg75
g1621
sg68
(lp1637
g61
(g62
g63
NtRp1638
(dp1639
g66
(dp1640
g74
I4
ssg75
g1634
sg68
(lp1641
S'True'
p1642
asbasbasbag61
(g77
g63
NtRp1643
(dp1644
g66
(dp1645
sg75
g765
sg68
(lp1646
g61
(g82
g63
NtRp1647
(dp1648
g66
(dp1649
g86
g87
ssg75
g1643
sg68
(lp1650
S'wsgi_run_once'
p1651
asbag61
(g82
g63
NtRp1652
(dp1653
g66
(dp1654
g93
g94
ssg75
g1643
sg68
(lp1655
S':'
asbag61
(g82
g63
NtRp1656
(dp1657
g66
(dp1658
sg75
g1643
sg68
(lp1659
g61
(g62
g63
NtRp1660
(dp1661
g66
(dp1662
g74
I4
ssg75
g1656
sg68
(lp1663
g104
asbasbasbag61
(g77
g63
NtRp1664
(dp1665
g66
(dp1666
sg75
g765
sg68
(lp1667
g61
(g82
g63
NtRp1668
(dp1669
g66
(dp1670
g86
g87
ssg75
g1664
sg68
(lp1671
S'wsgi_url_scheme'
p1672
asbag61
(g82
g63
NtRp1673
(dp1674
g66
(dp1675
g93
g94
ssg75
g1664
sg68
(lp1676
S':'
asbag61
(g82
g63
NtRp1677
(dp1678
g66
(dp1679
sg75
g1664
sg68
(lp1680
g61
(g62
g63
NtRp1681
(dp1682
g66
(dp1683
g74
I4
ssg75
g1677
sg68
(lp1684
S'http'
p1685
asbasbasbag61
(g77
g63
NtRp1686
(dp1687
g66
(dp1688
sg75
g765
sg68
(lp1689
g61
(g82
g63
NtRp1690
(dp1691
g66
(dp1692
g86
g87
ssg75
g1686
sg68
(lp1693
S'wsgi_version'
p1694
asbag61
(g82
g63
NtRp1695
(dp1696
g66
(dp1697
g93
g94
ssg75
g1686
sg68
(lp1698
S':'
asbag61
(g82
g63
NtRp1699
(dp1700
g66
(dp1701
sg75
g1686
sg68
(lp1702
g61
(g62
g63
NtRp1703
(dp1704
g66
(dp1705
g74
I4
ssg75
g1699
sg68
(lp1706
g61
(g70
g63
NtRp1707
(dp1708
g66
(dp1709
g74
I3
ssg75
Nsg68
(lp1710
g61
(g77
g63
NtRp1711
(dp1712
g66
(dp1713
sg75
g1707
sg68
(lp1714
g61
(g82
g63
NtRp1715
(dp1716
g66
(dp1717
sg75
g1711
sg68
(lp1718
g61
(g62
g63
NtRp1719
(dp1720
g66
(dp1721
g74
I3
ssg75
g1715
sg68
(lp1722
S'1'
asbasbasbag61
(g77
g63
NtRp1723
(dp1724
g66
(dp1725
sg75
g1707
sg68
(lp1726
g61
(g82
g63
NtRp1727
(dp1728
g66
(dp1729
sg75
g1723
sg68
(lp1730
g61
(g62
g63
NtRp1731
(dp1732
g66
(dp1733
g74
I3
ssg75
g1727
sg68
(lp1734
S'0'
asbasbasbasbasbasbasbasbasbasbasbag61
(g77
g63
NtRp1735
(dp1736
g66
(dp1737
sg75
g71
sg68
(lp1738
g61
(g82
g63
NtRp1739
(dp1740
g66
(dp1741
g86
g87
ssg75
g1735
sg68
(lp1742
S'extension'
p1743
asbag61
(g82
g63
NtRp1744
(dp1745
g66
(dp1746
g93
g94
ssg75
g1735
sg68
(lp1747
S':'
asbag61
(g82
g63
NtRp1748
(dp1749
g66
(dp1750
sg75
g1735
sg68
(lp1751
g61
(g62
g63
NtRp1752
(dp1753
g66
(dp1754
g74
I5
ssg75
g1748
sg68
(lp1755
S'html'
p1756
asbasbasbag61
(g77
g63
NtRp1757
(dp1758
g66
(dp1759
sg75
g71
sg68
(lp1760
g61
(g82
g63
NtRp1761
(dp1762
g66
(dp1763
g86
g87
ssg75
g1757
sg68
(lp1764
S'folder'
p1765
asbag61
(g82
g63
NtRp1766
(dp1767
g66
(dp1768
g93
g94
ssg75
g1757
sg68
(lp1769
S':'
asbag61
(g82
g63
NtRp1770
(dp1771
g66
(dp1772
sg75
g1757
sg68
(lp1773
g61
(g62
g63
NtRp1774
(dp1775
g66
(dp1776
g74
I5
ssg75
g1770
sg68
(lp1777
S'C:\\web2py\\applications\\unioeste_code\\'
p1778
asbasbasbag61
(g77
g63
NtRp1779
(dp1780
g66
(dp1781
sg75
g71
sg68
(lp1782
g61
(g82
g63
NtRp1783
(dp1784
g66
(dp1785
g86
g87
ssg75
g1779
sg68
(lp1786
S'function'
p1787
asbag61
(g82
g63
NtRp1788
(dp1789
g66
(dp1790
g93
g94
ssg75
g1779
sg68
(lp1791
S':'
asbag61
(g82
g63
NtRp1792
(dp1793
g66
(dp1794
sg75
g1779
sg68
(lp1795
g61
(g62
g63
NtRp1796
(dp1797
g66
(dp1798
g74
I5
ssg75
g1792
sg68
(lp1799
S'index'
p1800
asbasbasbag61
(g77
g63
NtRp1801
(dp1802
g66
(dp1803
sg75
g71
sg68
(lp1804
g61
(g82
g63
NtRp1805
(dp1806
g66
(dp1807
g86
g87
ssg75
g1801
sg68
(lp1808
S'get_vars'
p1809
asbag61
(g82
g63
NtRp1810
(dp1811
g66
(dp1812
g93
g94
ssg75
g1801
sg68
(lp1813
S':'
asbag61
(g82
g63
NtRp1814
(dp1815
g66
(dp1816
sg75
g1801
sg68
(lp1817
g61
(g62
g63
NtRp1818
(dp1819
g66
(dp1820
g74
I5
ssg75
g1814
sg68
(lp1821
g61
(g70
g63
NtRp1822
(dp1823
g66
(dp1824
g74
I4
ssg75
Nsg68
(lp1825
sbasbasbasbag61
(g77
g63
NtRp1826
(dp1827
g66
(dp1828
sg75
g71
sg68
(lp1829
g61
(g82
g63
NtRp1830
(dp1831
g66
(dp1832
g86
g87
ssg75
g1826
sg68
(lp1833
S'global_settings'
p1834
asbag61
(g82
g63
NtRp1835
(dp1836
g66
(dp1837
g93
g94
ssg75
g1826
sg68
(lp1838
S':'
asbag61
(g82
g63
NtRp1839
(dp1840
g66
(dp1841
sg75
g1826
sg68
(lp1842
g61
(g62
g63
NtRp1843
(dp1844
g66
(dp1845
g74
I5
ssg75
g1839
sg68
(lp1846
g61
(g70
g63
NtRp1847
(dp1848
g66
(dp1849
g74
I4
ssg75
Nsg68
(lp1850
g61
(g77
g63
NtRp1851
(dp1852
g66
(dp1853
sg75
g1847
sg68
(lp1854
g61
(g82
g63
NtRp1855
(dp1856
g66
(dp1857
g86
g87
ssg75
g1851
sg68
(lp1858
g777
asbag61
(g82
g63
NtRp1859
(dp1860
g66
(dp1861
g93
g94
ssg75
g1851
sg68
(lp1862
S':'
asbag61
(g82
g63
NtRp1863
(dp1864
g66
(dp1865
sg75
g1851
sg68
(lp1866
g61
(g62
g63
NtRp1867
(dp1868
g66
(dp1869
g74
I4
ssg75
g1863
sg68
(lp1870
S"set(['C:\\\\web2py\\\\applications\\\\admin\\\\', 'C:\\\\web2py\\\\applications\\\\welcome\\\\', 'C:\\\\web2py\\\\applications\\\\unioeste_code\\\\'])"
p1871
asbasbasbag61
(g77
g63
NtRp1872
(dp1873
g66
(dp1874
sg75
g1847
sg68
(lp1875
g61
(g82
g63
NtRp1876
(dp1877
g66
(dp1878
g86
g87
ssg75
g1872
sg68
(lp1879
g799
asbag61
(g82
g63
NtRp1880
(dp1881
g66
(dp1882
g93
g94
ssg75
g1872
sg68
(lp1883
S':'
asbag61
(g82
g63
NtRp1884
(dp1885
g66
(dp1886
sg75
g1872
sg68
(lp1887
g61
(g62
g63
NtRp1888
(dp1889
g66
(dp1890
g74
I4
ssg75
g1884
sg68
(lp1891
g812
asbasbasbag61
(g77
g63
NtRp1892
(dp1893
g66
(dp1894
sg75
g1847
sg68
(lp1895
g61
(g82
g63
NtRp1896
(dp1897
g66
(dp1898
g86
g87
ssg75
g1892
sg68
(lp1899
g821
asbag61
(g82
g63
NtRp1900
(dp1901
g66
(dp1902
g93
g94
ssg75
g1892
sg68
(lp1903
S':'
asbag61
(g82
g63
NtRp1904
(dp1905
g66
(dp1906
sg75
g1892
sg68
(lp1907
g61
(g62
g63
NtRp1908
(dp1909
g66
(dp1910
g74
I4
ssg75
g1904
sg68
(lp1911
g61
(g70
g63
NtRp1912
(dp1913
g66
(dp1914
g74
I3
ssg75
Nsg68
(lp1915
sbasbasbasbag61
(g77
g63
NtRp1916
(dp1917
g66
(dp1918
sg75
g1847
sg68
(lp1919
g61
(g82
g63
NtRp1920
(dp1921
g66
(dp1922
g86
g87
ssg75
g1916
sg68
(lp1923
g846
asbag61
(g82
g63
NtRp1924
(dp1925
g66
(dp1926
g93
g94
ssg75
g1916
sg68
(lp1927
S':'
asbag61
(g82
g63
NtRp1928
(dp1929
g66
(dp1930
sg75
g1916
sg68
(lp1931
g61
(g62
g63
NtRp1932
(dp1933
g66
(dp1934
g74
I4
ssg75
g1928
sg68
(lp1935
S"<Values at 0x325c300: {'verbose': False, 'ip': '127.0.0.1', 'shutdown_timeout': 5, 'taskbar': False, 'nocron': False, 'pid_filename': 'httpserver.pid', 'maxthreads': None, 'softcron': False, 'server_name': 'Pedro-PC', 'bpython': False, 'nogui': False, 'port': 8000, 'extcron': False, 'debuglevel': 30, 'test': None, 'folder': 'C:\\\\web2py', 'config': '', 'import_models': False, 'winservice': '', 'shell': None, 'run': '', 'log_filename': 'httpserver.log', 'args': [''], 'socket_timeout': 5, 'ssl_ca_certificate': None, 'scheduler': None, 'profiler_filename': None, 'ssl_private_key': '', 'password': '<ask>', 'request_queue_size': 5, 'ssl_certificate': '', 'cronjob': False, 'numthreads': None, 'quiet': False, 'interfaces': None, 'minthreads': None, 'timeout': 10, 'plain': False, 'nobanner': False}>"
p1936
asbasbasbag61
(g77
g63
NtRp1937
(dp1938
g66
(dp1939
sg75
g1847
sg68
(lp1940
g61
(g82
g63
NtRp1941
(dp1942
g66
(dp1943
g86
g87
ssg75
g1937
sg68
(lp1944
g868
asbag61
(g82
g63
NtRp1945
(dp1946
g66
(dp1947
g93
g94
ssg75
g1937
sg68
(lp1948
S':'
asbag61
(g82
g63
NtRp1949
(dp1950
g66
(dp1951
sg75
g1937
sg68
(lp1952
g61
(g62
g63
NtRp1953
(dp1954
g66
(dp1955
g74
I4
ssg75
g1949
sg68
(lp1956
S'set([])'
p1957
asbasbasbag61
(g77
g63
NtRp1958
(dp1959
g66
(dp1960
sg75
g1847
sg68
(lp1961
g61
(g82
g63
NtRp1962
(dp1963
g66
(dp1964
g86
g87
ssg75
g1958
sg68
(lp1965
g890
asbag61
(g82
g63
NtRp1966
(dp1967
g66
(dp1968
g93
g94
ssg75
g1958
sg68
(lp1969
S':'
asbag61
(g82
g63
NtRp1970
(dp1971
g66
(dp1972
sg75
g1958
sg68
(lp1973
g61
(g62
g63
NtRp1974
(dp1975
g66
(dp1976
g74
I4
ssg75
g1970
sg68
(lp1977
g104
asbasbasbag61
(g77
g63
NtRp1978
(dp1979
g66
(dp1980
sg75
g1847
sg68
(lp1981
g61
(g82
g63
NtRp1982
(dp1983
g66
(dp1984
g86
g87
ssg75
g1978
sg68
(lp1985
g911
asbag61
(g82
g63
NtRp1986
(dp1987
g66
(dp1988
g93
g94
ssg75
g1978
sg68
(lp1989
S':'
asbag61
(g82
g63
NtRp1990
(dp1991
g66
(dp1992
sg75
g1978
sg68
(lp1993
g61
(g62
g63
NtRp1994
(dp1995
g66
(dp1996
g74
I4
ssg75
g1990
sg68
(lp1997
g924
asbasbasbag61
(g77
g63
NtRp1998
(dp1999
g66
(dp2000
sg75
g1847
sg68
(lp2001
g61
(g82
g63
NtRp2002
(dp2003
g66
(dp2004
g86
g87
ssg75
g1998
sg68
(lp2005
g1152
asbag61
(g82
g63
NtRp2006
(dp2007
g66
(dp2008
g93
g94
ssg75
g1998
sg68
(lp2009
S':'
asbag61
(g82
g63
NtRp2010
(dp2011
g66
(dp2012
sg75
g1998
sg68
(lp2013
g61
(g62
g63
NtRp2014
(dp2015
g66
(dp2016
g74
I4
ssg75
g2010
sg68
(lp2017
g104
asbasbasbag61
(g77
g63
NtRp2018
(dp2019
g66
(dp2020
sg75
g1847
sg68
(lp2021
g61
(g82
g63
NtRp2022
(dp2023
g66
(dp2024
g86
g87
ssg75
g2018
sg68
(lp2025
g1173
asbag61
(g82
g63
NtRp2026
(dp2027
g66
(dp2028
g93
g94
ssg75
g2018
sg68
(lp2029
S':'
asbag61
(g82
g63
NtRp2030
(dp2031
g66
(dp2032
sg75
g2018
sg68
(lp2033
g61
(g62
g63
NtRp2034
(dp2035
g66
(dp2036
g74
I4
ssg75
g2030
sg68
(lp2037
g104
asbasbasbag61
(g77
g63
NtRp2038
(dp2039
g66
(dp2040
sg75
g1847
sg68
(lp2041
g61
(g82
g63
NtRp2042
(dp2043
g66
(dp2044
g86
g87
ssg75
g2038
sg68
(lp2045
g1411
asbag61
(g82
g63
NtRp2046
(dp2047
g66
(dp2048
g93
g94
ssg75
g2038
sg68
(lp2049
S':'
asbag61
(g82
g63
NtRp2050
(dp2051
g66
(dp2052
sg75
g2038
sg68
(lp2053
g61
(g62
g63
NtRp2054
(dp2055
g66
(dp2056
g74
I4
ssg75
g2050
sg68
(lp2057
g1424
asbasbasbag61
(g77
g63
NtRp2058
(dp2059
g66
(dp2060
sg75
g1847
sg68
(lp2061
g61
(g82
g63
NtRp2062
(dp2063
g66
(dp2064
g86
g87
ssg75
g2058
sg68
(lp2065
g1454
asbag61
(g82
g63
NtRp2066
(dp2067
g66
(dp2068
g93
g94
ssg75
g2058
sg68
(lp2069
S':'
asbag61
(g82
g63
NtRp2070
(dp2071
g66
(dp2072
sg75
g2058
sg68
(lp2073
g61
(g62
g63
NtRp2074
(dp2075
g66
(dp2076
g74
I4
ssg75
g2070
sg68
(lp2077
g61
(g70
g63
NtRp2078
(dp2079
g66
(dp2080
g74
I3
ssg75
Nsg68
(lp2081
g61
(g77
g63
NtRp2082
(dp2083
g66
(dp2084
sg75
g2078
sg68
(lp2085
g61
(g82
g63
NtRp2086
(dp2087
g66
(dp2088
sg75
g2082
sg68
(lp2089
g61
(g62
g63
NtRp2090
(dp2091
g66
(dp2092
g74
I3
ssg75
g2086
sg68
(lp2093
S'1'
asbasbasbag61
(g77
g63
NtRp2094
(dp2095
g66
(dp2096
sg75
g2078
sg68
(lp2097
g61
(g82
g63
NtRp2098
(dp2099
g66
(dp2100
sg75
g2094
sg68
(lp2101
g61
(g62
g63
NtRp2102
(dp2103
g66
(dp2104
g74
I3
ssg75
g2098
sg68
(lp2105
S'99'
p2106
asbasbasbag61
(g77
g63
NtRp2107
(dp2108
g66
(dp2109
sg75
g2078
sg68
(lp2110
g61
(g82
g63
NtRp2111
(dp2112
g66
(dp2113
sg75
g2107
sg68
(lp2114
g61
(g62
g63
NtRp2115
(dp2116
g66
(dp2117
g74
I3
ssg75
g2111
sg68
(lp2118
S'7'
asbasbasbag61
(g77
g63
NtRp2119
(dp2120
g66
(dp2121
sg75
g2078
sg68
(lp2122
g61
(g82
g63
NtRp2123
(dp2124
g66
(dp2125
sg75
g2119
sg68
(lp2126
g61
(g62
g63
NtRp2127
(dp2128
g66
(dp2129
g74
I3
ssg75
g2123
sg68
(lp2130
S'datetime.datetime(2012, 3, 4, 22, 12, 8)'
p2131
asbasbasbag61
(g77
g63
NtRp2132
(dp2133
g66
(dp2134
sg75
g2078
sg68
(lp2135
g61
(g82
g63
NtRp2136
(dp2137
g66
(dp2138
sg75
g2132
sg68
(lp2139
g61
(g62
g63
NtRp2140
(dp2141
g66
(dp2142
g74
I3
ssg75
g2136
sg68
(lp2143
g1533
asbasbasbasbasbasbasbasbasbasbasbag61
(g77
g63
NtRp2144
(dp2145
g66
(dp2146
sg75
g71
sg68
(lp2147
g61
(g82
g63
NtRp2148
(dp2149
g66
(dp2150
g86
g87
ssg75
g2144
sg68
(lp2151
S'is_https'
p2152
asbag61
(g82
g63
NtRp2153
(dp2154
g66
(dp2155
g93
g94
ssg75
g2144
sg68
(lp2156
S':'
asbag61
(g82
g63
NtRp2157
(dp2158
g66
(dp2159
sg75
g2144
sg68
(lp2160
g61
(g62
g63
NtRp2161
(dp2162
g66
(dp2163
g74
I5
ssg75
g2157
sg68
(lp2164
g104
asbasbasbag61
(g77
g63
NtRp2165
(dp2166
g66
(dp2167
sg75
g71
sg68
(lp2168
g61
(g82
g63
NtRp2169
(dp2170
g66
(dp2171
g86
g87
ssg75
g2165
sg68
(lp2172
S'is_local'
p2173
asbag61
(g82
g63
NtRp2174
(dp2175
g66
(dp2176
g93
g94
ssg75
g2165
sg68
(lp2177
S':'
asbag61
(g82
g63
NtRp2178
(dp2179
g66
(dp2180
sg75
g2165
sg68
(lp2181
g61
(g62
g63
NtRp2182
(dp2183
g66
(dp2184
g74
I5
ssg75
g2178
sg68
(lp2185
g1642
asbasbasbag61
(g77
g63
NtRp2186
(dp2187
g66
(dp2188
sg75
g71
sg68
(lp2189
g61
(g82
g63
NtRp2190
(dp2191
g66
(dp2192
g86
g87
ssg75
g2186
sg68
(lp2193
S'is_restful'
p2194
asbag61
(g82
g63
NtRp2195
(dp2196
g66
(dp2197
g93
g94
ssg75
g2186
sg68
(lp2198
S':'
asbag61
(g82
g63
NtRp2199
(dp2200
g66
(dp2201
sg75
g2186
sg68
(lp2202
g61
(g62
g63
NtRp2203
(dp2204
g66
(dp2205
g74
I5
ssg75
g2199
sg68
(lp2206
g104
asbasbasbag61
(g77
g63
NtRp2207
(dp2208
g66
(dp2209
sg75
g71
sg68
(lp2210
g61
(g82
g63
NtRp2211
(dp2212
g66
(dp2213
g86
g87
ssg75
g2207
sg68
(lp2214
S'now'
p2215
asbag61
(g82
g63
NtRp2216
(dp2217
g66
(dp2218
g93
g94
ssg75
g2207
sg68
(lp2219
S':'
asbag61
(g82
g63
NtRp2220
(dp2221
g66
(dp2222
sg75
g2207
sg68
(lp2223
g61
(g62
g63
NtRp2224
(dp2225
g66
(dp2226
g74
I5
ssg75
g2220
sg68
(lp2227
S'datetime.datetime(2012, 8, 1, 17, 46, 9, 876000)'
p2228
asbasbasbag61
(g77
g63
NtRp2229
(dp2230
g66
(dp2231
sg75
g71
sg68
(lp2232
g61
(g82
g63
NtRp2233
(dp2234
g66
(dp2235
g86
g87
ssg75
g2229
sg68
(lp2236
S'post_vars'
p2237
asbag61
(g82
g63
NtRp2238
(dp2239
g66
(dp2240
g93
g94
ssg75
g2229
sg68
(lp2241
S':'
asbag61
(g82
g63
NtRp2242
(dp2243
g66
(dp2244
sg75
g2229
sg68
(lp2245
g61
(g62
g63
NtRp2246
(dp2247
g66
(dp2248
g74
I5
ssg75
g2242
sg68
(lp2249
g61
(g70
g63
NtRp2250
(dp2251
g66
(dp2252
g74
I4
ssg75
Nsg68
(lp2253
sbasbasbasbag61
(g77
g63
NtRp2254
(dp2255
g66
(dp2256
sg75
g71
sg68
(lp2257
g61
(g82
g63
NtRp2258
(dp2259
g66
(dp2260
g86
g87
ssg75
g2254
sg68
(lp2261
S'url'
p2262
asbag61
(g82
g63
NtRp2263
(dp2264
g66
(dp2265
g93
g94
ssg75
g2254
sg68
(lp2266
S':'
asbag61
(g82
g63
NtRp2267
(dp2268
g66
(dp2269
sg75
g2254
sg68
(lp2270
g61
(g62
g63
NtRp2271
(dp2272
g66
(dp2273
g74
I5
ssg75
g2267
sg68
(lp2274
S'/unioeste_code/default/index'
p2275
asbasbasbag61
(g77
g63
NtRp2276
(dp2277
g66
(dp2278
sg75
g71
sg68
(lp2279
g61
(g82
g63
NtRp2280
(dp2281
g66
(dp2282
g86
g87
ssg75
g2276
sg68
(lp2283
S'utcnow'
p2284
asbag61
(g82
g63
NtRp2285
(dp2286
g66
(dp2287
g93
g94
ssg75
g2276
sg68
(lp2288
S':'
asbag61
(g82
g63
NtRp2289
(dp2290
g66
(dp2291
sg75
g2276
sg68
(lp2292
g61
(g62
g63
NtRp2293
(dp2294
g66
(dp2295
g74
I5
ssg75
g2289
sg68
(lp2296
S'datetime.datetime(2012, 8, 1, 20, 46, 9, 876000)'
p2297
asbasbasbag61
(g77
g63
NtRp2298
(dp2299
g66
(dp2300
sg75
g71
sg68
(lp2301
g61
(g82
g63
NtRp2302
(dp2303
g66
(dp2304
g86
g87
ssg75
g2298
sg68
(lp2305
S'uuid'
p2306
asbag61
(g82
g63
NtRp2307
(dp2308
g66
(dp2309
g93
g94
ssg75
g2298
sg68
(lp2310
S':'
asbag61
(g82
g63
NtRp2311
(dp2312
g66
(dp2313
sg75
g2298
sg68
(lp2314
g61
(g62
g63
NtRp2315
(dp2316
g66
(dp2317
g74
I5
ssg75
g2311
sg68
(lp2318
S'unioeste_code/127.0.0.1.2012-08-01.17-46-09.f7bc0264-eb90-41c8-a75e-55b23d5675d8'
p2319
asbasbasbag61
(g77
g63
NtRp2320
(dp2321
g66
(dp2322
sg75
g71
sg68
(lp2323
g61
(g82
g63
NtRp2324
(dp2325
g66
(dp2326
g86
g87
ssg75
g2320
sg68
(lp2327
S'vars'
p2328
asbag61
(g82
g63
NtRp2329
(dp2330
g66
(dp2331
g93
g94
ssg75
g2320
sg68
(lp2332
S':'
asbag61
(g82
g63
NtRp2333
(dp2334
g66
(dp2335
sg75
g2320
sg68
(lp2336
g61
(g62
g63
NtRp2337
(dp2338
g66
(dp2339
g74
I5
ssg75
g2333
sg68
(lp2340
g61
(g70
g63
NtRp2341
(dp2342
g66
(dp2343
g74
I4
ssg75
Nsg68
(lp2344
sbasbasbasbag61
(g77
g63
NtRp2345
(dp2346
g66
(dp2347
sg75
g71
sg68
(lp2348
g61
(g82
g63
NtRp2349
(dp2350
g66
(dp2351
g86
g87
ssg75
g2345
sg68
(lp2352
S'wsgi'
p2353
asbag61
(g82
g63
NtRp2354
(dp2355
g66
(dp2356
g93
g94
ssg75
g2345
sg68
(lp2357
S':'
asbag61
(g82
g63
NtRp2358
(dp2359
g66
(dp2360
sg75
g2345
sg68
(lp2361
g61
(g62
g63
NtRp2362
(dp2363
g66
(dp2364
g74
I5
ssg75
g2358
sg68
(lp2365
g61
(g70
g63
NtRp2366
(dp2367
g66
(dp2368
g74
I4
ssg75
Nsg68
(lp2369
g61
(g77
g63
NtRp2370
(dp2371
g66
(dp2372
sg75
g2366
sg68
(lp2373
g61
(g82
g63
NtRp2374
(dp2375
g66
(dp2376
g86
g87
ssg75
g2370
sg68
(lp2377
S'environ'
p2378
asbag61
(g82
g63
NtRp2379
(dp2380
g66
(dp2381
g93
g94
ssg75
g2370
sg68
(lp2382
S':'
asbag61
(g82
g63
NtRp2383
(dp2384
g66
(dp2385
sg75
g2370
sg68
(lp2386
g61
(g62
g63
NtRp2387
(dp2388
g66
(dp2389
g74
I4
ssg75
g2383
sg68
(lp2390
g61
(g70
g63
NtRp2391
(dp2392
g66
(dp2393
g74
I3
ssg75
Nsg68
(lp2394
g61
(g77
g63
NtRp2395
(dp2396
g66
(dp2397
sg75
g2391
sg68
(lp2398
g61
(g82
g63
NtRp2399
(dp2400
g66
(dp2401
g86
g87
ssg75
g2395
sg68
(lp2402
S'HTTP_ACCEPT'
p2403
asbag61
(g82
g63
NtRp2404
(dp2405
g66
(dp2406
g93
g94
ssg75
g2395
sg68
(lp2407
S':'
asbag61
(g82
g63
NtRp2408
(dp2409
g66
(dp2410
sg75
g2395
sg68
(lp2411
g61
(g62
g63
NtRp2412
(dp2413
g66
(dp2414
g74
I3
ssg75
g2408
sg68
(lp2415
g946
asbasbasbag61
(g77
g63
NtRp2416
(dp2417
g66
(dp2418
sg75
g2391
sg68
(lp2419
g61
(g82
g63
NtRp2420
(dp2421
g66
(dp2422
g86
g87
ssg75
g2416
sg68
(lp2423
S'HTTP_ACCEPT_CHARSET'
p2424
asbag61
(g82
g63
NtRp2425
(dp2426
g66
(dp2427
g93
g94
ssg75
g2416
sg68
(lp2428
S':'
asbag61
(g82
g63
NtRp2429
(dp2430
g66
(dp2431
sg75
g2416
sg68
(lp2432
g61
(g62
g63
NtRp2433
(dp2434
g66
(dp2435
g74
I3
ssg75
g2429
sg68
(lp2436
g968
asbasbasbag61
(g77
g63
NtRp2437
(dp2438
g66
(dp2439
sg75
g2391
sg68
(lp2440
g61
(g82
g63
NtRp2441
(dp2442
g66
(dp2443
g86
g87
ssg75
g2437
sg68
(lp2444
S'HTTP_ACCEPT_ENCODING'
p2445
asbag61
(g82
g63
NtRp2446
(dp2447
g66
(dp2448
g93
g94
ssg75
g2437
sg68
(lp2449
S':'
asbag61
(g82
g63
NtRp2450
(dp2451
g66
(dp2452
sg75
g2437
sg68
(lp2453
g61
(g62
g63
NtRp2454
(dp2455
g66
(dp2456
g74
I3
ssg75
g2450
sg68
(lp2457
g990
asbasbasbag61
(g77
g63
NtRp2458
(dp2459
g66
(dp2460
sg75
g2391
sg68
(lp2461
g61
(g82
g63
NtRp2462
(dp2463
g66
(dp2464
g86
g87
ssg75
g2458
sg68
(lp2465
S'HTTP_ACCEPT_LANGUAGE'
p2466
asbag61
(g82
g63
NtRp2467
(dp2468
g66
(dp2469
g93
g94
ssg75
g2458
sg68
(lp2470
S':'
asbag61
(g82
g63
NtRp2471
(dp2472
g66
(dp2473
sg75
g2458
sg68
(lp2474
g61
(g62
g63
NtRp2475
(dp2476
g66
(dp2477
g74
I3
ssg75
g2471
sg68
(lp2478
g1012
asbasbasbag61
(g77
g63
NtRp2479
(dp2480
g66
(dp2481
sg75
g2391
sg68
(lp2482
g61
(g82
g63
NtRp2483
(dp2484
g66
(dp2485
g86
g87
ssg75
g2479
sg68
(lp2486
S'HTTP_CACHE_CONTROL'
p2487
asbag61
(g82
g63
NtRp2488
(dp2489
g66
(dp2490
g93
g94
ssg75
g2479
sg68
(lp2491
S':'
asbag61
(g82
g63
NtRp2492
(dp2493
g66
(dp2494
sg75
g2479
sg68
(lp2495
g61
(g62
g63
NtRp2496
(dp2497
g66
(dp2498
g74
I3
ssg75
g2492
sg68
(lp2499
g1034
asbasbasbag61
(g77
g63
NtRp2500
(dp2501
g66
(dp2502
sg75
g2391
sg68
(lp2503
g61
(g82
g63
NtRp2504
(dp2505
g66
(dp2506
g86
g87
ssg75
g2500
sg68
(lp2507
S'HTTP_CONNECTION'
p2508
asbag61
(g82
g63
NtRp2509
(dp2510
g66
(dp2511
g93
g94
ssg75
g2500
sg68
(lp2512
S':'
asbag61
(g82
g63
NtRp2513
(dp2514
g66
(dp2515
sg75
g2500
sg68
(lp2516
g61
(g62
g63
NtRp2517
(dp2518
g66
(dp2519
g74
I3
ssg75
g2513
sg68
(lp2520
g1056
asbasbasbag61
(g77
g63
NtRp2521
(dp2522
g66
(dp2523
sg75
g2391
sg68
(lp2524
g61
(g82
g63
NtRp2525
(dp2526
g66
(dp2527
g86
g87
ssg75
g2521
sg68
(lp2528
S'HTTP_COOKIE'
p2529
asbag61
(g82
g63
NtRp2530
(dp2531
g66
(dp2532
g93
g94
ssg75
g2521
sg68
(lp2533
S':'
asbag61
(g82
g63
NtRp2534
(dp2535
g66
(dp2536
sg75
g2521
sg68
(lp2537
g61
(g62
g63
NtRp2538
(dp2539
g66
(dp2540
g74
I3
ssg75
g2534
sg68
(lp2541
g1078
asbasbasbag61
(g77
g63
NtRp2542
(dp2543
g66
(dp2544
sg75
g2391
sg68
(lp2545
g61
(g82
g63
NtRp2546
(dp2547
g66
(dp2548
g86
g87
ssg75
g2542
sg68
(lp2549
S'HTTP_DNT'
p2550
asbag61
(g82
g63
NtRp2551
(dp2552
g66
(dp2553
g93
g94
ssg75
g2542
sg68
(lp2554
S':'
asbag61
(g82
g63
NtRp2555
(dp2556
g66
(dp2557
sg75
g2542
sg68
(lp2558
g61
(g62
g63
NtRp2559
(dp2560
g66
(dp2561
g74
I3
ssg75
g2555
sg68
(lp2562
S'1'
asbasbasbag61
(g77
g63
NtRp2563
(dp2564
g66
(dp2565
sg75
g2391
sg68
(lp2566
g61
(g82
g63
NtRp2567
(dp2568
g66
(dp2569
g86
g87
ssg75
g2563
sg68
(lp2570
S'HTTP_HOST'
p2571
asbag61
(g82
g63
NtRp2572
(dp2573
g66
(dp2574
g93
g94
ssg75
g2563
sg68
(lp2575
S':'
asbag61
(g82
g63
NtRp2576
(dp2577
g66
(dp2578
sg75
g2563
sg68
(lp2579
g61
(g62
g63
NtRp2580
(dp2581
g66
(dp2582
g74
I3
ssg75
g2576
sg68
(lp2583
g1121
asbasbasbag61
(g77
g63
NtRp2584
(dp2585
g66
(dp2586
sg75
g2391
sg68
(lp2587
g61
(g82
g63
NtRp2588
(dp2589
g66
(dp2590
g86
g87
ssg75
g2584
sg68
(lp2591
S'HTTP_USER_AGENT'
p2592
asbag61
(g82
g63
NtRp2593
(dp2594
g66
(dp2595
g93
g94
ssg75
g2584
sg68
(lp2596
S':'
asbag61
(g82
g63
NtRp2597
(dp2598
g66
(dp2599
sg75
g2584
sg68
(lp2600
g61
(g62
g63
NtRp2601
(dp2602
g66
(dp2603
g74
I3
ssg75
g2597
sg68
(lp2604
g1143
asbasbasbag61
(g77
g63
NtRp2605
(dp2606
g66
(dp2607
sg75
g2391
sg68
(lp2608
g61
(g82
g63
NtRp2609
(dp2610
g66
(dp2611
g86
g87
ssg75
g2605
sg68
(lp2612
S'PATH_INFO'
p2613
asbag61
(g82
g63
NtRp2614
(dp2615
g66
(dp2616
g93
g94
ssg75
g2605
sg68
(lp2617
S':'
asbag61
(g82
g63
NtRp2618
(dp2619
g66
(dp2620
sg75
g2605
sg68
(lp2621
g61
(g62
g63
NtRp2622
(dp2623
g66
(dp2624
g74
I3
ssg75
g2618
sg68
(lp2625
g1207
asbasbasbag61
(g77
g63
NtRp2626
(dp2627
g66
(dp2628
sg75
g2391
sg68
(lp2629
g61
(g82
g63
NtRp2630
(dp2631
g66
(dp2632
g86
g87
ssg75
g2626
sg68
(lp2633
S'QUERY_STRING'
p2634
asbag61
(g82
g63
NtRp2635
(dp2636
g66
(dp2637
g93
g94
ssg75
g2626
sg68
(lp2638
S':'
asbag61
(g82
g63
NtRp2639
(dp2640
g66
(dp2641
sg75
g2626
sg68
(lp2642
g61
(g62
g63
NtRp2643
(dp2644
g66
(dp2645
g74
I3
ssg75
g2639
sg68
(lp2646
S''
asbasbasbag61
(g77
g63
NtRp2647
(dp2648
g66
(dp2649
sg75
g2391
sg68
(lp2650
g61
(g82
g63
NtRp2651
(dp2652
g66
(dp2653
g86
g87
ssg75
g2647
sg68
(lp2654
S'REMOTE_ADDR'
p2655
asbag61
(g82
g63
NtRp2656
(dp2657
g66
(dp2658
g93
g94
ssg75
g2647
sg68
(lp2659
S':'
asbag61
(g82
g63
NtRp2660
(dp2661
g66
(dp2662
sg75
g2647
sg68
(lp2663
g61
(g62
g63
NtRp2664
(dp2665
g66
(dp2666
g74
I3
ssg75
g2660
sg68
(lp2667
g194
asbasbasbag61
(g77
g63
NtRp2668
(dp2669
g66
(dp2670
sg75
g2391
sg68
(lp2671
g61
(g82
g63
NtRp2672
(dp2673
g66
(dp2674
g86
g87
ssg75
g2668
sg68
(lp2675
S'REMOTE_PORT'
p2676
asbag61
(g82
g63
NtRp2677
(dp2678
g66
(dp2679
g93
g94
ssg75
g2668
sg68
(lp2680
S':'
asbag61
(g82
g63
NtRp2681
(dp2682
g66
(dp2683
sg75
g2668
sg68
(lp2684
g61
(g62
g63
NtRp2685
(dp2686
g66
(dp2687
g74
I3
ssg75
g2681
sg68
(lp2688
g1271
asbasbasbag61
(g77
g63
NtRp2689
(dp2690
g66
(dp2691
sg75
g2391
sg68
(lp2692
g61
(g82
g63
NtRp2693
(dp2694
g66
(dp2695
g86
g87
ssg75
g2689
sg68
(lp2696
S'REQUEST_METHOD'
p2697
asbag61
(g82
g63
NtRp2698
(dp2699
g66
(dp2700
g93
g94
ssg75
g2689
sg68
(lp2701
S':'
asbag61
(g82
g63
NtRp2702
(dp2703
g66
(dp2704
sg75
g2689
sg68
(lp2705
g61
(g62
g63
NtRp2706
(dp2707
g66
(dp2708
g74
I3
ssg75
g2702
sg68
(lp2709
g1293
asbasbasbag61
(g77
g63
NtRp2710
(dp2711
g66
(dp2712
sg75
g2391
sg68
(lp2713
g61
(g82
g63
NtRp2714
(dp2715
g66
(dp2716
g86
g87
ssg75
g2710
sg68
(lp2717
S'SCRIPT_NAME'
p2718
asbag61
(g82
g63
NtRp2719
(dp2720
g66
(dp2721
g93
g94
ssg75
g2710
sg68
(lp2722
S':'
asbag61
(g82
g63
NtRp2723
(dp2724
g66
(dp2725
sg75
g2710
sg68
(lp2726
g61
(g62
g63
NtRp2727
(dp2728
g66
(dp2729
g74
I3
ssg75
g2723
sg68
(lp2730
S''
asbasbasbag61
(g77
g63
NtRp2731
(dp2732
g66
(dp2733
sg75
g2391
sg68
(lp2734
g61
(g82
g63
NtRp2735
(dp2736
g66
(dp2737
g86
g87
ssg75
g2731
sg68
(lp2738
S'SERVER_NAME'
p2739
asbag61
(g82
g63
NtRp2740
(dp2741
g66
(dp2742
g93
g94
ssg75
g2731
sg68
(lp2743
S':'
asbag61
(g82
g63
NtRp2744
(dp2745
g66
(dp2746
sg75
g2731
sg68
(lp2747
g61
(g62
g63
NtRp2748
(dp2749
g66
(dp2750
g74
I3
ssg75
g2744
sg68
(lp2751
g1336
asbasbasbag61
(g77
g63
NtRp2752
(dp2753
g66
(dp2754
sg75
g2391
sg68
(lp2755
g61
(g82
g63
NtRp2756
(dp2757
g66
(dp2758
g86
g87
ssg75
g2752
sg68
(lp2759
S'SERVER_PORT'
p2760
asbag61
(g82
g63
NtRp2761
(dp2762
g66
(dp2763
g93
g94
ssg75
g2752
sg68
(lp2764
S':'
asbag61
(g82
g63
NtRp2765
(dp2766
g66
(dp2767
sg75
g2752
sg68
(lp2768
g61
(g62
g63
NtRp2769
(dp2770
g66
(dp2771
g74
I3
ssg75
g2765
sg68
(lp2772
g1358
asbasbasbag61
(g77
g63
NtRp2773
(dp2774
g66
(dp2775
sg75
g2391
sg68
(lp2776
g61
(g82
g63
NtRp2777
(dp2778
g66
(dp2779
g86
g87
ssg75
g2773
sg68
(lp2780
S'SERVER_PROTOCOL'
p2781
asbag61
(g82
g63
NtRp2782
(dp2783
g66
(dp2784
g93
g94
ssg75
g2773
sg68
(lp2785
S':'
asbag61
(g82
g63
NtRp2786
(dp2787
g66
(dp2788
sg75
g2773
sg68
(lp2789
g61
(g62
g63
NtRp2790
(dp2791
g66
(dp2792
g74
I3
ssg75
g2786
sg68
(lp2793
g1380
asbasbasbag61
(g77
g63
NtRp2794
(dp2795
g66
(dp2796
sg75
g2391
sg68
(lp2797
g61
(g82
g63
NtRp2798
(dp2799
g66
(dp2800
g86
g87
ssg75
g2794
sg68
(lp2801
S'SERVER_SOFTWARE'
p2802
asbag61
(g82
g63
NtRp2803
(dp2804
g66
(dp2805
g93
g94
ssg75
g2794
sg68
(lp2806
S':'
asbag61
(g82
g63
NtRp2807
(dp2808
g66
(dp2809
sg75
g2794
sg68
(lp2810
g61
(g62
g63
NtRp2811
(dp2812
g66
(dp2813
g74
I3
ssg75
g2807
sg68
(lp2814
g1402
asbasbasbag61
(g77
g63
NtRp2815
(dp2816
g66
(dp2817
sg75
g2391
sg68
(lp2818
g61
(g82
g63
NtRp2819
(dp2820
g66
(dp2821
g86
g87
ssg75
g2815
sg68
(lp2822
S'wsgi.errors'
p2823
asbag61
(g82
g63
NtRp2824
(dp2825
g66
(dp2826
g93
g94
ssg75
g2815
sg68
(lp2827
S':'
asbag61
(g82
g63
NtRp2828
(dp2829
g66
(dp2830
sg75
g2815
sg68
(lp2831
g61
(g62
g63
NtRp2832
(dp2833
g66
(dp2834
g74
I3
ssg75
g2828
sg68
(lp2835
S'<__main__.Stderr object at 0x01D96670>'
p2836
asbasbasbag61
(g77
g63
NtRp2837
(dp2838
g66
(dp2839
sg75
g2391
sg68
(lp2840
g61
(g82
g63
NtRp2841
(dp2842
g66
(dp2843
g86
g87
ssg75
g2837
sg68
(lp2844
S'wsgi.file_wrapper'
p2845
asbag61
(g82
g63
NtRp2846
(dp2847
g66
(dp2848
g93
g94
ssg75
g2837
sg68
(lp2849
S':'
asbag61
(g82
g63
NtRp2850
(dp2851
g66
(dp2852
sg75
g2837
sg68
(lp2853
g61
(g62
g63
NtRp2854
(dp2855
g66
(dp2856
g74
I3
ssg75
g2850
sg68
(lp2857
S'<class wsgiref.util.FileWrapper at 0x0304DE10>'
p2858
asbasbasbag61
(g77
g63
NtRp2859
(dp2860
g66
(dp2861
sg75
g2391
sg68
(lp2862
g61
(g82
g63
NtRp2863
(dp2864
g66
(dp2865
g86
g87
ssg75
g2859
sg68
(lp2866
S'wsgi.input'
p2867
asbag61
(g82
g63
NtRp2868
(dp2869
g66
(dp2870
g93
g94
ssg75
g2859
sg68
(lp2871
S':'
asbag61
(g82
g63
NtRp2872
(dp2873
g66
(dp2874
sg75
g2859
sg68
(lp2875
g61
(g62
g63
NtRp2876
(dp2877
g66
(dp2878
g74
I3
ssg75
g2872
sg68
(lp2879
S'<cStringIO.StringO object at 0x06F9EAE0>'
p2880
asbasbasbag61
(g77
g63
NtRp2881
(dp2882
g66
(dp2883
sg75
g2391
sg68
(lp2884
g61
(g82
g63
NtRp2885
(dp2886
g66
(dp2887
g86
g87
ssg75
g2881
sg68
(lp2888
S'wsgi.multiprocess'
p2889
asbag61
(g82
g63
NtRp2890
(dp2891
g66
(dp2892
g93
g94
ssg75
g2881
sg68
(lp2893
S':'
asbag61
(g82
g63
NtRp2894
(dp2895
g66
(dp2896
sg75
g2881
sg68
(lp2897
g61
(g62
g63
NtRp2898
(dp2899
g66
(dp2900
g74
I3
ssg75
g2894
sg68
(lp2901
g104
asbasbasbag61
(g77
g63
NtRp2902
(dp2903
g66
(dp2904
sg75
g2391
sg68
(lp2905
g61
(g82
g63
NtRp2906
(dp2907
g66
(dp2908
g86
g87
ssg75
g2902
sg68
(lp2909
S'wsgi.multithread'
p2910
asbag61
(g82
g63
NtRp2911
(dp2912
g66
(dp2913
g93
g94
ssg75
g2902
sg68
(lp2914
S':'
asbag61
(g82
g63
NtRp2915
(dp2916
g66
(dp2917
sg75
g2902
sg68
(lp2918
g61
(g62
g63
NtRp2919
(dp2920
g66
(dp2921
g74
I3
ssg75
g2915
sg68
(lp2922
g1642
asbasbasbag61
(g77
g63
NtRp2923
(dp2924
g66
(dp2925
sg75
g2391
sg68
(lp2926
g61
(g82
g63
NtRp2927
(dp2928
g66
(dp2929
g86
g87
ssg75
g2923
sg68
(lp2930
S'wsgi.run_once'
p2931
asbag61
(g82
g63
NtRp2932
(dp2933
g66
(dp2934
g93
g94
ssg75
g2923
sg68
(lp2935
S':'
asbag61
(g82
g63
NtRp2936
(dp2937
g66
(dp2938
sg75
g2923
sg68
(lp2939
g61
(g62
g63
NtRp2940
(dp2941
g66
(dp2942
g74
I3
ssg75
g2936
sg68
(lp2943
g104
asbasbasbag61
(g77
g63
NtRp2944
(dp2945
g66
(dp2946
sg75
g2391
sg68
(lp2947
g61
(g82
g63
NtRp2948
(dp2949
g66
(dp2950
g86
g87
ssg75
g2944
sg68
(lp2951
S'wsgi.url_scheme'
p2952
asbag61
(g82
g63
NtRp2953
(dp2954
g66
(dp2955
g93
g94
ssg75
g2944
sg68
(lp2956
S':'
asbag61
(g82
g63
NtRp2957
(dp2958
g66
(dp2959
sg75
g2944
sg68
(lp2960
g61
(g62
g63
NtRp2961
(dp2962
g66
(dp2963
g74
I3
ssg75
g2957
sg68
(lp2964
g1685
asbasbasbag61
(g77
g63
NtRp2965
(dp2966
g66
(dp2967
sg75
g2391
sg68
(lp2968
g61
(g82
g63
NtRp2969
(dp2970
g66
(dp2971
g86
g87
ssg75
g2965
sg68
(lp2972
S'wsgi.version'
p2973
asbag61
(g82
g63
NtRp2974
(dp2975
g66
(dp2976
g93
g94
ssg75
g2965
sg68
(lp2977
S':'
asbag61
(g82
g63
NtRp2978
(dp2979
g66
(dp2980
sg75
g2965
sg68
(lp2981
g61
(g62
g63
NtRp2982
(dp2983
g66
(dp2984
g74
I3
ssg75
g2978
sg68
(lp2985
S'1'
asbasbasbasbasbasbasbasbasbasbasbasbasbsS'frames'
p2986
(lp2987
(dp2988
S'file'
p2989
S'C:\\web2py\\gluon\\restricted.py'
p2990
sS'dump'
p2991
(dp2992
sS'lnum'
p2993
I204
sS'lines'
p2994
(dp2995
sS'call'
p2996
S'(code=\'response.write(\\\'<!DOCTYPE html>\\\\r\\\\n<html lang="e...n\\\\r\\\\n  </body>\\\\r\\\\n</html>\\\\r\\\\n\\\\r\\\\n\\\', escape=False)\', environment={\'A\': <class \'gluon.html.A\'>, \'Auth\': <class \'gluon.tools.Auth\'>, \'B\': <class \'gluon.html.B\'>, \'BEAUTIFY\': <class \'gluon.html.BEAUTIFY\'>, \'BODY\': <class \'gluon.html.BODY\'>, \'BR\': <class \'gluon.html.BR\'>, \'BUTTON\': <class \'gluon.html.BUTTON\'>, \'CAT\': <class \'gluon.html.CAT\'>, \'CENTER\': <class \'gluon.html.CENTER\'>, \'CLEANUP\': <class \'gluon.validators.CLEANUP\'>, ...}, layer=r\'C:\\web2py\\applications\\unioeste_code\\views\\default/index.html\')'
p2997
sS'func'
p2998
S'restricted'
p2999
sa(dp3000
g2989
S'C:\\web2py\\gluon\\restricted.py'
p3001
sg2991
(dp3002
sg2993
I189
sg2994
(dp3003
sg2996
S'(code=\'response.write(\\\'<!DOCTYPE html>\\\\r\\\\n<html lang="e...n\\\\r\\\\n  </body>\\\\r\\\\n</html>\\\\r\\\\n\\\\r\\\\n\\\', escape=False)\', layer=r\'C:\\web2py\\applications\\unioeste_code\\views\\default/index.html\')'
p3004
sg2998
S'compile2'
p3005
sasS'pyver'
p3006
S'Python 2.5.4: C:\\web2py\\web2py_no_console.exe'
p3007
sS'session'
p3008
g61
(g62
g63
NtRp3009
(dp3010
g66
(dp3011
sg68
(lp3012
g61
(g70
g63
NtRp3013
(dp3014
g66
(dp3015
g74
I5
ssg75
Nsg68
(lp3016
g61
(g77
g63
NtRp3017
(dp3018
g66
(dp3019
sg75
g3013
sg68
(lp3020
g61
(g82
g63
NtRp3021
(dp3022
g66
(dp3023
g86
g87
ssg75
g3017
sg68
(lp3024
S'auth'
p3025
asbag61
(g82
g63
NtRp3026
(dp3027
g66
(dp3028
g93
g94
ssg75
g3017
sg68
(lp3029
S':'
asbag61
(g82
g63
NtRp3030
(dp3031
g66
(dp3032
sg75
g3017
sg68
(lp3033
g61
(g62
g63
NtRp3034
(dp3035
g66
(dp3036
g74
I5
ssg75
g3030
sg68
(lp3037
g61
(g70
g63
NtRp3038
(dp3039
g66
(dp3040
g74
I4
ssg75
Nsg68
(lp3041
g61
(g77
g63
NtRp3042
(dp3043
g66
(dp3044
sg75
g3038
sg68
(lp3045
g61
(g82
g63
NtRp3046
(dp3047
g66
(dp3048
g86
g87
ssg75
g3042
sg68
(lp3049
S'expiration'
p3050
asbag61
(g82
g63
NtRp3051
(dp3052
g66
(dp3053
g93
g94
ssg75
g3042
sg68
(lp3054
S':'
asbag61
(g82
g63
NtRp3055
(dp3056
g66
(dp3057
sg75
g3042
sg68
(lp3058
g61
(g62
g63
NtRp3059
(dp3060
g66
(dp3061
g74
I4
ssg75
g3055
sg68
(lp3062
S'3600'
p3063
asbasbasbag61
(g77
g63
NtRp3064
(dp3065
g66
(dp3066
sg75
g3038
sg68
(lp3067
g61
(g82
g63
NtRp3068
(dp3069
g66
(dp3070
g86
g87
ssg75
g3064
sg68
(lp3071
S'hmac_key'
p3072
asbag61
(g82
g63
NtRp3073
(dp3074
g66
(dp3075
g93
g94
ssg75
g3064
sg68
(lp3076
S':'
asbag61
(g82
g63
NtRp3077
(dp3078
g66
(dp3079
sg75
g3064
sg68
(lp3080
g61
(g62
g63
NtRp3081
(dp3082
g66
(dp3083
g74
I4
ssg75
g3077
sg68
(lp3084
S'a50b3653-d4b0-4d12-a281-09bd5b59ddea'
p3085
asbasbasbag61
(g77
g63
NtRp3086
(dp3087
g66
(dp3088
sg75
g3038
sg68
(lp3089
g61
(g82
g63
NtRp3090
(dp3091
g66
(dp3092
g86
g87
ssg75
g3086
sg68
(lp3093
S'last_visit'
p3094
asbag61
(g82
g63
NtRp3095
(dp3096
g66
(dp3097
g93
g94
ssg75
g3086
sg68
(lp3098
S':'
asbag61
(g82
g63
NtRp3099
(dp3100
g66
(dp3101
sg75
g3086
sg68
(lp3102
g61
(g62
g63
NtRp3103
(dp3104
g66
(dp3105
g74
I4
ssg75
g3099
sg68
(lp3106
S'datetime.datetime(2012, 8, 1, 17, 46, 9, 876000)'
p3107
asbasbasbag61
(g77
g63
NtRp3108
(dp3109
g66
(dp3110
sg75
g3038
sg68
(lp3111
g61
(g82
g63
NtRp3112
(dp3113
g66
(dp3114
g86
g87
ssg75
g3108
sg68
(lp3115
S'remember'
p3116
asbag61
(g82
g63
NtRp3117
(dp3118
g66
(dp3119
g93
g94
ssg75
g3108
sg68
(lp3120
S':'
asbag61
(g82
g63
NtRp3121
(dp3122
g66
(dp3123
sg75
g3108
sg68
(lp3124
g61
(g62
g63
NtRp3125
(dp3126
g66
(dp3127
g74
I4
ssg75
g3121
sg68
(lp3128
g104
asbasbasbag61
(g77
g63
NtRp3129
(dp3130
g66
(dp3131
sg75
g3038
sg68
(lp3132
g61
(g82
g63
NtRp3133
(dp3134
g66
(dp3135
g86
g87
ssg75
g3129
sg68
(lp3136
S'user'
p3137
asbag61
(g82
g63
NtRp3138
(dp3139
g66
(dp3140
g93
g94
ssg75
g3129
sg68
(lp3141
S':'
asbag61
(g82
g63
NtRp3142
(dp3143
g66
(dp3144
sg75
g3129
sg68
(lp3145
g61
(g62
g63
NtRp3146
(dp3147
g66
(dp3148
g74
I4
ssg75
g3142
sg68
(lp3149
g61
(g70
g63
NtRp3150
(dp3151
g66
(dp3152
g74
I3
ssg75
Nsg68
(lp3153
g61
(g77
g63
NtRp3154
(dp3155
g66
(dp3156
sg75
g3150
sg68
(lp3157
g61
(g82
g63
NtRp3158
(dp3159
g66
(dp3160
g86
g87
ssg75
g3154
sg68
(lp3161
S'email'
p3162
asbag61
(g82
g63
NtRp3163
(dp3164
g66
(dp3165
g93
g94
ssg75
g3154
sg68
(lp3166
S':'
asbag61
(g82
g63
NtRp3167
(dp3168
g66
(dp3169
sg75
g3154
sg68
(lp3170
g61
(g62
g63
NtRp3171
(dp3172
g66
(dp3173
g74
I3
ssg75
g3167
sg68
(lp3174
S'scmirror1@gmail.com'
p3175
asbasbasbag61
(g77
g63
NtRp3176
(dp3177
g66
(dp3178
sg75
g3150
sg68
(lp3179
g61
(g82
g63
NtRp3180
(dp3181
g66
(dp3182
g86
g87
ssg75
g3176
sg68
(lp3183
S'first_name'
p3184
asbag61
(g82
g63
NtRp3185
(dp3186
g66
(dp3187
g93
g94
ssg75
g3176
sg68
(lp3188
S':'
asbag61
(g82
g63
NtRp3189
(dp3190
g66
(dp3191
sg75
g3176
sg68
(lp3192
g61
(g62
g63
NtRp3193
(dp3194
g66
(dp3195
g74
I3
ssg75
g3189
sg68
(lp3196
S'Pedro'
p3197
asbasbasbag61
(g77
g63
NtRp3198
(dp3199
g66
(dp3200
sg75
g3150
sg68
(lp3201
g61
(g82
g63
NtRp3202
(dp3203
g66
(dp3204
g86
g87
ssg75
g3198
sg68
(lp3205
S'id'
p3206
asbag61
(g82
g63
NtRp3207
(dp3208
g66
(dp3209
g93
g94
ssg75
g3198
sg68
(lp3210
S':'
asbag61
(g82
g63
NtRp3211
(dp3212
g66
(dp3213
sg75
g3198
sg68
(lp3214
g61
(g62
g63
NtRp3215
(dp3216
g66
(dp3217
g74
I3
ssg75
g3211
sg68
(lp3218
S'1'
asbasbasbag61
(g77
g63
NtRp3219
(dp3220
g66
(dp3221
sg75
g3150
sg68
(lp3222
g61
(g82
g63
NtRp3223
(dp3224
g66
(dp3225
g86
g87
ssg75
g3219
sg68
(lp3226
S'last_name'
p3227
asbag61
(g82
g63
NtRp3228
(dp3229
g66
(dp3230
g93
g94
ssg75
g3219
sg68
(lp3231
S':'
asbag61
(g82
g63
NtRp3232
(dp3233
g66
(dp3234
sg75
g3219
sg68
(lp3235
g61
(g62
g63
NtRp3236
(dp3237
g66
(dp3238
g74
I3
ssg75
g3232
sg68
(lp3239
S'Lacerda'
p3240
asbasbasbag61
(g77
g63
NtRp3241
(dp3242
g66
(dp3243
sg75
g3150
sg68
(lp3244
g61
(g82
g63
NtRp3245
(dp3246
g66
(dp3247
g86
g87
ssg75
g3241
sg68
(lp3248
S'password'
p3249
asbag61
(g82
g63
NtRp3250
(dp3251
g66
(dp3252
g93
g94
ssg75
g3241
sg68
(lp3253
S':'
asbag61
(g82
g63
NtRp3254
(dp3255
g66
(dp3256
sg75
g3241
sg68
(lp3257
g61
(g62
g63
NtRp3258
(dp3259
g66
(dp3260
g74
I3
ssg75
g3254
sg68
(lp3261
S'4297f44b13955235245b2497399d7a93'
p3262
asbasbasbag61
(g77
g63
NtRp3263
(dp3264
g66
(dp3265
sg75
g3150
sg68
(lp3266
g61
(g82
g63
NtRp3267
(dp3268
g66
(dp3269
g86
g87
ssg75
g3263
sg68
(lp3270
S'registration_id'
p3271
asbag61
(g82
g63
NtRp3272
(dp3273
g66
(dp3274
g93
g94
ssg75
g3263
sg68
(lp3275
S':'
asbag61
(g82
g63
NtRp3276
(dp3277
g66
(dp3278
sg75
g3263
sg68
(lp3279
g61
(g62
g63
NtRp3280
(dp3281
g66
(dp3282
g74
I3
ssg75
g3276
sg68
(lp3283
S''
asbasbasbag61
(g77
g63
NtRp3284
(dp3285
g66
(dp3286
sg75
g3150
sg68
(lp3287
g61
(g82
g63
NtRp3288
(dp3289
g66
(dp3290
g86
g87
ssg75
g3284
sg68
(lp3291
S'registration_key'
p3292
asbag61
(g82
g63
NtRp3293
(dp3294
g66
(dp3295
g93
g94
ssg75
g3284
sg68
(lp3296
S':'
asbag61
(g82
g63
NtRp3297
(dp3298
g66
(dp3299
sg75
g3284
sg68
(lp3300
g61
(g62
g63
NtRp3301
(dp3302
g66
(dp3303
g74
I3
ssg75
g3297
sg68
(lp3304
S''
asbasbasbag61
(g77
g63
NtRp3305
(dp3306
g66
(dp3307
sg75
g3150
sg68
(lp3308
g61
(g82
g63
NtRp3309
(dp3310
g66
(dp3311
g86
g87
ssg75
g3305
sg68
(lp3312
S'reset_password_key'
p3313
asbag61
(g82
g63
NtRp3314
(dp3315
g66
(dp3316
g93
g94
ssg75
g3305
sg68
(lp3317
S':'
asbag61
(g82
g63
NtRp3318
(dp3319
g66
(dp3320
sg75
g3305
sg68
(lp3321
g61
(g62
g63
NtRp3322
(dp3323
g66
(dp3324
g74
I3
ssg75
g3318
sg68
(lp3325
S''
asbasbasbasbasbasbasbag61
(g77
g63
NtRp3326
(dp3327
g66
(dp3328
sg75
g3038
sg68
(lp3329
g61
(g82
g63
NtRp3330
(dp3331
g66
(dp3332
g86
g87
ssg75
g3326
sg68
(lp3333
S'user_groups'
p3334
asbag61
(g82
g63
NtRp3335
(dp3336
g66
(dp3337
g93
g94
ssg75
g3326
sg68
(lp3338
S':'
asbag61
(g82
g63
NtRp3339
(dp3340
g66
(dp3341
sg75
g3326
sg68
(lp3342
g61
(g62
g63
NtRp3343
(dp3344
g66
(dp3345
g74
I4
ssg75
g3339
sg68
(lp3346
g61
(g70
g63
NtRp3347
(dp3348
g66
(dp3349
g74
I3
ssg75
Nsg68
(lp3350
g61
(g77
g63
NtRp3351
(dp3352
g66
(dp3353
sg75
g3347
sg68
(lp3354
g61
(g82
g63
NtRp3355
(dp3356
g66
(dp3357
g86
g87
ssg75
g3351
sg68
(lp3358
S'1'
asbag61
(g82
g63
NtRp3359
(dp3360
g66
(dp3361
g93
g94
ssg75
g3351
sg68
(lp3362
S':'
asbag61
(g82
g63
NtRp3363
(dp3364
g66
(dp3365
sg75
g3351
sg68
(lp3366
g61
(g62
g63
NtRp3367
(dp3368
g66
(dp3369
g74
I3
ssg75
g3363
sg68
(lp3370
S'user_1'
p3371
asbasbasbag61
(g77
g63
NtRp3372
(dp3373
g66
(dp3374
sg75
g3347
sg68
(lp3375
g61
(g82
g63
NtRp3376
(dp3377
g66
(dp3378
g86
g87
ssg75
g3372
sg68
(lp3379
S'2'
asbag61
(g82
g63
NtRp3380
(dp3381
g66
(dp3382
g93
g94
ssg75
g3372
sg68
(lp3383
S':'
asbag61
(g82
g63
NtRp3384
(dp3385
g66
(dp3386
sg75
g3372
sg68
(lp3387
g61
(g62
g63
NtRp3388
(dp3389
g66
(dp3390
g74
I3
ssg75
g3384
sg68
(lp3391
S'manager'
p3392
asbasbasbasbasbasbasbasbasbasbasbasbasbsS'etype'
p3393
S"<type 'exceptions.SyntaxError'>"
p3394
sS'date'
p3395
S'Wed Aug 01 17:46:09 2012'
p3396
sS'response'
p3397
g61
(g62
g63
NtRp3398
(dp3399
g66
(dp3400
sg68
(lp3401
g61
(g70
g63
NtRp3402
(dp3403
g66
(dp3404
g74
I5
ssg75
Nsg68
(lp3405
g61
(g77
g63
NtRp3406
(dp3407
g66
(dp3408
sg75
g3402
sg68
(lp3409
g61
(g82
g63
NtRp3410
(dp3411
g66
(dp3412
g86
g87
ssg75
g3406
sg68
(lp3413
g159
asbag61
(g82
g63
NtRp3414
(dp3415
g66
(dp3416
g93
g94
ssg75
g3406
sg68
(lp3417
S':'
asbag61
(g82
g63
NtRp3418
(dp3419
g66
(dp3420
sg75
g3406
sg68
(lp3421
g61
(g62
g63
NtRp3422
(dp3423
g66
(dp3424
g74
I5
ssg75
g3418
sg68
(lp3425
S'<cStringIO.StringO object at 0x06F9E3C0>'
p3426
asbasbasbag61
(g77
g63
NtRp3427
(dp3428
g66
(dp3429
sg75
g3402
sg68
(lp3430
g61
(g82
g63
NtRp3431
(dp3432
g66
(dp3433
g86
g87
ssg75
g3427
sg68
(lp3434
g225
asbag61
(g82
g63
NtRp3435
(dp3436
g66
(dp3437
g93
g94
ssg75
g3427
sg68
(lp3438
S':'
asbag61
(g82
g63
NtRp3439
(dp3440
g66
(dp3441
sg75
g3427
sg68
(lp3442
g61
(g62
g63
NtRp3443
(dp3444
g66
(dp3445
g74
I5
ssg75
g3439
sg68
(lp3446
g61
(g70
g63
NtRp3447
(dp3448
g66
(dp3449
g74
I4
ssg75
Nsg68
(lp3450
g61
(g77
g63
NtRp3451
(dp3452
g66
(dp3453
sg75
g3447
sg68
(lp3454
g61
(g82
g63
NtRp3455
(dp3456
g66
(dp3457
g86
g87
ssg75
g3451
sg68
(lp3458
S'session_id_unioeste_code'
p3459
asbag61
(g82
g63
NtRp3460
(dp3461
g66
(dp3462
g93
g94
ssg75
g3451
sg68
(lp3463
S':'
asbag61
(g82
g63
NtRp3464
(dp3465
g66
(dp3466
sg75
g3451
sg68
(lp3467
g61
(g62
g63
NtRp3468
(dp3469
g66
(dp3470
g74
I4
ssg75
g3464
sg68
(lp3471
g61
(g70
g63
NtRp3472
(dp3473
g66
(dp3474
g74
I3
ssg75
Nsg68
(lp3475
g61
(g77
g63
NtRp3476
(dp3477
g66
(dp3478
sg75
g3472
sg68
(lp3479
g61
(g82
g63
NtRp3480
(dp3481
g66
(dp3482
g86
g87
ssg75
g3476
sg68
(lp3483
g275
asbag61
(g82
g63
NtRp3484
(dp3485
g66
(dp3486
g93
g94
ssg75
g3476
sg68
(lp3487
S':'
asbag61
(g82
g63
NtRp3488
(dp3489
g66
(dp3490
sg75
g3476
sg68
(lp3491
g61
(g62
g63
NtRp3492
(dp3493
g66
(dp3494
g74
I3
ssg75
g3488
sg68
(lp3495
S''
asbasbasbag61
(g77
g63
NtRp3496
(dp3497
g66
(dp3498
sg75
g3472
sg68
(lp3499
g61
(g82
g63
NtRp3500
(dp3501
g66
(dp3502
g86
g87
ssg75
g3496
sg68
(lp3503
g296
asbag61
(g82
g63
NtRp3504
(dp3505
g66
(dp3506
g93
g94
ssg75
g3496
sg68
(lp3507
S':'
asbag61
(g82
g63
NtRp3508
(dp3509
g66
(dp3510
sg75
g3496
sg68
(lp3511
g61
(g62
g63
NtRp3512
(dp3513
g66
(dp3514
g74
I3
ssg75
g3508
sg68
(lp3515
S''
asbasbasbag61
(g77
g63
NtRp3516
(dp3517
g66
(dp3518
sg75
g3472
sg68
(lp3519
g61
(g82
g63
NtRp3520
(dp3521
g66
(dp3522
g86
g87
ssg75
g3516
sg68
(lp3523
g317
asbag61
(g82
g63
NtRp3524
(dp3525
g66
(dp3526
g93
g94
ssg75
g3516
sg68
(lp3527
S':'
asbag61
(g82
g63
NtRp3528
(dp3529
g66
(dp3530
sg75
g3516
sg68
(lp3531
g61
(g62
g63
NtRp3532
(dp3533
g66
(dp3534
g74
I3
ssg75
g3528
sg68
(lp3535
S''
asbasbasbag61
(g77
g63
NtRp3536
(dp3537
g66
(dp3538
sg75
g3472
sg68
(lp3539
g61
(g82
g63
NtRp3540
(dp3541
g66
(dp3542
g86
g87
ssg75
g3536
sg68
(lp3543
g338
asbag61
(g82
g63
NtRp3544
(dp3545
g66
(dp3546
g93
g94
ssg75
g3536
sg68
(lp3547
S':'
asbag61
(g82
g63
NtRp3548
(dp3549
g66
(dp3550
sg75
g3536
sg68
(lp3551
g61
(g62
g63
NtRp3552
(dp3553
g66
(dp3554
g74
I3
ssg75
g3548
sg68
(lp3555
S''
asbasbasbag61
(g77
g63
NtRp3556
(dp3557
g66
(dp3558
sg75
g3472
sg68
(lp3559
g61
(g82
g63
NtRp3560
(dp3561
g66
(dp3562
g86
g87
ssg75
g3556
sg68
(lp3563
g359
asbag61
(g82
g63
NtRp3564
(dp3565
g66
(dp3566
g93
g94
ssg75
g3556
sg68
(lp3567
S':'
asbag61
(g82
g63
NtRp3568
(dp3569
g66
(dp3570
sg75
g3556
sg68
(lp3571
g61
(g62
g63
NtRp3572
(dp3573
g66
(dp3574
g74
I3
ssg75
g3568
sg68
(lp3575
S'/'
asbasbasbag61
(g77
g63
NtRp3576
(dp3577
g66
(dp3578
sg75
g3472
sg68
(lp3579
g61
(g82
g63
NtRp3580
(dp3581
g66
(dp3582
g86
g87
ssg75
g3576
sg68
(lp3583
g380
asbag61
(g82
g63
NtRp3584
(dp3585
g66
(dp3586
g93
g94
ssg75
g3576
sg68
(lp3587
S':'
asbag61
(g82
g63
NtRp3588
(dp3589
g66
(dp3590
sg75
g3576
sg68
(lp3591
g61
(g62
g63
NtRp3592
(dp3593
g66
(dp3594
g74
I3
ssg75
g3588
sg68
(lp3595
S''
asbasbasbag61
(g77
g63
NtRp3596
(dp3597
g66
(dp3598
sg75
g3472
sg68
(lp3599
g61
(g82
g63
NtRp3600
(dp3601
g66
(dp3602
g86
g87
ssg75
g3596
sg68
(lp3603
g401
asbag61
(g82
g63
NtRp3604
(dp3605
g66
(dp3606
g93
g94
ssg75
g3596
sg68
(lp3607
S':'
asbag61
(g82
g63
NtRp3608
(dp3609
g66
(dp3610
sg75
g3596
sg68
(lp3611
g61
(g62
g63
NtRp3612
(dp3613
g66
(dp3614
g74
I3
ssg75
g3608
sg68
(lp3615
S''
asbasbasbasbasbasbasbasbasbasbasbag61
(g77
g63
NtRp3616
(dp3617
g66
(dp3618
sg75
g3402
sg68
(lp3619
g61
(g82
g63
NtRp3620
(dp3621
g66
(dp3622
g86
g87
ssg75
g3616
sg68
(lp3623
S'delimiters'
p3624
asbag61
(g82
g63
NtRp3625
(dp3626
g66
(dp3627
g93
g94
ssg75
g3616
sg68
(lp3628
S':'
asbag61
(g82
g63
NtRp3629
(dp3630
g66
(dp3631
sg75
g3616
sg68
(lp3632
g61
(g62
g63
NtRp3633
(dp3634
g66
(dp3635
g74
I5
ssg75
g3629
sg68
(lp3636
g61
(g70
g63
NtRp3637
(dp3638
g66
(dp3639
g74
I4
ssg75
Nsg68
(lp3640
g61
(g77
g63
NtRp3641
(dp3642
g66
(dp3643
sg75
g3637
sg68
(lp3644
g61
(g82
g63
NtRp3645
(dp3646
g66
(dp3647
sg75
g3641
sg68
(lp3648
g61
(g62
g63
NtRp3649
(dp3650
g66
(dp3651
g74
I4
ssg75
g3645
sg68
(lp3652
S'{{'
p3653
asbasbasbag61
(g77
g63
NtRp3654
(dp3655
g66
(dp3656
sg75
g3637
sg68
(lp3657
g61
(g82
g63
NtRp3658
(dp3659
g66
(dp3660
sg75
g3654
sg68
(lp3661
g61
(g62
g63
NtRp3662
(dp3663
g66
(dp3664
g74
I4
ssg75
g3658
sg68
(lp3665
S'}}'
p3666
asbasbasbasbasbasbasbag61
(g77
g63
NtRp3667
(dp3668
g66
(dp3669
sg75
g3402
sg68
(lp3670
g61
(g82
g63
NtRp3671
(dp3672
g66
(dp3673
g86
g87
ssg75
g3667
sg68
(lp3674
S'files'
p3675
asbag61
(g82
g63
NtRp3676
(dp3677
g66
(dp3678
g93
g94
ssg75
g3667
sg68
(lp3679
S':'
asbag61
(g82
g63
NtRp3680
(dp3681
g66
(dp3682
sg75
g3667
sg68
(lp3683
g61
(g62
g63
NtRp3684
(dp3685
g66
(dp3686
g74
I5
ssg75
g3680
sg68
(lp3687
g61
(g70
g63
NtRp3688
(dp3689
g66
(dp3690
g74
I4
ssg75
Nsg68
(lp3691
sbasbasbasbag61
(g77
g63
NtRp3692
(dp3693
g66
(dp3694
sg75
g3402
sg68
(lp3695
g61
(g82
g63
NtRp3696
(dp3697
g66
(dp3698
g86
g87
ssg75
g3692
sg68
(lp3699
S'flash'
p3700
asbag61
(g82
g63
NtRp3701
(dp3702
g66
(dp3703
g93
g94
ssg75
g3692
sg68
(lp3704
S':'
asbag61
(g82
g63
NtRp3705
(dp3706
g66
(dp3707
sg75
g3692
sg68
(lp3708
g61
(g62
g63
NtRp3709
(dp3710
g66
(dp3711
g74
I5
ssg75
g3705
sg68
(lp3712
S''
asbasbasbag61
(g77
g63
NtRp3713
(dp3714
g66
(dp3715
sg75
g3402
sg68
(lp3716
g61
(g82
g63
NtRp3717
(dp3718
g66
(dp3719
g86
g87
ssg75
g3713
sg68
(lp3720
S'generic_patterns'
p3721
asbag61
(g82
g63
NtRp3722
(dp3723
g66
(dp3724
g93
g94
ssg75
g3713
sg68
(lp3725
S':'
asbag61
(g82
g63
NtRp3726
(dp3727
g66
(dp3728
sg75
g3713
sg68
(lp3729
g61
(g62
g63
NtRp3730
(dp3731
g66
(dp3732
g74
I5
ssg75
g3726
sg68
(lp3733
g61
(g70
g63
NtRp3734
(dp3735
g66
(dp3736
g74
I4
ssg75
Nsg68
(lp3737
sbasbasbasbag61
(g77
g63
NtRp3738
(dp3739
g66
(dp3740
sg75
g3402
sg68
(lp3741
g61
(g82
g63
NtRp3742
(dp3743
g66
(dp3744
g86
g87
ssg75
g3738
sg68
(lp3745
S'headers'
p3746
asbag61
(g82
g63
NtRp3747
(dp3748
g66
(dp3749
g93
g94
ssg75
g3738
sg68
(lp3750
S':'
asbag61
(g82
g63
NtRp3751
(dp3752
g66
(dp3753
sg75
g3738
sg68
(lp3754
g61
(g62
g63
NtRp3755
(dp3756
g66
(dp3757
g74
I5
ssg75
g3751
sg68
(lp3758
g61
(g70
g63
NtRp3759
(dp3760
g66
(dp3761
g74
I4
ssg75
Nsg68
(lp3762
g61
(g77
g63
NtRp3763
(dp3764
g66
(dp3765
sg75
g3759
sg68
(lp3766
g61
(g82
g63
NtRp3767
(dp3768
g66
(dp3769
g86
g87
ssg75
g3763
sg68
(lp3770
S'Cache-Control'
p3771
asbag61
(g82
g63
NtRp3772
(dp3773
g66
(dp3774
g93
g94
ssg75
g3763
sg68
(lp3775
S':'
asbag61
(g82
g63
NtRp3776
(dp3777
g66
(dp3778
sg75
g3763
sg68
(lp3779
g61
(g62
g63
NtRp3780
(dp3781
g66
(dp3782
g74
I4
ssg75
g3776
sg68
(lp3783
S'no-store, no-cache, must-revalidate, post-check=0, pre-check=0'
p3784
asbasbasbag61
(g77
g63
NtRp3785
(dp3786
g66
(dp3787
sg75
g3759
sg68
(lp3788
g61
(g82
g63
NtRp3789
(dp3790
g66
(dp3791
g86
g87
ssg75
g3785
sg68
(lp3792
S'Content-Type'
p3793
asbag61
(g82
g63
NtRp3794
(dp3795
g66
(dp3796
g93
g94
ssg75
g3785
sg68
(lp3797
S':'
asbag61
(g82
g63
NtRp3798
(dp3799
g66
(dp3800
sg75
g3785
sg68
(lp3801
g61
(g62
g63
NtRp3802
(dp3803
g66
(dp3804
g74
I4
ssg75
g3798
sg68
(lp3805
S'text/html; charset=utf-8'
p3806
asbasbasbag61
(g77
g63
NtRp3807
(dp3808
g66
(dp3809
sg75
g3759
sg68
(lp3810
g61
(g82
g63
NtRp3811
(dp3812
g66
(dp3813
g86
g87
ssg75
g3807
sg68
(lp3814
S'Expires'
p3815
asbag61
(g82
g63
NtRp3816
(dp3817
g66
(dp3818
g93
g94
ssg75
g3807
sg68
(lp3819
S':'
asbag61
(g82
g63
NtRp3820
(dp3821
g66
(dp3822
sg75
g3807
sg68
(lp3823
g61
(g62
g63
NtRp3824
(dp3825
g66
(dp3826
g74
I4
ssg75
g3820
sg68
(lp3827
S'Wed, 01 Aug 2012 20:46:09 GMT'
p3828
asbasbasbag61
(g77
g63
NtRp3829
(dp3830
g66
(dp3831
sg75
g3759
sg68
(lp3832
g61
(g82
g63
NtRp3833
(dp3834
g66
(dp3835
g86
g87
ssg75
g3829
sg68
(lp3836
S'Pragma'
p3837
asbag61
(g82
g63
NtRp3838
(dp3839
g66
(dp3840
g93
g94
ssg75
g3829
sg68
(lp3841
S':'
asbag61
(g82
g63
NtRp3842
(dp3843
g66
(dp3844
sg75
g3829
sg68
(lp3845
g61
(g62
g63
NtRp3846
(dp3847
g66
(dp3848
g74
I4
ssg75
g3842
sg68
(lp3849
S'no-cache'
p3850
asbasbasbag61
(g77
g63
NtRp3851
(dp3852
g66
(dp3853
sg75
g3759
sg68
(lp3854
g61
(g82
g63
NtRp3855
(dp3856
g66
(dp3857
g86
g87
ssg75
g3851
sg68
(lp3858
S'X-Powered-By'
p3859
asbag61
(g82
g63
NtRp3860
(dp3861
g66
(dp3862
g93
g94
ssg75
g3851
sg68
(lp3863
S':'
asbag61
(g82
g63
NtRp3864
(dp3865
g66
(dp3866
sg75
g3851
sg68
(lp3867
g61
(g62
g63
NtRp3868
(dp3869
g66
(dp3870
g74
I4
ssg75
g3864
sg68
(lp3871
S'web2py'
p3872
asbasbasbasbasbasbasbag61
(g77
g63
NtRp3873
(dp3874
g66
(dp3875
sg75
g3402
sg68
(lp3876
g61
(g82
g63
NtRp3877
(dp3878
g66
(dp3879
g86
g87
ssg75
g3873
sg68
(lp3880
S'menu'
p3881
asbag61
(g82
g63
NtRp3882
(dp3883
g66
(dp3884
g93
g94
ssg75
g3873
sg68
(lp3885
S':'
asbag61
(g82
g63
NtRp3886
(dp3887
g66
(dp3888
sg75
g3873
sg68
(lp3889
g61
(g62
g63
NtRp3890
(dp3891
g66
(dp3892
g74
I5
ssg75
g3886
sg68
(lp3893
g61
(g70
g63
NtRp3894
(dp3895
g66
(dp3896
g74
I4
ssg75
Nsg68
(lp3897
g61
(g77
g63
NtRp3898
(dp3899
g66
(dp3900
sg75
g3894
sg68
(lp3901
g61
(g82
g63
NtRp3902
(dp3903
g66
(dp3904
sg75
g3898
sg68
(lp3905
g61
(g62
g63
NtRp3906
(dp3907
g66
(dp3908
g74
I4
ssg75
g3902
sg68
(lp3909
g61
(g70
g63
NtRp3910
(dp3911
g66
(dp3912
g74
I3
ssg75
Nsg68
(lp3913
g61
(g77
g63
NtRp3914
(dp3915
g66
(dp3916
sg75
g3910
sg68
(lp3917
g61
(g82
g63
NtRp3918
(dp3919
g66
(dp3920
sg75
g3914
sg68
(lp3921
g61
(g62
g63
NtRp3922
(dp3923
g66
(dp3924
g74
I3
ssg75
g3918
sg68
(lp3925
cgluon.languages
lazyT_unpickle
p3926
(S't\x04\x00\x00\x00Home'
tRp3927
asbasbasbag61
(g77
g63
NtRp3928
(dp3929
g66
(dp3930
sg75
g3910
sg68
(lp3931
g61
(g82
g63
NtRp3932
(dp3933
g66
(dp3934
sg75
g3928
sg68
(lp3935
g61
(g62
g63
NtRp3936
(dp3937
g66
(dp3938
g74
I3
ssg75
g3932
sg68
(lp3939
g104
asbasbasbag61
(g77
g63
NtRp3940
(dp3941
g66
(dp3942
sg75
g3910
sg68
(lp3943
g61
(g82
g63
NtRp3944
(dp3945
g66
(dp3946
sg75
g3940
sg68
(lp3947
g61
(g62
g63
NtRp3948
(dp3949
g66
(dp3950
g74
I3
ssg75
g3944
sg68
(lp3951
S'/unioeste_code/default/index'
p3952
asbasbasbag61
(g77
g63
NtRp3953
(dp3954
g66
(dp3955
sg75
g3910
sg68
(lp3956
g61
(g82
g63
NtRp3957
(dp3958
g66
(dp3959
sg75
g3953
sg68
(lp3960
g61
(g62
g63
NtRp3961
(dp3962
g66
(dp3963
g74
I3
ssg75
g3957
sg68
(lp3964
g61
(g70
g63
NtRp3965
(dp3966
g66
(dp3967
g74
I2
ssg75
Nsg68
(lp3968
sbasbasbasbasbasbasbasbag61
(g77
g63
NtRp3969
(dp3970
g66
(dp3971
sg75
g3894
sg68
(lp3972
g61
(g82
g63
NtRp3973
(dp3974
g66
(dp3975
sg75
g3969
sg68
(lp3976
g61
(g62
g63
NtRp3977
(dp3978
g66
(dp3979
g74
I4
ssg75
g3973
sg68
(lp3980
g61
(g70
g63
NtRp3981
(dp3982
g66
(dp3983
g74
I3
ssg75
Nsg68
(lp3984
g61
(g77
g63
NtRp3985
(dp3986
g66
(dp3987
sg75
g3981
sg68
(lp3988
g61
(g82
g63
NtRp3989
(dp3990
g66
(dp3991
sg75
g3985
sg68
(lp3992
g61
(g62
g63
NtRp3993
(dp3994
g66
(dp3995
g74
I3
ssg75
g3989
sg68
(lp3996
g61
(cgluon.html
SPAN
p3997
g63
NtRp3998
(dp3999
g66
(dp4000
g86
S'color:yellow'
p4001
ssg75
Nsg68
(lp4002
g3872
asbasbasbasbag61
(g77
g63
NtRp4003
(dp4004
g66
(dp4005
sg75
g3981
sg68
(lp4006
g61
(g82
g63
NtRp4007
(dp4008
g66
(dp4009
sg75
g4003
sg68
(lp4010
g61
(g62
g63
NtRp4011
(dp4012
g66
(dp4013
g74
I3
ssg75
g4007
sg68
(lp4014
g104
asbasbasbag61
(g77
g63
NtRp4015
(dp4016
g66
(dp4017
sg75
g3981
sg68
(lp4018
g61
(g82
g63
NtRp4019
(dp4020
g66
(dp4021
sg75
g4015
sg68
(lp4022
g61
(g62
g63
NtRp4023
(dp4024
g66
(dp4025
g74
I3
ssg75
g4019
sg68
(lp4026
S'None'
p4027
asbasbasbag61
(g77
g63
NtRp4028
(dp4029
g66
(dp4030
sg75
g3981
sg68
(lp4031
g61
(g82
g63
NtRp4032
(dp4033
g66
(dp4034
sg75
g4028
sg68
(lp4035
g61
(g62
g63
NtRp4036
(dp4037
g66
(dp4038
g74
I3
ssg75
g4032
sg68
(lp4039
g61
(g70
g63
NtRp4040
(dp4041
g66
(dp4042
g74
I2
ssg75
Nsg68
(lp4043
g61
(g77
g63
NtRp4044
(dp4045
g66
(dp4046
sg75
g4040
sg68
(lp4047
g61
(g82
g63
NtRp4048
(dp4049
g66
(dp4050
sg75
g4044
sg68
(lp4051
g61
(g62
g63
NtRp4052
(dp4053
g66
(dp4054
g74
I2
ssg75
g4048
sg68
(lp4055
g61
(g70
g63
NtRp4056
(dp4057
g66
(dp4058
g74
I1
ssg75
Nsg68
(lp4059
g61
(g77
g63
NtRp4060
(dp4061
g66
(dp4062
sg75
g4056
sg68
(lp4063
g61
(g82
g63
NtRp4064
(dp4065
g66
(dp4066
sg75
g4060
sg68
(lp4067
g61
(g62
g63
NtRp4068
(dp4069
g66
(dp4070
g74
I1
ssg75
g4064
sg68
(lp4071
g3926
(S's\x08\x00\x00\x00My Sites'
tRp4072
asbasbasbag61
(g77
g63
NtRp4073
(dp4074
g66
(dp4075
sg75
g4056
sg68
(lp4076
g61
(g82
g63
NtRp4077
(dp4078
g66
(dp4079
sg75
g4073
sg68
(lp4080
g61
(g62
g63
NtRp4081
(dp4082
g66
(dp4083
g74
I1
ssg75
g4077
sg68
(lp4084
I00
asbasbasbag61
(g77
g63
NtRp4085
(dp4086
g66
(dp4087
sg75
g4056
sg68
(lp4088
g61
(g82
g63
NtRp4089
(dp4090
g66
(dp4091
sg75
g4085
sg68
(lp4092
g61
(g62
g63
NtRp4093
(dp4094
g66
(dp4095
g74
I1
ssg75
g4089
sg68
(lp4096
S'/admin/default/site'
p4097
asbasbasbasbasbasbasbag61
(g77
g63
NtRp4098
(dp4099
g66
(dp4100
sg75
g4040
sg68
(lp4101
g61
(g82
g63
NtRp4102
(dp4103
g66
(dp4104
sg75
g4098
sg68
(lp4105
g61
(g62
g63
NtRp4106
(dp4107
g66
(dp4108
g74
I2
ssg75
g4102
sg68
(lp4109
g61
(g70
g63
NtRp4110
(dp4111
g66
(dp4112
g74
I1
ssg75
Nsg68
(lp4113
g61
(g77
g63
NtRp4114
(dp4115
g66
(dp4116
sg75
g4110
sg68
(lp4117
g61
(g82
g63
NtRp4118
(dp4119
g66
(dp4120
sg75
g4114
sg68
(lp4121
g61
(g62
g63
NtRp4122
(dp4123
g66
(dp4124
g74
I1
ssg75
g4118
sg68
(lp4125
g3926
(S's\x08\x00\x00\x00This App'
tRp4126
asbasbasbag61
(g77
g63
NtRp4127
(dp4128
g66
(dp4129
sg75
g4110
sg68
(lp4130
g61
(g82
g63
NtRp4131
(dp4132
g66
(dp4133
sg75
g4127
sg68
(lp4134
g61
(g62
g63
NtRp4135
(dp4136
g66
(dp4137
g74
I1
ssg75
g4131
sg68
(lp4138
I00
asbasbasbag61
(g77
g63
NtRp4139
(dp4140
g66
(dp4141
sg75
g4110
sg68
(lp4142
g61
(g82
g63
NtRp4143
(dp4144
g66
(dp4145
sg75
g4139
sg68
(lp4146
g61
(g62
g63
NtRp4147
(dp4148
g66
(dp4149
g74
I1
ssg75
g4143
sg68
(lp4150
S'/admin/default/design/unioeste_code'
p4151
asbasbasbag61
(g77
g63
NtRp4152
(dp4153
g66
(dp4154
sg75
g4110
sg68
(lp4155
g61
(g82
g63
NtRp4156
(dp4157
g66
(dp4158
sg75
g4152
sg68
(lp4159
g61
(g62
g63
NtRp4160
(dp4161
g66
(dp4162
g74
I1
ssg75
g4156
sg68
(lp4163
(lp4164
(g3926
(S't\x0b\x00\x00\x00Controlador'
tRp4165
I00
S'/admin/default/edit/unioeste_code/controllers/default.py'
tp4166
a(g3926
(S's\x0e\x00\x00\x00Visualiza\xc3\xa7\xc3\xa3o'
tRp4167
I00
S'/admin/default/edit/unioeste_code/views/default/index.html'
tp4168
a(g3926
(S't\x06\x00\x00\x00Layout'
tRp4169
I00
S'/admin/default/edit/unioeste_code/views/layout.html'
tp4170
a(g3926
(S't\n\x00\x00\x00Stylesheet'
tRp4171
I00
S'/admin/default/edit/unioeste_code/static/css/web2py.css'
tp4172
a(g3926
(S's\t\x00\x00\x00Modelo BD'
tRp4173
I00
S'/admin/default/edit/unioeste_code/models/db.py'
tp4174
a(g3926
(S's\x0e\x00\x00\x00Modelo de Menu'
tRp4175
I00
S'/admin/default/edit/unioeste_code/models/menu.py'
tp4176
a(g3926
(S's\x0e\x00\x00\x00Banco de dados'
tRp4177
I00
S'/unioeste_code/appadmin/index'
tp4178
a(g3926
(S't\x06\x00\x00\x00Errors'
tRp4179
I00
S'/admin/default/errors/unioeste_code'
tp4180
a(g3926
(S't\x05\x00\x00\x00About'
tRp4181
I00
S'/admin/default/about/unioeste_code'
tp4182
aasbasbasbasbasbasbasbag61
(g77
g63
NtRp4183
(dp4184
g66
(dp4185
sg75
g4040
sg68
(lp4186
g61
(g82
g63
NtRp4187
(dp4188
g66
(dp4189
sg75
g4183
sg68
(lp4190
g61
(g62
g63
NtRp4191
(dp4192
g66
(dp4193
g74
I2
ssg75
g4187
sg68
(lp4194
g61
(g70
g63
NtRp4195
(dp4196
g66
(dp4197
g74
I1
ssg75
Nsg68
(lp4198
g61
(g77
g63
NtRp4199
(dp4200
g66
(dp4201
sg75
g4195
sg68
(lp4202
g61
(g82
g63
NtRp4203
(dp4204
g66
(dp4205
sg75
g4199
sg68
(lp4206
g61
(g62
g63
NtRp4207
(dp4208
g66
(dp4209
g74
I1
ssg75
g4203
sg68
(lp4210
S'web2py.com'
p4211
asbasbasbag61
(g77
g63
NtRp4212
(dp4213
g66
(dp4214
sg75
g4195
sg68
(lp4215
g61
(g82
g63
NtRp4216
(dp4217
g66
(dp4218
sg75
g4212
sg68
(lp4219
g61
(g62
g63
NtRp4220
(dp4221
g66
(dp4222
g74
I1
ssg75
g4216
sg68
(lp4223
I00
asbasbasbag61
(g77
g63
NtRp4224
(dp4225
g66
(dp4226
sg75
g4195
sg68
(lp4227
g61
(g82
g63
NtRp4228
(dp4229
g66
(dp4230
sg75
g4224
sg68
(lp4231
g61
(g62
g63
NtRp4232
(dp4233
g66
(dp4234
g74
I1
ssg75
g4228
sg68
(lp4235
S'http://www.web2py.com'
p4236
asbasbasbag61
(g77
g63
NtRp4237
(dp4238
g66
(dp4239
sg75
g4195
sg68
(lp4240
g61
(g82
g63
NtRp4241
(dp4242
g66
(dp4243
sg75
g4237
sg68
(lp4244
g61
(g62
g63
NtRp4245
(dp4246
g66
(dp4247
g74
I1
ssg75
g4241
sg68
(lp4248
(lp4249
(g3926
(S't\x08\x00\x00\x00Download'
tRp4250
I00
S'http://www.web2py.com/examples/default/download'
p4251
tp4252
a(g3926
(S't\x07\x00\x00\x00Support'
tRp4253
I00
S'http://www.web2py.com/examples/default/support'
p4254
tp4255
a(g3926
(S't\x04\x00\x00\x00Demo'
tRp4256
I00
S'http://web2py.com/demo_admin'
p4257
tp4258
a(g3926
(S's\x0e\x00\x00\x00Quick Examples'
tRp4259
I00
S'http://web2py.com/examples/default/examples'
p4260
tp4261
a(g3926
(S't\x03\x00\x00\x00FAQ'
tRp4262
I00
S'http://web2py.com/AlterEgo'
p4263
tp4264
a(g3926
(S't\x06\x00\x00\x00Videos'
tRp4265
I00
S'http://www.web2py.com/examples/default/videos/'
p4266
tp4267
a(g3926
(S's\x11\x00\x00\x00Free Applications'
tRp4268
I00
S'http://web2py.com/appliances'
p4269
tp4270
a(g3926
(S't\x07\x00\x00\x00Plugins'
tRp4271
I00
S'http://web2py.com/plugins'
p4272
tp4273
a(g3926
(S't\x07\x00\x00\x00Layouts'
tRp4274
I00
S'http://web2py.com/layouts'
p4275
tp4276
a(g3926
(S't\x07\x00\x00\x00Recipes'
tRp4277
I00
S'http://web2pyslices.com/'
p4278
tp4279
a(g3926
(S't\x08\x00\x00\x00Semantic'
tRp4280
I00
S'http://web2py.com/semantic'
p4281
tp4282
aasbasbasbasbasbasbasbag61
(g77
g63
NtRp4283
(dp4284
g66
(dp4285
sg75
g4040
sg68
(lp4286
g61
(g82
g63
NtRp4287
(dp4288
g66
(dp4289
sg75
g4283
sg68
(lp4290
g61
(g62
g63
NtRp4291
(dp4292
g66
(dp4293
g74
I2
ssg75
g4287
sg68
(lp4294
g61
(g70
g63
NtRp4295
(dp4296
g66
(dp4297
g74
I1
ssg75
Nsg68
(lp4298
g61
(g77
g63
NtRp4299
(dp4300
g66
(dp4301
sg75
g4295
sg68
(lp4302
g61
(g82
g63
NtRp4303
(dp4304
g66
(dp4305
sg75
g4299
sg68
(lp4306
g61
(g62
g63
NtRp4307
(dp4308
g66
(dp4309
g74
I1
ssg75
g4303
sg68
(lp4310
g3926
(S't\r\x00\x00\x00Documentation'
tRp4311
asbasbasbag61
(g77
g63
NtRp4312
(dp4313
g66
(dp4314
sg75
g4295
sg68
(lp4315
g61
(g82
g63
NtRp4316
(dp4317
g66
(dp4318
sg75
g4312
sg68
(lp4319
g61
(g62
g63
NtRp4320
(dp4321
g66
(dp4322
g74
I1
ssg75
g4316
sg68
(lp4323
I00
asbasbasbag61
(g77
g63
NtRp4324
(dp4325
g66
(dp4326
sg75
g4295
sg68
(lp4327
g61
(g82
g63
NtRp4328
(dp4329
g66
(dp4330
sg75
g4324
sg68
(lp4331
g61
(g62
g63
NtRp4332
(dp4333
g66
(dp4334
g74
I1
ssg75
g4328
sg68
(lp4335
S'http://www.web2py.com/book'
p4336
asbasbasbag61
(g77
g63
NtRp4337
(dp4338
g66
(dp4339
sg75
g4295
sg68
(lp4340
g61
(g82
g63
NtRp4341
(dp4342
g66
(dp4343
sg75
g4337
sg68
(lp4344
g61
(g62
g63
NtRp4345
(dp4346
g66
(dp4347
g74
I1
ssg75
g4341
sg68
(lp4348
(lp4349
(g3926
(S't\x07\x00\x00\x00Preface'
tRp4350
I00
S'http://www.web2py.com/book/default/chapter/00'
p4351
tp4352
a(g3926
(S't\x0c\x00\x00\x00Introduction'
tRp4353
I00
S'http://www.web2py.com/book/default/chapter/01'
p4354
tp4355
a(g3926
(S't\x06\x00\x00\x00Python'
tRp4356
I00
S'http://www.web2py.com/book/default/chapter/02'
p4357
tp4358
a(g3926
(S't\x08\x00\x00\x00Overview'
tRp4359
I00
S'http://www.web2py.com/book/default/chapter/03'
p4360
tp4361
a(g3926
(S's\x08\x00\x00\x00The Core'
tRp4362
I00
S'http://www.web2py.com/book/default/chapter/04'
p4363
tp4364
a(g3926
(S's\t\x00\x00\x00The Views'
tRp4365
I00
S'http://www.web2py.com/book/default/chapter/05'
p4366
tp4367
a(g3926
(S's\x0e\x00\x00\x00Banco de dados'
tRp4368
I00
S'http://www.web2py.com/book/default/chapter/06'
p4369
tp4370
a(g3926
(S's\x14\x00\x00\x00Forms and Validators'
tRp4371
I00
S'http://www.web2py.com/book/default/chapter/07'
p4372
tp4373
a(g3926
(S's\r\x00\x00\x00Email and SMS'
tRp4374
I00
S'http://www.web2py.com/book/default/chapter/08'
p4375
tp4376
a(g3926
(S's\x0e\x00\x00\x00Access Control'
tRp4377
I00
S'http://www.web2py.com/book/default/chapter/09'
p4378
tp4379
a(g3926
(S't\x08\x00\x00\x00Services'
tRp4380
I00
S'http://www.web2py.com/book/default/chapter/10'
p4381
tp4382
a(g3926
(S's\x0c\x00\x00\x00Ajax Recipes'
tRp4383
I00
S'http://www.web2py.com/book/default/chapter/11'
p4384
tp4385
a(g3926
(S's\x16\x00\x00\x00Components and Plugins'
tRp4386
I00
S'http://www.web2py.com/book/default/chapter/12'
p4387
tp4388
a(g3926
(S's\x12\x00\x00\x00Deployment Recipes'
tRp4389
I00
S'http://www.web2py.com/book/default/chapter/13'
p4390
tp4391
a(g3926
(S's\r\x00\x00\x00Other Recipes'
tRp4392
I00
S'http://www.web2py.com/book/default/chapter/14'
p4393
tp4394
a(g3926
(S's\r\x00\x00\x00Buy this book'
tRp4395
I00
S'http://stores.lulu.com/web2py'
p4396
tp4397
aasbasbasbasbasbasbasbag61
(g77
g63
NtRp4398
(dp4399
g66
(dp4400
sg75
g4040
sg68
(lp4401
g61
(g82
g63
NtRp4402
(dp4403
g66
(dp4404
sg75
g4398
sg68
(lp4405
g61
(g62
g63
NtRp4406
(dp4407
g66
(dp4408
g74
I2
ssg75
g4402
sg68
(lp4409
g61
(g70
g63
NtRp4410
(dp4411
g66
(dp4412
g74
I1
ssg75
Nsg68
(lp4413
g61
(g77
g63
NtRp4414
(dp4415
g66
(dp4416
sg75
g4410
sg68
(lp4417
g61
(g82
g63
NtRp4418
(dp4419
g66
(dp4420
sg75
g4414
sg68
(lp4421
g61
(g62
g63
NtRp4422
(dp4423
g66
(dp4424
g74
I1
ssg75
g4418
sg68
(lp4425
g3926
(S't\t\x00\x00\x00Community'
tRp4426
asbasbasbag61
(g77
g63
NtRp4427
(dp4428
g66
(dp4429
sg75
g4410
sg68
(lp4430
g61
(g82
g63
NtRp4431
(dp4432
g66
(dp4433
sg75
g4427
sg68
(lp4434
g61
(g62
g63
NtRp4435
(dp4436
g66
(dp4437
g74
I1
ssg75
g4431
sg68
(lp4438
I00
asbasbasbag61
(g77
g63
NtRp4439
(dp4440
g66
(dp4441
sg75
g4410
sg68
(lp4442
g61
(g82
g63
NtRp4443
(dp4444
g66
(dp4445
sg75
g4439
sg68
(lp4446
g61
(g62
g63
NtRp4447
(dp4448
g66
(dp4449
g74
I1
ssg75
g4443
sg68
(lp4450
Nasbasbasbag61
(g77
g63
NtRp4451
(dp4452
g66
(dp4453
sg75
g4410
sg68
(lp4454
g61
(g82
g63
NtRp4455
(dp4456
g66
(dp4457
sg75
g4451
sg68
(lp4458
g61
(g62
g63
NtRp4459
(dp4460
g66
(dp4461
g74
I1
ssg75
g4455
sg68
(lp4462
(lp4463
(g3926
(S't\x06\x00\x00\x00Groups'
tRp4464
I00
S'http://www.web2py.com/examples/default/usergroups'
p4465
tp4466
a(g3926
(S't\x07\x00\x00\x00Twitter'
tRp4467
I00
S'http://twitter.com/web2py'
p4468
tp4469
a(g3926
(S's\t\x00\x00\x00Live Chat'
tRp4470
I00
S'http://webchat.freenode.net/?channels=web2py'
p4471
tp4472
aasbasbasbasbasbasbasbag61
(g77
g63
NtRp4473
(dp4474
g66
(dp4475
sg75
g4040
sg68
(lp4476
g61
(g82
g63
NtRp4477
(dp4478
g66
(dp4479
sg75
g4473
sg68
(lp4480
g61
(g62
g63
NtRp4481
(dp4482
g66
(dp4483
g74
I2
ssg75
g4477
sg68
(lp4484
g61
(g70
g63
NtRp4485
(dp4486
g66
(dp4487
g74
I1
ssg75
Nsg68
(lp4488
g61
(g77
g63
NtRp4489
(dp4490
g66
(dp4491
sg75
g4485
sg68
(lp4492
g61
(g82
g63
NtRp4493
(dp4494
g66
(dp4495
sg75
g4489
sg68
(lp4496
g61
(g62
g63
NtRp4497
(dp4498
g66
(dp4499
g74
I1
ssg75
g4493
sg68
(lp4500
g3926
(S't\x07\x00\x00\x00Plugins'
tRp4501
asbasbasbag61
(g77
g63
NtRp4502
(dp4503
g66
(dp4504
sg75
g4485
sg68
(lp4505
g61
(g82
g63
NtRp4506
(dp4507
g66
(dp4508
sg75
g4502
sg68
(lp4509
g61
(g62
g63
NtRp4510
(dp4511
g66
(dp4512
g74
I1
ssg75
g4506
sg68
(lp4513
I00
asbasbasbag61
(g77
g63
NtRp4514
(dp4515
g66
(dp4516
sg75
g4485
sg68
(lp4517
g61
(g82
g63
NtRp4518
(dp4519
g66
(dp4520
sg75
g4514
sg68
(lp4521
g61
(g62
g63
NtRp4522
(dp4523
g66
(dp4524
g74
I1
ssg75
g4518
sg68
(lp4525
Nasbasbasbag61
(g77
g63
NtRp4526
(dp4527
g66
(dp4528
sg75
g4485
sg68
(lp4529
g61
(g82
g63
NtRp4530
(dp4531
g66
(dp4532
sg75
g4526
sg68
(lp4533
g61
(g62
g63
NtRp4534
(dp4535
g66
(dp4536
g74
I1
ssg75
g4530
sg68
(lp4537
(lp4538
(S'plugin_wiki'
p4539
I00
S'http://web2py.com/examples/default/download'
p4540
tp4541
a(g3926
(S's\r\x00\x00\x00Other Plugins'
tRp4542
I00
g4272
tp4543
a(g3926
(S's\x0e\x00\x00\x00Layout Plugins'
tRp4544
I00
g4275
tp4545
aasbasbasbasbasbasbasbasbasbasbasbasbasbasbasbasbasbasbasbag61
(g77
g63
NtRp4546
(dp4547
g66
(dp4548
sg75
g3402
sg68
(lp4549
g61
(g82
g63
NtRp4550
(dp4551
g66
(dp4552
g86
g87
ssg75
g4546
sg68
(lp4553
S'meta'
p4554
asbag61
(g82
g63
NtRp4555
(dp4556
g66
(dp4557
g93
g94
ssg75
g4546
sg68
(lp4558
S':'
asbag61
(g82
g63
NtRp4559
(dp4560
g66
(dp4561
sg75
g4546
sg68
(lp4562
g61
(g62
g63
NtRp4563
(dp4564
g66
(dp4565
g74
I5
ssg75
g4559
sg68
(lp4566
g61
(g70
g63
NtRp4567
(dp4568
g66
(dp4569
g74
I4
ssg75
Nsg68
(lp4570
g61
(g77
g63
NtRp4571
(dp4572
g66
(dp4573
sg75
g4567
sg68
(lp4574
g61
(g82
g63
NtRp4575
(dp4576
g66
(dp4577
g86
g87
ssg75
g4571
sg68
(lp4578
S'author'
p4579
asbag61
(g82
g63
NtRp4580
(dp4581
g66
(dp4582
g93
g94
ssg75
g4571
sg68
(lp4583
S':'
asbag61
(g82
g63
NtRp4584
(dp4585
g66
(dp4586
sg75
g4571
sg68
(lp4587
g61
(g62
g63
NtRp4588
(dp4589
g66
(dp4590
g74
I4
ssg75
g4584
sg68
(lp4591
S'Your Name <you@example.com>'
p4592
asbasbasbag61
(g77
g63
NtRp4593
(dp4594
g66
(dp4595
sg75
g4567
sg68
(lp4596
g61
(g82
g63
NtRp4597
(dp4598
g66
(dp4599
g86
g87
ssg75
g4593
sg68
(lp4600
S'copyright'
p4601
asbag61
(g82
g63
NtRp4602
(dp4603
g66
(dp4604
g93
g94
ssg75
g4593
sg68
(lp4605
S':'
asbag61
(g82
g63
NtRp4606
(dp4607
g66
(dp4608
sg75
g4593
sg68
(lp4609
g61
(g62
g63
NtRp4610
(dp4611
g66
(dp4612
g74
I4
ssg75
g4606
sg68
(lp4613
S'Copyright 2011'
p4614
asbasbasbag61
(g77
g63
NtRp4615
(dp4616
g66
(dp4617
sg75
g4567
sg68
(lp4618
g61
(g82
g63
NtRp4619
(dp4620
g66
(dp4621
g86
g87
ssg75
g4615
sg68
(lp4622
S'description'
p4623
asbag61
(g82
g63
NtRp4624
(dp4625
g66
(dp4626
g93
g94
ssg75
g4615
sg68
(lp4627
S':'
asbag61
(g82
g63
NtRp4628
(dp4629
g66
(dp4630
sg75
g4615
sg68
(lp4631
g61
(g62
g63
NtRp4632
(dp4633
g66
(dp4634
g74
I4
ssg75
g4628
sg68
(lp4635
S'a cool new app'
p4636
asbasbasbag61
(g77
g63
NtRp4637
(dp4638
g66
(dp4639
sg75
g4567
sg68
(lp4640
g61
(g82
g63
NtRp4641
(dp4642
g66
(dp4643
g86
g87
ssg75
g4637
sg68
(lp4644
S'generator'
p4645
asbag61
(g82
g63
NtRp4646
(dp4647
g66
(dp4648
g93
g94
ssg75
g4637
sg68
(lp4649
S':'
asbag61
(g82
g63
NtRp4650
(dp4651
g66
(dp4652
sg75
g4637
sg68
(lp4653
g61
(g62
g63
NtRp4654
(dp4655
g66
(dp4656
g74
I4
ssg75
g4650
sg68
(lp4657
S'Web2py Web Framework'
p4658
asbasbasbag61
(g77
g63
NtRp4659
(dp4660
g66
(dp4661
sg75
g4567
sg68
(lp4662
g61
(g82
g63
NtRp4663
(dp4664
g66
(dp4665
g86
g87
ssg75
g4659
sg68
(lp4666
S'keywords'
p4667
asbag61
(g82
g63
NtRp4668
(dp4669
g66
(dp4670
g93
g94
ssg75
g4659
sg68
(lp4671
S':'
asbag61
(g82
g63
NtRp4672
(dp4673
g66
(dp4674
sg75
g4659
sg68
(lp4675
g61
(g62
g63
NtRp4676
(dp4677
g66
(dp4678
g74
I4
ssg75
g4672
sg68
(lp4679
S'web2py, python, framework'
p4680
asbasbasbasbasbasbasbag61
(g77
g63
NtRp4681
(dp4682
g66
(dp4683
sg75
g3402
sg68
(lp4684
g61
(g82
g63
NtRp4685
(dp4686
g66
(dp4687
g86
g87
ssg75
g4681
sg68
(lp4688
S'postprocessing'
p4689
asbag61
(g82
g63
NtRp4690
(dp4691
g66
(dp4692
g93
g94
ssg75
g4681
sg68
(lp4693
S':'
asbag61
(g82
g63
NtRp4694
(dp4695
g66
(dp4696
sg75
g4681
sg68
(lp4697
g61
(g62
g63
NtRp4698
(dp4699
g66
(dp4700
g74
I5
ssg75
g4694
sg68
(lp4701
g61
(g70
g63
NtRp4702
(dp4703
g66
(dp4704
g74
I4
ssg75
Nsg68
(lp4705
sbasbasbasbag61
(g77
g63
NtRp4706
(dp4707
g66
(dp4708
sg75
g3402
sg68
(lp4709
g61
(g82
g63
NtRp4710
(dp4711
g66
(dp4712
g86
g87
ssg75
g4706
sg68
(lp4713
S'session_file'
p4714
asbag61
(g82
g63
NtRp4715
(dp4716
g66
(dp4717
g93
g94
ssg75
g4706
sg68
(lp4718
S':'
asbag61
(g82
g63
NtRp4719
(dp4720
g66
(dp4721
sg75
g4706
sg68
(lp4722
g61
(g62
g63
NtRp4723
(dp4724
g66
(dp4725
g74
I5
ssg75
g4719
sg68
(lp4726
S"<open file 'C:\\web2py\\applications\\unioeste_code\\sessions\\127.0.0.1-d63b25dc-54ab-4837-86c6-738372b4cce3', mode 'rb+' at 0x06F24BA8>"
p4727
asbasbasbag61
(g77
g63
NtRp4728
(dp4729
g66
(dp4730
sg75
g3402
sg68
(lp4731
g61
(g82
g63
NtRp4732
(dp4733
g66
(dp4734
g86
g87
ssg75
g4728
sg68
(lp4735
S'session_filename'
p4736
asbag61
(g82
g63
NtRp4737
(dp4738
g66
(dp4739
g93
g94
ssg75
g4728
sg68
(lp4740
S':'
asbag61
(g82
g63
NtRp4741
(dp4742
g66
(dp4743
sg75
g4728
sg68
(lp4744
g61
(g62
g63
NtRp4745
(dp4746
g66
(dp4747
g74
I5
ssg75
g4741
sg68
(lp4748
S'C:\\web2py\\applications\\unioeste_code\\sessions\\127.0.0.1-d63b25dc-54ab-4837-86c6-738372b4cce3'
p4749
asbasbasbag61
(g77
g63
NtRp4750
(dp4751
g66
(dp4752
sg75
g3402
sg68
(lp4753
g61
(g82
g63
NtRp4754
(dp4755
g66
(dp4756
g86
g87
ssg75
g4750
sg68
(lp4757
S'session_id'
p4758
asbag61
(g82
g63
NtRp4759
(dp4760
g66
(dp4761
g93
g94
ssg75
g4750
sg68
(lp4762
S':'
asbag61
(g82
g63
NtRp4763
(dp4764
g66
(dp4765
sg75
g4750
sg68
(lp4766
g61
(g62
g63
NtRp4767
(dp4768
g66
(dp4769
g74
I5
ssg75
g4763
sg68
(lp4770
S'127.0.0.1-d63b25dc-54ab-4837-86c6-738372b4cce3'
p4771
asbasbasbag61
(g77
g63
NtRp4772
(dp4773
g66
(dp4774
sg75
g3402
sg68
(lp4775
g61
(g82
g63
NtRp4776
(dp4777
g66
(dp4778
g86
g87
ssg75
g4772
sg68
(lp4779
S'session_id_name'
p4780
asbag61
(g82
g63
NtRp4781
(dp4782
g66
(dp4783
g93
g94
ssg75
g4772
sg68
(lp4784
S':'
asbag61
(g82
g63
NtRp4785
(dp4786
g66
(dp4787
sg75
g4772
sg68
(lp4788
g61
(g62
g63
NtRp4789
(dp4790
g66
(dp4791
g74
I5
ssg75
g4785
sg68
(lp4792
g3459
asbasbasbag61
(g77
g63
NtRp4793
(dp4794
g66
(dp4795
sg75
g3402
sg68
(lp4796
g61
(g82
g63
NtRp4797
(dp4798
g66
(dp4799
g86
g87
ssg75
g4793
sg68
(lp4800
S'session_locked'
p4801
asbag61
(g82
g63
NtRp4802
(dp4803
g66
(dp4804
g93
g94
ssg75
g4793
sg68
(lp4805
S':'
asbag61
(g82
g63
NtRp4806
(dp4807
g66
(dp4808
sg75
g4793
sg68
(lp4809
g61
(g62
g63
NtRp4810
(dp4811
g66
(dp4812
g74
I5
ssg75
g4806
sg68
(lp4813
g1642
asbasbasbag61
(g77
g63
NtRp4814
(dp4815
g66
(dp4816
sg75
g3402
sg68
(lp4817
g61
(g82
g63
NtRp4818
(dp4819
g66
(dp4820
g86
g87
ssg75
g4814
sg68
(lp4821
S'session_new'
p4822
asbag61
(g82
g63
NtRp4823
(dp4824
g66
(dp4825
g93
g94
ssg75
g4814
sg68
(lp4826
S':'
asbag61
(g82
g63
NtRp4827
(dp4828
g66
(dp4829
sg75
g4814
sg68
(lp4830
g61
(g62
g63
NtRp4831
(dp4832
g66
(dp4833
g74
I5
ssg75
g4827
sg68
(lp4834
g104
asbasbasbag61
(g77
g63
NtRp4835
(dp4836
g66
(dp4837
sg75
g3402
sg68
(lp4838
g61
(g82
g63
NtRp4839
(dp4840
g66
(dp4841
g86
g87
ssg75
g4835
sg68
(lp4842
S'status'
p4843
asbag61
(g82
g63
NtRp4844
(dp4845
g66
(dp4846
g93
g94
ssg75
g4835
sg68
(lp4847
S':'
asbag61
(g82
g63
NtRp4848
(dp4849
g66
(dp4850
sg75
g4835
sg68
(lp4851
g61
(g62
g63
NtRp4852
(dp4853
g66
(dp4854
g74
I5
ssg75
g4848
sg68
(lp4855
S'200'
p4856
asbasbasbag61
(g77
g63
NtRp4857
(dp4858
g66
(dp4859
sg75
g3402
sg68
(lp4860
g61
(g82
g63
NtRp4861
(dp4862
g66
(dp4863
g86
g87
ssg75
g4857
sg68
(lp4864
S'subtitle'
p4865
asbag61
(g82
g63
NtRp4866
(dp4867
g66
(dp4868
g93
g94
ssg75
g4857
sg68
(lp4869
S':'
asbag61
(g82
g63
NtRp4870
(dp4871
g66
(dp4872
sg75
g4857
sg68
(lp4873
g61
(g62
g63
NtRp4874
(dp4875
g66
(dp4876
g74
I5
ssg75
g4870
sg68
(lp4877
g3926
(S's\x0f\x00\x00\x00Personalize-me!'
tRp4878
asbasbasbag61
(g77
g63
NtRp4879
(dp4880
g66
(dp4881
sg75
g3402
sg68
(lp4882
g61
(g82
g63
NtRp4883
(dp4884
g66
(dp4885
g86
g87
ssg75
g4879
sg68
(lp4886
S'title'
p4887
asbag61
(g82
g63
NtRp4888
(dp4889
g66
(dp4890
g93
g94
ssg75
g4879
sg68
(lp4891
S':'
asbag61
(g82
g63
NtRp4892
(dp4893
g66
(dp4894
sg75
g4879
sg68
(lp4895
g61
(g62
g63
NtRp4896
(dp4897
g66
(dp4898
g74
I5
ssg75
g4892
sg68
(lp4899
S'Unioeste Code'
p4900
asbasbasbag61
(g77
g63
NtRp4901
(dp4902
g66
(dp4903
sg75
g3402
sg68
(lp4904
g61
(g82
g63
NtRp4905
(dp4906
g66
(dp4907
g86
g87
ssg75
g4901
sg68
(lp4908
g2306
asbag61
(g82
g63
NtRp4909
(dp4910
g66
(dp4911
g93
g94
ssg75
g4901
sg68
(lp4912
S':'
asbag61
(g82
g63
NtRp4913
(dp4914
g66
(dp4915
sg75
g4901
sg68
(lp4916
g61
(g62
g63
NtRp4917
(dp4918
g66
(dp4919
g74
I5
ssg75
g4913
sg68
(lp4920
g2319
asbasbasbag61
(g77
g63
NtRp4921
(dp4922
g66
(dp4923
sg75
g3402
sg68
(lp4924
g61
(g82
g63
NtRp4925
(dp4926
g66
(dp4927
g86
g87
ssg75
g4921
sg68
(lp4928
S'view'
p4929
asbag61
(g82
g63
NtRp4930
(dp4931
g66
(dp4932
g93
g94
ssg75
g4921
sg68
(lp4933
S':'
asbag61
(g82
g63
NtRp4934
(dp4935
g66
(dp4936
sg75
g4921
sg68
(lp4937
g61
(g62
g63
NtRp4938
(dp4939
g66
(dp4940
g74
I5
ssg75
g4934
sg68
(lp4941
S'default/index.html'
p4942
asbasbasbasbasbsS'locals'
p4943
(dp4944
g4
S"r'C:\\web2py\\applications\\unioeste_code\\views\\default/index.html'"
p4945
sg6
S'\'response.write(\\\'<!DOCTYPE html>\\\\r\\\\n<html lang="e...n\\\\r\\\\n  </body>\\\\r\\\\n</html>\\\\r\\\\n\\\\r\\\\n\\\', escape=False)\''
p4946
sssS'traceback'
p4947
S'Traceback (most recent call last):\n  File "gluon/restricted.py", line 204, in restricted\n  File "gluon/restricted.py", line 189, in compile2\n  File "C:\\web2py\\applications\\unioeste_code\\views\\default/index.html", line 19\n    response.write(\'\\n\', escape=False)\n           ^\nSyntaxError: invalid syntax\n'
p4948
s.