(dp1
S'output'
p2
S"<type 'exceptions.AttributeError'> 'NoneType' object has no attribute 'id'"
p3
sS'layer'
p4
S'C:\\web2py\\applications\\unioeste_code\\controllers/default.py'
p5
sS'code'
p6
S'# -*- coding: utf-8 -*-\n# this file is released under public domain and you can use without limitations\n\n#########################################################################\n## This is a samples controller\n## - index is the default action of any application\n## - user is required for authentication and authorization\n## - download is for downloading files uploaded in the db (does streaming)\n## - call exposes all registered services (none by default)\n#########################################################################\n\ndef index():\n    problems = db().select(db.problem.ALL, orderby = db.problem.title)\n    return dict(problems=problems)\n\n@auth.requires_login()\ndef Problem():\n    problem = db(db.problem.id==request.args(0)).select().first()\n    db.code.problem_id.default = problem.id\n    form = SQLFORM(db.code)\n    if form.process().accepted:\n        response.flash = T(\'Your code has been posted\')\n    codes = db(db.code.problem_id == problem.id).select()    \n    return dict(problem=problem, codes=codes, form=form)\n\n@auth.requires_login()\ndef Code():\n    code = db(db.code.id == request.args(0)).select().first()\n    db.comment.code_id.default = code.id\n    form = SQLFORM(db.comment)\n    if form.process().accepted:\n        response.flash = T(\'Your comment has been posted\')\n    return dict(code=code,comments=comments,form=form)\n\n@auth.requires_membership(\'manager\')\ndef manageCode():\n    grid = SQLFORM.smartgrid(db.code)\n    return dict(grid=grid)\n\ndef user():\n    """\n    exposes:\n    http://..../[app]/default/user/login\n    http://..../[app]/default/user/logout\n    http://..../[app]/default/user/register\n    http://..../[app]/default/user/profile\n    http://..../[app]/default/user/retrieve_password\n    http://..../[app]/default/user/change_password\n    use @auth.requires_login()\n        @auth.requires_membership(\'group name\')\n        @auth.requires_permission(\'read\',\'table name\',record_id)\n    to decorate functions that need access control\n    """\n    return dict(form=auth())\n\n\ndef download():\n    """\n    allows downloading of uploaded files\n    http://..../[app]/default/download/[filename]\n    """\n    return response.download(request,db)\n\n\ndef call():\n    """\n    exposes services. for example:\n    http://..../[app]/default/call/jsonrpc\n    decorate with @services.jsonrpc the functions to expose\n    supports xml, json, xmlrpc, jsonrpc, amfrpc, rss, csv\n    """\n    return service()\n\n\n@auth.requires_signature()\ndef data():\n    """\n    http://..../[app]/default/data/tables\n    http://..../[app]/default/data/create/[table]\n    http://..../[app]/default/data/read/[table]/[id]\n    http://..../[app]/default/data/update/[table]/[id]\n    http://..../[app]/default/data/delete/[table]/[id]\n    http://..../[app]/default/data/select/[table]\n    http://..../[app]/default/data/search/[table]\n    but URLs must be signed, i.e. linked with\n      A(\'table\',_href=URL(\'data/tables\',user_signature=True))\n    or with the signed load operator\n      LOAD(\'default\',\'data.load\',args=\'tables\',ajax=True,user_signature=True)\n    """\n    return dict(form=crud())\n\n\nresponse._vars=response._caller(Problem)\n'
p7
sS'snapshot'
p8
(dp9
S'exception'
p10
(dp11
S'__hash__'
p12
S"<method-wrapper '__hash__' of exceptions.AttributeError object at 0x0684BB70>"
p13
sS'__setattr__'
p14
S"<method-wrapper '__setattr__' of exceptions.AttributeError object at 0x0684BB70>"
p15
sS'__reduce_ex__'
p16
S'<built-in method __reduce_ex__ of exceptions.AttributeError object at 0x0684BB70>'
p17
sS'__getslice__'
p18
S"<method-wrapper '__getslice__' of exceptions.AttributeError object at 0x0684BB70>"
p19
sS'__getitem__'
p20
S"<method-wrapper '__getitem__' of exceptions.AttributeError object at 0x0684BB70>"
p21
sS'__setstate__'
p22
S'<built-in method __setstate__ of exceptions.AttributeError object at 0x0684BB70>'
p23
sS'__reduce__'
p24
S'<built-in method __reduce__ of exceptions.AttributeError object at 0x0684BB70>'
p25
sS'__str__'
p26
S"<method-wrapper '__str__' of exceptions.AttributeError object at 0x0684BB70>"
p27
sS'args'
p28
S'("\'NoneType\' object has no attribute \'id\'",)'
p29
sS'__getattribute__'
p30
S"<method-wrapper '__getattribute__' of exceptions.AttributeError object at 0x0684BB70>"
p31
sS'__class__'
p32
S"<type 'exceptions.AttributeError'>"
p33
sS'__delattr__'
p34
S"<method-wrapper '__delattr__' of exceptions.AttributeError object at 0x0684BB70>"
p35
sS'__repr__'
p36
S"<method-wrapper '__repr__' of exceptions.AttributeError object at 0x0684BB70>"
p37
sS'__dict__'
p38
S'{}'
p39
sS'__doc__'
p40
S"'Attribute not found.'"
p41
sS'__init__'
p42
S"<method-wrapper '__init__' of exceptions.AttributeError object at 0x0684BB70>"
p43
sS'__new__'
p44
S'<built-in method __new__ of type object at 0x1E1CDA68>'
p45
ssS'evalue'
p46
S"'NoneType' object has no attribute 'id'"
p47
sS'request'
p48
ccopy_reg
_reconstructor
p49
(cgluon.html
BEAUTIFY
p50
c__builtin__
object
p51
NtRp52
(dp53
S'attributes'
p54
(dp55
sS'components'
p56
(lp57
g49
(cgluon.html
TABLE
p58
g51
NtRp59
(dp60
g54
(dp61
S'level'
p62
I5
ssS'parent'
p63
Nsg56
(lp64
g49
(cgluon.html
TR
p65
g51
NtRp66
(dp67
g54
(dp68
sg63
g59
sg56
(lp69
g49
(cgluon.html
TD
p70
g51
NtRp71
(dp72
g54
(dp73
S'_style'
p74
S'font-weight:bold;vertical-align:top'
p75
ssg63
g66
sg56
(lp76
S'ajax'
p77
asbag49
(g70
g51
NtRp78
(dp79
g54
(dp80
S'_valign'
p81
S'top'
p82
ssg63
g66
sg56
(lp83
S':'
asbag49
(g70
g51
NtRp84
(dp85
g54
(dp86
sg63
g66
sg56
(lp87
g49
(g50
g51
NtRp88
(dp89
g54
(dp90
g62
I5
ssg63
g84
sg56
(lp91
S'False'
p92
asbasbasbag49
(g65
g51
NtRp93
(dp94
g54
(dp95
sg63
g59
sg56
(lp96
g49
(g70
g51
NtRp97
(dp98
g54
(dp99
g74
g75
ssg63
g93
sg56
(lp100
S'application'
p101
asbag49
(g70
g51
NtRp102
(dp103
g54
(dp104
g81
g82
ssg63
g93
sg56
(lp105
S':'
asbag49
(g70
g51
NtRp106
(dp107
g54
(dp108
sg63
g93
sg56
(lp109
g49
(g50
g51
NtRp110
(dp111
g54
(dp112
g62
I5
ssg63
g106
sg56
(lp113
S'unioeste_code'
p114
asbasbasbag49
(g65
g51
NtRp115
(dp116
g54
(dp117
sg63
g59
sg56
(lp118
g49
(g70
g51
NtRp119
(dp120
g54
(dp121
g74
g75
ssg63
g115
sg56
(lp122
g28
asbag49
(g70
g51
NtRp123
(dp124
g54
(dp125
g81
g82
ssg63
g115
sg56
(lp126
S':'
asbag49
(g70
g51
NtRp127
(dp128
g54
(dp129
sg63
g115
sg56
(lp130
g49
(g50
g51
NtRp131
(dp132
g54
(dp133
g62
I5
ssg63
g127
sg56
(lp134
g49
(g58
g51
NtRp135
(dp136
g54
(dp137
g62
I4
ssg63
Nsg56
(lp138
g49
(g65
g51
NtRp139
(dp140
g54
(dp141
sg63
g135
sg56
(lp142
g49
(g70
g51
NtRp143
(dp144
g54
(dp145
sg63
g139
sg56
(lp146
g49
(g50
g51
NtRp147
(dp148
g54
(dp149
g62
I4
ssg63
g143
sg56
(lp150
S'20'
p151
asbasbasbasbasbasbasbag49
(g65
g51
NtRp152
(dp153
g54
(dp154
sg63
g59
sg56
(lp155
g49
(g70
g51
NtRp156
(dp157
g54
(dp158
g74
g75
ssg63
g152
sg56
(lp159
S'body'
p160
asbag49
(g70
g51
NtRp161
(dp162
g54
(dp163
g81
g82
ssg63
g152
sg56
(lp164
S':'
asbag49
(g70
g51
NtRp165
(dp166
g54
(dp167
sg63
g152
sg56
(lp168
g49
(g50
g51
NtRp169
(dp170
g54
(dp171
g62
I5
ssg63
g165
sg56
(lp172
S'<cStringIO.StringO object at 0x06B00860>'
p173
asbasbasbag49
(g65
g51
NtRp174
(dp175
g54
(dp176
sg63
g59
sg56
(lp177
g49
(g70
g51
NtRp178
(dp179
g54
(dp180
g74
g75
ssg63
g174
sg56
(lp181
S'client'
p182
asbag49
(g70
g51
NtRp183
(dp184
g54
(dp185
g81
g82
ssg63
g174
sg56
(lp186
S':'
asbag49
(g70
g51
NtRp187
(dp188
g54
(dp189
sg63
g174
sg56
(lp190
g49
(g50
g51
NtRp191
(dp192
g54
(dp193
g62
I5
ssg63
g187
sg56
(lp194
S'127.0.0.1'
p195
asbasbasbag49
(g65
g51
NtRp196
(dp197
g54
(dp198
sg63
g59
sg56
(lp199
g49
(g70
g51
NtRp200
(dp201
g54
(dp202
g74
g75
ssg63
g196
sg56
(lp203
S'controller'
p204
asbag49
(g70
g51
NtRp205
(dp206
g54
(dp207
g81
g82
ssg63
g196
sg56
(lp208
S':'
asbag49
(g70
g51
NtRp209
(dp210
g54
(dp211
sg63
g196
sg56
(lp212
g49
(g50
g51
NtRp213
(dp214
g54
(dp215
g62
I5
ssg63
g209
sg56
(lp216
S'default'
p217
asbasbasbag49
(g65
g51
NtRp218
(dp219
g54
(dp220
sg63
g59
sg56
(lp221
g49
(g70
g51
NtRp222
(dp223
g54
(dp224
g74
g75
ssg63
g218
sg56
(lp225
S'cookies'
p226
asbag49
(g70
g51
NtRp227
(dp228
g54
(dp229
g81
g82
ssg63
g218
sg56
(lp230
S':'
asbag49
(g70
g51
NtRp231
(dp232
g54
(dp233
sg63
g218
sg56
(lp234
g49
(g50
g51
NtRp235
(dp236
g54
(dp237
g62
I5
ssg63
g231
sg56
(lp238
g49
(g58
g51
NtRp239
(dp240
g54
(dp241
g62
I4
ssg63
Nsg56
(lp242
g49
(g65
g51
NtRp243
(dp244
g54
(dp245
sg63
g239
sg56
(lp246
g49
(g70
g51
NtRp247
(dp248
g54
(dp249
g74
g75
ssg63
g243
sg56
(lp250
S'session_id_admin'
p251
asbag49
(g70
g51
NtRp252
(dp253
g54
(dp254
g81
g82
ssg63
g243
sg56
(lp255
S':'
asbag49
(g70
g51
NtRp256
(dp257
g54
(dp258
sg63
g243
sg56
(lp259
g49
(g50
g51
NtRp260
(dp261
g54
(dp262
g62
I4
ssg63
g256
sg56
(lp263
g49
(g58
g51
NtRp264
(dp265
g54
(dp266
g62
I3
ssg63
Nsg56
(lp267
g49
(g65
g51
NtRp268
(dp269
g54
(dp270
sg63
g264
sg56
(lp271
g49
(g70
g51
NtRp272
(dp273
g54
(dp274
g74
g75
ssg63
g268
sg56
(lp275
S'comment'
p276
asbag49
(g70
g51
NtRp277
(dp278
g54
(dp279
g81
g82
ssg63
g268
sg56
(lp280
S':'
asbag49
(g70
g51
NtRp281
(dp282
g54
(dp283
sg63
g268
sg56
(lp284
g49
(g50
g51
NtRp285
(dp286
g54
(dp287
g62
I3
ssg63
g281
sg56
(lp288
S''
asbasbasbag49
(g65
g51
NtRp289
(dp290
g54
(dp291
sg63
g264
sg56
(lp292
g49
(g70
g51
NtRp293
(dp294
g54
(dp295
g74
g75
ssg63
g289
sg56
(lp296
S'domain'
p297
asbag49
(g70
g51
NtRp298
(dp299
g54
(dp300
g81
g82
ssg63
g289
sg56
(lp301
S':'
asbag49
(g70
g51
NtRp302
(dp303
g54
(dp304
sg63
g289
sg56
(lp305
g49
(g50
g51
NtRp306
(dp307
g54
(dp308
g62
I3
ssg63
g302
sg56
(lp309
S''
asbasbasbag49
(g65
g51
NtRp310
(dp311
g54
(dp312
sg63
g264
sg56
(lp313
g49
(g70
g51
NtRp314
(dp315
g54
(dp316
g74
g75
ssg63
g310
sg56
(lp317
S'expires'
p318
asbag49
(g70
g51
NtRp319
(dp320
g54
(dp321
g81
g82
ssg63
g310
sg56
(lp322
S':'
asbag49
(g70
g51
NtRp323
(dp324
g54
(dp325
sg63
g310
sg56
(lp326
g49
(g50
g51
NtRp327
(dp328
g54
(dp329
g62
I3
ssg63
g323
sg56
(lp330
S''
asbasbasbag49
(g65
g51
NtRp331
(dp332
g54
(dp333
sg63
g264
sg56
(lp334
g49
(g70
g51
NtRp335
(dp336
g54
(dp337
g74
g75
ssg63
g331
sg56
(lp338
S'max-age'
p339
asbag49
(g70
g51
NtRp340
(dp341
g54
(dp342
g81
g82
ssg63
g331
sg56
(lp343
S':'
asbag49
(g70
g51
NtRp344
(dp345
g54
(dp346
sg63
g331
sg56
(lp347
g49
(g50
g51
NtRp348
(dp349
g54
(dp350
g62
I3
ssg63
g344
sg56
(lp351
S''
asbasbasbag49
(g65
g51
NtRp352
(dp353
g54
(dp354
sg63
g264
sg56
(lp355
g49
(g70
g51
NtRp356
(dp357
g54
(dp358
g74
g75
ssg63
g352
sg56
(lp359
S'path'
p360
asbag49
(g70
g51
NtRp361
(dp362
g54
(dp363
g81
g82
ssg63
g352
sg56
(lp364
S':'
asbag49
(g70
g51
NtRp365
(dp366
g54
(dp367
sg63
g352
sg56
(lp368
g49
(g50
g51
NtRp369
(dp370
g54
(dp371
g62
I3
ssg63
g365
sg56
(lp372
S''
asbasbasbag49
(g65
g51
NtRp373
(dp374
g54
(dp375
sg63
g264
sg56
(lp376
g49
(g70
g51
NtRp377
(dp378
g54
(dp379
g74
g75
ssg63
g373
sg56
(lp380
S'secure'
p381
asbag49
(g70
g51
NtRp382
(dp383
g54
(dp384
g81
g82
ssg63
g373
sg56
(lp385
S':'
asbag49
(g70
g51
NtRp386
(dp387
g54
(dp388
sg63
g373
sg56
(lp389
g49
(g50
g51
NtRp390
(dp391
g54
(dp392
g62
I3
ssg63
g386
sg56
(lp393
S''
asbasbasbag49
(g65
g51
NtRp394
(dp395
g54
(dp396
sg63
g264
sg56
(lp397
g49
(g70
g51
NtRp398
(dp399
g54
(dp400
g74
g75
ssg63
g394
sg56
(lp401
S'version'
p402
asbag49
(g70
g51
NtRp403
(dp404
g54
(dp405
g81
g82
ssg63
g394
sg56
(lp406
S':'
asbag49
(g70
g51
NtRp407
(dp408
g54
(dp409
sg63
g394
sg56
(lp410
g49
(g50
g51
NtRp411
(dp412
g54
(dp413
g62
I3
ssg63
g407
sg56
(lp414
S''
asbasbasbasbasbasbasbag49
(g65
g51
NtRp415
(dp416
g54
(dp417
sg63
g239
sg56
(lp418
g49
(g70
g51
NtRp419
(dp420
g54
(dp421
g74
g75
ssg63
g415
sg56
(lp422
S'session_id_unioeste_code'
p423
asbag49
(g70
g51
NtRp424
(dp425
g54
(dp426
g81
g82
ssg63
g415
sg56
(lp427
S':'
asbag49
(g70
g51
NtRp428
(dp429
g54
(dp430
sg63
g415
sg56
(lp431
g49
(g50
g51
NtRp432
(dp433
g54
(dp434
g62
I4
ssg63
g428
sg56
(lp435
g49
(g58
g51
NtRp436
(dp437
g54
(dp438
g62
I3
ssg63
Nsg56
(lp439
g49
(g65
g51
NtRp440
(dp441
g54
(dp442
sg63
g436
sg56
(lp443
g49
(g70
g51
NtRp444
(dp445
g54
(dp446
g74
g75
ssg63
g440
sg56
(lp447
g276
asbag49
(g70
g51
NtRp448
(dp449
g54
(dp450
g81
g82
ssg63
g440
sg56
(lp451
S':'
asbag49
(g70
g51
NtRp452
(dp453
g54
(dp454
sg63
g440
sg56
(lp455
g49
(g50
g51
NtRp456
(dp457
g54
(dp458
g62
I3
ssg63
g452
sg56
(lp459
S''
asbasbasbag49
(g65
g51
NtRp460
(dp461
g54
(dp462
sg63
g436
sg56
(lp463
g49
(g70
g51
NtRp464
(dp465
g54
(dp466
g74
g75
ssg63
g460
sg56
(lp467
g297
asbag49
(g70
g51
NtRp468
(dp469
g54
(dp470
g81
g82
ssg63
g460
sg56
(lp471
S':'
asbag49
(g70
g51
NtRp472
(dp473
g54
(dp474
sg63
g460
sg56
(lp475
g49
(g50
g51
NtRp476
(dp477
g54
(dp478
g62
I3
ssg63
g472
sg56
(lp479
S''
asbasbasbag49
(g65
g51
NtRp480
(dp481
g54
(dp482
sg63
g436
sg56
(lp483
g49
(g70
g51
NtRp484
(dp485
g54
(dp486
g74
g75
ssg63
g480
sg56
(lp487
g318
asbag49
(g70
g51
NtRp488
(dp489
g54
(dp490
g81
g82
ssg63
g480
sg56
(lp491
S':'
asbag49
(g70
g51
NtRp492
(dp493
g54
(dp494
sg63
g480
sg56
(lp495
g49
(g50
g51
NtRp496
(dp497
g54
(dp498
g62
I3
ssg63
g492
sg56
(lp499
S''
asbasbasbag49
(g65
g51
NtRp500
(dp501
g54
(dp502
sg63
g436
sg56
(lp503
g49
(g70
g51
NtRp504
(dp505
g54
(dp506
g74
g75
ssg63
g500
sg56
(lp507
g339
asbag49
(g70
g51
NtRp508
(dp509
g54
(dp510
g81
g82
ssg63
g500
sg56
(lp511
S':'
asbag49
(g70
g51
NtRp512
(dp513
g54
(dp514
sg63
g500
sg56
(lp515
g49
(g50
g51
NtRp516
(dp517
g54
(dp518
g62
I3
ssg63
g512
sg56
(lp519
S''
asbasbasbag49
(g65
g51
NtRp520
(dp521
g54
(dp522
sg63
g436
sg56
(lp523
g49
(g70
g51
NtRp524
(dp525
g54
(dp526
g74
g75
ssg63
g520
sg56
(lp527
g360
asbag49
(g70
g51
NtRp528
(dp529
g54
(dp530
g81
g82
ssg63
g520
sg56
(lp531
S':'
asbag49
(g70
g51
NtRp532
(dp533
g54
(dp534
sg63
g520
sg56
(lp535
g49
(g50
g51
NtRp536
(dp537
g54
(dp538
g62
I3
ssg63
g532
sg56
(lp539
S''
asbasbasbag49
(g65
g51
NtRp540
(dp541
g54
(dp542
sg63
g436
sg56
(lp543
g49
(g70
g51
NtRp544
(dp545
g54
(dp546
g74
g75
ssg63
g540
sg56
(lp547
g381
asbag49
(g70
g51
NtRp548
(dp549
g54
(dp550
g81
g82
ssg63
g540
sg56
(lp551
S':'
asbag49
(g70
g51
NtRp552
(dp553
g54
(dp554
sg63
g540
sg56
(lp555
g49
(g50
g51
NtRp556
(dp557
g54
(dp558
g62
I3
ssg63
g552
sg56
(lp559
S''
asbasbasbag49
(g65
g51
NtRp560
(dp561
g54
(dp562
sg63
g436
sg56
(lp563
g49
(g70
g51
NtRp564
(dp565
g54
(dp566
g74
g75
ssg63
g560
sg56
(lp567
g402
asbag49
(g70
g51
NtRp568
(dp569
g54
(dp570
g81
g82
ssg63
g560
sg56
(lp571
S':'
asbag49
(g70
g51
NtRp572
(dp573
g54
(dp574
sg63
g560
sg56
(lp575
g49
(g50
g51
NtRp576
(dp577
g54
(dp578
g62
I3
ssg63
g572
sg56
(lp579
S''
asbasbasbasbasbasbasbasbasbasbasbag49
(g65
g51
NtRp580
(dp581
g54
(dp582
sg63
g59
sg56
(lp583
g49
(g70
g51
NtRp584
(dp585
g54
(dp586
g74
g75
ssg63
g580
sg56
(lp587
S'env'
p588
asbag49
(g70
g51
NtRp589
(dp590
g54
(dp591
g81
g82
ssg63
g580
sg56
(lp592
S':'
asbag49
(g70
g51
NtRp593
(dp594
g54
(dp595
sg63
g580
sg56
(lp596
g49
(g50
g51
NtRp597
(dp598
g54
(dp599
g62
I5
ssg63
g593
sg56
(lp600
g49
(g58
g51
NtRp601
(dp602
g54
(dp603
g62
I4
ssg63
Nsg56
(lp604
g49
(g65
g51
NtRp605
(dp606
g54
(dp607
sg63
g601
sg56
(lp608
g49
(g70
g51
NtRp609
(dp610
g54
(dp611
g74
g75
ssg63
g605
sg56
(lp612
S'app_folders'
p613
asbag49
(g70
g51
NtRp614
(dp615
g54
(dp616
g81
g82
ssg63
g605
sg56
(lp617
S':'
asbag49
(g70
g51
NtRp618
(dp619
g54
(dp620
sg63
g605
sg56
(lp621
g49
(g50
g51
NtRp622
(dp623
g54
(dp624
g62
I4
ssg63
g618
sg56
(lp625
S"set(['C:\\\\web2py\\\\applications\\\\admin\\\\', 'C:\\\\web2py\\\\applications\\\\welcome\\\\', 'C:\\\\web2py\\\\applications\\\\unioeste_code\\\\'])"
p626
asbasbasbag49
(g65
g51
NtRp627
(dp628
g54
(dp629
sg63
g601
sg56
(lp630
g49
(g70
g51
NtRp631
(dp632
g54
(dp633
g74
g75
ssg63
g627
sg56
(lp634
S'applications_parent'
p635
asbag49
(g70
g51
NtRp636
(dp637
g54
(dp638
g81
g82
ssg63
g627
sg56
(lp639
S':'
asbag49
(g70
g51
NtRp640
(dp641
g54
(dp642
sg63
g627
sg56
(lp643
g49
(g50
g51
NtRp644
(dp645
g54
(dp646
g62
I4
ssg63
g640
sg56
(lp647
S'C:\\web2py'
p648
asbasbasbag49
(g65
g51
NtRp649
(dp650
g54
(dp651
sg63
g601
sg56
(lp652
g49
(g70
g51
NtRp653
(dp654
g54
(dp655
g74
g75
ssg63
g649
sg56
(lp656
S'cmd_args'
p657
asbag49
(g70
g51
NtRp658
(dp659
g54
(dp660
g81
g82
ssg63
g649
sg56
(lp661
S':'
asbag49
(g70
g51
NtRp662
(dp663
g54
(dp664
sg63
g649
sg56
(lp665
g49
(g50
g51
NtRp666
(dp667
g54
(dp668
g62
I4
ssg63
g662
sg56
(lp669
g49
(g58
g51
NtRp670
(dp671
g54
(dp672
g62
I3
ssg63
Nsg56
(lp673
sbasbasbasbag49
(g65
g51
NtRp674
(dp675
g54
(dp676
sg63
g601
sg56
(lp677
g49
(g70
g51
NtRp678
(dp679
g54
(dp680
g74
g75
ssg63
g674
sg56
(lp681
S'cmd_options'
p682
asbag49
(g70
g51
NtRp683
(dp684
g54
(dp685
g81
g82
ssg63
g674
sg56
(lp686
S':'
asbag49
(g70
g51
NtRp687
(dp688
g54
(dp689
sg63
g674
sg56
(lp690
g49
(g50
g51
NtRp691
(dp692
g54
(dp693
g62
I4
ssg63
g687
sg56
(lp694
S"<Values at 0x309c300: {'verbose': False, 'ip': '127.0.0.1', 'shutdown_timeout': 5, 'taskbar': False, 'nocron': False, 'pid_filename': 'httpserver.pid', 'maxthreads': None, 'softcron': False, 'server_name': 'Pedro-PC', 'bpython': False, 'nogui': False, 'port': 8000, 'extcron': False, 'debuglevel': 30, 'test': None, 'folder': 'C:\\\\web2py', 'config': '', 'import_models': False, 'winservice': '', 'shell': None, 'run': '', 'log_filename': 'httpserver.log', 'args': [''], 'socket_timeout': 5, 'ssl_ca_certificate': None, 'scheduler': None, 'profiler_filename': None, 'ssl_private_key': '', 'password': '<ask>', 'request_queue_size': 5, 'ssl_certificate': '', 'cronjob': False, 'numthreads': None, 'quiet': False, 'interfaces': None, 'minthreads': None, 'timeout': 10, 'plain': False, 'nobanner': False}>"
p695
asbasbasbag49
(g65
g51
NtRp696
(dp697
g54
(dp698
sg63
g601
sg56
(lp699
g49
(g70
g51
NtRp700
(dp701
g54
(dp702
g74
g75
ssg63
g696
sg56
(lp703
S'db_sessions'
p704
asbag49
(g70
g51
NtRp705
(dp706
g54
(dp707
g81
g82
ssg63
g696
sg56
(lp708
S':'
asbag49
(g70
g51
NtRp709
(dp710
g54
(dp711
sg63
g696
sg56
(lp712
g49
(g50
g51
NtRp713
(dp714
g54
(dp715
g62
I4
ssg63
g709
sg56
(lp716
S'set([])'
p717
asbasbasbag49
(g65
g51
NtRp718
(dp719
g54
(dp720
sg63
g601
sg56
(lp721
g49
(g70
g51
NtRp722
(dp723
g54
(dp724
g74
g75
ssg63
g718
sg56
(lp725
S'debugging'
p726
asbag49
(g70
g51
NtRp727
(dp728
g54
(dp729
g81
g82
ssg63
g718
sg56
(lp730
S':'
asbag49
(g70
g51
NtRp731
(dp732
g54
(dp733
sg63
g718
sg56
(lp734
g49
(g50
g51
NtRp735
(dp736
g54
(dp737
g62
I4
ssg63
g731
sg56
(lp738
g92
asbasbasbag49
(g65
g51
NtRp739
(dp740
g54
(dp741
sg63
g601
sg56
(lp742
g49
(g70
g51
NtRp743
(dp744
g54
(dp745
g74
g75
ssg63
g739
sg56
(lp746
S'gluon_parent'
p747
asbag49
(g70
g51
NtRp748
(dp749
g54
(dp750
g81
g82
ssg63
g739
sg56
(lp751
S':'
asbag49
(g70
g51
NtRp752
(dp753
g54
(dp754
sg63
g739
sg56
(lp755
g49
(g50
g51
NtRp756
(dp757
g54
(dp758
g62
I4
ssg63
g752
sg56
(lp759
S'C:\\web2py'
p760
asbasbasbag49
(g65
g51
NtRp761
(dp762
g54
(dp763
sg63
g601
sg56
(lp764
g49
(g70
g51
NtRp765
(dp766
g54
(dp767
g74
g75
ssg63
g761
sg56
(lp768
S'http_accept'
p769
asbag49
(g70
g51
NtRp770
(dp771
g54
(dp772
g81
g82
ssg63
g761
sg56
(lp773
S':'
asbag49
(g70
g51
NtRp774
(dp775
g54
(dp776
sg63
g761
sg56
(lp777
g49
(g50
g51
NtRp778
(dp779
g54
(dp780
g62
I4
ssg63
g774
sg56
(lp781
S'text/html,application/xhtml+xml,application/xml;q=0.9,*/*;q=0.8'
p782
asbasbasbag49
(g65
g51
NtRp783
(dp784
g54
(dp785
sg63
g601
sg56
(lp786
g49
(g70
g51
NtRp787
(dp788
g54
(dp789
g74
g75
ssg63
g783
sg56
(lp790
S'http_accept_charset'
p791
asbag49
(g70
g51
NtRp792
(dp793
g54
(dp794
g81
g82
ssg63
g783
sg56
(lp795
S':'
asbag49
(g70
g51
NtRp796
(dp797
g54
(dp798
sg63
g783
sg56
(lp799
g49
(g50
g51
NtRp800
(dp801
g54
(dp802
g62
I4
ssg63
g796
sg56
(lp803
S'ISO-8859-1,utf-8;q=0.7,*;q=0.3'
p804
asbasbasbag49
(g65
g51
NtRp805
(dp806
g54
(dp807
sg63
g601
sg56
(lp808
g49
(g70
g51
NtRp809
(dp810
g54
(dp811
g74
g75
ssg63
g805
sg56
(lp812
S'http_accept_encoding'
p813
asbag49
(g70
g51
NtRp814
(dp815
g54
(dp816
g81
g82
ssg63
g805
sg56
(lp817
S':'
asbag49
(g70
g51
NtRp818
(dp819
g54
(dp820
sg63
g805
sg56
(lp821
g49
(g50
g51
NtRp822
(dp823
g54
(dp824
g62
I4
ssg63
g818
sg56
(lp825
S'gzip,deflate,sdch'
p826
asbasbasbag49
(g65
g51
NtRp827
(dp828
g54
(dp829
sg63
g601
sg56
(lp830
g49
(g70
g51
NtRp831
(dp832
g54
(dp833
g74
g75
ssg63
g827
sg56
(lp834
S'http_accept_language'
p835
asbag49
(g70
g51
NtRp836
(dp837
g54
(dp838
g81
g82
ssg63
g827
sg56
(lp839
S':'
asbag49
(g70
g51
NtRp840
(dp841
g54
(dp842
sg63
g827
sg56
(lp843
g49
(g50
g51
NtRp844
(dp845
g54
(dp846
g62
I4
ssg63
g840
sg56
(lp847
S'pt-BR,pt;q=0.8,en-US;q=0.6,en;q=0.4'
p848
asbasbasbag49
(g65
g51
NtRp849
(dp850
g54
(dp851
sg63
g601
sg56
(lp852
g49
(g70
g51
NtRp853
(dp854
g54
(dp855
g74
g75
ssg63
g849
sg56
(lp856
S'http_connection'
p857
asbag49
(g70
g51
NtRp858
(dp859
g54
(dp860
g81
g82
ssg63
g849
sg56
(lp861
S':'
asbag49
(g70
g51
NtRp862
(dp863
g54
(dp864
sg63
g849
sg56
(lp865
g49
(g50
g51
NtRp866
(dp867
g54
(dp868
g62
I4
ssg63
g862
sg56
(lp869
S'keep-alive'
p870
asbasbasbag49
(g65
g51
NtRp871
(dp872
g54
(dp873
sg63
g601
sg56
(lp874
g49
(g70
g51
NtRp875
(dp876
g54
(dp877
g74
g75
ssg63
g871
sg56
(lp878
S'http_cookie'
p879
asbag49
(g70
g51
NtRp880
(dp881
g54
(dp882
g81
g82
ssg63
g871
sg56
(lp883
S':'
asbag49
(g70
g51
NtRp884
(dp885
g54
(dp886
sg63
g871
sg56
(lp887
g49
(g50
g51
NtRp888
(dp889
g54
(dp890
g62
I4
ssg63
g884
sg56
(lp891
S'session_id_unioeste_code=127.0.0.1-ac0e57bf-2a61-4ff7-b75a-c2e830b4787a; session_id_admin=127.0.0.1-5b5708ff-f236-440a-9e31-904908de9b24'
p892
asbasbasbag49
(g65
g51
NtRp893
(dp894
g54
(dp895
sg63
g601
sg56
(lp896
g49
(g70
g51
NtRp897
(dp898
g54
(dp899
g74
g75
ssg63
g893
sg56
(lp900
S'http_dnt'
p901
asbag49
(g70
g51
NtRp902
(dp903
g54
(dp904
g81
g82
ssg63
g893
sg56
(lp905
S':'
asbag49
(g70
g51
NtRp906
(dp907
g54
(dp908
sg63
g893
sg56
(lp909
g49
(g50
g51
NtRp910
(dp911
g54
(dp912
g62
I4
ssg63
g906
sg56
(lp913
S'1'
asbasbasbag49
(g65
g51
NtRp914
(dp915
g54
(dp916
sg63
g601
sg56
(lp917
g49
(g70
g51
NtRp918
(dp919
g54
(dp920
g74
g75
ssg63
g914
sg56
(lp921
S'http_host'
p922
asbag49
(g70
g51
NtRp923
(dp924
g54
(dp925
g81
g82
ssg63
g914
sg56
(lp926
S':'
asbag49
(g70
g51
NtRp927
(dp928
g54
(dp929
sg63
g914
sg56
(lp930
g49
(g50
g51
NtRp931
(dp932
g54
(dp933
g62
I4
ssg63
g927
sg56
(lp934
S'localhost:8000'
p935
asbasbasbag49
(g65
g51
NtRp936
(dp937
g54
(dp938
sg63
g601
sg56
(lp939
g49
(g70
g51
NtRp940
(dp941
g54
(dp942
g74
g75
ssg63
g936
sg56
(lp943
S'http_user_agent'
p944
asbag49
(g70
g51
NtRp945
(dp946
g54
(dp947
g81
g82
ssg63
g936
sg56
(lp948
S':'
asbag49
(g70
g51
NtRp949
(dp950
g54
(dp951
sg63
g936
sg56
(lp952
g49
(g50
g51
NtRp953
(dp954
g54
(dp955
g62
I4
ssg63
g949
sg56
(lp956
S'Mozilla/5.0 (Windows NT 6.1; WOW64) AppleWebKit/536.11 (KHTML, like Gecko) Chrome/20.0.1132.57 Safari/536.11'
p957
asbasbasbag49
(g65
g51
NtRp958
(dp959
g54
(dp960
sg63
g601
sg56
(lp961
g49
(g70
g51
NtRp962
(dp963
g54
(dp964
g74
g75
ssg63
g958
sg56
(lp965
S'is_jython'
p966
asbag49
(g70
g51
NtRp967
(dp968
g54
(dp969
g81
g82
ssg63
g958
sg56
(lp970
S':'
asbag49
(g70
g51
NtRp971
(dp972
g54
(dp973
sg63
g958
sg56
(lp974
g49
(g50
g51
NtRp975
(dp976
g54
(dp977
g62
I4
ssg63
g971
sg56
(lp978
g92
asbasbasbag49
(g65
g51
NtRp979
(dp980
g54
(dp981
sg63
g601
sg56
(lp982
g49
(g70
g51
NtRp983
(dp984
g54
(dp985
g74
g75
ssg63
g979
sg56
(lp986
S'is_pypy'
p987
asbag49
(g70
g51
NtRp988
(dp989
g54
(dp990
g81
g82
ssg63
g979
sg56
(lp991
S':'
asbag49
(g70
g51
NtRp992
(dp993
g54
(dp994
sg63
g979
sg56
(lp995
g49
(g50
g51
NtRp996
(dp997
g54
(dp998
g62
I4
ssg63
g992
sg56
(lp999
g92
asbasbasbag49
(g65
g51
NtRp1000
(dp1001
g54
(dp1002
sg63
g601
sg56
(lp1003
g49
(g70
g51
NtRp1004
(dp1005
g54
(dp1006
g74
g75
ssg63
g1000
sg56
(lp1007
S'path_info'
p1008
asbag49
(g70
g51
NtRp1009
(dp1010
g54
(dp1011
g81
g82
ssg63
g1000
sg56
(lp1012
S':'
asbag49
(g70
g51
NtRp1013
(dp1014
g54
(dp1015
sg63
g1000
sg56
(lp1016
g49
(g50
g51
NtRp1017
(dp1018
g54
(dp1019
g62
I4
ssg63
g1013
sg56
(lp1020
S'/unioeste_code/default/Problem/20'
p1021
asbasbasbag49
(g65
g51
NtRp1022
(dp1023
g54
(dp1024
sg63
g601
sg56
(lp1025
g49
(g70
g51
NtRp1026
(dp1027
g54
(dp1028
g74
g75
ssg63
g1022
sg56
(lp1029
S'query_string'
p1030
asbag49
(g70
g51
NtRp1031
(dp1032
g54
(dp1033
g81
g82
ssg63
g1022
sg56
(lp1034
S':'
asbag49
(g70
g51
NtRp1035
(dp1036
g54
(dp1037
sg63
g1022
sg56
(lp1038
g49
(g50
g51
NtRp1039
(dp1040
g54
(dp1041
g62
I4
ssg63
g1035
sg56
(lp1042
S''
asbasbasbag49
(g65
g51
NtRp1043
(dp1044
g54
(dp1045
sg63
g601
sg56
(lp1046
g49
(g70
g51
NtRp1047
(dp1048
g54
(dp1049
g74
g75
ssg63
g1043
sg56
(lp1050
S'remote_addr'
p1051
asbag49
(g70
g51
NtRp1052
(dp1053
g54
(dp1054
g81
g82
ssg63
g1043
sg56
(lp1055
S':'
asbag49
(g70
g51
NtRp1056
(dp1057
g54
(dp1058
sg63
g1043
sg56
(lp1059
g49
(g50
g51
NtRp1060
(dp1061
g54
(dp1062
g62
I4
ssg63
g1056
sg56
(lp1063
g195
asbasbasbag49
(g65
g51
NtRp1064
(dp1065
g54
(dp1066
sg63
g601
sg56
(lp1067
g49
(g70
g51
NtRp1068
(dp1069
g54
(dp1070
g74
g75
ssg63
g1064
sg56
(lp1071
S'remote_port'
p1072
asbag49
(g70
g51
NtRp1073
(dp1074
g54
(dp1075
g81
g82
ssg63
g1064
sg56
(lp1076
S':'
asbag49
(g70
g51
NtRp1077
(dp1078
g54
(dp1079
sg63
g1064
sg56
(lp1080
g49
(g50
g51
NtRp1081
(dp1082
g54
(dp1083
g62
I4
ssg63
g1077
sg56
(lp1084
S'65463'
p1085
asbasbasbag49
(g65
g51
NtRp1086
(dp1087
g54
(dp1088
sg63
g601
sg56
(lp1089
g49
(g70
g51
NtRp1090
(dp1091
g54
(dp1092
g74
g75
ssg63
g1086
sg56
(lp1093
S'request_method'
p1094
asbag49
(g70
g51
NtRp1095
(dp1096
g54
(dp1097
g81
g82
ssg63
g1086
sg56
(lp1098
S':'
asbag49
(g70
g51
NtRp1099
(dp1100
g54
(dp1101
sg63
g1086
sg56
(lp1102
g49
(g50
g51
NtRp1103
(dp1104
g54
(dp1105
g62
I4
ssg63
g1099
sg56
(lp1106
S'GET'
p1107
asbasbasbag49
(g65
g51
NtRp1108
(dp1109
g54
(dp1110
sg63
g601
sg56
(lp1111
g49
(g70
g51
NtRp1112
(dp1113
g54
(dp1114
g74
g75
ssg63
g1108
sg56
(lp1115
S'script_name'
p1116
asbag49
(g70
g51
NtRp1117
(dp1118
g54
(dp1119
g81
g82
ssg63
g1108
sg56
(lp1120
S':'
asbag49
(g70
g51
NtRp1121
(dp1122
g54
(dp1123
sg63
g1108
sg56
(lp1124
g49
(g50
g51
NtRp1125
(dp1126
g54
(dp1127
g62
I4
ssg63
g1121
sg56
(lp1128
S''
asbasbasbag49
(g65
g51
NtRp1129
(dp1130
g54
(dp1131
sg63
g601
sg56
(lp1132
g49
(g70
g51
NtRp1133
(dp1134
g54
(dp1135
g74
g75
ssg63
g1129
sg56
(lp1136
S'server_name'
p1137
asbag49
(g70
g51
NtRp1138
(dp1139
g54
(dp1140
g81
g82
ssg63
g1129
sg56
(lp1141
S':'
asbag49
(g70
g51
NtRp1142
(dp1143
g54
(dp1144
sg63
g1129
sg56
(lp1145
g49
(g50
g51
NtRp1146
(dp1147
g54
(dp1148
g62
I4
ssg63
g1142
sg56
(lp1149
S'Pedro-PC'
p1150
asbasbasbag49
(g65
g51
NtRp1151
(dp1152
g54
(dp1153
sg63
g601
sg56
(lp1154
g49
(g70
g51
NtRp1155
(dp1156
g54
(dp1157
g74
g75
ssg63
g1151
sg56
(lp1158
S'server_port'
p1159
asbag49
(g70
g51
NtRp1160
(dp1161
g54
(dp1162
g81
g82
ssg63
g1151
sg56
(lp1163
S':'
asbag49
(g70
g51
NtRp1164
(dp1165
g54
(dp1166
sg63
g1151
sg56
(lp1167
g49
(g50
g51
NtRp1168
(dp1169
g54
(dp1170
g62
I4
ssg63
g1164
sg56
(lp1171
S'8000'
p1172
asbasbasbag49
(g65
g51
NtRp1173
(dp1174
g54
(dp1175
sg63
g601
sg56
(lp1176
g49
(g70
g51
NtRp1177
(dp1178
g54
(dp1179
g74
g75
ssg63
g1173
sg56
(lp1180
S'server_protocol'
p1181
asbag49
(g70
g51
NtRp1182
(dp1183
g54
(dp1184
g81
g82
ssg63
g1173
sg56
(lp1185
S':'
asbag49
(g70
g51
NtRp1186
(dp1187
g54
(dp1188
sg63
g1173
sg56
(lp1189
g49
(g50
g51
NtRp1190
(dp1191
g54
(dp1192
g62
I4
ssg63
g1186
sg56
(lp1193
S'HTTP/1.1'
p1194
asbasbasbag49
(g65
g51
NtRp1195
(dp1196
g54
(dp1197
sg63
g601
sg56
(lp1198
g49
(g70
g51
NtRp1199
(dp1200
g54
(dp1201
g74
g75
ssg63
g1195
sg56
(lp1202
S'server_software'
p1203
asbag49
(g70
g51
NtRp1204
(dp1205
g54
(dp1206
g81
g82
ssg63
g1195
sg56
(lp1207
S':'
asbag49
(g70
g51
NtRp1208
(dp1209
g54
(dp1210
sg63
g1195
sg56
(lp1211
g49
(g50
g51
NtRp1212
(dp1213
g54
(dp1214
g62
I4
ssg63
g1208
sg56
(lp1215
S'Rocket 1.2.4'
p1216
asbasbasbag49
(g65
g51
NtRp1217
(dp1218
g54
(dp1219
sg63
g601
sg56
(lp1220
g49
(g70
g51
NtRp1221
(dp1222
g54
(dp1223
g74
g75
ssg63
g1217
sg56
(lp1224
S'web2py_crontype'
p1225
asbag49
(g70
g51
NtRp1226
(dp1227
g54
(dp1228
g81
g82
ssg63
g1217
sg56
(lp1229
S':'
asbag49
(g70
g51
NtRp1230
(dp1231
g54
(dp1232
sg63
g1217
sg56
(lp1233
g49
(g50
g51
NtRp1234
(dp1235
g54
(dp1236
g62
I4
ssg63
g1230
sg56
(lp1237
S'hard'
p1238
asbasbasbag49
(g65
g51
NtRp1239
(dp1240
g54
(dp1241
sg63
g601
sg56
(lp1242
g49
(g70
g51
NtRp1243
(dp1244
g54
(dp1245
g74
g75
ssg63
g1239
sg56
(lp1246
S'web2py_path'
p1247
asbag49
(g70
g51
NtRp1248
(dp1249
g54
(dp1250
g81
g82
ssg63
g1239
sg56
(lp1251
S':'
asbag49
(g70
g51
NtRp1252
(dp1253
g54
(dp1254
sg63
g1239
sg56
(lp1255
g49
(g50
g51
NtRp1256
(dp1257
g54
(dp1258
g62
I4
ssg63
g1252
sg56
(lp1259
g648
asbasbasbag49
(g65
g51
NtRp1260
(dp1261
g54
(dp1262
sg63
g601
sg56
(lp1263
g49
(g70
g51
NtRp1264
(dp1265
g54
(dp1266
g74
g75
ssg63
g1260
sg56
(lp1267
S'web2py_version'
p1268
asbag49
(g70
g51
NtRp1269
(dp1270
g54
(dp1271
g81
g82
ssg63
g1260
sg56
(lp1272
S':'
asbag49
(g70
g51
NtRp1273
(dp1274
g54
(dp1275
sg63
g1260
sg56
(lp1276
g49
(g50
g51
NtRp1277
(dp1278
g54
(dp1279
g62
I4
ssg63
g1273
sg56
(lp1280
g49
(g58
g51
NtRp1281
(dp1282
g54
(dp1283
g62
I3
ssg63
Nsg56
(lp1284
g49
(g65
g51
NtRp1285
(dp1286
g54
(dp1287
sg63
g1281
sg56
(lp1288
g49
(g70
g51
NtRp1289
(dp1290
g54
(dp1291
sg63
g1285
sg56
(lp1292
g49
(g50
g51
NtRp1293
(dp1294
g54
(dp1295
g62
I3
ssg63
g1289
sg56
(lp1296
S'1'
asbasbasbag49
(g65
g51
NtRp1297
(dp1298
g54
(dp1299
sg63
g1281
sg56
(lp1300
g49
(g70
g51
NtRp1301
(dp1302
g54
(dp1303
sg63
g1297
sg56
(lp1304
g49
(g50
g51
NtRp1305
(dp1306
g54
(dp1307
g62
I3
ssg63
g1301
sg56
(lp1308
S'99'
p1309
asbasbasbag49
(g65
g51
NtRp1310
(dp1311
g54
(dp1312
sg63
g1281
sg56
(lp1313
g49
(g70
g51
NtRp1314
(dp1315
g54
(dp1316
sg63
g1310
sg56
(lp1317
g49
(g50
g51
NtRp1318
(dp1319
g54
(dp1320
g62
I3
ssg63
g1314
sg56
(lp1321
S'7'
asbasbasbag49
(g65
g51
NtRp1322
(dp1323
g54
(dp1324
sg63
g1281
sg56
(lp1325
g49
(g70
g51
NtRp1326
(dp1327
g54
(dp1328
sg63
g1322
sg56
(lp1329
g49
(g50
g51
NtRp1330
(dp1331
g54
(dp1332
g62
I3
ssg63
g1326
sg56
(lp1333
S'datetime.datetime(2012, 3, 4, 22, 12, 8)'
p1334
asbasbasbag49
(g65
g51
NtRp1335
(dp1336
g54
(dp1337
sg63
g1281
sg56
(lp1338
g49
(g70
g51
NtRp1339
(dp1340
g54
(dp1341
sg63
g1335
sg56
(lp1342
g49
(g50
g51
NtRp1343
(dp1344
g54
(dp1345
g62
I3
ssg63
g1339
sg56
(lp1346
S'stable'
p1347
asbasbasbasbasbasbasbag49
(g65
g51
NtRp1348
(dp1349
g54
(dp1350
sg63
g601
sg56
(lp1351
g49
(g70
g51
NtRp1352
(dp1353
g54
(dp1354
g74
g75
ssg63
g1348
sg56
(lp1355
S'wsgi_errors'
p1356
asbag49
(g70
g51
NtRp1357
(dp1358
g54
(dp1359
g81
g82
ssg63
g1348
sg56
(lp1360
S':'
asbag49
(g70
g51
NtRp1361
(dp1362
g54
(dp1363
sg63
g1348
sg56
(lp1364
g49
(g50
g51
NtRp1365
(dp1366
g54
(dp1367
g62
I4
ssg63
g1361
sg56
(lp1368
S'<__main__.Stderr object at 0x00486670>'
p1369
asbasbasbag49
(g65
g51
NtRp1370
(dp1371
g54
(dp1372
sg63
g601
sg56
(lp1373
g49
(g70
g51
NtRp1374
(dp1375
g54
(dp1376
g74
g75
ssg63
g1370
sg56
(lp1377
S'wsgi_file_wrapper'
p1378
asbag49
(g70
g51
NtRp1379
(dp1380
g54
(dp1381
g81
g82
ssg63
g1370
sg56
(lp1382
S':'
asbag49
(g70
g51
NtRp1383
(dp1384
g54
(dp1385
sg63
g1370
sg56
(lp1386
g49
(g50
g51
NtRp1387
(dp1388
g54
(dp1389
g62
I4
ssg63
g1383
sg56
(lp1390
S'<class wsgiref.util.FileWrapper at 0x02E8DE10>'
p1391
asbasbasbag49
(g65
g51
NtRp1392
(dp1393
g54
(dp1394
sg63
g601
sg56
(lp1395
g49
(g70
g51
NtRp1396
(dp1397
g54
(dp1398
g74
g75
ssg63
g1392
sg56
(lp1399
S'wsgi_input'
p1400
asbag49
(g70
g51
NtRp1401
(dp1402
g54
(dp1403
g81
g82
ssg63
g1392
sg56
(lp1404
S':'
asbag49
(g70
g51
NtRp1405
(dp1406
g54
(dp1407
sg63
g1392
sg56
(lp1408
g49
(g50
g51
NtRp1409
(dp1410
g54
(dp1411
g62
I4
ssg63
g1405
sg56
(lp1412
S'<socket._fileobject object at 0x067058F0>'
p1413
asbasbasbag49
(g65
g51
NtRp1414
(dp1415
g54
(dp1416
sg63
g601
sg56
(lp1417
g49
(g70
g51
NtRp1418
(dp1419
g54
(dp1420
g74
g75
ssg63
g1414
sg56
(lp1421
S'wsgi_multiprocess'
p1422
asbag49
(g70
g51
NtRp1423
(dp1424
g54
(dp1425
g81
g82
ssg63
g1414
sg56
(lp1426
S':'
asbag49
(g70
g51
NtRp1427
(dp1428
g54
(dp1429
sg63
g1414
sg56
(lp1430
g49
(g50
g51
NtRp1431
(dp1432
g54
(dp1433
g62
I4
ssg63
g1427
sg56
(lp1434
g92
asbasbasbag49
(g65
g51
NtRp1435
(dp1436
g54
(dp1437
sg63
g601
sg56
(lp1438
g49
(g70
g51
NtRp1439
(dp1440
g54
(dp1441
g74
g75
ssg63
g1435
sg56
(lp1442
S'wsgi_multithread'
p1443
asbag49
(g70
g51
NtRp1444
(dp1445
g54
(dp1446
g81
g82
ssg63
g1435
sg56
(lp1447
S':'
asbag49
(g70
g51
NtRp1448
(dp1449
g54
(dp1450
sg63
g1435
sg56
(lp1451
g49
(g50
g51
NtRp1452
(dp1453
g54
(dp1454
g62
I4
ssg63
g1448
sg56
(lp1455
S'True'
p1456
asbasbasbag49
(g65
g51
NtRp1457
(dp1458
g54
(dp1459
sg63
g601
sg56
(lp1460
g49
(g70
g51
NtRp1461
(dp1462
g54
(dp1463
g74
g75
ssg63
g1457
sg56
(lp1464
S'wsgi_run_once'
p1465
asbag49
(g70
g51
NtRp1466
(dp1467
g54
(dp1468
g81
g82
ssg63
g1457
sg56
(lp1469
S':'
asbag49
(g70
g51
NtRp1470
(dp1471
g54
(dp1472
sg63
g1457
sg56
(lp1473
g49
(g50
g51
NtRp1474
(dp1475
g54
(dp1476
g62
I4
ssg63
g1470
sg56
(lp1477
g92
asbasbasbag49
(g65
g51
NtRp1478
(dp1479
g54
(dp1480
sg63
g601
sg56
(lp1481
g49
(g70
g51
NtRp1482
(dp1483
g54
(dp1484
g74
g75
ssg63
g1478
sg56
(lp1485
S'wsgi_url_scheme'
p1486
asbag49
(g70
g51
NtRp1487
(dp1488
g54
(dp1489
g81
g82
ssg63
g1478
sg56
(lp1490
S':'
asbag49
(g70
g51
NtRp1491
(dp1492
g54
(dp1493
sg63
g1478
sg56
(lp1494
g49
(g50
g51
NtRp1495
(dp1496
g54
(dp1497
g62
I4
ssg63
g1491
sg56
(lp1498
S'http'
p1499
asbasbasbag49
(g65
g51
NtRp1500
(dp1501
g54
(dp1502
sg63
g601
sg56
(lp1503
g49
(g70
g51
NtRp1504
(dp1505
g54
(dp1506
g74
g75
ssg63
g1500
sg56
(lp1507
S'wsgi_version'
p1508
asbag49
(g70
g51
NtRp1509
(dp1510
g54
(dp1511
g81
g82
ssg63
g1500
sg56
(lp1512
S':'
asbag49
(g70
g51
NtRp1513
(dp1514
g54
(dp1515
sg63
g1500
sg56
(lp1516
g49
(g50
g51
NtRp1517
(dp1518
g54
(dp1519
g62
I4
ssg63
g1513
sg56
(lp1520
g49
(g58
g51
NtRp1521
(dp1522
g54
(dp1523
g62
I3
ssg63
Nsg56
(lp1524
g49
(g65
g51
NtRp1525
(dp1526
g54
(dp1527
sg63
g1521
sg56
(lp1528
g49
(g70
g51
NtRp1529
(dp1530
g54
(dp1531
sg63
g1525
sg56
(lp1532
g49
(g50
g51
NtRp1533
(dp1534
g54
(dp1535
g62
I3
ssg63
g1529
sg56
(lp1536
S'1'
asbasbasbag49
(g65
g51
NtRp1537
(dp1538
g54
(dp1539
sg63
g1521
sg56
(lp1540
g49
(g70
g51
NtRp1541
(dp1542
g54
(dp1543
sg63
g1537
sg56
(lp1544
g49
(g50
g51
NtRp1545
(dp1546
g54
(dp1547
g62
I3
ssg63
g1541
sg56
(lp1548
S'0'
asbasbasbasbasbasbasbasbasbasbasbag49
(g65
g51
NtRp1549
(dp1550
g54
(dp1551
sg63
g59
sg56
(lp1552
g49
(g70
g51
NtRp1553
(dp1554
g54
(dp1555
g74
g75
ssg63
g1549
sg56
(lp1556
S'extension'
p1557
asbag49
(g70
g51
NtRp1558
(dp1559
g54
(dp1560
g81
g82
ssg63
g1549
sg56
(lp1561
S':'
asbag49
(g70
g51
NtRp1562
(dp1563
g54
(dp1564
sg63
g1549
sg56
(lp1565
g49
(g50
g51
NtRp1566
(dp1567
g54
(dp1568
g62
I5
ssg63
g1562
sg56
(lp1569
S'html'
p1570
asbasbasbag49
(g65
g51
NtRp1571
(dp1572
g54
(dp1573
sg63
g59
sg56
(lp1574
g49
(g70
g51
NtRp1575
(dp1576
g54
(dp1577
g74
g75
ssg63
g1571
sg56
(lp1578
S'folder'
p1579
asbag49
(g70
g51
NtRp1580
(dp1581
g54
(dp1582
g81
g82
ssg63
g1571
sg56
(lp1583
S':'
asbag49
(g70
g51
NtRp1584
(dp1585
g54
(dp1586
sg63
g1571
sg56
(lp1587
g49
(g50
g51
NtRp1588
(dp1589
g54
(dp1590
g62
I5
ssg63
g1584
sg56
(lp1591
S'C:\\web2py\\applications\\unioeste_code\\'
p1592
asbasbasbag49
(g65
g51
NtRp1593
(dp1594
g54
(dp1595
sg63
g59
sg56
(lp1596
g49
(g70
g51
NtRp1597
(dp1598
g54
(dp1599
g74
g75
ssg63
g1593
sg56
(lp1600
S'function'
p1601
asbag49
(g70
g51
NtRp1602
(dp1603
g54
(dp1604
g81
g82
ssg63
g1593
sg56
(lp1605
S':'
asbag49
(g70
g51
NtRp1606
(dp1607
g54
(dp1608
sg63
g1593
sg56
(lp1609
g49
(g50
g51
NtRp1610
(dp1611
g54
(dp1612
g62
I5
ssg63
g1606
sg56
(lp1613
S'Problem'
p1614
asbasbasbag49
(g65
g51
NtRp1615
(dp1616
g54
(dp1617
sg63
g59
sg56
(lp1618
g49
(g70
g51
NtRp1619
(dp1620
g54
(dp1621
g74
g75
ssg63
g1615
sg56
(lp1622
S'get_vars'
p1623
asbag49
(g70
g51
NtRp1624
(dp1625
g54
(dp1626
g81
g82
ssg63
g1615
sg56
(lp1627
S':'
asbag49
(g70
g51
NtRp1628
(dp1629
g54
(dp1630
sg63
g1615
sg56
(lp1631
g49
(g50
g51
NtRp1632
(dp1633
g54
(dp1634
g62
I5
ssg63
g1628
sg56
(lp1635
g49
(g58
g51
NtRp1636
(dp1637
g54
(dp1638
g62
I4
ssg63
Nsg56
(lp1639
sbasbasbasbag49
(g65
g51
NtRp1640
(dp1641
g54
(dp1642
sg63
g59
sg56
(lp1643
g49
(g70
g51
NtRp1644
(dp1645
g54
(dp1646
g74
g75
ssg63
g1640
sg56
(lp1647
S'global_settings'
p1648
asbag49
(g70
g51
NtRp1649
(dp1650
g54
(dp1651
g81
g82
ssg63
g1640
sg56
(lp1652
S':'
asbag49
(g70
g51
NtRp1653
(dp1654
g54
(dp1655
sg63
g1640
sg56
(lp1656
g49
(g50
g51
NtRp1657
(dp1658
g54
(dp1659
g62
I5
ssg63
g1653
sg56
(lp1660
g49
(g58
g51
NtRp1661
(dp1662
g54
(dp1663
g62
I4
ssg63
Nsg56
(lp1664
g49
(g65
g51
NtRp1665
(dp1666
g54
(dp1667
sg63
g1661
sg56
(lp1668
g49
(g70
g51
NtRp1669
(dp1670
g54
(dp1671
g74
g75
ssg63
g1665
sg56
(lp1672
g613
asbag49
(g70
g51
NtRp1673
(dp1674
g54
(dp1675
g81
g82
ssg63
g1665
sg56
(lp1676
S':'
asbag49
(g70
g51
NtRp1677
(dp1678
g54
(dp1679
sg63
g1665
sg56
(lp1680
g49
(g50
g51
NtRp1681
(dp1682
g54
(dp1683
g62
I4
ssg63
g1677
sg56
(lp1684
S"set(['C:\\\\web2py\\\\applications\\\\admin\\\\', 'C:\\\\web2py\\\\applications\\\\welcome\\\\', 'C:\\\\web2py\\\\applications\\\\unioeste_code\\\\'])"
p1685
asbasbasbag49
(g65
g51
NtRp1686
(dp1687
g54
(dp1688
sg63
g1661
sg56
(lp1689
g49
(g70
g51
NtRp1690
(dp1691
g54
(dp1692
g74
g75
ssg63
g1686
sg56
(lp1693
g635
asbag49
(g70
g51
NtRp1694
(dp1695
g54
(dp1696
g81
g82
ssg63
g1686
sg56
(lp1697
S':'
asbag49
(g70
g51
NtRp1698
(dp1699
g54
(dp1700
sg63
g1686
sg56
(lp1701
g49
(g50
g51
NtRp1702
(dp1703
g54
(dp1704
g62
I4
ssg63
g1698
sg56
(lp1705
g648
asbasbasbag49
(g65
g51
NtRp1706
(dp1707
g54
(dp1708
sg63
g1661
sg56
(lp1709
g49
(g70
g51
NtRp1710
(dp1711
g54
(dp1712
g74
g75
ssg63
g1706
sg56
(lp1713
g657
asbag49
(g70
g51
NtRp1714
(dp1715
g54
(dp1716
g81
g82
ssg63
g1706
sg56
(lp1717
S':'
asbag49
(g70
g51
NtRp1718
(dp1719
g54
(dp1720
sg63
g1706
sg56
(lp1721
g49
(g50
g51
NtRp1722
(dp1723
g54
(dp1724
g62
I4
ssg63
g1718
sg56
(lp1725
g49
(g58
g51
NtRp1726
(dp1727
g54
(dp1728
g62
I3
ssg63
Nsg56
(lp1729
sbasbasbasbag49
(g65
g51
NtRp1730
(dp1731
g54
(dp1732
sg63
g1661
sg56
(lp1733
g49
(g70
g51
NtRp1734
(dp1735
g54
(dp1736
g74
g75
ssg63
g1730
sg56
(lp1737
g682
asbag49
(g70
g51
NtRp1738
(dp1739
g54
(dp1740
g81
g82
ssg63
g1730
sg56
(lp1741
S':'
asbag49
(g70
g51
NtRp1742
(dp1743
g54
(dp1744
sg63
g1730
sg56
(lp1745
g49
(g50
g51
NtRp1746
(dp1747
g54
(dp1748
g62
I4
ssg63
g1742
sg56
(lp1749
S"<Values at 0x309c300: {'verbose': False, 'ip': '127.0.0.1', 'shutdown_timeout': 5, 'taskbar': False, 'nocron': False, 'pid_filename': 'httpserver.pid', 'maxthreads': None, 'softcron': False, 'server_name': 'Pedro-PC', 'bpython': False, 'nogui': False, 'port': 8000, 'extcron': False, 'debuglevel': 30, 'test': None, 'folder': 'C:\\\\web2py', 'config': '', 'import_models': False, 'winservice': '', 'shell': None, 'run': '', 'log_filename': 'httpserver.log', 'args': [''], 'socket_timeout': 5, 'ssl_ca_certificate': None, 'scheduler': None, 'profiler_filename': None, 'ssl_private_key': '', 'password': '<ask>', 'request_queue_size': 5, 'ssl_certificate': '', 'cronjob': False, 'numthreads': None, 'quiet': False, 'interfaces': None, 'minthreads': None, 'timeout': 10, 'plain': False, 'nobanner': False}>"
p1750
asbasbasbag49
(g65
g51
NtRp1751
(dp1752
g54
(dp1753
sg63
g1661
sg56
(lp1754
g49
(g70
g51
NtRp1755
(dp1756
g54
(dp1757
g74
g75
ssg63
g1751
sg56
(lp1758
g704
asbag49
(g70
g51
NtRp1759
(dp1760
g54
(dp1761
g81
g82
ssg63
g1751
sg56
(lp1762
S':'
asbag49
(g70
g51
NtRp1763
(dp1764
g54
(dp1765
sg63
g1751
sg56
(lp1766
g49
(g50
g51
NtRp1767
(dp1768
g54
(dp1769
g62
I4
ssg63
g1763
sg56
(lp1770
S'set([])'
p1771
asbasbasbag49
(g65
g51
NtRp1772
(dp1773
g54
(dp1774
sg63
g1661
sg56
(lp1775
g49
(g70
g51
NtRp1776
(dp1777
g54
(dp1778
g74
g75
ssg63
g1772
sg56
(lp1779
g726
asbag49
(g70
g51
NtRp1780
(dp1781
g54
(dp1782
g81
g82
ssg63
g1772
sg56
(lp1783
S':'
asbag49
(g70
g51
NtRp1784
(dp1785
g54
(dp1786
sg63
g1772
sg56
(lp1787
g49
(g50
g51
NtRp1788
(dp1789
g54
(dp1790
g62
I4
ssg63
g1784
sg56
(lp1791
g92
asbasbasbag49
(g65
g51
NtRp1792
(dp1793
g54
(dp1794
sg63
g1661
sg56
(lp1795
g49
(g70
g51
NtRp1796
(dp1797
g54
(dp1798
g74
g75
ssg63
g1792
sg56
(lp1799
g747
asbag49
(g70
g51
NtRp1800
(dp1801
g54
(dp1802
g81
g82
ssg63
g1792
sg56
(lp1803
S':'
asbag49
(g70
g51
NtRp1804
(dp1805
g54
(dp1806
sg63
g1792
sg56
(lp1807
g49
(g50
g51
NtRp1808
(dp1809
g54
(dp1810
g62
I4
ssg63
g1804
sg56
(lp1811
g760
asbasbasbag49
(g65
g51
NtRp1812
(dp1813
g54
(dp1814
sg63
g1661
sg56
(lp1815
g49
(g70
g51
NtRp1816
(dp1817
g54
(dp1818
g74
g75
ssg63
g1812
sg56
(lp1819
g966
asbag49
(g70
g51
NtRp1820
(dp1821
g54
(dp1822
g81
g82
ssg63
g1812
sg56
(lp1823
S':'
asbag49
(g70
g51
NtRp1824
(dp1825
g54
(dp1826
sg63
g1812
sg56
(lp1827
g49
(g50
g51
NtRp1828
(dp1829
g54
(dp1830
g62
I4
ssg63
g1824
sg56
(lp1831
g92
asbasbasbag49
(g65
g51
NtRp1832
(dp1833
g54
(dp1834
sg63
g1661
sg56
(lp1835
g49
(g70
g51
NtRp1836
(dp1837
g54
(dp1838
g74
g75
ssg63
g1832
sg56
(lp1839
g987
asbag49
(g70
g51
NtRp1840
(dp1841
g54
(dp1842
g81
g82
ssg63
g1832
sg56
(lp1843
S':'
asbag49
(g70
g51
NtRp1844
(dp1845
g54
(dp1846
sg63
g1832
sg56
(lp1847
g49
(g50
g51
NtRp1848
(dp1849
g54
(dp1850
g62
I4
ssg63
g1844
sg56
(lp1851
g92
asbasbasbag49
(g65
g51
NtRp1852
(dp1853
g54
(dp1854
sg63
g1661
sg56
(lp1855
g49
(g70
g51
NtRp1856
(dp1857
g54
(dp1858
g74
g75
ssg63
g1852
sg56
(lp1859
g1225
asbag49
(g70
g51
NtRp1860
(dp1861
g54
(dp1862
g81
g82
ssg63
g1852
sg56
(lp1863
S':'
asbag49
(g70
g51
NtRp1864
(dp1865
g54
(dp1866
sg63
g1852
sg56
(lp1867
g49
(g50
g51
NtRp1868
(dp1869
g54
(dp1870
g62
I4
ssg63
g1864
sg56
(lp1871
g1238
asbasbasbag49
(g65
g51
NtRp1872
(dp1873
g54
(dp1874
sg63
g1661
sg56
(lp1875
g49
(g70
g51
NtRp1876
(dp1877
g54
(dp1878
g74
g75
ssg63
g1872
sg56
(lp1879
g1268
asbag49
(g70
g51
NtRp1880
(dp1881
g54
(dp1882
g81
g82
ssg63
g1872
sg56
(lp1883
S':'
asbag49
(g70
g51
NtRp1884
(dp1885
g54
(dp1886
sg63
g1872
sg56
(lp1887
g49
(g50
g51
NtRp1888
(dp1889
g54
(dp1890
g62
I4
ssg63
g1884
sg56
(lp1891
g49
(g58
g51
NtRp1892
(dp1893
g54
(dp1894
g62
I3
ssg63
Nsg56
(lp1895
g49
(g65
g51
NtRp1896
(dp1897
g54
(dp1898
sg63
g1892
sg56
(lp1899
g49
(g70
g51
NtRp1900
(dp1901
g54
(dp1902
sg63
g1896
sg56
(lp1903
g49
(g50
g51
NtRp1904
(dp1905
g54
(dp1906
g62
I3
ssg63
g1900
sg56
(lp1907
S'1'
asbasbasbag49
(g65
g51
NtRp1908
(dp1909
g54
(dp1910
sg63
g1892
sg56
(lp1911
g49
(g70
g51
NtRp1912
(dp1913
g54
(dp1914
sg63
g1908
sg56
(lp1915
g49
(g50
g51
NtRp1916
(dp1917
g54
(dp1918
g62
I3
ssg63
g1912
sg56
(lp1919
S'99'
p1920
asbasbasbag49
(g65
g51
NtRp1921
(dp1922
g54
(dp1923
sg63
g1892
sg56
(lp1924
g49
(g70
g51
NtRp1925
(dp1926
g54
(dp1927
sg63
g1921
sg56
(lp1928
g49
(g50
g51
NtRp1929
(dp1930
g54
(dp1931
g62
I3
ssg63
g1925
sg56
(lp1932
S'7'
asbasbasbag49
(g65
g51
NtRp1933
(dp1934
g54
(dp1935
sg63
g1892
sg56
(lp1936
g49
(g70
g51
NtRp1937
(dp1938
g54
(dp1939
sg63
g1933
sg56
(lp1940
g49
(g50
g51
NtRp1941
(dp1942
g54
(dp1943
g62
I3
ssg63
g1937
sg56
(lp1944
S'datetime.datetime(2012, 3, 4, 22, 12, 8)'
p1945
asbasbasbag49
(g65
g51
NtRp1946
(dp1947
g54
(dp1948
sg63
g1892
sg56
(lp1949
g49
(g70
g51
NtRp1950
(dp1951
g54
(dp1952
sg63
g1946
sg56
(lp1953
g49
(g50
g51
NtRp1954
(dp1955
g54
(dp1956
g62
I3
ssg63
g1950
sg56
(lp1957
g1347
asbasbasbasbasbasbasbasbasbasbasbag49
(g65
g51
NtRp1958
(dp1959
g54
(dp1960
sg63
g59
sg56
(lp1961
g49
(g70
g51
NtRp1962
(dp1963
g54
(dp1964
g74
g75
ssg63
g1958
sg56
(lp1965
S'is_https'
p1966
asbag49
(g70
g51
NtRp1967
(dp1968
g54
(dp1969
g81
g82
ssg63
g1958
sg56
(lp1970
S':'
asbag49
(g70
g51
NtRp1971
(dp1972
g54
(dp1973
sg63
g1958
sg56
(lp1974
g49
(g50
g51
NtRp1975
(dp1976
g54
(dp1977
g62
I5
ssg63
g1971
sg56
(lp1978
g92
asbasbasbag49
(g65
g51
NtRp1979
(dp1980
g54
(dp1981
sg63
g59
sg56
(lp1982
g49
(g70
g51
NtRp1983
(dp1984
g54
(dp1985
g74
g75
ssg63
g1979
sg56
(lp1986
S'is_local'
p1987
asbag49
(g70
g51
NtRp1988
(dp1989
g54
(dp1990
g81
g82
ssg63
g1979
sg56
(lp1991
S':'
asbag49
(g70
g51
NtRp1992
(dp1993
g54
(dp1994
sg63
g1979
sg56
(lp1995
g49
(g50
g51
NtRp1996
(dp1997
g54
(dp1998
g62
I5
ssg63
g1992
sg56
(lp1999
g1456
asbasbasbag49
(g65
g51
NtRp2000
(dp2001
g54
(dp2002
sg63
g59
sg56
(lp2003
g49
(g70
g51
NtRp2004
(dp2005
g54
(dp2006
g74
g75
ssg63
g2000
sg56
(lp2007
S'is_restful'
p2008
asbag49
(g70
g51
NtRp2009
(dp2010
g54
(dp2011
g81
g82
ssg63
g2000
sg56
(lp2012
S':'
asbag49
(g70
g51
NtRp2013
(dp2014
g54
(dp2015
sg63
g2000
sg56
(lp2016
g49
(g50
g51
NtRp2017
(dp2018
g54
(dp2019
g62
I5
ssg63
g2013
sg56
(lp2020
g92
asbasbasbag49
(g65
g51
NtRp2021
(dp2022
g54
(dp2023
sg63
g59
sg56
(lp2024
g49
(g70
g51
NtRp2025
(dp2026
g54
(dp2027
g74
g75
ssg63
g2021
sg56
(lp2028
S'now'
p2029
asbag49
(g70
g51
NtRp2030
(dp2031
g54
(dp2032
g81
g82
ssg63
g2021
sg56
(lp2033
S':'
asbag49
(g70
g51
NtRp2034
(dp2035
g54
(dp2036
sg63
g2021
sg56
(lp2037
g49
(g50
g51
NtRp2038
(dp2039
g54
(dp2040
g62
I5
ssg63
g2034
sg56
(lp2041
S'datetime.datetime(2012, 7, 30, 1, 28, 4, 436000)'
p2042
asbasbasbag49
(g65
g51
NtRp2043
(dp2044
g54
(dp2045
sg63
g59
sg56
(lp2046
g49
(g70
g51
NtRp2047
(dp2048
g54
(dp2049
g74
g75
ssg63
g2043
sg56
(lp2050
S'post_vars'
p2051
asbag49
(g70
g51
NtRp2052
(dp2053
g54
(dp2054
g81
g82
ssg63
g2043
sg56
(lp2055
S':'
asbag49
(g70
g51
NtRp2056
(dp2057
g54
(dp2058
sg63
g2043
sg56
(lp2059
g49
(g50
g51
NtRp2060
(dp2061
g54
(dp2062
g62
I5
ssg63
g2056
sg56
(lp2063
g49
(g58
g51
NtRp2064
(dp2065
g54
(dp2066
g62
I4
ssg63
Nsg56
(lp2067
sbasbasbasbag49
(g65
g51
NtRp2068
(dp2069
g54
(dp2070
sg63
g59
sg56
(lp2071
g49
(g70
g51
NtRp2072
(dp2073
g54
(dp2074
g74
g75
ssg63
g2068
sg56
(lp2075
S'raw_args'
p2076
asbag49
(g70
g51
NtRp2077
(dp2078
g54
(dp2079
g81
g82
ssg63
g2068
sg56
(lp2080
S':'
asbag49
(g70
g51
NtRp2081
(dp2082
g54
(dp2083
sg63
g2068
sg56
(lp2084
g49
(g50
g51
NtRp2085
(dp2086
g54
(dp2087
g62
I5
ssg63
g2081
sg56
(lp2088
S'20'
p2089
asbasbasbag49
(g65
g51
NtRp2090
(dp2091
g54
(dp2092
sg63
g59
sg56
(lp2093
g49
(g70
g51
NtRp2094
(dp2095
g54
(dp2096
g74
g75
ssg63
g2090
sg56
(lp2097
S'url'
p2098
asbag49
(g70
g51
NtRp2099
(dp2100
g54
(dp2101
g81
g82
ssg63
g2090
sg56
(lp2102
S':'
asbag49
(g70
g51
NtRp2103
(dp2104
g54
(dp2105
sg63
g2090
sg56
(lp2106
g49
(g50
g51
NtRp2107
(dp2108
g54
(dp2109
g62
I5
ssg63
g2103
sg56
(lp2110
S'/unioeste_code/default/Problem/20'
p2111
asbasbasbag49
(g65
g51
NtRp2112
(dp2113
g54
(dp2114
sg63
g59
sg56
(lp2115
g49
(g70
g51
NtRp2116
(dp2117
g54
(dp2118
g74
g75
ssg63
g2112
sg56
(lp2119
S'utcnow'
p2120
asbag49
(g70
g51
NtRp2121
(dp2122
g54
(dp2123
g81
g82
ssg63
g2112
sg56
(lp2124
S':'
asbag49
(g70
g51
NtRp2125
(dp2126
g54
(dp2127
sg63
g2112
sg56
(lp2128
g49
(g50
g51
NtRp2129
(dp2130
g54
(dp2131
g62
I5
ssg63
g2125
sg56
(lp2132
S'datetime.datetime(2012, 7, 30, 4, 28, 4, 436000)'
p2133
asbasbasbag49
(g65
g51
NtRp2134
(dp2135
g54
(dp2136
sg63
g59
sg56
(lp2137
g49
(g70
g51
NtRp2138
(dp2139
g54
(dp2140
g74
g75
ssg63
g2134
sg56
(lp2141
S'uuid'
p2142
asbag49
(g70
g51
NtRp2143
(dp2144
g54
(dp2145
g81
g82
ssg63
g2134
sg56
(lp2146
S':'
asbag49
(g70
g51
NtRp2147
(dp2148
g54
(dp2149
sg63
g2134
sg56
(lp2150
g49
(g50
g51
NtRp2151
(dp2152
g54
(dp2153
g62
I5
ssg63
g2147
sg56
(lp2154
S'unioeste_code/127.0.0.1.2012-07-30.01-28-04.befce69e-236a-4d14-bafc-81cca103efd3'
p2155
asbasbasbag49
(g65
g51
NtRp2156
(dp2157
g54
(dp2158
sg63
g59
sg56
(lp2159
g49
(g70
g51
NtRp2160
(dp2161
g54
(dp2162
g74
g75
ssg63
g2156
sg56
(lp2163
S'vars'
p2164
asbag49
(g70
g51
NtRp2165
(dp2166
g54
(dp2167
g81
g82
ssg63
g2156
sg56
(lp2168
S':'
asbag49
(g70
g51
NtRp2169
(dp2170
g54
(dp2171
sg63
g2156
sg56
(lp2172
g49
(g50
g51
NtRp2173
(dp2174
g54
(dp2175
g62
I5
ssg63
g2169
sg56
(lp2176
g49
(g58
g51
NtRp2177
(dp2178
g54
(dp2179
g62
I4
ssg63
Nsg56
(lp2180
sbasbasbasbag49
(g65
g51
NtRp2181
(dp2182
g54
(dp2183
sg63
g59
sg56
(lp2184
g49
(g70
g51
NtRp2185
(dp2186
g54
(dp2187
g74
g75
ssg63
g2181
sg56
(lp2188
S'wsgi'
p2189
asbag49
(g70
g51
NtRp2190
(dp2191
g54
(dp2192
g81
g82
ssg63
g2181
sg56
(lp2193
S':'
asbag49
(g70
g51
NtRp2194
(dp2195
g54
(dp2196
sg63
g2181
sg56
(lp2197
g49
(g50
g51
NtRp2198
(dp2199
g54
(dp2200
g62
I5
ssg63
g2194
sg56
(lp2201
g49
(g58
g51
NtRp2202
(dp2203
g54
(dp2204
g62
I4
ssg63
Nsg56
(lp2205
g49
(g65
g51
NtRp2206
(dp2207
g54
(dp2208
sg63
g2202
sg56
(lp2209
g49
(g70
g51
NtRp2210
(dp2211
g54
(dp2212
g74
g75
ssg63
g2206
sg56
(lp2213
S'environ'
p2214
asbag49
(g70
g51
NtRp2215
(dp2216
g54
(dp2217
g81
g82
ssg63
g2206
sg56
(lp2218
S':'
asbag49
(g70
g51
NtRp2219
(dp2220
g54
(dp2221
sg63
g2206
sg56
(lp2222
g49
(g50
g51
NtRp2223
(dp2224
g54
(dp2225
g62
I4
ssg63
g2219
sg56
(lp2226
g49
(g58
g51
NtRp2227
(dp2228
g54
(dp2229
g62
I3
ssg63
Nsg56
(lp2230
g49
(g65
g51
NtRp2231
(dp2232
g54
(dp2233
sg63
g2227
sg56
(lp2234
g49
(g70
g51
NtRp2235
(dp2236
g54
(dp2237
g74
g75
ssg63
g2231
sg56
(lp2238
S'HTTP_ACCEPT'
p2239
asbag49
(g70
g51
NtRp2240
(dp2241
g54
(dp2242
g81
g82
ssg63
g2231
sg56
(lp2243
S':'
asbag49
(g70
g51
NtRp2244
(dp2245
g54
(dp2246
sg63
g2231
sg56
(lp2247
g49
(g50
g51
NtRp2248
(dp2249
g54
(dp2250
g62
I3
ssg63
g2244
sg56
(lp2251
g782
asbasbasbag49
(g65
g51
NtRp2252
(dp2253
g54
(dp2254
sg63
g2227
sg56
(lp2255
g49
(g70
g51
NtRp2256
(dp2257
g54
(dp2258
g74
g75
ssg63
g2252
sg56
(lp2259
S'HTTP_ACCEPT_CHARSET'
p2260
asbag49
(g70
g51
NtRp2261
(dp2262
g54
(dp2263
g81
g82
ssg63
g2252
sg56
(lp2264
S':'
asbag49
(g70
g51
NtRp2265
(dp2266
g54
(dp2267
sg63
g2252
sg56
(lp2268
g49
(g50
g51
NtRp2269
(dp2270
g54
(dp2271
g62
I3
ssg63
g2265
sg56
(lp2272
g804
asbasbasbag49
(g65
g51
NtRp2273
(dp2274
g54
(dp2275
sg63
g2227
sg56
(lp2276
g49
(g70
g51
NtRp2277
(dp2278
g54
(dp2279
g74
g75
ssg63
g2273
sg56
(lp2280
S'HTTP_ACCEPT_ENCODING'
p2281
asbag49
(g70
g51
NtRp2282
(dp2283
g54
(dp2284
g81
g82
ssg63
g2273
sg56
(lp2285
S':'
asbag49
(g70
g51
NtRp2286
(dp2287
g54
(dp2288
sg63
g2273
sg56
(lp2289
g49
(g50
g51
NtRp2290
(dp2291
g54
(dp2292
g62
I3
ssg63
g2286
sg56
(lp2293
g826
asbasbasbag49
(g65
g51
NtRp2294
(dp2295
g54
(dp2296
sg63
g2227
sg56
(lp2297
g49
(g70
g51
NtRp2298
(dp2299
g54
(dp2300
g74
g75
ssg63
g2294
sg56
(lp2301
S'HTTP_ACCEPT_LANGUAGE'
p2302
asbag49
(g70
g51
NtRp2303
(dp2304
g54
(dp2305
g81
g82
ssg63
g2294
sg56
(lp2306
S':'
asbag49
(g70
g51
NtRp2307
(dp2308
g54
(dp2309
sg63
g2294
sg56
(lp2310
g49
(g50
g51
NtRp2311
(dp2312
g54
(dp2313
g62
I3
ssg63
g2307
sg56
(lp2314
g848
asbasbasbag49
(g65
g51
NtRp2315
(dp2316
g54
(dp2317
sg63
g2227
sg56
(lp2318
g49
(g70
g51
NtRp2319
(dp2320
g54
(dp2321
g74
g75
ssg63
g2315
sg56
(lp2322
S'HTTP_CONNECTION'
p2323
asbag49
(g70
g51
NtRp2324
(dp2325
g54
(dp2326
g81
g82
ssg63
g2315
sg56
(lp2327
S':'
asbag49
(g70
g51
NtRp2328
(dp2329
g54
(dp2330
sg63
g2315
sg56
(lp2331
g49
(g50
g51
NtRp2332
(dp2333
g54
(dp2334
g62
I3
ssg63
g2328
sg56
(lp2335
g870
asbasbasbag49
(g65
g51
NtRp2336
(dp2337
g54
(dp2338
sg63
g2227
sg56
(lp2339
g49
(g70
g51
NtRp2340
(dp2341
g54
(dp2342
g74
g75
ssg63
g2336
sg56
(lp2343
S'HTTP_COOKIE'
p2344
asbag49
(g70
g51
NtRp2345
(dp2346
g54
(dp2347
g81
g82
ssg63
g2336
sg56
(lp2348
S':'
asbag49
(g70
g51
NtRp2349
(dp2350
g54
(dp2351
sg63
g2336
sg56
(lp2352
g49
(g50
g51
NtRp2353
(dp2354
g54
(dp2355
g62
I3
ssg63
g2349
sg56
(lp2356
g892
asbasbasbag49
(g65
g51
NtRp2357
(dp2358
g54
(dp2359
sg63
g2227
sg56
(lp2360
g49
(g70
g51
NtRp2361
(dp2362
g54
(dp2363
g74
g75
ssg63
g2357
sg56
(lp2364
S'HTTP_DNT'
p2365
asbag49
(g70
g51
NtRp2366
(dp2367
g54
(dp2368
g81
g82
ssg63
g2357
sg56
(lp2369
S':'
asbag49
(g70
g51
NtRp2370
(dp2371
g54
(dp2372
sg63
g2357
sg56
(lp2373
g49
(g50
g51
NtRp2374
(dp2375
g54
(dp2376
g62
I3
ssg63
g2370
sg56
(lp2377
S'1'
asbasbasbag49
(g65
g51
NtRp2378
(dp2379
g54
(dp2380
sg63
g2227
sg56
(lp2381
g49
(g70
g51
NtRp2382
(dp2383
g54
(dp2384
g74
g75
ssg63
g2378
sg56
(lp2385
S'HTTP_HOST'
p2386
asbag49
(g70
g51
NtRp2387
(dp2388
g54
(dp2389
g81
g82
ssg63
g2378
sg56
(lp2390
S':'
asbag49
(g70
g51
NtRp2391
(dp2392
g54
(dp2393
sg63
g2378
sg56
(lp2394
g49
(g50
g51
NtRp2395
(dp2396
g54
(dp2397
g62
I3
ssg63
g2391
sg56
(lp2398
g935
asbasbasbag49
(g65
g51
NtRp2399
(dp2400
g54
(dp2401
sg63
g2227
sg56
(lp2402
g49
(g70
g51
NtRp2403
(dp2404
g54
(dp2405
g74
g75
ssg63
g2399
sg56
(lp2406
S'HTTP_USER_AGENT'
p2407
asbag49
(g70
g51
NtRp2408
(dp2409
g54
(dp2410
g81
g82
ssg63
g2399
sg56
(lp2411
S':'
asbag49
(g70
g51
NtRp2412
(dp2413
g54
(dp2414
sg63
g2399
sg56
(lp2415
g49
(g50
g51
NtRp2416
(dp2417
g54
(dp2418
g62
I3
ssg63
g2412
sg56
(lp2419
g957
asbasbasbag49
(g65
g51
NtRp2420
(dp2421
g54
(dp2422
sg63
g2227
sg56
(lp2423
g49
(g70
g51
NtRp2424
(dp2425
g54
(dp2426
g74
g75
ssg63
g2420
sg56
(lp2427
S'PATH_INFO'
p2428
asbag49
(g70
g51
NtRp2429
(dp2430
g54
(dp2431
g81
g82
ssg63
g2420
sg56
(lp2432
S':'
asbag49
(g70
g51
NtRp2433
(dp2434
g54
(dp2435
sg63
g2420
sg56
(lp2436
g49
(g50
g51
NtRp2437
(dp2438
g54
(dp2439
g62
I3
ssg63
g2433
sg56
(lp2440
g1021
asbasbasbag49
(g65
g51
NtRp2441
(dp2442
g54
(dp2443
sg63
g2227
sg56
(lp2444
g49
(g70
g51
NtRp2445
(dp2446
g54
(dp2447
g74
g75
ssg63
g2441
sg56
(lp2448
S'QUERY_STRING'
p2449
asbag49
(g70
g51
NtRp2450
(dp2451
g54
(dp2452
g81
g82
ssg63
g2441
sg56
(lp2453
S':'
asbag49
(g70
g51
NtRp2454
(dp2455
g54
(dp2456
sg63
g2441
sg56
(lp2457
g49
(g50
g51
NtRp2458
(dp2459
g54
(dp2460
g62
I3
ssg63
g2454
sg56
(lp2461
S''
asbasbasbag49
(g65
g51
NtRp2462
(dp2463
g54
(dp2464
sg63
g2227
sg56
(lp2465
g49
(g70
g51
NtRp2466
(dp2467
g54
(dp2468
g74
g75
ssg63
g2462
sg56
(lp2469
S'REMOTE_ADDR'
p2470
asbag49
(g70
g51
NtRp2471
(dp2472
g54
(dp2473
g81
g82
ssg63
g2462
sg56
(lp2474
S':'
asbag49
(g70
g51
NtRp2475
(dp2476
g54
(dp2477
sg63
g2462
sg56
(lp2478
g49
(g50
g51
NtRp2479
(dp2480
g54
(dp2481
g62
I3
ssg63
g2475
sg56
(lp2482
g195
asbasbasbag49
(g65
g51
NtRp2483
(dp2484
g54
(dp2485
sg63
g2227
sg56
(lp2486
g49
(g70
g51
NtRp2487
(dp2488
g54
(dp2489
g74
g75
ssg63
g2483
sg56
(lp2490
S'REMOTE_PORT'
p2491
asbag49
(g70
g51
NtRp2492
(dp2493
g54
(dp2494
g81
g82
ssg63
g2483
sg56
(lp2495
S':'
asbag49
(g70
g51
NtRp2496
(dp2497
g54
(dp2498
sg63
g2483
sg56
(lp2499
g49
(g50
g51
NtRp2500
(dp2501
g54
(dp2502
g62
I3
ssg63
g2496
sg56
(lp2503
g1085
asbasbasbag49
(g65
g51
NtRp2504
(dp2505
g54
(dp2506
sg63
g2227
sg56
(lp2507
g49
(g70
g51
NtRp2508
(dp2509
g54
(dp2510
g74
g75
ssg63
g2504
sg56
(lp2511
S'REQUEST_METHOD'
p2512
asbag49
(g70
g51
NtRp2513
(dp2514
g54
(dp2515
g81
g82
ssg63
g2504
sg56
(lp2516
S':'
asbag49
(g70
g51
NtRp2517
(dp2518
g54
(dp2519
sg63
g2504
sg56
(lp2520
g49
(g50
g51
NtRp2521
(dp2522
g54
(dp2523
g62
I3
ssg63
g2517
sg56
(lp2524
g1107
asbasbasbag49
(g65
g51
NtRp2525
(dp2526
g54
(dp2527
sg63
g2227
sg56
(lp2528
g49
(g70
g51
NtRp2529
(dp2530
g54
(dp2531
g74
g75
ssg63
g2525
sg56
(lp2532
S'SCRIPT_NAME'
p2533
asbag49
(g70
g51
NtRp2534
(dp2535
g54
(dp2536
g81
g82
ssg63
g2525
sg56
(lp2537
S':'
asbag49
(g70
g51
NtRp2538
(dp2539
g54
(dp2540
sg63
g2525
sg56
(lp2541
g49
(g50
g51
NtRp2542
(dp2543
g54
(dp2544
g62
I3
ssg63
g2538
sg56
(lp2545
S''
asbasbasbag49
(g65
g51
NtRp2546
(dp2547
g54
(dp2548
sg63
g2227
sg56
(lp2549
g49
(g70
g51
NtRp2550
(dp2551
g54
(dp2552
g74
g75
ssg63
g2546
sg56
(lp2553
S'SERVER_NAME'
p2554
asbag49
(g70
g51
NtRp2555
(dp2556
g54
(dp2557
g81
g82
ssg63
g2546
sg56
(lp2558
S':'
asbag49
(g70
g51
NtRp2559
(dp2560
g54
(dp2561
sg63
g2546
sg56
(lp2562
g49
(g50
g51
NtRp2563
(dp2564
g54
(dp2565
g62
I3
ssg63
g2559
sg56
(lp2566
g1150
asbasbasbag49
(g65
g51
NtRp2567
(dp2568
g54
(dp2569
sg63
g2227
sg56
(lp2570
g49
(g70
g51
NtRp2571
(dp2572
g54
(dp2573
g74
g75
ssg63
g2567
sg56
(lp2574
S'SERVER_PORT'
p2575
asbag49
(g70
g51
NtRp2576
(dp2577
g54
(dp2578
g81
g82
ssg63
g2567
sg56
(lp2579
S':'
asbag49
(g70
g51
NtRp2580
(dp2581
g54
(dp2582
sg63
g2567
sg56
(lp2583
g49
(g50
g51
NtRp2584
(dp2585
g54
(dp2586
g62
I3
ssg63
g2580
sg56
(lp2587
g1172
asbasbasbag49
(g65
g51
NtRp2588
(dp2589
g54
(dp2590
sg63
g2227
sg56
(lp2591
g49
(g70
g51
NtRp2592
(dp2593
g54
(dp2594
g74
g75
ssg63
g2588
sg56
(lp2595
S'SERVER_PROTOCOL'
p2596
asbag49
(g70
g51
NtRp2597
(dp2598
g54
(dp2599
g81
g82
ssg63
g2588
sg56
(lp2600
S':'
asbag49
(g70
g51
NtRp2601
(dp2602
g54
(dp2603
sg63
g2588
sg56
(lp2604
g49
(g50
g51
NtRp2605
(dp2606
g54
(dp2607
g62
I3
ssg63
g2601
sg56
(lp2608
g1194
asbasbasbag49
(g65
g51
NtRp2609
(dp2610
g54
(dp2611
sg63
g2227
sg56
(lp2612
g49
(g70
g51
NtRp2613
(dp2614
g54
(dp2615
g74
g75
ssg63
g2609
sg56
(lp2616
S'SERVER_SOFTWARE'
p2617
asbag49
(g70
g51
NtRp2618
(dp2619
g54
(dp2620
g81
g82
ssg63
g2609
sg56
(lp2621
S':'
asbag49
(g70
g51
NtRp2622
(dp2623
g54
(dp2624
sg63
g2609
sg56
(lp2625
g49
(g50
g51
NtRp2626
(dp2627
g54
(dp2628
g62
I3
ssg63
g2622
sg56
(lp2629
g1216
asbasbasbag49
(g65
g51
NtRp2630
(dp2631
g54
(dp2632
sg63
g2227
sg56
(lp2633
g49
(g70
g51
NtRp2634
(dp2635
g54
(dp2636
g74
g75
ssg63
g2630
sg56
(lp2637
S'wsgi.errors'
p2638
asbag49
(g70
g51
NtRp2639
(dp2640
g54
(dp2641
g81
g82
ssg63
g2630
sg56
(lp2642
S':'
asbag49
(g70
g51
NtRp2643
(dp2644
g54
(dp2645
sg63
g2630
sg56
(lp2646
g49
(g50
g51
NtRp2647
(dp2648
g54
(dp2649
g62
I3
ssg63
g2643
sg56
(lp2650
S'<__main__.Stderr object at 0x00486670>'
p2651
asbasbasbag49
(g65
g51
NtRp2652
(dp2653
g54
(dp2654
sg63
g2227
sg56
(lp2655
g49
(g70
g51
NtRp2656
(dp2657
g54
(dp2658
g74
g75
ssg63
g2652
sg56
(lp2659
S'wsgi.file_wrapper'
p2660
asbag49
(g70
g51
NtRp2661
(dp2662
g54
(dp2663
g81
g82
ssg63
g2652
sg56
(lp2664
S':'
asbag49
(g70
g51
NtRp2665
(dp2666
g54
(dp2667
sg63
g2652
sg56
(lp2668
g49
(g50
g51
NtRp2669
(dp2670
g54
(dp2671
g62
I3
ssg63
g2665
sg56
(lp2672
S'<class wsgiref.util.FileWrapper at 0x02E8DE10>'
p2673
asbasbasbag49
(g65
g51
NtRp2674
(dp2675
g54
(dp2676
sg63
g2227
sg56
(lp2677
g49
(g70
g51
NtRp2678
(dp2679
g54
(dp2680
g74
g75
ssg63
g2674
sg56
(lp2681
S'wsgi.input'
p2682
asbag49
(g70
g51
NtRp2683
(dp2684
g54
(dp2685
g81
g82
ssg63
g2674
sg56
(lp2686
S':'
asbag49
(g70
g51
NtRp2687
(dp2688
g54
(dp2689
sg63
g2674
sg56
(lp2690
g49
(g50
g51
NtRp2691
(dp2692
g54
(dp2693
g62
I3
ssg63
g2687
sg56
(lp2694
S'<cStringIO.StringO object at 0x06B00860>'
p2695
asbasbasbag49
(g65
g51
NtRp2696
(dp2697
g54
(dp2698
sg63
g2227
sg56
(lp2699
g49
(g70
g51
NtRp2700
(dp2701
g54
(dp2702
g74
g75
ssg63
g2696
sg56
(lp2703
S'wsgi.multiprocess'
p2704
asbag49
(g70
g51
NtRp2705
(dp2706
g54
(dp2707
g81
g82
ssg63
g2696
sg56
(lp2708
S':'
asbag49
(g70
g51
NtRp2709
(dp2710
g54
(dp2711
sg63
g2696
sg56
(lp2712
g49
(g50
g51
NtRp2713
(dp2714
g54
(dp2715
g62
I3
ssg63
g2709
sg56
(lp2716
g92
asbasbasbag49
(g65
g51
NtRp2717
(dp2718
g54
(dp2719
sg63
g2227
sg56
(lp2720
g49
(g70
g51
NtRp2721
(dp2722
g54
(dp2723
g74
g75
ssg63
g2717
sg56
(lp2724
S'wsgi.multithread'
p2725
asbag49
(g70
g51
NtRp2726
(dp2727
g54
(dp2728
g81
g82
ssg63
g2717
sg56
(lp2729
S':'
asbag49
(g70
g51
NtRp2730
(dp2731
g54
(dp2732
sg63
g2717
sg56
(lp2733
g49
(g50
g51
NtRp2734
(dp2735
g54
(dp2736
g62
I3
ssg63
g2730
sg56
(lp2737
g1456
asbasbasbag49
(g65
g51
NtRp2738
(dp2739
g54
(dp2740
sg63
g2227
sg56
(lp2741
g49
(g70
g51
NtRp2742
(dp2743
g54
(dp2744
g74
g75
ssg63
g2738
sg56
(lp2745
S'wsgi.run_once'
p2746
asbag49
(g70
g51
NtRp2747
(dp2748
g54
(dp2749
g81
g82
ssg63
g2738
sg56
(lp2750
S':'
asbag49
(g70
g51
NtRp2751
(dp2752
g54
(dp2753
sg63
g2738
sg56
(lp2754
g49
(g50
g51
NtRp2755
(dp2756
g54
(dp2757
g62
I3
ssg63
g2751
sg56
(lp2758
g92
asbasbasbag49
(g65
g51
NtRp2759
(dp2760
g54
(dp2761
sg63
g2227
sg56
(lp2762
g49
(g70
g51
NtRp2763
(dp2764
g54
(dp2765
g74
g75
ssg63
g2759
sg56
(lp2766
S'wsgi.url_scheme'
p2767
asbag49
(g70
g51
NtRp2768
(dp2769
g54
(dp2770
g81
g82
ssg63
g2759
sg56
(lp2771
S':'
asbag49
(g70
g51
NtRp2772
(dp2773
g54
(dp2774
sg63
g2759
sg56
(lp2775
g49
(g50
g51
NtRp2776
(dp2777
g54
(dp2778
g62
I3
ssg63
g2772
sg56
(lp2779
g1499
asbasbasbag49
(g65
g51
NtRp2780
(dp2781
g54
(dp2782
sg63
g2227
sg56
(lp2783
g49
(g70
g51
NtRp2784
(dp2785
g54
(dp2786
g74
g75
ssg63
g2780
sg56
(lp2787
S'wsgi.version'
p2788
asbag49
(g70
g51
NtRp2789
(dp2790
g54
(dp2791
g81
g82
ssg63
g2780
sg56
(lp2792
S':'
asbag49
(g70
g51
NtRp2793
(dp2794
g54
(dp2795
sg63
g2780
sg56
(lp2796
g49
(g50
g51
NtRp2797
(dp2798
g54
(dp2799
g62
I3
ssg63
g2793
sg56
(lp2800
S'1'
asbasbasbasbasbasbasbasbasbasbasbasbasbsS'frames'
p2801
(lp2802
(dp2803
S'file'
p2804
S'C:\\web2py\\gluon\\restricted.py'
p2805
sS'dump'
p2806
(dp2807
sS'lnum'
p2808
I205
sS'lines'
p2809
(dp2810
sS'call'
p2811
S"(code='# -*- coding: utf-8 -*-\\n# this file is released ...ud())\\n\\n\\nresponse._vars=response._caller(Problem)\\n', environment={'A': <class 'gluon.html.A'>, 'Auth': <class 'gluon.tools.Auth'>, 'B': <class 'gluon.html.B'>, 'BEAUTIFY': <class 'gluon.html.BEAUTIFY'>, 'BODY': <class 'gluon.html.BODY'>, 'BR': <class 'gluon.html.BR'>, 'BUTTON': <class 'gluon.html.BUTTON'>, 'CAT': <class 'gluon.html.CAT'>, 'CENTER': <class 'gluon.html.CENTER'>, 'CLEANUP': <class 'gluon.validators.CLEANUP'>, ...}, layer=r'C:\\web2py\\applications\\unioeste_code\\controllers/default.py')"
p2812
sS'func'
p2813
S'restricted'
p2814
sa(dp2815
g2804
S'C:\\web2py\\applications\\unioeste_code\\controllers\\default.py'
p2816
sg2806
(dp2817
sg2808
I93
sg2809
(dp2818
I82
S'    http://..../[app]/default/data/delete/[table]/[id]'
p2819
sI83
S'    http://..../[app]/default/data/select/[table]'
p2820
sI84
S'    http://..../[app]/default/data/search/[table]'
p2821
sI85
S'    but URLs must be signed, i.e. linked with'
p2822
sI86
S"      A('table',_href=URL('data/tables',user_signature=True))"
p2823
sI87
S'    or with the signed load operator'
p2824
sI88
S"      LOAD('default','data.load',args='tables',ajax=True,user_signature=True)"
p2825
sI89
S'    """'
p2826
sI90
S'    return dict(form=crud())'
p2827
sI91
S''
ssg2811
S'()'
p2828
sg2813
S'<module>'
p2829
sa(dp2830
g2804
S'C:\\web2py\\gluon\\globals.py'
p2831
sg2806
(dp2832
sg2808
I173
sg2809
(dp2833
sg2811
S'(f=<function Problem at 0x06B931B0>)'
p2834
sg2813
S'<lambda>'
p2835
sa(dp2836
g2804
S'C:\\web2py\\gluon\\tools.py'
p2837
sg2806
(dp2838
sg2808
I2575
sg2809
(dp2839
sg2811
S'(*a=(), **b={})'
p2840
sg2813
S'f'
sa(dp2841
g2804
S'C:\\web2py\\applications\\unioeste_code\\controllers\\default.py'
p2842
sg2806
(dp2843
sg2808
I19
sg2809
(dp2844
I14
S'    return dict(problems=problems)'
p2845
sI15
S''
sI16
S'@auth.requires_login()'
p2846
sI17
S'def Problem():'
p2847
sI18
S'    problem = db(db.problem.id==request.args(0)).select().first()'
p2848
sI19
S'    db.code.problem_id.default = problem.id'
p2849
sI20
S'    form = SQLFORM(db.code)'
p2850
sI21
S'    if form.process().accepted:'
p2851
sI22
S"        response.flash = T('Your code has been posted')"
p2852
sI23
S'    codes = db(db.code.problem_id == problem.id).select()'
p2853
ssg2811
S'()'
p2854
sg2813
S'Problem'
p2855
sasS'pyver'
p2856
S'Python 2.5.4: C:\\web2py\\web2py_no_console.exe'
p2857
sS'session'
p2858
g49
(g50
g51
NtRp2859
(dp2860
g54
(dp2861
sg56
(lp2862
g49
(g58
g51
NtRp2863
(dp2864
g54
(dp2865
g62
I5
ssg63
Nsg56
(lp2866
g49
(g65
g51
NtRp2867
(dp2868
g54
(dp2869
sg63
g2863
sg56
(lp2870
g49
(g70
g51
NtRp2871
(dp2872
g54
(dp2873
g74
g75
ssg63
g2867
sg56
(lp2874
S'auth'
p2875
asbag49
(g70
g51
NtRp2876
(dp2877
g54
(dp2878
g81
g82
ssg63
g2867
sg56
(lp2879
S':'
asbag49
(g70
g51
NtRp2880
(dp2881
g54
(dp2882
sg63
g2867
sg56
(lp2883
g49
(g50
g51
NtRp2884
(dp2885
g54
(dp2886
g62
I5
ssg63
g2880
sg56
(lp2887
g49
(g58
g51
NtRp2888
(dp2889
g54
(dp2890
g62
I4
ssg63
Nsg56
(lp2891
g49
(g65
g51
NtRp2892
(dp2893
g54
(dp2894
sg63
g2888
sg56
(lp2895
g49
(g70
g51
NtRp2896
(dp2897
g54
(dp2898
g74
g75
ssg63
g2892
sg56
(lp2899
S'expiration'
p2900
asbag49
(g70
g51
NtRp2901
(dp2902
g54
(dp2903
g81
g82
ssg63
g2892
sg56
(lp2904
S':'
asbag49
(g70
g51
NtRp2905
(dp2906
g54
(dp2907
sg63
g2892
sg56
(lp2908
g49
(g50
g51
NtRp2909
(dp2910
g54
(dp2911
g62
I4
ssg63
g2905
sg56
(lp2912
S'3600'
p2913
asbasbasbag49
(g65
g51
NtRp2914
(dp2915
g54
(dp2916
sg63
g2888
sg56
(lp2917
g49
(g70
g51
NtRp2918
(dp2919
g54
(dp2920
g74
g75
ssg63
g2914
sg56
(lp2921
S'hmac_key'
p2922
asbag49
(g70
g51
NtRp2923
(dp2924
g54
(dp2925
g81
g82
ssg63
g2914
sg56
(lp2926
S':'
asbag49
(g70
g51
NtRp2927
(dp2928
g54
(dp2929
sg63
g2914
sg56
(lp2930
g49
(g50
g51
NtRp2931
(dp2932
g54
(dp2933
g62
I4
ssg63
g2927
sg56
(lp2934
S'995a0c66-3f99-485b-9dcd-26805f1668c1'
p2935
asbasbasbag49
(g65
g51
NtRp2936
(dp2937
g54
(dp2938
sg63
g2888
sg56
(lp2939
g49
(g70
g51
NtRp2940
(dp2941
g54
(dp2942
g74
g75
ssg63
g2936
sg56
(lp2943
S'last_visit'
p2944
asbag49
(g70
g51
NtRp2945
(dp2946
g54
(dp2947
g81
g82
ssg63
g2936
sg56
(lp2948
S':'
asbag49
(g70
g51
NtRp2949
(dp2950
g54
(dp2951
sg63
g2936
sg56
(lp2952
g49
(g50
g51
NtRp2953
(dp2954
g54
(dp2955
g62
I4
ssg63
g2949
sg56
(lp2956
S'datetime.datetime(2012, 7, 30, 1, 25, 37, 578000)'
p2957
asbasbasbag49
(g65
g51
NtRp2958
(dp2959
g54
(dp2960
sg63
g2888
sg56
(lp2961
g49
(g70
g51
NtRp2962
(dp2963
g54
(dp2964
g74
g75
ssg63
g2958
sg56
(lp2965
S'remember'
p2966
asbag49
(g70
g51
NtRp2967
(dp2968
g54
(dp2969
g81
g82
ssg63
g2958
sg56
(lp2970
S':'
asbag49
(g70
g51
NtRp2971
(dp2972
g54
(dp2973
sg63
g2958
sg56
(lp2974
g49
(g50
g51
NtRp2975
(dp2976
g54
(dp2977
g62
I4
ssg63
g2971
sg56
(lp2978
g92
asbasbasbag49
(g65
g51
NtRp2979
(dp2980
g54
(dp2981
sg63
g2888
sg56
(lp2982
g49
(g70
g51
NtRp2983
(dp2984
g54
(dp2985
g74
g75
ssg63
g2979
sg56
(lp2986
S'user'
p2987
asbag49
(g70
g51
NtRp2988
(dp2989
g54
(dp2990
g81
g82
ssg63
g2979
sg56
(lp2991
S':'
asbag49
(g70
g51
NtRp2992
(dp2993
g54
(dp2994
sg63
g2979
sg56
(lp2995
g49
(g50
g51
NtRp2996
(dp2997
g54
(dp2998
g62
I4
ssg63
g2992
sg56
(lp2999
g49
(g58
g51
NtRp3000
(dp3001
g54
(dp3002
g62
I3
ssg63
Nsg56
(lp3003
g49
(g65
g51
NtRp3004
(dp3005
g54
(dp3006
sg63
g3000
sg56
(lp3007
g49
(g70
g51
NtRp3008
(dp3009
g54
(dp3010
g74
g75
ssg63
g3004
sg56
(lp3011
S'email'
p3012
asbag49
(g70
g51
NtRp3013
(dp3014
g54
(dp3015
g81
g82
ssg63
g3004
sg56
(lp3016
S':'
asbag49
(g70
g51
NtRp3017
(dp3018
g54
(dp3019
sg63
g3004
sg56
(lp3020
g49
(g50
g51
NtRp3021
(dp3022
g54
(dp3023
g62
I3
ssg63
g3017
sg56
(lp3024
S'scmirror1@gmail.com'
p3025
asbasbasbag49
(g65
g51
NtRp3026
(dp3027
g54
(dp3028
sg63
g3000
sg56
(lp3029
g49
(g70
g51
NtRp3030
(dp3031
g54
(dp3032
g74
g75
ssg63
g3026
sg56
(lp3033
S'first_name'
p3034
asbag49
(g70
g51
NtRp3035
(dp3036
g54
(dp3037
g81
g82
ssg63
g3026
sg56
(lp3038
S':'
asbag49
(g70
g51
NtRp3039
(dp3040
g54
(dp3041
sg63
g3026
sg56
(lp3042
g49
(g50
g51
NtRp3043
(dp3044
g54
(dp3045
g62
I3
ssg63
g3039
sg56
(lp3046
S'Pedro'
p3047
asbasbasbag49
(g65
g51
NtRp3048
(dp3049
g54
(dp3050
sg63
g3000
sg56
(lp3051
g49
(g70
g51
NtRp3052
(dp3053
g54
(dp3054
g74
g75
ssg63
g3048
sg56
(lp3055
S'id'
p3056
asbag49
(g70
g51
NtRp3057
(dp3058
g54
(dp3059
g81
g82
ssg63
g3048
sg56
(lp3060
S':'
asbag49
(g70
g51
NtRp3061
(dp3062
g54
(dp3063
sg63
g3048
sg56
(lp3064
g49
(g50
g51
NtRp3065
(dp3066
g54
(dp3067
g62
I3
ssg63
g3061
sg56
(lp3068
S'1'
asbasbasbag49
(g65
g51
NtRp3069
(dp3070
g54
(dp3071
sg63
g3000
sg56
(lp3072
g49
(g70
g51
NtRp3073
(dp3074
g54
(dp3075
g74
g75
ssg63
g3069
sg56
(lp3076
S'last_name'
p3077
asbag49
(g70
g51
NtRp3078
(dp3079
g54
(dp3080
g81
g82
ssg63
g3069
sg56
(lp3081
S':'
asbag49
(g70
g51
NtRp3082
(dp3083
g54
(dp3084
sg63
g3069
sg56
(lp3085
g49
(g50
g51
NtRp3086
(dp3087
g54
(dp3088
g62
I3
ssg63
g3082
sg56
(lp3089
S'Lacerda'
p3090
asbasbasbag49
(g65
g51
NtRp3091
(dp3092
g54
(dp3093
sg63
g3000
sg56
(lp3094
g49
(g70
g51
NtRp3095
(dp3096
g54
(dp3097
g74
g75
ssg63
g3091
sg56
(lp3098
S'password'
p3099
asbag49
(g70
g51
NtRp3100
(dp3101
g54
(dp3102
g81
g82
ssg63
g3091
sg56
(lp3103
S':'
asbag49
(g70
g51
NtRp3104
(dp3105
g54
(dp3106
sg63
g3091
sg56
(lp3107
g49
(g50
g51
NtRp3108
(dp3109
g54
(dp3110
g62
I3
ssg63
g3104
sg56
(lp3111
S'4297f44b13955235245b2497399d7a93'
p3112
asbasbasbag49
(g65
g51
NtRp3113
(dp3114
g54
(dp3115
sg63
g3000
sg56
(lp3116
g49
(g70
g51
NtRp3117
(dp3118
g54
(dp3119
g74
g75
ssg63
g3113
sg56
(lp3120
S'registration_id'
p3121
asbag49
(g70
g51
NtRp3122
(dp3123
g54
(dp3124
g81
g82
ssg63
g3113
sg56
(lp3125
S':'
asbag49
(g70
g51
NtRp3126
(dp3127
g54
(dp3128
sg63
g3113
sg56
(lp3129
g49
(g50
g51
NtRp3130
(dp3131
g54
(dp3132
g62
I3
ssg63
g3126
sg56
(lp3133
S''
asbasbasbag49
(g65
g51
NtRp3134
(dp3135
g54
(dp3136
sg63
g3000
sg56
(lp3137
g49
(g70
g51
NtRp3138
(dp3139
g54
(dp3140
g74
g75
ssg63
g3134
sg56
(lp3141
S'registration_key'
p3142
asbag49
(g70
g51
NtRp3143
(dp3144
g54
(dp3145
g81
g82
ssg63
g3134
sg56
(lp3146
S':'
asbag49
(g70
g51
NtRp3147
(dp3148
g54
(dp3149
sg63
g3134
sg56
(lp3150
g49
(g50
g51
NtRp3151
(dp3152
g54
(dp3153
g62
I3
ssg63
g3147
sg56
(lp3154
S''
asbasbasbag49
(g65
g51
NtRp3155
(dp3156
g54
(dp3157
sg63
g3000
sg56
(lp3158
g49
(g70
g51
NtRp3159
(dp3160
g54
(dp3161
g74
g75
ssg63
g3155
sg56
(lp3162
S'reset_password_key'
p3163
asbag49
(g70
g51
NtRp3164
(dp3165
g54
(dp3166
g81
g82
ssg63
g3155
sg56
(lp3167
S':'
asbag49
(g70
g51
NtRp3168
(dp3169
g54
(dp3170
sg63
g3155
sg56
(lp3171
g49
(g50
g51
NtRp3172
(dp3173
g54
(dp3174
g62
I3
ssg63
g3168
sg56
(lp3175
S''
asbasbasbasbasbasbasbag49
(g65
g51
NtRp3176
(dp3177
g54
(dp3178
sg63
g2888
sg56
(lp3179
g49
(g70
g51
NtRp3180
(dp3181
g54
(dp3182
g74
g75
ssg63
g3176
sg56
(lp3183
S'user_groups'
p3184
asbag49
(g70
g51
NtRp3185
(dp3186
g54
(dp3187
g81
g82
ssg63
g3176
sg56
(lp3188
S':'
asbag49
(g70
g51
NtRp3189
(dp3190
g54
(dp3191
sg63
g3176
sg56
(lp3192
g49
(g50
g51
NtRp3193
(dp3194
g54
(dp3195
g62
I4
ssg63
g3189
sg56
(lp3196
g49
(g58
g51
NtRp3197
(dp3198
g54
(dp3199
g62
I3
ssg63
Nsg56
(lp3200
g49
(g65
g51
NtRp3201
(dp3202
g54
(dp3203
sg63
g3197
sg56
(lp3204
g49
(g70
g51
NtRp3205
(dp3206
g54
(dp3207
g74
g75
ssg63
g3201
sg56
(lp3208
S'1'
asbag49
(g70
g51
NtRp3209
(dp3210
g54
(dp3211
g81
g82
ssg63
g3201
sg56
(lp3212
S':'
asbag49
(g70
g51
NtRp3213
(dp3214
g54
(dp3215
sg63
g3201
sg56
(lp3216
g49
(g50
g51
NtRp3217
(dp3218
g54
(dp3219
g62
I3
ssg63
g3213
sg56
(lp3220
S'user_1'
p3221
asbasbasbag49
(g65
g51
NtRp3222
(dp3223
g54
(dp3224
sg63
g3197
sg56
(lp3225
g49
(g70
g51
NtRp3226
(dp3227
g54
(dp3228
g74
g75
ssg63
g3222
sg56
(lp3229
S'2'
asbag49
(g70
g51
NtRp3230
(dp3231
g54
(dp3232
g81
g82
ssg63
g3222
sg56
(lp3233
S':'
asbag49
(g70
g51
NtRp3234
(dp3235
g54
(dp3236
sg63
g3222
sg56
(lp3237
g49
(g50
g51
NtRp3238
(dp3239
g54
(dp3240
g62
I3
ssg63
g3234
sg56
(lp3241
S'manager'
p3242
asbasbasbasbasbasbasbasbasbasbasbasbasbsS'etype'
p3243
S"<type 'exceptions.AttributeError'>"
p3244
sS'date'
p3245
S'Mon Jul 30 01:28:04 2012'
p3246
sS'response'
p3247
g49
(g50
g51
NtRp3248
(dp3249
g54
(dp3250
sg56
(lp3251
g49
(g58
g51
NtRp3252
(dp3253
g54
(dp3254
g62
I5
ssg63
Nsg56
(lp3255
g49
(g65
g51
NtRp3256
(dp3257
g54
(dp3258
sg63
g3252
sg56
(lp3259
g49
(g70
g51
NtRp3260
(dp3261
g54
(dp3262
g74
g75
ssg63
g3256
sg56
(lp3263
g160
asbag49
(g70
g51
NtRp3264
(dp3265
g54
(dp3266
g81
g82
ssg63
g3256
sg56
(lp3267
S':'
asbag49
(g70
g51
NtRp3268
(dp3269
g54
(dp3270
sg63
g3256
sg56
(lp3271
g49
(g50
g51
NtRp3272
(dp3273
g54
(dp3274
g62
I5
ssg63
g3268
sg56
(lp3275
S'<cStringIO.StringO object at 0x0626C340>'
p3276
asbasbasbag49
(g65
g51
NtRp3277
(dp3278
g54
(dp3279
sg63
g3252
sg56
(lp3280
g49
(g70
g51
NtRp3281
(dp3282
g54
(dp3283
g74
g75
ssg63
g3277
sg56
(lp3284
g226
asbag49
(g70
g51
NtRp3285
(dp3286
g54
(dp3287
g81
g82
ssg63
g3277
sg56
(lp3288
S':'
asbag49
(g70
g51
NtRp3289
(dp3290
g54
(dp3291
sg63
g3277
sg56
(lp3292
g49
(g50
g51
NtRp3293
(dp3294
g54
(dp3295
g62
I5
ssg63
g3289
sg56
(lp3296
g49
(g58
g51
NtRp3297
(dp3298
g54
(dp3299
g62
I4
ssg63
Nsg56
(lp3300
g49
(g65
g51
NtRp3301
(dp3302
g54
(dp3303
sg63
g3297
sg56
(lp3304
g49
(g70
g51
NtRp3305
(dp3306
g54
(dp3307
g74
g75
ssg63
g3301
sg56
(lp3308
S'session_id_unioeste_code'
p3309
asbag49
(g70
g51
NtRp3310
(dp3311
g54
(dp3312
g81
g82
ssg63
g3301
sg56
(lp3313
S':'
asbag49
(g70
g51
NtRp3314
(dp3315
g54
(dp3316
sg63
g3301
sg56
(lp3317
g49
(g50
g51
NtRp3318
(dp3319
g54
(dp3320
g62
I4
ssg63
g3314
sg56
(lp3321
g49
(g58
g51
NtRp3322
(dp3323
g54
(dp3324
g62
I3
ssg63
Nsg56
(lp3325
g49
(g65
g51
NtRp3326
(dp3327
g54
(dp3328
sg63
g3322
sg56
(lp3329
g49
(g70
g51
NtRp3330
(dp3331
g54
(dp3332
g74
g75
ssg63
g3326
sg56
(lp3333
g276
asbag49
(g70
g51
NtRp3334
(dp3335
g54
(dp3336
g81
g82
ssg63
g3326
sg56
(lp3337
S':'
asbag49
(g70
g51
NtRp3338
(dp3339
g54
(dp3340
sg63
g3326
sg56
(lp3341
g49
(g50
g51
NtRp3342
(dp3343
g54
(dp3344
g62
I3
ssg63
g3338
sg56
(lp3345
S''
asbasbasbag49
(g65
g51
NtRp3346
(dp3347
g54
(dp3348
sg63
g3322
sg56
(lp3349
g49
(g70
g51
NtRp3350
(dp3351
g54
(dp3352
g74
g75
ssg63
g3346
sg56
(lp3353
g297
asbag49
(g70
g51
NtRp3354
(dp3355
g54
(dp3356
g81
g82
ssg63
g3346
sg56
(lp3357
S':'
asbag49
(g70
g51
NtRp3358
(dp3359
g54
(dp3360
sg63
g3346
sg56
(lp3361
g49
(g50
g51
NtRp3362
(dp3363
g54
(dp3364
g62
I3
ssg63
g3358
sg56
(lp3365
S''
asbasbasbag49
(g65
g51
NtRp3366
(dp3367
g54
(dp3368
sg63
g3322
sg56
(lp3369
g49
(g70
g51
NtRp3370
(dp3371
g54
(dp3372
g74
g75
ssg63
g3366
sg56
(lp3373
g318
asbag49
(g70
g51
NtRp3374
(dp3375
g54
(dp3376
g81
g82
ssg63
g3366
sg56
(lp3377
S':'
asbag49
(g70
g51
NtRp3378
(dp3379
g54
(dp3380
sg63
g3366
sg56
(lp3381
g49
(g50
g51
NtRp3382
(dp3383
g54
(dp3384
g62
I3
ssg63
g3378
sg56
(lp3385
S''
asbasbasbag49
(g65
g51
NtRp3386
(dp3387
g54
(dp3388
sg63
g3322
sg56
(lp3389
g49
(g70
g51
NtRp3390
(dp3391
g54
(dp3392
g74
g75
ssg63
g3386
sg56
(lp3393
g339
asbag49
(g70
g51
NtRp3394
(dp3395
g54
(dp3396
g81
g82
ssg63
g3386
sg56
(lp3397
S':'
asbag49
(g70
g51
NtRp3398
(dp3399
g54
(dp3400
sg63
g3386
sg56
(lp3401
g49
(g50
g51
NtRp3402
(dp3403
g54
(dp3404
g62
I3
ssg63
g3398
sg56
(lp3405
S''
asbasbasbag49
(g65
g51
NtRp3406
(dp3407
g54
(dp3408
sg63
g3322
sg56
(lp3409
g49
(g70
g51
NtRp3410
(dp3411
g54
(dp3412
g74
g75
ssg63
g3406
sg56
(lp3413
g360
asbag49
(g70
g51
NtRp3414
(dp3415
g54
(dp3416
g81
g82
ssg63
g3406
sg56
(lp3417
S':'
asbag49
(g70
g51
NtRp3418
(dp3419
g54
(dp3420
sg63
g3406
sg56
(lp3421
g49
(g50
g51
NtRp3422
(dp3423
g54
(dp3424
g62
I3
ssg63
g3418
sg56
(lp3425
S'/'
asbasbasbag49
(g65
g51
NtRp3426
(dp3427
g54
(dp3428
sg63
g3322
sg56
(lp3429
g49
(g70
g51
NtRp3430
(dp3431
g54
(dp3432
g74
g75
ssg63
g3426
sg56
(lp3433
g381
asbag49
(g70
g51
NtRp3434
(dp3435
g54
(dp3436
g81
g82
ssg63
g3426
sg56
(lp3437
S':'
asbag49
(g70
g51
NtRp3438
(dp3439
g54
(dp3440
sg63
g3426
sg56
(lp3441
g49
(g50
g51
NtRp3442
(dp3443
g54
(dp3444
g62
I3
ssg63
g3438
sg56
(lp3445
S''
asbasbasbag49
(g65
g51
NtRp3446
(dp3447
g54
(dp3448
sg63
g3322
sg56
(lp3449
g49
(g70
g51
NtRp3450
(dp3451
g54
(dp3452
g74
g75
ssg63
g3446
sg56
(lp3453
g402
asbag49
(g70
g51
NtRp3454
(dp3455
g54
(dp3456
g81
g82
ssg63
g3446
sg56
(lp3457
S':'
asbag49
(g70
g51
NtRp3458
(dp3459
g54
(dp3460
sg63
g3446
sg56
(lp3461
g49
(g50
g51
NtRp3462
(dp3463
g54
(dp3464
g62
I3
ssg63
g3458
sg56
(lp3465
S''
asbasbasbasbasbasbasbasbasbasbasbag49
(g65
g51
NtRp3466
(dp3467
g54
(dp3468
sg63
g3252
sg56
(lp3469
g49
(g70
g51
NtRp3470
(dp3471
g54
(dp3472
g74
g75
ssg63
g3466
sg56
(lp3473
S'delimiters'
p3474
asbag49
(g70
g51
NtRp3475
(dp3476
g54
(dp3477
g81
g82
ssg63
g3466
sg56
(lp3478
S':'
asbag49
(g70
g51
NtRp3479
(dp3480
g54
(dp3481
sg63
g3466
sg56
(lp3482
g49
(g50
g51
NtRp3483
(dp3484
g54
(dp3485
g62
I5
ssg63
g3479
sg56
(lp3486
g49
(g58
g51
NtRp3487
(dp3488
g54
(dp3489
g62
I4
ssg63
Nsg56
(lp3490
g49
(g65
g51
NtRp3491
(dp3492
g54
(dp3493
sg63
g3487
sg56
(lp3494
g49
(g70
g51
NtRp3495
(dp3496
g54
(dp3497
sg63
g3491
sg56
(lp3498
g49
(g50
g51
NtRp3499
(dp3500
g54
(dp3501
g62
I4
ssg63
g3495
sg56
(lp3502
S'{{'
p3503
asbasbasbag49
(g65
g51
NtRp3504
(dp3505
g54
(dp3506
sg63
g3487
sg56
(lp3507
g49
(g70
g51
NtRp3508
(dp3509
g54
(dp3510
sg63
g3504
sg56
(lp3511
g49
(g50
g51
NtRp3512
(dp3513
g54
(dp3514
g62
I4
ssg63
g3508
sg56
(lp3515
S'}}'
p3516
asbasbasbasbasbasbasbag49
(g65
g51
NtRp3517
(dp3518
g54
(dp3519
sg63
g3252
sg56
(lp3520
g49
(g70
g51
NtRp3521
(dp3522
g54
(dp3523
g74
g75
ssg63
g3517
sg56
(lp3524
S'files'
p3525
asbag49
(g70
g51
NtRp3526
(dp3527
g54
(dp3528
g81
g82
ssg63
g3517
sg56
(lp3529
S':'
asbag49
(g70
g51
NtRp3530
(dp3531
g54
(dp3532
sg63
g3517
sg56
(lp3533
g49
(g50
g51
NtRp3534
(dp3535
g54
(dp3536
g62
I5
ssg63
g3530
sg56
(lp3537
g49
(g58
g51
NtRp3538
(dp3539
g54
(dp3540
g62
I4
ssg63
Nsg56
(lp3541
sbasbasbasbag49
(g65
g51
NtRp3542
(dp3543
g54
(dp3544
sg63
g3252
sg56
(lp3545
g49
(g70
g51
NtRp3546
(dp3547
g54
(dp3548
g74
g75
ssg63
g3542
sg56
(lp3549
S'flash'
p3550
asbag49
(g70
g51
NtRp3551
(dp3552
g54
(dp3553
g81
g82
ssg63
g3542
sg56
(lp3554
S':'
asbag49
(g70
g51
NtRp3555
(dp3556
g54
(dp3557
sg63
g3542
sg56
(lp3558
g49
(g50
g51
NtRp3559
(dp3560
g54
(dp3561
g62
I5
ssg63
g3555
sg56
(lp3562
S''
asbasbasbag49
(g65
g51
NtRp3563
(dp3564
g54
(dp3565
sg63
g3252
sg56
(lp3566
g49
(g70
g51
NtRp3567
(dp3568
g54
(dp3569
g74
g75
ssg63
g3563
sg56
(lp3570
S'generic_patterns'
p3571
asbag49
(g70
g51
NtRp3572
(dp3573
g54
(dp3574
g81
g82
ssg63
g3563
sg56
(lp3575
S':'
asbag49
(g70
g51
NtRp3576
(dp3577
g54
(dp3578
sg63
g3563
sg56
(lp3579
g49
(g50
g51
NtRp3580
(dp3581
g54
(dp3582
g62
I5
ssg63
g3576
sg56
(lp3583
g49
(g58
g51
NtRp3584
(dp3585
g54
(dp3586
g62
I4
ssg63
Nsg56
(lp3587
sbasbasbasbag49
(g65
g51
NtRp3588
(dp3589
g54
(dp3590
sg63
g3252
sg56
(lp3591
g49
(g70
g51
NtRp3592
(dp3593
g54
(dp3594
g74
g75
ssg63
g3588
sg56
(lp3595
S'headers'
p3596
asbag49
(g70
g51
NtRp3597
(dp3598
g54
(dp3599
g81
g82
ssg63
g3588
sg56
(lp3600
S':'
asbag49
(g70
g51
NtRp3601
(dp3602
g54
(dp3603
sg63
g3588
sg56
(lp3604
g49
(g50
g51
NtRp3605
(dp3606
g54
(dp3607
g62
I5
ssg63
g3601
sg56
(lp3608
g49
(g58
g51
NtRp3609
(dp3610
g54
(dp3611
g62
I4
ssg63
Nsg56
(lp3612
g49
(g65
g51
NtRp3613
(dp3614
g54
(dp3615
sg63
g3609
sg56
(lp3616
g49
(g70
g51
NtRp3617
(dp3618
g54
(dp3619
g74
g75
ssg63
g3613
sg56
(lp3620
S'Cache-Control'
p3621
asbag49
(g70
g51
NtRp3622
(dp3623
g54
(dp3624
g81
g82
ssg63
g3613
sg56
(lp3625
S':'
asbag49
(g70
g51
NtRp3626
(dp3627
g54
(dp3628
sg63
g3613
sg56
(lp3629
g49
(g50
g51
NtRp3630
(dp3631
g54
(dp3632
g62
I4
ssg63
g3626
sg56
(lp3633
S'no-store, no-cache, must-revalidate, post-check=0, pre-check=0'
p3634
asbasbasbag49
(g65
g51
NtRp3635
(dp3636
g54
(dp3637
sg63
g3609
sg56
(lp3638
g49
(g70
g51
NtRp3639
(dp3640
g54
(dp3641
g74
g75
ssg63
g3635
sg56
(lp3642
S'Content-Type'
p3643
asbag49
(g70
g51
NtRp3644
(dp3645
g54
(dp3646
g81
g82
ssg63
g3635
sg56
(lp3647
S':'
asbag49
(g70
g51
NtRp3648
(dp3649
g54
(dp3650
sg63
g3635
sg56
(lp3651
g49
(g50
g51
NtRp3652
(dp3653
g54
(dp3654
g62
I4
ssg63
g3648
sg56
(lp3655
S'text/html; charset=utf-8'
p3656
asbasbasbag49
(g65
g51
NtRp3657
(dp3658
g54
(dp3659
sg63
g3609
sg56
(lp3660
g49
(g70
g51
NtRp3661
(dp3662
g54
(dp3663
g74
g75
ssg63
g3657
sg56
(lp3664
S'Expires'
p3665
asbag49
(g70
g51
NtRp3666
(dp3667
g54
(dp3668
g81
g82
ssg63
g3657
sg56
(lp3669
S':'
asbag49
(g70
g51
NtRp3670
(dp3671
g54
(dp3672
sg63
g3657
sg56
(lp3673
g49
(g50
g51
NtRp3674
(dp3675
g54
(dp3676
g62
I4
ssg63
g3670
sg56
(lp3677
S'Mon, 30 Jul 2012 04:28:04 GMT'
p3678
asbasbasbag49
(g65
g51
NtRp3679
(dp3680
g54
(dp3681
sg63
g3609
sg56
(lp3682
g49
(g70
g51
NtRp3683
(dp3684
g54
(dp3685
g74
g75
ssg63
g3679
sg56
(lp3686
S'Pragma'
p3687
asbag49
(g70
g51
NtRp3688
(dp3689
g54
(dp3690
g81
g82
ssg63
g3679
sg56
(lp3691
S':'
asbag49
(g70
g51
NtRp3692
(dp3693
g54
(dp3694
sg63
g3679
sg56
(lp3695
g49
(g50
g51
NtRp3696
(dp3697
g54
(dp3698
g62
I4
ssg63
g3692
sg56
(lp3699
S'no-cache'
p3700
asbasbasbag49
(g65
g51
NtRp3701
(dp3702
g54
(dp3703
sg63
g3609
sg56
(lp3704
g49
(g70
g51
NtRp3705
(dp3706
g54
(dp3707
g74
g75
ssg63
g3701
sg56
(lp3708
S'X-Powered-By'
p3709
asbag49
(g70
g51
NtRp3710
(dp3711
g54
(dp3712
g81
g82
ssg63
g3701
sg56
(lp3713
S':'
asbag49
(g70
g51
NtRp3714
(dp3715
g54
(dp3716
sg63
g3701
sg56
(lp3717
g49
(g50
g51
NtRp3718
(dp3719
g54
(dp3720
g62
I4
ssg63
g3714
sg56
(lp3721
S'web2py'
p3722
asbasbasbasbasbasbasbag49
(g65
g51
NtRp3723
(dp3724
g54
(dp3725
sg63
g3252
sg56
(lp3726
g49
(g70
g51
NtRp3727
(dp3728
g54
(dp3729
g74
g75
ssg63
g3723
sg56
(lp3730
S'menu'
p3731
asbag49
(g70
g51
NtRp3732
(dp3733
g54
(dp3734
g81
g82
ssg63
g3723
sg56
(lp3735
S':'
asbag49
(g70
g51
NtRp3736
(dp3737
g54
(dp3738
sg63
g3723
sg56
(lp3739
g49
(g50
g51
NtRp3740
(dp3741
g54
(dp3742
g62
I5
ssg63
g3736
sg56
(lp3743
g49
(g58
g51
NtRp3744
(dp3745
g54
(dp3746
g62
I4
ssg63
Nsg56
(lp3747
g49
(g65
g51
NtRp3748
(dp3749
g54
(dp3750
sg63
g3744
sg56
(lp3751
g49
(g70
g51
NtRp3752
(dp3753
g54
(dp3754
sg63
g3748
sg56
(lp3755
g49
(g50
g51
NtRp3756
(dp3757
g54
(dp3758
g62
I4
ssg63
g3752
sg56
(lp3759
g49
(g58
g51
NtRp3760
(dp3761
g54
(dp3762
g62
I3
ssg63
Nsg56
(lp3763
g49
(g65
g51
NtRp3764
(dp3765
g54
(dp3766
sg63
g3760
sg56
(lp3767
g49
(g70
g51
NtRp3768
(dp3769
g54
(dp3770
sg63
g3764
sg56
(lp3771
g49
(g50
g51
NtRp3772
(dp3773
g54
(dp3774
g62
I3
ssg63
g3768
sg56
(lp3775
cgluon.languages
lazyT_unpickle
p3776
(S't\x04\x00\x00\x00Home'
tRp3777
asbasbasbag49
(g65
g51
NtRp3778
(dp3779
g54
(dp3780
sg63
g3760
sg56
(lp3781
g49
(g70
g51
NtRp3782
(dp3783
g54
(dp3784
sg63
g3778
sg56
(lp3785
g49
(g50
g51
NtRp3786
(dp3787
g54
(dp3788
g62
I3
ssg63
g3782
sg56
(lp3789
g92
asbasbasbag49
(g65
g51
NtRp3790
(dp3791
g54
(dp3792
sg63
g3760
sg56
(lp3793
g49
(g70
g51
NtRp3794
(dp3795
g54
(dp3796
sg63
g3790
sg56
(lp3797
g49
(g50
g51
NtRp3798
(dp3799
g54
(dp3800
g62
I3
ssg63
g3794
sg56
(lp3801
S'/unioeste_code/default/index'
p3802
asbasbasbag49
(g65
g51
NtRp3803
(dp3804
g54
(dp3805
sg63
g3760
sg56
(lp3806
g49
(g70
g51
NtRp3807
(dp3808
g54
(dp3809
sg63
g3803
sg56
(lp3810
g49
(g50
g51
NtRp3811
(dp3812
g54
(dp3813
g62
I3
ssg63
g3807
sg56
(lp3814
g49
(g58
g51
NtRp3815
(dp3816
g54
(dp3817
g62
I2
ssg63
Nsg56
(lp3818
sbasbasbasbasbasbasbasbag49
(g65
g51
NtRp3819
(dp3820
g54
(dp3821
sg63
g3744
sg56
(lp3822
g49
(g70
g51
NtRp3823
(dp3824
g54
(dp3825
sg63
g3819
sg56
(lp3826
g49
(g50
g51
NtRp3827
(dp3828
g54
(dp3829
g62
I4
ssg63
g3823
sg56
(lp3830
g49
(g58
g51
NtRp3831
(dp3832
g54
(dp3833
g62
I3
ssg63
Nsg56
(lp3834
g49
(g65
g51
NtRp3835
(dp3836
g54
(dp3837
sg63
g3831
sg56
(lp3838
g49
(g70
g51
NtRp3839
(dp3840
g54
(dp3841
sg63
g3835
sg56
(lp3842
g49
(g50
g51
NtRp3843
(dp3844
g54
(dp3845
g62
I3
ssg63
g3839
sg56
(lp3846
g49
(cgluon.html
SPAN
p3847
g51
NtRp3848
(dp3849
g54
(dp3850
g74
S'color:yellow'
p3851
ssg63
Nsg56
(lp3852
g3722
asbasbasbasbag49
(g65
g51
NtRp3853
(dp3854
g54
(dp3855
sg63
g3831
sg56
(lp3856
g49
(g70
g51
NtRp3857
(dp3858
g54
(dp3859
sg63
g3853
sg56
(lp3860
g49
(g50
g51
NtRp3861
(dp3862
g54
(dp3863
g62
I3
ssg63
g3857
sg56
(lp3864
g92
asbasbasbag49
(g65
g51
NtRp3865
(dp3866
g54
(dp3867
sg63
g3831
sg56
(lp3868
g49
(g70
g51
NtRp3869
(dp3870
g54
(dp3871
sg63
g3865
sg56
(lp3872
g49
(g50
g51
NtRp3873
(dp3874
g54
(dp3875
g62
I3
ssg63
g3869
sg56
(lp3876
S'None'
p3877
asbasbasbag49
(g65
g51
NtRp3878
(dp3879
g54
(dp3880
sg63
g3831
sg56
(lp3881
g49
(g70
g51
NtRp3882
(dp3883
g54
(dp3884
sg63
g3878
sg56
(lp3885
g49
(g50
g51
NtRp3886
(dp3887
g54
(dp3888
g62
I3
ssg63
g3882
sg56
(lp3889
g49
(g58
g51
NtRp3890
(dp3891
g54
(dp3892
g62
I2
ssg63
Nsg56
(lp3893
g49
(g65
g51
NtRp3894
(dp3895
g54
(dp3896
sg63
g3890
sg56
(lp3897
g49
(g70
g51
NtRp3898
(dp3899
g54
(dp3900
sg63
g3894
sg56
(lp3901
g49
(g50
g51
NtRp3902
(dp3903
g54
(dp3904
g62
I2
ssg63
g3898
sg56
(lp3905
g49
(g58
g51
NtRp3906
(dp3907
g54
(dp3908
g62
I1
ssg63
Nsg56
(lp3909
g49
(g65
g51
NtRp3910
(dp3911
g54
(dp3912
sg63
g3906
sg56
(lp3913
g49
(g70
g51
NtRp3914
(dp3915
g54
(dp3916
sg63
g3910
sg56
(lp3917
g49
(g50
g51
NtRp3918
(dp3919
g54
(dp3920
g62
I1
ssg63
g3914
sg56
(lp3921
g3776
(S's\x08\x00\x00\x00My Sites'
tRp3922
asbasbasbag49
(g65
g51
NtRp3923
(dp3924
g54
(dp3925
sg63
g3906
sg56
(lp3926
g49
(g70
g51
NtRp3927
(dp3928
g54
(dp3929
sg63
g3923
sg56
(lp3930
g49
(g50
g51
NtRp3931
(dp3932
g54
(dp3933
g62
I1
ssg63
g3927
sg56
(lp3934
I00
asbasbasbag49
(g65
g51
NtRp3935
(dp3936
g54
(dp3937
sg63
g3906
sg56
(lp3938
g49
(g70
g51
NtRp3939
(dp3940
g54
(dp3941
sg63
g3935
sg56
(lp3942
g49
(g50
g51
NtRp3943
(dp3944
g54
(dp3945
g62
I1
ssg63
g3939
sg56
(lp3946
S'/admin/default/site'
p3947
asbasbasbasbasbasbasbag49
(g65
g51
NtRp3948
(dp3949
g54
(dp3950
sg63
g3890
sg56
(lp3951
g49
(g70
g51
NtRp3952
(dp3953
g54
(dp3954
sg63
g3948
sg56
(lp3955
g49
(g50
g51
NtRp3956
(dp3957
g54
(dp3958
g62
I2
ssg63
g3952
sg56
(lp3959
g49
(g58
g51
NtRp3960
(dp3961
g54
(dp3962
g62
I1
ssg63
Nsg56
(lp3963
g49
(g65
g51
NtRp3964
(dp3965
g54
(dp3966
sg63
g3960
sg56
(lp3967
g49
(g70
g51
NtRp3968
(dp3969
g54
(dp3970
sg63
g3964
sg56
(lp3971
g49
(g50
g51
NtRp3972
(dp3973
g54
(dp3974
g62
I1
ssg63
g3968
sg56
(lp3975
g3776
(S's\x08\x00\x00\x00This App'
tRp3976
asbasbasbag49
(g65
g51
NtRp3977
(dp3978
g54
(dp3979
sg63
g3960
sg56
(lp3980
g49
(g70
g51
NtRp3981
(dp3982
g54
(dp3983
sg63
g3977
sg56
(lp3984
g49
(g50
g51
NtRp3985
(dp3986
g54
(dp3987
g62
I1
ssg63
g3981
sg56
(lp3988
I00
asbasbasbag49
(g65
g51
NtRp3989
(dp3990
g54
(dp3991
sg63
g3960
sg56
(lp3992
g49
(g70
g51
NtRp3993
(dp3994
g54
(dp3995
sg63
g3989
sg56
(lp3996
g49
(g50
g51
NtRp3997
(dp3998
g54
(dp3999
g62
I1
ssg63
g3993
sg56
(lp4000
S'/admin/default/design/unioeste_code'
p4001
asbasbasbag49
(g65
g51
NtRp4002
(dp4003
g54
(dp4004
sg63
g3960
sg56
(lp4005
g49
(g70
g51
NtRp4006
(dp4007
g54
(dp4008
sg63
g4002
sg56
(lp4009
g49
(g50
g51
NtRp4010
(dp4011
g54
(dp4012
g62
I1
ssg63
g4006
sg56
(lp4013
(lp4014
(g3776
(S't\x0b\x00\x00\x00Controlador'
tRp4015
I00
S'/admin/default/edit/unioeste_code/controllers/default.py'
tp4016
a(g3776
(S's\x0e\x00\x00\x00Visualiza\xc3\xa7\xc3\xa3o'
tRp4017
I00
S'/admin/default/edit/unioeste_code/views/default/Problem.html'
tp4018
a(g3776
(S't\x06\x00\x00\x00Layout'
tRp4019
I00
S'/admin/default/edit/unioeste_code/views/layout.html'
tp4020
a(g3776
(S't\n\x00\x00\x00Stylesheet'
tRp4021
I00
S'/admin/default/edit/unioeste_code/static/css/web2py.css'
tp4022
a(g3776
(S's\t\x00\x00\x00Modelo BD'
tRp4023
I00
S'/admin/default/edit/unioeste_code/models/db.py'
tp4024
a(g3776
(S's\x0e\x00\x00\x00Modelo de Menu'
tRp4025
I00
S'/admin/default/edit/unioeste_code/models/menu.py'
tp4026
a(g3776
(S's\x0e\x00\x00\x00Banco de dados'
tRp4027
I00
S'/unioeste_code/appadmin/index'
tp4028
a(g3776
(S't\x06\x00\x00\x00Errors'
tRp4029
I00
S'/admin/default/errors/unioeste_code'
tp4030
a(g3776
(S't\x05\x00\x00\x00About'
tRp4031
I00
S'/admin/default/about/unioeste_code'
tp4032
aasbasbasbasbasbasbasbag49
(g65
g51
NtRp4033
(dp4034
g54
(dp4035
sg63
g3890
sg56
(lp4036
g49
(g70
g51
NtRp4037
(dp4038
g54
(dp4039
sg63
g4033
sg56
(lp4040
g49
(g50
g51
NtRp4041
(dp4042
g54
(dp4043
g62
I2
ssg63
g4037
sg56
(lp4044
g49
(g58
g51
NtRp4045
(dp4046
g54
(dp4047
g62
I1
ssg63
Nsg56
(lp4048
g49
(g65
g51
NtRp4049
(dp4050
g54
(dp4051
sg63
g4045
sg56
(lp4052
g49
(g70
g51
NtRp4053
(dp4054
g54
(dp4055
sg63
g4049
sg56
(lp4056
g49
(g50
g51
NtRp4057
(dp4058
g54
(dp4059
g62
I1
ssg63
g4053
sg56
(lp4060
S'web2py.com'
p4061
asbasbasbag49
(g65
g51
NtRp4062
(dp4063
g54
(dp4064
sg63
g4045
sg56
(lp4065
g49
(g70
g51
NtRp4066
(dp4067
g54
(dp4068
sg63
g4062
sg56
(lp4069
g49
(g50
g51
NtRp4070
(dp4071
g54
(dp4072
g62
I1
ssg63
g4066
sg56
(lp4073
I00
asbasbasbag49
(g65
g51
NtRp4074
(dp4075
g54
(dp4076
sg63
g4045
sg56
(lp4077
g49
(g70
g51
NtRp4078
(dp4079
g54
(dp4080
sg63
g4074
sg56
(lp4081
g49
(g50
g51
NtRp4082
(dp4083
g54
(dp4084
g62
I1
ssg63
g4078
sg56
(lp4085
S'http://www.web2py.com'
p4086
asbasbasbag49
(g65
g51
NtRp4087
(dp4088
g54
(dp4089
sg63
g4045
sg56
(lp4090
g49
(g70
g51
NtRp4091
(dp4092
g54
(dp4093
sg63
g4087
sg56
(lp4094
g49
(g50
g51
NtRp4095
(dp4096
g54
(dp4097
g62
I1
ssg63
g4091
sg56
(lp4098
(lp4099
(g3776
(S't\x08\x00\x00\x00Download'
tRp4100
I00
S'http://www.web2py.com/examples/default/download'
p4101
tp4102
a(g3776
(S't\x07\x00\x00\x00Support'
tRp4103
I00
S'http://www.web2py.com/examples/default/support'
p4104
tp4105
a(g3776
(S't\x04\x00\x00\x00Demo'
tRp4106
I00
S'http://web2py.com/demo_admin'
p4107
tp4108
a(g3776
(S's\x0e\x00\x00\x00Quick Examples'
tRp4109
I00
S'http://web2py.com/examples/default/examples'
p4110
tp4111
a(g3776
(S't\x03\x00\x00\x00FAQ'
tRp4112
I00
S'http://web2py.com/AlterEgo'
p4113
tp4114
a(g3776
(S't\x06\x00\x00\x00Videos'
tRp4115
I00
S'http://www.web2py.com/examples/default/videos/'
p4116
tp4117
a(g3776
(S's\x11\x00\x00\x00Free Applications'
tRp4118
I00
S'http://web2py.com/appliances'
p4119
tp4120
a(g3776
(S't\x07\x00\x00\x00Plugins'
tRp4121
I00
S'http://web2py.com/plugins'
p4122
tp4123
a(g3776
(S't\x07\x00\x00\x00Layouts'
tRp4124
I00
S'http://web2py.com/layouts'
p4125
tp4126
a(g3776
(S't\x07\x00\x00\x00Recipes'
tRp4127
I00
S'http://web2pyslices.com/'
p4128
tp4129
a(g3776
(S't\x08\x00\x00\x00Semantic'
tRp4130
I00
S'http://web2py.com/semantic'
p4131
tp4132
aasbasbasbasbasbasbasbag49
(g65
g51
NtRp4133
(dp4134
g54
(dp4135
sg63
g3890
sg56
(lp4136
g49
(g70
g51
NtRp4137
(dp4138
g54
(dp4139
sg63
g4133
sg56
(lp4140
g49
(g50
g51
NtRp4141
(dp4142
g54
(dp4143
g62
I2
ssg63
g4137
sg56
(lp4144
g49
(g58
g51
NtRp4145
(dp4146
g54
(dp4147
g62
I1
ssg63
Nsg56
(lp4148
g49
(g65
g51
NtRp4149
(dp4150
g54
(dp4151
sg63
g4145
sg56
(lp4152
g49
(g70
g51
NtRp4153
(dp4154
g54
(dp4155
sg63
g4149
sg56
(lp4156
g49
(g50
g51
NtRp4157
(dp4158
g54
(dp4159
g62
I1
ssg63
g4153
sg56
(lp4160
g3776
(S't\r\x00\x00\x00Documentation'
tRp4161
asbasbasbag49
(g65
g51
NtRp4162
(dp4163
g54
(dp4164
sg63
g4145
sg56
(lp4165
g49
(g70
g51
NtRp4166
(dp4167
g54
(dp4168
sg63
g4162
sg56
(lp4169
g49
(g50
g51
NtRp4170
(dp4171
g54
(dp4172
g62
I1
ssg63
g4166
sg56
(lp4173
I00
asbasbasbag49
(g65
g51
NtRp4174
(dp4175
g54
(dp4176
sg63
g4145
sg56
(lp4177
g49
(g70
g51
NtRp4178
(dp4179
g54
(dp4180
sg63
g4174
sg56
(lp4181
g49
(g50
g51
NtRp4182
(dp4183
g54
(dp4184
g62
I1
ssg63
g4178
sg56
(lp4185
S'http://www.web2py.com/book'
p4186
asbasbasbag49
(g65
g51
NtRp4187
(dp4188
g54
(dp4189
sg63
g4145
sg56
(lp4190
g49
(g70
g51
NtRp4191
(dp4192
g54
(dp4193
sg63
g4187
sg56
(lp4194
g49
(g50
g51
NtRp4195
(dp4196
g54
(dp4197
g62
I1
ssg63
g4191
sg56
(lp4198
(lp4199
(g3776
(S't\x07\x00\x00\x00Preface'
tRp4200
I00
S'http://www.web2py.com/book/default/chapter/00'
p4201
tp4202
a(g3776
(S't\x0c\x00\x00\x00Introduction'
tRp4203
I00
S'http://www.web2py.com/book/default/chapter/01'
p4204
tp4205
a(g3776
(S't\x06\x00\x00\x00Python'
tRp4206
I00
S'http://www.web2py.com/book/default/chapter/02'
p4207
tp4208
a(g3776
(S't\x08\x00\x00\x00Overview'
tRp4209
I00
S'http://www.web2py.com/book/default/chapter/03'
p4210
tp4211
a(g3776
(S's\x08\x00\x00\x00The Core'
tRp4212
I00
S'http://www.web2py.com/book/default/chapter/04'
p4213
tp4214
a(g3776
(S's\t\x00\x00\x00The Views'
tRp4215
I00
S'http://www.web2py.com/book/default/chapter/05'
p4216
tp4217
a(g3776
(S's\x0e\x00\x00\x00Banco de dados'
tRp4218
I00
S'http://www.web2py.com/book/default/chapter/06'
p4219
tp4220
a(g3776
(S's\x14\x00\x00\x00Forms and Validators'
tRp4221
I00
S'http://www.web2py.com/book/default/chapter/07'
p4222
tp4223
a(g3776
(S's\r\x00\x00\x00Email and SMS'
tRp4224
I00
S'http://www.web2py.com/book/default/chapter/08'
p4225
tp4226
a(g3776
(S's\x0e\x00\x00\x00Access Control'
tRp4227
I00
S'http://www.web2py.com/book/default/chapter/09'
p4228
tp4229
a(g3776
(S't\x08\x00\x00\x00Services'
tRp4230
I00
S'http://www.web2py.com/book/default/chapter/10'
p4231
tp4232
a(g3776
(S's\x0c\x00\x00\x00Ajax Recipes'
tRp4233
I00
S'http://www.web2py.com/book/default/chapter/11'
p4234
tp4235
a(g3776
(S's\x16\x00\x00\x00Components and Plugins'
tRp4236
I00
S'http://www.web2py.com/book/default/chapter/12'
p4237
tp4238
a(g3776
(S's\x12\x00\x00\x00Deployment Recipes'
tRp4239
I00
S'http://www.web2py.com/book/default/chapter/13'
p4240
tp4241
a(g3776
(S's\r\x00\x00\x00Other Recipes'
tRp4242
I00
S'http://www.web2py.com/book/default/chapter/14'
p4243
tp4244
a(g3776
(S's\r\x00\x00\x00Buy this book'
tRp4245
I00
S'http://stores.lulu.com/web2py'
p4246
tp4247
aasbasbasbasbasbasbasbag49
(g65
g51
NtRp4248
(dp4249
g54
(dp4250
sg63
g3890
sg56
(lp4251
g49
(g70
g51
NtRp4252
(dp4253
g54
(dp4254
sg63
g4248
sg56
(lp4255
g49
(g50
g51
NtRp4256
(dp4257
g54
(dp4258
g62
I2
ssg63
g4252
sg56
(lp4259
g49
(g58
g51
NtRp4260
(dp4261
g54
(dp4262
g62
I1
ssg63
Nsg56
(lp4263
g49
(g65
g51
NtRp4264
(dp4265
g54
(dp4266
sg63
g4260
sg56
(lp4267
g49
(g70
g51
NtRp4268
(dp4269
g54
(dp4270
sg63
g4264
sg56
(lp4271
g49
(g50
g51
NtRp4272
(dp4273
g54
(dp4274
g62
I1
ssg63
g4268
sg56
(lp4275
g3776
(S't\t\x00\x00\x00Community'
tRp4276
asbasbasbag49
(g65
g51
NtRp4277
(dp4278
g54
(dp4279
sg63
g4260
sg56
(lp4280
g49
(g70
g51
NtRp4281
(dp4282
g54
(dp4283
sg63
g4277
sg56
(lp4284
g49
(g50
g51
NtRp4285
(dp4286
g54
(dp4287
g62
I1
ssg63
g4281
sg56
(lp4288
I00
asbasbasbag49
(g65
g51
NtRp4289
(dp4290
g54
(dp4291
sg63
g4260
sg56
(lp4292
g49
(g70
g51
NtRp4293
(dp4294
g54
(dp4295
sg63
g4289
sg56
(lp4296
g49
(g50
g51
NtRp4297
(dp4298
g54
(dp4299
g62
I1
ssg63
g4293
sg56
(lp4300
Nasbasbasbag49
(g65
g51
NtRp4301
(dp4302
g54
(dp4303
sg63
g4260
sg56
(lp4304
g49
(g70
g51
NtRp4305
(dp4306
g54
(dp4307
sg63
g4301
sg56
(lp4308
g49
(g50
g51
NtRp4309
(dp4310
g54
(dp4311
g62
I1
ssg63
g4305
sg56
(lp4312
(lp4313
(g3776
(S't\x06\x00\x00\x00Groups'
tRp4314
I00
S'http://www.web2py.com/examples/default/usergroups'
p4315
tp4316
a(g3776
(S't\x07\x00\x00\x00Twitter'
tRp4317
I00
S'http://twitter.com/web2py'
p4318
tp4319
a(g3776
(S's\t\x00\x00\x00Live Chat'
tRp4320
I00
S'http://webchat.freenode.net/?channels=web2py'
p4321
tp4322
aasbasbasbasbasbasbasbag49
(g65
g51
NtRp4323
(dp4324
g54
(dp4325
sg63
g3890
sg56
(lp4326
g49
(g70
g51
NtRp4327
(dp4328
g54
(dp4329
sg63
g4323
sg56
(lp4330
g49
(g50
g51
NtRp4331
(dp4332
g54
(dp4333
g62
I2
ssg63
g4327
sg56
(lp4334
g49
(g58
g51
NtRp4335
(dp4336
g54
(dp4337
g62
I1
ssg63
Nsg56
(lp4338
g49
(g65
g51
NtRp4339
(dp4340
g54
(dp4341
sg63
g4335
sg56
(lp4342
g49
(g70
g51
NtRp4343
(dp4344
g54
(dp4345
sg63
g4339
sg56
(lp4346
g49
(g50
g51
NtRp4347
(dp4348
g54
(dp4349
g62
I1
ssg63
g4343
sg56
(lp4350
g3776
(S't\x07\x00\x00\x00Plugins'
tRp4351
asbasbasbag49
(g65
g51
NtRp4352
(dp4353
g54
(dp4354
sg63
g4335
sg56
(lp4355
g49
(g70
g51
NtRp4356
(dp4357
g54
(dp4358
sg63
g4352
sg56
(lp4359
g49
(g50
g51
NtRp4360
(dp4361
g54
(dp4362
g62
I1
ssg63
g4356
sg56
(lp4363
I00
asbasbasbag49
(g65
g51
NtRp4364
(dp4365
g54
(dp4366
sg63
g4335
sg56
(lp4367
g49
(g70
g51
NtRp4368
(dp4369
g54
(dp4370
sg63
g4364
sg56
(lp4371
g49
(g50
g51
NtRp4372
(dp4373
g54
(dp4374
g62
I1
ssg63
g4368
sg56
(lp4375
Nasbasbasbag49
(g65
g51
NtRp4376
(dp4377
g54
(dp4378
sg63
g4335
sg56
(lp4379
g49
(g70
g51
NtRp4380
(dp4381
g54
(dp4382
sg63
g4376
sg56
(lp4383
g49
(g50
g51
NtRp4384
(dp4385
g54
(dp4386
g62
I1
ssg63
g4380
sg56
(lp4387
(lp4388
(S'plugin_wiki'
p4389
I00
S'http://web2py.com/examples/default/download'
p4390
tp4391
a(g3776
(S's\r\x00\x00\x00Other Plugins'
tRp4392
I00
g4122
tp4393
a(g3776
(S's\x0e\x00\x00\x00Layout Plugins'
tRp4394
I00
g4125
tp4395
aasbasbasbasbasbasbasbasbasbasbasbasbasbasbasbasbasbasbasbag49
(g65
g51
NtRp4396
(dp4397
g54
(dp4398
sg63
g3252
sg56
(lp4399
g49
(g70
g51
NtRp4400
(dp4401
g54
(dp4402
g74
g75
ssg63
g4396
sg56
(lp4403
S'meta'
p4404
asbag49
(g70
g51
NtRp4405
(dp4406
g54
(dp4407
g81
g82
ssg63
g4396
sg56
(lp4408
S':'
asbag49
(g70
g51
NtRp4409
(dp4410
g54
(dp4411
sg63
g4396
sg56
(lp4412
g49
(g50
g51
NtRp4413
(dp4414
g54
(dp4415
g62
I5
ssg63
g4409
sg56
(lp4416
g49
(g58
g51
NtRp4417
(dp4418
g54
(dp4419
g62
I4
ssg63
Nsg56
(lp4420
g49
(g65
g51
NtRp4421
(dp4422
g54
(dp4423
sg63
g4417
sg56
(lp4424
g49
(g70
g51
NtRp4425
(dp4426
g54
(dp4427
g74
g75
ssg63
g4421
sg56
(lp4428
S'author'
p4429
asbag49
(g70
g51
NtRp4430
(dp4431
g54
(dp4432
g81
g82
ssg63
g4421
sg56
(lp4433
S':'
asbag49
(g70
g51
NtRp4434
(dp4435
g54
(dp4436
sg63
g4421
sg56
(lp4437
g49
(g50
g51
NtRp4438
(dp4439
g54
(dp4440
g62
I4
ssg63
g4434
sg56
(lp4441
S'Your Name <you@example.com>'
p4442
asbasbasbag49
(g65
g51
NtRp4443
(dp4444
g54
(dp4445
sg63
g4417
sg56
(lp4446
g49
(g70
g51
NtRp4447
(dp4448
g54
(dp4449
g74
g75
ssg63
g4443
sg56
(lp4450
S'copyright'
p4451
asbag49
(g70
g51
NtRp4452
(dp4453
g54
(dp4454
g81
g82
ssg63
g4443
sg56
(lp4455
S':'
asbag49
(g70
g51
NtRp4456
(dp4457
g54
(dp4458
sg63
g4443
sg56
(lp4459
g49
(g50
g51
NtRp4460
(dp4461
g54
(dp4462
g62
I4
ssg63
g4456
sg56
(lp4463
S'Copyright 2011'
p4464
asbasbasbag49
(g65
g51
NtRp4465
(dp4466
g54
(dp4467
sg63
g4417
sg56
(lp4468
g49
(g70
g51
NtRp4469
(dp4470
g54
(dp4471
g74
g75
ssg63
g4465
sg56
(lp4472
S'description'
p4473
asbag49
(g70
g51
NtRp4474
(dp4475
g54
(dp4476
g81
g82
ssg63
g4465
sg56
(lp4477
S':'
asbag49
(g70
g51
NtRp4478
(dp4479
g54
(dp4480
sg63
g4465
sg56
(lp4481
g49
(g50
g51
NtRp4482
(dp4483
g54
(dp4484
g62
I4
ssg63
g4478
sg56
(lp4485
S'a cool new app'
p4486
asbasbasbag49
(g65
g51
NtRp4487
(dp4488
g54
(dp4489
sg63
g4417
sg56
(lp4490
g49
(g70
g51
NtRp4491
(dp4492
g54
(dp4493
g74
g75
ssg63
g4487
sg56
(lp4494
S'generator'
p4495
asbag49
(g70
g51
NtRp4496
(dp4497
g54
(dp4498
g81
g82
ssg63
g4487
sg56
(lp4499
S':'
asbag49
(g70
g51
NtRp4500
(dp4501
g54
(dp4502
sg63
g4487
sg56
(lp4503
g49
(g50
g51
NtRp4504
(dp4505
g54
(dp4506
g62
I4
ssg63
g4500
sg56
(lp4507
S'Web2py Web Framework'
p4508
asbasbasbag49
(g65
g51
NtRp4509
(dp4510
g54
(dp4511
sg63
g4417
sg56
(lp4512
g49
(g70
g51
NtRp4513
(dp4514
g54
(dp4515
g74
g75
ssg63
g4509
sg56
(lp4516
S'keywords'
p4517
asbag49
(g70
g51
NtRp4518
(dp4519
g54
(dp4520
g81
g82
ssg63
g4509
sg56
(lp4521
S':'
asbag49
(g70
g51
NtRp4522
(dp4523
g54
(dp4524
sg63
g4509
sg56
(lp4525
g49
(g50
g51
NtRp4526
(dp4527
g54
(dp4528
g62
I4
ssg63
g4522
sg56
(lp4529
S'web2py, python, framework'
p4530
asbasbasbasbasbasbasbag49
(g65
g51
NtRp4531
(dp4532
g54
(dp4533
sg63
g3252
sg56
(lp4534
g49
(g70
g51
NtRp4535
(dp4536
g54
(dp4537
g74
g75
ssg63
g4531
sg56
(lp4538
S'postprocessing'
p4539
asbag49
(g70
g51
NtRp4540
(dp4541
g54
(dp4542
g81
g82
ssg63
g4531
sg56
(lp4543
S':'
asbag49
(g70
g51
NtRp4544
(dp4545
g54
(dp4546
sg63
g4531
sg56
(lp4547
g49
(g50
g51
NtRp4548
(dp4549
g54
(dp4550
g62
I5
ssg63
g4544
sg56
(lp4551
g49
(g58
g51
NtRp4552
(dp4553
g54
(dp4554
g62
I4
ssg63
Nsg56
(lp4555
sbasbasbasbag49
(g65
g51
NtRp4556
(dp4557
g54
(dp4558
sg63
g3252
sg56
(lp4559
g49
(g70
g51
NtRp4560
(dp4561
g54
(dp4562
g74
g75
ssg63
g4556
sg56
(lp4563
S'session_file'
p4564
asbag49
(g70
g51
NtRp4565
(dp4566
g54
(dp4567
g81
g82
ssg63
g4556
sg56
(lp4568
S':'
asbag49
(g70
g51
NtRp4569
(dp4570
g54
(dp4571
sg63
g4556
sg56
(lp4572
g49
(g50
g51
NtRp4573
(dp4574
g54
(dp4575
g62
I5
ssg63
g4569
sg56
(lp4576
S"<open file 'C:\\web2py\\applications\\unioeste_code\\sessions\\127.0.0.1-ac0e57bf-2a61-4ff7-b75a-c2e830b4787a', mode 'rb+' at 0x061B4DE8>"
p4577
asbasbasbag49
(g65
g51
NtRp4578
(dp4579
g54
(dp4580
sg63
g3252
sg56
(lp4581
g49
(g70
g51
NtRp4582
(dp4583
g54
(dp4584
g74
g75
ssg63
g4578
sg56
(lp4585
S'session_filename'
p4586
asbag49
(g70
g51
NtRp4587
(dp4588
g54
(dp4589
g81
g82
ssg63
g4578
sg56
(lp4590
S':'
asbag49
(g70
g51
NtRp4591
(dp4592
g54
(dp4593
sg63
g4578
sg56
(lp4594
g49
(g50
g51
NtRp4595
(dp4596
g54
(dp4597
g62
I5
ssg63
g4591
sg56
(lp4598
S'C:\\web2py\\applications\\unioeste_code\\sessions\\127.0.0.1-ac0e57bf-2a61-4ff7-b75a-c2e830b4787a'
p4599
asbasbasbag49
(g65
g51
NtRp4600
(dp4601
g54
(dp4602
sg63
g3252
sg56
(lp4603
g49
(g70
g51
NtRp4604
(dp4605
g54
(dp4606
g74
g75
ssg63
g4600
sg56
(lp4607
S'session_id'
p4608
asbag49
(g70
g51
NtRp4609
(dp4610
g54
(dp4611
g81
g82
ssg63
g4600
sg56
(lp4612
S':'
asbag49
(g70
g51
NtRp4613
(dp4614
g54
(dp4615
sg63
g4600
sg56
(lp4616
g49
(g50
g51
NtRp4617
(dp4618
g54
(dp4619
g62
I5
ssg63
g4613
sg56
(lp4620
S'127.0.0.1-ac0e57bf-2a61-4ff7-b75a-c2e830b4787a'
p4621
asbasbasbag49
(g65
g51
NtRp4622
(dp4623
g54
(dp4624
sg63
g3252
sg56
(lp4625
g49
(g70
g51
NtRp4626
(dp4627
g54
(dp4628
g74
g75
ssg63
g4622
sg56
(lp4629
S'session_id_name'
p4630
asbag49
(g70
g51
NtRp4631
(dp4632
g54
(dp4633
g81
g82
ssg63
g4622
sg56
(lp4634
S':'
asbag49
(g70
g51
NtRp4635
(dp4636
g54
(dp4637
sg63
g4622
sg56
(lp4638
g49
(g50
g51
NtRp4639
(dp4640
g54
(dp4641
g62
I5
ssg63
g4635
sg56
(lp4642
g3309
asbasbasbag49
(g65
g51
NtRp4643
(dp4644
g54
(dp4645
sg63
g3252
sg56
(lp4646
g49
(g70
g51
NtRp4647
(dp4648
g54
(dp4649
g74
g75
ssg63
g4643
sg56
(lp4650
S'session_locked'
p4651
asbag49
(g70
g51
NtRp4652
(dp4653
g54
(dp4654
g81
g82
ssg63
g4643
sg56
(lp4655
S':'
asbag49
(g70
g51
NtRp4656
(dp4657
g54
(dp4658
sg63
g4643
sg56
(lp4659
g49
(g50
g51
NtRp4660
(dp4661
g54
(dp4662
g62
I5
ssg63
g4656
sg56
(lp4663
g1456
asbasbasbag49
(g65
g51
NtRp4664
(dp4665
g54
(dp4666
sg63
g3252
sg56
(lp4667
g49
(g70
g51
NtRp4668
(dp4669
g54
(dp4670
g74
g75
ssg63
g4664
sg56
(lp4671
S'session_new'
p4672
asbag49
(g70
g51
NtRp4673
(dp4674
g54
(dp4675
g81
g82
ssg63
g4664
sg56
(lp4676
S':'
asbag49
(g70
g51
NtRp4677
(dp4678
g54
(dp4679
sg63
g4664
sg56
(lp4680
g49
(g50
g51
NtRp4681
(dp4682
g54
(dp4683
g62
I5
ssg63
g4677
sg56
(lp4684
g92
asbasbasbag49
(g65
g51
NtRp4685
(dp4686
g54
(dp4687
sg63
g3252
sg56
(lp4688
g49
(g70
g51
NtRp4689
(dp4690
g54
(dp4691
g74
g75
ssg63
g4685
sg56
(lp4692
S'status'
p4693
asbag49
(g70
g51
NtRp4694
(dp4695
g54
(dp4696
g81
g82
ssg63
g4685
sg56
(lp4697
S':'
asbag49
(g70
g51
NtRp4698
(dp4699
g54
(dp4700
sg63
g4685
sg56
(lp4701
g49
(g50
g51
NtRp4702
(dp4703
g54
(dp4704
g62
I5
ssg63
g4698
sg56
(lp4705
S'200'
p4706
asbasbasbag49
(g65
g51
NtRp4707
(dp4708
g54
(dp4709
sg63
g3252
sg56
(lp4710
g49
(g70
g51
NtRp4711
(dp4712
g54
(dp4713
g74
g75
ssg63
g4707
sg56
(lp4714
S'subtitle'
p4715
asbag49
(g70
g51
NtRp4716
(dp4717
g54
(dp4718
g81
g82
ssg63
g4707
sg56
(lp4719
S':'
asbag49
(g70
g51
NtRp4720
(dp4721
g54
(dp4722
sg63
g4707
sg56
(lp4723
g49
(g50
g51
NtRp4724
(dp4725
g54
(dp4726
g62
I5
ssg63
g4720
sg56
(lp4727
g3776
(S's\x0f\x00\x00\x00Personalize-me!'
tRp4728
asbasbasbag49
(g65
g51
NtRp4729
(dp4730
g54
(dp4731
sg63
g3252
sg56
(lp4732
g49
(g70
g51
NtRp4733
(dp4734
g54
(dp4735
g74
g75
ssg63
g4729
sg56
(lp4736
S'title'
p4737
asbag49
(g70
g51
NtRp4738
(dp4739
g54
(dp4740
g81
g82
ssg63
g4729
sg56
(lp4741
S':'
asbag49
(g70
g51
NtRp4742
(dp4743
g54
(dp4744
sg63
g4729
sg56
(lp4745
g49
(g50
g51
NtRp4746
(dp4747
g54
(dp4748
g62
I5
ssg63
g4742
sg56
(lp4749
S'Unioeste Code'
p4750
asbasbasbag49
(g65
g51
NtRp4751
(dp4752
g54
(dp4753
sg63
g3252
sg56
(lp4754
g49
(g70
g51
NtRp4755
(dp4756
g54
(dp4757
g74
g75
ssg63
g4751
sg56
(lp4758
g2142
asbag49
(g70
g51
NtRp4759
(dp4760
g54
(dp4761
g81
g82
ssg63
g4751
sg56
(lp4762
S':'
asbag49
(g70
g51
NtRp4763
(dp4764
g54
(dp4765
sg63
g4751
sg56
(lp4766
g49
(g50
g51
NtRp4767
(dp4768
g54
(dp4769
g62
I5
ssg63
g4763
sg56
(lp4770
g2155
asbasbasbag49
(g65
g51
NtRp4771
(dp4772
g54
(dp4773
sg63
g3252
sg56
(lp4774
g49
(g70
g51
NtRp4775
(dp4776
g54
(dp4777
g74
g75
ssg63
g4771
sg56
(lp4778
S'view'
p4779
asbag49
(g70
g51
NtRp4780
(dp4781
g54
(dp4782
g81
g82
ssg63
g4771
sg56
(lp4783
S':'
asbag49
(g70
g51
NtRp4784
(dp4785
g54
(dp4786
sg63
g4771
sg56
(lp4787
g49
(g50
g51
NtRp4788
(dp4789
g54
(dp4790
g62
I5
ssg63
g4784
sg56
(lp4791
S'default/Problem.html'
p4792
asbasbasbasbasbsS'locals'
p4793
(dp4794
S'problem'
p4795
S'None'
p4796
sssS'traceback'
p4797
S'Traceback (most recent call last):\n  File "gluon/restricted.py", line 205, in restricted\n  File "C:\\web2py\\applications\\unioeste_code\\controllers/default.py", line 93, in <module>\n  File "gluon/globals.py", line 173, in <lambda>\n  File "gluon/tools.py", line 2575, in f\n  File "C:\\web2py\\applications\\unioeste_code\\controllers/default.py", line 19, in Problem\nAttributeError: \'NoneType\' object has no attribute \'id\'\n'
p4798
s.