(dp1
S'output'
p2
S"<type 'exceptions.TypeError'> cannot concatenate 'str' and 'B' objects"
p3
sS'layer'
p4
S'C:\\web2py\\applications\\unioeste_code\\views\\default/index.html'
p5
sS'code'
p6
S'response.write(\'<!DOCTYPE html>\\n<!-- paulirish.com/2008/conditional-stylesheets-vs-css-hacks-answer-neither/ -->\\n<!--[if lt IE 7]><html class="ie ie6 ie-lte9 ie-lte8 ie-lte7 no-js" lang="\', escape=False)\nresponse.write(T.accepted_language or \'en\')\nresponse.write(\'"> <![endif]-->\\n<!--[if IE 7]><html class="ie ie7 ie-lte9 ie-lte8 ie-lte7 no-js" lang="\', escape=False)\nresponse.write(T.accepted_language or \'en\')\nresponse.write(\'"> <![endif]-->\\n<!--[if IE 8]><html class="ie ie8 ie-lte9 ie-lte8 no-js" lang="\', escape=False)\nresponse.write(T.accepted_language or \'en\')\nresponse.write(\'"> <![endif]-->\\n<!--[if IE 9]><html class="ie9 ie-lte9 no-js" lang="\', escape=False)\nresponse.write(T.accepted_language or \'en\')\nresponse.write(\'"> <![endif]-->\\n<!--[if (gt IE 9)|!(IE)]><!--> <html class="no-js" lang="\', escape=False)\nresponse.write(T.accepted_language or \'en\')\nresponse.write(\'"> <!--<![endif]-->\\n<head>\\n  <meta charset="utf-8" />\\n  <!-- www.phpied.com/conditional-comments-block-downloads/ -->\\n  <!-- Always force latest IE rendering engine\\n\\t   (even in intranet) & Chrome Frame\\n\\t   Remove this if you use the .htaccess -->\\n  <!--[if IE]>\\n    <meta http-equiv="X-UA-Compatible" content="IE=edge\', escape=False)\nresponse.write(not request.is_local and \',chrome=1\' or \'\')\nresponse.write(\'">\\n  <![endif]-->\\n  \\n  <title>\', escape=False)\nresponse.write(response.title or request.application)\nresponse.write(\'</title>\\n  \\n  <!-- http://dev.w3.org/html5/markup/meta.name.html -->\\n  <meta name="application-name" content="\', escape=False)\nresponse.write(request.application)\nresponse.write(\'" />\\n  \\n  <!-- Speaking of Google, don\\\'t forget to set your site up:\\n\\t   http://google.com/webmasters -->\\n  <meta name="google-site-verification" content="" />\\n\\n  <!--  Mobile Viewport Fix\\n\\t  j.mp/mobileviewport & davidbcalhoun.com/2010/viewport-metatag\\n\\t  device-width: Occupy full width of the screen in its current orientation\\n\\t  initial-scale = 1.0 retains dimensions instead of zooming out if page height > device height\\n\\t  user-scalable = yes allows the user to zoom in -->\\n  <meta name="viewport" content="width=device-width, initial-scale=1.0, user-scalable=yes">\\n  \\n  <!-- Place favicon.ico and apple-touch-icon.png in the root of your domain and delete these references -->\\n  <link rel="shortcut icon" href="\', escape=False)\nresponse.write(URL(\'static\',\'favicon.ico\'))\nresponse.write(\'" type="image/x-icon">\\n  <link rel="apple-touch-icon" href="\', escape=False)\nresponse.write(URL(\'static\',\'favicon.png\'))\nresponse.write(\'">\\n\\n  <!-- All JavaScript at the bottom, except for Modernizr which enables \\n\\t   HTML5 elements & feature detects -->\\n  <script src="\', escape=False)\nresponse.write(URL(\'static\',\'js/modernizr.custom.js\'))\nresponse.write(\'"></script>  \\n\\n  <!-- include stylesheets -->\\n  \', escape=False)\nresponse.files.append(URL(\'static\',\'css/skeleton.css\'))\nresponse.files.append(URL(\'static\',\'css/web2py.css\'))\nif response.menu:\n    response.files.append(URL(\'static\',\'css/superfish.css\'))\n    response.files.append(URL(\'static\',\'js/superfish.js\'))\n    pass\nresponse.write(\'\\n\\n  \', escape=False)\nresponse.write(\'<script type="text/javascript"><!--\\n    // These variables are used by the web2py_ajax_init function in web2py_ajax.js (which is loaded below).\\n    var w2p_ajax_confirm_message = "\', escape=False)\nresponse.write(T(\'Are you sure you want to delete this object?\'))\nresponse.write(\'";\\n    var w2p_ajax_date_format = "\', escape=False)\nresponse.write(T(\'%Y-%m-%d\'))\nresponse.write(\'";\\n    var w2p_ajax_datetime_format = "\', escape=False)\nresponse.write(T(\'%Y-%m-%d %H:%M:%S\'))\nresponse.write(\'";\\n    //--></script>\\n\', escape=False)\nresponse.files.insert(0,URL(\'static\',\'js/jquery.js\'))\nresponse.files.insert(1,URL(\'static\',\'css/calendar.css\'))\nresponse.files.insert(2,URL(\'static\',\'js/calendar.js\'))\nresponse.files.insert(3,URL(\'static\',\'js/web2py.js\'))\nresponse.include_meta()\nresponse.include_files()\nresponse.write(\'\\n\', escape=False)\nresponse.write(\'\\n\\n  \', escape=False)\nif response.menu:\n    response.write(\'\\n  <script type="text/javascript">\\n    jQuery(function(){ jQuery(\\\'ul.sf-menu\\\').supersubs({minWidth:12,maxWidth:30,extraWidth:3}).superfish(); });\\n  </script>\\n  \', escape=False)\n    pass\nresponse.write(\'\\n\\n  \', escape=False)\n# using sidebars need to know what sidebar you want to use\nleft_sidebar_enabled = globals().get(\'left_sidebar_enabled\',False)\nright_sidebar_enabled = globals().get(\'right_sidebar_enabled\',False)\nmiddle_columns = {0:\'sixteen\',1:\'twelve\',2:\'eight\'}[\n(left_sidebar_enabled and 1 or 0)+(right_sidebar_enabled and 1 or 0)]\nresponse.write(\'\\n\\n  <!-- uncomment here to load jquery-ui\\n  <link rel="stylesheet" href="http://ajax.googleapis.com/ajax/libs/jqueryui/1.8.16/themes/base/jquery-ui.css" type="text/css" media="all" />\\n  <script src="http://ajax.googleapis.com/ajax/libs/jqueryui/1.8.16/jquery-ui.min.js" type="text/javascript"></script>\\n  uncomment to load jquery-ui //-->\\n</head>\\n<body>\\n  <div class="wrapper"><!-- for sticky footer -->\\n  \\n    <div class="topbar">\\n      <div class="container">    \\n        <div class="sixteen columns">\\n          <div id="navbar">\', escape=False)\nresponse.write(\'auth\' in globals() and auth.navbar(separators=(\' \',\' | \',\'\')))\nresponse.write(\'</div>\\n          \', escape=False)\nis_mobile=request.user_agent().is_mobile\nresponse.write(\'\\n\\t  \', escape=False)\nif response.menu:\n    response.write(\'\\n          <div id="menu">\\n             \', escape=False)\n    response.write(MENU(response.menu, _class=\'mobile-menu\' if is_mobile else \'sf-menu\',mobile=is_mobile))\n    response.write(\'\\n          </div>\\n          \', escape=False)\n    pass\nresponse.write(\'\\n        </div>\\n      </div>\\n    </div><!-- topbar -->\\n    \\n    <div class="flash">\', escape=False)\nresponse.write(response.flash or \'\')\nresponse.write(\'</div>\\n    \\n    <div class="header">\\n      <div class="container">         \\n        <div class="sixteen columns">\\n          <img src="\', escape=False)\nresponse.write(URL(\'static\',\'images/logo-code.png\'))\nresponse.write(\'" class="remove-bottom" style="margin-top: .5em;" />\\n          <!-- H5 subtitle-->\\n        </div>\\n        <div class="sixteen columns">\\n          <div style="border: 1px solid #000000; ">\\n            <div style="float:right; padding-top: .25em;" class="a2a_kit a2a_default_style">\\n            <a class="a2a_dd" href="http://www.addtoany.com/share_save">Share</a></div>\\n            <script type="text/javascript" src="http://static.addtoany.com/menu/page.js"></script>\\n          </div>\\n        </div>\\n      </div>\\n    </div>\\n\\n    <div class="main">\\n      <div class="container">                 \\n        \', escape=False)\nif left_sidebar_enabled:\n    response.write(\'\\n        <div class="four columns left-sidebar">\\n          \', escape=False)\n    response.write(\'\\n          <h3>Left Sidebar</h3>\\n          <p></p>\\n          \', escape=False)\n    response.write(\'\\n        </div>\\n        \', escape=False)\n    pass\nresponse.write(\'\\n        \\n        <div class="\', escape=False)\nresponse.write(middle_columns)\nresponse.write(\' columns center">\\n          \', escape=False)\nresponse.write(\'\\n          \', escape=False)\nresponse.write(\'\\n\\n\\n\', escape=False)\nresponse.write(H1(T("Current Problems")))\nresponse.write(\'\\n<ul>\\n\', escape=False)\nfor problem in problems:\n    response.write(\'\\n\', escape=False)\n    user = db(db.auth_user.id==problem.created_by).select().first()\n    response.write(\'\\n\', escape=False)\n    response.write(LI(A(problem.title, _href=URL("Problem", args=problem.id)), " by " + B(user.first_name) + " " + user.last_name + " " + str(SPAN(value=prettydate(problem.created_on), _style="color:green"))))\n    response.write(\'\\n\', escape=False)\n    pass\nresponse.write(\'\\n\\n</ul>\', escape=False)\nresponse.write(\'\\n          \', escape=False)\nresponse.write(\'\\n        </div>\\n        \\n        \', escape=False)\nif right_sidebar_enabled:\n    response.write(\'\\n        <div class="four columns">\\n          \', escape=False)\n    response.write(\'\\n          <h3>Right Sidebar</h3>\\n          <p></p>\\n          \', escape=False)\n    response.write(\'\\n        </div>    \\n        \', escape=False)\n    pass\nresponse.write(\'\\n        \\n      </div><!-- container -->\\n    </div><!-- main -->\\n    \\n    <div class="push"></div>\\n  </div><!-- wrapper -->\\n\\n  <div class="footer">\\n    <div class="container">    \\n      <div class="sixteen columns">\\n        \', escape=False)\nresponse.write(\' <!-- this is default footer -->\\n        <div class="footer-content clearfix">\\n            <div style="float: left;">\\n            <a href="https://developers.google.com//"> \\n            <img style="padding-left: 8em; padding-bottom:1em; " src="https://developers.google.com/appengine/images/appengine-noborder-120x30.gif" alt="Powered by Google App Engine"/>\\n            </a>\\n          </div>\\n          <div class="footer-content clearfix">\\n            <div style="float: left;   ">\\n            <a href="http://www.python.org/"> \\n            <img style="" src="http://www.python.org/community/logos/python-powered-w-70x28.png" alt="Powered by Python"/>\\n            </a>\\n          </div>\\n          <div style="padding-left: 19.5em; padding-top: 0.25em;">\\n            <a href="http://www.web2py.com/">\\n            <img style="" src="\', escape=False)\nresponse.write(URL(\'static\',\'images/poweredby.png\'))\nresponse.write(\'"/>\\n            </a>\\n          </div>\\n        </div>\\n        \', escape=False)\nresponse.write(\'\\t\\n      </div>\\n    </div><!-- container -->\\n  </div><!-- footer -->\\n  \\n  <!--[if lt IE 7 ]>\\n\\t<script src="\', escape=False)\nresponse.write(URL(\'static\',\'js/dd_belatedpng.js\'))\nresponse.write(\'"></script>\\n\\t<script> DD_belatedPNG.fix(\\\'img, .png_bg\\\'); //fix any <img> or .png_bg background-images </script>\\n\\t<![endif]-->\\n  \', escape=False)\nif response.google_analytics_id:\n    response.write(\'<script type="text/javascript"> var _gaq = _gaq || []; _gaq.push([\\\'_setAccount\\\', \\\'\', escape=False)\n    response.write(response.google_analytics_id)\n    response.write("\']); _gaq.push([\'_trackPageview\']); (function() { var ga = document.createElement(\'script\'); ga.type = \'text/javascript\'; ga.async = true; ga.src = (\'https:\' == document.location.protocol ? \'https://ssl\' : \'http://www\') + \'.google-analytics.com/ga.js\'; var s = document.getElementsByTagName(\'script\')[0]; s.parentNode.insertBefore(ga, s); })(); </script> ", escape=False)\n    pass\nresponse.write(\'\\n</body>\\n</html>\\n\', escape=False)'
p7
sS'snapshot'
p8
(dp9
S'exception'
p10
(dp11
S'__hash__'
p12
S"<method-wrapper '__hash__' of exceptions.TypeError object at 0x06F434B8>"
p13
sS'__setattr__'
p14
S"<method-wrapper '__setattr__' of exceptions.TypeError object at 0x06F434B8>"
p15
sS'__reduce_ex__'
p16
S'<built-in method __reduce_ex__ of exceptions.TypeError object at 0x06F434B8>'
p17
sS'__getslice__'
p18
S"<method-wrapper '__getslice__' of exceptions.TypeError object at 0x06F434B8>"
p19
sS'__getitem__'
p20
S"<method-wrapper '__getitem__' of exceptions.TypeError object at 0x06F434B8>"
p21
sS'__setstate__'
p22
S'<built-in method __setstate__ of exceptions.TypeError object at 0x06F434B8>'
p23
sS'__reduce__'
p24
S'<built-in method __reduce__ of exceptions.TypeError object at 0x06F434B8>'
p25
sS'__str__'
p26
S"<method-wrapper '__str__' of exceptions.TypeError object at 0x06F434B8>"
p27
sS'args'
p28
S'("cannot concatenate \'str\' and \'B\' objects",)'
p29
sS'__getattribute__'
p30
S"<method-wrapper '__getattribute__' of exceptions.TypeError object at 0x06F434B8>"
p31
sS'__class__'
p32
S"<type 'exceptions.TypeError'>"
p33
sS'__delattr__'
p34
S"<method-wrapper '__delattr__' of exceptions.TypeError object at 0x06F434B8>"
p35
sS'__repr__'
p36
S"<method-wrapper '__repr__' of exceptions.TypeError object at 0x06F434B8>"
p37
sS'__dict__'
p38
S'{}'
p39
sS'__doc__'
p40
S"'Inappropriate argument type.'"
p41
sS'__init__'
p42
S"<method-wrapper '__init__' of exceptions.TypeError object at 0x06F434B8>"
p43
sS'__new__'
p44
S'<built-in method __new__ of type object at 0x1E1CCD78>'
p45
ssS'evalue'
p46
S"cannot concatenate 'str' and 'B' objects"
p47
sS'request'
p48
ccopy_reg
_reconstructor
p49
(cgluon.html
BEAUTIFY
p50
c__builtin__
object
p51
NtRp52
(dp53
S'attributes'
p54
(dp55
sS'components'
p56
(lp57
g49
(cgluon.html
TABLE
p58
g51
NtRp59
(dp60
g54
(dp61
S'level'
p62
I5
ssS'parent'
p63
Nsg56
(lp64
g49
(cgluon.html
TR
p65
g51
NtRp66
(dp67
g54
(dp68
sg63
g59
sg56
(lp69
g49
(cgluon.html
TD
p70
g51
NtRp71
(dp72
g54
(dp73
S'_style'
p74
S'font-weight:bold;vertical-align:top'
p75
ssg63
g66
sg56
(lp76
S'ajax'
p77
asbag49
(g70
g51
NtRp78
(dp79
g54
(dp80
S'_valign'
p81
S'top'
p82
ssg63
g66
sg56
(lp83
S':'
asbag49
(g70
g51
NtRp84
(dp85
g54
(dp86
sg63
g66
sg56
(lp87
g49
(g50
g51
NtRp88
(dp89
g54
(dp90
g62
I5
ssg63
g84
sg56
(lp91
S'False'
p92
asbasbasbag49
(g65
g51
NtRp93
(dp94
g54
(dp95
sg63
g59
sg56
(lp96
g49
(g70
g51
NtRp97
(dp98
g54
(dp99
g74
g75
ssg63
g93
sg56
(lp100
S'application'
p101
asbag49
(g70
g51
NtRp102
(dp103
g54
(dp104
g81
g82
ssg63
g93
sg56
(lp105
S':'
asbag49
(g70
g51
NtRp106
(dp107
g54
(dp108
sg63
g93
sg56
(lp109
g49
(g50
g51
NtRp110
(dp111
g54
(dp112
g62
I5
ssg63
g106
sg56
(lp113
S'unioeste_code'
p114
asbasbasbag49
(g65
g51
NtRp115
(dp116
g54
(dp117
sg63
g59
sg56
(lp118
g49
(g70
g51
NtRp119
(dp120
g54
(dp121
g74
g75
ssg63
g115
sg56
(lp122
g28
asbag49
(g70
g51
NtRp123
(dp124
g54
(dp125
g81
g82
ssg63
g115
sg56
(lp126
S':'
asbag49
(g70
g51
NtRp127
(dp128
g54
(dp129
sg63
g115
sg56
(lp130
g49
(g50
g51
NtRp131
(dp132
g54
(dp133
g62
I5
ssg63
g127
sg56
(lp134
g49
(g58
g51
NtRp135
(dp136
g54
(dp137
g62
I4
ssg63
Nsg56
(lp138
sbasbasbasbag49
(g65
g51
NtRp139
(dp140
g54
(dp141
sg63
g59
sg56
(lp142
g49
(g70
g51
NtRp143
(dp144
g54
(dp145
g74
g75
ssg63
g139
sg56
(lp146
S'body'
p147
asbag49
(g70
g51
NtRp148
(dp149
g54
(dp150
g81
g82
ssg63
g139
sg56
(lp151
S':'
asbag49
(g70
g51
NtRp152
(dp153
g54
(dp154
sg63
g139
sg56
(lp155
g49
(g50
g51
NtRp156
(dp157
g54
(dp158
g62
I5
ssg63
g152
sg56
(lp159
S'<cStringIO.StringO object at 0x06A973C0>'
p160
asbasbasbag49
(g65
g51
NtRp161
(dp162
g54
(dp163
sg63
g59
sg56
(lp164
g49
(g70
g51
NtRp165
(dp166
g54
(dp167
g74
g75
ssg63
g161
sg56
(lp168
S'client'
p169
asbag49
(g70
g51
NtRp170
(dp171
g54
(dp172
g81
g82
ssg63
g161
sg56
(lp173
S':'
asbag49
(g70
g51
NtRp174
(dp175
g54
(dp176
sg63
g161
sg56
(lp177
g49
(g50
g51
NtRp178
(dp179
g54
(dp180
g62
I5
ssg63
g174
sg56
(lp181
S'127.0.0.1'
p182
asbasbasbag49
(g65
g51
NtRp183
(dp184
g54
(dp185
sg63
g59
sg56
(lp186
g49
(g70
g51
NtRp187
(dp188
g54
(dp189
g74
g75
ssg63
g183
sg56
(lp190
S'controller'
p191
asbag49
(g70
g51
NtRp192
(dp193
g54
(dp194
g81
g82
ssg63
g183
sg56
(lp195
S':'
asbag49
(g70
g51
NtRp196
(dp197
g54
(dp198
sg63
g183
sg56
(lp199
g49
(g50
g51
NtRp200
(dp201
g54
(dp202
g62
I5
ssg63
g196
sg56
(lp203
S'default'
p204
asbasbasbag49
(g65
g51
NtRp205
(dp206
g54
(dp207
sg63
g59
sg56
(lp208
g49
(g70
g51
NtRp209
(dp210
g54
(dp211
g74
g75
ssg63
g205
sg56
(lp212
S'cookies'
p213
asbag49
(g70
g51
NtRp214
(dp215
g54
(dp216
g81
g82
ssg63
g205
sg56
(lp217
S':'
asbag49
(g70
g51
NtRp218
(dp219
g54
(dp220
sg63
g205
sg56
(lp221
g49
(g50
g51
NtRp222
(dp223
g54
(dp224
g62
I5
ssg63
g218
sg56
(lp225
g49
(g58
g51
NtRp226
(dp227
g54
(dp228
g62
I4
ssg63
Nsg56
(lp229
g49
(g65
g51
NtRp230
(dp231
g54
(dp232
sg63
g226
sg56
(lp233
g49
(g70
g51
NtRp234
(dp235
g54
(dp236
g74
g75
ssg63
g230
sg56
(lp237
S'session_id_admin'
p238
asbag49
(g70
g51
NtRp239
(dp240
g54
(dp241
g81
g82
ssg63
g230
sg56
(lp242
S':'
asbag49
(g70
g51
NtRp243
(dp244
g54
(dp245
sg63
g230
sg56
(lp246
g49
(g50
g51
NtRp247
(dp248
g54
(dp249
g62
I4
ssg63
g243
sg56
(lp250
g49
(g58
g51
NtRp251
(dp252
g54
(dp253
g62
I3
ssg63
Nsg56
(lp254
g49
(g65
g51
NtRp255
(dp256
g54
(dp257
sg63
g251
sg56
(lp258
g49
(g70
g51
NtRp259
(dp260
g54
(dp261
g74
g75
ssg63
g255
sg56
(lp262
S'comment'
p263
asbag49
(g70
g51
NtRp264
(dp265
g54
(dp266
g81
g82
ssg63
g255
sg56
(lp267
S':'
asbag49
(g70
g51
NtRp268
(dp269
g54
(dp270
sg63
g255
sg56
(lp271
g49
(g50
g51
NtRp272
(dp273
g54
(dp274
g62
I3
ssg63
g268
sg56
(lp275
S''
asbasbasbag49
(g65
g51
NtRp276
(dp277
g54
(dp278
sg63
g251
sg56
(lp279
g49
(g70
g51
NtRp280
(dp281
g54
(dp282
g74
g75
ssg63
g276
sg56
(lp283
S'domain'
p284
asbag49
(g70
g51
NtRp285
(dp286
g54
(dp287
g81
g82
ssg63
g276
sg56
(lp288
S':'
asbag49
(g70
g51
NtRp289
(dp290
g54
(dp291
sg63
g276
sg56
(lp292
g49
(g50
g51
NtRp293
(dp294
g54
(dp295
g62
I3
ssg63
g289
sg56
(lp296
S''
asbasbasbag49
(g65
g51
NtRp297
(dp298
g54
(dp299
sg63
g251
sg56
(lp300
g49
(g70
g51
NtRp301
(dp302
g54
(dp303
g74
g75
ssg63
g297
sg56
(lp304
S'expires'
p305
asbag49
(g70
g51
NtRp306
(dp307
g54
(dp308
g81
g82
ssg63
g297
sg56
(lp309
S':'
asbag49
(g70
g51
NtRp310
(dp311
g54
(dp312
sg63
g297
sg56
(lp313
g49
(g50
g51
NtRp314
(dp315
g54
(dp316
g62
I3
ssg63
g310
sg56
(lp317
S''
asbasbasbag49
(g65
g51
NtRp318
(dp319
g54
(dp320
sg63
g251
sg56
(lp321
g49
(g70
g51
NtRp322
(dp323
g54
(dp324
g74
g75
ssg63
g318
sg56
(lp325
S'max-age'
p326
asbag49
(g70
g51
NtRp327
(dp328
g54
(dp329
g81
g82
ssg63
g318
sg56
(lp330
S':'
asbag49
(g70
g51
NtRp331
(dp332
g54
(dp333
sg63
g318
sg56
(lp334
g49
(g50
g51
NtRp335
(dp336
g54
(dp337
g62
I3
ssg63
g331
sg56
(lp338
S''
asbasbasbag49
(g65
g51
NtRp339
(dp340
g54
(dp341
sg63
g251
sg56
(lp342
g49
(g70
g51
NtRp343
(dp344
g54
(dp345
g74
g75
ssg63
g339
sg56
(lp346
S'path'
p347
asbag49
(g70
g51
NtRp348
(dp349
g54
(dp350
g81
g82
ssg63
g339
sg56
(lp351
S':'
asbag49
(g70
g51
NtRp352
(dp353
g54
(dp354
sg63
g339
sg56
(lp355
g49
(g50
g51
NtRp356
(dp357
g54
(dp358
g62
I3
ssg63
g352
sg56
(lp359
S''
asbasbasbag49
(g65
g51
NtRp360
(dp361
g54
(dp362
sg63
g251
sg56
(lp363
g49
(g70
g51
NtRp364
(dp365
g54
(dp366
g74
g75
ssg63
g360
sg56
(lp367
S'secure'
p368
asbag49
(g70
g51
NtRp369
(dp370
g54
(dp371
g81
g82
ssg63
g360
sg56
(lp372
S':'
asbag49
(g70
g51
NtRp373
(dp374
g54
(dp375
sg63
g360
sg56
(lp376
g49
(g50
g51
NtRp377
(dp378
g54
(dp379
g62
I3
ssg63
g373
sg56
(lp380
S''
asbasbasbag49
(g65
g51
NtRp381
(dp382
g54
(dp383
sg63
g251
sg56
(lp384
g49
(g70
g51
NtRp385
(dp386
g54
(dp387
g74
g75
ssg63
g381
sg56
(lp388
S'version'
p389
asbag49
(g70
g51
NtRp390
(dp391
g54
(dp392
g81
g82
ssg63
g381
sg56
(lp393
S':'
asbag49
(g70
g51
NtRp394
(dp395
g54
(dp396
sg63
g381
sg56
(lp397
g49
(g50
g51
NtRp398
(dp399
g54
(dp400
g62
I3
ssg63
g394
sg56
(lp401
S''
asbasbasbasbasbasbasbag49
(g65
g51
NtRp402
(dp403
g54
(dp404
sg63
g226
sg56
(lp405
g49
(g70
g51
NtRp406
(dp407
g54
(dp408
g74
g75
ssg63
g402
sg56
(lp409
S'session_id_unioeste_code'
p410
asbag49
(g70
g51
NtRp411
(dp412
g54
(dp413
g81
g82
ssg63
g402
sg56
(lp414
S':'
asbag49
(g70
g51
NtRp415
(dp416
g54
(dp417
sg63
g402
sg56
(lp418
g49
(g50
g51
NtRp419
(dp420
g54
(dp421
g62
I4
ssg63
g415
sg56
(lp422
g49
(g58
g51
NtRp423
(dp424
g54
(dp425
g62
I3
ssg63
Nsg56
(lp426
g49
(g65
g51
NtRp427
(dp428
g54
(dp429
sg63
g423
sg56
(lp430
g49
(g70
g51
NtRp431
(dp432
g54
(dp433
g74
g75
ssg63
g427
sg56
(lp434
g263
asbag49
(g70
g51
NtRp435
(dp436
g54
(dp437
g81
g82
ssg63
g427
sg56
(lp438
S':'
asbag49
(g70
g51
NtRp439
(dp440
g54
(dp441
sg63
g427
sg56
(lp442
g49
(g50
g51
NtRp443
(dp444
g54
(dp445
g62
I3
ssg63
g439
sg56
(lp446
S''
asbasbasbag49
(g65
g51
NtRp447
(dp448
g54
(dp449
sg63
g423
sg56
(lp450
g49
(g70
g51
NtRp451
(dp452
g54
(dp453
g74
g75
ssg63
g447
sg56
(lp454
g284
asbag49
(g70
g51
NtRp455
(dp456
g54
(dp457
g81
g82
ssg63
g447
sg56
(lp458
S':'
asbag49
(g70
g51
NtRp459
(dp460
g54
(dp461
sg63
g447
sg56
(lp462
g49
(g50
g51
NtRp463
(dp464
g54
(dp465
g62
I3
ssg63
g459
sg56
(lp466
S''
asbasbasbag49
(g65
g51
NtRp467
(dp468
g54
(dp469
sg63
g423
sg56
(lp470
g49
(g70
g51
NtRp471
(dp472
g54
(dp473
g74
g75
ssg63
g467
sg56
(lp474
g305
asbag49
(g70
g51
NtRp475
(dp476
g54
(dp477
g81
g82
ssg63
g467
sg56
(lp478
S':'
asbag49
(g70
g51
NtRp479
(dp480
g54
(dp481
sg63
g467
sg56
(lp482
g49
(g50
g51
NtRp483
(dp484
g54
(dp485
g62
I3
ssg63
g479
sg56
(lp486
S''
asbasbasbag49
(g65
g51
NtRp487
(dp488
g54
(dp489
sg63
g423
sg56
(lp490
g49
(g70
g51
NtRp491
(dp492
g54
(dp493
g74
g75
ssg63
g487
sg56
(lp494
g326
asbag49
(g70
g51
NtRp495
(dp496
g54
(dp497
g81
g82
ssg63
g487
sg56
(lp498
S':'
asbag49
(g70
g51
NtRp499
(dp500
g54
(dp501
sg63
g487
sg56
(lp502
g49
(g50
g51
NtRp503
(dp504
g54
(dp505
g62
I3
ssg63
g499
sg56
(lp506
S''
asbasbasbag49
(g65
g51
NtRp507
(dp508
g54
(dp509
sg63
g423
sg56
(lp510
g49
(g70
g51
NtRp511
(dp512
g54
(dp513
g74
g75
ssg63
g507
sg56
(lp514
g347
asbag49
(g70
g51
NtRp515
(dp516
g54
(dp517
g81
g82
ssg63
g507
sg56
(lp518
S':'
asbag49
(g70
g51
NtRp519
(dp520
g54
(dp521
sg63
g507
sg56
(lp522
g49
(g50
g51
NtRp523
(dp524
g54
(dp525
g62
I3
ssg63
g519
sg56
(lp526
S''
asbasbasbag49
(g65
g51
NtRp527
(dp528
g54
(dp529
sg63
g423
sg56
(lp530
g49
(g70
g51
NtRp531
(dp532
g54
(dp533
g74
g75
ssg63
g527
sg56
(lp534
g368
asbag49
(g70
g51
NtRp535
(dp536
g54
(dp537
g81
g82
ssg63
g527
sg56
(lp538
S':'
asbag49
(g70
g51
NtRp539
(dp540
g54
(dp541
sg63
g527
sg56
(lp542
g49
(g50
g51
NtRp543
(dp544
g54
(dp545
g62
I3
ssg63
g539
sg56
(lp546
S''
asbasbasbag49
(g65
g51
NtRp547
(dp548
g54
(dp549
sg63
g423
sg56
(lp550
g49
(g70
g51
NtRp551
(dp552
g54
(dp553
g74
g75
ssg63
g547
sg56
(lp554
g389
asbag49
(g70
g51
NtRp555
(dp556
g54
(dp557
g81
g82
ssg63
g547
sg56
(lp558
S':'
asbag49
(g70
g51
NtRp559
(dp560
g54
(dp561
sg63
g547
sg56
(lp562
g49
(g50
g51
NtRp563
(dp564
g54
(dp565
g62
I3
ssg63
g559
sg56
(lp566
S''
asbasbasbasbasbasbasbasbasbasbasbag49
(g65
g51
NtRp567
(dp568
g54
(dp569
sg63
g59
sg56
(lp570
g49
(g70
g51
NtRp571
(dp572
g54
(dp573
g74
g75
ssg63
g567
sg56
(lp574
S'env'
p575
asbag49
(g70
g51
NtRp576
(dp577
g54
(dp578
g81
g82
ssg63
g567
sg56
(lp579
S':'
asbag49
(g70
g51
NtRp580
(dp581
g54
(dp582
sg63
g567
sg56
(lp583
g49
(g50
g51
NtRp584
(dp585
g54
(dp586
g62
I5
ssg63
g580
sg56
(lp587
g49
(g58
g51
NtRp588
(dp589
g54
(dp590
g62
I4
ssg63
Nsg56
(lp591
g49
(g65
g51
NtRp592
(dp593
g54
(dp594
sg63
g588
sg56
(lp595
g49
(g70
g51
NtRp596
(dp597
g54
(dp598
g74
g75
ssg63
g592
sg56
(lp599
S'app_folders'
p600
asbag49
(g70
g51
NtRp601
(dp602
g54
(dp603
g81
g82
ssg63
g592
sg56
(lp604
S':'
asbag49
(g70
g51
NtRp605
(dp606
g54
(dp607
sg63
g592
sg56
(lp608
g49
(g50
g51
NtRp609
(dp610
g54
(dp611
g62
I4
ssg63
g605
sg56
(lp612
S"set(['C:\\\\web2py\\\\applications\\\\admin\\\\', 'C:\\\\web2py\\\\applications\\\\welcome\\\\', 'C:\\\\web2py\\\\applications\\\\unioeste_code\\\\'])"
p613
asbasbasbag49
(g65
g51
NtRp614
(dp615
g54
(dp616
sg63
g588
sg56
(lp617
g49
(g70
g51
NtRp618
(dp619
g54
(dp620
g74
g75
ssg63
g614
sg56
(lp621
S'applications_parent'
p622
asbag49
(g70
g51
NtRp623
(dp624
g54
(dp625
g81
g82
ssg63
g614
sg56
(lp626
S':'
asbag49
(g70
g51
NtRp627
(dp628
g54
(dp629
sg63
g614
sg56
(lp630
g49
(g50
g51
NtRp631
(dp632
g54
(dp633
g62
I4
ssg63
g627
sg56
(lp634
S'C:\\web2py'
p635
asbasbasbag49
(g65
g51
NtRp636
(dp637
g54
(dp638
sg63
g588
sg56
(lp639
g49
(g70
g51
NtRp640
(dp641
g54
(dp642
g74
g75
ssg63
g636
sg56
(lp643
S'cmd_args'
p644
asbag49
(g70
g51
NtRp645
(dp646
g54
(dp647
g81
g82
ssg63
g636
sg56
(lp648
S':'
asbag49
(g70
g51
NtRp649
(dp650
g54
(dp651
sg63
g636
sg56
(lp652
g49
(g50
g51
NtRp653
(dp654
g54
(dp655
g62
I4
ssg63
g649
sg56
(lp656
g49
(g58
g51
NtRp657
(dp658
g54
(dp659
g62
I3
ssg63
Nsg56
(lp660
sbasbasbasbag49
(g65
g51
NtRp661
(dp662
g54
(dp663
sg63
g588
sg56
(lp664
g49
(g70
g51
NtRp665
(dp666
g54
(dp667
g74
g75
ssg63
g661
sg56
(lp668
S'cmd_options'
p669
asbag49
(g70
g51
NtRp670
(dp671
g54
(dp672
g81
g82
ssg63
g661
sg56
(lp673
S':'
asbag49
(g70
g51
NtRp674
(dp675
g54
(dp676
sg63
g661
sg56
(lp677
g49
(g50
g51
NtRp678
(dp679
g54
(dp680
g62
I4
ssg63
g674
sg56
(lp681
S"<Values at 0x30fc300: {'verbose': False, 'ip': '127.0.0.1', 'shutdown_timeout': 5, 'taskbar': False, 'nocron': False, 'pid_filename': 'httpserver.pid', 'maxthreads': None, 'softcron': False, 'server_name': 'Pedro-PC', 'bpython': False, 'nogui': False, 'port': 8000, 'extcron': False, 'debuglevel': 30, 'test': None, 'folder': 'C:\\\\web2py', 'config': '', 'import_models': False, 'winservice': '', 'shell': None, 'run': '', 'log_filename': 'httpserver.log', 'args': [''], 'socket_timeout': 5, 'ssl_ca_certificate': None, 'scheduler': None, 'profiler_filename': None, 'ssl_private_key': '', 'password': '<ask>', 'request_queue_size': 5, 'ssl_certificate': '', 'cronjob': False, 'numthreads': None, 'quiet': False, 'interfaces': None, 'minthreads': None, 'timeout': 10, 'plain': False, 'nobanner': False}>"
p682
asbasbasbag49
(g65
g51
NtRp683
(dp684
g54
(dp685
sg63
g588
sg56
(lp686
g49
(g70
g51
NtRp687
(dp688
g54
(dp689
g74
g75
ssg63
g683
sg56
(lp690
S'db_sessions'
p691
asbag49
(g70
g51
NtRp692
(dp693
g54
(dp694
g81
g82
ssg63
g683
sg56
(lp695
S':'
asbag49
(g70
g51
NtRp696
(dp697
g54
(dp698
sg63
g683
sg56
(lp699
g49
(g50
g51
NtRp700
(dp701
g54
(dp702
g62
I4
ssg63
g696
sg56
(lp703
S'set([])'
p704
asbasbasbag49
(g65
g51
NtRp705
(dp706
g54
(dp707
sg63
g588
sg56
(lp708
g49
(g70
g51
NtRp709
(dp710
g54
(dp711
g74
g75
ssg63
g705
sg56
(lp712
S'debugging'
p713
asbag49
(g70
g51
NtRp714
(dp715
g54
(dp716
g81
g82
ssg63
g705
sg56
(lp717
S':'
asbag49
(g70
g51
NtRp718
(dp719
g54
(dp720
sg63
g705
sg56
(lp721
g49
(g50
g51
NtRp722
(dp723
g54
(dp724
g62
I4
ssg63
g718
sg56
(lp725
g92
asbasbasbag49
(g65
g51
NtRp726
(dp727
g54
(dp728
sg63
g588
sg56
(lp729
g49
(g70
g51
NtRp730
(dp731
g54
(dp732
g74
g75
ssg63
g726
sg56
(lp733
S'gluon_parent'
p734
asbag49
(g70
g51
NtRp735
(dp736
g54
(dp737
g81
g82
ssg63
g726
sg56
(lp738
S':'
asbag49
(g70
g51
NtRp739
(dp740
g54
(dp741
sg63
g726
sg56
(lp742
g49
(g50
g51
NtRp743
(dp744
g54
(dp745
g62
I4
ssg63
g739
sg56
(lp746
S'C:\\web2py'
p747
asbasbasbag49
(g65
g51
NtRp748
(dp749
g54
(dp750
sg63
g588
sg56
(lp751
g49
(g70
g51
NtRp752
(dp753
g54
(dp754
g74
g75
ssg63
g748
sg56
(lp755
S'http_accept'
p756
asbag49
(g70
g51
NtRp757
(dp758
g54
(dp759
g81
g82
ssg63
g748
sg56
(lp760
S':'
asbag49
(g70
g51
NtRp761
(dp762
g54
(dp763
sg63
g748
sg56
(lp764
g49
(g50
g51
NtRp765
(dp766
g54
(dp767
g62
I4
ssg63
g761
sg56
(lp768
S'text/html,application/xhtml+xml,application/xml;q=0.9,*/*;q=0.8'
p769
asbasbasbag49
(g65
g51
NtRp770
(dp771
g54
(dp772
sg63
g588
sg56
(lp773
g49
(g70
g51
NtRp774
(dp775
g54
(dp776
g74
g75
ssg63
g770
sg56
(lp777
S'http_accept_charset'
p778
asbag49
(g70
g51
NtRp779
(dp780
g54
(dp781
g81
g82
ssg63
g770
sg56
(lp782
S':'
asbag49
(g70
g51
NtRp783
(dp784
g54
(dp785
sg63
g770
sg56
(lp786
g49
(g50
g51
NtRp787
(dp788
g54
(dp789
g62
I4
ssg63
g783
sg56
(lp790
S'ISO-8859-1,utf-8;q=0.7,*;q=0.3'
p791
asbasbasbag49
(g65
g51
NtRp792
(dp793
g54
(dp794
sg63
g588
sg56
(lp795
g49
(g70
g51
NtRp796
(dp797
g54
(dp798
g74
g75
ssg63
g792
sg56
(lp799
S'http_accept_encoding'
p800
asbag49
(g70
g51
NtRp801
(dp802
g54
(dp803
g81
g82
ssg63
g792
sg56
(lp804
S':'
asbag49
(g70
g51
NtRp805
(dp806
g54
(dp807
sg63
g792
sg56
(lp808
g49
(g50
g51
NtRp809
(dp810
g54
(dp811
g62
I4
ssg63
g805
sg56
(lp812
S'gzip,deflate,sdch'
p813
asbasbasbag49
(g65
g51
NtRp814
(dp815
g54
(dp816
sg63
g588
sg56
(lp817
g49
(g70
g51
NtRp818
(dp819
g54
(dp820
g74
g75
ssg63
g814
sg56
(lp821
S'http_accept_language'
p822
asbag49
(g70
g51
NtRp823
(dp824
g54
(dp825
g81
g82
ssg63
g814
sg56
(lp826
S':'
asbag49
(g70
g51
NtRp827
(dp828
g54
(dp829
sg63
g814
sg56
(lp830
g49
(g50
g51
NtRp831
(dp832
g54
(dp833
g62
I4
ssg63
g827
sg56
(lp834
S'pt-BR,pt;q=0.8,en-US;q=0.6,en;q=0.4'
p835
asbasbasbag49
(g65
g51
NtRp836
(dp837
g54
(dp838
sg63
g588
sg56
(lp839
g49
(g70
g51
NtRp840
(dp841
g54
(dp842
g74
g75
ssg63
g836
sg56
(lp843
S'http_cache_control'
p844
asbag49
(g70
g51
NtRp845
(dp846
g54
(dp847
g81
g82
ssg63
g836
sg56
(lp848
S':'
asbag49
(g70
g51
NtRp849
(dp850
g54
(dp851
sg63
g836
sg56
(lp852
g49
(g50
g51
NtRp853
(dp854
g54
(dp855
g62
I4
ssg63
g849
sg56
(lp856
S'max-age=0'
p857
asbasbasbag49
(g65
g51
NtRp858
(dp859
g54
(dp860
sg63
g588
sg56
(lp861
g49
(g70
g51
NtRp862
(dp863
g54
(dp864
g74
g75
ssg63
g858
sg56
(lp865
S'http_connection'
p866
asbag49
(g70
g51
NtRp867
(dp868
g54
(dp869
g81
g82
ssg63
g858
sg56
(lp870
S':'
asbag49
(g70
g51
NtRp871
(dp872
g54
(dp873
sg63
g858
sg56
(lp874
g49
(g50
g51
NtRp875
(dp876
g54
(dp877
g62
I4
ssg63
g871
sg56
(lp878
S'keep-alive'
p879
asbasbasbag49
(g65
g51
NtRp880
(dp881
g54
(dp882
sg63
g588
sg56
(lp883
g49
(g70
g51
NtRp884
(dp885
g54
(dp886
g74
g75
ssg63
g880
sg56
(lp887
S'http_cookie'
p888
asbag49
(g70
g51
NtRp889
(dp890
g54
(dp891
g81
g82
ssg63
g880
sg56
(lp892
S':'
asbag49
(g70
g51
NtRp893
(dp894
g54
(dp895
sg63
g880
sg56
(lp896
g49
(g50
g51
NtRp897
(dp898
g54
(dp899
g62
I4
ssg63
g893
sg56
(lp900
S'session_id_admin=127.0.0.1-cc566d59-dba8-48ee-8cf4-2064528a917b; session_id_unioeste_code=127.0.0.1-e2123eb0-50ff-4f28-8e81-a6ab4f6057bb'
p901
asbasbasbag49
(g65
g51
NtRp902
(dp903
g54
(dp904
sg63
g588
sg56
(lp905
g49
(g70
g51
NtRp906
(dp907
g54
(dp908
g74
g75
ssg63
g902
sg56
(lp909
S'http_dnt'
p910
asbag49
(g70
g51
NtRp911
(dp912
g54
(dp913
g81
g82
ssg63
g902
sg56
(lp914
S':'
asbag49
(g70
g51
NtRp915
(dp916
g54
(dp917
sg63
g902
sg56
(lp918
g49
(g50
g51
NtRp919
(dp920
g54
(dp921
g62
I4
ssg63
g915
sg56
(lp922
S'1'
asbasbasbag49
(g65
g51
NtRp923
(dp924
g54
(dp925
sg63
g588
sg56
(lp926
g49
(g70
g51
NtRp927
(dp928
g54
(dp929
g74
g75
ssg63
g923
sg56
(lp930
S'http_host'
p931
asbag49
(g70
g51
NtRp932
(dp933
g54
(dp934
g81
g82
ssg63
g923
sg56
(lp935
S':'
asbag49
(g70
g51
NtRp936
(dp937
g54
(dp938
sg63
g923
sg56
(lp939
g49
(g50
g51
NtRp940
(dp941
g54
(dp942
g62
I4
ssg63
g936
sg56
(lp943
S'localhost:8000'
p944
asbasbasbag49
(g65
g51
NtRp945
(dp946
g54
(dp947
sg63
g588
sg56
(lp948
g49
(g70
g51
NtRp949
(dp950
g54
(dp951
g74
g75
ssg63
g945
sg56
(lp952
S'http_user_agent'
p953
asbag49
(g70
g51
NtRp954
(dp955
g54
(dp956
g81
g82
ssg63
g945
sg56
(lp957
S':'
asbag49
(g70
g51
NtRp958
(dp959
g54
(dp960
sg63
g945
sg56
(lp961
g49
(g50
g51
NtRp962
(dp963
g54
(dp964
g62
I4
ssg63
g958
sg56
(lp965
S'Mozilla/5.0 (Windows NT 6.1; WOW64) AppleWebKit/536.11 (KHTML, like Gecko) Chrome/20.0.1132.57 Safari/536.11'
p966
asbasbasbag49
(g65
g51
NtRp967
(dp968
g54
(dp969
sg63
g588
sg56
(lp970
g49
(g70
g51
NtRp971
(dp972
g54
(dp973
g74
g75
ssg63
g967
sg56
(lp974
S'is_jython'
p975
asbag49
(g70
g51
NtRp976
(dp977
g54
(dp978
g81
g82
ssg63
g967
sg56
(lp979
S':'
asbag49
(g70
g51
NtRp980
(dp981
g54
(dp982
sg63
g967
sg56
(lp983
g49
(g50
g51
NtRp984
(dp985
g54
(dp986
g62
I4
ssg63
g980
sg56
(lp987
g92
asbasbasbag49
(g65
g51
NtRp988
(dp989
g54
(dp990
sg63
g588
sg56
(lp991
g49
(g70
g51
NtRp992
(dp993
g54
(dp994
g74
g75
ssg63
g988
sg56
(lp995
S'is_pypy'
p996
asbag49
(g70
g51
NtRp997
(dp998
g54
(dp999
g81
g82
ssg63
g988
sg56
(lp1000
S':'
asbag49
(g70
g51
NtRp1001
(dp1002
g54
(dp1003
sg63
g988
sg56
(lp1004
g49
(g50
g51
NtRp1005
(dp1006
g54
(dp1007
g62
I4
ssg63
g1001
sg56
(lp1008
g92
asbasbasbag49
(g65
g51
NtRp1009
(dp1010
g54
(dp1011
sg63
g588
sg56
(lp1012
g49
(g70
g51
NtRp1013
(dp1014
g54
(dp1015
g74
g75
ssg63
g1009
sg56
(lp1016
S'path_info'
p1017
asbag49
(g70
g51
NtRp1018
(dp1019
g54
(dp1020
g81
g82
ssg63
g1009
sg56
(lp1021
S':'
asbag49
(g70
g51
NtRp1022
(dp1023
g54
(dp1024
sg63
g1009
sg56
(lp1025
g49
(g50
g51
NtRp1026
(dp1027
g54
(dp1028
g62
I4
ssg63
g1022
sg56
(lp1029
S'/unioeste_code/'
p1030
asbasbasbag49
(g65
g51
NtRp1031
(dp1032
g54
(dp1033
sg63
g588
sg56
(lp1034
g49
(g70
g51
NtRp1035
(dp1036
g54
(dp1037
g74
g75
ssg63
g1031
sg56
(lp1038
S'query_string'
p1039
asbag49
(g70
g51
NtRp1040
(dp1041
g54
(dp1042
g81
g82
ssg63
g1031
sg56
(lp1043
S':'
asbag49
(g70
g51
NtRp1044
(dp1045
g54
(dp1046
sg63
g1031
sg56
(lp1047
g49
(g50
g51
NtRp1048
(dp1049
g54
(dp1050
g62
I4
ssg63
g1044
sg56
(lp1051
S''
asbasbasbag49
(g65
g51
NtRp1052
(dp1053
g54
(dp1054
sg63
g588
sg56
(lp1055
g49
(g70
g51
NtRp1056
(dp1057
g54
(dp1058
g74
g75
ssg63
g1052
sg56
(lp1059
S'remote_addr'
p1060
asbag49
(g70
g51
NtRp1061
(dp1062
g54
(dp1063
g81
g82
ssg63
g1052
sg56
(lp1064
S':'
asbag49
(g70
g51
NtRp1065
(dp1066
g54
(dp1067
sg63
g1052
sg56
(lp1068
g49
(g50
g51
NtRp1069
(dp1070
g54
(dp1071
g62
I4
ssg63
g1065
sg56
(lp1072
g182
asbasbasbag49
(g65
g51
NtRp1073
(dp1074
g54
(dp1075
sg63
g588
sg56
(lp1076
g49
(g70
g51
NtRp1077
(dp1078
g54
(dp1079
g74
g75
ssg63
g1073
sg56
(lp1080
S'remote_port'
p1081
asbag49
(g70
g51
NtRp1082
(dp1083
g54
(dp1084
g81
g82
ssg63
g1073
sg56
(lp1085
S':'
asbag49
(g70
g51
NtRp1086
(dp1087
g54
(dp1088
sg63
g1073
sg56
(lp1089
g49
(g50
g51
NtRp1090
(dp1091
g54
(dp1092
g62
I4
ssg63
g1086
sg56
(lp1093
S'1742'
p1094
asbasbasbag49
(g65
g51
NtRp1095
(dp1096
g54
(dp1097
sg63
g588
sg56
(lp1098
g49
(g70
g51
NtRp1099
(dp1100
g54
(dp1101
g74
g75
ssg63
g1095
sg56
(lp1102
S'request_method'
p1103
asbag49
(g70
g51
NtRp1104
(dp1105
g54
(dp1106
g81
g82
ssg63
g1095
sg56
(lp1107
S':'
asbag49
(g70
g51
NtRp1108
(dp1109
g54
(dp1110
sg63
g1095
sg56
(lp1111
g49
(g50
g51
NtRp1112
(dp1113
g54
(dp1114
g62
I4
ssg63
g1108
sg56
(lp1115
S'GET'
p1116
asbasbasbag49
(g65
g51
NtRp1117
(dp1118
g54
(dp1119
sg63
g588
sg56
(lp1120
g49
(g70
g51
NtRp1121
(dp1122
g54
(dp1123
g74
g75
ssg63
g1117
sg56
(lp1124
S'script_name'
p1125
asbag49
(g70
g51
NtRp1126
(dp1127
g54
(dp1128
g81
g82
ssg63
g1117
sg56
(lp1129
S':'
asbag49
(g70
g51
NtRp1130
(dp1131
g54
(dp1132
sg63
g1117
sg56
(lp1133
g49
(g50
g51
NtRp1134
(dp1135
g54
(dp1136
g62
I4
ssg63
g1130
sg56
(lp1137
S''
asbasbasbag49
(g65
g51
NtRp1138
(dp1139
g54
(dp1140
sg63
g588
sg56
(lp1141
g49
(g70
g51
NtRp1142
(dp1143
g54
(dp1144
g74
g75
ssg63
g1138
sg56
(lp1145
S'server_name'
p1146
asbag49
(g70
g51
NtRp1147
(dp1148
g54
(dp1149
g81
g82
ssg63
g1138
sg56
(lp1150
S':'
asbag49
(g70
g51
NtRp1151
(dp1152
g54
(dp1153
sg63
g1138
sg56
(lp1154
g49
(g50
g51
NtRp1155
(dp1156
g54
(dp1157
g62
I4
ssg63
g1151
sg56
(lp1158
S'Pedro-PC'
p1159
asbasbasbag49
(g65
g51
NtRp1160
(dp1161
g54
(dp1162
sg63
g588
sg56
(lp1163
g49
(g70
g51
NtRp1164
(dp1165
g54
(dp1166
g74
g75
ssg63
g1160
sg56
(lp1167
S'server_port'
p1168
asbag49
(g70
g51
NtRp1169
(dp1170
g54
(dp1171
g81
g82
ssg63
g1160
sg56
(lp1172
S':'
asbag49
(g70
g51
NtRp1173
(dp1174
g54
(dp1175
sg63
g1160
sg56
(lp1176
g49
(g50
g51
NtRp1177
(dp1178
g54
(dp1179
g62
I4
ssg63
g1173
sg56
(lp1180
S'8000'
p1181
asbasbasbag49
(g65
g51
NtRp1182
(dp1183
g54
(dp1184
sg63
g588
sg56
(lp1185
g49
(g70
g51
NtRp1186
(dp1187
g54
(dp1188
g74
g75
ssg63
g1182
sg56
(lp1189
S'server_protocol'
p1190
asbag49
(g70
g51
NtRp1191
(dp1192
g54
(dp1193
g81
g82
ssg63
g1182
sg56
(lp1194
S':'
asbag49
(g70
g51
NtRp1195
(dp1196
g54
(dp1197
sg63
g1182
sg56
(lp1198
g49
(g50
g51
NtRp1199
(dp1200
g54
(dp1201
g62
I4
ssg63
g1195
sg56
(lp1202
S'HTTP/1.1'
p1203
asbasbasbag49
(g65
g51
NtRp1204
(dp1205
g54
(dp1206
sg63
g588
sg56
(lp1207
g49
(g70
g51
NtRp1208
(dp1209
g54
(dp1210
g74
g75
ssg63
g1204
sg56
(lp1211
S'server_software'
p1212
asbag49
(g70
g51
NtRp1213
(dp1214
g54
(dp1215
g81
g82
ssg63
g1204
sg56
(lp1216
S':'
asbag49
(g70
g51
NtRp1217
(dp1218
g54
(dp1219
sg63
g1204
sg56
(lp1220
g49
(g50
g51
NtRp1221
(dp1222
g54
(dp1223
g62
I4
ssg63
g1217
sg56
(lp1224
S'Rocket 1.2.4'
p1225
asbasbasbag49
(g65
g51
NtRp1226
(dp1227
g54
(dp1228
sg63
g588
sg56
(lp1229
g49
(g70
g51
NtRp1230
(dp1231
g54
(dp1232
g74
g75
ssg63
g1226
sg56
(lp1233
S'web2py_crontype'
p1234
asbag49
(g70
g51
NtRp1235
(dp1236
g54
(dp1237
g81
g82
ssg63
g1226
sg56
(lp1238
S':'
asbag49
(g70
g51
NtRp1239
(dp1240
g54
(dp1241
sg63
g1226
sg56
(lp1242
g49
(g50
g51
NtRp1243
(dp1244
g54
(dp1245
g62
I4
ssg63
g1239
sg56
(lp1246
S'hard'
p1247
asbasbasbag49
(g65
g51
NtRp1248
(dp1249
g54
(dp1250
sg63
g588
sg56
(lp1251
g49
(g70
g51
NtRp1252
(dp1253
g54
(dp1254
g74
g75
ssg63
g1248
sg56
(lp1255
S'web2py_path'
p1256
asbag49
(g70
g51
NtRp1257
(dp1258
g54
(dp1259
g81
g82
ssg63
g1248
sg56
(lp1260
S':'
asbag49
(g70
g51
NtRp1261
(dp1262
g54
(dp1263
sg63
g1248
sg56
(lp1264
g49
(g50
g51
NtRp1265
(dp1266
g54
(dp1267
g62
I4
ssg63
g1261
sg56
(lp1268
g635
asbasbasbag49
(g65
g51
NtRp1269
(dp1270
g54
(dp1271
sg63
g588
sg56
(lp1272
g49
(g70
g51
NtRp1273
(dp1274
g54
(dp1275
g74
g75
ssg63
g1269
sg56
(lp1276
S'web2py_version'
p1277
asbag49
(g70
g51
NtRp1278
(dp1279
g54
(dp1280
g81
g82
ssg63
g1269
sg56
(lp1281
S':'
asbag49
(g70
g51
NtRp1282
(dp1283
g54
(dp1284
sg63
g1269
sg56
(lp1285
g49
(g50
g51
NtRp1286
(dp1287
g54
(dp1288
g62
I4
ssg63
g1282
sg56
(lp1289
g49
(g58
g51
NtRp1290
(dp1291
g54
(dp1292
g62
I3
ssg63
Nsg56
(lp1293
g49
(g65
g51
NtRp1294
(dp1295
g54
(dp1296
sg63
g1290
sg56
(lp1297
g49
(g70
g51
NtRp1298
(dp1299
g54
(dp1300
sg63
g1294
sg56
(lp1301
g49
(g50
g51
NtRp1302
(dp1303
g54
(dp1304
g62
I3
ssg63
g1298
sg56
(lp1305
S'1'
asbasbasbag49
(g65
g51
NtRp1306
(dp1307
g54
(dp1308
sg63
g1290
sg56
(lp1309
g49
(g70
g51
NtRp1310
(dp1311
g54
(dp1312
sg63
g1306
sg56
(lp1313
g49
(g50
g51
NtRp1314
(dp1315
g54
(dp1316
g62
I3
ssg63
g1310
sg56
(lp1317
S'99'
p1318
asbasbasbag49
(g65
g51
NtRp1319
(dp1320
g54
(dp1321
sg63
g1290
sg56
(lp1322
g49
(g70
g51
NtRp1323
(dp1324
g54
(dp1325
sg63
g1319
sg56
(lp1326
g49
(g50
g51
NtRp1327
(dp1328
g54
(dp1329
g62
I3
ssg63
g1323
sg56
(lp1330
S'7'
asbasbasbag49
(g65
g51
NtRp1331
(dp1332
g54
(dp1333
sg63
g1290
sg56
(lp1334
g49
(g70
g51
NtRp1335
(dp1336
g54
(dp1337
sg63
g1331
sg56
(lp1338
g49
(g50
g51
NtRp1339
(dp1340
g54
(dp1341
g62
I3
ssg63
g1335
sg56
(lp1342
S'datetime.datetime(2012, 3, 4, 22, 12, 8)'
p1343
asbasbasbag49
(g65
g51
NtRp1344
(dp1345
g54
(dp1346
sg63
g1290
sg56
(lp1347
g49
(g70
g51
NtRp1348
(dp1349
g54
(dp1350
sg63
g1344
sg56
(lp1351
g49
(g50
g51
NtRp1352
(dp1353
g54
(dp1354
g62
I3
ssg63
g1348
sg56
(lp1355
S'stable'
p1356
asbasbasbasbasbasbasbag49
(g65
g51
NtRp1357
(dp1358
g54
(dp1359
sg63
g588
sg56
(lp1360
g49
(g70
g51
NtRp1361
(dp1362
g54
(dp1363
g74
g75
ssg63
g1357
sg56
(lp1364
S'wsgi_errors'
p1365
asbag49
(g70
g51
NtRp1366
(dp1367
g54
(dp1368
g81
g82
ssg63
g1357
sg56
(lp1369
S':'
asbag49
(g70
g51
NtRp1370
(dp1371
g54
(dp1372
sg63
g1357
sg56
(lp1373
g49
(g50
g51
NtRp1374
(dp1375
g54
(dp1376
g62
I4
ssg63
g1370
sg56
(lp1377
S'<__main__.Stderr object at 0x00486670>'
p1378
asbasbasbag49
(g65
g51
NtRp1379
(dp1380
g54
(dp1381
sg63
g588
sg56
(lp1382
g49
(g70
g51
NtRp1383
(dp1384
g54
(dp1385
g74
g75
ssg63
g1379
sg56
(lp1386
S'wsgi_file_wrapper'
p1387
asbag49
(g70
g51
NtRp1388
(dp1389
g54
(dp1390
g81
g82
ssg63
g1379
sg56
(lp1391
S':'
asbag49
(g70
g51
NtRp1392
(dp1393
g54
(dp1394
sg63
g1379
sg56
(lp1395
g49
(g50
g51
NtRp1396
(dp1397
g54
(dp1398
g62
I4
ssg63
g1392
sg56
(lp1399
S'<class wsgiref.util.FileWrapper at 0x02EEDE10>'
p1400
asbasbasbag49
(g65
g51
NtRp1401
(dp1402
g54
(dp1403
sg63
g588
sg56
(lp1404
g49
(g70
g51
NtRp1405
(dp1406
g54
(dp1407
g74
g75
ssg63
g1401
sg56
(lp1408
S'wsgi_input'
p1409
asbag49
(g70
g51
NtRp1410
(dp1411
g54
(dp1412
g81
g82
ssg63
g1401
sg56
(lp1413
S':'
asbag49
(g70
g51
NtRp1414
(dp1415
g54
(dp1416
sg63
g1401
sg56
(lp1417
g49
(g50
g51
NtRp1418
(dp1419
g54
(dp1420
g62
I4
ssg63
g1414
sg56
(lp1421
S'<socket._fileobject object at 0x06D520F0>'
p1422
asbasbasbag49
(g65
g51
NtRp1423
(dp1424
g54
(dp1425
sg63
g588
sg56
(lp1426
g49
(g70
g51
NtRp1427
(dp1428
g54
(dp1429
g74
g75
ssg63
g1423
sg56
(lp1430
S'wsgi_multiprocess'
p1431
asbag49
(g70
g51
NtRp1432
(dp1433
g54
(dp1434
g81
g82
ssg63
g1423
sg56
(lp1435
S':'
asbag49
(g70
g51
NtRp1436
(dp1437
g54
(dp1438
sg63
g1423
sg56
(lp1439
g49
(g50
g51
NtRp1440
(dp1441
g54
(dp1442
g62
I4
ssg63
g1436
sg56
(lp1443
g92
asbasbasbag49
(g65
g51
NtRp1444
(dp1445
g54
(dp1446
sg63
g588
sg56
(lp1447
g49
(g70
g51
NtRp1448
(dp1449
g54
(dp1450
g74
g75
ssg63
g1444
sg56
(lp1451
S'wsgi_multithread'
p1452
asbag49
(g70
g51
NtRp1453
(dp1454
g54
(dp1455
g81
g82
ssg63
g1444
sg56
(lp1456
S':'
asbag49
(g70
g51
NtRp1457
(dp1458
g54
(dp1459
sg63
g1444
sg56
(lp1460
g49
(g50
g51
NtRp1461
(dp1462
g54
(dp1463
g62
I4
ssg63
g1457
sg56
(lp1464
S'True'
p1465
asbasbasbag49
(g65
g51
NtRp1466
(dp1467
g54
(dp1468
sg63
g588
sg56
(lp1469
g49
(g70
g51
NtRp1470
(dp1471
g54
(dp1472
g74
g75
ssg63
g1466
sg56
(lp1473
S'wsgi_run_once'
p1474
asbag49
(g70
g51
NtRp1475
(dp1476
g54
(dp1477
g81
g82
ssg63
g1466
sg56
(lp1478
S':'
asbag49
(g70
g51
NtRp1479
(dp1480
g54
(dp1481
sg63
g1466
sg56
(lp1482
g49
(g50
g51
NtRp1483
(dp1484
g54
(dp1485
g62
I4
ssg63
g1479
sg56
(lp1486
g92
asbasbasbag49
(g65
g51
NtRp1487
(dp1488
g54
(dp1489
sg63
g588
sg56
(lp1490
g49
(g70
g51
NtRp1491
(dp1492
g54
(dp1493
g74
g75
ssg63
g1487
sg56
(lp1494
S'wsgi_url_scheme'
p1495
asbag49
(g70
g51
NtRp1496
(dp1497
g54
(dp1498
g81
g82
ssg63
g1487
sg56
(lp1499
S':'
asbag49
(g70
g51
NtRp1500
(dp1501
g54
(dp1502
sg63
g1487
sg56
(lp1503
g49
(g50
g51
NtRp1504
(dp1505
g54
(dp1506
g62
I4
ssg63
g1500
sg56
(lp1507
S'http'
p1508
asbasbasbag49
(g65
g51
NtRp1509
(dp1510
g54
(dp1511
sg63
g588
sg56
(lp1512
g49
(g70
g51
NtRp1513
(dp1514
g54
(dp1515
g74
g75
ssg63
g1509
sg56
(lp1516
S'wsgi_version'
p1517
asbag49
(g70
g51
NtRp1518
(dp1519
g54
(dp1520
g81
g82
ssg63
g1509
sg56
(lp1521
S':'
asbag49
(g70
g51
NtRp1522
(dp1523
g54
(dp1524
sg63
g1509
sg56
(lp1525
g49
(g50
g51
NtRp1526
(dp1527
g54
(dp1528
g62
I4
ssg63
g1522
sg56
(lp1529
g49
(g58
g51
NtRp1530
(dp1531
g54
(dp1532
g62
I3
ssg63
Nsg56
(lp1533
g49
(g65
g51
NtRp1534
(dp1535
g54
(dp1536
sg63
g1530
sg56
(lp1537
g49
(g70
g51
NtRp1538
(dp1539
g54
(dp1540
sg63
g1534
sg56
(lp1541
g49
(g50
g51
NtRp1542
(dp1543
g54
(dp1544
g62
I3
ssg63
g1538
sg56
(lp1545
S'1'
asbasbasbag49
(g65
g51
NtRp1546
(dp1547
g54
(dp1548
sg63
g1530
sg56
(lp1549
g49
(g70
g51
NtRp1550
(dp1551
g54
(dp1552
sg63
g1546
sg56
(lp1553
g49
(g50
g51
NtRp1554
(dp1555
g54
(dp1556
g62
I3
ssg63
g1550
sg56
(lp1557
S'0'
asbasbasbasbasbasbasbasbasbasbasbag49
(g65
g51
NtRp1558
(dp1559
g54
(dp1560
sg63
g59
sg56
(lp1561
g49
(g70
g51
NtRp1562
(dp1563
g54
(dp1564
g74
g75
ssg63
g1558
sg56
(lp1565
S'extension'
p1566
asbag49
(g70
g51
NtRp1567
(dp1568
g54
(dp1569
g81
g82
ssg63
g1558
sg56
(lp1570
S':'
asbag49
(g70
g51
NtRp1571
(dp1572
g54
(dp1573
sg63
g1558
sg56
(lp1574
g49
(g50
g51
NtRp1575
(dp1576
g54
(dp1577
g62
I5
ssg63
g1571
sg56
(lp1578
S'html'
p1579
asbasbasbag49
(g65
g51
NtRp1580
(dp1581
g54
(dp1582
sg63
g59
sg56
(lp1583
g49
(g70
g51
NtRp1584
(dp1585
g54
(dp1586
g74
g75
ssg63
g1580
sg56
(lp1587
S'folder'
p1588
asbag49
(g70
g51
NtRp1589
(dp1590
g54
(dp1591
g81
g82
ssg63
g1580
sg56
(lp1592
S':'
asbag49
(g70
g51
NtRp1593
(dp1594
g54
(dp1595
sg63
g1580
sg56
(lp1596
g49
(g50
g51
NtRp1597
(dp1598
g54
(dp1599
g62
I5
ssg63
g1593
sg56
(lp1600
S'C:\\web2py\\applications\\unioeste_code\\'
p1601
asbasbasbag49
(g65
g51
NtRp1602
(dp1603
g54
(dp1604
sg63
g59
sg56
(lp1605
g49
(g70
g51
NtRp1606
(dp1607
g54
(dp1608
g74
g75
ssg63
g1602
sg56
(lp1609
S'function'
p1610
asbag49
(g70
g51
NtRp1611
(dp1612
g54
(dp1613
g81
g82
ssg63
g1602
sg56
(lp1614
S':'
asbag49
(g70
g51
NtRp1615
(dp1616
g54
(dp1617
sg63
g1602
sg56
(lp1618
g49
(g50
g51
NtRp1619
(dp1620
g54
(dp1621
g62
I5
ssg63
g1615
sg56
(lp1622
S'index'
p1623
asbasbasbag49
(g65
g51
NtRp1624
(dp1625
g54
(dp1626
sg63
g59
sg56
(lp1627
g49
(g70
g51
NtRp1628
(dp1629
g54
(dp1630
g74
g75
ssg63
g1624
sg56
(lp1631
S'get_vars'
p1632
asbag49
(g70
g51
NtRp1633
(dp1634
g54
(dp1635
g81
g82
ssg63
g1624
sg56
(lp1636
S':'
asbag49
(g70
g51
NtRp1637
(dp1638
g54
(dp1639
sg63
g1624
sg56
(lp1640
g49
(g50
g51
NtRp1641
(dp1642
g54
(dp1643
g62
I5
ssg63
g1637
sg56
(lp1644
g49
(g58
g51
NtRp1645
(dp1646
g54
(dp1647
g62
I4
ssg63
Nsg56
(lp1648
sbasbasbasbag49
(g65
g51
NtRp1649
(dp1650
g54
(dp1651
sg63
g59
sg56
(lp1652
g49
(g70
g51
NtRp1653
(dp1654
g54
(dp1655
g74
g75
ssg63
g1649
sg56
(lp1656
S'global_settings'
p1657
asbag49
(g70
g51
NtRp1658
(dp1659
g54
(dp1660
g81
g82
ssg63
g1649
sg56
(lp1661
S':'
asbag49
(g70
g51
NtRp1662
(dp1663
g54
(dp1664
sg63
g1649
sg56
(lp1665
g49
(g50
g51
NtRp1666
(dp1667
g54
(dp1668
g62
I5
ssg63
g1662
sg56
(lp1669
g49
(g58
g51
NtRp1670
(dp1671
g54
(dp1672
g62
I4
ssg63
Nsg56
(lp1673
g49
(g65
g51
NtRp1674
(dp1675
g54
(dp1676
sg63
g1670
sg56
(lp1677
g49
(g70
g51
NtRp1678
(dp1679
g54
(dp1680
g74
g75
ssg63
g1674
sg56
(lp1681
g600
asbag49
(g70
g51
NtRp1682
(dp1683
g54
(dp1684
g81
g82
ssg63
g1674
sg56
(lp1685
S':'
asbag49
(g70
g51
NtRp1686
(dp1687
g54
(dp1688
sg63
g1674
sg56
(lp1689
g49
(g50
g51
NtRp1690
(dp1691
g54
(dp1692
g62
I4
ssg63
g1686
sg56
(lp1693
S"set(['C:\\\\web2py\\\\applications\\\\admin\\\\', 'C:\\\\web2py\\\\applications\\\\welcome\\\\', 'C:\\\\web2py\\\\applications\\\\unioeste_code\\\\'])"
p1694
asbasbasbag49
(g65
g51
NtRp1695
(dp1696
g54
(dp1697
sg63
g1670
sg56
(lp1698
g49
(g70
g51
NtRp1699
(dp1700
g54
(dp1701
g74
g75
ssg63
g1695
sg56
(lp1702
g622
asbag49
(g70
g51
NtRp1703
(dp1704
g54
(dp1705
g81
g82
ssg63
g1695
sg56
(lp1706
S':'
asbag49
(g70
g51
NtRp1707
(dp1708
g54
(dp1709
sg63
g1695
sg56
(lp1710
g49
(g50
g51
NtRp1711
(dp1712
g54
(dp1713
g62
I4
ssg63
g1707
sg56
(lp1714
g635
asbasbasbag49
(g65
g51
NtRp1715
(dp1716
g54
(dp1717
sg63
g1670
sg56
(lp1718
g49
(g70
g51
NtRp1719
(dp1720
g54
(dp1721
g74
g75
ssg63
g1715
sg56
(lp1722
g644
asbag49
(g70
g51
NtRp1723
(dp1724
g54
(dp1725
g81
g82
ssg63
g1715
sg56
(lp1726
S':'
asbag49
(g70
g51
NtRp1727
(dp1728
g54
(dp1729
sg63
g1715
sg56
(lp1730
g49
(g50
g51
NtRp1731
(dp1732
g54
(dp1733
g62
I4
ssg63
g1727
sg56
(lp1734
g49
(g58
g51
NtRp1735
(dp1736
g54
(dp1737
g62
I3
ssg63
Nsg56
(lp1738
sbasbasbasbag49
(g65
g51
NtRp1739
(dp1740
g54
(dp1741
sg63
g1670
sg56
(lp1742
g49
(g70
g51
NtRp1743
(dp1744
g54
(dp1745
g74
g75
ssg63
g1739
sg56
(lp1746
g669
asbag49
(g70
g51
NtRp1747
(dp1748
g54
(dp1749
g81
g82
ssg63
g1739
sg56
(lp1750
S':'
asbag49
(g70
g51
NtRp1751
(dp1752
g54
(dp1753
sg63
g1739
sg56
(lp1754
g49
(g50
g51
NtRp1755
(dp1756
g54
(dp1757
g62
I4
ssg63
g1751
sg56
(lp1758
S"<Values at 0x30fc300: {'verbose': False, 'ip': '127.0.0.1', 'shutdown_timeout': 5, 'taskbar': False, 'nocron': False, 'pid_filename': 'httpserver.pid', 'maxthreads': None, 'softcron': False, 'server_name': 'Pedro-PC', 'bpython': False, 'nogui': False, 'port': 8000, 'extcron': False, 'debuglevel': 30, 'test': None, 'folder': 'C:\\\\web2py', 'config': '', 'import_models': False, 'winservice': '', 'shell': None, 'run': '', 'log_filename': 'httpserver.log', 'args': [''], 'socket_timeout': 5, 'ssl_ca_certificate': None, 'scheduler': None, 'profiler_filename': None, 'ssl_private_key': '', 'password': '<ask>', 'request_queue_size': 5, 'ssl_certificate': '', 'cronjob': False, 'numthreads': None, 'quiet': False, 'interfaces': None, 'minthreads': None, 'timeout': 10, 'plain': False, 'nobanner': False}>"
p1759
asbasbasbag49
(g65
g51
NtRp1760
(dp1761
g54
(dp1762
sg63
g1670
sg56
(lp1763
g49
(g70
g51
NtRp1764
(dp1765
g54
(dp1766
g74
g75
ssg63
g1760
sg56
(lp1767
g691
asbag49
(g70
g51
NtRp1768
(dp1769
g54
(dp1770
g81
g82
ssg63
g1760
sg56
(lp1771
S':'
asbag49
(g70
g51
NtRp1772
(dp1773
g54
(dp1774
sg63
g1760
sg56
(lp1775
g49
(g50
g51
NtRp1776
(dp1777
g54
(dp1778
g62
I4
ssg63
g1772
sg56
(lp1779
S'set([])'
p1780
asbasbasbag49
(g65
g51
NtRp1781
(dp1782
g54
(dp1783
sg63
g1670
sg56
(lp1784
g49
(g70
g51
NtRp1785
(dp1786
g54
(dp1787
g74
g75
ssg63
g1781
sg56
(lp1788
g713
asbag49
(g70
g51
NtRp1789
(dp1790
g54
(dp1791
g81
g82
ssg63
g1781
sg56
(lp1792
S':'
asbag49
(g70
g51
NtRp1793
(dp1794
g54
(dp1795
sg63
g1781
sg56
(lp1796
g49
(g50
g51
NtRp1797
(dp1798
g54
(dp1799
g62
I4
ssg63
g1793
sg56
(lp1800
g92
asbasbasbag49
(g65
g51
NtRp1801
(dp1802
g54
(dp1803
sg63
g1670
sg56
(lp1804
g49
(g70
g51
NtRp1805
(dp1806
g54
(dp1807
g74
g75
ssg63
g1801
sg56
(lp1808
g734
asbag49
(g70
g51
NtRp1809
(dp1810
g54
(dp1811
g81
g82
ssg63
g1801
sg56
(lp1812
S':'
asbag49
(g70
g51
NtRp1813
(dp1814
g54
(dp1815
sg63
g1801
sg56
(lp1816
g49
(g50
g51
NtRp1817
(dp1818
g54
(dp1819
g62
I4
ssg63
g1813
sg56
(lp1820
g747
asbasbasbag49
(g65
g51
NtRp1821
(dp1822
g54
(dp1823
sg63
g1670
sg56
(lp1824
g49
(g70
g51
NtRp1825
(dp1826
g54
(dp1827
g74
g75
ssg63
g1821
sg56
(lp1828
g975
asbag49
(g70
g51
NtRp1829
(dp1830
g54
(dp1831
g81
g82
ssg63
g1821
sg56
(lp1832
S':'
asbag49
(g70
g51
NtRp1833
(dp1834
g54
(dp1835
sg63
g1821
sg56
(lp1836
g49
(g50
g51
NtRp1837
(dp1838
g54
(dp1839
g62
I4
ssg63
g1833
sg56
(lp1840
g92
asbasbasbag49
(g65
g51
NtRp1841
(dp1842
g54
(dp1843
sg63
g1670
sg56
(lp1844
g49
(g70
g51
NtRp1845
(dp1846
g54
(dp1847
g74
g75
ssg63
g1841
sg56
(lp1848
g996
asbag49
(g70
g51
NtRp1849
(dp1850
g54
(dp1851
g81
g82
ssg63
g1841
sg56
(lp1852
S':'
asbag49
(g70
g51
NtRp1853
(dp1854
g54
(dp1855
sg63
g1841
sg56
(lp1856
g49
(g50
g51
NtRp1857
(dp1858
g54
(dp1859
g62
I4
ssg63
g1853
sg56
(lp1860
g92
asbasbasbag49
(g65
g51
NtRp1861
(dp1862
g54
(dp1863
sg63
g1670
sg56
(lp1864
g49
(g70
g51
NtRp1865
(dp1866
g54
(dp1867
g74
g75
ssg63
g1861
sg56
(lp1868
g1234
asbag49
(g70
g51
NtRp1869
(dp1870
g54
(dp1871
g81
g82
ssg63
g1861
sg56
(lp1872
S':'
asbag49
(g70
g51
NtRp1873
(dp1874
g54
(dp1875
sg63
g1861
sg56
(lp1876
g49
(g50
g51
NtRp1877
(dp1878
g54
(dp1879
g62
I4
ssg63
g1873
sg56
(lp1880
g1247
asbasbasbag49
(g65
g51
NtRp1881
(dp1882
g54
(dp1883
sg63
g1670
sg56
(lp1884
g49
(g70
g51
NtRp1885
(dp1886
g54
(dp1887
g74
g75
ssg63
g1881
sg56
(lp1888
g1277
asbag49
(g70
g51
NtRp1889
(dp1890
g54
(dp1891
g81
g82
ssg63
g1881
sg56
(lp1892
S':'
asbag49
(g70
g51
NtRp1893
(dp1894
g54
(dp1895
sg63
g1881
sg56
(lp1896
g49
(g50
g51
NtRp1897
(dp1898
g54
(dp1899
g62
I4
ssg63
g1893
sg56
(lp1900
g49
(g58
g51
NtRp1901
(dp1902
g54
(dp1903
g62
I3
ssg63
Nsg56
(lp1904
g49
(g65
g51
NtRp1905
(dp1906
g54
(dp1907
sg63
g1901
sg56
(lp1908
g49
(g70
g51
NtRp1909
(dp1910
g54
(dp1911
sg63
g1905
sg56
(lp1912
g49
(g50
g51
NtRp1913
(dp1914
g54
(dp1915
g62
I3
ssg63
g1909
sg56
(lp1916
S'1'
asbasbasbag49
(g65
g51
NtRp1917
(dp1918
g54
(dp1919
sg63
g1901
sg56
(lp1920
g49
(g70
g51
NtRp1921
(dp1922
g54
(dp1923
sg63
g1917
sg56
(lp1924
g49
(g50
g51
NtRp1925
(dp1926
g54
(dp1927
g62
I3
ssg63
g1921
sg56
(lp1928
S'99'
p1929
asbasbasbag49
(g65
g51
NtRp1930
(dp1931
g54
(dp1932
sg63
g1901
sg56
(lp1933
g49
(g70
g51
NtRp1934
(dp1935
g54
(dp1936
sg63
g1930
sg56
(lp1937
g49
(g50
g51
NtRp1938
(dp1939
g54
(dp1940
g62
I3
ssg63
g1934
sg56
(lp1941
S'7'
asbasbasbag49
(g65
g51
NtRp1942
(dp1943
g54
(dp1944
sg63
g1901
sg56
(lp1945
g49
(g70
g51
NtRp1946
(dp1947
g54
(dp1948
sg63
g1942
sg56
(lp1949
g49
(g50
g51
NtRp1950
(dp1951
g54
(dp1952
g62
I3
ssg63
g1946
sg56
(lp1953
S'datetime.datetime(2012, 3, 4, 22, 12, 8)'
p1954
asbasbasbag49
(g65
g51
NtRp1955
(dp1956
g54
(dp1957
sg63
g1901
sg56
(lp1958
g49
(g70
g51
NtRp1959
(dp1960
g54
(dp1961
sg63
g1955
sg56
(lp1962
g49
(g50
g51
NtRp1963
(dp1964
g54
(dp1965
g62
I3
ssg63
g1959
sg56
(lp1966
g1356
asbasbasbasbasbasbasbasbasbasbasbag49
(g65
g51
NtRp1967
(dp1968
g54
(dp1969
sg63
g59
sg56
(lp1970
g49
(g70
g51
NtRp1971
(dp1972
g54
(dp1973
g74
g75
ssg63
g1967
sg56
(lp1974
S'is_https'
p1975
asbag49
(g70
g51
NtRp1976
(dp1977
g54
(dp1978
g81
g82
ssg63
g1967
sg56
(lp1979
S':'
asbag49
(g70
g51
NtRp1980
(dp1981
g54
(dp1982
sg63
g1967
sg56
(lp1983
g49
(g50
g51
NtRp1984
(dp1985
g54
(dp1986
g62
I5
ssg63
g1980
sg56
(lp1987
g92
asbasbasbag49
(g65
g51
NtRp1988
(dp1989
g54
(dp1990
sg63
g59
sg56
(lp1991
g49
(g70
g51
NtRp1992
(dp1993
g54
(dp1994
g74
g75
ssg63
g1988
sg56
(lp1995
S'is_local'
p1996
asbag49
(g70
g51
NtRp1997
(dp1998
g54
(dp1999
g81
g82
ssg63
g1988
sg56
(lp2000
S':'
asbag49
(g70
g51
NtRp2001
(dp2002
g54
(dp2003
sg63
g1988
sg56
(lp2004
g49
(g50
g51
NtRp2005
(dp2006
g54
(dp2007
g62
I5
ssg63
g2001
sg56
(lp2008
g1465
asbasbasbag49
(g65
g51
NtRp2009
(dp2010
g54
(dp2011
sg63
g59
sg56
(lp2012
g49
(g70
g51
NtRp2013
(dp2014
g54
(dp2015
g74
g75
ssg63
g2009
sg56
(lp2016
S'is_restful'
p2017
asbag49
(g70
g51
NtRp2018
(dp2019
g54
(dp2020
g81
g82
ssg63
g2009
sg56
(lp2021
S':'
asbag49
(g70
g51
NtRp2022
(dp2023
g54
(dp2024
sg63
g2009
sg56
(lp2025
g49
(g50
g51
NtRp2026
(dp2027
g54
(dp2028
g62
I5
ssg63
g2022
sg56
(lp2029
g92
asbasbasbag49
(g65
g51
NtRp2030
(dp2031
g54
(dp2032
sg63
g59
sg56
(lp2033
g49
(g70
g51
NtRp2034
(dp2035
g54
(dp2036
g74
g75
ssg63
g2030
sg56
(lp2037
S'now'
p2038
asbag49
(g70
g51
NtRp2039
(dp2040
g54
(dp2041
g81
g82
ssg63
g2030
sg56
(lp2042
S':'
asbag49
(g70
g51
NtRp2043
(dp2044
g54
(dp2045
sg63
g2030
sg56
(lp2046
g49
(g50
g51
NtRp2047
(dp2048
g54
(dp2049
g62
I5
ssg63
g2043
sg56
(lp2050
S'datetime.datetime(2012, 7, 30, 15, 50, 24, 237000)'
p2051
asbasbasbag49
(g65
g51
NtRp2052
(dp2053
g54
(dp2054
sg63
g59
sg56
(lp2055
g49
(g70
g51
NtRp2056
(dp2057
g54
(dp2058
g74
g75
ssg63
g2052
sg56
(lp2059
S'post_vars'
p2060
asbag49
(g70
g51
NtRp2061
(dp2062
g54
(dp2063
g81
g82
ssg63
g2052
sg56
(lp2064
S':'
asbag49
(g70
g51
NtRp2065
(dp2066
g54
(dp2067
sg63
g2052
sg56
(lp2068
g49
(g50
g51
NtRp2069
(dp2070
g54
(dp2071
g62
I5
ssg63
g2065
sg56
(lp2072
g49
(g58
g51
NtRp2073
(dp2074
g54
(dp2075
g62
I4
ssg63
Nsg56
(lp2076
sbasbasbasbag49
(g65
g51
NtRp2077
(dp2078
g54
(dp2079
sg63
g59
sg56
(lp2080
g49
(g70
g51
NtRp2081
(dp2082
g54
(dp2083
g74
g75
ssg63
g2077
sg56
(lp2084
S'url'
p2085
asbag49
(g70
g51
NtRp2086
(dp2087
g54
(dp2088
g81
g82
ssg63
g2077
sg56
(lp2089
S':'
asbag49
(g70
g51
NtRp2090
(dp2091
g54
(dp2092
sg63
g2077
sg56
(lp2093
g49
(g50
g51
NtRp2094
(dp2095
g54
(dp2096
g62
I5
ssg63
g2090
sg56
(lp2097
S'/unioeste_code/default/index'
p2098
asbasbasbag49
(g65
g51
NtRp2099
(dp2100
g54
(dp2101
sg63
g59
sg56
(lp2102
g49
(g70
g51
NtRp2103
(dp2104
g54
(dp2105
g74
g75
ssg63
g2099
sg56
(lp2106
S'utcnow'
p2107
asbag49
(g70
g51
NtRp2108
(dp2109
g54
(dp2110
g81
g82
ssg63
g2099
sg56
(lp2111
S':'
asbag49
(g70
g51
NtRp2112
(dp2113
g54
(dp2114
sg63
g2099
sg56
(lp2115
g49
(g50
g51
NtRp2116
(dp2117
g54
(dp2118
g62
I5
ssg63
g2112
sg56
(lp2119
S'datetime.datetime(2012, 7, 30, 18, 50, 24, 237000)'
p2120
asbasbasbag49
(g65
g51
NtRp2121
(dp2122
g54
(dp2123
sg63
g59
sg56
(lp2124
g49
(g70
g51
NtRp2125
(dp2126
g54
(dp2127
g74
g75
ssg63
g2121
sg56
(lp2128
S'uuid'
p2129
asbag49
(g70
g51
NtRp2130
(dp2131
g54
(dp2132
g81
g82
ssg63
g2121
sg56
(lp2133
S':'
asbag49
(g70
g51
NtRp2134
(dp2135
g54
(dp2136
sg63
g2121
sg56
(lp2137
g49
(g50
g51
NtRp2138
(dp2139
g54
(dp2140
g62
I5
ssg63
g2134
sg56
(lp2141
S'unioeste_code/127.0.0.1.2012-07-30.15-50-24.1014587d-8e4c-4066-9c79-f0b96da89b5f'
p2142
asbasbasbag49
(g65
g51
NtRp2143
(dp2144
g54
(dp2145
sg63
g59
sg56
(lp2146
g49
(g70
g51
NtRp2147
(dp2148
g54
(dp2149
g74
g75
ssg63
g2143
sg56
(lp2150
S'vars'
p2151
asbag49
(g70
g51
NtRp2152
(dp2153
g54
(dp2154
g81
g82
ssg63
g2143
sg56
(lp2155
S':'
asbag49
(g70
g51
NtRp2156
(dp2157
g54
(dp2158
sg63
g2143
sg56
(lp2159
g49
(g50
g51
NtRp2160
(dp2161
g54
(dp2162
g62
I5
ssg63
g2156
sg56
(lp2163
g49
(g58
g51
NtRp2164
(dp2165
g54
(dp2166
g62
I4
ssg63
Nsg56
(lp2167
sbasbasbasbag49
(g65
g51
NtRp2168
(dp2169
g54
(dp2170
sg63
g59
sg56
(lp2171
g49
(g70
g51
NtRp2172
(dp2173
g54
(dp2174
g74
g75
ssg63
g2168
sg56
(lp2175
S'wsgi'
p2176
asbag49
(g70
g51
NtRp2177
(dp2178
g54
(dp2179
g81
g82
ssg63
g2168
sg56
(lp2180
S':'
asbag49
(g70
g51
NtRp2181
(dp2182
g54
(dp2183
sg63
g2168
sg56
(lp2184
g49
(g50
g51
NtRp2185
(dp2186
g54
(dp2187
g62
I5
ssg63
g2181
sg56
(lp2188
g49
(g58
g51
NtRp2189
(dp2190
g54
(dp2191
g62
I4
ssg63
Nsg56
(lp2192
g49
(g65
g51
NtRp2193
(dp2194
g54
(dp2195
sg63
g2189
sg56
(lp2196
g49
(g70
g51
NtRp2197
(dp2198
g54
(dp2199
g74
g75
ssg63
g2193
sg56
(lp2200
S'environ'
p2201
asbag49
(g70
g51
NtRp2202
(dp2203
g54
(dp2204
g81
g82
ssg63
g2193
sg56
(lp2205
S':'
asbag49
(g70
g51
NtRp2206
(dp2207
g54
(dp2208
sg63
g2193
sg56
(lp2209
g49
(g50
g51
NtRp2210
(dp2211
g54
(dp2212
g62
I4
ssg63
g2206
sg56
(lp2213
g49
(g58
g51
NtRp2214
(dp2215
g54
(dp2216
g62
I3
ssg63
Nsg56
(lp2217
g49
(g65
g51
NtRp2218
(dp2219
g54
(dp2220
sg63
g2214
sg56
(lp2221
g49
(g70
g51
NtRp2222
(dp2223
g54
(dp2224
g74
g75
ssg63
g2218
sg56
(lp2225
S'HTTP_ACCEPT'
p2226
asbag49
(g70
g51
NtRp2227
(dp2228
g54
(dp2229
g81
g82
ssg63
g2218
sg56
(lp2230
S':'
asbag49
(g70
g51
NtRp2231
(dp2232
g54
(dp2233
sg63
g2218
sg56
(lp2234
g49
(g50
g51
NtRp2235
(dp2236
g54
(dp2237
g62
I3
ssg63
g2231
sg56
(lp2238
g769
asbasbasbag49
(g65
g51
NtRp2239
(dp2240
g54
(dp2241
sg63
g2214
sg56
(lp2242
g49
(g70
g51
NtRp2243
(dp2244
g54
(dp2245
g74
g75
ssg63
g2239
sg56
(lp2246
S'HTTP_ACCEPT_CHARSET'
p2247
asbag49
(g70
g51
NtRp2248
(dp2249
g54
(dp2250
g81
g82
ssg63
g2239
sg56
(lp2251
S':'
asbag49
(g70
g51
NtRp2252
(dp2253
g54
(dp2254
sg63
g2239
sg56
(lp2255
g49
(g50
g51
NtRp2256
(dp2257
g54
(dp2258
g62
I3
ssg63
g2252
sg56
(lp2259
g791
asbasbasbag49
(g65
g51
NtRp2260
(dp2261
g54
(dp2262
sg63
g2214
sg56
(lp2263
g49
(g70
g51
NtRp2264
(dp2265
g54
(dp2266
g74
g75
ssg63
g2260
sg56
(lp2267
S'HTTP_ACCEPT_ENCODING'
p2268
asbag49
(g70
g51
NtRp2269
(dp2270
g54
(dp2271
g81
g82
ssg63
g2260
sg56
(lp2272
S':'
asbag49
(g70
g51
NtRp2273
(dp2274
g54
(dp2275
sg63
g2260
sg56
(lp2276
g49
(g50
g51
NtRp2277
(dp2278
g54
(dp2279
g62
I3
ssg63
g2273
sg56
(lp2280
g813
asbasbasbag49
(g65
g51
NtRp2281
(dp2282
g54
(dp2283
sg63
g2214
sg56
(lp2284
g49
(g70
g51
NtRp2285
(dp2286
g54
(dp2287
g74
g75
ssg63
g2281
sg56
(lp2288
S'HTTP_ACCEPT_LANGUAGE'
p2289
asbag49
(g70
g51
NtRp2290
(dp2291
g54
(dp2292
g81
g82
ssg63
g2281
sg56
(lp2293
S':'
asbag49
(g70
g51
NtRp2294
(dp2295
g54
(dp2296
sg63
g2281
sg56
(lp2297
g49
(g50
g51
NtRp2298
(dp2299
g54
(dp2300
g62
I3
ssg63
g2294
sg56
(lp2301
g835
asbasbasbag49
(g65
g51
NtRp2302
(dp2303
g54
(dp2304
sg63
g2214
sg56
(lp2305
g49
(g70
g51
NtRp2306
(dp2307
g54
(dp2308
g74
g75
ssg63
g2302
sg56
(lp2309
S'HTTP_CACHE_CONTROL'
p2310
asbag49
(g70
g51
NtRp2311
(dp2312
g54
(dp2313
g81
g82
ssg63
g2302
sg56
(lp2314
S':'
asbag49
(g70
g51
NtRp2315
(dp2316
g54
(dp2317
sg63
g2302
sg56
(lp2318
g49
(g50
g51
NtRp2319
(dp2320
g54
(dp2321
g62
I3
ssg63
g2315
sg56
(lp2322
g857
asbasbasbag49
(g65
g51
NtRp2323
(dp2324
g54
(dp2325
sg63
g2214
sg56
(lp2326
g49
(g70
g51
NtRp2327
(dp2328
g54
(dp2329
g74
g75
ssg63
g2323
sg56
(lp2330
S'HTTP_CONNECTION'
p2331
asbag49
(g70
g51
NtRp2332
(dp2333
g54
(dp2334
g81
g82
ssg63
g2323
sg56
(lp2335
S':'
asbag49
(g70
g51
NtRp2336
(dp2337
g54
(dp2338
sg63
g2323
sg56
(lp2339
g49
(g50
g51
NtRp2340
(dp2341
g54
(dp2342
g62
I3
ssg63
g2336
sg56
(lp2343
g879
asbasbasbag49
(g65
g51
NtRp2344
(dp2345
g54
(dp2346
sg63
g2214
sg56
(lp2347
g49
(g70
g51
NtRp2348
(dp2349
g54
(dp2350
g74
g75
ssg63
g2344
sg56
(lp2351
S'HTTP_COOKIE'
p2352
asbag49
(g70
g51
NtRp2353
(dp2354
g54
(dp2355
g81
g82
ssg63
g2344
sg56
(lp2356
S':'
asbag49
(g70
g51
NtRp2357
(dp2358
g54
(dp2359
sg63
g2344
sg56
(lp2360
g49
(g50
g51
NtRp2361
(dp2362
g54
(dp2363
g62
I3
ssg63
g2357
sg56
(lp2364
g901
asbasbasbag49
(g65
g51
NtRp2365
(dp2366
g54
(dp2367
sg63
g2214
sg56
(lp2368
g49
(g70
g51
NtRp2369
(dp2370
g54
(dp2371
g74
g75
ssg63
g2365
sg56
(lp2372
S'HTTP_DNT'
p2373
asbag49
(g70
g51
NtRp2374
(dp2375
g54
(dp2376
g81
g82
ssg63
g2365
sg56
(lp2377
S':'
asbag49
(g70
g51
NtRp2378
(dp2379
g54
(dp2380
sg63
g2365
sg56
(lp2381
g49
(g50
g51
NtRp2382
(dp2383
g54
(dp2384
g62
I3
ssg63
g2378
sg56
(lp2385
S'1'
asbasbasbag49
(g65
g51
NtRp2386
(dp2387
g54
(dp2388
sg63
g2214
sg56
(lp2389
g49
(g70
g51
NtRp2390
(dp2391
g54
(dp2392
g74
g75
ssg63
g2386
sg56
(lp2393
S'HTTP_HOST'
p2394
asbag49
(g70
g51
NtRp2395
(dp2396
g54
(dp2397
g81
g82
ssg63
g2386
sg56
(lp2398
S':'
asbag49
(g70
g51
NtRp2399
(dp2400
g54
(dp2401
sg63
g2386
sg56
(lp2402
g49
(g50
g51
NtRp2403
(dp2404
g54
(dp2405
g62
I3
ssg63
g2399
sg56
(lp2406
g944
asbasbasbag49
(g65
g51
NtRp2407
(dp2408
g54
(dp2409
sg63
g2214
sg56
(lp2410
g49
(g70
g51
NtRp2411
(dp2412
g54
(dp2413
g74
g75
ssg63
g2407
sg56
(lp2414
S'HTTP_USER_AGENT'
p2415
asbag49
(g70
g51
NtRp2416
(dp2417
g54
(dp2418
g81
g82
ssg63
g2407
sg56
(lp2419
S':'
asbag49
(g70
g51
NtRp2420
(dp2421
g54
(dp2422
sg63
g2407
sg56
(lp2423
g49
(g50
g51
NtRp2424
(dp2425
g54
(dp2426
g62
I3
ssg63
g2420
sg56
(lp2427
g966
asbasbasbag49
(g65
g51
NtRp2428
(dp2429
g54
(dp2430
sg63
g2214
sg56
(lp2431
g49
(g70
g51
NtRp2432
(dp2433
g54
(dp2434
g74
g75
ssg63
g2428
sg56
(lp2435
S'PATH_INFO'
p2436
asbag49
(g70
g51
NtRp2437
(dp2438
g54
(dp2439
g81
g82
ssg63
g2428
sg56
(lp2440
S':'
asbag49
(g70
g51
NtRp2441
(dp2442
g54
(dp2443
sg63
g2428
sg56
(lp2444
g49
(g50
g51
NtRp2445
(dp2446
g54
(dp2447
g62
I3
ssg63
g2441
sg56
(lp2448
g1030
asbasbasbag49
(g65
g51
NtRp2449
(dp2450
g54
(dp2451
sg63
g2214
sg56
(lp2452
g49
(g70
g51
NtRp2453
(dp2454
g54
(dp2455
g74
g75
ssg63
g2449
sg56
(lp2456
S'QUERY_STRING'
p2457
asbag49
(g70
g51
NtRp2458
(dp2459
g54
(dp2460
g81
g82
ssg63
g2449
sg56
(lp2461
S':'
asbag49
(g70
g51
NtRp2462
(dp2463
g54
(dp2464
sg63
g2449
sg56
(lp2465
g49
(g50
g51
NtRp2466
(dp2467
g54
(dp2468
g62
I3
ssg63
g2462
sg56
(lp2469
S''
asbasbasbag49
(g65
g51
NtRp2470
(dp2471
g54
(dp2472
sg63
g2214
sg56
(lp2473
g49
(g70
g51
NtRp2474
(dp2475
g54
(dp2476
g74
g75
ssg63
g2470
sg56
(lp2477
S'REMOTE_ADDR'
p2478
asbag49
(g70
g51
NtRp2479
(dp2480
g54
(dp2481
g81
g82
ssg63
g2470
sg56
(lp2482
S':'
asbag49
(g70
g51
NtRp2483
(dp2484
g54
(dp2485
sg63
g2470
sg56
(lp2486
g49
(g50
g51
NtRp2487
(dp2488
g54
(dp2489
g62
I3
ssg63
g2483
sg56
(lp2490
g182
asbasbasbag49
(g65
g51
NtRp2491
(dp2492
g54
(dp2493
sg63
g2214
sg56
(lp2494
g49
(g70
g51
NtRp2495
(dp2496
g54
(dp2497
g74
g75
ssg63
g2491
sg56
(lp2498
S'REMOTE_PORT'
p2499
asbag49
(g70
g51
NtRp2500
(dp2501
g54
(dp2502
g81
g82
ssg63
g2491
sg56
(lp2503
S':'
asbag49
(g70
g51
NtRp2504
(dp2505
g54
(dp2506
sg63
g2491
sg56
(lp2507
g49
(g50
g51
NtRp2508
(dp2509
g54
(dp2510
g62
I3
ssg63
g2504
sg56
(lp2511
g1094
asbasbasbag49
(g65
g51
NtRp2512
(dp2513
g54
(dp2514
sg63
g2214
sg56
(lp2515
g49
(g70
g51
NtRp2516
(dp2517
g54
(dp2518
g74
g75
ssg63
g2512
sg56
(lp2519
S'REQUEST_METHOD'
p2520
asbag49
(g70
g51
NtRp2521
(dp2522
g54
(dp2523
g81
g82
ssg63
g2512
sg56
(lp2524
S':'
asbag49
(g70
g51
NtRp2525
(dp2526
g54
(dp2527
sg63
g2512
sg56
(lp2528
g49
(g50
g51
NtRp2529
(dp2530
g54
(dp2531
g62
I3
ssg63
g2525
sg56
(lp2532
g1116
asbasbasbag49
(g65
g51
NtRp2533
(dp2534
g54
(dp2535
sg63
g2214
sg56
(lp2536
g49
(g70
g51
NtRp2537
(dp2538
g54
(dp2539
g74
g75
ssg63
g2533
sg56
(lp2540
S'SCRIPT_NAME'
p2541
asbag49
(g70
g51
NtRp2542
(dp2543
g54
(dp2544
g81
g82
ssg63
g2533
sg56
(lp2545
S':'
asbag49
(g70
g51
NtRp2546
(dp2547
g54
(dp2548
sg63
g2533
sg56
(lp2549
g49
(g50
g51
NtRp2550
(dp2551
g54
(dp2552
g62
I3
ssg63
g2546
sg56
(lp2553
S''
asbasbasbag49
(g65
g51
NtRp2554
(dp2555
g54
(dp2556
sg63
g2214
sg56
(lp2557
g49
(g70
g51
NtRp2558
(dp2559
g54
(dp2560
g74
g75
ssg63
g2554
sg56
(lp2561
S'SERVER_NAME'
p2562
asbag49
(g70
g51
NtRp2563
(dp2564
g54
(dp2565
g81
g82
ssg63
g2554
sg56
(lp2566
S':'
asbag49
(g70
g51
NtRp2567
(dp2568
g54
(dp2569
sg63
g2554
sg56
(lp2570
g49
(g50
g51
NtRp2571
(dp2572
g54
(dp2573
g62
I3
ssg63
g2567
sg56
(lp2574
g1159
asbasbasbag49
(g65
g51
NtRp2575
(dp2576
g54
(dp2577
sg63
g2214
sg56
(lp2578
g49
(g70
g51
NtRp2579
(dp2580
g54
(dp2581
g74
g75
ssg63
g2575
sg56
(lp2582
S'SERVER_PORT'
p2583
asbag49
(g70
g51
NtRp2584
(dp2585
g54
(dp2586
g81
g82
ssg63
g2575
sg56
(lp2587
S':'
asbag49
(g70
g51
NtRp2588
(dp2589
g54
(dp2590
sg63
g2575
sg56
(lp2591
g49
(g50
g51
NtRp2592
(dp2593
g54
(dp2594
g62
I3
ssg63
g2588
sg56
(lp2595
g1181
asbasbasbag49
(g65
g51
NtRp2596
(dp2597
g54
(dp2598
sg63
g2214
sg56
(lp2599
g49
(g70
g51
NtRp2600
(dp2601
g54
(dp2602
g74
g75
ssg63
g2596
sg56
(lp2603
S'SERVER_PROTOCOL'
p2604
asbag49
(g70
g51
NtRp2605
(dp2606
g54
(dp2607
g81
g82
ssg63
g2596
sg56
(lp2608
S':'
asbag49
(g70
g51
NtRp2609
(dp2610
g54
(dp2611
sg63
g2596
sg56
(lp2612
g49
(g50
g51
NtRp2613
(dp2614
g54
(dp2615
g62
I3
ssg63
g2609
sg56
(lp2616
g1203
asbasbasbag49
(g65
g51
NtRp2617
(dp2618
g54
(dp2619
sg63
g2214
sg56
(lp2620
g49
(g70
g51
NtRp2621
(dp2622
g54
(dp2623
g74
g75
ssg63
g2617
sg56
(lp2624
S'SERVER_SOFTWARE'
p2625
asbag49
(g70
g51
NtRp2626
(dp2627
g54
(dp2628
g81
g82
ssg63
g2617
sg56
(lp2629
S':'
asbag49
(g70
g51
NtRp2630
(dp2631
g54
(dp2632
sg63
g2617
sg56
(lp2633
g49
(g50
g51
NtRp2634
(dp2635
g54
(dp2636
g62
I3
ssg63
g2630
sg56
(lp2637
g1225
asbasbasbag49
(g65
g51
NtRp2638
(dp2639
g54
(dp2640
sg63
g2214
sg56
(lp2641
g49
(g70
g51
NtRp2642
(dp2643
g54
(dp2644
g74
g75
ssg63
g2638
sg56
(lp2645
S'wsgi.errors'
p2646
asbag49
(g70
g51
NtRp2647
(dp2648
g54
(dp2649
g81
g82
ssg63
g2638
sg56
(lp2650
S':'
asbag49
(g70
g51
NtRp2651
(dp2652
g54
(dp2653
sg63
g2638
sg56
(lp2654
g49
(g50
g51
NtRp2655
(dp2656
g54
(dp2657
g62
I3
ssg63
g2651
sg56
(lp2658
S'<__main__.Stderr object at 0x00486670>'
p2659
asbasbasbag49
(g65
g51
NtRp2660
(dp2661
g54
(dp2662
sg63
g2214
sg56
(lp2663
g49
(g70
g51
NtRp2664
(dp2665
g54
(dp2666
g74
g75
ssg63
g2660
sg56
(lp2667
S'wsgi.file_wrapper'
p2668
asbag49
(g70
g51
NtRp2669
(dp2670
g54
(dp2671
g81
g82
ssg63
g2660
sg56
(lp2672
S':'
asbag49
(g70
g51
NtRp2673
(dp2674
g54
(dp2675
sg63
g2660
sg56
(lp2676
g49
(g50
g51
NtRp2677
(dp2678
g54
(dp2679
g62
I3
ssg63
g2673
sg56
(lp2680
S'<class wsgiref.util.FileWrapper at 0x02EEDE10>'
p2681
asbasbasbag49
(g65
g51
NtRp2682
(dp2683
g54
(dp2684
sg63
g2214
sg56
(lp2685
g49
(g70
g51
NtRp2686
(dp2687
g54
(dp2688
g74
g75
ssg63
g2682
sg56
(lp2689
S'wsgi.input'
p2690
asbag49
(g70
g51
NtRp2691
(dp2692
g54
(dp2693
g81
g82
ssg63
g2682
sg56
(lp2694
S':'
asbag49
(g70
g51
NtRp2695
(dp2696
g54
(dp2697
sg63
g2682
sg56
(lp2698
g49
(g50
g51
NtRp2699
(dp2700
g54
(dp2701
g62
I3
ssg63
g2695
sg56
(lp2702
S'<cStringIO.StringO object at 0x06A973C0>'
p2703
asbasbasbag49
(g65
g51
NtRp2704
(dp2705
g54
(dp2706
sg63
g2214
sg56
(lp2707
g49
(g70
g51
NtRp2708
(dp2709
g54
(dp2710
g74
g75
ssg63
g2704
sg56
(lp2711
S'wsgi.multiprocess'
p2712
asbag49
(g70
g51
NtRp2713
(dp2714
g54
(dp2715
g81
g82
ssg63
g2704
sg56
(lp2716
S':'
asbag49
(g70
g51
NtRp2717
(dp2718
g54
(dp2719
sg63
g2704
sg56
(lp2720
g49
(g50
g51
NtRp2721
(dp2722
g54
(dp2723
g62
I3
ssg63
g2717
sg56
(lp2724
g92
asbasbasbag49
(g65
g51
NtRp2725
(dp2726
g54
(dp2727
sg63
g2214
sg56
(lp2728
g49
(g70
g51
NtRp2729
(dp2730
g54
(dp2731
g74
g75
ssg63
g2725
sg56
(lp2732
S'wsgi.multithread'
p2733
asbag49
(g70
g51
NtRp2734
(dp2735
g54
(dp2736
g81
g82
ssg63
g2725
sg56
(lp2737
S':'
asbag49
(g70
g51
NtRp2738
(dp2739
g54
(dp2740
sg63
g2725
sg56
(lp2741
g49
(g50
g51
NtRp2742
(dp2743
g54
(dp2744
g62
I3
ssg63
g2738
sg56
(lp2745
g1465
asbasbasbag49
(g65
g51
NtRp2746
(dp2747
g54
(dp2748
sg63
g2214
sg56
(lp2749
g49
(g70
g51
NtRp2750
(dp2751
g54
(dp2752
g74
g75
ssg63
g2746
sg56
(lp2753
S'wsgi.run_once'
p2754
asbag49
(g70
g51
NtRp2755
(dp2756
g54
(dp2757
g81
g82
ssg63
g2746
sg56
(lp2758
S':'
asbag49
(g70
g51
NtRp2759
(dp2760
g54
(dp2761
sg63
g2746
sg56
(lp2762
g49
(g50
g51
NtRp2763
(dp2764
g54
(dp2765
g62
I3
ssg63
g2759
sg56
(lp2766
g92
asbasbasbag49
(g65
g51
NtRp2767
(dp2768
g54
(dp2769
sg63
g2214
sg56
(lp2770
g49
(g70
g51
NtRp2771
(dp2772
g54
(dp2773
g74
g75
ssg63
g2767
sg56
(lp2774
S'wsgi.url_scheme'
p2775
asbag49
(g70
g51
NtRp2776
(dp2777
g54
(dp2778
g81
g82
ssg63
g2767
sg56
(lp2779
S':'
asbag49
(g70
g51
NtRp2780
(dp2781
g54
(dp2782
sg63
g2767
sg56
(lp2783
g49
(g50
g51
NtRp2784
(dp2785
g54
(dp2786
g62
I3
ssg63
g2780
sg56
(lp2787
g1508
asbasbasbag49
(g65
g51
NtRp2788
(dp2789
g54
(dp2790
sg63
g2214
sg56
(lp2791
g49
(g70
g51
NtRp2792
(dp2793
g54
(dp2794
g74
g75
ssg63
g2788
sg56
(lp2795
S'wsgi.version'
p2796
asbag49
(g70
g51
NtRp2797
(dp2798
g54
(dp2799
g81
g82
ssg63
g2788
sg56
(lp2800
S':'
asbag49
(g70
g51
NtRp2801
(dp2802
g54
(dp2803
sg63
g2788
sg56
(lp2804
g49
(g50
g51
NtRp2805
(dp2806
g54
(dp2807
g62
I3
ssg63
g2801
sg56
(lp2808
S'1'
asbasbasbasbasbasbasbasbasbasbasbasbasbsS'frames'
p2809
(lp2810
(dp2811
S'file'
p2812
S'C:\\web2py\\gluon\\restricted.py'
p2813
sS'dump'
p2814
(dp2815
sS'lnum'
p2816
I205
sS'lines'
p2817
(dp2818
sS'call'
p2819
S'(code=r"response.write(\'<!DOCTYPE html>\\n<!-- paulirish....ponse.write(\'\\n</body>\\n</html>\\n\', escape=False)", environment={\'A\': <class \'gluon.html.A\'>, \'Auth\': <class \'gluon.tools.Auth\'>, \'B\': <class \'gluon.html.B\'>, \'BEAUTIFY\': <class \'gluon.html.BEAUTIFY\'>, \'BODY\': <class \'gluon.html.BODY\'>, \'BR\': <class \'gluon.html.BR\'>, \'BUTTON\': <class \'gluon.html.BUTTON\'>, \'CAT\': <class \'gluon.html.CAT\'>, \'CENTER\': <class \'gluon.html.CENTER\'>, \'CLEANUP\': <class \'gluon.validators.CLEANUP\'>, ...}, layer=r\'C:\\web2py\\applications\\unioeste_code\\views\\default/index.html\')'
p2820
sS'func'
p2821
S'restricted'
p2822
sa(dp2823
g2812
S'C:\\web2py\\applications\\unioeste_code\\views\\default\\index.html'
p2824
sg2814
(dp2825
sg2816
I86
sg2817
(dp2826
I96
S'    pass'
p2827
sI77
S'response.write(\' columns center">\\n          \', escape=False)'
p2828
sI78
S"response.write('\\n          ', escape=False)"
p2829
sI79
S"response.write('\\n\\n\\n', escape=False)"
p2830
sI80
S'response.write(H1(T("Current Problems")))'
p2831
sI81
S"response.write('\\n<ul>\\n', escape=False)"
p2832
sI82
S'for problem in problems:'
p2833
sI83
S"    response.write('\\n', escape=False)"
p2834
sI84
S'    user = db(db.auth_user.id==problem.created_by).select().first()'
p2835
sI85
S"    response.write('\\n', escape=False)"
p2836
sI86
S'    response.write(LI(A(problem.title, _href=URL("Problem", args=problem.id)), " by " + B(user.first_name) + " " + user.last_name + " " + str(SPAN(value=prettydate(problem.created_on), _style="color:green"))))'
p2837
sI87
S"    response.write('\\n', escape=False)"
p2838
sI88
S'    pass'
p2839
sI89
S"response.write('\\n\\n</ul>', escape=False)"
p2840
sI90
S"response.write('\\n          ', escape=False)"
p2841
sI91
S"response.write('\\n        </div>\\n        \\n        ', escape=False)"
p2842
sI92
S'if right_sidebar_enabled:'
p2843
sI93
S'    response.write(\'\\n        <div class="four columns">\\n          \', escape=False)'
p2844
sI94
S"    response.write('\\n          <h3>Right Sidebar</h3>\\n          <p></p>\\n          ', escape=False)"
p2845
sI95
S"    response.write('\\n        </div>    \\n        ', escape=False)"
p2846
ssg2819
S'()'
p2847
sg2821
S'<module>'
p2848
sasS'pyver'
p2849
S'Python 2.5.4: C:\\web2py\\web2py_no_console.exe'
p2850
sS'session'
p2851
g49
(g50
g51
NtRp2852
(dp2853
g54
(dp2854
sg56
(lp2855
g49
(g58
g51
NtRp2856
(dp2857
g54
(dp2858
g62
I5
ssg63
Nsg56
(lp2859
sbasbsS'etype'
p2860
S"<type 'exceptions.TypeError'>"
p2861
sS'date'
p2862
S'Mon Jul 30 15:50:24 2012'
p2863
sS'response'
p2864
g49
(g50
g51
NtRp2865
(dp2866
g54
(dp2867
sg56
(lp2868
g49
(g58
g51
NtRp2869
(dp2870
g54
(dp2871
g62
I5
ssg63
Nsg56
(lp2872
g49
(g65
g51
NtRp2873
(dp2874
g54
(dp2875
sg63
g2869
sg56
(lp2876
g49
(g70
g51
NtRp2877
(dp2878
g54
(dp2879
g74
g75
ssg63
g2873
sg56
(lp2880
g147
asbag49
(g70
g51
NtRp2881
(dp2882
g54
(dp2883
g81
g82
ssg63
g2873
sg56
(lp2884
S':'
asbag49
(g70
g51
NtRp2885
(dp2886
g54
(dp2887
sg63
g2873
sg56
(lp2888
g49
(g50
g51
NtRp2889
(dp2890
g54
(dp2891
g62
I5
ssg63
g2885
sg56
(lp2892
S'<cStringIO.StringO object at 0x06CFC860>'
p2893
asbasbasbag49
(g65
g51
NtRp2894
(dp2895
g54
(dp2896
sg63
g2869
sg56
(lp2897
g49
(g70
g51
NtRp2898
(dp2899
g54
(dp2900
g74
g75
ssg63
g2894
sg56
(lp2901
g213
asbag49
(g70
g51
NtRp2902
(dp2903
g54
(dp2904
g81
g82
ssg63
g2894
sg56
(lp2905
S':'
asbag49
(g70
g51
NtRp2906
(dp2907
g54
(dp2908
sg63
g2894
sg56
(lp2909
g49
(g50
g51
NtRp2910
(dp2911
g54
(dp2912
g62
I5
ssg63
g2906
sg56
(lp2913
g49
(g58
g51
NtRp2914
(dp2915
g54
(dp2916
g62
I4
ssg63
Nsg56
(lp2917
g49
(g65
g51
NtRp2918
(dp2919
g54
(dp2920
sg63
g2914
sg56
(lp2921
g49
(g70
g51
NtRp2922
(dp2923
g54
(dp2924
g74
g75
ssg63
g2918
sg56
(lp2925
S'session_id_unioeste_code'
p2926
asbag49
(g70
g51
NtRp2927
(dp2928
g54
(dp2929
g81
g82
ssg63
g2918
sg56
(lp2930
S':'
asbag49
(g70
g51
NtRp2931
(dp2932
g54
(dp2933
sg63
g2918
sg56
(lp2934
g49
(g50
g51
NtRp2935
(dp2936
g54
(dp2937
g62
I4
ssg63
g2931
sg56
(lp2938
g49
(g58
g51
NtRp2939
(dp2940
g54
(dp2941
g62
I3
ssg63
Nsg56
(lp2942
g49
(g65
g51
NtRp2943
(dp2944
g54
(dp2945
sg63
g2939
sg56
(lp2946
g49
(g70
g51
NtRp2947
(dp2948
g54
(dp2949
g74
g75
ssg63
g2943
sg56
(lp2950
g263
asbag49
(g70
g51
NtRp2951
(dp2952
g54
(dp2953
g81
g82
ssg63
g2943
sg56
(lp2954
S':'
asbag49
(g70
g51
NtRp2955
(dp2956
g54
(dp2957
sg63
g2943
sg56
(lp2958
g49
(g50
g51
NtRp2959
(dp2960
g54
(dp2961
g62
I3
ssg63
g2955
sg56
(lp2962
S''
asbasbasbag49
(g65
g51
NtRp2963
(dp2964
g54
(dp2965
sg63
g2939
sg56
(lp2966
g49
(g70
g51
NtRp2967
(dp2968
g54
(dp2969
g74
g75
ssg63
g2963
sg56
(lp2970
g284
asbag49
(g70
g51
NtRp2971
(dp2972
g54
(dp2973
g81
g82
ssg63
g2963
sg56
(lp2974
S':'
asbag49
(g70
g51
NtRp2975
(dp2976
g54
(dp2977
sg63
g2963
sg56
(lp2978
g49
(g50
g51
NtRp2979
(dp2980
g54
(dp2981
g62
I3
ssg63
g2975
sg56
(lp2982
S''
asbasbasbag49
(g65
g51
NtRp2983
(dp2984
g54
(dp2985
sg63
g2939
sg56
(lp2986
g49
(g70
g51
NtRp2987
(dp2988
g54
(dp2989
g74
g75
ssg63
g2983
sg56
(lp2990
g305
asbag49
(g70
g51
NtRp2991
(dp2992
g54
(dp2993
g81
g82
ssg63
g2983
sg56
(lp2994
S':'
asbag49
(g70
g51
NtRp2995
(dp2996
g54
(dp2997
sg63
g2983
sg56
(lp2998
g49
(g50
g51
NtRp2999
(dp3000
g54
(dp3001
g62
I3
ssg63
g2995
sg56
(lp3002
S''
asbasbasbag49
(g65
g51
NtRp3003
(dp3004
g54
(dp3005
sg63
g2939
sg56
(lp3006
g49
(g70
g51
NtRp3007
(dp3008
g54
(dp3009
g74
g75
ssg63
g3003
sg56
(lp3010
g326
asbag49
(g70
g51
NtRp3011
(dp3012
g54
(dp3013
g81
g82
ssg63
g3003
sg56
(lp3014
S':'
asbag49
(g70
g51
NtRp3015
(dp3016
g54
(dp3017
sg63
g3003
sg56
(lp3018
g49
(g50
g51
NtRp3019
(dp3020
g54
(dp3021
g62
I3
ssg63
g3015
sg56
(lp3022
S''
asbasbasbag49
(g65
g51
NtRp3023
(dp3024
g54
(dp3025
sg63
g2939
sg56
(lp3026
g49
(g70
g51
NtRp3027
(dp3028
g54
(dp3029
g74
g75
ssg63
g3023
sg56
(lp3030
g347
asbag49
(g70
g51
NtRp3031
(dp3032
g54
(dp3033
g81
g82
ssg63
g3023
sg56
(lp3034
S':'
asbag49
(g70
g51
NtRp3035
(dp3036
g54
(dp3037
sg63
g3023
sg56
(lp3038
g49
(g50
g51
NtRp3039
(dp3040
g54
(dp3041
g62
I3
ssg63
g3035
sg56
(lp3042
S'/'
asbasbasbag49
(g65
g51
NtRp3043
(dp3044
g54
(dp3045
sg63
g2939
sg56
(lp3046
g49
(g70
g51
NtRp3047
(dp3048
g54
(dp3049
g74
g75
ssg63
g3043
sg56
(lp3050
g368
asbag49
(g70
g51
NtRp3051
(dp3052
g54
(dp3053
g81
g82
ssg63
g3043
sg56
(lp3054
S':'
asbag49
(g70
g51
NtRp3055
(dp3056
g54
(dp3057
sg63
g3043
sg56
(lp3058
g49
(g50
g51
NtRp3059
(dp3060
g54
(dp3061
g62
I3
ssg63
g3055
sg56
(lp3062
S''
asbasbasbag49
(g65
g51
NtRp3063
(dp3064
g54
(dp3065
sg63
g2939
sg56
(lp3066
g49
(g70
g51
NtRp3067
(dp3068
g54
(dp3069
g74
g75
ssg63
g3063
sg56
(lp3070
g389
asbag49
(g70
g51
NtRp3071
(dp3072
g54
(dp3073
g81
g82
ssg63
g3063
sg56
(lp3074
S':'
asbag49
(g70
g51
NtRp3075
(dp3076
g54
(dp3077
sg63
g3063
sg56
(lp3078
g49
(g50
g51
NtRp3079
(dp3080
g54
(dp3081
g62
I3
ssg63
g3075
sg56
(lp3082
S''
asbasbasbasbasbasbasbasbasbasbasbag49
(g65
g51
NtRp3083
(dp3084
g54
(dp3085
sg63
g2869
sg56
(lp3086
g49
(g70
g51
NtRp3087
(dp3088
g54
(dp3089
g74
g75
ssg63
g3083
sg56
(lp3090
S'delimiters'
p3091
asbag49
(g70
g51
NtRp3092
(dp3093
g54
(dp3094
g81
g82
ssg63
g3083
sg56
(lp3095
S':'
asbag49
(g70
g51
NtRp3096
(dp3097
g54
(dp3098
sg63
g3083
sg56
(lp3099
g49
(g50
g51
NtRp3100
(dp3101
g54
(dp3102
g62
I5
ssg63
g3096
sg56
(lp3103
g49
(g58
g51
NtRp3104
(dp3105
g54
(dp3106
g62
I4
ssg63
Nsg56
(lp3107
g49
(g65
g51
NtRp3108
(dp3109
g54
(dp3110
sg63
g3104
sg56
(lp3111
g49
(g70
g51
NtRp3112
(dp3113
g54
(dp3114
sg63
g3108
sg56
(lp3115
g49
(g50
g51
NtRp3116
(dp3117
g54
(dp3118
g62
I4
ssg63
g3112
sg56
(lp3119
S'{{'
p3120
asbasbasbag49
(g65
g51
NtRp3121
(dp3122
g54
(dp3123
sg63
g3104
sg56
(lp3124
g49
(g70
g51
NtRp3125
(dp3126
g54
(dp3127
sg63
g3121
sg56
(lp3128
g49
(g50
g51
NtRp3129
(dp3130
g54
(dp3131
g62
I4
ssg63
g3125
sg56
(lp3132
S'}}'
p3133
asbasbasbasbasbasbasbag49
(g65
g51
NtRp3134
(dp3135
g54
(dp3136
sg63
g2869
sg56
(lp3137
g49
(g70
g51
NtRp3138
(dp3139
g54
(dp3140
g74
g75
ssg63
g3134
sg56
(lp3141
S'files'
p3142
asbag49
(g70
g51
NtRp3143
(dp3144
g54
(dp3145
g81
g82
ssg63
g3134
sg56
(lp3146
S':'
asbag49
(g70
g51
NtRp3147
(dp3148
g54
(dp3149
sg63
g3134
sg56
(lp3150
g49
(g50
g51
NtRp3151
(dp3152
g54
(dp3153
g62
I5
ssg63
g3147
sg56
(lp3154
g49
(g58
g51
NtRp3155
(dp3156
g54
(dp3157
g62
I4
ssg63
Nsg56
(lp3158
g49
(g65
g51
NtRp3159
(dp3160
g54
(dp3161
sg63
g3155
sg56
(lp3162
g49
(g70
g51
NtRp3163
(dp3164
g54
(dp3165
sg63
g3159
sg56
(lp3166
g49
(g50
g51
NtRp3167
(dp3168
g54
(dp3169
g62
I4
ssg63
g3163
sg56
(lp3170
S'/unioeste_code/static/js/jquery.js'
p3171
asbasbasbag49
(g65
g51
NtRp3172
(dp3173
g54
(dp3174
sg63
g3155
sg56
(lp3175
g49
(g70
g51
NtRp3176
(dp3177
g54
(dp3178
sg63
g3172
sg56
(lp3179
g49
(g50
g51
NtRp3180
(dp3181
g54
(dp3182
g62
I4
ssg63
g3176
sg56
(lp3183
S'/unioeste_code/static/css/calendar.css'
p3184
asbasbasbag49
(g65
g51
NtRp3185
(dp3186
g54
(dp3187
sg63
g3155
sg56
(lp3188
g49
(g70
g51
NtRp3189
(dp3190
g54
(dp3191
sg63
g3185
sg56
(lp3192
g49
(g50
g51
NtRp3193
(dp3194
g54
(dp3195
g62
I4
ssg63
g3189
sg56
(lp3196
S'/unioeste_code/static/js/calendar.js'
p3197
asbasbasbag49
(g65
g51
NtRp3198
(dp3199
g54
(dp3200
sg63
g3155
sg56
(lp3201
g49
(g70
g51
NtRp3202
(dp3203
g54
(dp3204
sg63
g3198
sg56
(lp3205
g49
(g50
g51
NtRp3206
(dp3207
g54
(dp3208
g62
I4
ssg63
g3202
sg56
(lp3209
S'/unioeste_code/static/js/web2py.js'
p3210
asbasbasbag49
(g65
g51
NtRp3211
(dp3212
g54
(dp3213
sg63
g3155
sg56
(lp3214
g49
(g70
g51
NtRp3215
(dp3216
g54
(dp3217
sg63
g3211
sg56
(lp3218
g49
(g50
g51
NtRp3219
(dp3220
g54
(dp3221
g62
I4
ssg63
g3215
sg56
(lp3222
S'/unioeste_code/static/css/skeleton.css'
p3223
asbasbasbag49
(g65
g51
NtRp3224
(dp3225
g54
(dp3226
sg63
g3155
sg56
(lp3227
g49
(g70
g51
NtRp3228
(dp3229
g54
(dp3230
sg63
g3224
sg56
(lp3231
g49
(g50
g51
NtRp3232
(dp3233
g54
(dp3234
g62
I4
ssg63
g3228
sg56
(lp3235
S'/unioeste_code/static/css/web2py.css'
p3236
asbasbasbag49
(g65
g51
NtRp3237
(dp3238
g54
(dp3239
sg63
g3155
sg56
(lp3240
g49
(g70
g51
NtRp3241
(dp3242
g54
(dp3243
sg63
g3237
sg56
(lp3244
g49
(g50
g51
NtRp3245
(dp3246
g54
(dp3247
g62
I4
ssg63
g3241
sg56
(lp3248
S'/unioeste_code/static/css/superfish.css'
p3249
asbasbasbag49
(g65
g51
NtRp3250
(dp3251
g54
(dp3252
sg63
g3155
sg56
(lp3253
g49
(g70
g51
NtRp3254
(dp3255
g54
(dp3256
sg63
g3250
sg56
(lp3257
g49
(g50
g51
NtRp3258
(dp3259
g54
(dp3260
g62
I4
ssg63
g3254
sg56
(lp3261
S'/unioeste_code/static/js/superfish.js'
p3262
asbasbasbasbasbasbasbag49
(g65
g51
NtRp3263
(dp3264
g54
(dp3265
sg63
g2869
sg56
(lp3266
g49
(g70
g51
NtRp3267
(dp3268
g54
(dp3269
g74
g75
ssg63
g3263
sg56
(lp3270
S'flash'
p3271
asbag49
(g70
g51
NtRp3272
(dp3273
g54
(dp3274
g81
g82
ssg63
g3263
sg56
(lp3275
S':'
asbag49
(g70
g51
NtRp3276
(dp3277
g54
(dp3278
sg63
g3263
sg56
(lp3279
g49
(g50
g51
NtRp3280
(dp3281
g54
(dp3282
g62
I5
ssg63
g3276
sg56
(lp3283
S''
asbasbasbag49
(g65
g51
NtRp3284
(dp3285
g54
(dp3286
sg63
g2869
sg56
(lp3287
g49
(g70
g51
NtRp3288
(dp3289
g54
(dp3290
g74
g75
ssg63
g3284
sg56
(lp3291
S'generic_patterns'
p3292
asbag49
(g70
g51
NtRp3293
(dp3294
g54
(dp3295
g81
g82
ssg63
g3284
sg56
(lp3296
S':'
asbag49
(g70
g51
NtRp3297
(dp3298
g54
(dp3299
sg63
g3284
sg56
(lp3300
g49
(g50
g51
NtRp3301
(dp3302
g54
(dp3303
g62
I5
ssg63
g3297
sg56
(lp3304
g49
(g58
g51
NtRp3305
(dp3306
g54
(dp3307
g62
I4
ssg63
Nsg56
(lp3308
sbasbasbasbag49
(g65
g51
NtRp3309
(dp3310
g54
(dp3311
sg63
g2869
sg56
(lp3312
g49
(g70
g51
NtRp3313
(dp3314
g54
(dp3315
g74
g75
ssg63
g3309
sg56
(lp3316
S'headers'
p3317
asbag49
(g70
g51
NtRp3318
(dp3319
g54
(dp3320
g81
g82
ssg63
g3309
sg56
(lp3321
S':'
asbag49
(g70
g51
NtRp3322
(dp3323
g54
(dp3324
sg63
g3309
sg56
(lp3325
g49
(g50
g51
NtRp3326
(dp3327
g54
(dp3328
g62
I5
ssg63
g3322
sg56
(lp3329
g49
(g58
g51
NtRp3330
(dp3331
g54
(dp3332
g62
I4
ssg63
Nsg56
(lp3333
g49
(g65
g51
NtRp3334
(dp3335
g54
(dp3336
sg63
g3330
sg56
(lp3337
g49
(g70
g51
NtRp3338
(dp3339
g54
(dp3340
g74
g75
ssg63
g3334
sg56
(lp3341
S'Cache-Control'
p3342
asbag49
(g70
g51
NtRp3343
(dp3344
g54
(dp3345
g81
g82
ssg63
g3334
sg56
(lp3346
S':'
asbag49
(g70
g51
NtRp3347
(dp3348
g54
(dp3349
sg63
g3334
sg56
(lp3350
g49
(g50
g51
NtRp3351
(dp3352
g54
(dp3353
g62
I4
ssg63
g3347
sg56
(lp3354
S'no-store, no-cache, must-revalidate, post-check=0, pre-check=0'
p3355
asbasbasbag49
(g65
g51
NtRp3356
(dp3357
g54
(dp3358
sg63
g3330
sg56
(lp3359
g49
(g70
g51
NtRp3360
(dp3361
g54
(dp3362
g74
g75
ssg63
g3356
sg56
(lp3363
S'Content-Type'
p3364
asbag49
(g70
g51
NtRp3365
(dp3366
g54
(dp3367
g81
g82
ssg63
g3356
sg56
(lp3368
S':'
asbag49
(g70
g51
NtRp3369
(dp3370
g54
(dp3371
sg63
g3356
sg56
(lp3372
g49
(g50
g51
NtRp3373
(dp3374
g54
(dp3375
g62
I4
ssg63
g3369
sg56
(lp3376
S'text/html; charset=utf-8'
p3377
asbasbasbag49
(g65
g51
NtRp3378
(dp3379
g54
(dp3380
sg63
g3330
sg56
(lp3381
g49
(g70
g51
NtRp3382
(dp3383
g54
(dp3384
g74
g75
ssg63
g3378
sg56
(lp3385
S'Expires'
p3386
asbag49
(g70
g51
NtRp3387
(dp3388
g54
(dp3389
g81
g82
ssg63
g3378
sg56
(lp3390
S':'
asbag49
(g70
g51
NtRp3391
(dp3392
g54
(dp3393
sg63
g3378
sg56
(lp3394
g49
(g50
g51
NtRp3395
(dp3396
g54
(dp3397
g62
I4
ssg63
g3391
sg56
(lp3398
S'Mon, 30 Jul 2012 18:50:24 GMT'
p3399
asbasbasbag49
(g65
g51
NtRp3400
(dp3401
g54
(dp3402
sg63
g3330
sg56
(lp3403
g49
(g70
g51
NtRp3404
(dp3405
g54
(dp3406
g74
g75
ssg63
g3400
sg56
(lp3407
S'Pragma'
p3408
asbag49
(g70
g51
NtRp3409
(dp3410
g54
(dp3411
g81
g82
ssg63
g3400
sg56
(lp3412
S':'
asbag49
(g70
g51
NtRp3413
(dp3414
g54
(dp3415
sg63
g3400
sg56
(lp3416
g49
(g50
g51
NtRp3417
(dp3418
g54
(dp3419
g62
I4
ssg63
g3413
sg56
(lp3420
S'no-cache'
p3421
asbasbasbag49
(g65
g51
NtRp3422
(dp3423
g54
(dp3424
sg63
g3330
sg56
(lp3425
g49
(g70
g51
NtRp3426
(dp3427
g54
(dp3428
g74
g75
ssg63
g3422
sg56
(lp3429
S'X-Powered-By'
p3430
asbag49
(g70
g51
NtRp3431
(dp3432
g54
(dp3433
g81
g82
ssg63
g3422
sg56
(lp3434
S':'
asbag49
(g70
g51
NtRp3435
(dp3436
g54
(dp3437
sg63
g3422
sg56
(lp3438
g49
(g50
g51
NtRp3439
(dp3440
g54
(dp3441
g62
I4
ssg63
g3435
sg56
(lp3442
S'web2py'
p3443
asbasbasbasbasbasbasbag49
(g65
g51
NtRp3444
(dp3445
g54
(dp3446
sg63
g2869
sg56
(lp3447
g49
(g70
g51
NtRp3448
(dp3449
g54
(dp3450
g74
g75
ssg63
g3444
sg56
(lp3451
S'menu'
p3452
asbag49
(g70
g51
NtRp3453
(dp3454
g54
(dp3455
g81
g82
ssg63
g3444
sg56
(lp3456
S':'
asbag49
(g70
g51
NtRp3457
(dp3458
g54
(dp3459
sg63
g3444
sg56
(lp3460
g49
(g50
g51
NtRp3461
(dp3462
g54
(dp3463
g62
I5
ssg63
g3457
sg56
(lp3464
g49
(g58
g51
NtRp3465
(dp3466
g54
(dp3467
g62
I4
ssg63
Nsg56
(lp3468
g49
(g65
g51
NtRp3469
(dp3470
g54
(dp3471
sg63
g3465
sg56
(lp3472
g49
(g70
g51
NtRp3473
(dp3474
g54
(dp3475
sg63
g3469
sg56
(lp3476
g49
(g50
g51
NtRp3477
(dp3478
g54
(dp3479
g62
I4
ssg63
g3473
sg56
(lp3480
g49
(g58
g51
NtRp3481
(dp3482
g54
(dp3483
g62
I3
ssg63
Nsg56
(lp3484
g49
(g65
g51
NtRp3485
(dp3486
g54
(dp3487
sg63
g3481
sg56
(lp3488
g49
(g70
g51
NtRp3489
(dp3490
g54
(dp3491
sg63
g3485
sg56
(lp3492
g49
(g50
g51
NtRp3493
(dp3494
g54
(dp3495
g62
I3
ssg63
g3489
sg56
(lp3496
cgluon.languages
lazyT_unpickle
p3497
(S't\x04\x00\x00\x00Home'
tRp3498
asbasbasbag49
(g65
g51
NtRp3499
(dp3500
g54
(dp3501
sg63
g3481
sg56
(lp3502
g49
(g70
g51
NtRp3503
(dp3504
g54
(dp3505
sg63
g3499
sg56
(lp3506
g49
(g50
g51
NtRp3507
(dp3508
g54
(dp3509
g62
I3
ssg63
g3503
sg56
(lp3510
g92
asbasbasbag49
(g65
g51
NtRp3511
(dp3512
g54
(dp3513
sg63
g3481
sg56
(lp3514
g49
(g70
g51
NtRp3515
(dp3516
g54
(dp3517
sg63
g3511
sg56
(lp3518
g49
(g50
g51
NtRp3519
(dp3520
g54
(dp3521
g62
I3
ssg63
g3515
sg56
(lp3522
S'/unioeste_code/default/index'
p3523
asbasbasbag49
(g65
g51
NtRp3524
(dp3525
g54
(dp3526
sg63
g3481
sg56
(lp3527
g49
(g70
g51
NtRp3528
(dp3529
g54
(dp3530
sg63
g3524
sg56
(lp3531
g49
(g50
g51
NtRp3532
(dp3533
g54
(dp3534
g62
I3
ssg63
g3528
sg56
(lp3535
g49
(g58
g51
NtRp3536
(dp3537
g54
(dp3538
g62
I2
ssg63
Nsg56
(lp3539
sbasbasbasbasbasbasbasbag49
(g65
g51
NtRp3540
(dp3541
g54
(dp3542
sg63
g3465
sg56
(lp3543
g49
(g70
g51
NtRp3544
(dp3545
g54
(dp3546
sg63
g3540
sg56
(lp3547
g49
(g50
g51
NtRp3548
(dp3549
g54
(dp3550
g62
I4
ssg63
g3544
sg56
(lp3551
g49
(g58
g51
NtRp3552
(dp3553
g54
(dp3554
g62
I3
ssg63
Nsg56
(lp3555
g49
(g65
g51
NtRp3556
(dp3557
g54
(dp3558
sg63
g3552
sg56
(lp3559
g49
(g70
g51
NtRp3560
(dp3561
g54
(dp3562
sg63
g3556
sg56
(lp3563
g49
(g50
g51
NtRp3564
(dp3565
g54
(dp3566
g62
I3
ssg63
g3560
sg56
(lp3567
g49
(cgluon.html
SPAN
p3568
g51
NtRp3569
(dp3570
g54
(dp3571
g74
S'color:yellow'
p3572
ssg63
g49
(cgluon.html
A
p3573
g51
NtRp3574
(dp3575
g54
(dp3576
S'_onclick'
p3577
S'javascript:void(0);return false;'
p3578
sS'_href'
p3579
S'#'
ssg63
g49
(cgluon.html
LI
p3580
g51
NtRp3581
(dp3582
g54
(dp3583
S'_class'
p3584
S'web2py-menu-expand'
p3585
ssg63
g49
(cgluon.html
UL
p3586
g51
NtRp3587
(dp3588
g54
(dp3589
S'mobile'
p3590
I00
sS'li_class'
p3591
g3585
sg3584
S'sf-menu'
p3592
sS'ul_class'
p3593
S'web2py-menu-vertical'
p3594
sS'li_active'
p3595
S'web2py-menu-active'
p3596
ssg63
Nsg56
(lp3597
g49
(g3580
g51
NtRp3598
(dp3599
g54
(dp3600
sg63
g3587
sg56
(lp3601
g49
(g3573
g51
NtRp3602
(dp3603
g54
(dp3604
g3579
g3523
ssg63
g3598
sg56
(lp3605
g3498
asbasbag3581
asbsg56
(lp3606
g3574
ag49
(g3586
g51
NtRp3607
(dp3608
g54
(dp3609
g3584
g3594
ssg63
g3581
sg56
(lp3610
g49
(g3580
g51
NtRp3611
(dp3612
g54
(dp3613
sg63
g3607
sg56
(lp3614
g49
(g3573
g51
NtRp3615
(dp3616
g54
(dp3617
g3579
S'/admin/default/site'
p3618
ssg63
g3611
sg56
(lp3619
g3497
(S's\x08\x00\x00\x00My Sites'
tRp3620
asbasbag49
(g3580
g51
NtRp3621
(dp3622
g54
(dp3623
g3584
g3585
ssg63
g3607
sg56
(lp3624
g49
(g3573
g51
NtRp3625
(dp3626
g54
(dp3627
g3579
S'/admin/default/design/unioeste_code'
p3628
ssg63
g3621
sg56
(lp3629
g3497
(S's\x08\x00\x00\x00This App'
tRp3630
asbag49
(g3586
g51
NtRp3631
(dp3632
g54
(dp3633
g3584
g3594
ssg63
g3621
sg56
(lp3634
g49
(g3580
g51
NtRp3635
(dp3636
g54
(dp3637
sg63
g3631
sg56
(lp3638
g49
(g3573
g51
NtRp3639
(dp3640
g54
(dp3641
g3579
S'/admin/default/edit/unioeste_code/controllers/default.py'
p3642
ssg63
g3635
sg56
(lp3643
g3497
(S't\x0b\x00\x00\x00Controlador'
tRp3644
asbasbag49
(g3580
g51
NtRp3645
(dp3646
g54
(dp3647
sg63
g3631
sg56
(lp3648
g49
(g3573
g51
NtRp3649
(dp3650
g54
(dp3651
g3579
S'/admin/default/edit/unioeste_code/views/default/index.html'
p3652
ssg63
g3645
sg56
(lp3653
g3497
(S's\x0e\x00\x00\x00Visualiza\xc3\xa7\xc3\xa3o'
tRp3654
asbasbag49
(g3580
g51
NtRp3655
(dp3656
g54
(dp3657
sg63
g3631
sg56
(lp3658
g49
(g3573
g51
NtRp3659
(dp3660
g54
(dp3661
g3579
S'/admin/default/edit/unioeste_code/views/layout.html'
p3662
ssg63
g3655
sg56
(lp3663
g3497
(S't\x06\x00\x00\x00Layout'
tRp3664
asbasbag49
(g3580
g51
NtRp3665
(dp3666
g54
(dp3667
sg63
g3631
sg56
(lp3668
g49
(g3573
g51
NtRp3669
(dp3670
g54
(dp3671
g3579
S'/admin/default/edit/unioeste_code/static/css/web2py.css'
p3672
ssg63
g3665
sg56
(lp3673
g3497
(S't\n\x00\x00\x00Stylesheet'
tRp3674
asbasbag49
(g3580
g51
NtRp3675
(dp3676
g54
(dp3677
sg63
g3631
sg56
(lp3678
g49
(g3573
g51
NtRp3679
(dp3680
g54
(dp3681
g3579
S'/admin/default/edit/unioeste_code/models/db.py'
p3682
ssg63
g3675
sg56
(lp3683
g3497
(S's\t\x00\x00\x00Modelo BD'
tRp3684
asbasbag49
(g3580
g51
NtRp3685
(dp3686
g54
(dp3687
sg63
g3631
sg56
(lp3688
g49
(g3573
g51
NtRp3689
(dp3690
g54
(dp3691
g3579
S'/admin/default/edit/unioeste_code/models/menu.py'
p3692
ssg63
g3685
sg56
(lp3693
g3497
(S's\x0e\x00\x00\x00Modelo de Menu'
tRp3694
asbasbag49
(g3580
g51
NtRp3695
(dp3696
g54
(dp3697
sg63
g3631
sg56
(lp3698
g49
(g3573
g51
NtRp3699
(dp3700
g54
(dp3701
g3579
S'/unioeste_code/appadmin/index'
p3702
ssg63
g3695
sg56
(lp3703
g3497
(S's\x0e\x00\x00\x00Banco de dados'
tRp3704
asbasbag49
(g3580
g51
NtRp3705
(dp3706
g54
(dp3707
sg63
g3631
sg56
(lp3708
g49
(g3573
g51
NtRp3709
(dp3710
g54
(dp3711
g3579
S'/admin/default/errors/unioeste_code'
p3712
ssg63
g3705
sg56
(lp3713
g3497
(S't\x06\x00\x00\x00Errors'
tRp3714
asbasbag49
(g3580
g51
NtRp3715
(dp3716
g54
(dp3717
sg63
g3631
sg56
(lp3718
g49
(g3573
g51
NtRp3719
(dp3720
g54
(dp3721
g3579
S'/admin/default/about/unioeste_code'
p3722
ssg63
g3715
sg56
(lp3723
g3497
(S't\x05\x00\x00\x00About'
tRp3724
asbasbasbasbag49
(g3580
g51
NtRp3725
(dp3726
g54
(dp3727
g3584
g3585
ssg63
g3607
sg56
(lp3728
g49
(g3573
g51
NtRp3729
(dp3730
g54
(dp3731
g3579
S'http://www.web2py.com'
p3732
ssg63
g3725
sg56
(lp3733
S'web2py.com'
p3734
asbag49
(g3586
g51
NtRp3735
(dp3736
g54
(dp3737
g3584
g3594
ssg63
g3725
sg56
(lp3738
g49
(g3580
g51
NtRp3739
(dp3740
g54
(dp3741
sg63
g3735
sg56
(lp3742
g49
(g3573
g51
NtRp3743
(dp3744
g54
(dp3745
g3579
S'http://www.web2py.com/examples/default/download'
p3746
ssg63
g3739
sg56
(lp3747
g3497
(S't\x08\x00\x00\x00Download'
tRp3748
asbasbag49
(g3580
g51
NtRp3749
(dp3750
g54
(dp3751
sg63
g3735
sg56
(lp3752
g49
(g3573
g51
NtRp3753
(dp3754
g54
(dp3755
g3579
S'http://www.web2py.com/examples/default/support'
p3756
ssg63
g3749
sg56
(lp3757
g3497
(S't\x07\x00\x00\x00Support'
tRp3758
asbasbag49
(g3580
g51
NtRp3759
(dp3760
g54
(dp3761
sg63
g3735
sg56
(lp3762
g49
(g3573
g51
NtRp3763
(dp3764
g54
(dp3765
g3579
S'http://web2py.com/demo_admin'
p3766
ssg63
g3759
sg56
(lp3767
g3497
(S't\x04\x00\x00\x00Demo'
tRp3768
asbasbag49
(g3580
g51
NtRp3769
(dp3770
g54
(dp3771
sg63
g3735
sg56
(lp3772
g49
(g3573
g51
NtRp3773
(dp3774
g54
(dp3775
g3579
S'http://web2py.com/examples/default/examples'
p3776
ssg63
g3769
sg56
(lp3777
g3497
(S's\x0e\x00\x00\x00Quick Examples'
tRp3778
asbasbag49
(g3580
g51
NtRp3779
(dp3780
g54
(dp3781
sg63
g3735
sg56
(lp3782
g49
(g3573
g51
NtRp3783
(dp3784
g54
(dp3785
g3579
S'http://web2py.com/AlterEgo'
p3786
ssg63
g3779
sg56
(lp3787
g3497
(S't\x03\x00\x00\x00FAQ'
tRp3788
asbasbag49
(g3580
g51
NtRp3789
(dp3790
g54
(dp3791
sg63
g3735
sg56
(lp3792
g49
(g3573
g51
NtRp3793
(dp3794
g54
(dp3795
g3579
S'http://www.web2py.com/examples/default/videos/'
p3796
ssg63
g3789
sg56
(lp3797
g3497
(S't\x06\x00\x00\x00Videos'
tRp3798
asbasbag49
(g3580
g51
NtRp3799
(dp3800
g54
(dp3801
sg63
g3735
sg56
(lp3802
g49
(g3573
g51
NtRp3803
(dp3804
g54
(dp3805
g3579
S'http://web2py.com/appliances'
p3806
ssg63
g3799
sg56
(lp3807
g3497
(S's\x11\x00\x00\x00Free Applications'
tRp3808
asbasbag49
(g3580
g51
NtRp3809
(dp3810
g54
(dp3811
sg63
g3735
sg56
(lp3812
g49
(g3573
g51
NtRp3813
(dp3814
g54
(dp3815
g3579
S'http://web2py.com/plugins'
p3816
ssg63
g3809
sg56
(lp3817
g3497
(S't\x07\x00\x00\x00Plugins'
tRp3818
asbasbag49
(g3580
g51
NtRp3819
(dp3820
g54
(dp3821
sg63
g3735
sg56
(lp3822
g49
(g3573
g51
NtRp3823
(dp3824
g54
(dp3825
g3579
S'http://web2py.com/layouts'
p3826
ssg63
g3819
sg56
(lp3827
g3497
(S't\x07\x00\x00\x00Layouts'
tRp3828
asbasbag49
(g3580
g51
NtRp3829
(dp3830
g54
(dp3831
sg63
g3735
sg56
(lp3832
g49
(g3573
g51
NtRp3833
(dp3834
g54
(dp3835
g3579
S'http://web2pyslices.com/'
p3836
ssg63
g3829
sg56
(lp3837
g3497
(S't\x07\x00\x00\x00Recipes'
tRp3838
asbasbag49
(g3580
g51
NtRp3839
(dp3840
g54
(dp3841
sg63
g3735
sg56
(lp3842
g49
(g3573
g51
NtRp3843
(dp3844
g54
(dp3845
g3579
S'http://web2py.com/semantic'
p3846
ssg63
g3839
sg56
(lp3847
g3497
(S't\x08\x00\x00\x00Semantic'
tRp3848
asbasbasbasbag49
(g3580
g51
NtRp3849
(dp3850
g54
(dp3851
g3584
g3585
ssg63
g3607
sg56
(lp3852
g49
(g3573
g51
NtRp3853
(dp3854
g54
(dp3855
g3579
S'http://www.web2py.com/book'
p3856
ssg63
g3849
sg56
(lp3857
g3497
(S't\r\x00\x00\x00Documentation'
tRp3858
asbag49
(g3586
g51
NtRp3859
(dp3860
g54
(dp3861
g3584
g3594
ssg63
g3849
sg56
(lp3862
g49
(g3580
g51
NtRp3863
(dp3864
g54
(dp3865
sg63
g3859
sg56
(lp3866
g49
(g3573
g51
NtRp3867
(dp3868
g54
(dp3869
g3579
S'http://www.web2py.com/book/default/chapter/00'
p3870
ssg63
g3863
sg56
(lp3871
g3497
(S't\x07\x00\x00\x00Preface'
tRp3872
asbasbag49
(g3580
g51
NtRp3873
(dp3874
g54
(dp3875
sg63
g3859
sg56
(lp3876
g49
(g3573
g51
NtRp3877
(dp3878
g54
(dp3879
g3579
S'http://www.web2py.com/book/default/chapter/01'
p3880
ssg63
g3873
sg56
(lp3881
g3497
(S't\x0c\x00\x00\x00Introduction'
tRp3882
asbasbag49
(g3580
g51
NtRp3883
(dp3884
g54
(dp3885
sg63
g3859
sg56
(lp3886
g49
(g3573
g51
NtRp3887
(dp3888
g54
(dp3889
g3579
S'http://www.web2py.com/book/default/chapter/02'
p3890
ssg63
g3883
sg56
(lp3891
g3497
(S't\x06\x00\x00\x00Python'
tRp3892
asbasbag49
(g3580
g51
NtRp3893
(dp3894
g54
(dp3895
sg63
g3859
sg56
(lp3896
g49
(g3573
g51
NtRp3897
(dp3898
g54
(dp3899
g3579
S'http://www.web2py.com/book/default/chapter/03'
p3900
ssg63
g3893
sg56
(lp3901
g3497
(S't\x08\x00\x00\x00Overview'
tRp3902
asbasbag49
(g3580
g51
NtRp3903
(dp3904
g54
(dp3905
sg63
g3859
sg56
(lp3906
g49
(g3573
g51
NtRp3907
(dp3908
g54
(dp3909
g3579
S'http://www.web2py.com/book/default/chapter/04'
p3910
ssg63
g3903
sg56
(lp3911
g3497
(S's\x08\x00\x00\x00The Core'
tRp3912
asbasbag49
(g3580
g51
NtRp3913
(dp3914
g54
(dp3915
sg63
g3859
sg56
(lp3916
g49
(g3573
g51
NtRp3917
(dp3918
g54
(dp3919
g3579
S'http://www.web2py.com/book/default/chapter/05'
p3920
ssg63
g3913
sg56
(lp3921
g3497
(S's\t\x00\x00\x00The Views'
tRp3922
asbasbag49
(g3580
g51
NtRp3923
(dp3924
g54
(dp3925
sg63
g3859
sg56
(lp3926
g49
(g3573
g51
NtRp3927
(dp3928
g54
(dp3929
g3579
S'http://www.web2py.com/book/default/chapter/06'
p3930
ssg63
g3923
sg56
(lp3931
g3497
(S's\x0e\x00\x00\x00Banco de dados'
tRp3932
asbasbag49
(g3580
g51
NtRp3933
(dp3934
g54
(dp3935
sg63
g3859
sg56
(lp3936
g49
(g3573
g51
NtRp3937
(dp3938
g54
(dp3939
g3579
S'http://www.web2py.com/book/default/chapter/07'
p3940
ssg63
g3933
sg56
(lp3941
g3497
(S's\x14\x00\x00\x00Forms and Validators'
tRp3942
asbasbag49
(g3580
g51
NtRp3943
(dp3944
g54
(dp3945
sg63
g3859
sg56
(lp3946
g49
(g3573
g51
NtRp3947
(dp3948
g54
(dp3949
g3579
S'http://www.web2py.com/book/default/chapter/08'
p3950
ssg63
g3943
sg56
(lp3951
g3497
(S's\r\x00\x00\x00Email and SMS'
tRp3952
asbasbag49
(g3580
g51
NtRp3953
(dp3954
g54
(dp3955
sg63
g3859
sg56
(lp3956
g49
(g3573
g51
NtRp3957
(dp3958
g54
(dp3959
g3579
S'http://www.web2py.com/book/default/chapter/09'
p3960
ssg63
g3953
sg56
(lp3961
g3497
(S's\x0e\x00\x00\x00Access Control'
tRp3962
asbasbag49
(g3580
g51
NtRp3963
(dp3964
g54
(dp3965
sg63
g3859
sg56
(lp3966
g49
(g3573
g51
NtRp3967
(dp3968
g54
(dp3969
g3579
S'http://www.web2py.com/book/default/chapter/10'
p3970
ssg63
g3963
sg56
(lp3971
g3497
(S't\x08\x00\x00\x00Services'
tRp3972
asbasbag49
(g3580
g51
NtRp3973
(dp3974
g54
(dp3975
sg63
g3859
sg56
(lp3976
g49
(g3573
g51
NtRp3977
(dp3978
g54
(dp3979
g3579
S'http://www.web2py.com/book/default/chapter/11'
p3980
ssg63
g3973
sg56
(lp3981
g3497
(S's\x0c\x00\x00\x00Ajax Recipes'
tRp3982
asbasbag49
(g3580
g51
NtRp3983
(dp3984
g54
(dp3985
sg63
g3859
sg56
(lp3986
g49
(g3573
g51
NtRp3987
(dp3988
g54
(dp3989
g3579
S'http://www.web2py.com/book/default/chapter/12'
p3990
ssg63
g3983
sg56
(lp3991
g3497
(S's\x16\x00\x00\x00Components and Plugins'
tRp3992
asbasbag49
(g3580
g51
NtRp3993
(dp3994
g54
(dp3995
sg63
g3859
sg56
(lp3996
g49
(g3573
g51
NtRp3997
(dp3998
g54
(dp3999
g3579
S'http://www.web2py.com/book/default/chapter/13'
p4000
ssg63
g3993
sg56
(lp4001
g3497
(S's\x12\x00\x00\x00Deployment Recipes'
tRp4002
asbasbag49
(g3580
g51
NtRp4003
(dp4004
g54
(dp4005
sg63
g3859
sg56
(lp4006
g49
(g3573
g51
NtRp4007
(dp4008
g54
(dp4009
g3579
S'http://www.web2py.com/book/default/chapter/14'
p4010
ssg63
g4003
sg56
(lp4011
g3497
(S's\r\x00\x00\x00Other Recipes'
tRp4012
asbasbag49
(g3580
g51
NtRp4013
(dp4014
g54
(dp4015
sg63
g3859
sg56
(lp4016
g49
(g3573
g51
NtRp4017
(dp4018
g54
(dp4019
g3579
S'http://stores.lulu.com/web2py'
p4020
ssg63
g4013
sg56
(lp4021
g3497
(S's\r\x00\x00\x00Buy this book'
tRp4022
asbasbasbasbag49
(g3580
g51
NtRp4023
(dp4024
g54
(dp4025
g3584
g3585
ssg63
g3607
sg56
(lp4026
g49
(g3573
g51
NtRp4027
(dp4028
g54
(dp4029
g3577
g3578
sg3579
S'#'
ssg63
g4023
sg56
(lp4030
g3497
(S't\t\x00\x00\x00Community'
tRp4031
asbag49
(g3586
g51
NtRp4032
(dp4033
g54
(dp4034
g3584
g3594
ssg63
g4023
sg56
(lp4035
g49
(g3580
g51
NtRp4036
(dp4037
g54
(dp4038
sg63
g4032
sg56
(lp4039
g49
(g3573
g51
NtRp4040
(dp4041
g54
(dp4042
g3579
S'http://www.web2py.com/examples/default/usergroups'
p4043
ssg63
g4036
sg56
(lp4044
g3497
(S't\x06\x00\x00\x00Groups'
tRp4045
asbasbag49
(g3580
g51
NtRp4046
(dp4047
g54
(dp4048
sg63
g4032
sg56
(lp4049
g49
(g3573
g51
NtRp4050
(dp4051
g54
(dp4052
g3579
S'http://twitter.com/web2py'
p4053
ssg63
g4046
sg56
(lp4054
g3497
(S't\x07\x00\x00\x00Twitter'
tRp4055
asbasbag49
(g3580
g51
NtRp4056
(dp4057
g54
(dp4058
sg63
g4032
sg56
(lp4059
g49
(g3573
g51
NtRp4060
(dp4061
g54
(dp4062
g3579
S'http://webchat.freenode.net/?channels=web2py'
p4063
ssg63
g4056
sg56
(lp4064
g3497
(S's\t\x00\x00\x00Live Chat'
tRp4065
asbasbasbasbag49
(g3580
g51
NtRp4066
(dp4067
g54
(dp4068
g3584
g3585
ssg63
g3607
sg56
(lp4069
g49
(g3573
g51
NtRp4070
(dp4071
g54
(dp4072
g3577
g3578
sg3579
S'#'
ssg63
g4066
sg56
(lp4073
g3497
(S't\x07\x00\x00\x00Plugins'
tRp4074
asbag49
(g3586
g51
NtRp4075
(dp4076
g54
(dp4077
g3584
g3594
ssg63
g4066
sg56
(lp4078
g49
(g3580
g51
NtRp4079
(dp4080
g54
(dp4081
sg63
g4075
sg56
(lp4082
g49
(g3573
g51
NtRp4083
(dp4084
g54
(dp4085
g3579
S'http://web2py.com/examples/default/download'
p4086
ssg63
g4079
sg56
(lp4087
S'plugin_wiki'
p4088
asbasbag49
(g3580
g51
NtRp4089
(dp4090
g54
(dp4091
sg63
g4075
sg56
(lp4092
g49
(g3573
g51
NtRp4093
(dp4094
g54
(dp4095
g3579
g3816
ssg63
g4089
sg56
(lp4096
g3497
(S's\r\x00\x00\x00Other Plugins'
tRp4097
asbasbag49
(g3580
g51
NtRp4098
(dp4099
g54
(dp4100
sg63
g4075
sg56
(lp4101
g49
(g3573
g51
NtRp4102
(dp4103
g54
(dp4104
g3579
g3826
ssg63
g4098
sg56
(lp4105
g3497
(S's\x0e\x00\x00\x00Layout Plugins'
tRp4106
asbasbasbasbasbasbsg56
(lp4107
g3569
asbsg56
(lp4108
g3443
asbasbasbasbag49
(g65
g51
NtRp4109
(dp4110
g54
(dp4111
sg63
g3552
sg56
(lp4112
g49
(g70
g51
NtRp4113
(dp4114
g54
(dp4115
sg63
g4109
sg56
(lp4116
g49
(g50
g51
NtRp4117
(dp4118
g54
(dp4119
g62
I3
ssg63
g4113
sg56
(lp4120
g92
asbasbasbag49
(g65
g51
NtRp4121
(dp4122
g54
(dp4123
sg63
g3552
sg56
(lp4124
g49
(g70
g51
NtRp4125
(dp4126
g54
(dp4127
sg63
g4121
sg56
(lp4128
g49
(g50
g51
NtRp4129
(dp4130
g54
(dp4131
g62
I3
ssg63
g4125
sg56
(lp4132
S'None'
p4133
asbasbasbag49
(g65
g51
NtRp4134
(dp4135
g54
(dp4136
sg63
g3552
sg56
(lp4137
g49
(g70
g51
NtRp4138
(dp4139
g54
(dp4140
sg63
g4134
sg56
(lp4141
g49
(g50
g51
NtRp4142
(dp4143
g54
(dp4144
g62
I3
ssg63
g4138
sg56
(lp4145
g49
(g58
g51
NtRp4146
(dp4147
g54
(dp4148
g62
I2
ssg63
Nsg56
(lp4149
g49
(g65
g51
NtRp4150
(dp4151
g54
(dp4152
sg63
g4146
sg56
(lp4153
g49
(g70
g51
NtRp4154
(dp4155
g54
(dp4156
sg63
g4150
sg56
(lp4157
g49
(g50
g51
NtRp4158
(dp4159
g54
(dp4160
g62
I2
ssg63
g4154
sg56
(lp4161
g49
(g58
g51
NtRp4162
(dp4163
g54
(dp4164
g62
I1
ssg63
Nsg56
(lp4165
g49
(g65
g51
NtRp4166
(dp4167
g54
(dp4168
sg63
g4162
sg56
(lp4169
g49
(g70
g51
NtRp4170
(dp4171
g54
(dp4172
sg63
g4166
sg56
(lp4173
g49
(g50
g51
NtRp4174
(dp4175
g54
(dp4176
g62
I1
ssg63
g4170
sg56
(lp4177
g3620
asbasbasbag49
(g65
g51
NtRp4178
(dp4179
g54
(dp4180
sg63
g4162
sg56
(lp4181
g49
(g70
g51
NtRp4182
(dp4183
g54
(dp4184
sg63
g4178
sg56
(lp4185
g49
(g50
g51
NtRp4186
(dp4187
g54
(dp4188
g62
I1
ssg63
g4182
sg56
(lp4189
I00
asbasbasbag49
(g65
g51
NtRp4190
(dp4191
g54
(dp4192
sg63
g4162
sg56
(lp4193
g49
(g70
g51
NtRp4194
(dp4195
g54
(dp4196
sg63
g4190
sg56
(lp4197
g49
(g50
g51
NtRp4198
(dp4199
g54
(dp4200
g62
I1
ssg63
g4194
sg56
(lp4201
g3618
asbasbasbasbasbasbasbag49
(g65
g51
NtRp4202
(dp4203
g54
(dp4204
sg63
g4146
sg56
(lp4205
g49
(g70
g51
NtRp4206
(dp4207
g54
(dp4208
sg63
g4202
sg56
(lp4209
g49
(g50
g51
NtRp4210
(dp4211
g54
(dp4212
g62
I2
ssg63
g4206
sg56
(lp4213
g49
(g58
g51
NtRp4214
(dp4215
g54
(dp4216
g62
I1
ssg63
Nsg56
(lp4217
g49
(g65
g51
NtRp4218
(dp4219
g54
(dp4220
sg63
g4214
sg56
(lp4221
g49
(g70
g51
NtRp4222
(dp4223
g54
(dp4224
sg63
g4218
sg56
(lp4225
g49
(g50
g51
NtRp4226
(dp4227
g54
(dp4228
g62
I1
ssg63
g4222
sg56
(lp4229
g3630
asbasbasbag49
(g65
g51
NtRp4230
(dp4231
g54
(dp4232
sg63
g4214
sg56
(lp4233
g49
(g70
g51
NtRp4234
(dp4235
g54
(dp4236
sg63
g4230
sg56
(lp4237
g49
(g50
g51
NtRp4238
(dp4239
g54
(dp4240
g62
I1
ssg63
g4234
sg56
(lp4241
I00
asbasbasbag49
(g65
g51
NtRp4242
(dp4243
g54
(dp4244
sg63
g4214
sg56
(lp4245
g49
(g70
g51
NtRp4246
(dp4247
g54
(dp4248
sg63
g4242
sg56
(lp4249
g49
(g50
g51
NtRp4250
(dp4251
g54
(dp4252
g62
I1
ssg63
g4246
sg56
(lp4253
g3628
asbasbasbag49
(g65
g51
NtRp4254
(dp4255
g54
(dp4256
sg63
g4214
sg56
(lp4257
g49
(g70
g51
NtRp4258
(dp4259
g54
(dp4260
sg63
g4254
sg56
(lp4261
g49
(g50
g51
NtRp4262
(dp4263
g54
(dp4264
g62
I1
ssg63
g4258
sg56
(lp4265
(lp4266
(g3644
I00
g3642
tp4267
a(g3654
I00
g3652
tp4268
a(g3664
I00
g3662
tp4269
a(g3674
I00
g3672
tp4270
a(g3684
I00
g3682
tp4271
a(g3694
I00
g3692
tp4272
a(g3704
I00
g3702
tp4273
a(g3714
I00
g3712
tp4274
a(g3724
I00
g3722
tp4275
aasbasbasbasbasbasbasbag49
(g65
g51
NtRp4276
(dp4277
g54
(dp4278
sg63
g4146
sg56
(lp4279
g49
(g70
g51
NtRp4280
(dp4281
g54
(dp4282
sg63
g4276
sg56
(lp4283
g49
(g50
g51
NtRp4284
(dp4285
g54
(dp4286
g62
I2
ssg63
g4280
sg56
(lp4287
g49
(g58
g51
NtRp4288
(dp4289
g54
(dp4290
g62
I1
ssg63
Nsg56
(lp4291
g49
(g65
g51
NtRp4292
(dp4293
g54
(dp4294
sg63
g4288
sg56
(lp4295
g49
(g70
g51
NtRp4296
(dp4297
g54
(dp4298
sg63
g4292
sg56
(lp4299
g49
(g50
g51
NtRp4300
(dp4301
g54
(dp4302
g62
I1
ssg63
g4296
sg56
(lp4303
g3734
asbasbasbag49
(g65
g51
NtRp4304
(dp4305
g54
(dp4306
sg63
g4288
sg56
(lp4307
g49
(g70
g51
NtRp4308
(dp4309
g54
(dp4310
sg63
g4304
sg56
(lp4311
g49
(g50
g51
NtRp4312
(dp4313
g54
(dp4314
g62
I1
ssg63
g4308
sg56
(lp4315
I00
asbasbasbag49
(g65
g51
NtRp4316
(dp4317
g54
(dp4318
sg63
g4288
sg56
(lp4319
g49
(g70
g51
NtRp4320
(dp4321
g54
(dp4322
sg63
g4316
sg56
(lp4323
g49
(g50
g51
NtRp4324
(dp4325
g54
(dp4326
g62
I1
ssg63
g4320
sg56
(lp4327
g3732
asbasbasbag49
(g65
g51
NtRp4328
(dp4329
g54
(dp4330
sg63
g4288
sg56
(lp4331
g49
(g70
g51
NtRp4332
(dp4333
g54
(dp4334
sg63
g4328
sg56
(lp4335
g49
(g50
g51
NtRp4336
(dp4337
g54
(dp4338
g62
I1
ssg63
g4332
sg56
(lp4339
(lp4340
(g3748
I00
g3746
tp4341
a(g3758
I00
g3756
tp4342
a(g3768
I00
g3766
tp4343
a(g3778
I00
g3776
tp4344
a(g3788
I00
g3786
tp4345
a(g3798
I00
g3796
tp4346
a(g3808
I00
g3806
tp4347
a(g3818
I00
g3816
tp4348
a(g3828
I00
g3826
tp4349
a(g3838
I00
g3836
tp4350
a(g3848
I00
g3846
tp4351
aasbasbasbasbasbasbasbag49
(g65
g51
NtRp4352
(dp4353
g54
(dp4354
sg63
g4146
sg56
(lp4355
g49
(g70
g51
NtRp4356
(dp4357
g54
(dp4358
sg63
g4352
sg56
(lp4359
g49
(g50
g51
NtRp4360
(dp4361
g54
(dp4362
g62
I2
ssg63
g4356
sg56
(lp4363
g49
(g58
g51
NtRp4364
(dp4365
g54
(dp4366
g62
I1
ssg63
Nsg56
(lp4367
g49
(g65
g51
NtRp4368
(dp4369
g54
(dp4370
sg63
g4364
sg56
(lp4371
g49
(g70
g51
NtRp4372
(dp4373
g54
(dp4374
sg63
g4368
sg56
(lp4375
g49
(g50
g51
NtRp4376
(dp4377
g54
(dp4378
g62
I1
ssg63
g4372
sg56
(lp4379
g3858
asbasbasbag49
(g65
g51
NtRp4380
(dp4381
g54
(dp4382
sg63
g4364
sg56
(lp4383
g49
(g70
g51
NtRp4384
(dp4385
g54
(dp4386
sg63
g4380
sg56
(lp4387
g49
(g50
g51
NtRp4388
(dp4389
g54
(dp4390
g62
I1
ssg63
g4384
sg56
(lp4391
I00
asbasbasbag49
(g65
g51
NtRp4392
(dp4393
g54
(dp4394
sg63
g4364
sg56
(lp4395
g49
(g70
g51
NtRp4396
(dp4397
g54
(dp4398
sg63
g4392
sg56
(lp4399
g49
(g50
g51
NtRp4400
(dp4401
g54
(dp4402
g62
I1
ssg63
g4396
sg56
(lp4403
g3856
asbasbasbag49
(g65
g51
NtRp4404
(dp4405
g54
(dp4406
sg63
g4364
sg56
(lp4407
g49
(g70
g51
NtRp4408
(dp4409
g54
(dp4410
sg63
g4404
sg56
(lp4411
g49
(g50
g51
NtRp4412
(dp4413
g54
(dp4414
g62
I1
ssg63
g4408
sg56
(lp4415
(lp4416
(g3872
I00
g3870
tp4417
a(g3882
I00
g3880
tp4418
a(g3892
I00
g3890
tp4419
a(g3902
I00
g3900
tp4420
a(g3912
I00
g3910
tp4421
a(g3922
I00
g3920
tp4422
a(g3932
I00
g3930
tp4423
a(g3942
I00
g3940
tp4424
a(g3952
I00
g3950
tp4425
a(g3962
I00
g3960
tp4426
a(g3972
I00
g3970
tp4427
a(g3982
I00
g3980
tp4428
a(g3992
I00
g3990
tp4429
a(g4002
I00
g4000
tp4430
a(g4012
I00
g4010
tp4431
a(g4022
I00
g4020
tp4432
aasbasbasbasbasbasbasbag49
(g65
g51
NtRp4433
(dp4434
g54
(dp4435
sg63
g4146
sg56
(lp4436
g49
(g70
g51
NtRp4437
(dp4438
g54
(dp4439
sg63
g4433
sg56
(lp4440
g49
(g50
g51
NtRp4441
(dp4442
g54
(dp4443
g62
I2
ssg63
g4437
sg56
(lp4444
g49
(g58
g51
NtRp4445
(dp4446
g54
(dp4447
g62
I1
ssg63
Nsg56
(lp4448
g49
(g65
g51
NtRp4449
(dp4450
g54
(dp4451
sg63
g4445
sg56
(lp4452
g49
(g70
g51
NtRp4453
(dp4454
g54
(dp4455
sg63
g4449
sg56
(lp4456
g49
(g50
g51
NtRp4457
(dp4458
g54
(dp4459
g62
I1
ssg63
g4453
sg56
(lp4460
g4031
asbasbasbag49
(g65
g51
NtRp4461
(dp4462
g54
(dp4463
sg63
g4445
sg56
(lp4464
g49
(g70
g51
NtRp4465
(dp4466
g54
(dp4467
sg63
g4461
sg56
(lp4468
g49
(g50
g51
NtRp4469
(dp4470
g54
(dp4471
g62
I1
ssg63
g4465
sg56
(lp4472
I00
asbasbasbag49
(g65
g51
NtRp4473
(dp4474
g54
(dp4475
sg63
g4445
sg56
(lp4476
g49
(g70
g51
NtRp4477
(dp4478
g54
(dp4479
sg63
g4473
sg56
(lp4480
g49
(g50
g51
NtRp4481
(dp4482
g54
(dp4483
g62
I1
ssg63
g4477
sg56
(lp4484
Nasbasbasbag49
(g65
g51
NtRp4485
(dp4486
g54
(dp4487
sg63
g4445
sg56
(lp4488
g49
(g70
g51
NtRp4489
(dp4490
g54
(dp4491
sg63
g4485
sg56
(lp4492
g49
(g50
g51
NtRp4493
(dp4494
g54
(dp4495
g62
I1
ssg63
g4489
sg56
(lp4496
(lp4497
(g4045
I00
g4043
tp4498
a(g4055
I00
g4053
tp4499
a(g4065
I00
g4063
tp4500
aasbasbasbasbasbasbasbag49
(g65
g51
NtRp4501
(dp4502
g54
(dp4503
sg63
g4146
sg56
(lp4504
g49
(g70
g51
NtRp4505
(dp4506
g54
(dp4507
sg63
g4501
sg56
(lp4508
g49
(g50
g51
NtRp4509
(dp4510
g54
(dp4511
g62
I2
ssg63
g4505
sg56
(lp4512
g49
(g58
g51
NtRp4513
(dp4514
g54
(dp4515
g62
I1
ssg63
Nsg56
(lp4516
g49
(g65
g51
NtRp4517
(dp4518
g54
(dp4519
sg63
g4513
sg56
(lp4520
g49
(g70
g51
NtRp4521
(dp4522
g54
(dp4523
sg63
g4517
sg56
(lp4524
g49
(g50
g51
NtRp4525
(dp4526
g54
(dp4527
g62
I1
ssg63
g4521
sg56
(lp4528
g4074
asbasbasbag49
(g65
g51
NtRp4529
(dp4530
g54
(dp4531
sg63
g4513
sg56
(lp4532
g49
(g70
g51
NtRp4533
(dp4534
g54
(dp4535
sg63
g4529
sg56
(lp4536
g49
(g50
g51
NtRp4537
(dp4538
g54
(dp4539
g62
I1
ssg63
g4533
sg56
(lp4540
I00
asbasbasbag49
(g65
g51
NtRp4541
(dp4542
g54
(dp4543
sg63
g4513
sg56
(lp4544
g49
(g70
g51
NtRp4545
(dp4546
g54
(dp4547
sg63
g4541
sg56
(lp4548
g49
(g50
g51
NtRp4549
(dp4550
g54
(dp4551
g62
I1
ssg63
g4545
sg56
(lp4552
Nasbasbasbag49
(g65
g51
NtRp4553
(dp4554
g54
(dp4555
sg63
g4513
sg56
(lp4556
g49
(g70
g51
NtRp4557
(dp4558
g54
(dp4559
sg63
g4553
sg56
(lp4560
g49
(g50
g51
NtRp4561
(dp4562
g54
(dp4563
g62
I1
ssg63
g4557
sg56
(lp4564
(lp4565
(g4088
I00
g4086
tp4566
a(g4097
I00
g3816
tp4567
a(g4106
I00
g3826
tp4568
aasbasbasbasbasbasbasbasbasbasbasbasbasbasbasbasbasbasbasbag49
(g65
g51
NtRp4569
(dp4570
g54
(dp4571
sg63
g2869
sg56
(lp4572
g49
(g70
g51
NtRp4573
(dp4574
g54
(dp4575
g74
g75
ssg63
g4569
sg56
(lp4576
S'meta'
p4577
asbag49
(g70
g51
NtRp4578
(dp4579
g54
(dp4580
g81
g82
ssg63
g4569
sg56
(lp4581
S':'
asbag49
(g70
g51
NtRp4582
(dp4583
g54
(dp4584
sg63
g4569
sg56
(lp4585
g49
(g50
g51
NtRp4586
(dp4587
g54
(dp4588
g62
I5
ssg63
g4582
sg56
(lp4589
g49
(g58
g51
NtRp4590
(dp4591
g54
(dp4592
g62
I4
ssg63
Nsg56
(lp4593
g49
(g65
g51
NtRp4594
(dp4595
g54
(dp4596
sg63
g4590
sg56
(lp4597
g49
(g70
g51
NtRp4598
(dp4599
g54
(dp4600
g74
g75
ssg63
g4594
sg56
(lp4601
S'author'
p4602
asbag49
(g70
g51
NtRp4603
(dp4604
g54
(dp4605
g81
g82
ssg63
g4594
sg56
(lp4606
S':'
asbag49
(g70
g51
NtRp4607
(dp4608
g54
(dp4609
sg63
g4594
sg56
(lp4610
g49
(g50
g51
NtRp4611
(dp4612
g54
(dp4613
g62
I4
ssg63
g4607
sg56
(lp4614
S'Your Name <you@example.com>'
p4615
asbasbasbag49
(g65
g51
NtRp4616
(dp4617
g54
(dp4618
sg63
g4590
sg56
(lp4619
g49
(g70
g51
NtRp4620
(dp4621
g54
(dp4622
g74
g75
ssg63
g4616
sg56
(lp4623
S'copyright'
p4624
asbag49
(g70
g51
NtRp4625
(dp4626
g54
(dp4627
g81
g82
ssg63
g4616
sg56
(lp4628
S':'
asbag49
(g70
g51
NtRp4629
(dp4630
g54
(dp4631
sg63
g4616
sg56
(lp4632
g49
(g50
g51
NtRp4633
(dp4634
g54
(dp4635
g62
I4
ssg63
g4629
sg56
(lp4636
S'Copyright 2011'
p4637
asbasbasbag49
(g65
g51
NtRp4638
(dp4639
g54
(dp4640
sg63
g4590
sg56
(lp4641
g49
(g70
g51
NtRp4642
(dp4643
g54
(dp4644
g74
g75
ssg63
g4638
sg56
(lp4645
S'description'
p4646
asbag49
(g70
g51
NtRp4647
(dp4648
g54
(dp4649
g81
g82
ssg63
g4638
sg56
(lp4650
S':'
asbag49
(g70
g51
NtRp4651
(dp4652
g54
(dp4653
sg63
g4638
sg56
(lp4654
g49
(g50
g51
NtRp4655
(dp4656
g54
(dp4657
g62
I4
ssg63
g4651
sg56
(lp4658
S'a cool new app'
p4659
asbasbasbag49
(g65
g51
NtRp4660
(dp4661
g54
(dp4662
sg63
g4590
sg56
(lp4663
g49
(g70
g51
NtRp4664
(dp4665
g54
(dp4666
g74
g75
ssg63
g4660
sg56
(lp4667
S'generator'
p4668
asbag49
(g70
g51
NtRp4669
(dp4670
g54
(dp4671
g81
g82
ssg63
g4660
sg56
(lp4672
S':'
asbag49
(g70
g51
NtRp4673
(dp4674
g54
(dp4675
sg63
g4660
sg56
(lp4676
g49
(g50
g51
NtRp4677
(dp4678
g54
(dp4679
g62
I4
ssg63
g4673
sg56
(lp4680
S'Web2py Web Framework'
p4681
asbasbasbag49
(g65
g51
NtRp4682
(dp4683
g54
(dp4684
sg63
g4590
sg56
(lp4685
g49
(g70
g51
NtRp4686
(dp4687
g54
(dp4688
g74
g75
ssg63
g4682
sg56
(lp4689
S'keywords'
p4690
asbag49
(g70
g51
NtRp4691
(dp4692
g54
(dp4693
g81
g82
ssg63
g4682
sg56
(lp4694
S':'
asbag49
(g70
g51
NtRp4695
(dp4696
g54
(dp4697
sg63
g4682
sg56
(lp4698
g49
(g50
g51
NtRp4699
(dp4700
g54
(dp4701
g62
I4
ssg63
g4695
sg56
(lp4702
S'web2py, python, framework'
p4703
asbasbasbasbasbasbasbag49
(g65
g51
NtRp4704
(dp4705
g54
(dp4706
sg63
g2869
sg56
(lp4707
g49
(g70
g51
NtRp4708
(dp4709
g54
(dp4710
g74
g75
ssg63
g4704
sg56
(lp4711
S'postprocessing'
p4712
asbag49
(g70
g51
NtRp4713
(dp4714
g54
(dp4715
g81
g82
ssg63
g4704
sg56
(lp4716
S':'
asbag49
(g70
g51
NtRp4717
(dp4718
g54
(dp4719
sg63
g4704
sg56
(lp4720
g49
(g50
g51
NtRp4721
(dp4722
g54
(dp4723
g62
I5
ssg63
g4717
sg56
(lp4724
g49
(g58
g51
NtRp4725
(dp4726
g54
(dp4727
g62
I4
ssg63
Nsg56
(lp4728
sbasbasbasbag49
(g65
g51
NtRp4729
(dp4730
g54
(dp4731
sg63
g2869
sg56
(lp4732
g49
(g70
g51
NtRp4733
(dp4734
g54
(dp4735
g74
g75
ssg63
g4729
sg56
(lp4736
S'session_file'
p4737
asbag49
(g70
g51
NtRp4738
(dp4739
g54
(dp4740
g81
g82
ssg63
g4729
sg56
(lp4741
S':'
asbag49
(g70
g51
NtRp4742
(dp4743
g54
(dp4744
sg63
g4729
sg56
(lp4745
g49
(g50
g51
NtRp4746
(dp4747
g54
(dp4748
g62
I5
ssg63
g4742
sg56
(lp4749
S"<open file 'C:\\web2py\\applications\\unioeste_code\\sessions\\127.0.0.1-e2123eb0-50ff-4f28-8e81-a6ab4f6057bb', mode 'rb+' at 0x06D4AD10>"
p4750
asbasbasbag49
(g65
g51
NtRp4751
(dp4752
g54
(dp4753
sg63
g2869
sg56
(lp4754
g49
(g70
g51
NtRp4755
(dp4756
g54
(dp4757
g74
g75
ssg63
g4751
sg56
(lp4758
S'session_filename'
p4759
asbag49
(g70
g51
NtRp4760
(dp4761
g54
(dp4762
g81
g82
ssg63
g4751
sg56
(lp4763
S':'
asbag49
(g70
g51
NtRp4764
(dp4765
g54
(dp4766
sg63
g4751
sg56
(lp4767
g49
(g50
g51
NtRp4768
(dp4769
g54
(dp4770
g62
I5
ssg63
g4764
sg56
(lp4771
S'C:\\web2py\\applications\\unioeste_code\\sessions\\127.0.0.1-e2123eb0-50ff-4f28-8e81-a6ab4f6057bb'
p4772
asbasbasbag49
(g65
g51
NtRp4773
(dp4774
g54
(dp4775
sg63
g2869
sg56
(lp4776
g49
(g70
g51
NtRp4777
(dp4778
g54
(dp4779
g74
g75
ssg63
g4773
sg56
(lp4780
S'session_id'
p4781
asbag49
(g70
g51
NtRp4782
(dp4783
g54
(dp4784
g81
g82
ssg63
g4773
sg56
(lp4785
S':'
asbag49
(g70
g51
NtRp4786
(dp4787
g54
(dp4788
sg63
g4773
sg56
(lp4789
g49
(g50
g51
NtRp4790
(dp4791
g54
(dp4792
g62
I5
ssg63
g4786
sg56
(lp4793
S'127.0.0.1-e2123eb0-50ff-4f28-8e81-a6ab4f6057bb'
p4794
asbasbasbag49
(g65
g51
NtRp4795
(dp4796
g54
(dp4797
sg63
g2869
sg56
(lp4798
g49
(g70
g51
NtRp4799
(dp4800
g54
(dp4801
g74
g75
ssg63
g4795
sg56
(lp4802
S'session_id_name'
p4803
asbag49
(g70
g51
NtRp4804
(dp4805
g54
(dp4806
g81
g82
ssg63
g4795
sg56
(lp4807
S':'
asbag49
(g70
g51
NtRp4808
(dp4809
g54
(dp4810
sg63
g4795
sg56
(lp4811
g49
(g50
g51
NtRp4812
(dp4813
g54
(dp4814
g62
I5
ssg63
g4808
sg56
(lp4815
g2926
asbasbasbag49
(g65
g51
NtRp4816
(dp4817
g54
(dp4818
sg63
g2869
sg56
(lp4819
g49
(g70
g51
NtRp4820
(dp4821
g54
(dp4822
g74
g75
ssg63
g4816
sg56
(lp4823
S'session_locked'
p4824
asbag49
(g70
g51
NtRp4825
(dp4826
g54
(dp4827
g81
g82
ssg63
g4816
sg56
(lp4828
S':'
asbag49
(g70
g51
NtRp4829
(dp4830
g54
(dp4831
sg63
g4816
sg56
(lp4832
g49
(g50
g51
NtRp4833
(dp4834
g54
(dp4835
g62
I5
ssg63
g4829
sg56
(lp4836
g1465
asbasbasbag49
(g65
g51
NtRp4837
(dp4838
g54
(dp4839
sg63
g2869
sg56
(lp4840
g49
(g70
g51
NtRp4841
(dp4842
g54
(dp4843
g74
g75
ssg63
g4837
sg56
(lp4844
S'session_new'
p4845
asbag49
(g70
g51
NtRp4846
(dp4847
g54
(dp4848
g81
g82
ssg63
g4837
sg56
(lp4849
S':'
asbag49
(g70
g51
NtRp4850
(dp4851
g54
(dp4852
sg63
g4837
sg56
(lp4853
g49
(g50
g51
NtRp4854
(dp4855
g54
(dp4856
g62
I5
ssg63
g4850
sg56
(lp4857
g92
asbasbasbag49
(g65
g51
NtRp4858
(dp4859
g54
(dp4860
sg63
g2869
sg56
(lp4861
g49
(g70
g51
NtRp4862
(dp4863
g54
(dp4864
g74
g75
ssg63
g4858
sg56
(lp4865
S'status'
p4866
asbag49
(g70
g51
NtRp4867
(dp4868
g54
(dp4869
g81
g82
ssg63
g4858
sg56
(lp4870
S':'
asbag49
(g70
g51
NtRp4871
(dp4872
g54
(dp4873
sg63
g4858
sg56
(lp4874
g49
(g50
g51
NtRp4875
(dp4876
g54
(dp4877
g62
I5
ssg63
g4871
sg56
(lp4878
S'200'
p4879
asbasbasbag49
(g65
g51
NtRp4880
(dp4881
g54
(dp4882
sg63
g2869
sg56
(lp4883
g49
(g70
g51
NtRp4884
(dp4885
g54
(dp4886
g74
g75
ssg63
g4880
sg56
(lp4887
S'subtitle'
p4888
asbag49
(g70
g51
NtRp4889
(dp4890
g54
(dp4891
g81
g82
ssg63
g4880
sg56
(lp4892
S':'
asbag49
(g70
g51
NtRp4893
(dp4894
g54
(dp4895
sg63
g4880
sg56
(lp4896
g49
(g50
g51
NtRp4897
(dp4898
g54
(dp4899
g62
I5
ssg63
g4893
sg56
(lp4900
g3497
(S's\x0f\x00\x00\x00Personalize-me!'
tRp4901
asbasbasbag49
(g65
g51
NtRp4902
(dp4903
g54
(dp4904
sg63
g2869
sg56
(lp4905
g49
(g70
g51
NtRp4906
(dp4907
g54
(dp4908
g74
g75
ssg63
g4902
sg56
(lp4909
S'title'
p4910
asbag49
(g70
g51
NtRp4911
(dp4912
g54
(dp4913
g81
g82
ssg63
g4902
sg56
(lp4914
S':'
asbag49
(g70
g51
NtRp4915
(dp4916
g54
(dp4917
sg63
g4902
sg56
(lp4918
g49
(g50
g51
NtRp4919
(dp4920
g54
(dp4921
g62
I5
ssg63
g4915
sg56
(lp4922
S'Unioeste Code'
p4923
asbasbasbag49
(g65
g51
NtRp4924
(dp4925
g54
(dp4926
sg63
g2869
sg56
(lp4927
g49
(g70
g51
NtRp4928
(dp4929
g54
(dp4930
g74
g75
ssg63
g4924
sg56
(lp4931
g2129
asbag49
(g70
g51
NtRp4932
(dp4933
g54
(dp4934
g81
g82
ssg63
g4924
sg56
(lp4935
S':'
asbag49
(g70
g51
NtRp4936
(dp4937
g54
(dp4938
sg63
g4924
sg56
(lp4939
g49
(g50
g51
NtRp4940
(dp4941
g54
(dp4942
g62
I5
ssg63
g4936
sg56
(lp4943
g2142
asbasbasbag49
(g65
g51
NtRp4944
(dp4945
g54
(dp4946
sg63
g2869
sg56
(lp4947
g49
(g70
g51
NtRp4948
(dp4949
g54
(dp4950
g74
g75
ssg63
g4944
sg56
(lp4951
S'view'
p4952
asbag49
(g70
g51
NtRp4953
(dp4954
g54
(dp4955
g81
g82
ssg63
g4944
sg56
(lp4956
S':'
asbag49
(g70
g51
NtRp4957
(dp4958
g54
(dp4959
sg63
g4944
sg56
(lp4960
g49
(g50
g51
NtRp4961
(dp4962
g54
(dp4963
g62
I5
ssg63
g4957
sg56
(lp4964
S'default/index.html'
p4965
asbasbasbasbasbsS'locals'
p4966
(dp4967
S'Service'
p4968
S"<class 'gluon.tools.Service'>"
p4969
sS'OBJECT'
p4970
S"<class 'gluon.html.OBJECT'>"
p4971
sS'SQLDB'
p4972
S"<class 'gluon.dal.DAL'>"
p4973
sg2851
S"<Storage {'_Session__hash': 'Pd\\x93j9*\\xb3\\xde\\x... {'version': '20.0.1132.57', 'name': 'Chrome'}}}>"
p4974
sS'LINK'
p4975
S"<class 'gluon.html.LINK'>"
p4976
sS'BR'
p4977
S"<class 'gluon.html.BR'>"
p4978
sS'local_import'
p4979
S'<function <lambda> at 0x06B34570>'
p4980
sS'OPTGROUP'
p4981
S"<class 'gluon.html.OPTGROUP'>"
p4982
sS'PRE'
p4983
S"<class 'gluon.html.PRE'>"
p4984
sS'IS_INT_IN_RANGE'
p4985
S"<class 'gluon.validators.IS_INT_IN_RANGE'>"
p4986
sS'left_sidebar_enabled'
p4987
g92
sS'IS_LOWER'
p4988
S"<class 'gluon.validators.IS_LOWER'>"
p4989
sS'IS_STRONG'
p4990
S"<class 'gluon.validators.IS_STRONG'>"
p4991
sS'Recaptcha'
p4992
S"<class 'gluon.tools.Recaptcha'>"
p4993
sS'cache'
p4994
S'<gluon.cache.Cache object at 0x06A97390>'
p4995
sS'IS_IN_DB'
p4996
S"<class 'gluon.validators.IS_IN_DB'>"
p4997
sS'TAG'
p4998
S'<gluon.html.__TAG__ object at 0x0266BE30>'
p4999
sS'SQLField'
p5000
S"<class 'gluon.dal.Field'>"
p5001
sS'BODY'
p5002
S"<class 'gluon.html.BODY'>"
p5003
sS'IS_DATE_IN_RANGE'
p5004
S"<class 'gluon.validators.IS_DATE_IN_RANGE'>"
p5005
sS'TH'
p5006
S"<class 'gluon.html.TH'>"
p5007
sS'URL'
p5008
S'<function URL at 0x026CD8F0>'
p5009
sS'__file__'
p5010
S"r'C:\\web2py\\applications\\unioeste_code\\views\\default/index.html'"
p5011
sS'db'
p5012
S"<DAL {'comment': <Table {'body': <gluon.dal.Fiel...object at 0x06AAA650>, '_singular': 'Problem'}>}>"
p5013
sS'auth'
p5014
S'<gluon.tools.Auth object at 0x06AACAF0>'
p5015
sS'P'
S"<class 'gluon.html.P'>"
p5016
sS'TFOOT'
p5017
S"<class 'gluon.html.TFOOT'>"
p5018
sS'XHTML'
p5019
S"<class 'gluon.html.XHTML'>"
p5020
sS'ON'
p5021
g1465
sS'OL'
p5022
S"<class 'gluon.html.OL'>"
p5023
sS'TEXTAREA'
p5024
S"<class 'gluon.html.TEXTAREA'>"
p5025
sS'MENU'
p5026
S"<class 'gluon.html.MENU'>"
p5027
sS'LOAD'
p5028
S'<function LOAD at 0x029454B0>'
p5029
sS'CODE'
p5030
S"<class 'gluon.html.CODE'>"
p5031
sS'HTTP'
p5032
S"<class 'gluon.http.HTTP'>"
p5033
sS'HR'
p5034
S"<class 'gluon.html.HR'>"
p5035
sS'IS_DATETIME'
p5036
S"<class 'gluon.validators.IS_DATETIME'>"
p5037
sS'HEAD'
p5038
S"<class 'gluon.html.HEAD'>"
p5039
sS'LABEL'
p5040
S"<class 'gluon.html.LABEL'>"
p5041
sS'CLEANUP'
p5042
S"<class 'gluon.validators.CLEANUP'>"
p5043
sS'SELECT'
p5044
S"<class 'gluon.html.SELECT'>"
p5045
sS'CENTER'
p5046
S"<class 'gluon.html.CENTER'>"
p5047
sS'prettydate'
p5048
S'<function prettydate at 0x0324DEF0>'
p5049
sS'Crud'
p5050
S"<class 'gluon.tools.Crud'>"
p5051
sS'Auth'
p5052
S"<class 'gluon.tools.Auth'>"
p5053
sS'__builtins__'
p5054
S"{'ArithmeticError': <type 'exceptions.ArithmeticError'>, 'AssertionError': <type 'exceptions.AssertionError'>, 'AttributeError': <type 'exceptions.AttributeError'>, 'BaseException': <type 'exceptions.BaseException'>, 'DeprecationWarning': <type 'exceptions.DeprecationWarning'>, 'EOFError': <type 'exceptions.EOFError'>, 'Ellipsis': Ellipsis, 'EnvironmentError': <type 'exceptions.EnvironmentError'>, 'Exception': <type 'exceptions.Exception'>, 'False': False, ...}"
p5055
sS'HTML'
p5056
S"<class 'gluon.html.HTML'>"
p5057
sS'SQLFORM'
p5058
S"<class 'gluon.sqlhtml.SQLFORM'>"
p5059
sS'EM'
p5060
S"<class 'gluon.html.EM'>"
p5061
sS'redirect'
p5062
S'<function redirect at 0x02548F70>'
p5063
sS'FIELDSET'
p5064
S"<class 'gluon.html.FIELDSET'>"
p5065
sS'IS_EQUAL_TO'
p5066
S"<class 'gluon.validators.IS_EQUAL_TO'>"
p5067
sS'embed64'
p5068
S'<function embed64 at 0x026D1430>'
p5069
sS'IS_LIST_OF'
p5070
S"<class 'gluon.validators.IS_LIST_OF'>"
p5071
sS'__name__'
p5072
S"'__restricted__'"
p5073
sS'EMBED'
p5074
S"<class 'gluon.html.EMBED'>"
p5075
sS'_'
S'<function _ at 0x06B34CF0>'
p5076
sS'FORM'
p5077
S"<class 'gluon.html.FORM'>"
p5078
sS'H2'
p5079
S"<class 'gluon.html.H2'>"
p5080
sS'H3'
p5081
S"<class 'gluon.html.H3'>"
p5082
sS'BUTTON'
p5083
S"<class 'gluon.html.BUTTON'>"
p5084
sS'H1'
p5085
S"<class 'gluon.html.H1'>"
p5086
sS'H6'
p5087
S"<class 'gluon.html.H6'>"
p5088
sS'H4'
p5089
S"<class 'gluon.html.H4'>"
p5090
sS'H5'
p5091
S"<class 'gluon.html.H5'>"
p5092
sS'UL'
p5093
S"<class 'gluon.html.UL'>"
p5094
sS'IS_UPPER'
p5095
S"<class 'gluon.validators.IS_UPPER'>"
p5096
sS'xmlescape'
p5097
S'<function xmlescape at 0x026CD870>'
p5098
sS'IS_TIME'
p5099
S"<class 'gluon.validators.IS_TIME'>"
p5100
sS'OPTION'
p5101
S"<class 'gluon.html.OPTION'>"
p5102
sS'TITLE'
p5103
S"<class 'gluon.html.TITLE'>"
p5104
sS'CRYPT'
p5105
S"<class 'gluon.validators.CRYPT'>"
p5106
sS'IS_EMPTY_OR'
p5107
S"<class 'gluon.validators.IS_EMPTY_OR'>"
p5108
sS'MARKMIN'
p5109
S"<class 'gluon.html.MARKMIN'>"
p5110
sS'INPUT'
p5111
S"<class 'gluon.html.INPUT'>"
p5112
sS'COL'
p5113
S"<class 'gluon.html.COL'>"
p5114
sS'SCRIPT'
p5115
S"<class 'gluon.html.SCRIPT'>"
p5116
sS'geocode'
p5117
S'<function geocode at 0x0324D830>'
p5118
sS'is_mobile'
p5119
g92
sS'TABLE'
p5120
S"<class 'gluon.html.TABLE'>"
p5121
sS'IS_IPV4'
p5122
S"<class 'gluon.validators.IS_IPV4'>"
p5123
sS'IS_LENGTH'
p5124
S"<class 'gluon.validators.IS_LENGTH'>"
p5125
sS'XML'
p5126
S"<class 'gluon.html.XML'>"
p5127
sS'B'
S"<class 'gluon.html.B'>"
p5128
sS'IMG'
p5129
S"<class 'gluon.html.IMG'>"
p5130
sS'SQLTABLE'
p5131
S"<class 'gluon.sqlhtml.SQLTABLE'>"
p5132
sS'IS_MATCH'
p5133
S"<class 'gluon.validators.IS_MATCH'>"
p5134
sS'IS_ALPHANUMERIC'
p5135
S"<class 'gluon.validators.IS_ALPHANUMERIC'>"
p5136
sS'SPAN'
p5137
S"<class 'gluon.html.SPAN'>"
p5138
sS'IS_SLUG'
p5139
S"<class 'gluon.validators.IS_SLUG'>"
p5140
sS'BEAUTIFY'
p5141
S"<class 'gluon.html.BEAUTIFY'>"
p5142
sS'META'
p5143
S"<class 'gluon.html.META'>"
p5144
sS'problem'
p5145
S"<Row {'body': 'Imprimir na tela os N primeiros n...lete_record': <function <lambda> at 0x06B1DCF0>}>"
p5146
sS'fetch'
p5147
S'<function fetch at 0x032476B0>'
p5148
sS'IS_DATE'
p5149
S"<class 'gluon.validators.IS_DATE'>"
p5150
sS'IS_EMAIL'
p5151
S"<class 'gluon.validators.IS_EMAIL'>"
p5152
sS'IS_NOT_EMPTY'
p5153
S"<class 'gluon.validators.IS_NOT_EMPTY'>"
p5154
sg48
S"<Storage {'body': <cStringIO.StringO object at 0..._vars': <Storage {}>, 'post_vars': <Storage {}>}>"
p5155
sS'TBODY'
p5156
S"<class 'gluon.html.TBODY'>"
p5157
sS'CAT'
p5158
S"<class 'gluon.html.CAT'>"
p5159
sS'Field'
p5160
S"<class 'gluon.dal.Field'>"
p5161
sS'middle_columns'
p5162
S"'sixteen'"
p5163
sS'Mail'
p5164
S"<class 'gluon.tools.Mail'>"
p5165
sS'DIV'
p5166
S"<class 'gluon.html.DIV'>"
p5167
sS'LEGEND'
p5168
S"<class 'gluon.html.LEGEND'>"
p5169
sS'COLGROUP'
p5170
S"<class 'gluon.html.COLGROUP'>"
p5171
sS'DAL'
p5172
S"<class 'gluon.dal.DAL'>"
p5173
sS'TT'
p5174
S"<class 'gluon.html.TT'>"
p5175
sS'TR'
p5176
S"<class 'gluon.html.TR'>"
p5177
sS'LI'
p5178
S"<class 'gluon.html.LI'>"
p5179
sS'right_sidebar_enabled'
p5180
g92
sS'IFRAME'
p5181
S"<class 'gluon.html.IFRAME'>"
p5182
sS'TD'
p5183
S"<class 'gluon.html.TD'>"
p5184
sS'PluginManager'
p5185
S"<class 'gluon.tools.PluginManager'>"
p5186
sS'IS_URL'
p5187
S"<class 'gluon.validators.IS_URL'>"
p5188
sS'A'
S"<class 'gluon.html.A'>"
p5189
sS'STYLE'
p5190
S"<class 'gluon.html.STYLE'>"
p5191
sS'IS_DATETIME_IN_RANGE'
p5192
S"<class 'gluon.validators.IS_DATETIME_IN_RANGE'>"
p5193
sS'IS_IMAGE'
p5194
S"<class 'gluon.validators.IS_IMAGE'>"
p5195
sS'I'
S"<class 'gluon.html.I'>"
p5196
sS'crud'
p5197
S'<gluon.tools.Crud object at 0x06BF7790>'
p5198
sS'problems'
p5199
S'<gluon.dal.Rows object at 0x06AAC170>'
p5200
sS'IS_NOT_IN_DB'
p5201
S"<class 'gluon.validators.IS_NOT_IN_DB'>"
p5202
sS'user'
p5203
S"<Row {'comment': <gluon.dal.Set object at 0x06C0...lete_record': <function <lambda> at 0x06B1D530>}>"
p5204
sg2864
S"<Storage {'body': <cStringIO.StringO object at 0...a> at 0x06D527F0>, 'view': 'default/index.html'}>"
p5205
sS'THEAD'
p5206
S"<class 'gluon.html.THEAD'>"
p5207
sS'IS_NULL_OR'
p5208
S"<class 'gluon.validators.IS_EMPTY_OR'>"
p5209
sS'IS_FLOAT_IN_RANGE'
p5210
S"<class 'gluon.validators.IS_FLOAT_IN_RANGE'>"
p5211
sS'IS_EXPR'
p5212
S"<class 'gluon.validators.IS_EXPR'>"
p5213
sS'T'
S'<gluon.languages.translator object at 0x06A97430>'
p5214
sS'IS_IN_SET'
p5215
S"<class 'gluon.validators.IS_IN_SET'>"
p5216
sS'IS_UPLOAD_FILENAME'
p5217
S"<class 'gluon.validators.IS_UPLOAD_FILENAME'>"
p5218
sS'IS_DECIMAL_IN_RANGE'
p5219
S"<class 'gluon.validators.IS_DECIMAL_IN_RANGE'>"
p5220
sssS'traceback'
p5221
S'Traceback (most recent call last):\n  File "gluon/restricted.py", line 205, in restricted\n  File "C:\\web2py\\applications\\unioeste_code\\views\\default/index.html", line 86, in <module>\nTypeError: cannot concatenate \'str\' and \'B\' objects\n'
p5222
s.