(dp1
S'output'
p2
S"<type 'exceptions.NameError'> name 'STRONG' is not defined"
p3
sS'layer'
p4
S'C:\\web2py\\applications\\unioeste_code\\views\\default/index.html'
p5
sS'code'
p6
S'response.write(\'<!DOCTYPE html>\\n<!-- paulirish.com/2008/conditional-stylesheets-vs-css-hacks-answer-neither/ -->\\n<!--[if lt IE 7]><html class="ie ie6 ie-lte9 ie-lte8 ie-lte7 no-js" lang="\', escape=False)\nresponse.write(T.accepted_language or \'en\')\nresponse.write(\'"> <![endif]-->\\n<!--[if IE 7]><html class="ie ie7 ie-lte9 ie-lte8 ie-lte7 no-js" lang="\', escape=False)\nresponse.write(T.accepted_language or \'en\')\nresponse.write(\'"> <![endif]-->\\n<!--[if IE 8]><html class="ie ie8 ie-lte9 ie-lte8 no-js" lang="\', escape=False)\nresponse.write(T.accepted_language or \'en\')\nresponse.write(\'"> <![endif]-->\\n<!--[if IE 9]><html class="ie9 ie-lte9 no-js" lang="\', escape=False)\nresponse.write(T.accepted_language or \'en\')\nresponse.write(\'"> <![endif]-->\\n<!--[if (gt IE 9)|!(IE)]><!--> <html class="no-js" lang="\', escape=False)\nresponse.write(T.accepted_language or \'en\')\nresponse.write(\'"> <!--<![endif]-->\\n<head>\\n  <meta charset="utf-8" />\\n  <!-- www.phpied.com/conditional-comments-block-downloads/ -->\\n  <!-- Always force latest IE rendering engine\\n\\t   (even in intranet) & Chrome Frame\\n\\t   Remove this if you use the .htaccess -->\\n  <!--[if IE]>\\n    <meta http-equiv="X-UA-Compatible" content="IE=edge\', escape=False)\nresponse.write(not request.is_local and \',chrome=1\' or \'\')\nresponse.write(\'">\\n  <![endif]-->\\n  \\n  <title>\', escape=False)\nresponse.write(response.title or request.application)\nresponse.write(\'</title>\\n  \\n  <!-- http://dev.w3.org/html5/markup/meta.name.html -->\\n  <meta name="application-name" content="\', escape=False)\nresponse.write(request.application)\nresponse.write(\'" />\\n  \\n  <!-- Speaking of Google, don\\\'t forget to set your site up:\\n\\t   http://google.com/webmasters -->\\n  <meta name="google-site-verification" content="" />\\n\\n  <!--  Mobile Viewport Fix\\n\\t  j.mp/mobileviewport & davidbcalhoun.com/2010/viewport-metatag\\n\\t  device-width: Occupy full width of the screen in its current orientation\\n\\t  initial-scale = 1.0 retains dimensions instead of zooming out if page height > device height\\n\\t  user-scalable = yes allows the user to zoom in -->\\n  <meta name="viewport" content="width=device-width, initial-scale=1.0, user-scalable=yes">\\n  \\n  <!-- Place favicon.ico and apple-touch-icon.png in the root of your domain and delete these references -->\\n  <link rel="shortcut icon" href="\', escape=False)\nresponse.write(URL(\'static\',\'favicon.ico\'))\nresponse.write(\'" type="image/x-icon">\\n  <link rel="apple-touch-icon" href="\', escape=False)\nresponse.write(URL(\'static\',\'favicon.png\'))\nresponse.write(\'">\\n\\n  <!-- All JavaScript at the bottom, except for Modernizr which enables \\n\\t   HTML5 elements & feature detects -->\\n  <script src="\', escape=False)\nresponse.write(URL(\'static\',\'js/modernizr.custom.js\'))\nresponse.write(\'"></script>  \\n\\n  <!-- include stylesheets -->\\n  \', escape=False)\nresponse.files.append(URL(\'static\',\'css/skeleton.css\'))\nresponse.files.append(URL(\'static\',\'css/web2py.css\'))\nif response.menu:\n    response.files.append(URL(\'static\',\'css/superfish.css\'))\n    response.files.append(URL(\'static\',\'js/superfish.js\'))\n    pass\nresponse.write(\'\\n\\n  \', escape=False)\nresponse.write(\'<script type="text/javascript"><!--\\n    // These variables are used by the web2py_ajax_init function in web2py_ajax.js (which is loaded below).\\n    var w2p_ajax_confirm_message = "\', escape=False)\nresponse.write(T(\'Are you sure you want to delete this object?\'))\nresponse.write(\'";\\n    var w2p_ajax_date_format = "\', escape=False)\nresponse.write(T(\'%Y-%m-%d\'))\nresponse.write(\'";\\n    var w2p_ajax_datetime_format = "\', escape=False)\nresponse.write(T(\'%Y-%m-%d %H:%M:%S\'))\nresponse.write(\'";\\n    //--></script>\\n\', escape=False)\nresponse.files.insert(0,URL(\'static\',\'js/jquery.js\'))\nresponse.files.insert(1,URL(\'static\',\'css/calendar.css\'))\nresponse.files.insert(2,URL(\'static\',\'js/calendar.js\'))\nresponse.files.insert(3,URL(\'static\',\'js/web2py.js\'))\nresponse.include_meta()\nresponse.include_files()\nresponse.write(\'\\n\', escape=False)\nresponse.write(\'\\n\\n  \', escape=False)\nif response.menu:\n    response.write(\'\\n  <script type="text/javascript">\\n    jQuery(function(){ jQuery(\\\'ul.sf-menu\\\').supersubs({minWidth:12,maxWidth:30,extraWidth:3}).superfish(); });\\n  </script>\\n  \', escape=False)\n    pass\nresponse.write(\'\\n\\n  \', escape=False)\n# using sidebars need to know what sidebar you want to use\nleft_sidebar_enabled = globals().get(\'left_sidebar_enabled\',False)\nright_sidebar_enabled = globals().get(\'right_sidebar_enabled\',False)\nmiddle_columns = {0:\'sixteen\',1:\'twelve\',2:\'eight\'}[\n(left_sidebar_enabled and 1 or 0)+(right_sidebar_enabled and 1 or 0)]\nresponse.write(\'\\n\\n  <!-- uncomment here to load jquery-ui\\n  <link rel="stylesheet" href="http://ajax.googleapis.com/ajax/libs/jqueryui/1.8.16/themes/base/jquery-ui.css" type="text/css" media="all" />\\n  <script src="http://ajax.googleapis.com/ajax/libs/jqueryui/1.8.16/jquery-ui.min.js" type="text/javascript"></script>\\n  uncomment to load jquery-ui //-->\\n</head>\\n<body>\\n  <div class="wrapper"><!-- for sticky footer -->\\n  \\n    <div class="topbar">\\n      <div class="container">    \\n        <div class="sixteen columns">\\n          <div id="navbar">\', escape=False)\nresponse.write(\'auth\' in globals() and auth.navbar(separators=(\' \',\' | \',\'\')))\nresponse.write(\'</div>\\n          \', escape=False)\nis_mobile=request.user_agent().is_mobile\nresponse.write(\'\\n\\t  \', escape=False)\nif response.menu:\n    response.write(\'\\n          <div id="menu">\\n             \', escape=False)\n    response.write(MENU(response.menu, _class=\'mobile-menu\' if is_mobile else \'sf-menu\',mobile=is_mobile))\n    response.write(\'\\n          </div>\\n          \', escape=False)\n    pass\nresponse.write(\'\\n        </div>\\n      </div>\\n    </div><!-- topbar -->\\n    \\n    <div class="flash">\', escape=False)\nresponse.write(response.flash or \'\')\nresponse.write(\'</div>\\n    \\n    <div class="header">\\n      <div class="container">         \\n        <div class="sixteen columns">\\n          <img src="\', escape=False)\nresponse.write(URL(\'static\',\'images/logo-code.jpg\'))\nresponse.write(\'" class="remove-bottom" style="margin-top: .5em;" />\\n          <!-- H5 subtitle-->\\n        </div>\\n        <div class="sixteen columns">\\n          <div style="border: 1px solid #000000; ">\\n            <div style="float:right; padding-top: .25em;" class="a2a_kit a2a_default_style">\\n            <a class="a2a_dd" href="http://www.addtoany.com/share_save">Share</a></div>\\n            <script type="text/javascript" src="http://static.addtoany.com/menu/page.js"></script>\\n          </div>\\n        </div>\\n      </div>\\n    </div>\\n\\n    <div class="main">\\n      <div class="container">                 \\n        \', escape=False)\nif left_sidebar_enabled:\n    response.write(\'\\n        <div class="four columns left-sidebar">\\n          \', escape=False)\n    response.write(\'\\n          <h3>Left Sidebar</h3>\\n          <p></p>\\n          \', escape=False)\n    response.write(\'\\n        </div>\\n        \', escape=False)\n    pass\nresponse.write(\'\\n        \\n        <div class="\', escape=False)\nresponse.write(middle_columns)\nresponse.write(\' columns center">\\n          \', escape=False)\nresponse.write(\'\\n          \', escape=False)\nresponse.write(\'\\n\\n\\n\', escape=False)\nresponse.write(H1(T("Current Problems")))\nresponse.write(\'\\n<ul>\\n\', escape=False)\nfor problem in problems:\n    response.write(\'\\n\', escape=False)\n    user = db(db.auth_user.id==problem.created_by).select().first()\n    response.write(\'\\n\', escape=False)\n    response.write(LI(A(problem.title, _href=URL("Problem", args=problem.id)),  " by " + STRONG(user.first_name + " " + user.last_name) + " " + prettydate(problem.created_on)))\n    response.write(\'\\n\', escape=False)\n    pass\nresponse.write(\'\\n\\n</ul>\', escape=False)\nresponse.write(\'\\n          \', escape=False)\nresponse.write(\'\\n        </div>\\n        \\n        \', escape=False)\nif right_sidebar_enabled:\n    response.write(\'\\n        <div class="four columns">\\n          \', escape=False)\n    response.write(\'\\n          <h3>Right Sidebar</h3>\\n          <p></p>\\n          \', escape=False)\n    response.write(\'\\n        </div>    \\n        \', escape=False)\n    pass\nresponse.write(\'\\n        \\n      </div><!-- container -->\\n    </div><!-- main -->\\n    \\n    <div class="push"></div>\\n  </div><!-- wrapper -->\\n\\n  <div class="footer">\\n    <div class="container">    \\n      <div class="sixteen columns">\\n        \', escape=False)\nresponse.write(\' <!-- this is default footer -->\\n        <div class="footer-content clearfix">\\n            <div style="float: right;">\\n            <a href="http://www.web2py.com/"> \\n            <img style="border: 1px solid #000000; " src="https://developers.google.com/appengine/images/appengine-noborder-120x30.gif" alt="Powered by Google App Engine"/>\\n            </a>\\n          </div>\\n          <div class="footer-content clearfix">\\n            <div style="float: left;   ">\\n            <a href="http://www.web2py.com/"> \\n            <img style="border: 1px solid #000000; " src="http://www.python.org/community/logos/python-powered-w-70x28.png" alt="Powered by Python"/>\\n            </a>\\n          </div>\\n          <div style="float: right;">\\n            <a href="http://www.web2py.com/">\\n            <img style="padding-right: 1em; padding-bottom:1em;" src="\', escape=False)\nresponse.write(URL(\'static\',\'images/poweredby.png\'))\nresponse.write(\'"/>\\n            </a>\\n          </div>\\n        </div>\\n        \', escape=False)\nresponse.write(\'\\t\\n      </div>\\n    </div><!-- container -->\\n  </div><!-- footer -->\\n  \\n  <!--[if lt IE 7 ]>\\n\\t<script src="\', escape=False)\nresponse.write(URL(\'static\',\'js/dd_belatedpng.js\'))\nresponse.write(\'"></script>\\n\\t<script> DD_belatedPNG.fix(\\\'img, .png_bg\\\'); //fix any <img> or .png_bg background-images </script>\\n\\t<![endif]-->\\n  \', escape=False)\nif response.google_analytics_id:\n    response.write(\'<script type="text/javascript"> var _gaq = _gaq || []; _gaq.push([\\\'_setAccount\\\', \\\'\', escape=False)\n    response.write(response.google_analytics_id)\n    response.write("\']); _gaq.push([\'_trackPageview\']); (function() { var ga = document.createElement(\'script\'); ga.type = \'text/javascript\'; ga.async = true; ga.src = (\'https:\' == document.location.protocol ? \'https://ssl\' : \'http://www\') + \'.google-analytics.com/ga.js\'; var s = document.getElementsByTagName(\'script\')[0]; s.parentNode.insertBefore(ga, s); })(); </script> ", escape=False)\n    pass\nresponse.write(\'\\n</body>\\n</html>\\n\', escape=False)'
p7
sS'snapshot'
p8
(dp9
S'exception'
p10
(dp11
S'__hash__'
p12
S"<method-wrapper '__hash__' of exceptions.NameError object at 0x06882468>"
p13
sS'__setattr__'
p14
S"<method-wrapper '__setattr__' of exceptions.NameError object at 0x06882468>"
p15
sS'__reduce_ex__'
p16
S'<built-in method __reduce_ex__ of exceptions.NameError object at 0x06882468>'
p17
sS'__getslice__'
p18
S"<method-wrapper '__getslice__' of exceptions.NameError object at 0x06882468>"
p19
sS'__getitem__'
p20
S"<method-wrapper '__getitem__' of exceptions.NameError object at 0x06882468>"
p21
sS'__setstate__'
p22
S'<built-in method __setstate__ of exceptions.NameError object at 0x06882468>'
p23
sS'__reduce__'
p24
S'<built-in method __reduce__ of exceptions.NameError object at 0x06882468>'
p25
sS'__str__'
p26
S"<method-wrapper '__str__' of exceptions.NameError object at 0x06882468>"
p27
sS'args'
p28
S'("name \'STRONG\' is not defined",)'
p29
sS'__getattribute__'
p30
S"<method-wrapper '__getattribute__' of exceptions.NameError object at 0x06882468>"
p31
sS'__class__'
p32
S"<type 'exceptions.NameError'>"
p33
sS'__delattr__'
p34
S"<method-wrapper '__delattr__' of exceptions.NameError object at 0x06882468>"
p35
sS'__repr__'
p36
S"<method-wrapper '__repr__' of exceptions.NameError object at 0x06882468>"
p37
sS'__dict__'
p38
S'{}'
p39
sS'__doc__'
p40
S"'Name not found globally.'"
p41
sS'__init__'
p42
S"<method-wrapper '__init__' of exceptions.NameError object at 0x06882468>"
p43
sS'__new__'
p44
S'<built-in method __new__ of type object at 0x1E1CD8D8>'
p45
ssS'evalue'
p46
S"name 'STRONG' is not defined"
p47
sS'request'
p48
ccopy_reg
_reconstructor
p49
(cgluon.html
BEAUTIFY
p50
c__builtin__
object
p51
NtRp52
(dp53
S'attributes'
p54
(dp55
sS'components'
p56
(lp57
g49
(cgluon.html
TABLE
p58
g51
NtRp59
(dp60
g54
(dp61
S'level'
p62
I5
ssS'parent'
p63
Nsg56
(lp64
g49
(cgluon.html
TR
p65
g51
NtRp66
(dp67
g54
(dp68
sg63
g59
sg56
(lp69
g49
(cgluon.html
TD
p70
g51
NtRp71
(dp72
g54
(dp73
S'_style'
p74
S'font-weight:bold;vertical-align:top'
p75
ssg63
g66
sg56
(lp76
S'ajax'
p77
asbag49
(g70
g51
NtRp78
(dp79
g54
(dp80
S'_valign'
p81
S'top'
p82
ssg63
g66
sg56
(lp83
S':'
asbag49
(g70
g51
NtRp84
(dp85
g54
(dp86
sg63
g66
sg56
(lp87
g49
(g50
g51
NtRp88
(dp89
g54
(dp90
g62
I5
ssg63
g84
sg56
(lp91
S'False'
p92
asbasbasbag49
(g65
g51
NtRp93
(dp94
g54
(dp95
sg63
g59
sg56
(lp96
g49
(g70
g51
NtRp97
(dp98
g54
(dp99
g74
g75
ssg63
g93
sg56
(lp100
S'application'
p101
asbag49
(g70
g51
NtRp102
(dp103
g54
(dp104
g81
g82
ssg63
g93
sg56
(lp105
S':'
asbag49
(g70
g51
NtRp106
(dp107
g54
(dp108
sg63
g93
sg56
(lp109
g49
(g50
g51
NtRp110
(dp111
g54
(dp112
g62
I5
ssg63
g106
sg56
(lp113
S'unioeste_code'
p114
asbasbasbag49
(g65
g51
NtRp115
(dp116
g54
(dp117
sg63
g59
sg56
(lp118
g49
(g70
g51
NtRp119
(dp120
g54
(dp121
g74
g75
ssg63
g115
sg56
(lp122
g28
asbag49
(g70
g51
NtRp123
(dp124
g54
(dp125
g81
g82
ssg63
g115
sg56
(lp126
S':'
asbag49
(g70
g51
NtRp127
(dp128
g54
(dp129
sg63
g115
sg56
(lp130
g49
(g50
g51
NtRp131
(dp132
g54
(dp133
g62
I5
ssg63
g127
sg56
(lp134
g49
(g58
g51
NtRp135
(dp136
g54
(dp137
g62
I4
ssg63
Nsg56
(lp138
sbasbasbasbag49
(g65
g51
NtRp139
(dp140
g54
(dp141
sg63
g59
sg56
(lp142
g49
(g70
g51
NtRp143
(dp144
g54
(dp145
g74
g75
ssg63
g139
sg56
(lp146
S'body'
p147
asbag49
(g70
g51
NtRp148
(dp149
g54
(dp150
g81
g82
ssg63
g139
sg56
(lp151
S':'
asbag49
(g70
g51
NtRp152
(dp153
g54
(dp154
sg63
g139
sg56
(lp155
g49
(g50
g51
NtRp156
(dp157
g54
(dp158
g62
I5
ssg63
g152
sg56
(lp159
S'<cStringIO.StringO object at 0x067DEAC0>'
p160
asbasbasbag49
(g65
g51
NtRp161
(dp162
g54
(dp163
sg63
g59
sg56
(lp164
g49
(g70
g51
NtRp165
(dp166
g54
(dp167
g74
g75
ssg63
g161
sg56
(lp168
S'client'
p169
asbag49
(g70
g51
NtRp170
(dp171
g54
(dp172
g81
g82
ssg63
g161
sg56
(lp173
S':'
asbag49
(g70
g51
NtRp174
(dp175
g54
(dp176
sg63
g161
sg56
(lp177
g49
(g50
g51
NtRp178
(dp179
g54
(dp180
g62
I5
ssg63
g174
sg56
(lp181
S'127.0.0.1'
p182
asbasbasbag49
(g65
g51
NtRp183
(dp184
g54
(dp185
sg63
g59
sg56
(lp186
g49
(g70
g51
NtRp187
(dp188
g54
(dp189
g74
g75
ssg63
g183
sg56
(lp190
S'controller'
p191
asbag49
(g70
g51
NtRp192
(dp193
g54
(dp194
g81
g82
ssg63
g183
sg56
(lp195
S':'
asbag49
(g70
g51
NtRp196
(dp197
g54
(dp198
sg63
g183
sg56
(lp199
g49
(g50
g51
NtRp200
(dp201
g54
(dp202
g62
I5
ssg63
g196
sg56
(lp203
S'default'
p204
asbasbasbag49
(g65
g51
NtRp205
(dp206
g54
(dp207
sg63
g59
sg56
(lp208
g49
(g70
g51
NtRp209
(dp210
g54
(dp211
g74
g75
ssg63
g205
sg56
(lp212
S'cookies'
p213
asbag49
(g70
g51
NtRp214
(dp215
g54
(dp216
g81
g82
ssg63
g205
sg56
(lp217
S':'
asbag49
(g70
g51
NtRp218
(dp219
g54
(dp220
sg63
g205
sg56
(lp221
g49
(g50
g51
NtRp222
(dp223
g54
(dp224
g62
I5
ssg63
g218
sg56
(lp225
g49
(g58
g51
NtRp226
(dp227
g54
(dp228
g62
I4
ssg63
Nsg56
(lp229
g49
(g65
g51
NtRp230
(dp231
g54
(dp232
sg63
g226
sg56
(lp233
g49
(g70
g51
NtRp234
(dp235
g54
(dp236
g74
g75
ssg63
g230
sg56
(lp237
S'session_id_unioeste_code'
p238
asbag49
(g70
g51
NtRp239
(dp240
g54
(dp241
g81
g82
ssg63
g230
sg56
(lp242
S':'
asbag49
(g70
g51
NtRp243
(dp244
g54
(dp245
sg63
g230
sg56
(lp246
g49
(g50
g51
NtRp247
(dp248
g54
(dp249
g62
I4
ssg63
g243
sg56
(lp250
g49
(g58
g51
NtRp251
(dp252
g54
(dp253
g62
I3
ssg63
Nsg56
(lp254
g49
(g65
g51
NtRp255
(dp256
g54
(dp257
sg63
g251
sg56
(lp258
g49
(g70
g51
NtRp259
(dp260
g54
(dp261
g74
g75
ssg63
g255
sg56
(lp262
S'comment'
p263
asbag49
(g70
g51
NtRp264
(dp265
g54
(dp266
g81
g82
ssg63
g255
sg56
(lp267
S':'
asbag49
(g70
g51
NtRp268
(dp269
g54
(dp270
sg63
g255
sg56
(lp271
g49
(g50
g51
NtRp272
(dp273
g54
(dp274
g62
I3
ssg63
g268
sg56
(lp275
S''
asbasbasbag49
(g65
g51
NtRp276
(dp277
g54
(dp278
sg63
g251
sg56
(lp279
g49
(g70
g51
NtRp280
(dp281
g54
(dp282
g74
g75
ssg63
g276
sg56
(lp283
S'domain'
p284
asbag49
(g70
g51
NtRp285
(dp286
g54
(dp287
g81
g82
ssg63
g276
sg56
(lp288
S':'
asbag49
(g70
g51
NtRp289
(dp290
g54
(dp291
sg63
g276
sg56
(lp292
g49
(g50
g51
NtRp293
(dp294
g54
(dp295
g62
I3
ssg63
g289
sg56
(lp296
S''
asbasbasbag49
(g65
g51
NtRp297
(dp298
g54
(dp299
sg63
g251
sg56
(lp300
g49
(g70
g51
NtRp301
(dp302
g54
(dp303
g74
g75
ssg63
g297
sg56
(lp304
S'expires'
p305
asbag49
(g70
g51
NtRp306
(dp307
g54
(dp308
g81
g82
ssg63
g297
sg56
(lp309
S':'
asbag49
(g70
g51
NtRp310
(dp311
g54
(dp312
sg63
g297
sg56
(lp313
g49
(g50
g51
NtRp314
(dp315
g54
(dp316
g62
I3
ssg63
g310
sg56
(lp317
S''
asbasbasbag49
(g65
g51
NtRp318
(dp319
g54
(dp320
sg63
g251
sg56
(lp321
g49
(g70
g51
NtRp322
(dp323
g54
(dp324
g74
g75
ssg63
g318
sg56
(lp325
S'max-age'
p326
asbag49
(g70
g51
NtRp327
(dp328
g54
(dp329
g81
g82
ssg63
g318
sg56
(lp330
S':'
asbag49
(g70
g51
NtRp331
(dp332
g54
(dp333
sg63
g318
sg56
(lp334
g49
(g50
g51
NtRp335
(dp336
g54
(dp337
g62
I3
ssg63
g331
sg56
(lp338
S''
asbasbasbag49
(g65
g51
NtRp339
(dp340
g54
(dp341
sg63
g251
sg56
(lp342
g49
(g70
g51
NtRp343
(dp344
g54
(dp345
g74
g75
ssg63
g339
sg56
(lp346
S'path'
p347
asbag49
(g70
g51
NtRp348
(dp349
g54
(dp350
g81
g82
ssg63
g339
sg56
(lp351
S':'
asbag49
(g70
g51
NtRp352
(dp353
g54
(dp354
sg63
g339
sg56
(lp355
g49
(g50
g51
NtRp356
(dp357
g54
(dp358
g62
I3
ssg63
g352
sg56
(lp359
S''
asbasbasbag49
(g65
g51
NtRp360
(dp361
g54
(dp362
sg63
g251
sg56
(lp363
g49
(g70
g51
NtRp364
(dp365
g54
(dp366
g74
g75
ssg63
g360
sg56
(lp367
S'secure'
p368
asbag49
(g70
g51
NtRp369
(dp370
g54
(dp371
g81
g82
ssg63
g360
sg56
(lp372
S':'
asbag49
(g70
g51
NtRp373
(dp374
g54
(dp375
sg63
g360
sg56
(lp376
g49
(g50
g51
NtRp377
(dp378
g54
(dp379
g62
I3
ssg63
g373
sg56
(lp380
S''
asbasbasbag49
(g65
g51
NtRp381
(dp382
g54
(dp383
sg63
g251
sg56
(lp384
g49
(g70
g51
NtRp385
(dp386
g54
(dp387
g74
g75
ssg63
g381
sg56
(lp388
S'version'
p389
asbag49
(g70
g51
NtRp390
(dp391
g54
(dp392
g81
g82
ssg63
g381
sg56
(lp393
S':'
asbag49
(g70
g51
NtRp394
(dp395
g54
(dp396
sg63
g381
sg56
(lp397
g49
(g50
g51
NtRp398
(dp399
g54
(dp400
g62
I3
ssg63
g394
sg56
(lp401
S''
asbasbasbasbasbasbasbag49
(g65
g51
NtRp402
(dp403
g54
(dp404
sg63
g226
sg56
(lp405
g49
(g70
g51
NtRp406
(dp407
g54
(dp408
g74
g75
ssg63
g402
sg56
(lp409
S'session_id_welcome'
p410
asbag49
(g70
g51
NtRp411
(dp412
g54
(dp413
g81
g82
ssg63
g402
sg56
(lp414
S':'
asbag49
(g70
g51
NtRp415
(dp416
g54
(dp417
sg63
g402
sg56
(lp418
g49
(g50
g51
NtRp419
(dp420
g54
(dp421
g62
I4
ssg63
g415
sg56
(lp422
g49
(g58
g51
NtRp423
(dp424
g54
(dp425
g62
I3
ssg63
Nsg56
(lp426
g49
(g65
g51
NtRp427
(dp428
g54
(dp429
sg63
g423
sg56
(lp430
g49
(g70
g51
NtRp431
(dp432
g54
(dp433
g74
g75
ssg63
g427
sg56
(lp434
g263
asbag49
(g70
g51
NtRp435
(dp436
g54
(dp437
g81
g82
ssg63
g427
sg56
(lp438
S':'
asbag49
(g70
g51
NtRp439
(dp440
g54
(dp441
sg63
g427
sg56
(lp442
g49
(g50
g51
NtRp443
(dp444
g54
(dp445
g62
I3
ssg63
g439
sg56
(lp446
S''
asbasbasbag49
(g65
g51
NtRp447
(dp448
g54
(dp449
sg63
g423
sg56
(lp450
g49
(g70
g51
NtRp451
(dp452
g54
(dp453
g74
g75
ssg63
g447
sg56
(lp454
g284
asbag49
(g70
g51
NtRp455
(dp456
g54
(dp457
g81
g82
ssg63
g447
sg56
(lp458
S':'
asbag49
(g70
g51
NtRp459
(dp460
g54
(dp461
sg63
g447
sg56
(lp462
g49
(g50
g51
NtRp463
(dp464
g54
(dp465
g62
I3
ssg63
g459
sg56
(lp466
S''
asbasbasbag49
(g65
g51
NtRp467
(dp468
g54
(dp469
sg63
g423
sg56
(lp470
g49
(g70
g51
NtRp471
(dp472
g54
(dp473
g74
g75
ssg63
g467
sg56
(lp474
g305
asbag49
(g70
g51
NtRp475
(dp476
g54
(dp477
g81
g82
ssg63
g467
sg56
(lp478
S':'
asbag49
(g70
g51
NtRp479
(dp480
g54
(dp481
sg63
g467
sg56
(lp482
g49
(g50
g51
NtRp483
(dp484
g54
(dp485
g62
I3
ssg63
g479
sg56
(lp486
S''
asbasbasbag49
(g65
g51
NtRp487
(dp488
g54
(dp489
sg63
g423
sg56
(lp490
g49
(g70
g51
NtRp491
(dp492
g54
(dp493
g74
g75
ssg63
g487
sg56
(lp494
g326
asbag49
(g70
g51
NtRp495
(dp496
g54
(dp497
g81
g82
ssg63
g487
sg56
(lp498
S':'
asbag49
(g70
g51
NtRp499
(dp500
g54
(dp501
sg63
g487
sg56
(lp502
g49
(g50
g51
NtRp503
(dp504
g54
(dp505
g62
I3
ssg63
g499
sg56
(lp506
S''
asbasbasbag49
(g65
g51
NtRp507
(dp508
g54
(dp509
sg63
g423
sg56
(lp510
g49
(g70
g51
NtRp511
(dp512
g54
(dp513
g74
g75
ssg63
g507
sg56
(lp514
g347
asbag49
(g70
g51
NtRp515
(dp516
g54
(dp517
g81
g82
ssg63
g507
sg56
(lp518
S':'
asbag49
(g70
g51
NtRp519
(dp520
g54
(dp521
sg63
g507
sg56
(lp522
g49
(g50
g51
NtRp523
(dp524
g54
(dp525
g62
I3
ssg63
g519
sg56
(lp526
S''
asbasbasbag49
(g65
g51
NtRp527
(dp528
g54
(dp529
sg63
g423
sg56
(lp530
g49
(g70
g51
NtRp531
(dp532
g54
(dp533
g74
g75
ssg63
g527
sg56
(lp534
g368
asbag49
(g70
g51
NtRp535
(dp536
g54
(dp537
g81
g82
ssg63
g527
sg56
(lp538
S':'
asbag49
(g70
g51
NtRp539
(dp540
g54
(dp541
sg63
g527
sg56
(lp542
g49
(g50
g51
NtRp543
(dp544
g54
(dp545
g62
I3
ssg63
g539
sg56
(lp546
S''
asbasbasbag49
(g65
g51
NtRp547
(dp548
g54
(dp549
sg63
g423
sg56
(lp550
g49
(g70
g51
NtRp551
(dp552
g54
(dp553
g74
g75
ssg63
g547
sg56
(lp554
g389
asbag49
(g70
g51
NtRp555
(dp556
g54
(dp557
g81
g82
ssg63
g547
sg56
(lp558
S':'
asbag49
(g70
g51
NtRp559
(dp560
g54
(dp561
sg63
g547
sg56
(lp562
g49
(g50
g51
NtRp563
(dp564
g54
(dp565
g62
I3
ssg63
g559
sg56
(lp566
S''
asbasbasbasbasbasbasbasbasbasbasbag49
(g65
g51
NtRp567
(dp568
g54
(dp569
sg63
g59
sg56
(lp570
g49
(g70
g51
NtRp571
(dp572
g54
(dp573
g74
g75
ssg63
g567
sg56
(lp574
S'env'
p575
asbag49
(g70
g51
NtRp576
(dp577
g54
(dp578
g81
g82
ssg63
g567
sg56
(lp579
S':'
asbag49
(g70
g51
NtRp580
(dp581
g54
(dp582
sg63
g567
sg56
(lp583
g49
(g50
g51
NtRp584
(dp585
g54
(dp586
g62
I5
ssg63
g580
sg56
(lp587
g49
(g58
g51
NtRp588
(dp589
g54
(dp590
g62
I4
ssg63
Nsg56
(lp591
g49
(g65
g51
NtRp592
(dp593
g54
(dp594
sg63
g588
sg56
(lp595
g49
(g70
g51
NtRp596
(dp597
g54
(dp598
g74
g75
ssg63
g592
sg56
(lp599
S'app_folders'
p600
asbag49
(g70
g51
NtRp601
(dp602
g54
(dp603
g81
g82
ssg63
g592
sg56
(lp604
S':'
asbag49
(g70
g51
NtRp605
(dp606
g54
(dp607
sg63
g592
sg56
(lp608
g49
(g50
g51
NtRp609
(dp610
g54
(dp611
g62
I4
ssg63
g605
sg56
(lp612
S"set(['C:\\\\web2py\\\\applications\\\\welcome\\\\', 'C:\\\\web2py\\\\applications\\\\unioeste_code\\\\'])"
p613
asbasbasbag49
(g65
g51
NtRp614
(dp615
g54
(dp616
sg63
g588
sg56
(lp617
g49
(g70
g51
NtRp618
(dp619
g54
(dp620
g74
g75
ssg63
g614
sg56
(lp621
S'applications_parent'
p622
asbag49
(g70
g51
NtRp623
(dp624
g54
(dp625
g81
g82
ssg63
g614
sg56
(lp626
S':'
asbag49
(g70
g51
NtRp627
(dp628
g54
(dp629
sg63
g614
sg56
(lp630
g49
(g50
g51
NtRp631
(dp632
g54
(dp633
g62
I4
ssg63
g627
sg56
(lp634
S'C:\\web2py'
p635
asbasbasbag49
(g65
g51
NtRp636
(dp637
g54
(dp638
sg63
g588
sg56
(lp639
g49
(g70
g51
NtRp640
(dp641
g54
(dp642
g74
g75
ssg63
g636
sg56
(lp643
S'cmd_args'
p644
asbag49
(g70
g51
NtRp645
(dp646
g54
(dp647
g81
g82
ssg63
g636
sg56
(lp648
S':'
asbag49
(g70
g51
NtRp649
(dp650
g54
(dp651
sg63
g636
sg56
(lp652
g49
(g50
g51
NtRp653
(dp654
g54
(dp655
g62
I4
ssg63
g649
sg56
(lp656
g49
(g58
g51
NtRp657
(dp658
g54
(dp659
g62
I3
ssg63
Nsg56
(lp660
sbasbasbasbag49
(g65
g51
NtRp661
(dp662
g54
(dp663
sg63
g588
sg56
(lp664
g49
(g70
g51
NtRp665
(dp666
g54
(dp667
g74
g75
ssg63
g661
sg56
(lp668
S'cmd_options'
p669
asbag49
(g70
g51
NtRp670
(dp671
g54
(dp672
g81
g82
ssg63
g661
sg56
(lp673
S':'
asbag49
(g70
g51
NtRp674
(dp675
g54
(dp676
sg63
g661
sg56
(lp677
g49
(g50
g51
NtRp678
(dp679
g54
(dp680
g62
I4
ssg63
g674
sg56
(lp681
S"<Values at 0x30fc300: {'verbose': False, 'ip': '127.0.0.1', 'shutdown_timeout': 5, 'taskbar': False, 'nocron': False, 'pid_filename': 'httpserver.pid', 'maxthreads': None, 'softcron': False, 'server_name': 'Pedro-PC', 'bpython': False, 'nogui': False, 'port': 8000, 'extcron': False, 'debuglevel': 30, 'test': None, 'folder': 'C:\\\\web2py', 'config': '', 'import_models': False, 'winservice': '', 'shell': None, 'run': '', 'log_filename': 'httpserver.log', 'args': [''], 'socket_timeout': 5, 'ssl_ca_certificate': None, 'scheduler': None, 'profiler_filename': None, 'ssl_private_key': '', 'password': '<ask>', 'request_queue_size': 5, 'ssl_certificate': '', 'cronjob': False, 'numthreads': None, 'quiet': False, 'interfaces': None, 'minthreads': None, 'timeout': 10, 'plain': False, 'nobanner': False}>"
p682
asbasbasbag49
(g65
g51
NtRp683
(dp684
g54
(dp685
sg63
g588
sg56
(lp686
g49
(g70
g51
NtRp687
(dp688
g54
(dp689
g74
g75
ssg63
g683
sg56
(lp690
S'db_sessions'
p691
asbag49
(g70
g51
NtRp692
(dp693
g54
(dp694
g81
g82
ssg63
g683
sg56
(lp695
S':'
asbag49
(g70
g51
NtRp696
(dp697
g54
(dp698
sg63
g683
sg56
(lp699
g49
(g50
g51
NtRp700
(dp701
g54
(dp702
g62
I4
ssg63
g696
sg56
(lp703
S'set([])'
p704
asbasbasbag49
(g65
g51
NtRp705
(dp706
g54
(dp707
sg63
g588
sg56
(lp708
g49
(g70
g51
NtRp709
(dp710
g54
(dp711
g74
g75
ssg63
g705
sg56
(lp712
S'debugging'
p713
asbag49
(g70
g51
NtRp714
(dp715
g54
(dp716
g81
g82
ssg63
g705
sg56
(lp717
S':'
asbag49
(g70
g51
NtRp718
(dp719
g54
(dp720
sg63
g705
sg56
(lp721
g49
(g50
g51
NtRp722
(dp723
g54
(dp724
g62
I4
ssg63
g718
sg56
(lp725
g92
asbasbasbag49
(g65
g51
NtRp726
(dp727
g54
(dp728
sg63
g588
sg56
(lp729
g49
(g70
g51
NtRp730
(dp731
g54
(dp732
g74
g75
ssg63
g726
sg56
(lp733
S'gluon_parent'
p734
asbag49
(g70
g51
NtRp735
(dp736
g54
(dp737
g81
g82
ssg63
g726
sg56
(lp738
S':'
asbag49
(g70
g51
NtRp739
(dp740
g54
(dp741
sg63
g726
sg56
(lp742
g49
(g50
g51
NtRp743
(dp744
g54
(dp745
g62
I4
ssg63
g739
sg56
(lp746
S'C:\\web2py'
p747
asbasbasbag49
(g65
g51
NtRp748
(dp749
g54
(dp750
sg63
g588
sg56
(lp751
g49
(g70
g51
NtRp752
(dp753
g54
(dp754
g74
g75
ssg63
g748
sg56
(lp755
S'http_accept'
p756
asbag49
(g70
g51
NtRp757
(dp758
g54
(dp759
g81
g82
ssg63
g748
sg56
(lp760
S':'
asbag49
(g70
g51
NtRp761
(dp762
g54
(dp763
sg63
g748
sg56
(lp764
g49
(g50
g51
NtRp765
(dp766
g54
(dp767
g62
I4
ssg63
g761
sg56
(lp768
S'text/html,application/xhtml+xml,application/xml;q=0.9,*/*;q=0.8'
p769
asbasbasbag49
(g65
g51
NtRp770
(dp771
g54
(dp772
sg63
g588
sg56
(lp773
g49
(g70
g51
NtRp774
(dp775
g54
(dp776
g74
g75
ssg63
g770
sg56
(lp777
S'http_accept_charset'
p778
asbag49
(g70
g51
NtRp779
(dp780
g54
(dp781
g81
g82
ssg63
g770
sg56
(lp782
S':'
asbag49
(g70
g51
NtRp783
(dp784
g54
(dp785
sg63
g770
sg56
(lp786
g49
(g50
g51
NtRp787
(dp788
g54
(dp789
g62
I4
ssg63
g783
sg56
(lp790
S'ISO-8859-1,utf-8;q=0.7,*;q=0.3'
p791
asbasbasbag49
(g65
g51
NtRp792
(dp793
g54
(dp794
sg63
g588
sg56
(lp795
g49
(g70
g51
NtRp796
(dp797
g54
(dp798
g74
g75
ssg63
g792
sg56
(lp799
S'http_accept_encoding'
p800
asbag49
(g70
g51
NtRp801
(dp802
g54
(dp803
g81
g82
ssg63
g792
sg56
(lp804
S':'
asbag49
(g70
g51
NtRp805
(dp806
g54
(dp807
sg63
g792
sg56
(lp808
g49
(g50
g51
NtRp809
(dp810
g54
(dp811
g62
I4
ssg63
g805
sg56
(lp812
S'gzip,deflate,sdch'
p813
asbasbasbag49
(g65
g51
NtRp814
(dp815
g54
(dp816
sg63
g588
sg56
(lp817
g49
(g70
g51
NtRp818
(dp819
g54
(dp820
g74
g75
ssg63
g814
sg56
(lp821
S'http_accept_language'
p822
asbag49
(g70
g51
NtRp823
(dp824
g54
(dp825
g81
g82
ssg63
g814
sg56
(lp826
S':'
asbag49
(g70
g51
NtRp827
(dp828
g54
(dp829
sg63
g814
sg56
(lp830
g49
(g50
g51
NtRp831
(dp832
g54
(dp833
g62
I4
ssg63
g827
sg56
(lp834
S'pt-BR,pt;q=0.8,en-US;q=0.6,en;q=0.4'
p835
asbasbasbag49
(g65
g51
NtRp836
(dp837
g54
(dp838
sg63
g588
sg56
(lp839
g49
(g70
g51
NtRp840
(dp841
g54
(dp842
g74
g75
ssg63
g836
sg56
(lp843
S'http_cache_control'
p844
asbag49
(g70
g51
NtRp845
(dp846
g54
(dp847
g81
g82
ssg63
g836
sg56
(lp848
S':'
asbag49
(g70
g51
NtRp849
(dp850
g54
(dp851
sg63
g836
sg56
(lp852
g49
(g50
g51
NtRp853
(dp854
g54
(dp855
g62
I4
ssg63
g849
sg56
(lp856
S'max-age=0'
p857
asbasbasbag49
(g65
g51
NtRp858
(dp859
g54
(dp860
sg63
g588
sg56
(lp861
g49
(g70
g51
NtRp862
(dp863
g54
(dp864
g74
g75
ssg63
g858
sg56
(lp865
S'http_connection'
p866
asbag49
(g70
g51
NtRp867
(dp868
g54
(dp869
g81
g82
ssg63
g858
sg56
(lp870
S':'
asbag49
(g70
g51
NtRp871
(dp872
g54
(dp873
sg63
g858
sg56
(lp874
g49
(g50
g51
NtRp875
(dp876
g54
(dp877
g62
I4
ssg63
g871
sg56
(lp878
S'keep-alive'
p879
asbasbasbag49
(g65
g51
NtRp880
(dp881
g54
(dp882
sg63
g588
sg56
(lp883
g49
(g70
g51
NtRp884
(dp885
g54
(dp886
g74
g75
ssg63
g880
sg56
(lp887
S'http_cookie'
p888
asbag49
(g70
g51
NtRp889
(dp890
g54
(dp891
g81
g82
ssg63
g880
sg56
(lp892
S':'
asbag49
(g70
g51
NtRp893
(dp894
g54
(dp895
sg63
g880
sg56
(lp896
g49
(g50
g51
NtRp897
(dp898
g54
(dp899
g62
I4
ssg63
g893
sg56
(lp900
S'session_id_welcome=127.0.0.1-8bad8558-df66-48cb-b342-bf23b6ad7dde; session_id_unioeste_code=127.0.0.1-293eaa4c-b3df-4c8e-8d82-aea9e35290bd'
p901
asbasbasbag49
(g65
g51
NtRp902
(dp903
g54
(dp904
sg63
g588
sg56
(lp905
g49
(g70
g51
NtRp906
(dp907
g54
(dp908
g74
g75
ssg63
g902
sg56
(lp909
S'http_dnt'
p910
asbag49
(g70
g51
NtRp911
(dp912
g54
(dp913
g81
g82
ssg63
g902
sg56
(lp914
S':'
asbag49
(g70
g51
NtRp915
(dp916
g54
(dp917
sg63
g902
sg56
(lp918
g49
(g50
g51
NtRp919
(dp920
g54
(dp921
g62
I4
ssg63
g915
sg56
(lp922
S'1'
asbasbasbag49
(g65
g51
NtRp923
(dp924
g54
(dp925
sg63
g588
sg56
(lp926
g49
(g70
g51
NtRp927
(dp928
g54
(dp929
g74
g75
ssg63
g923
sg56
(lp930
S'http_host'
p931
asbag49
(g70
g51
NtRp932
(dp933
g54
(dp934
g81
g82
ssg63
g923
sg56
(lp935
S':'
asbag49
(g70
g51
NtRp936
(dp937
g54
(dp938
sg63
g923
sg56
(lp939
g49
(g50
g51
NtRp940
(dp941
g54
(dp942
g62
I4
ssg63
g936
sg56
(lp943
S'127.0.0.1:8000'
p944
asbasbasbag49
(g65
g51
NtRp945
(dp946
g54
(dp947
sg63
g588
sg56
(lp948
g49
(g70
g51
NtRp949
(dp950
g54
(dp951
g74
g75
ssg63
g945
sg56
(lp952
S'http_user_agent'
p953
asbag49
(g70
g51
NtRp954
(dp955
g54
(dp956
g81
g82
ssg63
g945
sg56
(lp957
S':'
asbag49
(g70
g51
NtRp958
(dp959
g54
(dp960
sg63
g945
sg56
(lp961
g49
(g50
g51
NtRp962
(dp963
g54
(dp964
g62
I4
ssg63
g958
sg56
(lp965
S'Mozilla/5.0 (Windows NT 6.1; WOW64) AppleWebKit/536.11 (KHTML, like Gecko) Chrome/20.0.1132.57 Safari/536.11'
p966
asbasbasbag49
(g65
g51
NtRp967
(dp968
g54
(dp969
sg63
g588
sg56
(lp970
g49
(g70
g51
NtRp971
(dp972
g54
(dp973
g74
g75
ssg63
g967
sg56
(lp974
S'is_jython'
p975
asbag49
(g70
g51
NtRp976
(dp977
g54
(dp978
g81
g82
ssg63
g967
sg56
(lp979
S':'
asbag49
(g70
g51
NtRp980
(dp981
g54
(dp982
sg63
g967
sg56
(lp983
g49
(g50
g51
NtRp984
(dp985
g54
(dp986
g62
I4
ssg63
g980
sg56
(lp987
g92
asbasbasbag49
(g65
g51
NtRp988
(dp989
g54
(dp990
sg63
g588
sg56
(lp991
g49
(g70
g51
NtRp992
(dp993
g54
(dp994
g74
g75
ssg63
g988
sg56
(lp995
S'is_pypy'
p996
asbag49
(g70
g51
NtRp997
(dp998
g54
(dp999
g81
g82
ssg63
g988
sg56
(lp1000
S':'
asbag49
(g70
g51
NtRp1001
(dp1002
g54
(dp1003
sg63
g988
sg56
(lp1004
g49
(g50
g51
NtRp1005
(dp1006
g54
(dp1007
g62
I4
ssg63
g1001
sg56
(lp1008
g92
asbasbasbag49
(g65
g51
NtRp1009
(dp1010
g54
(dp1011
sg63
g588
sg56
(lp1012
g49
(g70
g51
NtRp1013
(dp1014
g54
(dp1015
g74
g75
ssg63
g1009
sg56
(lp1016
S'path_info'
p1017
asbag49
(g70
g51
NtRp1018
(dp1019
g54
(dp1020
g81
g82
ssg63
g1009
sg56
(lp1021
S':'
asbag49
(g70
g51
NtRp1022
(dp1023
g54
(dp1024
sg63
g1009
sg56
(lp1025
g49
(g50
g51
NtRp1026
(dp1027
g54
(dp1028
g62
I4
ssg63
g1022
sg56
(lp1029
S'/unioeste_code/default/index'
p1030
asbasbasbag49
(g65
g51
NtRp1031
(dp1032
g54
(dp1033
sg63
g588
sg56
(lp1034
g49
(g70
g51
NtRp1035
(dp1036
g54
(dp1037
g74
g75
ssg63
g1031
sg56
(lp1038
S'query_string'
p1039
asbag49
(g70
g51
NtRp1040
(dp1041
g54
(dp1042
g81
g82
ssg63
g1031
sg56
(lp1043
S':'
asbag49
(g70
g51
NtRp1044
(dp1045
g54
(dp1046
sg63
g1031
sg56
(lp1047
g49
(g50
g51
NtRp1048
(dp1049
g54
(dp1050
g62
I4
ssg63
g1044
sg56
(lp1051
S''
asbasbasbag49
(g65
g51
NtRp1052
(dp1053
g54
(dp1054
sg63
g588
sg56
(lp1055
g49
(g70
g51
NtRp1056
(dp1057
g54
(dp1058
g74
g75
ssg63
g1052
sg56
(lp1059
S'remote_addr'
p1060
asbag49
(g70
g51
NtRp1061
(dp1062
g54
(dp1063
g81
g82
ssg63
g1052
sg56
(lp1064
S':'
asbag49
(g70
g51
NtRp1065
(dp1066
g54
(dp1067
sg63
g1052
sg56
(lp1068
g49
(g50
g51
NtRp1069
(dp1070
g54
(dp1071
g62
I4
ssg63
g1065
sg56
(lp1072
g182
asbasbasbag49
(g65
g51
NtRp1073
(dp1074
g54
(dp1075
sg63
g588
sg56
(lp1076
g49
(g70
g51
NtRp1077
(dp1078
g54
(dp1079
g74
g75
ssg63
g1073
sg56
(lp1080
S'remote_port'
p1081
asbag49
(g70
g51
NtRp1082
(dp1083
g54
(dp1084
g81
g82
ssg63
g1073
sg56
(lp1085
S':'
asbag49
(g70
g51
NtRp1086
(dp1087
g54
(dp1088
sg63
g1073
sg56
(lp1089
g49
(g50
g51
NtRp1090
(dp1091
g54
(dp1092
g62
I4
ssg63
g1086
sg56
(lp1093
S'1482'
p1094
asbasbasbag49
(g65
g51
NtRp1095
(dp1096
g54
(dp1097
sg63
g588
sg56
(lp1098
g49
(g70
g51
NtRp1099
(dp1100
g54
(dp1101
g74
g75
ssg63
g1095
sg56
(lp1102
S'request_method'
p1103
asbag49
(g70
g51
NtRp1104
(dp1105
g54
(dp1106
g81
g82
ssg63
g1095
sg56
(lp1107
S':'
asbag49
(g70
g51
NtRp1108
(dp1109
g54
(dp1110
sg63
g1095
sg56
(lp1111
g49
(g50
g51
NtRp1112
(dp1113
g54
(dp1114
g62
I4
ssg63
g1108
sg56
(lp1115
S'GET'
p1116
asbasbasbag49
(g65
g51
NtRp1117
(dp1118
g54
(dp1119
sg63
g588
sg56
(lp1120
g49
(g70
g51
NtRp1121
(dp1122
g54
(dp1123
g74
g75
ssg63
g1117
sg56
(lp1124
S'script_name'
p1125
asbag49
(g70
g51
NtRp1126
(dp1127
g54
(dp1128
g81
g82
ssg63
g1117
sg56
(lp1129
S':'
asbag49
(g70
g51
NtRp1130
(dp1131
g54
(dp1132
sg63
g1117
sg56
(lp1133
g49
(g50
g51
NtRp1134
(dp1135
g54
(dp1136
g62
I4
ssg63
g1130
sg56
(lp1137
S''
asbasbasbag49
(g65
g51
NtRp1138
(dp1139
g54
(dp1140
sg63
g588
sg56
(lp1141
g49
(g70
g51
NtRp1142
(dp1143
g54
(dp1144
g74
g75
ssg63
g1138
sg56
(lp1145
S'server_name'
p1146
asbag49
(g70
g51
NtRp1147
(dp1148
g54
(dp1149
g81
g82
ssg63
g1138
sg56
(lp1150
S':'
asbag49
(g70
g51
NtRp1151
(dp1152
g54
(dp1153
sg63
g1138
sg56
(lp1154
g49
(g50
g51
NtRp1155
(dp1156
g54
(dp1157
g62
I4
ssg63
g1151
sg56
(lp1158
S'Pedro-PC'
p1159
asbasbasbag49
(g65
g51
NtRp1160
(dp1161
g54
(dp1162
sg63
g588
sg56
(lp1163
g49
(g70
g51
NtRp1164
(dp1165
g54
(dp1166
g74
g75
ssg63
g1160
sg56
(lp1167
S'server_port'
p1168
asbag49
(g70
g51
NtRp1169
(dp1170
g54
(dp1171
g81
g82
ssg63
g1160
sg56
(lp1172
S':'
asbag49
(g70
g51
NtRp1173
(dp1174
g54
(dp1175
sg63
g1160
sg56
(lp1176
g49
(g50
g51
NtRp1177
(dp1178
g54
(dp1179
g62
I4
ssg63
g1173
sg56
(lp1180
S'8000'
p1181
asbasbasbag49
(g65
g51
NtRp1182
(dp1183
g54
(dp1184
sg63
g588
sg56
(lp1185
g49
(g70
g51
NtRp1186
(dp1187
g54
(dp1188
g74
g75
ssg63
g1182
sg56
(lp1189
S'server_protocol'
p1190
asbag49
(g70
g51
NtRp1191
(dp1192
g54
(dp1193
g81
g82
ssg63
g1182
sg56
(lp1194
S':'
asbag49
(g70
g51
NtRp1195
(dp1196
g54
(dp1197
sg63
g1182
sg56
(lp1198
g49
(g50
g51
NtRp1199
(dp1200
g54
(dp1201
g62
I4
ssg63
g1195
sg56
(lp1202
S'HTTP/1.1'
p1203
asbasbasbag49
(g65
g51
NtRp1204
(dp1205
g54
(dp1206
sg63
g588
sg56
(lp1207
g49
(g70
g51
NtRp1208
(dp1209
g54
(dp1210
g74
g75
ssg63
g1204
sg56
(lp1211
S'server_software'
p1212
asbag49
(g70
g51
NtRp1213
(dp1214
g54
(dp1215
g81
g82
ssg63
g1204
sg56
(lp1216
S':'
asbag49
(g70
g51
NtRp1217
(dp1218
g54
(dp1219
sg63
g1204
sg56
(lp1220
g49
(g50
g51
NtRp1221
(dp1222
g54
(dp1223
g62
I4
ssg63
g1217
sg56
(lp1224
S'Rocket 1.2.4'
p1225
asbasbasbag49
(g65
g51
NtRp1226
(dp1227
g54
(dp1228
sg63
g588
sg56
(lp1229
g49
(g70
g51
NtRp1230
(dp1231
g54
(dp1232
g74
g75
ssg63
g1226
sg56
(lp1233
S'web2py_crontype'
p1234
asbag49
(g70
g51
NtRp1235
(dp1236
g54
(dp1237
g81
g82
ssg63
g1226
sg56
(lp1238
S':'
asbag49
(g70
g51
NtRp1239
(dp1240
g54
(dp1241
sg63
g1226
sg56
(lp1242
g49
(g50
g51
NtRp1243
(dp1244
g54
(dp1245
g62
I4
ssg63
g1239
sg56
(lp1246
S'hard'
p1247
asbasbasbag49
(g65
g51
NtRp1248
(dp1249
g54
(dp1250
sg63
g588
sg56
(lp1251
g49
(g70
g51
NtRp1252
(dp1253
g54
(dp1254
g74
g75
ssg63
g1248
sg56
(lp1255
S'web2py_path'
p1256
asbag49
(g70
g51
NtRp1257
(dp1258
g54
(dp1259
g81
g82
ssg63
g1248
sg56
(lp1260
S':'
asbag49
(g70
g51
NtRp1261
(dp1262
g54
(dp1263
sg63
g1248
sg56
(lp1264
g49
(g50
g51
NtRp1265
(dp1266
g54
(dp1267
g62
I4
ssg63
g1261
sg56
(lp1268
g635
asbasbasbag49
(g65
g51
NtRp1269
(dp1270
g54
(dp1271
sg63
g588
sg56
(lp1272
g49
(g70
g51
NtRp1273
(dp1274
g54
(dp1275
g74
g75
ssg63
g1269
sg56
(lp1276
S'web2py_version'
p1277
asbag49
(g70
g51
NtRp1278
(dp1279
g54
(dp1280
g81
g82
ssg63
g1269
sg56
(lp1281
S':'
asbag49
(g70
g51
NtRp1282
(dp1283
g54
(dp1284
sg63
g1269
sg56
(lp1285
g49
(g50
g51
NtRp1286
(dp1287
g54
(dp1288
g62
I4
ssg63
g1282
sg56
(lp1289
g49
(g58
g51
NtRp1290
(dp1291
g54
(dp1292
g62
I3
ssg63
Nsg56
(lp1293
g49
(g65
g51
NtRp1294
(dp1295
g54
(dp1296
sg63
g1290
sg56
(lp1297
g49
(g70
g51
NtRp1298
(dp1299
g54
(dp1300
sg63
g1294
sg56
(lp1301
g49
(g50
g51
NtRp1302
(dp1303
g54
(dp1304
g62
I3
ssg63
g1298
sg56
(lp1305
S'1'
asbasbasbag49
(g65
g51
NtRp1306
(dp1307
g54
(dp1308
sg63
g1290
sg56
(lp1309
g49
(g70
g51
NtRp1310
(dp1311
g54
(dp1312
sg63
g1306
sg56
(lp1313
g49
(g50
g51
NtRp1314
(dp1315
g54
(dp1316
g62
I3
ssg63
g1310
sg56
(lp1317
S'99'
p1318
asbasbasbag49
(g65
g51
NtRp1319
(dp1320
g54
(dp1321
sg63
g1290
sg56
(lp1322
g49
(g70
g51
NtRp1323
(dp1324
g54
(dp1325
sg63
g1319
sg56
(lp1326
g49
(g50
g51
NtRp1327
(dp1328
g54
(dp1329
g62
I3
ssg63
g1323
sg56
(lp1330
S'7'
asbasbasbag49
(g65
g51
NtRp1331
(dp1332
g54
(dp1333
sg63
g1290
sg56
(lp1334
g49
(g70
g51
NtRp1335
(dp1336
g54
(dp1337
sg63
g1331
sg56
(lp1338
g49
(g50
g51
NtRp1339
(dp1340
g54
(dp1341
g62
I3
ssg63
g1335
sg56
(lp1342
S'datetime.datetime(2012, 3, 4, 22, 12, 8)'
p1343
asbasbasbag49
(g65
g51
NtRp1344
(dp1345
g54
(dp1346
sg63
g1290
sg56
(lp1347
g49
(g70
g51
NtRp1348
(dp1349
g54
(dp1350
sg63
g1344
sg56
(lp1351
g49
(g50
g51
NtRp1352
(dp1353
g54
(dp1354
g62
I3
ssg63
g1348
sg56
(lp1355
S'stable'
p1356
asbasbasbasbasbasbasbag49
(g65
g51
NtRp1357
(dp1358
g54
(dp1359
sg63
g588
sg56
(lp1360
g49
(g70
g51
NtRp1361
(dp1362
g54
(dp1363
g74
g75
ssg63
g1357
sg56
(lp1364
S'wsgi_errors'
p1365
asbag49
(g70
g51
NtRp1366
(dp1367
g54
(dp1368
g81
g82
ssg63
g1357
sg56
(lp1369
S':'
asbag49
(g70
g51
NtRp1370
(dp1371
g54
(dp1372
sg63
g1357
sg56
(lp1373
g49
(g50
g51
NtRp1374
(dp1375
g54
(dp1376
g62
I4
ssg63
g1370
sg56
(lp1377
S'<__main__.Stderr object at 0x00486670>'
p1378
asbasbasbag49
(g65
g51
NtRp1379
(dp1380
g54
(dp1381
sg63
g588
sg56
(lp1382
g49
(g70
g51
NtRp1383
(dp1384
g54
(dp1385
g74
g75
ssg63
g1379
sg56
(lp1386
S'wsgi_file_wrapper'
p1387
asbag49
(g70
g51
NtRp1388
(dp1389
g54
(dp1390
g81
g82
ssg63
g1379
sg56
(lp1391
S':'
asbag49
(g70
g51
NtRp1392
(dp1393
g54
(dp1394
sg63
g1379
sg56
(lp1395
g49
(g50
g51
NtRp1396
(dp1397
g54
(dp1398
g62
I4
ssg63
g1392
sg56
(lp1399
S'<class wsgiref.util.FileWrapper at 0x02EEDE10>'
p1400
asbasbasbag49
(g65
g51
NtRp1401
(dp1402
g54
(dp1403
sg63
g588
sg56
(lp1404
g49
(g70
g51
NtRp1405
(dp1406
g54
(dp1407
g74
g75
ssg63
g1401
sg56
(lp1408
S'wsgi_input'
p1409
asbag49
(g70
g51
NtRp1410
(dp1411
g54
(dp1412
g81
g82
ssg63
g1401
sg56
(lp1413
S':'
asbag49
(g70
g51
NtRp1414
(dp1415
g54
(dp1416
sg63
g1401
sg56
(lp1417
g49
(g50
g51
NtRp1418
(dp1419
g54
(dp1420
g62
I4
ssg63
g1414
sg56
(lp1421
S'<socket._fileobject object at 0x06559D70>'
p1422
asbasbasbag49
(g65
g51
NtRp1423
(dp1424
g54
(dp1425
sg63
g588
sg56
(lp1426
g49
(g70
g51
NtRp1427
(dp1428
g54
(dp1429
g74
g75
ssg63
g1423
sg56
(lp1430
S'wsgi_multiprocess'
p1431
asbag49
(g70
g51
NtRp1432
(dp1433
g54
(dp1434
g81
g82
ssg63
g1423
sg56
(lp1435
S':'
asbag49
(g70
g51
NtRp1436
(dp1437
g54
(dp1438
sg63
g1423
sg56
(lp1439
g49
(g50
g51
NtRp1440
(dp1441
g54
(dp1442
g62
I4
ssg63
g1436
sg56
(lp1443
g92
asbasbasbag49
(g65
g51
NtRp1444
(dp1445
g54
(dp1446
sg63
g588
sg56
(lp1447
g49
(g70
g51
NtRp1448
(dp1449
g54
(dp1450
g74
g75
ssg63
g1444
sg56
(lp1451
S'wsgi_multithread'
p1452
asbag49
(g70
g51
NtRp1453
(dp1454
g54
(dp1455
g81
g82
ssg63
g1444
sg56
(lp1456
S':'
asbag49
(g70
g51
NtRp1457
(dp1458
g54
(dp1459
sg63
g1444
sg56
(lp1460
g49
(g50
g51
NtRp1461
(dp1462
g54
(dp1463
g62
I4
ssg63
g1457
sg56
(lp1464
S'True'
p1465
asbasbasbag49
(g65
g51
NtRp1466
(dp1467
g54
(dp1468
sg63
g588
sg56
(lp1469
g49
(g70
g51
NtRp1470
(dp1471
g54
(dp1472
g74
g75
ssg63
g1466
sg56
(lp1473
S'wsgi_run_once'
p1474
asbag49
(g70
g51
NtRp1475
(dp1476
g54
(dp1477
g81
g82
ssg63
g1466
sg56
(lp1478
S':'
asbag49
(g70
g51
NtRp1479
(dp1480
g54
(dp1481
sg63
g1466
sg56
(lp1482
g49
(g50
g51
NtRp1483
(dp1484
g54
(dp1485
g62
I4
ssg63
g1479
sg56
(lp1486
g92
asbasbasbag49
(g65
g51
NtRp1487
(dp1488
g54
(dp1489
sg63
g588
sg56
(lp1490
g49
(g70
g51
NtRp1491
(dp1492
g54
(dp1493
g74
g75
ssg63
g1487
sg56
(lp1494
S'wsgi_url_scheme'
p1495
asbag49
(g70
g51
NtRp1496
(dp1497
g54
(dp1498
g81
g82
ssg63
g1487
sg56
(lp1499
S':'
asbag49
(g70
g51
NtRp1500
(dp1501
g54
(dp1502
sg63
g1487
sg56
(lp1503
g49
(g50
g51
NtRp1504
(dp1505
g54
(dp1506
g62
I4
ssg63
g1500
sg56
(lp1507
S'http'
p1508
asbasbasbag49
(g65
g51
NtRp1509
(dp1510
g54
(dp1511
sg63
g588
sg56
(lp1512
g49
(g70
g51
NtRp1513
(dp1514
g54
(dp1515
g74
g75
ssg63
g1509
sg56
(lp1516
S'wsgi_version'
p1517
asbag49
(g70
g51
NtRp1518
(dp1519
g54
(dp1520
g81
g82
ssg63
g1509
sg56
(lp1521
S':'
asbag49
(g70
g51
NtRp1522
(dp1523
g54
(dp1524
sg63
g1509
sg56
(lp1525
g49
(g50
g51
NtRp1526
(dp1527
g54
(dp1528
g62
I4
ssg63
g1522
sg56
(lp1529
g49
(g58
g51
NtRp1530
(dp1531
g54
(dp1532
g62
I3
ssg63
Nsg56
(lp1533
g49
(g65
g51
NtRp1534
(dp1535
g54
(dp1536
sg63
g1530
sg56
(lp1537
g49
(g70
g51
NtRp1538
(dp1539
g54
(dp1540
sg63
g1534
sg56
(lp1541
g49
(g50
g51
NtRp1542
(dp1543
g54
(dp1544
g62
I3
ssg63
g1538
sg56
(lp1545
S'1'
asbasbasbag49
(g65
g51
NtRp1546
(dp1547
g54
(dp1548
sg63
g1530
sg56
(lp1549
g49
(g70
g51
NtRp1550
(dp1551
g54
(dp1552
sg63
g1546
sg56
(lp1553
g49
(g50
g51
NtRp1554
(dp1555
g54
(dp1556
g62
I3
ssg63
g1550
sg56
(lp1557
S'0'
asbasbasbasbasbasbasbasbasbasbasbag49
(g65
g51
NtRp1558
(dp1559
g54
(dp1560
sg63
g59
sg56
(lp1561
g49
(g70
g51
NtRp1562
(dp1563
g54
(dp1564
g74
g75
ssg63
g1558
sg56
(lp1565
S'extension'
p1566
asbag49
(g70
g51
NtRp1567
(dp1568
g54
(dp1569
g81
g82
ssg63
g1558
sg56
(lp1570
S':'
asbag49
(g70
g51
NtRp1571
(dp1572
g54
(dp1573
sg63
g1558
sg56
(lp1574
g49
(g50
g51
NtRp1575
(dp1576
g54
(dp1577
g62
I5
ssg63
g1571
sg56
(lp1578
S'html'
p1579
asbasbasbag49
(g65
g51
NtRp1580
(dp1581
g54
(dp1582
sg63
g59
sg56
(lp1583
g49
(g70
g51
NtRp1584
(dp1585
g54
(dp1586
g74
g75
ssg63
g1580
sg56
(lp1587
S'folder'
p1588
asbag49
(g70
g51
NtRp1589
(dp1590
g54
(dp1591
g81
g82
ssg63
g1580
sg56
(lp1592
S':'
asbag49
(g70
g51
NtRp1593
(dp1594
g54
(dp1595
sg63
g1580
sg56
(lp1596
g49
(g50
g51
NtRp1597
(dp1598
g54
(dp1599
g62
I5
ssg63
g1593
sg56
(lp1600
S'C:\\web2py\\applications\\unioeste_code\\'
p1601
asbasbasbag49
(g65
g51
NtRp1602
(dp1603
g54
(dp1604
sg63
g59
sg56
(lp1605
g49
(g70
g51
NtRp1606
(dp1607
g54
(dp1608
g74
g75
ssg63
g1602
sg56
(lp1609
S'function'
p1610
asbag49
(g70
g51
NtRp1611
(dp1612
g54
(dp1613
g81
g82
ssg63
g1602
sg56
(lp1614
S':'
asbag49
(g70
g51
NtRp1615
(dp1616
g54
(dp1617
sg63
g1602
sg56
(lp1618
g49
(g50
g51
NtRp1619
(dp1620
g54
(dp1621
g62
I5
ssg63
g1615
sg56
(lp1622
S'index'
p1623
asbasbasbag49
(g65
g51
NtRp1624
(dp1625
g54
(dp1626
sg63
g59
sg56
(lp1627
g49
(g70
g51
NtRp1628
(dp1629
g54
(dp1630
g74
g75
ssg63
g1624
sg56
(lp1631
S'get_vars'
p1632
asbag49
(g70
g51
NtRp1633
(dp1634
g54
(dp1635
g81
g82
ssg63
g1624
sg56
(lp1636
S':'
asbag49
(g70
g51
NtRp1637
(dp1638
g54
(dp1639
sg63
g1624
sg56
(lp1640
g49
(g50
g51
NtRp1641
(dp1642
g54
(dp1643
g62
I5
ssg63
g1637
sg56
(lp1644
g49
(g58
g51
NtRp1645
(dp1646
g54
(dp1647
g62
I4
ssg63
Nsg56
(lp1648
sbasbasbasbag49
(g65
g51
NtRp1649
(dp1650
g54
(dp1651
sg63
g59
sg56
(lp1652
g49
(g70
g51
NtRp1653
(dp1654
g54
(dp1655
g74
g75
ssg63
g1649
sg56
(lp1656
S'global_settings'
p1657
asbag49
(g70
g51
NtRp1658
(dp1659
g54
(dp1660
g81
g82
ssg63
g1649
sg56
(lp1661
S':'
asbag49
(g70
g51
NtRp1662
(dp1663
g54
(dp1664
sg63
g1649
sg56
(lp1665
g49
(g50
g51
NtRp1666
(dp1667
g54
(dp1668
g62
I5
ssg63
g1662
sg56
(lp1669
g49
(g58
g51
NtRp1670
(dp1671
g54
(dp1672
g62
I4
ssg63
Nsg56
(lp1673
g49
(g65
g51
NtRp1674
(dp1675
g54
(dp1676
sg63
g1670
sg56
(lp1677
g49
(g70
g51
NtRp1678
(dp1679
g54
(dp1680
g74
g75
ssg63
g1674
sg56
(lp1681
g600
asbag49
(g70
g51
NtRp1682
(dp1683
g54
(dp1684
g81
g82
ssg63
g1674
sg56
(lp1685
S':'
asbag49
(g70
g51
NtRp1686
(dp1687
g54
(dp1688
sg63
g1674
sg56
(lp1689
g49
(g50
g51
NtRp1690
(dp1691
g54
(dp1692
g62
I4
ssg63
g1686
sg56
(lp1693
S"set(['C:\\\\web2py\\\\applications\\\\welcome\\\\', 'C:\\\\web2py\\\\applications\\\\unioeste_code\\\\'])"
p1694
asbasbasbag49
(g65
g51
NtRp1695
(dp1696
g54
(dp1697
sg63
g1670
sg56
(lp1698
g49
(g70
g51
NtRp1699
(dp1700
g54
(dp1701
g74
g75
ssg63
g1695
sg56
(lp1702
g622
asbag49
(g70
g51
NtRp1703
(dp1704
g54
(dp1705
g81
g82
ssg63
g1695
sg56
(lp1706
S':'
asbag49
(g70
g51
NtRp1707
(dp1708
g54
(dp1709
sg63
g1695
sg56
(lp1710
g49
(g50
g51
NtRp1711
(dp1712
g54
(dp1713
g62
I4
ssg63
g1707
sg56
(lp1714
g635
asbasbasbag49
(g65
g51
NtRp1715
(dp1716
g54
(dp1717
sg63
g1670
sg56
(lp1718
g49
(g70
g51
NtRp1719
(dp1720
g54
(dp1721
g74
g75
ssg63
g1715
sg56
(lp1722
g644
asbag49
(g70
g51
NtRp1723
(dp1724
g54
(dp1725
g81
g82
ssg63
g1715
sg56
(lp1726
S':'
asbag49
(g70
g51
NtRp1727
(dp1728
g54
(dp1729
sg63
g1715
sg56
(lp1730
g49
(g50
g51
NtRp1731
(dp1732
g54
(dp1733
g62
I4
ssg63
g1727
sg56
(lp1734
g49
(g58
g51
NtRp1735
(dp1736
g54
(dp1737
g62
I3
ssg63
Nsg56
(lp1738
sbasbasbasbag49
(g65
g51
NtRp1739
(dp1740
g54
(dp1741
sg63
g1670
sg56
(lp1742
g49
(g70
g51
NtRp1743
(dp1744
g54
(dp1745
g74
g75
ssg63
g1739
sg56
(lp1746
g669
asbag49
(g70
g51
NtRp1747
(dp1748
g54
(dp1749
g81
g82
ssg63
g1739
sg56
(lp1750
S':'
asbag49
(g70
g51
NtRp1751
(dp1752
g54
(dp1753
sg63
g1739
sg56
(lp1754
g49
(g50
g51
NtRp1755
(dp1756
g54
(dp1757
g62
I4
ssg63
g1751
sg56
(lp1758
S"<Values at 0x30fc300: {'verbose': False, 'ip': '127.0.0.1', 'shutdown_timeout': 5, 'taskbar': False, 'nocron': False, 'pid_filename': 'httpserver.pid', 'maxthreads': None, 'softcron': False, 'server_name': 'Pedro-PC', 'bpython': False, 'nogui': False, 'port': 8000, 'extcron': False, 'debuglevel': 30, 'test': None, 'folder': 'C:\\\\web2py', 'config': '', 'import_models': False, 'winservice': '', 'shell': None, 'run': '', 'log_filename': 'httpserver.log', 'args': [''], 'socket_timeout': 5, 'ssl_ca_certificate': None, 'scheduler': None, 'profiler_filename': None, 'ssl_private_key': '', 'password': '<ask>', 'request_queue_size': 5, 'ssl_certificate': '', 'cronjob': False, 'numthreads': None, 'quiet': False, 'interfaces': None, 'minthreads': None, 'timeout': 10, 'plain': False, 'nobanner': False}>"
p1759
asbasbasbag49
(g65
g51
NtRp1760
(dp1761
g54
(dp1762
sg63
g1670
sg56
(lp1763
g49
(g70
g51
NtRp1764
(dp1765
g54
(dp1766
g74
g75
ssg63
g1760
sg56
(lp1767
g691
asbag49
(g70
g51
NtRp1768
(dp1769
g54
(dp1770
g81
g82
ssg63
g1760
sg56
(lp1771
S':'
asbag49
(g70
g51
NtRp1772
(dp1773
g54
(dp1774
sg63
g1760
sg56
(lp1775
g49
(g50
g51
NtRp1776
(dp1777
g54
(dp1778
g62
I4
ssg63
g1772
sg56
(lp1779
S'set([])'
p1780
asbasbasbag49
(g65
g51
NtRp1781
(dp1782
g54
(dp1783
sg63
g1670
sg56
(lp1784
g49
(g70
g51
NtRp1785
(dp1786
g54
(dp1787
g74
g75
ssg63
g1781
sg56
(lp1788
g713
asbag49
(g70
g51
NtRp1789
(dp1790
g54
(dp1791
g81
g82
ssg63
g1781
sg56
(lp1792
S':'
asbag49
(g70
g51
NtRp1793
(dp1794
g54
(dp1795
sg63
g1781
sg56
(lp1796
g49
(g50
g51
NtRp1797
(dp1798
g54
(dp1799
g62
I4
ssg63
g1793
sg56
(lp1800
g92
asbasbasbag49
(g65
g51
NtRp1801
(dp1802
g54
(dp1803
sg63
g1670
sg56
(lp1804
g49
(g70
g51
NtRp1805
(dp1806
g54
(dp1807
g74
g75
ssg63
g1801
sg56
(lp1808
g734
asbag49
(g70
g51
NtRp1809
(dp1810
g54
(dp1811
g81
g82
ssg63
g1801
sg56
(lp1812
S':'
asbag49
(g70
g51
NtRp1813
(dp1814
g54
(dp1815
sg63
g1801
sg56
(lp1816
g49
(g50
g51
NtRp1817
(dp1818
g54
(dp1819
g62
I4
ssg63
g1813
sg56
(lp1820
g747
asbasbasbag49
(g65
g51
NtRp1821
(dp1822
g54
(dp1823
sg63
g1670
sg56
(lp1824
g49
(g70
g51
NtRp1825
(dp1826
g54
(dp1827
g74
g75
ssg63
g1821
sg56
(lp1828
g975
asbag49
(g70
g51
NtRp1829
(dp1830
g54
(dp1831
g81
g82
ssg63
g1821
sg56
(lp1832
S':'
asbag49
(g70
g51
NtRp1833
(dp1834
g54
(dp1835
sg63
g1821
sg56
(lp1836
g49
(g50
g51
NtRp1837
(dp1838
g54
(dp1839
g62
I4
ssg63
g1833
sg56
(lp1840
g92
asbasbasbag49
(g65
g51
NtRp1841
(dp1842
g54
(dp1843
sg63
g1670
sg56
(lp1844
g49
(g70
g51
NtRp1845
(dp1846
g54
(dp1847
g74
g75
ssg63
g1841
sg56
(lp1848
g996
asbag49
(g70
g51
NtRp1849
(dp1850
g54
(dp1851
g81
g82
ssg63
g1841
sg56
(lp1852
S':'
asbag49
(g70
g51
NtRp1853
(dp1854
g54
(dp1855
sg63
g1841
sg56
(lp1856
g49
(g50
g51
NtRp1857
(dp1858
g54
(dp1859
g62
I4
ssg63
g1853
sg56
(lp1860
g92
asbasbasbag49
(g65
g51
NtRp1861
(dp1862
g54
(dp1863
sg63
g1670
sg56
(lp1864
g49
(g70
g51
NtRp1865
(dp1866
g54
(dp1867
g74
g75
ssg63
g1861
sg56
(lp1868
g1234
asbag49
(g70
g51
NtRp1869
(dp1870
g54
(dp1871
g81
g82
ssg63
g1861
sg56
(lp1872
S':'
asbag49
(g70
g51
NtRp1873
(dp1874
g54
(dp1875
sg63
g1861
sg56
(lp1876
g49
(g50
g51
NtRp1877
(dp1878
g54
(dp1879
g62
I4
ssg63
g1873
sg56
(lp1880
g1247
asbasbasbag49
(g65
g51
NtRp1881
(dp1882
g54
(dp1883
sg63
g1670
sg56
(lp1884
g49
(g70
g51
NtRp1885
(dp1886
g54
(dp1887
g74
g75
ssg63
g1881
sg56
(lp1888
g1277
asbag49
(g70
g51
NtRp1889
(dp1890
g54
(dp1891
g81
g82
ssg63
g1881
sg56
(lp1892
S':'
asbag49
(g70
g51
NtRp1893
(dp1894
g54
(dp1895
sg63
g1881
sg56
(lp1896
g49
(g50
g51
NtRp1897
(dp1898
g54
(dp1899
g62
I4
ssg63
g1893
sg56
(lp1900
g49
(g58
g51
NtRp1901
(dp1902
g54
(dp1903
g62
I3
ssg63
Nsg56
(lp1904
g49
(g65
g51
NtRp1905
(dp1906
g54
(dp1907
sg63
g1901
sg56
(lp1908
g49
(g70
g51
NtRp1909
(dp1910
g54
(dp1911
sg63
g1905
sg56
(lp1912
g49
(g50
g51
NtRp1913
(dp1914
g54
(dp1915
g62
I3
ssg63
g1909
sg56
(lp1916
S'1'
asbasbasbag49
(g65
g51
NtRp1917
(dp1918
g54
(dp1919
sg63
g1901
sg56
(lp1920
g49
(g70
g51
NtRp1921
(dp1922
g54
(dp1923
sg63
g1917
sg56
(lp1924
g49
(g50
g51
NtRp1925
(dp1926
g54
(dp1927
g62
I3
ssg63
g1921
sg56
(lp1928
S'99'
p1929
asbasbasbag49
(g65
g51
NtRp1930
(dp1931
g54
(dp1932
sg63
g1901
sg56
(lp1933
g49
(g70
g51
NtRp1934
(dp1935
g54
(dp1936
sg63
g1930
sg56
(lp1937
g49
(g50
g51
NtRp1938
(dp1939
g54
(dp1940
g62
I3
ssg63
g1934
sg56
(lp1941
S'7'
asbasbasbag49
(g65
g51
NtRp1942
(dp1943
g54
(dp1944
sg63
g1901
sg56
(lp1945
g49
(g70
g51
NtRp1946
(dp1947
g54
(dp1948
sg63
g1942
sg56
(lp1949
g49
(g50
g51
NtRp1950
(dp1951
g54
(dp1952
g62
I3
ssg63
g1946
sg56
(lp1953
S'datetime.datetime(2012, 3, 4, 22, 12, 8)'
p1954
asbasbasbag49
(g65
g51
NtRp1955
(dp1956
g54
(dp1957
sg63
g1901
sg56
(lp1958
g49
(g70
g51
NtRp1959
(dp1960
g54
(dp1961
sg63
g1955
sg56
(lp1962
g49
(g50
g51
NtRp1963
(dp1964
g54
(dp1965
g62
I3
ssg63
g1959
sg56
(lp1966
g1356
asbasbasbasbasbasbasbasbasbasbasbag49
(g65
g51
NtRp1967
(dp1968
g54
(dp1969
sg63
g59
sg56
(lp1970
g49
(g70
g51
NtRp1971
(dp1972
g54
(dp1973
g74
g75
ssg63
g1967
sg56
(lp1974
S'is_https'
p1975
asbag49
(g70
g51
NtRp1976
(dp1977
g54
(dp1978
g81
g82
ssg63
g1967
sg56
(lp1979
S':'
asbag49
(g70
g51
NtRp1980
(dp1981
g54
(dp1982
sg63
g1967
sg56
(lp1983
g49
(g50
g51
NtRp1984
(dp1985
g54
(dp1986
g62
I5
ssg63
g1980
sg56
(lp1987
g92
asbasbasbag49
(g65
g51
NtRp1988
(dp1989
g54
(dp1990
sg63
g59
sg56
(lp1991
g49
(g70
g51
NtRp1992
(dp1993
g54
(dp1994
g74
g75
ssg63
g1988
sg56
(lp1995
S'is_local'
p1996
asbag49
(g70
g51
NtRp1997
(dp1998
g54
(dp1999
g81
g82
ssg63
g1988
sg56
(lp2000
S':'
asbag49
(g70
g51
NtRp2001
(dp2002
g54
(dp2003
sg63
g1988
sg56
(lp2004
g49
(g50
g51
NtRp2005
(dp2006
g54
(dp2007
g62
I5
ssg63
g2001
sg56
(lp2008
g1465
asbasbasbag49
(g65
g51
NtRp2009
(dp2010
g54
(dp2011
sg63
g59
sg56
(lp2012
g49
(g70
g51
NtRp2013
(dp2014
g54
(dp2015
g74
g75
ssg63
g2009
sg56
(lp2016
S'is_restful'
p2017
asbag49
(g70
g51
NtRp2018
(dp2019
g54
(dp2020
g81
g82
ssg63
g2009
sg56
(lp2021
S':'
asbag49
(g70
g51
NtRp2022
(dp2023
g54
(dp2024
sg63
g2009
sg56
(lp2025
g49
(g50
g51
NtRp2026
(dp2027
g54
(dp2028
g62
I5
ssg63
g2022
sg56
(lp2029
g92
asbasbasbag49
(g65
g51
NtRp2030
(dp2031
g54
(dp2032
sg63
g59
sg56
(lp2033
g49
(g70
g51
NtRp2034
(dp2035
g54
(dp2036
g74
g75
ssg63
g2030
sg56
(lp2037
S'now'
p2038
asbag49
(g70
g51
NtRp2039
(dp2040
g54
(dp2041
g81
g82
ssg63
g2030
sg56
(lp2042
S':'
asbag49
(g70
g51
NtRp2043
(dp2044
g54
(dp2045
sg63
g2030
sg56
(lp2046
g49
(g50
g51
NtRp2047
(dp2048
g54
(dp2049
g62
I5
ssg63
g2043
sg56
(lp2050
S'datetime.datetime(2012, 7, 30, 15, 26, 35, 792000)'
p2051
asbasbasbag49
(g65
g51
NtRp2052
(dp2053
g54
(dp2054
sg63
g59
sg56
(lp2055
g49
(g70
g51
NtRp2056
(dp2057
g54
(dp2058
g74
g75
ssg63
g2052
sg56
(lp2059
S'post_vars'
p2060
asbag49
(g70
g51
NtRp2061
(dp2062
g54
(dp2063
g81
g82
ssg63
g2052
sg56
(lp2064
S':'
asbag49
(g70
g51
NtRp2065
(dp2066
g54
(dp2067
sg63
g2052
sg56
(lp2068
g49
(g50
g51
NtRp2069
(dp2070
g54
(dp2071
g62
I5
ssg63
g2065
sg56
(lp2072
g49
(g58
g51
NtRp2073
(dp2074
g54
(dp2075
g62
I4
ssg63
Nsg56
(lp2076
sbasbasbasbag49
(g65
g51
NtRp2077
(dp2078
g54
(dp2079
sg63
g59
sg56
(lp2080
g49
(g70
g51
NtRp2081
(dp2082
g54
(dp2083
g74
g75
ssg63
g2077
sg56
(lp2084
S'url'
p2085
asbag49
(g70
g51
NtRp2086
(dp2087
g54
(dp2088
g81
g82
ssg63
g2077
sg56
(lp2089
S':'
asbag49
(g70
g51
NtRp2090
(dp2091
g54
(dp2092
sg63
g2077
sg56
(lp2093
g49
(g50
g51
NtRp2094
(dp2095
g54
(dp2096
g62
I5
ssg63
g2090
sg56
(lp2097
S'/unioeste_code/default/index'
p2098
asbasbasbag49
(g65
g51
NtRp2099
(dp2100
g54
(dp2101
sg63
g59
sg56
(lp2102
g49
(g70
g51
NtRp2103
(dp2104
g54
(dp2105
g74
g75
ssg63
g2099
sg56
(lp2106
S'utcnow'
p2107
asbag49
(g70
g51
NtRp2108
(dp2109
g54
(dp2110
g81
g82
ssg63
g2099
sg56
(lp2111
S':'
asbag49
(g70
g51
NtRp2112
(dp2113
g54
(dp2114
sg63
g2099
sg56
(lp2115
g49
(g50
g51
NtRp2116
(dp2117
g54
(dp2118
g62
I5
ssg63
g2112
sg56
(lp2119
S'datetime.datetime(2012, 7, 30, 18, 26, 35, 792000)'
p2120
asbasbasbag49
(g65
g51
NtRp2121
(dp2122
g54
(dp2123
sg63
g59
sg56
(lp2124
g49
(g70
g51
NtRp2125
(dp2126
g54
(dp2127
g74
g75
ssg63
g2121
sg56
(lp2128
S'uuid'
p2129
asbag49
(g70
g51
NtRp2130
(dp2131
g54
(dp2132
g81
g82
ssg63
g2121
sg56
(lp2133
S':'
asbag49
(g70
g51
NtRp2134
(dp2135
g54
(dp2136
sg63
g2121
sg56
(lp2137
g49
(g50
g51
NtRp2138
(dp2139
g54
(dp2140
g62
I5
ssg63
g2134
sg56
(lp2141
S'unioeste_code/127.0.0.1.2012-07-30.15-26-35.92217a15-2f0b-466e-9fed-58b33b30b106'
p2142
asbasbasbag49
(g65
g51
NtRp2143
(dp2144
g54
(dp2145
sg63
g59
sg56
(lp2146
g49
(g70
g51
NtRp2147
(dp2148
g54
(dp2149
g74
g75
ssg63
g2143
sg56
(lp2150
S'vars'
p2151
asbag49
(g70
g51
NtRp2152
(dp2153
g54
(dp2154
g81
g82
ssg63
g2143
sg56
(lp2155
S':'
asbag49
(g70
g51
NtRp2156
(dp2157
g54
(dp2158
sg63
g2143
sg56
(lp2159
g49
(g50
g51
NtRp2160
(dp2161
g54
(dp2162
g62
I5
ssg63
g2156
sg56
(lp2163
g49
(g58
g51
NtRp2164
(dp2165
g54
(dp2166
g62
I4
ssg63
Nsg56
(lp2167
sbasbasbasbag49
(g65
g51
NtRp2168
(dp2169
g54
(dp2170
sg63
g59
sg56
(lp2171
g49
(g70
g51
NtRp2172
(dp2173
g54
(dp2174
g74
g75
ssg63
g2168
sg56
(lp2175
S'wsgi'
p2176
asbag49
(g70
g51
NtRp2177
(dp2178
g54
(dp2179
g81
g82
ssg63
g2168
sg56
(lp2180
S':'
asbag49
(g70
g51
NtRp2181
(dp2182
g54
(dp2183
sg63
g2168
sg56
(lp2184
g49
(g50
g51
NtRp2185
(dp2186
g54
(dp2187
g62
I5
ssg63
g2181
sg56
(lp2188
g49
(g58
g51
NtRp2189
(dp2190
g54
(dp2191
g62
I4
ssg63
Nsg56
(lp2192
g49
(g65
g51
NtRp2193
(dp2194
g54
(dp2195
sg63
g2189
sg56
(lp2196
g49
(g70
g51
NtRp2197
(dp2198
g54
(dp2199
g74
g75
ssg63
g2193
sg56
(lp2200
S'environ'
p2201
asbag49
(g70
g51
NtRp2202
(dp2203
g54
(dp2204
g81
g82
ssg63
g2193
sg56
(lp2205
S':'
asbag49
(g70
g51
NtRp2206
(dp2207
g54
(dp2208
sg63
g2193
sg56
(lp2209
g49
(g50
g51
NtRp2210
(dp2211
g54
(dp2212
g62
I4
ssg63
g2206
sg56
(lp2213
g49
(g58
g51
NtRp2214
(dp2215
g54
(dp2216
g62
I3
ssg63
Nsg56
(lp2217
g49
(g65
g51
NtRp2218
(dp2219
g54
(dp2220
sg63
g2214
sg56
(lp2221
g49
(g70
g51
NtRp2222
(dp2223
g54
(dp2224
g74
g75
ssg63
g2218
sg56
(lp2225
S'HTTP_ACCEPT'
p2226
asbag49
(g70
g51
NtRp2227
(dp2228
g54
(dp2229
g81
g82
ssg63
g2218
sg56
(lp2230
S':'
asbag49
(g70
g51
NtRp2231
(dp2232
g54
(dp2233
sg63
g2218
sg56
(lp2234
g49
(g50
g51
NtRp2235
(dp2236
g54
(dp2237
g62
I3
ssg63
g2231
sg56
(lp2238
g769
asbasbasbag49
(g65
g51
NtRp2239
(dp2240
g54
(dp2241
sg63
g2214
sg56
(lp2242
g49
(g70
g51
NtRp2243
(dp2244
g54
(dp2245
g74
g75
ssg63
g2239
sg56
(lp2246
S'HTTP_ACCEPT_CHARSET'
p2247
asbag49
(g70
g51
NtRp2248
(dp2249
g54
(dp2250
g81
g82
ssg63
g2239
sg56
(lp2251
S':'
asbag49
(g70
g51
NtRp2252
(dp2253
g54
(dp2254
sg63
g2239
sg56
(lp2255
g49
(g50
g51
NtRp2256
(dp2257
g54
(dp2258
g62
I3
ssg63
g2252
sg56
(lp2259
g791
asbasbasbag49
(g65
g51
NtRp2260
(dp2261
g54
(dp2262
sg63
g2214
sg56
(lp2263
g49
(g70
g51
NtRp2264
(dp2265
g54
(dp2266
g74
g75
ssg63
g2260
sg56
(lp2267
S'HTTP_ACCEPT_ENCODING'
p2268
asbag49
(g70
g51
NtRp2269
(dp2270
g54
(dp2271
g81
g82
ssg63
g2260
sg56
(lp2272
S':'
asbag49
(g70
g51
NtRp2273
(dp2274
g54
(dp2275
sg63
g2260
sg56
(lp2276
g49
(g50
g51
NtRp2277
(dp2278
g54
(dp2279
g62
I3
ssg63
g2273
sg56
(lp2280
g813
asbasbasbag49
(g65
g51
NtRp2281
(dp2282
g54
(dp2283
sg63
g2214
sg56
(lp2284
g49
(g70
g51
NtRp2285
(dp2286
g54
(dp2287
g74
g75
ssg63
g2281
sg56
(lp2288
S'HTTP_ACCEPT_LANGUAGE'
p2289
asbag49
(g70
g51
NtRp2290
(dp2291
g54
(dp2292
g81
g82
ssg63
g2281
sg56
(lp2293
S':'
asbag49
(g70
g51
NtRp2294
(dp2295
g54
(dp2296
sg63
g2281
sg56
(lp2297
g49
(g50
g51
NtRp2298
(dp2299
g54
(dp2300
g62
I3
ssg63
g2294
sg56
(lp2301
g835
asbasbasbag49
(g65
g51
NtRp2302
(dp2303
g54
(dp2304
sg63
g2214
sg56
(lp2305
g49
(g70
g51
NtRp2306
(dp2307
g54
(dp2308
g74
g75
ssg63
g2302
sg56
(lp2309
S'HTTP_CACHE_CONTROL'
p2310
asbag49
(g70
g51
NtRp2311
(dp2312
g54
(dp2313
g81
g82
ssg63
g2302
sg56
(lp2314
S':'
asbag49
(g70
g51
NtRp2315
(dp2316
g54
(dp2317
sg63
g2302
sg56
(lp2318
g49
(g50
g51
NtRp2319
(dp2320
g54
(dp2321
g62
I3
ssg63
g2315
sg56
(lp2322
g857
asbasbasbag49
(g65
g51
NtRp2323
(dp2324
g54
(dp2325
sg63
g2214
sg56
(lp2326
g49
(g70
g51
NtRp2327
(dp2328
g54
(dp2329
g74
g75
ssg63
g2323
sg56
(lp2330
S'HTTP_CONNECTION'
p2331
asbag49
(g70
g51
NtRp2332
(dp2333
g54
(dp2334
g81
g82
ssg63
g2323
sg56
(lp2335
S':'
asbag49
(g70
g51
NtRp2336
(dp2337
g54
(dp2338
sg63
g2323
sg56
(lp2339
g49
(g50
g51
NtRp2340
(dp2341
g54
(dp2342
g62
I3
ssg63
g2336
sg56
(lp2343
g879
asbasbasbag49
(g65
g51
NtRp2344
(dp2345
g54
(dp2346
sg63
g2214
sg56
(lp2347
g49
(g70
g51
NtRp2348
(dp2349
g54
(dp2350
g74
g75
ssg63
g2344
sg56
(lp2351
S'HTTP_COOKIE'
p2352
asbag49
(g70
g51
NtRp2353
(dp2354
g54
(dp2355
g81
g82
ssg63
g2344
sg56
(lp2356
S':'
asbag49
(g70
g51
NtRp2357
(dp2358
g54
(dp2359
sg63
g2344
sg56
(lp2360
g49
(g50
g51
NtRp2361
(dp2362
g54
(dp2363
g62
I3
ssg63
g2357
sg56
(lp2364
g901
asbasbasbag49
(g65
g51
NtRp2365
(dp2366
g54
(dp2367
sg63
g2214
sg56
(lp2368
g49
(g70
g51
NtRp2369
(dp2370
g54
(dp2371
g74
g75
ssg63
g2365
sg56
(lp2372
S'HTTP_DNT'
p2373
asbag49
(g70
g51
NtRp2374
(dp2375
g54
(dp2376
g81
g82
ssg63
g2365
sg56
(lp2377
S':'
asbag49
(g70
g51
NtRp2378
(dp2379
g54
(dp2380
sg63
g2365
sg56
(lp2381
g49
(g50
g51
NtRp2382
(dp2383
g54
(dp2384
g62
I3
ssg63
g2378
sg56
(lp2385
S'1'
asbasbasbag49
(g65
g51
NtRp2386
(dp2387
g54
(dp2388
sg63
g2214
sg56
(lp2389
g49
(g70
g51
NtRp2390
(dp2391
g54
(dp2392
g74
g75
ssg63
g2386
sg56
(lp2393
S'HTTP_HOST'
p2394
asbag49
(g70
g51
NtRp2395
(dp2396
g54
(dp2397
g81
g82
ssg63
g2386
sg56
(lp2398
S':'
asbag49
(g70
g51
NtRp2399
(dp2400
g54
(dp2401
sg63
g2386
sg56
(lp2402
g49
(g50
g51
NtRp2403
(dp2404
g54
(dp2405
g62
I3
ssg63
g2399
sg56
(lp2406
g944
asbasbasbag49
(g65
g51
NtRp2407
(dp2408
g54
(dp2409
sg63
g2214
sg56
(lp2410
g49
(g70
g51
NtRp2411
(dp2412
g54
(dp2413
g74
g75
ssg63
g2407
sg56
(lp2414
S'HTTP_USER_AGENT'
p2415
asbag49
(g70
g51
NtRp2416
(dp2417
g54
(dp2418
g81
g82
ssg63
g2407
sg56
(lp2419
S':'
asbag49
(g70
g51
NtRp2420
(dp2421
g54
(dp2422
sg63
g2407
sg56
(lp2423
g49
(g50
g51
NtRp2424
(dp2425
g54
(dp2426
g62
I3
ssg63
g2420
sg56
(lp2427
g966
asbasbasbag49
(g65
g51
NtRp2428
(dp2429
g54
(dp2430
sg63
g2214
sg56
(lp2431
g49
(g70
g51
NtRp2432
(dp2433
g54
(dp2434
g74
g75
ssg63
g2428
sg56
(lp2435
S'PATH_INFO'
p2436
asbag49
(g70
g51
NtRp2437
(dp2438
g54
(dp2439
g81
g82
ssg63
g2428
sg56
(lp2440
S':'
asbag49
(g70
g51
NtRp2441
(dp2442
g54
(dp2443
sg63
g2428
sg56
(lp2444
g49
(g50
g51
NtRp2445
(dp2446
g54
(dp2447
g62
I3
ssg63
g2441
sg56
(lp2448
g1030
asbasbasbag49
(g65
g51
NtRp2449
(dp2450
g54
(dp2451
sg63
g2214
sg56
(lp2452
g49
(g70
g51
NtRp2453
(dp2454
g54
(dp2455
g74
g75
ssg63
g2449
sg56
(lp2456
S'QUERY_STRING'
p2457
asbag49
(g70
g51
NtRp2458
(dp2459
g54
(dp2460
g81
g82
ssg63
g2449
sg56
(lp2461
S':'
asbag49
(g70
g51
NtRp2462
(dp2463
g54
(dp2464
sg63
g2449
sg56
(lp2465
g49
(g50
g51
NtRp2466
(dp2467
g54
(dp2468
g62
I3
ssg63
g2462
sg56
(lp2469
S''
asbasbasbag49
(g65
g51
NtRp2470
(dp2471
g54
(dp2472
sg63
g2214
sg56
(lp2473
g49
(g70
g51
NtRp2474
(dp2475
g54
(dp2476
g74
g75
ssg63
g2470
sg56
(lp2477
S'REMOTE_ADDR'
p2478
asbag49
(g70
g51
NtRp2479
(dp2480
g54
(dp2481
g81
g82
ssg63
g2470
sg56
(lp2482
S':'
asbag49
(g70
g51
NtRp2483
(dp2484
g54
(dp2485
sg63
g2470
sg56
(lp2486
g49
(g50
g51
NtRp2487
(dp2488
g54
(dp2489
g62
I3
ssg63
g2483
sg56
(lp2490
g182
asbasbasbag49
(g65
g51
NtRp2491
(dp2492
g54
(dp2493
sg63
g2214
sg56
(lp2494
g49
(g70
g51
NtRp2495
(dp2496
g54
(dp2497
g74
g75
ssg63
g2491
sg56
(lp2498
S'REMOTE_PORT'
p2499
asbag49
(g70
g51
NtRp2500
(dp2501
g54
(dp2502
g81
g82
ssg63
g2491
sg56
(lp2503
S':'
asbag49
(g70
g51
NtRp2504
(dp2505
g54
(dp2506
sg63
g2491
sg56
(lp2507
g49
(g50
g51
NtRp2508
(dp2509
g54
(dp2510
g62
I3
ssg63
g2504
sg56
(lp2511
g1094
asbasbasbag49
(g65
g51
NtRp2512
(dp2513
g54
(dp2514
sg63
g2214
sg56
(lp2515
g49
(g70
g51
NtRp2516
(dp2517
g54
(dp2518
g74
g75
ssg63
g2512
sg56
(lp2519
S'REQUEST_METHOD'
p2520
asbag49
(g70
g51
NtRp2521
(dp2522
g54
(dp2523
g81
g82
ssg63
g2512
sg56
(lp2524
S':'
asbag49
(g70
g51
NtRp2525
(dp2526
g54
(dp2527
sg63
g2512
sg56
(lp2528
g49
(g50
g51
NtRp2529
(dp2530
g54
(dp2531
g62
I3
ssg63
g2525
sg56
(lp2532
g1116
asbasbasbag49
(g65
g51
NtRp2533
(dp2534
g54
(dp2535
sg63
g2214
sg56
(lp2536
g49
(g70
g51
NtRp2537
(dp2538
g54
(dp2539
g74
g75
ssg63
g2533
sg56
(lp2540
S'SCRIPT_NAME'
p2541
asbag49
(g70
g51
NtRp2542
(dp2543
g54
(dp2544
g81
g82
ssg63
g2533
sg56
(lp2545
S':'
asbag49
(g70
g51
NtRp2546
(dp2547
g54
(dp2548
sg63
g2533
sg56
(lp2549
g49
(g50
g51
NtRp2550
(dp2551
g54
(dp2552
g62
I3
ssg63
g2546
sg56
(lp2553
S''
asbasbasbag49
(g65
g51
NtRp2554
(dp2555
g54
(dp2556
sg63
g2214
sg56
(lp2557
g49
(g70
g51
NtRp2558
(dp2559
g54
(dp2560
g74
g75
ssg63
g2554
sg56
(lp2561
S'SERVER_NAME'
p2562
asbag49
(g70
g51
NtRp2563
(dp2564
g54
(dp2565
g81
g82
ssg63
g2554
sg56
(lp2566
S':'
asbag49
(g70
g51
NtRp2567
(dp2568
g54
(dp2569
sg63
g2554
sg56
(lp2570
g49
(g50
g51
NtRp2571
(dp2572
g54
(dp2573
g62
I3
ssg63
g2567
sg56
(lp2574
g1159
asbasbasbag49
(g65
g51
NtRp2575
(dp2576
g54
(dp2577
sg63
g2214
sg56
(lp2578
g49
(g70
g51
NtRp2579
(dp2580
g54
(dp2581
g74
g75
ssg63
g2575
sg56
(lp2582
S'SERVER_PORT'
p2583
asbag49
(g70
g51
NtRp2584
(dp2585
g54
(dp2586
g81
g82
ssg63
g2575
sg56
(lp2587
S':'
asbag49
(g70
g51
NtRp2588
(dp2589
g54
(dp2590
sg63
g2575
sg56
(lp2591
g49
(g50
g51
NtRp2592
(dp2593
g54
(dp2594
g62
I3
ssg63
g2588
sg56
(lp2595
g1181
asbasbasbag49
(g65
g51
NtRp2596
(dp2597
g54
(dp2598
sg63
g2214
sg56
(lp2599
g49
(g70
g51
NtRp2600
(dp2601
g54
(dp2602
g74
g75
ssg63
g2596
sg56
(lp2603
S'SERVER_PROTOCOL'
p2604
asbag49
(g70
g51
NtRp2605
(dp2606
g54
(dp2607
g81
g82
ssg63
g2596
sg56
(lp2608
S':'
asbag49
(g70
g51
NtRp2609
(dp2610
g54
(dp2611
sg63
g2596
sg56
(lp2612
g49
(g50
g51
NtRp2613
(dp2614
g54
(dp2615
g62
I3
ssg63
g2609
sg56
(lp2616
g1203
asbasbasbag49
(g65
g51
NtRp2617
(dp2618
g54
(dp2619
sg63
g2214
sg56
(lp2620
g49
(g70
g51
NtRp2621
(dp2622
g54
(dp2623
g74
g75
ssg63
g2617
sg56
(lp2624
S'SERVER_SOFTWARE'
p2625
asbag49
(g70
g51
NtRp2626
(dp2627
g54
(dp2628
g81
g82
ssg63
g2617
sg56
(lp2629
S':'
asbag49
(g70
g51
NtRp2630
(dp2631
g54
(dp2632
sg63
g2617
sg56
(lp2633
g49
(g50
g51
NtRp2634
(dp2635
g54
(dp2636
g62
I3
ssg63
g2630
sg56
(lp2637
g1225
asbasbasbag49
(g65
g51
NtRp2638
(dp2639
g54
(dp2640
sg63
g2214
sg56
(lp2641
g49
(g70
g51
NtRp2642
(dp2643
g54
(dp2644
g74
g75
ssg63
g2638
sg56
(lp2645
S'wsgi.errors'
p2646
asbag49
(g70
g51
NtRp2647
(dp2648
g54
(dp2649
g81
g82
ssg63
g2638
sg56
(lp2650
S':'
asbag49
(g70
g51
NtRp2651
(dp2652
g54
(dp2653
sg63
g2638
sg56
(lp2654
g49
(g50
g51
NtRp2655
(dp2656
g54
(dp2657
g62
I3
ssg63
g2651
sg56
(lp2658
S'<__main__.Stderr object at 0x00486670>'
p2659
asbasbasbag49
(g65
g51
NtRp2660
(dp2661
g54
(dp2662
sg63
g2214
sg56
(lp2663
g49
(g70
g51
NtRp2664
(dp2665
g54
(dp2666
g74
g75
ssg63
g2660
sg56
(lp2667
S'wsgi.file_wrapper'
p2668
asbag49
(g70
g51
NtRp2669
(dp2670
g54
(dp2671
g81
g82
ssg63
g2660
sg56
(lp2672
S':'
asbag49
(g70
g51
NtRp2673
(dp2674
g54
(dp2675
sg63
g2660
sg56
(lp2676
g49
(g50
g51
NtRp2677
(dp2678
g54
(dp2679
g62
I3
ssg63
g2673
sg56
(lp2680
S'<class wsgiref.util.FileWrapper at 0x02EEDE10>'
p2681
asbasbasbag49
(g65
g51
NtRp2682
(dp2683
g54
(dp2684
sg63
g2214
sg56
(lp2685
g49
(g70
g51
NtRp2686
(dp2687
g54
(dp2688
g74
g75
ssg63
g2682
sg56
(lp2689
S'wsgi.input'
p2690
asbag49
(g70
g51
NtRp2691
(dp2692
g54
(dp2693
g81
g82
ssg63
g2682
sg56
(lp2694
S':'
asbag49
(g70
g51
NtRp2695
(dp2696
g54
(dp2697
sg63
g2682
sg56
(lp2698
g49
(g50
g51
NtRp2699
(dp2700
g54
(dp2701
g62
I3
ssg63
g2695
sg56
(lp2702
S'<cStringIO.StringO object at 0x067DEAC0>'
p2703
asbasbasbag49
(g65
g51
NtRp2704
(dp2705
g54
(dp2706
sg63
g2214
sg56
(lp2707
g49
(g70
g51
NtRp2708
(dp2709
g54
(dp2710
g74
g75
ssg63
g2704
sg56
(lp2711
S'wsgi.multiprocess'
p2712
asbag49
(g70
g51
NtRp2713
(dp2714
g54
(dp2715
g81
g82
ssg63
g2704
sg56
(lp2716
S':'
asbag49
(g70
g51
NtRp2717
(dp2718
g54
(dp2719
sg63
g2704
sg56
(lp2720
g49
(g50
g51
NtRp2721
(dp2722
g54
(dp2723
g62
I3
ssg63
g2717
sg56
(lp2724
g92
asbasbasbag49
(g65
g51
NtRp2725
(dp2726
g54
(dp2727
sg63
g2214
sg56
(lp2728
g49
(g70
g51
NtRp2729
(dp2730
g54
(dp2731
g74
g75
ssg63
g2725
sg56
(lp2732
S'wsgi.multithread'
p2733
asbag49
(g70
g51
NtRp2734
(dp2735
g54
(dp2736
g81
g82
ssg63
g2725
sg56
(lp2737
S':'
asbag49
(g70
g51
NtRp2738
(dp2739
g54
(dp2740
sg63
g2725
sg56
(lp2741
g49
(g50
g51
NtRp2742
(dp2743
g54
(dp2744
g62
I3
ssg63
g2738
sg56
(lp2745
g1465
asbasbasbag49
(g65
g51
NtRp2746
(dp2747
g54
(dp2748
sg63
g2214
sg56
(lp2749
g49
(g70
g51
NtRp2750
(dp2751
g54
(dp2752
g74
g75
ssg63
g2746
sg56
(lp2753
S'wsgi.run_once'
p2754
asbag49
(g70
g51
NtRp2755
(dp2756
g54
(dp2757
g81
g82
ssg63
g2746
sg56
(lp2758
S':'
asbag49
(g70
g51
NtRp2759
(dp2760
g54
(dp2761
sg63
g2746
sg56
(lp2762
g49
(g50
g51
NtRp2763
(dp2764
g54
(dp2765
g62
I3
ssg63
g2759
sg56
(lp2766
g92
asbasbasbag49
(g65
g51
NtRp2767
(dp2768
g54
(dp2769
sg63
g2214
sg56
(lp2770
g49
(g70
g51
NtRp2771
(dp2772
g54
(dp2773
g74
g75
ssg63
g2767
sg56
(lp2774
S'wsgi.url_scheme'
p2775
asbag49
(g70
g51
NtRp2776
(dp2777
g54
(dp2778
g81
g82
ssg63
g2767
sg56
(lp2779
S':'
asbag49
(g70
g51
NtRp2780
(dp2781
g54
(dp2782
sg63
g2767
sg56
(lp2783
g49
(g50
g51
NtRp2784
(dp2785
g54
(dp2786
g62
I3
ssg63
g2780
sg56
(lp2787
g1508
asbasbasbag49
(g65
g51
NtRp2788
(dp2789
g54
(dp2790
sg63
g2214
sg56
(lp2791
g49
(g70
g51
NtRp2792
(dp2793
g54
(dp2794
g74
g75
ssg63
g2788
sg56
(lp2795
S'wsgi.version'
p2796
asbag49
(g70
g51
NtRp2797
(dp2798
g54
(dp2799
g81
g82
ssg63
g2788
sg56
(lp2800
S':'
asbag49
(g70
g51
NtRp2801
(dp2802
g54
(dp2803
sg63
g2788
sg56
(lp2804
g49
(g50
g51
NtRp2805
(dp2806
g54
(dp2807
g62
I3
ssg63
g2801
sg56
(lp2808
S'1'
asbasbasbasbasbasbasbasbasbasbasbasbasbsS'frames'
p2809
(lp2810
(dp2811
S'file'
p2812
S'C:\\web2py\\gluon\\restricted.py'
p2813
sS'dump'
p2814
(dp2815
sS'lnum'
p2816
I205
sS'lines'
p2817
(dp2818
sS'call'
p2819
S'(code=r"response.write(\'<!DOCTYPE html>\\n<!-- paulirish....ponse.write(\'\\n</body>\\n</html>\\n\', escape=False)", environment={\'A\': <class \'gluon.html.A\'>, \'Auth\': <class \'gluon.tools.Auth\'>, \'B\': <class \'gluon.html.B\'>, \'BEAUTIFY\': <class \'gluon.html.BEAUTIFY\'>, \'BODY\': <class \'gluon.html.BODY\'>, \'BR\': <class \'gluon.html.BR\'>, \'BUTTON\': <class \'gluon.html.BUTTON\'>, \'CAT\': <class \'gluon.html.CAT\'>, \'CENTER\': <class \'gluon.html.CENTER\'>, \'CLEANUP\': <class \'gluon.validators.CLEANUP\'>, ...}, layer=r\'C:\\web2py\\applications\\unioeste_code\\views\\default/index.html\')'
p2820
sS'func'
p2821
S'restricted'
p2822
sa(dp2823
g2812
S'C:\\web2py\\applications\\unioeste_code\\views\\default\\index.html'
p2824
sg2814
(dp2825
sg2816
I86
sg2817
(dp2826
I96
S'    pass'
p2827
sI77
S'response.write(\' columns center">\\n          \', escape=False)'
p2828
sI78
S"response.write('\\n          ', escape=False)"
p2829
sI79
S"response.write('\\n\\n\\n', escape=False)"
p2830
sI80
S'response.write(H1(T("Current Problems")))'
p2831
sI81
S"response.write('\\n<ul>\\n', escape=False)"
p2832
sI82
S'for problem in problems:'
p2833
sI83
S"    response.write('\\n', escape=False)"
p2834
sI84
S'    user = db(db.auth_user.id==problem.created_by).select().first()'
p2835
sI85
S"    response.write('\\n', escape=False)"
p2836
sI86
S'    response.write(LI(A(problem.title, _href=URL("Problem", args=problem.id)),  " by " + STRONG(user.first_name + " " + user.last_name) + " " + prettydate(problem.created_on)))'
p2837
sI87
S"    response.write('\\n', escape=False)"
p2838
sI88
S'    pass'
p2839
sI89
S"response.write('\\n\\n</ul>', escape=False)"
p2840
sI90
S"response.write('\\n          ', escape=False)"
p2841
sI91
S"response.write('\\n        </div>\\n        \\n        ', escape=False)"
p2842
sI92
S'if right_sidebar_enabled:'
p2843
sI93
S'    response.write(\'\\n        <div class="four columns">\\n          \', escape=False)'
p2844
sI94
S"    response.write('\\n          <h3>Right Sidebar</h3>\\n          <p></p>\\n          ', escape=False)"
p2845
sI95
S"    response.write('\\n        </div>    \\n        ', escape=False)"
p2846
ssg2819
S'()'
p2847
sg2821
S'<module>'
p2848
sasS'pyver'
p2849
S'Python 2.5.4: C:\\web2py\\web2py_no_console.exe'
p2850
sS'session'
p2851
g49
(g50
g51
NtRp2852
(dp2853
g54
(dp2854
sg56
(lp2855
g49
(g58
g51
NtRp2856
(dp2857
g54
(dp2858
g62
I5
ssg63
Nsg56
(lp2859
g49
(g65
g51
NtRp2860
(dp2861
g54
(dp2862
sg63
g2856
sg56
(lp2863
g49
(g70
g51
NtRp2864
(dp2865
g54
(dp2866
g74
g75
ssg63
g2860
sg56
(lp2867
S'flash'
p2868
asbag49
(g70
g51
NtRp2869
(dp2870
g54
(dp2871
g81
g82
ssg63
g2860
sg56
(lp2872
S':'
asbag49
(g70
g51
NtRp2873
(dp2874
g54
(dp2875
sg63
g2860
sg56
(lp2876
g49
(g50
g51
NtRp2877
(dp2878
g54
(dp2879
g62
I5
ssg63
g2873
sg56
(lp2880
S''
asbasbasbasbasbsS'etype'
p2881
S"<type 'exceptions.NameError'>"
p2882
sS'date'
p2883
S'Mon Jul 30 15:26:35 2012'
p2884
sS'response'
p2885
g49
(g50
g51
NtRp2886
(dp2887
g54
(dp2888
sg56
(lp2889
g49
(g58
g51
NtRp2890
(dp2891
g54
(dp2892
g62
I5
ssg63
Nsg56
(lp2893
g49
(g65
g51
NtRp2894
(dp2895
g54
(dp2896
sg63
g2890
sg56
(lp2897
g49
(g70
g51
NtRp2898
(dp2899
g54
(dp2900
g74
g75
ssg63
g2894
sg56
(lp2901
g147
asbag49
(g70
g51
NtRp2902
(dp2903
g54
(dp2904
g81
g82
ssg63
g2894
sg56
(lp2905
S':'
asbag49
(g70
g51
NtRp2906
(dp2907
g54
(dp2908
sg63
g2894
sg56
(lp2909
g49
(g50
g51
NtRp2910
(dp2911
g54
(dp2912
g62
I5
ssg63
g2906
sg56
(lp2913
S'<cStringIO.StringO object at 0x0697DF40>'
p2914
asbasbasbag49
(g65
g51
NtRp2915
(dp2916
g54
(dp2917
sg63
g2890
sg56
(lp2918
g49
(g70
g51
NtRp2919
(dp2920
g54
(dp2921
g74
g75
ssg63
g2915
sg56
(lp2922
g213
asbag49
(g70
g51
NtRp2923
(dp2924
g54
(dp2925
g81
g82
ssg63
g2915
sg56
(lp2926
S':'
asbag49
(g70
g51
NtRp2927
(dp2928
g54
(dp2929
sg63
g2915
sg56
(lp2930
g49
(g50
g51
NtRp2931
(dp2932
g54
(dp2933
g62
I5
ssg63
g2927
sg56
(lp2934
g49
(g58
g51
NtRp2935
(dp2936
g54
(dp2937
g62
I4
ssg63
Nsg56
(lp2938
g49
(g65
g51
NtRp2939
(dp2940
g54
(dp2941
sg63
g2935
sg56
(lp2942
g49
(g70
g51
NtRp2943
(dp2944
g54
(dp2945
g74
g75
ssg63
g2939
sg56
(lp2946
S'session_id_unioeste_code'
p2947
asbag49
(g70
g51
NtRp2948
(dp2949
g54
(dp2950
g81
g82
ssg63
g2939
sg56
(lp2951
S':'
asbag49
(g70
g51
NtRp2952
(dp2953
g54
(dp2954
sg63
g2939
sg56
(lp2955
g49
(g50
g51
NtRp2956
(dp2957
g54
(dp2958
g62
I4
ssg63
g2952
sg56
(lp2959
g49
(g58
g51
NtRp2960
(dp2961
g54
(dp2962
g62
I3
ssg63
Nsg56
(lp2963
g49
(g65
g51
NtRp2964
(dp2965
g54
(dp2966
sg63
g2960
sg56
(lp2967
g49
(g70
g51
NtRp2968
(dp2969
g54
(dp2970
g74
g75
ssg63
g2964
sg56
(lp2971
g263
asbag49
(g70
g51
NtRp2972
(dp2973
g54
(dp2974
g81
g82
ssg63
g2964
sg56
(lp2975
S':'
asbag49
(g70
g51
NtRp2976
(dp2977
g54
(dp2978
sg63
g2964
sg56
(lp2979
g49
(g50
g51
NtRp2980
(dp2981
g54
(dp2982
g62
I3
ssg63
g2976
sg56
(lp2983
S''
asbasbasbag49
(g65
g51
NtRp2984
(dp2985
g54
(dp2986
sg63
g2960
sg56
(lp2987
g49
(g70
g51
NtRp2988
(dp2989
g54
(dp2990
g74
g75
ssg63
g2984
sg56
(lp2991
g284
asbag49
(g70
g51
NtRp2992
(dp2993
g54
(dp2994
g81
g82
ssg63
g2984
sg56
(lp2995
S':'
asbag49
(g70
g51
NtRp2996
(dp2997
g54
(dp2998
sg63
g2984
sg56
(lp2999
g49
(g50
g51
NtRp3000
(dp3001
g54
(dp3002
g62
I3
ssg63
g2996
sg56
(lp3003
S''
asbasbasbag49
(g65
g51
NtRp3004
(dp3005
g54
(dp3006
sg63
g2960
sg56
(lp3007
g49
(g70
g51
NtRp3008
(dp3009
g54
(dp3010
g74
g75
ssg63
g3004
sg56
(lp3011
g305
asbag49
(g70
g51
NtRp3012
(dp3013
g54
(dp3014
g81
g82
ssg63
g3004
sg56
(lp3015
S':'
asbag49
(g70
g51
NtRp3016
(dp3017
g54
(dp3018
sg63
g3004
sg56
(lp3019
g49
(g50
g51
NtRp3020
(dp3021
g54
(dp3022
g62
I3
ssg63
g3016
sg56
(lp3023
S''
asbasbasbag49
(g65
g51
NtRp3024
(dp3025
g54
(dp3026
sg63
g2960
sg56
(lp3027
g49
(g70
g51
NtRp3028
(dp3029
g54
(dp3030
g74
g75
ssg63
g3024
sg56
(lp3031
g326
asbag49
(g70
g51
NtRp3032
(dp3033
g54
(dp3034
g81
g82
ssg63
g3024
sg56
(lp3035
S':'
asbag49
(g70
g51
NtRp3036
(dp3037
g54
(dp3038
sg63
g3024
sg56
(lp3039
g49
(g50
g51
NtRp3040
(dp3041
g54
(dp3042
g62
I3
ssg63
g3036
sg56
(lp3043
S''
asbasbasbag49
(g65
g51
NtRp3044
(dp3045
g54
(dp3046
sg63
g2960
sg56
(lp3047
g49
(g70
g51
NtRp3048
(dp3049
g54
(dp3050
g74
g75
ssg63
g3044
sg56
(lp3051
g347
asbag49
(g70
g51
NtRp3052
(dp3053
g54
(dp3054
g81
g82
ssg63
g3044
sg56
(lp3055
S':'
asbag49
(g70
g51
NtRp3056
(dp3057
g54
(dp3058
sg63
g3044
sg56
(lp3059
g49
(g50
g51
NtRp3060
(dp3061
g54
(dp3062
g62
I3
ssg63
g3056
sg56
(lp3063
S'/'
asbasbasbag49
(g65
g51
NtRp3064
(dp3065
g54
(dp3066
sg63
g2960
sg56
(lp3067
g49
(g70
g51
NtRp3068
(dp3069
g54
(dp3070
g74
g75
ssg63
g3064
sg56
(lp3071
g368
asbag49
(g70
g51
NtRp3072
(dp3073
g54
(dp3074
g81
g82
ssg63
g3064
sg56
(lp3075
S':'
asbag49
(g70
g51
NtRp3076
(dp3077
g54
(dp3078
sg63
g3064
sg56
(lp3079
g49
(g50
g51
NtRp3080
(dp3081
g54
(dp3082
g62
I3
ssg63
g3076
sg56
(lp3083
S''
asbasbasbag49
(g65
g51
NtRp3084
(dp3085
g54
(dp3086
sg63
g2960
sg56
(lp3087
g49
(g70
g51
NtRp3088
(dp3089
g54
(dp3090
g74
g75
ssg63
g3084
sg56
(lp3091
g389
asbag49
(g70
g51
NtRp3092
(dp3093
g54
(dp3094
g81
g82
ssg63
g3084
sg56
(lp3095
S':'
asbag49
(g70
g51
NtRp3096
(dp3097
g54
(dp3098
sg63
g3084
sg56
(lp3099
g49
(g50
g51
NtRp3100
(dp3101
g54
(dp3102
g62
I3
ssg63
g3096
sg56
(lp3103
S''
asbasbasbasbasbasbasbasbasbasbasbag49
(g65
g51
NtRp3104
(dp3105
g54
(dp3106
sg63
g2890
sg56
(lp3107
g49
(g70
g51
NtRp3108
(dp3109
g54
(dp3110
g74
g75
ssg63
g3104
sg56
(lp3111
S'delimiters'
p3112
asbag49
(g70
g51
NtRp3113
(dp3114
g54
(dp3115
g81
g82
ssg63
g3104
sg56
(lp3116
S':'
asbag49
(g70
g51
NtRp3117
(dp3118
g54
(dp3119
sg63
g3104
sg56
(lp3120
g49
(g50
g51
NtRp3121
(dp3122
g54
(dp3123
g62
I5
ssg63
g3117
sg56
(lp3124
g49
(g58
g51
NtRp3125
(dp3126
g54
(dp3127
g62
I4
ssg63
Nsg56
(lp3128
g49
(g65
g51
NtRp3129
(dp3130
g54
(dp3131
sg63
g3125
sg56
(lp3132
g49
(g70
g51
NtRp3133
(dp3134
g54
(dp3135
sg63
g3129
sg56
(lp3136
g49
(g50
g51
NtRp3137
(dp3138
g54
(dp3139
g62
I4
ssg63
g3133
sg56
(lp3140
S'{{'
p3141
asbasbasbag49
(g65
g51
NtRp3142
(dp3143
g54
(dp3144
sg63
g3125
sg56
(lp3145
g49
(g70
g51
NtRp3146
(dp3147
g54
(dp3148
sg63
g3142
sg56
(lp3149
g49
(g50
g51
NtRp3150
(dp3151
g54
(dp3152
g62
I4
ssg63
g3146
sg56
(lp3153
S'}}'
p3154
asbasbasbasbasbasbasbag49
(g65
g51
NtRp3155
(dp3156
g54
(dp3157
sg63
g2890
sg56
(lp3158
g49
(g70
g51
NtRp3159
(dp3160
g54
(dp3161
g74
g75
ssg63
g3155
sg56
(lp3162
S'files'
p3163
asbag49
(g70
g51
NtRp3164
(dp3165
g54
(dp3166
g81
g82
ssg63
g3155
sg56
(lp3167
S':'
asbag49
(g70
g51
NtRp3168
(dp3169
g54
(dp3170
sg63
g3155
sg56
(lp3171
g49
(g50
g51
NtRp3172
(dp3173
g54
(dp3174
g62
I5
ssg63
g3168
sg56
(lp3175
g49
(g58
g51
NtRp3176
(dp3177
g54
(dp3178
g62
I4
ssg63
Nsg56
(lp3179
g49
(g65
g51
NtRp3180
(dp3181
g54
(dp3182
sg63
g3176
sg56
(lp3183
g49
(g70
g51
NtRp3184
(dp3185
g54
(dp3186
sg63
g3180
sg56
(lp3187
g49
(g50
g51
NtRp3188
(dp3189
g54
(dp3190
g62
I4
ssg63
g3184
sg56
(lp3191
S'/unioeste_code/static/js/jquery.js'
p3192
asbasbasbag49
(g65
g51
NtRp3193
(dp3194
g54
(dp3195
sg63
g3176
sg56
(lp3196
g49
(g70
g51
NtRp3197
(dp3198
g54
(dp3199
sg63
g3193
sg56
(lp3200
g49
(g50
g51
NtRp3201
(dp3202
g54
(dp3203
g62
I4
ssg63
g3197
sg56
(lp3204
S'/unioeste_code/static/css/calendar.css'
p3205
asbasbasbag49
(g65
g51
NtRp3206
(dp3207
g54
(dp3208
sg63
g3176
sg56
(lp3209
g49
(g70
g51
NtRp3210
(dp3211
g54
(dp3212
sg63
g3206
sg56
(lp3213
g49
(g50
g51
NtRp3214
(dp3215
g54
(dp3216
g62
I4
ssg63
g3210
sg56
(lp3217
S'/unioeste_code/static/js/calendar.js'
p3218
asbasbasbag49
(g65
g51
NtRp3219
(dp3220
g54
(dp3221
sg63
g3176
sg56
(lp3222
g49
(g70
g51
NtRp3223
(dp3224
g54
(dp3225
sg63
g3219
sg56
(lp3226
g49
(g50
g51
NtRp3227
(dp3228
g54
(dp3229
g62
I4
ssg63
g3223
sg56
(lp3230
S'/unioeste_code/static/js/web2py.js'
p3231
asbasbasbag49
(g65
g51
NtRp3232
(dp3233
g54
(dp3234
sg63
g3176
sg56
(lp3235
g49
(g70
g51
NtRp3236
(dp3237
g54
(dp3238
sg63
g3232
sg56
(lp3239
g49
(g50
g51
NtRp3240
(dp3241
g54
(dp3242
g62
I4
ssg63
g3236
sg56
(lp3243
S'/unioeste_code/static/css/skeleton.css'
p3244
asbasbasbag49
(g65
g51
NtRp3245
(dp3246
g54
(dp3247
sg63
g3176
sg56
(lp3248
g49
(g70
g51
NtRp3249
(dp3250
g54
(dp3251
sg63
g3245
sg56
(lp3252
g49
(g50
g51
NtRp3253
(dp3254
g54
(dp3255
g62
I4
ssg63
g3249
sg56
(lp3256
S'/unioeste_code/static/css/web2py.css'
p3257
asbasbasbag49
(g65
g51
NtRp3258
(dp3259
g54
(dp3260
sg63
g3176
sg56
(lp3261
g49
(g70
g51
NtRp3262
(dp3263
g54
(dp3264
sg63
g3258
sg56
(lp3265
g49
(g50
g51
NtRp3266
(dp3267
g54
(dp3268
g62
I4
ssg63
g3262
sg56
(lp3269
S'/unioeste_code/static/css/superfish.css'
p3270
asbasbasbag49
(g65
g51
NtRp3271
(dp3272
g54
(dp3273
sg63
g3176
sg56
(lp3274
g49
(g70
g51
NtRp3275
(dp3276
g54
(dp3277
sg63
g3271
sg56
(lp3278
g49
(g50
g51
NtRp3279
(dp3280
g54
(dp3281
g62
I4
ssg63
g3275
sg56
(lp3282
S'/unioeste_code/static/js/superfish.js'
p3283
asbasbasbasbasbasbasbag49
(g65
g51
NtRp3284
(dp3285
g54
(dp3286
sg63
g2890
sg56
(lp3287
g49
(g70
g51
NtRp3288
(dp3289
g54
(dp3290
g74
g75
ssg63
g3284
sg56
(lp3291
S'flash'
p3292
asbag49
(g70
g51
NtRp3293
(dp3294
g54
(dp3295
g81
g82
ssg63
g3284
sg56
(lp3296
S':'
asbag49
(g70
g51
NtRp3297
(dp3298
g54
(dp3299
sg63
g3284
sg56
(lp3300
g49
(g50
g51
NtRp3301
(dp3302
g54
(dp3303
g62
I5
ssg63
g3297
sg56
(lp3304
S''
asbasbasbag49
(g65
g51
NtRp3305
(dp3306
g54
(dp3307
sg63
g2890
sg56
(lp3308
g49
(g70
g51
NtRp3309
(dp3310
g54
(dp3311
g74
g75
ssg63
g3305
sg56
(lp3312
S'generic_patterns'
p3313
asbag49
(g70
g51
NtRp3314
(dp3315
g54
(dp3316
g81
g82
ssg63
g3305
sg56
(lp3317
S':'
asbag49
(g70
g51
NtRp3318
(dp3319
g54
(dp3320
sg63
g3305
sg56
(lp3321
g49
(g50
g51
NtRp3322
(dp3323
g54
(dp3324
g62
I5
ssg63
g3318
sg56
(lp3325
g49
(g58
g51
NtRp3326
(dp3327
g54
(dp3328
g62
I4
ssg63
Nsg56
(lp3329
sbasbasbasbag49
(g65
g51
NtRp3330
(dp3331
g54
(dp3332
sg63
g2890
sg56
(lp3333
g49
(g70
g51
NtRp3334
(dp3335
g54
(dp3336
g74
g75
ssg63
g3330
sg56
(lp3337
S'headers'
p3338
asbag49
(g70
g51
NtRp3339
(dp3340
g54
(dp3341
g81
g82
ssg63
g3330
sg56
(lp3342
S':'
asbag49
(g70
g51
NtRp3343
(dp3344
g54
(dp3345
sg63
g3330
sg56
(lp3346
g49
(g50
g51
NtRp3347
(dp3348
g54
(dp3349
g62
I5
ssg63
g3343
sg56
(lp3350
g49
(g58
g51
NtRp3351
(dp3352
g54
(dp3353
g62
I4
ssg63
Nsg56
(lp3354
g49
(g65
g51
NtRp3355
(dp3356
g54
(dp3357
sg63
g3351
sg56
(lp3358
g49
(g70
g51
NtRp3359
(dp3360
g54
(dp3361
g74
g75
ssg63
g3355
sg56
(lp3362
S'Cache-Control'
p3363
asbag49
(g70
g51
NtRp3364
(dp3365
g54
(dp3366
g81
g82
ssg63
g3355
sg56
(lp3367
S':'
asbag49
(g70
g51
NtRp3368
(dp3369
g54
(dp3370
sg63
g3355
sg56
(lp3371
g49
(g50
g51
NtRp3372
(dp3373
g54
(dp3374
g62
I4
ssg63
g3368
sg56
(lp3375
S'no-store, no-cache, must-revalidate, post-check=0, pre-check=0'
p3376
asbasbasbag49
(g65
g51
NtRp3377
(dp3378
g54
(dp3379
sg63
g3351
sg56
(lp3380
g49
(g70
g51
NtRp3381
(dp3382
g54
(dp3383
g74
g75
ssg63
g3377
sg56
(lp3384
S'Content-Type'
p3385
asbag49
(g70
g51
NtRp3386
(dp3387
g54
(dp3388
g81
g82
ssg63
g3377
sg56
(lp3389
S':'
asbag49
(g70
g51
NtRp3390
(dp3391
g54
(dp3392
sg63
g3377
sg56
(lp3393
g49
(g50
g51
NtRp3394
(dp3395
g54
(dp3396
g62
I4
ssg63
g3390
sg56
(lp3397
S'text/html; charset=utf-8'
p3398
asbasbasbag49
(g65
g51
NtRp3399
(dp3400
g54
(dp3401
sg63
g3351
sg56
(lp3402
g49
(g70
g51
NtRp3403
(dp3404
g54
(dp3405
g74
g75
ssg63
g3399
sg56
(lp3406
S'Expires'
p3407
asbag49
(g70
g51
NtRp3408
(dp3409
g54
(dp3410
g81
g82
ssg63
g3399
sg56
(lp3411
S':'
asbag49
(g70
g51
NtRp3412
(dp3413
g54
(dp3414
sg63
g3399
sg56
(lp3415
g49
(g50
g51
NtRp3416
(dp3417
g54
(dp3418
g62
I4
ssg63
g3412
sg56
(lp3419
S'Mon, 30 Jul 2012 18:26:35 GMT'
p3420
asbasbasbag49
(g65
g51
NtRp3421
(dp3422
g54
(dp3423
sg63
g3351
sg56
(lp3424
g49
(g70
g51
NtRp3425
(dp3426
g54
(dp3427
g74
g75
ssg63
g3421
sg56
(lp3428
S'Pragma'
p3429
asbag49
(g70
g51
NtRp3430
(dp3431
g54
(dp3432
g81
g82
ssg63
g3421
sg56
(lp3433
S':'
asbag49
(g70
g51
NtRp3434
(dp3435
g54
(dp3436
sg63
g3421
sg56
(lp3437
g49
(g50
g51
NtRp3438
(dp3439
g54
(dp3440
g62
I4
ssg63
g3434
sg56
(lp3441
S'no-cache'
p3442
asbasbasbag49
(g65
g51
NtRp3443
(dp3444
g54
(dp3445
sg63
g3351
sg56
(lp3446
g49
(g70
g51
NtRp3447
(dp3448
g54
(dp3449
g74
g75
ssg63
g3443
sg56
(lp3450
S'X-Powered-By'
p3451
asbag49
(g70
g51
NtRp3452
(dp3453
g54
(dp3454
g81
g82
ssg63
g3443
sg56
(lp3455
S':'
asbag49
(g70
g51
NtRp3456
(dp3457
g54
(dp3458
sg63
g3443
sg56
(lp3459
g49
(g50
g51
NtRp3460
(dp3461
g54
(dp3462
g62
I4
ssg63
g3456
sg56
(lp3463
S'web2py'
p3464
asbasbasbasbasbasbasbag49
(g65
g51
NtRp3465
(dp3466
g54
(dp3467
sg63
g2890
sg56
(lp3468
g49
(g70
g51
NtRp3469
(dp3470
g54
(dp3471
g74
g75
ssg63
g3465
sg56
(lp3472
S'menu'
p3473
asbag49
(g70
g51
NtRp3474
(dp3475
g54
(dp3476
g81
g82
ssg63
g3465
sg56
(lp3477
S':'
asbag49
(g70
g51
NtRp3478
(dp3479
g54
(dp3480
sg63
g3465
sg56
(lp3481
g49
(g50
g51
NtRp3482
(dp3483
g54
(dp3484
g62
I5
ssg63
g3478
sg56
(lp3485
g49
(g58
g51
NtRp3486
(dp3487
g54
(dp3488
g62
I4
ssg63
Nsg56
(lp3489
g49
(g65
g51
NtRp3490
(dp3491
g54
(dp3492
sg63
g3486
sg56
(lp3493
g49
(g70
g51
NtRp3494
(dp3495
g54
(dp3496
sg63
g3490
sg56
(lp3497
g49
(g50
g51
NtRp3498
(dp3499
g54
(dp3500
g62
I4
ssg63
g3494
sg56
(lp3501
g49
(g58
g51
NtRp3502
(dp3503
g54
(dp3504
g62
I3
ssg63
Nsg56
(lp3505
g49
(g65
g51
NtRp3506
(dp3507
g54
(dp3508
sg63
g3502
sg56
(lp3509
g49
(g70
g51
NtRp3510
(dp3511
g54
(dp3512
sg63
g3506
sg56
(lp3513
g49
(g50
g51
NtRp3514
(dp3515
g54
(dp3516
g62
I3
ssg63
g3510
sg56
(lp3517
cgluon.languages
lazyT_unpickle
p3518
(S't\x04\x00\x00\x00Home'
tRp3519
asbasbasbag49
(g65
g51
NtRp3520
(dp3521
g54
(dp3522
sg63
g3502
sg56
(lp3523
g49
(g70
g51
NtRp3524
(dp3525
g54
(dp3526
sg63
g3520
sg56
(lp3527
g49
(g50
g51
NtRp3528
(dp3529
g54
(dp3530
g62
I3
ssg63
g3524
sg56
(lp3531
g92
asbasbasbag49
(g65
g51
NtRp3532
(dp3533
g54
(dp3534
sg63
g3502
sg56
(lp3535
g49
(g70
g51
NtRp3536
(dp3537
g54
(dp3538
sg63
g3532
sg56
(lp3539
g49
(g50
g51
NtRp3540
(dp3541
g54
(dp3542
g62
I3
ssg63
g3536
sg56
(lp3543
S'/unioeste_code/default/index'
p3544
asbasbasbag49
(g65
g51
NtRp3545
(dp3546
g54
(dp3547
sg63
g3502
sg56
(lp3548
g49
(g70
g51
NtRp3549
(dp3550
g54
(dp3551
sg63
g3545
sg56
(lp3552
g49
(g50
g51
NtRp3553
(dp3554
g54
(dp3555
g62
I3
ssg63
g3549
sg56
(lp3556
g49
(g58
g51
NtRp3557
(dp3558
g54
(dp3559
g62
I2
ssg63
Nsg56
(lp3560
sbasbasbasbasbasbasbasbag49
(g65
g51
NtRp3561
(dp3562
g54
(dp3563
sg63
g3486
sg56
(lp3564
g49
(g70
g51
NtRp3565
(dp3566
g54
(dp3567
sg63
g3561
sg56
(lp3568
g49
(g50
g51
NtRp3569
(dp3570
g54
(dp3571
g62
I4
ssg63
g3565
sg56
(lp3572
g49
(g58
g51
NtRp3573
(dp3574
g54
(dp3575
g62
I3
ssg63
Nsg56
(lp3576
g49
(g65
g51
NtRp3577
(dp3578
g54
(dp3579
sg63
g3573
sg56
(lp3580
g49
(g70
g51
NtRp3581
(dp3582
g54
(dp3583
sg63
g3577
sg56
(lp3584
g49
(g50
g51
NtRp3585
(dp3586
g54
(dp3587
g62
I3
ssg63
g3581
sg56
(lp3588
g49
(cgluon.html
SPAN
p3589
g51
NtRp3590
(dp3591
g54
(dp3592
g74
S'color:yellow'
p3593
ssg63
g49
(cgluon.html
A
p3594
g51
NtRp3595
(dp3596
g54
(dp3597
S'_onclick'
p3598
S'javascript:void(0);return false;'
p3599
sS'_href'
p3600
S'#'
ssg63
g49
(cgluon.html
LI
p3601
g51
NtRp3602
(dp3603
g54
(dp3604
S'_class'
p3605
S'web2py-menu-expand'
p3606
ssg63
g49
(cgluon.html
UL
p3607
g51
NtRp3608
(dp3609
g54
(dp3610
S'mobile'
p3611
I00
sS'li_class'
p3612
g3606
sg3605
S'sf-menu'
p3613
sS'ul_class'
p3614
S'web2py-menu-vertical'
p3615
sS'li_active'
p3616
S'web2py-menu-active'
p3617
ssg63
Nsg56
(lp3618
g49
(g3601
g51
NtRp3619
(dp3620
g54
(dp3621
sg63
g3608
sg56
(lp3622
g49
(g3594
g51
NtRp3623
(dp3624
g54
(dp3625
g3600
g3544
ssg63
g3619
sg56
(lp3626
g3519
asbasbag3602
asbsg56
(lp3627
g3595
ag49
(g3607
g51
NtRp3628
(dp3629
g54
(dp3630
g3605
g3615
ssg63
g3602
sg56
(lp3631
g49
(g3601
g51
NtRp3632
(dp3633
g54
(dp3634
sg63
g3628
sg56
(lp3635
g49
(g3594
g51
NtRp3636
(dp3637
g54
(dp3638
g3600
S'/admin/default/site'
p3639
ssg63
g3632
sg56
(lp3640
g3518
(S's\x08\x00\x00\x00My Sites'
tRp3641
asbasbag49
(g3601
g51
NtRp3642
(dp3643
g54
(dp3644
g3605
g3606
ssg63
g3628
sg56
(lp3645
g49
(g3594
g51
NtRp3646
(dp3647
g54
(dp3648
g3600
S'/admin/default/design/unioeste_code'
p3649
ssg63
g3642
sg56
(lp3650
g3518
(S's\x08\x00\x00\x00This App'
tRp3651
asbag49
(g3607
g51
NtRp3652
(dp3653
g54
(dp3654
g3605
g3615
ssg63
g3642
sg56
(lp3655
g49
(g3601
g51
NtRp3656
(dp3657
g54
(dp3658
sg63
g3652
sg56
(lp3659
g49
(g3594
g51
NtRp3660
(dp3661
g54
(dp3662
g3600
S'/admin/default/edit/unioeste_code/controllers/default.py'
p3663
ssg63
g3656
sg56
(lp3664
g3518
(S't\x0b\x00\x00\x00Controlador'
tRp3665
asbasbag49
(g3601
g51
NtRp3666
(dp3667
g54
(dp3668
sg63
g3652
sg56
(lp3669
g49
(g3594
g51
NtRp3670
(dp3671
g54
(dp3672
g3600
S'/admin/default/edit/unioeste_code/views/default/index.html'
p3673
ssg63
g3666
sg56
(lp3674
g3518
(S's\x0e\x00\x00\x00Visualiza\xc3\xa7\xc3\xa3o'
tRp3675
asbasbag49
(g3601
g51
NtRp3676
(dp3677
g54
(dp3678
sg63
g3652
sg56
(lp3679
g49
(g3594
g51
NtRp3680
(dp3681
g54
(dp3682
g3600
S'/admin/default/edit/unioeste_code/views/layout.html'
p3683
ssg63
g3676
sg56
(lp3684
g3518
(S't\x06\x00\x00\x00Layout'
tRp3685
asbasbag49
(g3601
g51
NtRp3686
(dp3687
g54
(dp3688
sg63
g3652
sg56
(lp3689
g49
(g3594
g51
NtRp3690
(dp3691
g54
(dp3692
g3600
S'/admin/default/edit/unioeste_code/static/css/web2py.css'
p3693
ssg63
g3686
sg56
(lp3694
g3518
(S't\n\x00\x00\x00Stylesheet'
tRp3695
asbasbag49
(g3601
g51
NtRp3696
(dp3697
g54
(dp3698
sg63
g3652
sg56
(lp3699
g49
(g3594
g51
NtRp3700
(dp3701
g54
(dp3702
g3600
S'/admin/default/edit/unioeste_code/models/db.py'
p3703
ssg63
g3696
sg56
(lp3704
g3518
(S's\t\x00\x00\x00Modelo BD'
tRp3705
asbasbag49
(g3601
g51
NtRp3706
(dp3707
g54
(dp3708
sg63
g3652
sg56
(lp3709
g49
(g3594
g51
NtRp3710
(dp3711
g54
(dp3712
g3600
S'/admin/default/edit/unioeste_code/models/menu.py'
p3713
ssg63
g3706
sg56
(lp3714
g3518
(S's\x0e\x00\x00\x00Modelo de Menu'
tRp3715
asbasbag49
(g3601
g51
NtRp3716
(dp3717
g54
(dp3718
sg63
g3652
sg56
(lp3719
g49
(g3594
g51
NtRp3720
(dp3721
g54
(dp3722
g3600
S'/unioeste_code/appadmin/index'
p3723
ssg63
g3716
sg56
(lp3724
g3518
(S's\x0e\x00\x00\x00Banco de dados'
tRp3725
asbasbag49
(g3601
g51
NtRp3726
(dp3727
g54
(dp3728
sg63
g3652
sg56
(lp3729
g49
(g3594
g51
NtRp3730
(dp3731
g54
(dp3732
g3600
S'/admin/default/errors/unioeste_code'
p3733
ssg63
g3726
sg56
(lp3734
g3518
(S't\x06\x00\x00\x00Errors'
tRp3735
asbasbag49
(g3601
g51
NtRp3736
(dp3737
g54
(dp3738
sg63
g3652
sg56
(lp3739
g49
(g3594
g51
NtRp3740
(dp3741
g54
(dp3742
g3600
S'/admin/default/about/unioeste_code'
p3743
ssg63
g3736
sg56
(lp3744
g3518
(S't\x05\x00\x00\x00About'
tRp3745
asbasbasbasbag49
(g3601
g51
NtRp3746
(dp3747
g54
(dp3748
g3605
g3606
ssg63
g3628
sg56
(lp3749
g49
(g3594
g51
NtRp3750
(dp3751
g54
(dp3752
g3600
S'http://www.web2py.com'
p3753
ssg63
g3746
sg56
(lp3754
S'web2py.com'
p3755
asbag49
(g3607
g51
NtRp3756
(dp3757
g54
(dp3758
g3605
g3615
ssg63
g3746
sg56
(lp3759
g49
(g3601
g51
NtRp3760
(dp3761
g54
(dp3762
sg63
g3756
sg56
(lp3763
g49
(g3594
g51
NtRp3764
(dp3765
g54
(dp3766
g3600
S'http://www.web2py.com/examples/default/download'
p3767
ssg63
g3760
sg56
(lp3768
g3518
(S't\x08\x00\x00\x00Download'
tRp3769
asbasbag49
(g3601
g51
NtRp3770
(dp3771
g54
(dp3772
sg63
g3756
sg56
(lp3773
g49
(g3594
g51
NtRp3774
(dp3775
g54
(dp3776
g3600
S'http://www.web2py.com/examples/default/support'
p3777
ssg63
g3770
sg56
(lp3778
g3518
(S't\x07\x00\x00\x00Support'
tRp3779
asbasbag49
(g3601
g51
NtRp3780
(dp3781
g54
(dp3782
sg63
g3756
sg56
(lp3783
g49
(g3594
g51
NtRp3784
(dp3785
g54
(dp3786
g3600
S'http://web2py.com/demo_admin'
p3787
ssg63
g3780
sg56
(lp3788
g3518
(S't\x04\x00\x00\x00Demo'
tRp3789
asbasbag49
(g3601
g51
NtRp3790
(dp3791
g54
(dp3792
sg63
g3756
sg56
(lp3793
g49
(g3594
g51
NtRp3794
(dp3795
g54
(dp3796
g3600
S'http://web2py.com/examples/default/examples'
p3797
ssg63
g3790
sg56
(lp3798
g3518
(S's\x0e\x00\x00\x00Quick Examples'
tRp3799
asbasbag49
(g3601
g51
NtRp3800
(dp3801
g54
(dp3802
sg63
g3756
sg56
(lp3803
g49
(g3594
g51
NtRp3804
(dp3805
g54
(dp3806
g3600
S'http://web2py.com/AlterEgo'
p3807
ssg63
g3800
sg56
(lp3808
g3518
(S't\x03\x00\x00\x00FAQ'
tRp3809
asbasbag49
(g3601
g51
NtRp3810
(dp3811
g54
(dp3812
sg63
g3756
sg56
(lp3813
g49
(g3594
g51
NtRp3814
(dp3815
g54
(dp3816
g3600
S'http://www.web2py.com/examples/default/videos/'
p3817
ssg63
g3810
sg56
(lp3818
g3518
(S't\x06\x00\x00\x00Videos'
tRp3819
asbasbag49
(g3601
g51
NtRp3820
(dp3821
g54
(dp3822
sg63
g3756
sg56
(lp3823
g49
(g3594
g51
NtRp3824
(dp3825
g54
(dp3826
g3600
S'http://web2py.com/appliances'
p3827
ssg63
g3820
sg56
(lp3828
g3518
(S's\x11\x00\x00\x00Free Applications'
tRp3829
asbasbag49
(g3601
g51
NtRp3830
(dp3831
g54
(dp3832
sg63
g3756
sg56
(lp3833
g49
(g3594
g51
NtRp3834
(dp3835
g54
(dp3836
g3600
S'http://web2py.com/plugins'
p3837
ssg63
g3830
sg56
(lp3838
g3518
(S't\x07\x00\x00\x00Plugins'
tRp3839
asbasbag49
(g3601
g51
NtRp3840
(dp3841
g54
(dp3842
sg63
g3756
sg56
(lp3843
g49
(g3594
g51
NtRp3844
(dp3845
g54
(dp3846
g3600
S'http://web2py.com/layouts'
p3847
ssg63
g3840
sg56
(lp3848
g3518
(S't\x07\x00\x00\x00Layouts'
tRp3849
asbasbag49
(g3601
g51
NtRp3850
(dp3851
g54
(dp3852
sg63
g3756
sg56
(lp3853
g49
(g3594
g51
NtRp3854
(dp3855
g54
(dp3856
g3600
S'http://web2pyslices.com/'
p3857
ssg63
g3850
sg56
(lp3858
g3518
(S't\x07\x00\x00\x00Recipes'
tRp3859
asbasbag49
(g3601
g51
NtRp3860
(dp3861
g54
(dp3862
sg63
g3756
sg56
(lp3863
g49
(g3594
g51
NtRp3864
(dp3865
g54
(dp3866
g3600
S'http://web2py.com/semantic'
p3867
ssg63
g3860
sg56
(lp3868
g3518
(S't\x08\x00\x00\x00Semantic'
tRp3869
asbasbasbasbag49
(g3601
g51
NtRp3870
(dp3871
g54
(dp3872
g3605
g3606
ssg63
g3628
sg56
(lp3873
g49
(g3594
g51
NtRp3874
(dp3875
g54
(dp3876
g3600
S'http://www.web2py.com/book'
p3877
ssg63
g3870
sg56
(lp3878
g3518
(S't\r\x00\x00\x00Documentation'
tRp3879
asbag49
(g3607
g51
NtRp3880
(dp3881
g54
(dp3882
g3605
g3615
ssg63
g3870
sg56
(lp3883
g49
(g3601
g51
NtRp3884
(dp3885
g54
(dp3886
sg63
g3880
sg56
(lp3887
g49
(g3594
g51
NtRp3888
(dp3889
g54
(dp3890
g3600
S'http://www.web2py.com/book/default/chapter/00'
p3891
ssg63
g3884
sg56
(lp3892
g3518
(S't\x07\x00\x00\x00Preface'
tRp3893
asbasbag49
(g3601
g51
NtRp3894
(dp3895
g54
(dp3896
sg63
g3880
sg56
(lp3897
g49
(g3594
g51
NtRp3898
(dp3899
g54
(dp3900
g3600
S'http://www.web2py.com/book/default/chapter/01'
p3901
ssg63
g3894
sg56
(lp3902
g3518
(S't\x0c\x00\x00\x00Introduction'
tRp3903
asbasbag49
(g3601
g51
NtRp3904
(dp3905
g54
(dp3906
sg63
g3880
sg56
(lp3907
g49
(g3594
g51
NtRp3908
(dp3909
g54
(dp3910
g3600
S'http://www.web2py.com/book/default/chapter/02'
p3911
ssg63
g3904
sg56
(lp3912
g3518
(S't\x06\x00\x00\x00Python'
tRp3913
asbasbag49
(g3601
g51
NtRp3914
(dp3915
g54
(dp3916
sg63
g3880
sg56
(lp3917
g49
(g3594
g51
NtRp3918
(dp3919
g54
(dp3920
g3600
S'http://www.web2py.com/book/default/chapter/03'
p3921
ssg63
g3914
sg56
(lp3922
g3518
(S't\x08\x00\x00\x00Overview'
tRp3923
asbasbag49
(g3601
g51
NtRp3924
(dp3925
g54
(dp3926
sg63
g3880
sg56
(lp3927
g49
(g3594
g51
NtRp3928
(dp3929
g54
(dp3930
g3600
S'http://www.web2py.com/book/default/chapter/04'
p3931
ssg63
g3924
sg56
(lp3932
g3518
(S's\x08\x00\x00\x00The Core'
tRp3933
asbasbag49
(g3601
g51
NtRp3934
(dp3935
g54
(dp3936
sg63
g3880
sg56
(lp3937
g49
(g3594
g51
NtRp3938
(dp3939
g54
(dp3940
g3600
S'http://www.web2py.com/book/default/chapter/05'
p3941
ssg63
g3934
sg56
(lp3942
g3518
(S's\t\x00\x00\x00The Views'
tRp3943
asbasbag49
(g3601
g51
NtRp3944
(dp3945
g54
(dp3946
sg63
g3880
sg56
(lp3947
g49
(g3594
g51
NtRp3948
(dp3949
g54
(dp3950
g3600
S'http://www.web2py.com/book/default/chapter/06'
p3951
ssg63
g3944
sg56
(lp3952
g3518
(S's\x0e\x00\x00\x00Banco de dados'
tRp3953
asbasbag49
(g3601
g51
NtRp3954
(dp3955
g54
(dp3956
sg63
g3880
sg56
(lp3957
g49
(g3594
g51
NtRp3958
(dp3959
g54
(dp3960
g3600
S'http://www.web2py.com/book/default/chapter/07'
p3961
ssg63
g3954
sg56
(lp3962
g3518
(S's\x14\x00\x00\x00Forms and Validators'
tRp3963
asbasbag49
(g3601
g51
NtRp3964
(dp3965
g54
(dp3966
sg63
g3880
sg56
(lp3967
g49
(g3594
g51
NtRp3968
(dp3969
g54
(dp3970
g3600
S'http://www.web2py.com/book/default/chapter/08'
p3971
ssg63
g3964
sg56
(lp3972
g3518
(S's\r\x00\x00\x00Email and SMS'
tRp3973
asbasbag49
(g3601
g51
NtRp3974
(dp3975
g54
(dp3976
sg63
g3880
sg56
(lp3977
g49
(g3594
g51
NtRp3978
(dp3979
g54
(dp3980
g3600
S'http://www.web2py.com/book/default/chapter/09'
p3981
ssg63
g3974
sg56
(lp3982
g3518
(S's\x0e\x00\x00\x00Access Control'
tRp3983
asbasbag49
(g3601
g51
NtRp3984
(dp3985
g54
(dp3986
sg63
g3880
sg56
(lp3987
g49
(g3594
g51
NtRp3988
(dp3989
g54
(dp3990
g3600
S'http://www.web2py.com/book/default/chapter/10'
p3991
ssg63
g3984
sg56
(lp3992
g3518
(S't\x08\x00\x00\x00Services'
tRp3993
asbasbag49
(g3601
g51
NtRp3994
(dp3995
g54
(dp3996
sg63
g3880
sg56
(lp3997
g49
(g3594
g51
NtRp3998
(dp3999
g54
(dp4000
g3600
S'http://www.web2py.com/book/default/chapter/11'
p4001
ssg63
g3994
sg56
(lp4002
g3518
(S's\x0c\x00\x00\x00Ajax Recipes'
tRp4003
asbasbag49
(g3601
g51
NtRp4004
(dp4005
g54
(dp4006
sg63
g3880
sg56
(lp4007
g49
(g3594
g51
NtRp4008
(dp4009
g54
(dp4010
g3600
S'http://www.web2py.com/book/default/chapter/12'
p4011
ssg63
g4004
sg56
(lp4012
g3518
(S's\x16\x00\x00\x00Components and Plugins'
tRp4013
asbasbag49
(g3601
g51
NtRp4014
(dp4015
g54
(dp4016
sg63
g3880
sg56
(lp4017
g49
(g3594
g51
NtRp4018
(dp4019
g54
(dp4020
g3600
S'http://www.web2py.com/book/default/chapter/13'
p4021
ssg63
g4014
sg56
(lp4022
g3518
(S's\x12\x00\x00\x00Deployment Recipes'
tRp4023
asbasbag49
(g3601
g51
NtRp4024
(dp4025
g54
(dp4026
sg63
g3880
sg56
(lp4027
g49
(g3594
g51
NtRp4028
(dp4029
g54
(dp4030
g3600
S'http://www.web2py.com/book/default/chapter/14'
p4031
ssg63
g4024
sg56
(lp4032
g3518
(S's\r\x00\x00\x00Other Recipes'
tRp4033
asbasbag49
(g3601
g51
NtRp4034
(dp4035
g54
(dp4036
sg63
g3880
sg56
(lp4037
g49
(g3594
g51
NtRp4038
(dp4039
g54
(dp4040
g3600
S'http://stores.lulu.com/web2py'
p4041
ssg63
g4034
sg56
(lp4042
g3518
(S's\r\x00\x00\x00Buy this book'
tRp4043
asbasbasbasbag49
(g3601
g51
NtRp4044
(dp4045
g54
(dp4046
g3605
g3606
ssg63
g3628
sg56
(lp4047
g49
(g3594
g51
NtRp4048
(dp4049
g54
(dp4050
g3598
g3599
sg3600
S'#'
ssg63
g4044
sg56
(lp4051
g3518
(S't\t\x00\x00\x00Community'
tRp4052
asbag49
(g3607
g51
NtRp4053
(dp4054
g54
(dp4055
g3605
g3615
ssg63
g4044
sg56
(lp4056
g49
(g3601
g51
NtRp4057
(dp4058
g54
(dp4059
sg63
g4053
sg56
(lp4060
g49
(g3594
g51
NtRp4061
(dp4062
g54
(dp4063
g3600
S'http://www.web2py.com/examples/default/usergroups'
p4064
ssg63
g4057
sg56
(lp4065
g3518
(S't\x06\x00\x00\x00Groups'
tRp4066
asbasbag49
(g3601
g51
NtRp4067
(dp4068
g54
(dp4069
sg63
g4053
sg56
(lp4070
g49
(g3594
g51
NtRp4071
(dp4072
g54
(dp4073
g3600
S'http://twitter.com/web2py'
p4074
ssg63
g4067
sg56
(lp4075
g3518
(S't\x07\x00\x00\x00Twitter'
tRp4076
asbasbag49
(g3601
g51
NtRp4077
(dp4078
g54
(dp4079
sg63
g4053
sg56
(lp4080
g49
(g3594
g51
NtRp4081
(dp4082
g54
(dp4083
g3600
S'http://webchat.freenode.net/?channels=web2py'
p4084
ssg63
g4077
sg56
(lp4085
g3518
(S's\t\x00\x00\x00Live Chat'
tRp4086
asbasbasbasbag49
(g3601
g51
NtRp4087
(dp4088
g54
(dp4089
g3605
g3606
ssg63
g3628
sg56
(lp4090
g49
(g3594
g51
NtRp4091
(dp4092
g54
(dp4093
g3598
g3599
sg3600
S'#'
ssg63
g4087
sg56
(lp4094
g3518
(S't\x07\x00\x00\x00Plugins'
tRp4095
asbag49
(g3607
g51
NtRp4096
(dp4097
g54
(dp4098
g3605
g3615
ssg63
g4087
sg56
(lp4099
g49
(g3601
g51
NtRp4100
(dp4101
g54
(dp4102
sg63
g4096
sg56
(lp4103
g49
(g3594
g51
NtRp4104
(dp4105
g54
(dp4106
g3600
S'http://web2py.com/examples/default/download'
p4107
ssg63
g4100
sg56
(lp4108
S'plugin_wiki'
p4109
asbasbag49
(g3601
g51
NtRp4110
(dp4111
g54
(dp4112
sg63
g4096
sg56
(lp4113
g49
(g3594
g51
NtRp4114
(dp4115
g54
(dp4116
g3600
g3837
ssg63
g4110
sg56
(lp4117
g3518
(S's\r\x00\x00\x00Other Plugins'
tRp4118
asbasbag49
(g3601
g51
NtRp4119
(dp4120
g54
(dp4121
sg63
g4096
sg56
(lp4122
g49
(g3594
g51
NtRp4123
(dp4124
g54
(dp4125
g3600
g3847
ssg63
g4119
sg56
(lp4126
g3518
(S's\x0e\x00\x00\x00Layout Plugins'
tRp4127
asbasbasbasbasbasbsg56
(lp4128
g3590
asbsg56
(lp4129
g3464
asbasbasbasbag49
(g65
g51
NtRp4130
(dp4131
g54
(dp4132
sg63
g3573
sg56
(lp4133
g49
(g70
g51
NtRp4134
(dp4135
g54
(dp4136
sg63
g4130
sg56
(lp4137
g49
(g50
g51
NtRp4138
(dp4139
g54
(dp4140
g62
I3
ssg63
g4134
sg56
(lp4141
g92
asbasbasbag49
(g65
g51
NtRp4142
(dp4143
g54
(dp4144
sg63
g3573
sg56
(lp4145
g49
(g70
g51
NtRp4146
(dp4147
g54
(dp4148
sg63
g4142
sg56
(lp4149
g49
(g50
g51
NtRp4150
(dp4151
g54
(dp4152
g62
I3
ssg63
g4146
sg56
(lp4153
S'None'
p4154
asbasbasbag49
(g65
g51
NtRp4155
(dp4156
g54
(dp4157
sg63
g3573
sg56
(lp4158
g49
(g70
g51
NtRp4159
(dp4160
g54
(dp4161
sg63
g4155
sg56
(lp4162
g49
(g50
g51
NtRp4163
(dp4164
g54
(dp4165
g62
I3
ssg63
g4159
sg56
(lp4166
g49
(g58
g51
NtRp4167
(dp4168
g54
(dp4169
g62
I2
ssg63
Nsg56
(lp4170
g49
(g65
g51
NtRp4171
(dp4172
g54
(dp4173
sg63
g4167
sg56
(lp4174
g49
(g70
g51
NtRp4175
(dp4176
g54
(dp4177
sg63
g4171
sg56
(lp4178
g49
(g50
g51
NtRp4179
(dp4180
g54
(dp4181
g62
I2
ssg63
g4175
sg56
(lp4182
g49
(g58
g51
NtRp4183
(dp4184
g54
(dp4185
g62
I1
ssg63
Nsg56
(lp4186
g49
(g65
g51
NtRp4187
(dp4188
g54
(dp4189
sg63
g4183
sg56
(lp4190
g49
(g70
g51
NtRp4191
(dp4192
g54
(dp4193
sg63
g4187
sg56
(lp4194
g49
(g50
g51
NtRp4195
(dp4196
g54
(dp4197
g62
I1
ssg63
g4191
sg56
(lp4198
g3641
asbasbasbag49
(g65
g51
NtRp4199
(dp4200
g54
(dp4201
sg63
g4183
sg56
(lp4202
g49
(g70
g51
NtRp4203
(dp4204
g54
(dp4205
sg63
g4199
sg56
(lp4206
g49
(g50
g51
NtRp4207
(dp4208
g54
(dp4209
g62
I1
ssg63
g4203
sg56
(lp4210
I00
asbasbasbag49
(g65
g51
NtRp4211
(dp4212
g54
(dp4213
sg63
g4183
sg56
(lp4214
g49
(g70
g51
NtRp4215
(dp4216
g54
(dp4217
sg63
g4211
sg56
(lp4218
g49
(g50
g51
NtRp4219
(dp4220
g54
(dp4221
g62
I1
ssg63
g4215
sg56
(lp4222
g3639
asbasbasbasbasbasbasbag49
(g65
g51
NtRp4223
(dp4224
g54
(dp4225
sg63
g4167
sg56
(lp4226
g49
(g70
g51
NtRp4227
(dp4228
g54
(dp4229
sg63
g4223
sg56
(lp4230
g49
(g50
g51
NtRp4231
(dp4232
g54
(dp4233
g62
I2
ssg63
g4227
sg56
(lp4234
g49
(g58
g51
NtRp4235
(dp4236
g54
(dp4237
g62
I1
ssg63
Nsg56
(lp4238
g49
(g65
g51
NtRp4239
(dp4240
g54
(dp4241
sg63
g4235
sg56
(lp4242
g49
(g70
g51
NtRp4243
(dp4244
g54
(dp4245
sg63
g4239
sg56
(lp4246
g49
(g50
g51
NtRp4247
(dp4248
g54
(dp4249
g62
I1
ssg63
g4243
sg56
(lp4250
g3651
asbasbasbag49
(g65
g51
NtRp4251
(dp4252
g54
(dp4253
sg63
g4235
sg56
(lp4254
g49
(g70
g51
NtRp4255
(dp4256
g54
(dp4257
sg63
g4251
sg56
(lp4258
g49
(g50
g51
NtRp4259
(dp4260
g54
(dp4261
g62
I1
ssg63
g4255
sg56
(lp4262
I00
asbasbasbag49
(g65
g51
NtRp4263
(dp4264
g54
(dp4265
sg63
g4235
sg56
(lp4266
g49
(g70
g51
NtRp4267
(dp4268
g54
(dp4269
sg63
g4263
sg56
(lp4270
g49
(g50
g51
NtRp4271
(dp4272
g54
(dp4273
g62
I1
ssg63
g4267
sg56
(lp4274
g3649
asbasbasbag49
(g65
g51
NtRp4275
(dp4276
g54
(dp4277
sg63
g4235
sg56
(lp4278
g49
(g70
g51
NtRp4279
(dp4280
g54
(dp4281
sg63
g4275
sg56
(lp4282
g49
(g50
g51
NtRp4283
(dp4284
g54
(dp4285
g62
I1
ssg63
g4279
sg56
(lp4286
(lp4287
(g3665
I00
g3663
tp4288
a(g3675
I00
g3673
tp4289
a(g3685
I00
g3683
tp4290
a(g3695
I00
g3693
tp4291
a(g3705
I00
g3703
tp4292
a(g3715
I00
g3713
tp4293
a(g3725
I00
g3723
tp4294
a(g3735
I00
g3733
tp4295
a(g3745
I00
g3743
tp4296
aasbasbasbasbasbasbasbag49
(g65
g51
NtRp4297
(dp4298
g54
(dp4299
sg63
g4167
sg56
(lp4300
g49
(g70
g51
NtRp4301
(dp4302
g54
(dp4303
sg63
g4297
sg56
(lp4304
g49
(g50
g51
NtRp4305
(dp4306
g54
(dp4307
g62
I2
ssg63
g4301
sg56
(lp4308
g49
(g58
g51
NtRp4309
(dp4310
g54
(dp4311
g62
I1
ssg63
Nsg56
(lp4312
g49
(g65
g51
NtRp4313
(dp4314
g54
(dp4315
sg63
g4309
sg56
(lp4316
g49
(g70
g51
NtRp4317
(dp4318
g54
(dp4319
sg63
g4313
sg56
(lp4320
g49
(g50
g51
NtRp4321
(dp4322
g54
(dp4323
g62
I1
ssg63
g4317
sg56
(lp4324
g3755
asbasbasbag49
(g65
g51
NtRp4325
(dp4326
g54
(dp4327
sg63
g4309
sg56
(lp4328
g49
(g70
g51
NtRp4329
(dp4330
g54
(dp4331
sg63
g4325
sg56
(lp4332
g49
(g50
g51
NtRp4333
(dp4334
g54
(dp4335
g62
I1
ssg63
g4329
sg56
(lp4336
I00
asbasbasbag49
(g65
g51
NtRp4337
(dp4338
g54
(dp4339
sg63
g4309
sg56
(lp4340
g49
(g70
g51
NtRp4341
(dp4342
g54
(dp4343
sg63
g4337
sg56
(lp4344
g49
(g50
g51
NtRp4345
(dp4346
g54
(dp4347
g62
I1
ssg63
g4341
sg56
(lp4348
g3753
asbasbasbag49
(g65
g51
NtRp4349
(dp4350
g54
(dp4351
sg63
g4309
sg56
(lp4352
g49
(g70
g51
NtRp4353
(dp4354
g54
(dp4355
sg63
g4349
sg56
(lp4356
g49
(g50
g51
NtRp4357
(dp4358
g54
(dp4359
g62
I1
ssg63
g4353
sg56
(lp4360
(lp4361
(g3769
I00
g3767
tp4362
a(g3779
I00
g3777
tp4363
a(g3789
I00
g3787
tp4364
a(g3799
I00
g3797
tp4365
a(g3809
I00
g3807
tp4366
a(g3819
I00
g3817
tp4367
a(g3829
I00
g3827
tp4368
a(g3839
I00
g3837
tp4369
a(g3849
I00
g3847
tp4370
a(g3859
I00
g3857
tp4371
a(g3869
I00
g3867
tp4372
aasbasbasbasbasbasbasbag49
(g65
g51
NtRp4373
(dp4374
g54
(dp4375
sg63
g4167
sg56
(lp4376
g49
(g70
g51
NtRp4377
(dp4378
g54
(dp4379
sg63
g4373
sg56
(lp4380
g49
(g50
g51
NtRp4381
(dp4382
g54
(dp4383
g62
I2
ssg63
g4377
sg56
(lp4384
g49
(g58
g51
NtRp4385
(dp4386
g54
(dp4387
g62
I1
ssg63
Nsg56
(lp4388
g49
(g65
g51
NtRp4389
(dp4390
g54
(dp4391
sg63
g4385
sg56
(lp4392
g49
(g70
g51
NtRp4393
(dp4394
g54
(dp4395
sg63
g4389
sg56
(lp4396
g49
(g50
g51
NtRp4397
(dp4398
g54
(dp4399
g62
I1
ssg63
g4393
sg56
(lp4400
g3879
asbasbasbag49
(g65
g51
NtRp4401
(dp4402
g54
(dp4403
sg63
g4385
sg56
(lp4404
g49
(g70
g51
NtRp4405
(dp4406
g54
(dp4407
sg63
g4401
sg56
(lp4408
g49
(g50
g51
NtRp4409
(dp4410
g54
(dp4411
g62
I1
ssg63
g4405
sg56
(lp4412
I00
asbasbasbag49
(g65
g51
NtRp4413
(dp4414
g54
(dp4415
sg63
g4385
sg56
(lp4416
g49
(g70
g51
NtRp4417
(dp4418
g54
(dp4419
sg63
g4413
sg56
(lp4420
g49
(g50
g51
NtRp4421
(dp4422
g54
(dp4423
g62
I1
ssg63
g4417
sg56
(lp4424
g3877
asbasbasbag49
(g65
g51
NtRp4425
(dp4426
g54
(dp4427
sg63
g4385
sg56
(lp4428
g49
(g70
g51
NtRp4429
(dp4430
g54
(dp4431
sg63
g4425
sg56
(lp4432
g49
(g50
g51
NtRp4433
(dp4434
g54
(dp4435
g62
I1
ssg63
g4429
sg56
(lp4436
(lp4437
(g3893
I00
g3891
tp4438
a(g3903
I00
g3901
tp4439
a(g3913
I00
g3911
tp4440
a(g3923
I00
g3921
tp4441
a(g3933
I00
g3931
tp4442
a(g3943
I00
g3941
tp4443
a(g3953
I00
g3951
tp4444
a(g3963
I00
g3961
tp4445
a(g3973
I00
g3971
tp4446
a(g3983
I00
g3981
tp4447
a(g3993
I00
g3991
tp4448
a(g4003
I00
g4001
tp4449
a(g4013
I00
g4011
tp4450
a(g4023
I00
g4021
tp4451
a(g4033
I00
g4031
tp4452
a(g4043
I00
g4041
tp4453
aasbasbasbasbasbasbasbag49
(g65
g51
NtRp4454
(dp4455
g54
(dp4456
sg63
g4167
sg56
(lp4457
g49
(g70
g51
NtRp4458
(dp4459
g54
(dp4460
sg63
g4454
sg56
(lp4461
g49
(g50
g51
NtRp4462
(dp4463
g54
(dp4464
g62
I2
ssg63
g4458
sg56
(lp4465
g49
(g58
g51
NtRp4466
(dp4467
g54
(dp4468
g62
I1
ssg63
Nsg56
(lp4469
g49
(g65
g51
NtRp4470
(dp4471
g54
(dp4472
sg63
g4466
sg56
(lp4473
g49
(g70
g51
NtRp4474
(dp4475
g54
(dp4476
sg63
g4470
sg56
(lp4477
g49
(g50
g51
NtRp4478
(dp4479
g54
(dp4480
g62
I1
ssg63
g4474
sg56
(lp4481
g4052
asbasbasbag49
(g65
g51
NtRp4482
(dp4483
g54
(dp4484
sg63
g4466
sg56
(lp4485
g49
(g70
g51
NtRp4486
(dp4487
g54
(dp4488
sg63
g4482
sg56
(lp4489
g49
(g50
g51
NtRp4490
(dp4491
g54
(dp4492
g62
I1
ssg63
g4486
sg56
(lp4493
I00
asbasbasbag49
(g65
g51
NtRp4494
(dp4495
g54
(dp4496
sg63
g4466
sg56
(lp4497
g49
(g70
g51
NtRp4498
(dp4499
g54
(dp4500
sg63
g4494
sg56
(lp4501
g49
(g50
g51
NtRp4502
(dp4503
g54
(dp4504
g62
I1
ssg63
g4498
sg56
(lp4505
Nasbasbasbag49
(g65
g51
NtRp4506
(dp4507
g54
(dp4508
sg63
g4466
sg56
(lp4509
g49
(g70
g51
NtRp4510
(dp4511
g54
(dp4512
sg63
g4506
sg56
(lp4513
g49
(g50
g51
NtRp4514
(dp4515
g54
(dp4516
g62
I1
ssg63
g4510
sg56
(lp4517
(lp4518
(g4066
I00
g4064
tp4519
a(g4076
I00
g4074
tp4520
a(g4086
I00
g4084
tp4521
aasbasbasbasbasbasbasbag49
(g65
g51
NtRp4522
(dp4523
g54
(dp4524
sg63
g4167
sg56
(lp4525
g49
(g70
g51
NtRp4526
(dp4527
g54
(dp4528
sg63
g4522
sg56
(lp4529
g49
(g50
g51
NtRp4530
(dp4531
g54
(dp4532
g62
I2
ssg63
g4526
sg56
(lp4533
g49
(g58
g51
NtRp4534
(dp4535
g54
(dp4536
g62
I1
ssg63
Nsg56
(lp4537
g49
(g65
g51
NtRp4538
(dp4539
g54
(dp4540
sg63
g4534
sg56
(lp4541
g49
(g70
g51
NtRp4542
(dp4543
g54
(dp4544
sg63
g4538
sg56
(lp4545
g49
(g50
g51
NtRp4546
(dp4547
g54
(dp4548
g62
I1
ssg63
g4542
sg56
(lp4549
g4095
asbasbasbag49
(g65
g51
NtRp4550
(dp4551
g54
(dp4552
sg63
g4534
sg56
(lp4553
g49
(g70
g51
NtRp4554
(dp4555
g54
(dp4556
sg63
g4550
sg56
(lp4557
g49
(g50
g51
NtRp4558
(dp4559
g54
(dp4560
g62
I1
ssg63
g4554
sg56
(lp4561
I00
asbasbasbag49
(g65
g51
NtRp4562
(dp4563
g54
(dp4564
sg63
g4534
sg56
(lp4565
g49
(g70
g51
NtRp4566
(dp4567
g54
(dp4568
sg63
g4562
sg56
(lp4569
g49
(g50
g51
NtRp4570
(dp4571
g54
(dp4572
g62
I1
ssg63
g4566
sg56
(lp4573
Nasbasbasbag49
(g65
g51
NtRp4574
(dp4575
g54
(dp4576
sg63
g4534
sg56
(lp4577
g49
(g70
g51
NtRp4578
(dp4579
g54
(dp4580
sg63
g4574
sg56
(lp4581
g49
(g50
g51
NtRp4582
(dp4583
g54
(dp4584
g62
I1
ssg63
g4578
sg56
(lp4585
(lp4586
(g4109
I00
g4107
tp4587
a(g4118
I00
g3837
tp4588
a(g4127
I00
g3847
tp4589
aasbasbasbasbasbasbasbasbasbasbasbasbasbasbasbasbasbasbasbag49
(g65
g51
NtRp4590
(dp4591
g54
(dp4592
sg63
g2890
sg56
(lp4593
g49
(g70
g51
NtRp4594
(dp4595
g54
(dp4596
g74
g75
ssg63
g4590
sg56
(lp4597
S'meta'
p4598
asbag49
(g70
g51
NtRp4599
(dp4600
g54
(dp4601
g81
g82
ssg63
g4590
sg56
(lp4602
S':'
asbag49
(g70
g51
NtRp4603
(dp4604
g54
(dp4605
sg63
g4590
sg56
(lp4606
g49
(g50
g51
NtRp4607
(dp4608
g54
(dp4609
g62
I5
ssg63
g4603
sg56
(lp4610
g49
(g58
g51
NtRp4611
(dp4612
g54
(dp4613
g62
I4
ssg63
Nsg56
(lp4614
g49
(g65
g51
NtRp4615
(dp4616
g54
(dp4617
sg63
g4611
sg56
(lp4618
g49
(g70
g51
NtRp4619
(dp4620
g54
(dp4621
g74
g75
ssg63
g4615
sg56
(lp4622
S'author'
p4623
asbag49
(g70
g51
NtRp4624
(dp4625
g54
(dp4626
g81
g82
ssg63
g4615
sg56
(lp4627
S':'
asbag49
(g70
g51
NtRp4628
(dp4629
g54
(dp4630
sg63
g4615
sg56
(lp4631
g49
(g50
g51
NtRp4632
(dp4633
g54
(dp4634
g62
I4
ssg63
g4628
sg56
(lp4635
S'Your Name <you@example.com>'
p4636
asbasbasbag49
(g65
g51
NtRp4637
(dp4638
g54
(dp4639
sg63
g4611
sg56
(lp4640
g49
(g70
g51
NtRp4641
(dp4642
g54
(dp4643
g74
g75
ssg63
g4637
sg56
(lp4644
S'copyright'
p4645
asbag49
(g70
g51
NtRp4646
(dp4647
g54
(dp4648
g81
g82
ssg63
g4637
sg56
(lp4649
S':'
asbag49
(g70
g51
NtRp4650
(dp4651
g54
(dp4652
sg63
g4637
sg56
(lp4653
g49
(g50
g51
NtRp4654
(dp4655
g54
(dp4656
g62
I4
ssg63
g4650
sg56
(lp4657
S'Copyright 2011'
p4658
asbasbasbag49
(g65
g51
NtRp4659
(dp4660
g54
(dp4661
sg63
g4611
sg56
(lp4662
g49
(g70
g51
NtRp4663
(dp4664
g54
(dp4665
g74
g75
ssg63
g4659
sg56
(lp4666
S'description'
p4667
asbag49
(g70
g51
NtRp4668
(dp4669
g54
(dp4670
g81
g82
ssg63
g4659
sg56
(lp4671
S':'
asbag49
(g70
g51
NtRp4672
(dp4673
g54
(dp4674
sg63
g4659
sg56
(lp4675
g49
(g50
g51
NtRp4676
(dp4677
g54
(dp4678
g62
I4
ssg63
g4672
sg56
(lp4679
S'a cool new app'
p4680
asbasbasbag49
(g65
g51
NtRp4681
(dp4682
g54
(dp4683
sg63
g4611
sg56
(lp4684
g49
(g70
g51
NtRp4685
(dp4686
g54
(dp4687
g74
g75
ssg63
g4681
sg56
(lp4688
S'generator'
p4689
asbag49
(g70
g51
NtRp4690
(dp4691
g54
(dp4692
g81
g82
ssg63
g4681
sg56
(lp4693
S':'
asbag49
(g70
g51
NtRp4694
(dp4695
g54
(dp4696
sg63
g4681
sg56
(lp4697
g49
(g50
g51
NtRp4698
(dp4699
g54
(dp4700
g62
I4
ssg63
g4694
sg56
(lp4701
S'Web2py Web Framework'
p4702
asbasbasbag49
(g65
g51
NtRp4703
(dp4704
g54
(dp4705
sg63
g4611
sg56
(lp4706
g49
(g70
g51
NtRp4707
(dp4708
g54
(dp4709
g74
g75
ssg63
g4703
sg56
(lp4710
S'keywords'
p4711
asbag49
(g70
g51
NtRp4712
(dp4713
g54
(dp4714
g81
g82
ssg63
g4703
sg56
(lp4715
S':'
asbag49
(g70
g51
NtRp4716
(dp4717
g54
(dp4718
sg63
g4703
sg56
(lp4719
g49
(g50
g51
NtRp4720
(dp4721
g54
(dp4722
g62
I4
ssg63
g4716
sg56
(lp4723
S'web2py, python, framework'
p4724
asbasbasbasbasbasbasbag49
(g65
g51
NtRp4725
(dp4726
g54
(dp4727
sg63
g2890
sg56
(lp4728
g49
(g70
g51
NtRp4729
(dp4730
g54
(dp4731
g74
g75
ssg63
g4725
sg56
(lp4732
S'postprocessing'
p4733
asbag49
(g70
g51
NtRp4734
(dp4735
g54
(dp4736
g81
g82
ssg63
g4725
sg56
(lp4737
S':'
asbag49
(g70
g51
NtRp4738
(dp4739
g54
(dp4740
sg63
g4725
sg56
(lp4741
g49
(g50
g51
NtRp4742
(dp4743
g54
(dp4744
g62
I5
ssg63
g4738
sg56
(lp4745
g49
(g58
g51
NtRp4746
(dp4747
g54
(dp4748
g62
I4
ssg63
Nsg56
(lp4749
sbasbasbasbag49
(g65
g51
NtRp4750
(dp4751
g54
(dp4752
sg63
g2890
sg56
(lp4753
g49
(g70
g51
NtRp4754
(dp4755
g54
(dp4756
g74
g75
ssg63
g4750
sg56
(lp4757
S'session_file'
p4758
asbag49
(g70
g51
NtRp4759
(dp4760
g54
(dp4761
g81
g82
ssg63
g4750
sg56
(lp4762
S':'
asbag49
(g70
g51
NtRp4763
(dp4764
g54
(dp4765
sg63
g4750
sg56
(lp4766
g49
(g50
g51
NtRp4767
(dp4768
g54
(dp4769
g62
I5
ssg63
g4763
sg56
(lp4770
S"<open file 'C:\\web2py\\applications\\unioeste_code\\sessions\\127.0.0.1-293eaa4c-b3df-4c8e-8d82-aea9e35290bd', mode 'rb+' at 0x067EAA88>"
p4771
asbasbasbag49
(g65
g51
NtRp4772
(dp4773
g54
(dp4774
sg63
g2890
sg56
(lp4775
g49
(g70
g51
NtRp4776
(dp4777
g54
(dp4778
g74
g75
ssg63
g4772
sg56
(lp4779
S'session_filename'
p4780
asbag49
(g70
g51
NtRp4781
(dp4782
g54
(dp4783
g81
g82
ssg63
g4772
sg56
(lp4784
S':'
asbag49
(g70
g51
NtRp4785
(dp4786
g54
(dp4787
sg63
g4772
sg56
(lp4788
g49
(g50
g51
NtRp4789
(dp4790
g54
(dp4791
g62
I5
ssg63
g4785
sg56
(lp4792
S'C:\\web2py\\applications\\unioeste_code\\sessions\\127.0.0.1-293eaa4c-b3df-4c8e-8d82-aea9e35290bd'
p4793
asbasbasbag49
(g65
g51
NtRp4794
(dp4795
g54
(dp4796
sg63
g2890
sg56
(lp4797
g49
(g70
g51
NtRp4798
(dp4799
g54
(dp4800
g74
g75
ssg63
g4794
sg56
(lp4801
S'session_id'
p4802
asbag49
(g70
g51
NtRp4803
(dp4804
g54
(dp4805
g81
g82
ssg63
g4794
sg56
(lp4806
S':'
asbag49
(g70
g51
NtRp4807
(dp4808
g54
(dp4809
sg63
g4794
sg56
(lp4810
g49
(g50
g51
NtRp4811
(dp4812
g54
(dp4813
g62
I5
ssg63
g4807
sg56
(lp4814
S'127.0.0.1-293eaa4c-b3df-4c8e-8d82-aea9e35290bd'
p4815
asbasbasbag49
(g65
g51
NtRp4816
(dp4817
g54
(dp4818
sg63
g2890
sg56
(lp4819
g49
(g70
g51
NtRp4820
(dp4821
g54
(dp4822
g74
g75
ssg63
g4816
sg56
(lp4823
S'session_id_name'
p4824
asbag49
(g70
g51
NtRp4825
(dp4826
g54
(dp4827
g81
g82
ssg63
g4816
sg56
(lp4828
S':'
asbag49
(g70
g51
NtRp4829
(dp4830
g54
(dp4831
sg63
g4816
sg56
(lp4832
g49
(g50
g51
NtRp4833
(dp4834
g54
(dp4835
g62
I5
ssg63
g4829
sg56
(lp4836
g2947
asbasbasbag49
(g65
g51
NtRp4837
(dp4838
g54
(dp4839
sg63
g2890
sg56
(lp4840
g49
(g70
g51
NtRp4841
(dp4842
g54
(dp4843
g74
g75
ssg63
g4837
sg56
(lp4844
S'session_locked'
p4845
asbag49
(g70
g51
NtRp4846
(dp4847
g54
(dp4848
g81
g82
ssg63
g4837
sg56
(lp4849
S':'
asbag49
(g70
g51
NtRp4850
(dp4851
g54
(dp4852
sg63
g4837
sg56
(lp4853
g49
(g50
g51
NtRp4854
(dp4855
g54
(dp4856
g62
I5
ssg63
g4850
sg56
(lp4857
g1465
asbasbasbag49
(g65
g51
NtRp4858
(dp4859
g54
(dp4860
sg63
g2890
sg56
(lp4861
g49
(g70
g51
NtRp4862
(dp4863
g54
(dp4864
g74
g75
ssg63
g4858
sg56
(lp4865
S'session_new'
p4866
asbag49
(g70
g51
NtRp4867
(dp4868
g54
(dp4869
g81
g82
ssg63
g4858
sg56
(lp4870
S':'
asbag49
(g70
g51
NtRp4871
(dp4872
g54
(dp4873
sg63
g4858
sg56
(lp4874
g49
(g50
g51
NtRp4875
(dp4876
g54
(dp4877
g62
I5
ssg63
g4871
sg56
(lp4878
g92
asbasbasbag49
(g65
g51
NtRp4879
(dp4880
g54
(dp4881
sg63
g2890
sg56
(lp4882
g49
(g70
g51
NtRp4883
(dp4884
g54
(dp4885
g74
g75
ssg63
g4879
sg56
(lp4886
S'status'
p4887
asbag49
(g70
g51
NtRp4888
(dp4889
g54
(dp4890
g81
g82
ssg63
g4879
sg56
(lp4891
S':'
asbag49
(g70
g51
NtRp4892
(dp4893
g54
(dp4894
sg63
g4879
sg56
(lp4895
g49
(g50
g51
NtRp4896
(dp4897
g54
(dp4898
g62
I5
ssg63
g4892
sg56
(lp4899
S'200'
p4900
asbasbasbag49
(g65
g51
NtRp4901
(dp4902
g54
(dp4903
sg63
g2890
sg56
(lp4904
g49
(g70
g51
NtRp4905
(dp4906
g54
(dp4907
g74
g75
ssg63
g4901
sg56
(lp4908
S'subtitle'
p4909
asbag49
(g70
g51
NtRp4910
(dp4911
g54
(dp4912
g81
g82
ssg63
g4901
sg56
(lp4913
S':'
asbag49
(g70
g51
NtRp4914
(dp4915
g54
(dp4916
sg63
g4901
sg56
(lp4917
g49
(g50
g51
NtRp4918
(dp4919
g54
(dp4920
g62
I5
ssg63
g4914
sg56
(lp4921
g3518
(S's\x0f\x00\x00\x00Personalize-me!'
tRp4922
asbasbasbag49
(g65
g51
NtRp4923
(dp4924
g54
(dp4925
sg63
g2890
sg56
(lp4926
g49
(g70
g51
NtRp4927
(dp4928
g54
(dp4929
g74
g75
ssg63
g4923
sg56
(lp4930
S'title'
p4931
asbag49
(g70
g51
NtRp4932
(dp4933
g54
(dp4934
g81
g82
ssg63
g4923
sg56
(lp4935
S':'
asbag49
(g70
g51
NtRp4936
(dp4937
g54
(dp4938
sg63
g4923
sg56
(lp4939
g49
(g50
g51
NtRp4940
(dp4941
g54
(dp4942
g62
I5
ssg63
g4936
sg56
(lp4943
S'Unioeste Code'
p4944
asbasbasbag49
(g65
g51
NtRp4945
(dp4946
g54
(dp4947
sg63
g2890
sg56
(lp4948
g49
(g70
g51
NtRp4949
(dp4950
g54
(dp4951
g74
g75
ssg63
g4945
sg56
(lp4952
g2129
asbag49
(g70
g51
NtRp4953
(dp4954
g54
(dp4955
g81
g82
ssg63
g4945
sg56
(lp4956
S':'
asbag49
(g70
g51
NtRp4957
(dp4958
g54
(dp4959
sg63
g4945
sg56
(lp4960
g49
(g50
g51
NtRp4961
(dp4962
g54
(dp4963
g62
I5
ssg63
g4957
sg56
(lp4964
g2142
asbasbasbag49
(g65
g51
NtRp4965
(dp4966
g54
(dp4967
sg63
g2890
sg56
(lp4968
g49
(g70
g51
NtRp4969
(dp4970
g54
(dp4971
g74
g75
ssg63
g4965
sg56
(lp4972
S'view'
p4973
asbag49
(g70
g51
NtRp4974
(dp4975
g54
(dp4976
g81
g82
ssg63
g4965
sg56
(lp4977
S':'
asbag49
(g70
g51
NtRp4978
(dp4979
g54
(dp4980
sg63
g4965
sg56
(lp4981
g49
(g50
g51
NtRp4982
(dp4983
g54
(dp4984
g62
I5
ssg63
g4978
sg56
(lp4985
S'default/index.html'
p4986
asbasbasbasbasbsS'locals'
p4987
(dp4988
S'Service'
p4989
S"<class 'gluon.tools.Service'>"
p4990
sS'OBJECT'
p4991
S"<class 'gluon.html.OBJECT'>"
p4992
sS'SQLDB'
p4993
S"<class 'gluon.dal.DAL'>"
p4994
sg2851
S"<Storage {'_formkey[comment/create]': '760eea07-...login]': '8ac35f28-07b7-45ba-a7e2-26a470948dc1'}>"
p4995
sS'LINK'
p4996
S"<class 'gluon.html.LINK'>"
p4997
sS'BR'
p4998
S"<class 'gluon.html.BR'>"
p4999
sS'local_import'
p5000
S'<function <lambda> at 0x068744F0>'
p5001
sS'OPTGROUP'
p5002
S"<class 'gluon.html.OPTGROUP'>"
p5003
sS'PRE'
p5004
S"<class 'gluon.html.PRE'>"
p5005
sS'IS_INT_IN_RANGE'
p5006
S"<class 'gluon.validators.IS_INT_IN_RANGE'>"
p5007
sS'left_sidebar_enabled'
p5008
g92
sS'IS_LOWER'
p5009
S"<class 'gluon.validators.IS_LOWER'>"
p5010
sS'IS_STRONG'
p5011
S"<class 'gluon.validators.IS_STRONG'>"
p5012
sS'Recaptcha'
p5013
S"<class 'gluon.tools.Recaptcha'>"
p5014
sS'cache'
p5015
S'<gluon.cache.Cache object at 0x067D7B30>'
p5016
sS'IS_IN_DB'
p5017
S"<class 'gluon.validators.IS_IN_DB'>"
p5018
sS'TAG'
p5019
S'<gluon.html.__TAG__ object at 0x0266BE30>'
p5020
sS'SQLField'
p5021
S"<class 'gluon.dal.Field'>"
p5022
sS'BODY'
p5023
S"<class 'gluon.html.BODY'>"
p5024
sS'IS_DATE_IN_RANGE'
p5025
S"<class 'gluon.validators.IS_DATE_IN_RANGE'>"
p5026
sS'TH'
p5027
S"<class 'gluon.html.TH'>"
p5028
sS'URL'
p5029
S'<function URL at 0x026CD8F0>'
p5030
sS'__file__'
p5031
S"r'C:\\web2py\\applications\\unioeste_code\\views\\default/index.html'"
p5032
sS'db'
p5033
S"<DAL {'comment': <Table {'body': <gluon.dal.Fiel...object at 0x032882B0>, '_singular': 'Problem'}>}>"
p5034
sS'auth'
p5035
S'<gluon.tools.Auth object at 0x065868D0>'
p5036
sS'P'
S"<class 'gluon.html.P'>"
p5037
sS'TFOOT'
p5038
S"<class 'gluon.html.TFOOT'>"
p5039
sS'XHTML'
p5040
S"<class 'gluon.html.XHTML'>"
p5041
sS'ON'
p5042
g1465
sS'OL'
p5043
S"<class 'gluon.html.OL'>"
p5044
sS'TEXTAREA'
p5045
S"<class 'gluon.html.TEXTAREA'>"
p5046
sS'MENU'
p5047
S"<class 'gluon.html.MENU'>"
p5048
sS'LOAD'
p5049
S'<function LOAD at 0x029454B0>'
p5050
sS'CODE'
p5051
S"<class 'gluon.html.CODE'>"
p5052
sS'HTTP'
p5053
S"<class 'gluon.http.HTTP'>"
p5054
sS'HR'
p5055
S"<class 'gluon.html.HR'>"
p5056
sS'IS_DATETIME'
p5057
S"<class 'gluon.validators.IS_DATETIME'>"
p5058
sS'HEAD'
p5059
S"<class 'gluon.html.HEAD'>"
p5060
sS'LABEL'
p5061
S"<class 'gluon.html.LABEL'>"
p5062
sS'CLEANUP'
p5063
S"<class 'gluon.validators.CLEANUP'>"
p5064
sS'SELECT'
p5065
S"<class 'gluon.html.SELECT'>"
p5066
sS'CENTER'
p5067
S"<class 'gluon.html.CENTER'>"
p5068
sS'prettydate'
p5069
S'<function prettydate at 0x0324DEF0>'
p5070
sS'Crud'
p5071
S"<class 'gluon.tools.Crud'>"
p5072
sS'Auth'
p5073
S"<class 'gluon.tools.Auth'>"
p5074
sS'__builtins__'
p5075
S"{'ArithmeticError': <type 'exceptions.ArithmeticError'>, 'AssertionError': <type 'exceptions.AssertionError'>, 'AttributeError': <type 'exceptions.AttributeError'>, 'BaseException': <type 'exceptions.BaseException'>, 'DeprecationWarning': <type 'exceptions.DeprecationWarning'>, 'EOFError': <type 'exceptions.EOFError'>, 'Ellipsis': Ellipsis, 'EnvironmentError': <type 'exceptions.EnvironmentError'>, 'Exception': <type 'exceptions.Exception'>, 'False': False, ...}"
p5076
sS'HTML'
p5077
S"<class 'gluon.html.HTML'>"
p5078
sS'SQLFORM'
p5079
S"<class 'gluon.sqlhtml.SQLFORM'>"
p5080
sS'EM'
p5081
S"<class 'gluon.html.EM'>"
p5082
sS'redirect'
p5083
S'<function redirect at 0x02548F70>'
p5084
sS'FIELDSET'
p5085
S"<class 'gluon.html.FIELDSET'>"
p5086
sS'IS_EQUAL_TO'
p5087
S"<class 'gluon.validators.IS_EQUAL_TO'>"
p5088
sS'embed64'
p5089
S'<function embed64 at 0x026D1430>'
p5090
sS'IS_LIST_OF'
p5091
S"<class 'gluon.validators.IS_LIST_OF'>"
p5092
sS'__name__'
p5093
S"'__restricted__'"
p5094
sS'EMBED'
p5095
S"<class 'gluon.html.EMBED'>"
p5096
sS'_'
S'<function _ at 0x068740B0>'
p5097
sS'FORM'
p5098
S"<class 'gluon.html.FORM'>"
p5099
sS'H2'
p5100
S"<class 'gluon.html.H2'>"
p5101
sS'H3'
p5102
S"<class 'gluon.html.H3'>"
p5103
sS'BUTTON'
p5104
S"<class 'gluon.html.BUTTON'>"
p5105
sS'H1'
p5106
S"<class 'gluon.html.H1'>"
p5107
sS'H6'
p5108
S"<class 'gluon.html.H6'>"
p5109
sS'H4'
p5110
S"<class 'gluon.html.H4'>"
p5111
sS'H5'
p5112
S"<class 'gluon.html.H5'>"
p5113
sS'UL'
p5114
S"<class 'gluon.html.UL'>"
p5115
sS'IS_UPPER'
p5116
S"<class 'gluon.validators.IS_UPPER'>"
p5117
sS'xmlescape'
p5118
S'<function xmlescape at 0x026CD870>'
p5119
sS'IS_TIME'
p5120
S"<class 'gluon.validators.IS_TIME'>"
p5121
sS'OPTION'
p5122
S"<class 'gluon.html.OPTION'>"
p5123
sS'TITLE'
p5124
S"<class 'gluon.html.TITLE'>"
p5125
sS'CRYPT'
p5126
S"<class 'gluon.validators.CRYPT'>"
p5127
sS'IS_EMPTY_OR'
p5128
S"<class 'gluon.validators.IS_EMPTY_OR'>"
p5129
sS'MARKMIN'
p5130
S"<class 'gluon.html.MARKMIN'>"
p5131
sS'INPUT'
p5132
S"<class 'gluon.html.INPUT'>"
p5133
sS'COL'
p5134
S"<class 'gluon.html.COL'>"
p5135
sS'SCRIPT'
p5136
S"<class 'gluon.html.SCRIPT'>"
p5137
sS'geocode'
p5138
S'<function geocode at 0x0324D830>'
p5139
sS'is_mobile'
p5140
g92
sS'TABLE'
p5141
S"<class 'gluon.html.TABLE'>"
p5142
sS'IS_IPV4'
p5143
S"<class 'gluon.validators.IS_IPV4'>"
p5144
sS'IS_LENGTH'
p5145
S"<class 'gluon.validators.IS_LENGTH'>"
p5146
sS'XML'
p5147
S"<class 'gluon.html.XML'>"
p5148
sS'B'
S"<class 'gluon.html.B'>"
p5149
sS'IMG'
p5150
S"<class 'gluon.html.IMG'>"
p5151
sS'SQLTABLE'
p5152
S"<class 'gluon.sqlhtml.SQLTABLE'>"
p5153
sS'IS_MATCH'
p5154
S"<class 'gluon.validators.IS_MATCH'>"
p5155
sS'IS_ALPHANUMERIC'
p5156
S"<class 'gluon.validators.IS_ALPHANUMERIC'>"
p5157
sS'SPAN'
p5158
S"<class 'gluon.html.SPAN'>"
p5159
sS'IS_SLUG'
p5160
S"<class 'gluon.validators.IS_SLUG'>"
p5161
sS'BEAUTIFY'
p5162
S"<class 'gluon.html.BEAUTIFY'>"
p5163
sS'META'
p5164
S"<class 'gluon.html.META'>"
p5165
sS'problem'
p5166
S"<Row {'body': 'Imprimir na tela os N primeiros n...lete_record': <function <lambda> at 0x06802D70>}>"
p5167
sS'fetch'
p5168
S'<function fetch at 0x032476B0>'
p5169
sS'IS_DATE'
p5170
S"<class 'gluon.validators.IS_DATE'>"
p5171
sS'IS_EMAIL'
p5172
S"<class 'gluon.validators.IS_EMAIL'>"
p5173
sS'IS_NOT_EMPTY'
p5174
S"<class 'gluon.validators.IS_NOT_EMPTY'>"
p5175
sg48
S"<Storage {'body': <cStringIO.StringO object at 0..._vars': <Storage {}>, 'post_vars': <Storage {}>}>"
p5176
sS'TBODY'
p5177
S"<class 'gluon.html.TBODY'>"
p5178
sS'CAT'
p5179
S"<class 'gluon.html.CAT'>"
p5180
sS'Field'
p5181
S"<class 'gluon.dal.Field'>"
p5182
sS'middle_columns'
p5183
S"'sixteen'"
p5184
sS'Mail'
p5185
S"<class 'gluon.tools.Mail'>"
p5186
sS'DIV'
p5187
S"<class 'gluon.html.DIV'>"
p5188
sS'LEGEND'
p5189
S"<class 'gluon.html.LEGEND'>"
p5190
sS'COLGROUP'
p5191
S"<class 'gluon.html.COLGROUP'>"
p5192
sS'DAL'
p5193
S"<class 'gluon.dal.DAL'>"
p5194
sS'TT'
p5195
S"<class 'gluon.html.TT'>"
p5196
sS'TR'
p5197
S"<class 'gluon.html.TR'>"
p5198
sS'LI'
p5199
S"<class 'gluon.html.LI'>"
p5200
sS'right_sidebar_enabled'
p5201
g92
sS'IFRAME'
p5202
S"<class 'gluon.html.IFRAME'>"
p5203
sS'TD'
p5204
S"<class 'gluon.html.TD'>"
p5205
sS'PluginManager'
p5206
S"<class 'gluon.tools.PluginManager'>"
p5207
sS'IS_URL'
p5208
S"<class 'gluon.validators.IS_URL'>"
p5209
sS'A'
S"<class 'gluon.html.A'>"
p5210
sS'STYLE'
p5211
S"<class 'gluon.html.STYLE'>"
p5212
sS'IS_DATETIME_IN_RANGE'
p5213
S"<class 'gluon.validators.IS_DATETIME_IN_RANGE'>"
p5214
sS'IS_IMAGE'
p5215
S"<class 'gluon.validators.IS_IMAGE'>"
p5216
sS'I'
S"<class 'gluon.html.I'>"
p5217
sS'crud'
p5218
S'<gluon.tools.Crud object at 0x03288310>'
p5219
sS'problems'
p5220
S'<gluon.dal.Rows object at 0x06558710>'
p5221
sS'IS_NOT_IN_DB'
p5222
S"<class 'gluon.validators.IS_NOT_IN_DB'>"
p5223
sS'user'
p5224
S"<Row {'comment': <gluon.dal.Set object at 0x0678...lete_record': <function <lambda> at 0x0687F870>}>"
p5225
sg2885
S"<Storage {'body': <cStringIO.StringO object at 0...a> at 0x068746F0>, 'view': 'default/index.html'}>"
p5226
sS'THEAD'
p5227
S"<class 'gluon.html.THEAD'>"
p5228
sS'IS_NULL_OR'
p5229
S"<class 'gluon.validators.IS_EMPTY_OR'>"
p5230
sS'IS_FLOAT_IN_RANGE'
p5231
S"<class 'gluon.validators.IS_FLOAT_IN_RANGE'>"
p5232
sS'IS_EXPR'
p5233
S"<class 'gluon.validators.IS_EXPR'>"
p5234
sS'T'
S'<gluon.languages.translator object at 0x067DEA10>'
p5235
sS'IS_IN_SET'
p5236
S"<class 'gluon.validators.IS_IN_SET'>"
p5237
sS'IS_UPLOAD_FILENAME'
p5238
S"<class 'gluon.validators.IS_UPLOAD_FILENAME'>"
p5239
sS'IS_DECIMAL_IN_RANGE'
p5240
S"<class 'gluon.validators.IS_DECIMAL_IN_RANGE'>"
p5241
sssS'traceback'
p5242
S'Traceback (most recent call last):\n  File "gluon/restricted.py", line 205, in restricted\n  File "C:\\web2py\\applications\\unioeste_code\\views\\default/index.html", line 86, in <module>\nNameError: name \'STRONG\' is not defined\n'
p5243
s.