(dp1
S'output'
p2
S"<type 'exceptions.SyntaxError'> invalid syntax (default/index.html, line 94)"
p3
sS'layer'
p4
S'C:\\web2py\\applications\\unioeste_code\\views\\default/index.html'
p5
sS'code'
p6
S'left_sidebar_enabled,right_sidebar_enabled=False,False\nresponse.write(\'\\n\', escape=False)\nresponse.write(\'<!DOCTYPE html>\\n<!-- paulirish.com/2008/conditional-stylesheets-vs-css-hacks-answer-neither/ -->\\n<!--[if lt IE 7]><html class="ie ie6 ie-lte9 ie-lte8 ie-lte7 no-js" lang="\', escape=False)\nresponse.write(T.accepted_language or \'en\')\nresponse.write(\'"> <![endif]-->\\n<!--[if IE 7]><html class="ie ie7 ie-lte9 ie-lte8 ie-lte7 no-js" lang="\', escape=False)\nresponse.write(T.accepted_language or \'en\')\nresponse.write(\'"> <![endif]-->\\n<!--[if IE 8]><html class="ie ie8 ie-lte9 ie-lte8 no-js" lang="\', escape=False)\nresponse.write(T.accepted_language or \'en\')\nresponse.write(\'"> <![endif]-->\\n<!--[if IE 9]><html class="ie9 ie-lte9 no-js" lang="\', escape=False)\nresponse.write(T.accepted_language or \'en\')\nresponse.write(\'"> <![endif]-->\\n<!--[if (gt IE 9)|!(IE)]><!--> <html class="no-js" lang="\', escape=False)\nresponse.write(T.accepted_language or \'en\')\nresponse.write(\'"> <!--<![endif]-->\\n<head>\\n  <meta charset="utf-8" />\\n  <!-- www.phpied.com/conditional-comments-block-downloads/ -->\\n  <!-- Always force latest IE rendering engine\\n\\t   (even in intranet) & Chrome Frame\\n\\t   Remove this if you use the .htaccess -->\\n  <!--[if IE]>\\n    <meta http-equiv="X-UA-Compatible" content="IE=edge\', escape=False)\nresponse.write(not request.is_local and \',chrome=1\' or \'\')\nresponse.write(\'">\\n  <![endif]-->\\n  \\n  <title>\', escape=False)\nresponse.write(response.title or request.application)\nresponse.write(\'</title>\\n  \\n  <!-- http://dev.w3.org/html5/markup/meta.name.html -->\\n  <meta name="application-name" content="\', escape=False)\nresponse.write(request.application)\nresponse.write(\'" />\\n  \\n  <!-- Speaking of Google, don\\\'t forget to set your site up:\\n\\t   http://google.com/webmasters -->\\n  <meta name="google-site-verification" content="" />\\n\\n  <!--  Mobile Viewport Fix\\n\\t  j.mp/mobileviewport & davidbcalhoun.com/2010/viewport-metatag\\n\\t  device-width: Occupy full width of the screen in its current orientation\\n\\t  initial-scale = 1.0 retains dimensions instead of zooming out if page height > device height\\n\\t  user-scalable = yes allows the user to zoom in -->\\n  <meta name="viewport" content="width=device-width, initial-scale=1.0, user-scalable=yes">\\n  \\n  <!-- Place favicon.ico and apple-touch-icon.png in the root of your domain and delete these references -->\\n  <link rel="shortcut icon" href="\', escape=False)\nresponse.write(URL(\'static\',\'favicon.ico\'))\nresponse.write(\'" type="image/x-icon">\\n  <link rel="apple-touch-icon" href="\', escape=False)\nresponse.write(URL(\'static\',\'favicon.png\'))\nresponse.write(\'">\\n\\n  <!-- All JavaScript at the bottom, except for Modernizr which enables \\n\\t   HTML5 elements & feature detects -->\\n  <script src="\', escape=False)\nresponse.write(URL(\'static\',\'js/modernizr.custom.js\'))\nresponse.write(\'"></script>  \\n\\n  <!-- include stylesheets -->\\n  \', escape=False)\nresponse.files.append(URL(\'static\',\'css/skeleton.css\'))\nresponse.files.append(URL(\'static\',\'css/web2py.css\'))\nif response.menu:\n    response.files.append(URL(\'static\',\'css/superfish.css\'))\n    response.files.append(URL(\'static\',\'js/superfish.js\'))\n    pass\nresponse.write(\'\\n\\n  \', escape=False)\nresponse.write(\'<script type="text/javascript"><!--\\n    // These variables are used by the web2py_ajax_init function in web2py_ajax.js (which is loaded below).\\n    var w2p_ajax_confirm_message = "\', escape=False)\nresponse.write(T(\'Are you sure you want to delete this object?\'))\nresponse.write(\'";\\n    var w2p_ajax_date_format = "\', escape=False)\nresponse.write(T(\'%Y-%m-%d\'))\nresponse.write(\'";\\n    var w2p_ajax_datetime_format = "\', escape=False)\nresponse.write(T(\'%Y-%m-%d %H:%M:%S\'))\nresponse.write(\'";\\n    //--></script>\\n\', escape=False)\nresponse.files.insert(0,URL(\'static\',\'js/jquery.js\'))\nresponse.files.insert(1,URL(\'static\',\'css/calendar.css\'))\nresponse.files.insert(2,URL(\'static\',\'js/calendar.js\'))\nresponse.files.insert(3,URL(\'static\',\'js/web2py.js\'))\nresponse.include_meta()\nresponse.include_files()\nresponse.write(\'\\n\', escape=False)\nresponse.write(\'\\n\\n  \', escape=False)\nif response.menu:\n    response.write(\'\\n  <script type="text/javascript">\\n    jQuery(function(){ jQuery(\\\'ul.sf-menu\\\').supersubs({minWidth:12,maxWidth:30,extraWidth:3}).superfish(); });\\n  </script>\\n  \', escape=False)\n    pass\nresponse.write(\'\\n\\n  \', escape=False)\n# using sidebars need to know what sidebar you want to use\nleft_sidebar_enabled = globals().get(\'left_sidebar_enabled\',False)\nright_sidebar_enabled = globals().get(\'right_sidebar_enabled\',False)\nmiddle_columns = {0:\'sixteen\',1:\'twelve\',2:\'eight\'}[\n(left_sidebar_enabled and 1 or 0)+(right_sidebar_enabled and 1 or 0)]\nresponse.write(\'\\n\\n  <!-- uncomment here to load jquery-ui\\n  <link rel="stylesheet" href="http://ajax.googleapis.com/ajax/libs/jqueryui/1.8.16/themes/base/jquery-ui.css" type="text/css" media="all" />\\n  <script src="http://ajax.googleapis.com/ajax/libs/jqueryui/1.8.16/jquery-ui.min.js" type="text/javascript"></script>\\n  uncomment to load jquery-ui //-->\\n</head>\\n<body>\\n  <div class="wrapper"><!-- for sticky footer -->\\n  \\n    <div class="topbar">\\n      <div class="container">    \\n        <div class="sixteen columns">\\n          <div id="navbar">\', escape=False)\nresponse.write(\'auth\' in globals() and auth.navbar(separators=(\' \',\' | \',\'\')))\nresponse.write(\'</div>\\n          \', escape=False)\nis_mobile=request.user_agent().is_mobile\nresponse.write(\'\\n\\t  \', escape=False)\nif response.menu:\n    response.write(\'\\n          <div id="menu">\\n             \', escape=False)\n    response.write(MENU(response.menu, _class=\'mobile-menu\' if is_mobile else \'sf-menu\',mobile=is_mobile))\n    response.write(\'\\n          </div>\\n          \', escape=False)\n    pass\nresponse.write(\'\\n        </div>\\n      </div>\\n    </div><!-- topbar -->\\n    \\n    <div class="flash">\', escape=False)\nresponse.write(response.flash or \'\')\nresponse.write(\'</div>\\n    \\n    <div class="header">\\n      <div class="container">         \\n        <div class="sixteen columns">\\n          <h1 class="remove-bottom" style="margin-top: .5em;">\\n          \', escape=False)\nresponse.write(response.title or request.application)\nresponse.write(\'\\n          </h1>\\n          <h5>\', escape=False)\nresponse.write(response.subtitle or \'\')\nresponse.write(\'</h5>\\n        </div>\\n        <div class="sixteen columns">\\n          <div class="statusbar clearfix">\\n            \', escape=False)\nresponse.write(\'\\n            <div class="breadcrumbs">\', escape=False)\nresponse.write(request.function.replace(\'_\', \' \').title())\nresponse.write(\'</div>\\n            \', escape=False)\nresponse.write(\'\\n            <!-- AddToAny BEGIN -->\\n            <div style="float:right; padding-top: .25em;" class="a2a_kit a2a_default_style">\\n            <a class="a2a_dd" href="http://www.addtoany.com/share_save">Share</a></div>\\n            <script type="text/javascript" src="http://static.addtoany.com/menu/page.js"></script>\\n            <!-- AddToAny END -->\\n          </div>\\n        </div>\\n      </div>\\n    </div>\\n\\n    <div class="main">\\n      <div class="container">                 \\n        \', escape=False)\nif left_sidebar_enabled:\n    response.write(\'\\n        <div class="four columns left-sidebar">\\n          \', escape=False)\n    response.write(\'\\n          <h3>Left Sidebar</h3>\\n          <p></p>\\n          \', escape=False)\n    response.write(\'\\n        </div>\\n        \', escape=False)\n    pass\nresponse.write(\'\\n        \\n        <div class="\', escape=False)\nresponse.write(middle_columns)\nresponse.write(\' columns center">\\n          \', escape=False)\nresponse.write(\'\\n          \', escape=False)\nresponse.write(\'\\n\\n\\n\', escape=False)\nresponse.write(H1(T("Current Problems")))\nresponse.write(\'\\n<ul>\\n\', escape=False)\nfor problem in problems:\n    response.write(\'\\n\', escape=False)\n    user = db(db.auth_user.id==code.created_by).select().first()\n    response.write(\'\\n\', escape=False)\n    response.write(LI(A(problem.title, _href=URL("showProblem", args=problem.id)) +  by " + user.first_name + " " + user.last_name ))\n    response.write(\'\\n\', escape=False)\n    pass\nresponse.write(\'\\n</ul>\', escape=False)\nresponse.write(\'\\n          \', escape=False)\nresponse.write(\'\\n        </div>\\n        \\n        \', escape=False)\nif right_sidebar_enabled:\n    response.write(\'\\n        <div class="four columns">\\n          \', escape=False)\n    response.write(\'\\n          <h3>Right Sidebar</h3>\\n          <p></p>\\n          \', escape=False)\n    response.write(\'\\n        </div>    \\n        \', escape=False)\n    pass\nresponse.write(\'\\n        \\n      </div><!-- container -->\\n    </div><!-- main -->\\n    \\n    <div class="push"></div>\\n  </div><!-- wrapper -->\\n\\n  <div class="footer">\\n    <div class="container">    \\n      <div class="sixteen columns">\\n        \', escape=False)\nresponse.write(\' <!-- this is default footer -->\\n        <div class="footer-content clearfix">\\n          <div class="copyright">\', escape=False)\nresponse.write(T(\'Copyright\'))\nresponse.write(\' &#169; 2011</div>\\n          <div style="float: right;">\\n            <a href="http://www.web2py.com/">\\n            <img style="padding-bottom: 0;" src="\', escape=False)\nresponse.write(URL(\'static\',\'images/poweredby.png\'))\nresponse.write(\'"/>\\n            </a>\\n          </div>\\n        </div>\\n        \', escape=False)\nresponse.write(\'\\t\\n      </div>\\n    </div><!-- container -->\\n  </div><!-- footer -->\\n  \\n  <!--[if lt IE 7 ]>\\n\\t<script src="\', escape=False)\nresponse.write(URL(\'static\',\'js/dd_belatedpng.js\'))\nresponse.write(\'"></script>\\n\\t<script> DD_belatedPNG.fix(\\\'img, .png_bg\\\'); //fix any <img> or .png_bg background-images </script>\\n\\t<![endif]-->\\n  \', escape=False)\nif response.google_analytics_id:\n    response.write(\'<script type="text/javascript"> var _gaq = _gaq || []; _gaq.push([\\\'_setAccount\\\', \\\'\', escape=False)\n    response.write(response.google_analytics_id)\n    response.write("\']); _gaq.push([\'_trackPageview\']); (function() { var ga = document.createElement(\'script\'); ga.type = \'text/javascript\'; ga.async = true; ga.src = (\'https:\' == document.location.protocol ? \'https://ssl\' : \'http://www\') + \'.google-analytics.com/ga.js\'; var s = document.getElementsByTagName(\'script\')[0]; s.parentNode.insertBefore(ga, s); })(); </script> ", escape=False)\n    pass\nresponse.write(\'\\n</body>\\n</html>\\n\', escape=False)'
p7
sS'snapshot'
p8
(dp9
S'exception'
p10
(dp11
S'__getslice__'
p12
S"<method-wrapper '__getslice__' of exceptions.SyntaxError object at 0x060BB470>"
p13
sS'text'
p14
S'\'    response.write(LI(A(problem.title, _href=URL...by " + user.first_name + " " + user.last_name ))\\n\''
p15
sS'__str__'
p16
S"<method-wrapper '__str__' of exceptions.SyntaxError object at 0x060BB470>"
p17
sS'__reduce__'
p18
S'<built-in method __reduce__ of exceptions.SyntaxError object at 0x060BB470>'
p19
sS'__dict__'
p20
S'{}'
p21
sS'__init__'
p22
S"<method-wrapper '__init__' of exceptions.SyntaxError object at 0x060BB470>"
p23
sS'__setattr__'
p24
S"<method-wrapper '__setattr__' of exceptions.SyntaxError object at 0x060BB470>"
p25
sS'__reduce_ex__'
p26
S'<built-in method __reduce_ex__ of exceptions.SyntaxError object at 0x060BB470>'
p27
sS'__new__'
p28
S'<built-in method __new__ of type object at 0x1E1CDBD0>'
p29
sS'__class__'
p30
S"<type 'exceptions.SyntaxError'>"
p31
sS'filename'
p32
S"r'C:\\web2py\\applications\\unioeste_code\\views\\default/index.html'"
p33
sS'lineno'
p34
S'94'
p35
sS'msg'
p36
S"'invalid syntax'"
p37
sS'__doc__'
p38
S"'Invalid syntax.'"
p39
sS'__getitem__'
p40
S"<method-wrapper '__getitem__' of exceptions.SyntaxError object at 0x060BB470>"
p41
sS'__setstate__'
p42
S'<built-in method __setstate__ of exceptions.SyntaxError object at 0x060BB470>'
p43
sS'__getattribute__'
p44
S"<method-wrapper '__getattribute__' of exceptions.SyntaxError object at 0x060BB470>"
p45
sS'print_file_and_line'
p46
S'None'
p47
sS'args'
p48
S'(\'invalid syntax\', (r\'C:\\web2py\\applications\\unioeste_code\\views\\default/index.html\', 94, 111, \'    response.write(LI(A(problem.title, _href=URL...by " + user.first_name + " " + user.last_name ))\\n\'))'
p49
sS'offset'
p50
S'111'
p51
sS'__delattr__'
p52
S"<method-wrapper '__delattr__' of exceptions.SyntaxError object at 0x060BB470>"
p53
sS'__repr__'
p54
S"<method-wrapper '__repr__' of exceptions.SyntaxError object at 0x060BB470>"
p55
sS'__hash__'
p56
S"<method-wrapper '__hash__' of exceptions.SyntaxError object at 0x060BB470>"
p57
ssS'evalue'
p58
S'invalid syntax (default/index.html, line 94)'
p59
sS'request'
p60
ccopy_reg
_reconstructor
p61
(cgluon.html
BEAUTIFY
p62
c__builtin__
object
p63
NtRp64
(dp65
S'attributes'
p66
(dp67
sS'components'
p68
(lp69
g61
(cgluon.html
TABLE
p70
g63
NtRp71
(dp72
g66
(dp73
S'level'
p74
I5
ssS'parent'
p75
Nsg68
(lp76
g61
(cgluon.html
TR
p77
g63
NtRp78
(dp79
g66
(dp80
sg75
g71
sg68
(lp81
g61
(cgluon.html
TD
p82
g63
NtRp83
(dp84
g66
(dp85
S'_style'
p86
S'font-weight:bold;vertical-align:top'
p87
ssg75
g78
sg68
(lp88
S'ajax'
p89
asbag61
(g82
g63
NtRp90
(dp91
g66
(dp92
S'_valign'
p93
S'top'
p94
ssg75
g78
sg68
(lp95
S':'
asbag61
(g82
g63
NtRp96
(dp97
g66
(dp98
sg75
g78
sg68
(lp99
g61
(g62
g63
NtRp100
(dp101
g66
(dp102
g74
I5
ssg75
g96
sg68
(lp103
S'False'
p104
asbasbasbag61
(g77
g63
NtRp105
(dp106
g66
(dp107
sg75
g71
sg68
(lp108
g61
(g82
g63
NtRp109
(dp110
g66
(dp111
g86
g87
ssg75
g105
sg68
(lp112
S'application'
p113
asbag61
(g82
g63
NtRp114
(dp115
g66
(dp116
g93
g94
ssg75
g105
sg68
(lp117
S':'
asbag61
(g82
g63
NtRp118
(dp119
g66
(dp120
sg75
g105
sg68
(lp121
g61
(g62
g63
NtRp122
(dp123
g66
(dp124
g74
I5
ssg75
g118
sg68
(lp125
S'unioeste_code'
p126
asbasbasbag61
(g77
g63
NtRp127
(dp128
g66
(dp129
sg75
g71
sg68
(lp130
g61
(g82
g63
NtRp131
(dp132
g66
(dp133
g86
g87
ssg75
g127
sg68
(lp134
g48
asbag61
(g82
g63
NtRp135
(dp136
g66
(dp137
g93
g94
ssg75
g127
sg68
(lp138
S':'
asbag61
(g82
g63
NtRp139
(dp140
g66
(dp141
sg75
g127
sg68
(lp142
g61
(g62
g63
NtRp143
(dp144
g66
(dp145
g74
I5
ssg75
g139
sg68
(lp146
g61
(g70
g63
NtRp147
(dp148
g66
(dp149
g74
I4
ssg75
Nsg68
(lp150
sbasbasbasbag61
(g77
g63
NtRp151
(dp152
g66
(dp153
sg75
g71
sg68
(lp154
g61
(g82
g63
NtRp155
(dp156
g66
(dp157
g86
g87
ssg75
g151
sg68
(lp158
S'body'
p159
asbag61
(g82
g63
NtRp160
(dp161
g66
(dp162
g93
g94
ssg75
g151
sg68
(lp163
S':'
asbag61
(g82
g63
NtRp164
(dp165
g66
(dp166
sg75
g151
sg68
(lp167
g61
(g62
g63
NtRp168
(dp169
g66
(dp170
g74
I5
ssg75
g164
sg68
(lp171
S'<cStringIO.StringO object at 0x06067C80>'
p172
asbasbasbag61
(g77
g63
NtRp173
(dp174
g66
(dp175
sg75
g71
sg68
(lp176
g61
(g82
g63
NtRp177
(dp178
g66
(dp179
g86
g87
ssg75
g173
sg68
(lp180
S'client'
p181
asbag61
(g82
g63
NtRp182
(dp183
g66
(dp184
g93
g94
ssg75
g173
sg68
(lp185
S':'
asbag61
(g82
g63
NtRp186
(dp187
g66
(dp188
sg75
g173
sg68
(lp189
g61
(g62
g63
NtRp190
(dp191
g66
(dp192
g74
I5
ssg75
g186
sg68
(lp193
S'127.0.0.1'
p194
asbasbasbag61
(g77
g63
NtRp195
(dp196
g66
(dp197
sg75
g71
sg68
(lp198
g61
(g82
g63
NtRp199
(dp200
g66
(dp201
g86
g87
ssg75
g195
sg68
(lp202
S'controller'
p203
asbag61
(g82
g63
NtRp204
(dp205
g66
(dp206
g93
g94
ssg75
g195
sg68
(lp207
S':'
asbag61
(g82
g63
NtRp208
(dp209
g66
(dp210
sg75
g195
sg68
(lp211
g61
(g62
g63
NtRp212
(dp213
g66
(dp214
g74
I5
ssg75
g208
sg68
(lp215
S'default'
p216
asbasbasbag61
(g77
g63
NtRp217
(dp218
g66
(dp219
sg75
g71
sg68
(lp220
g61
(g82
g63
NtRp221
(dp222
g66
(dp223
g86
g87
ssg75
g217
sg68
(lp224
S'cookies'
p225
asbag61
(g82
g63
NtRp226
(dp227
g66
(dp228
g93
g94
ssg75
g217
sg68
(lp229
S':'
asbag61
(g82
g63
NtRp230
(dp231
g66
(dp232
sg75
g217
sg68
(lp233
g61
(g62
g63
NtRp234
(dp235
g66
(dp236
g74
I5
ssg75
g230
sg68
(lp237
g61
(g70
g63
NtRp238
(dp239
g66
(dp240
g74
I4
ssg75
Nsg68
(lp241
g61
(g77
g63
NtRp242
(dp243
g66
(dp244
sg75
g238
sg68
(lp245
g61
(g82
g63
NtRp246
(dp247
g66
(dp248
g86
g87
ssg75
g242
sg68
(lp249
S'session_id_welcome'
p250
asbag61
(g82
g63
NtRp251
(dp252
g66
(dp253
g93
g94
ssg75
g242
sg68
(lp254
S':'
asbag61
(g82
g63
NtRp255
(dp256
g66
(dp257
sg75
g242
sg68
(lp258
g61
(g62
g63
NtRp259
(dp260
g66
(dp261
g74
I4
ssg75
g255
sg68
(lp262
g61
(g70
g63
NtRp263
(dp264
g66
(dp265
g74
I3
ssg75
Nsg68
(lp266
g61
(g77
g63
NtRp267
(dp268
g66
(dp269
sg75
g263
sg68
(lp270
g61
(g82
g63
NtRp271
(dp272
g66
(dp273
g86
g87
ssg75
g267
sg68
(lp274
S'comment'
p275
asbag61
(g82
g63
NtRp276
(dp277
g66
(dp278
g93
g94
ssg75
g267
sg68
(lp279
S':'
asbag61
(g82
g63
NtRp280
(dp281
g66
(dp282
sg75
g267
sg68
(lp283
g61
(g62
g63
NtRp284
(dp285
g66
(dp286
g74
I3
ssg75
g280
sg68
(lp287
S''
asbasbasbag61
(g77
g63
NtRp288
(dp289
g66
(dp290
sg75
g263
sg68
(lp291
g61
(g82
g63
NtRp292
(dp293
g66
(dp294
g86
g87
ssg75
g288
sg68
(lp295
S'domain'
p296
asbag61
(g82
g63
NtRp297
(dp298
g66
(dp299
g93
g94
ssg75
g288
sg68
(lp300
S':'
asbag61
(g82
g63
NtRp301
(dp302
g66
(dp303
sg75
g288
sg68
(lp304
g61
(g62
g63
NtRp305
(dp306
g66
(dp307
g74
I3
ssg75
g301
sg68
(lp308
S''
asbasbasbag61
(g77
g63
NtRp309
(dp310
g66
(dp311
sg75
g263
sg68
(lp312
g61
(g82
g63
NtRp313
(dp314
g66
(dp315
g86
g87
ssg75
g309
sg68
(lp316
S'expires'
p317
asbag61
(g82
g63
NtRp318
(dp319
g66
(dp320
g93
g94
ssg75
g309
sg68
(lp321
S':'
asbag61
(g82
g63
NtRp322
(dp323
g66
(dp324
sg75
g309
sg68
(lp325
g61
(g62
g63
NtRp326
(dp327
g66
(dp328
g74
I3
ssg75
g322
sg68
(lp329
S''
asbasbasbag61
(g77
g63
NtRp330
(dp331
g66
(dp332
sg75
g263
sg68
(lp333
g61
(g82
g63
NtRp334
(dp335
g66
(dp336
g86
g87
ssg75
g330
sg68
(lp337
S'max-age'
p338
asbag61
(g82
g63
NtRp339
(dp340
g66
(dp341
g93
g94
ssg75
g330
sg68
(lp342
S':'
asbag61
(g82
g63
NtRp343
(dp344
g66
(dp345
sg75
g330
sg68
(lp346
g61
(g62
g63
NtRp347
(dp348
g66
(dp349
g74
I3
ssg75
g343
sg68
(lp350
S''
asbasbasbag61
(g77
g63
NtRp351
(dp352
g66
(dp353
sg75
g263
sg68
(lp354
g61
(g82
g63
NtRp355
(dp356
g66
(dp357
g86
g87
ssg75
g351
sg68
(lp358
S'path'
p359
asbag61
(g82
g63
NtRp360
(dp361
g66
(dp362
g93
g94
ssg75
g351
sg68
(lp363
S':'
asbag61
(g82
g63
NtRp364
(dp365
g66
(dp366
sg75
g351
sg68
(lp367
g61
(g62
g63
NtRp368
(dp369
g66
(dp370
g74
I3
ssg75
g364
sg68
(lp371
S''
asbasbasbag61
(g77
g63
NtRp372
(dp373
g66
(dp374
sg75
g263
sg68
(lp375
g61
(g82
g63
NtRp376
(dp377
g66
(dp378
g86
g87
ssg75
g372
sg68
(lp379
S'secure'
p380
asbag61
(g82
g63
NtRp381
(dp382
g66
(dp383
g93
g94
ssg75
g372
sg68
(lp384
S':'
asbag61
(g82
g63
NtRp385
(dp386
g66
(dp387
sg75
g372
sg68
(lp388
g61
(g62
g63
NtRp389
(dp390
g66
(dp391
g74
I3
ssg75
g385
sg68
(lp392
S''
asbasbasbag61
(g77
g63
NtRp393
(dp394
g66
(dp395
sg75
g263
sg68
(lp396
g61
(g82
g63
NtRp397
(dp398
g66
(dp399
g86
g87
ssg75
g393
sg68
(lp400
S'version'
p401
asbag61
(g82
g63
NtRp402
(dp403
g66
(dp404
g93
g94
ssg75
g393
sg68
(lp405
S':'
asbag61
(g82
g63
NtRp406
(dp407
g66
(dp408
sg75
g393
sg68
(lp409
g61
(g62
g63
NtRp410
(dp411
g66
(dp412
g74
I3
ssg75
g406
sg68
(lp413
S''
asbasbasbasbasbasbasbasbasbasbasbag61
(g77
g63
NtRp414
(dp415
g66
(dp416
sg75
g71
sg68
(lp417
g61
(g82
g63
NtRp418
(dp419
g66
(dp420
g86
g87
ssg75
g414
sg68
(lp421
S'env'
p422
asbag61
(g82
g63
NtRp423
(dp424
g66
(dp425
g93
g94
ssg75
g414
sg68
(lp426
S':'
asbag61
(g82
g63
NtRp427
(dp428
g66
(dp429
sg75
g414
sg68
(lp430
g61
(g62
g63
NtRp431
(dp432
g66
(dp433
g74
I5
ssg75
g427
sg68
(lp434
g61
(g70
g63
NtRp435
(dp436
g66
(dp437
g74
I4
ssg75
Nsg68
(lp438
g61
(g77
g63
NtRp439
(dp440
g66
(dp441
sg75
g435
sg68
(lp442
g61
(g82
g63
NtRp443
(dp444
g66
(dp445
g86
g87
ssg75
g439
sg68
(lp446
S'app_folders'
p447
asbag61
(g82
g63
NtRp448
(dp449
g66
(dp450
g93
g94
ssg75
g439
sg68
(lp451
S':'
asbag61
(g82
g63
NtRp452
(dp453
g66
(dp454
sg75
g439
sg68
(lp455
g61
(g62
g63
NtRp456
(dp457
g66
(dp458
g74
I4
ssg75
g452
sg68
(lp459
S"set(['C:\\\\web2py\\\\applications\\\\welcome\\\\', 'C:\\\\web2py\\\\applications\\\\unioeste_code\\\\'])"
p460
asbasbasbag61
(g77
g63
NtRp461
(dp462
g66
(dp463
sg75
g435
sg68
(lp464
g61
(g82
g63
NtRp465
(dp466
g66
(dp467
g86
g87
ssg75
g461
sg68
(lp468
S'applications_parent'
p469
asbag61
(g82
g63
NtRp470
(dp471
g66
(dp472
g93
g94
ssg75
g461
sg68
(lp473
S':'
asbag61
(g82
g63
NtRp474
(dp475
g66
(dp476
sg75
g461
sg68
(lp477
g61
(g62
g63
NtRp478
(dp479
g66
(dp480
g74
I4
ssg75
g474
sg68
(lp481
S'C:\\web2py'
p482
asbasbasbag61
(g77
g63
NtRp483
(dp484
g66
(dp485
sg75
g435
sg68
(lp486
g61
(g82
g63
NtRp487
(dp488
g66
(dp489
g86
g87
ssg75
g483
sg68
(lp490
S'cmd_args'
p491
asbag61
(g82
g63
NtRp492
(dp493
g66
(dp494
g93
g94
ssg75
g483
sg68
(lp495
S':'
asbag61
(g82
g63
NtRp496
(dp497
g66
(dp498
sg75
g483
sg68
(lp499
g61
(g62
g63
NtRp500
(dp501
g66
(dp502
g74
I4
ssg75
g496
sg68
(lp503
g61
(g70
g63
NtRp504
(dp505
g66
(dp506
g74
I3
ssg75
Nsg68
(lp507
sbasbasbasbag61
(g77
g63
NtRp508
(dp509
g66
(dp510
sg75
g435
sg68
(lp511
g61
(g82
g63
NtRp512
(dp513
g66
(dp514
g86
g87
ssg75
g508
sg68
(lp515
S'cmd_options'
p516
asbag61
(g82
g63
NtRp517
(dp518
g66
(dp519
g93
g94
ssg75
g508
sg68
(lp520
S':'
asbag61
(g82
g63
NtRp521
(dp522
g66
(dp523
sg75
g508
sg68
(lp524
g61
(g62
g63
NtRp525
(dp526
g66
(dp527
g74
I4
ssg75
g521
sg68
(lp528
S"<Values at 0x309c300: {'verbose': False, 'ip': '127.0.0.1', 'shutdown_timeout': 5, 'taskbar': False, 'nocron': False, 'pid_filename': 'httpserver.pid', 'maxthreads': None, 'softcron': False, 'server_name': 'Pedro-PC', 'bpython': False, 'nogui': False, 'port': 8000, 'extcron': False, 'debuglevel': 30, 'test': None, 'folder': 'C:\\\\web2py', 'config': '', 'import_models': False, 'winservice': '', 'shell': None, 'run': '', 'log_filename': 'httpserver.log', 'args': [''], 'socket_timeout': 5, 'ssl_ca_certificate': None, 'scheduler': None, 'profiler_filename': None, 'ssl_private_key': '', 'password': '<ask>', 'request_queue_size': 5, 'ssl_certificate': '', 'cronjob': False, 'numthreads': None, 'quiet': False, 'interfaces': None, 'minthreads': None, 'timeout': 10, 'plain': False, 'nobanner': False}>"
p529
asbasbasbag61
(g77
g63
NtRp530
(dp531
g66
(dp532
sg75
g435
sg68
(lp533
g61
(g82
g63
NtRp534
(dp535
g66
(dp536
g86
g87
ssg75
g530
sg68
(lp537
S'db_sessions'
p538
asbag61
(g82
g63
NtRp539
(dp540
g66
(dp541
g93
g94
ssg75
g530
sg68
(lp542
S':'
asbag61
(g82
g63
NtRp543
(dp544
g66
(dp545
sg75
g530
sg68
(lp546
g61
(g62
g63
NtRp547
(dp548
g66
(dp549
g74
I4
ssg75
g543
sg68
(lp550
S'set([])'
p551
asbasbasbag61
(g77
g63
NtRp552
(dp553
g66
(dp554
sg75
g435
sg68
(lp555
g61
(g82
g63
NtRp556
(dp557
g66
(dp558
g86
g87
ssg75
g552
sg68
(lp559
S'debugging'
p560
asbag61
(g82
g63
NtRp561
(dp562
g66
(dp563
g93
g94
ssg75
g552
sg68
(lp564
S':'
asbag61
(g82
g63
NtRp565
(dp566
g66
(dp567
sg75
g552
sg68
(lp568
g61
(g62
g63
NtRp569
(dp570
g66
(dp571
g74
I4
ssg75
g565
sg68
(lp572
g104
asbasbasbag61
(g77
g63
NtRp573
(dp574
g66
(dp575
sg75
g435
sg68
(lp576
g61
(g82
g63
NtRp577
(dp578
g66
(dp579
g86
g87
ssg75
g573
sg68
(lp580
S'gluon_parent'
p581
asbag61
(g82
g63
NtRp582
(dp583
g66
(dp584
g93
g94
ssg75
g573
sg68
(lp585
S':'
asbag61
(g82
g63
NtRp586
(dp587
g66
(dp588
sg75
g573
sg68
(lp589
g61
(g62
g63
NtRp590
(dp591
g66
(dp592
g74
I4
ssg75
g586
sg68
(lp593
S'C:\\web2py'
p594
asbasbasbag61
(g77
g63
NtRp595
(dp596
g66
(dp597
sg75
g435
sg68
(lp598
g61
(g82
g63
NtRp599
(dp600
g66
(dp601
g86
g87
ssg75
g595
sg68
(lp602
S'http_accept'
p603
asbag61
(g82
g63
NtRp604
(dp605
g66
(dp606
g93
g94
ssg75
g595
sg68
(lp607
S':'
asbag61
(g82
g63
NtRp608
(dp609
g66
(dp610
sg75
g595
sg68
(lp611
g61
(g62
g63
NtRp612
(dp613
g66
(dp614
g74
I4
ssg75
g608
sg68
(lp615
S'text/html,application/xhtml+xml,application/xml;q=0.9,*/*;q=0.8'
p616
asbasbasbag61
(g77
g63
NtRp617
(dp618
g66
(dp619
sg75
g435
sg68
(lp620
g61
(g82
g63
NtRp621
(dp622
g66
(dp623
g86
g87
ssg75
g617
sg68
(lp624
S'http_accept_charset'
p625
asbag61
(g82
g63
NtRp626
(dp627
g66
(dp628
g93
g94
ssg75
g617
sg68
(lp629
S':'
asbag61
(g82
g63
NtRp630
(dp631
g66
(dp632
sg75
g617
sg68
(lp633
g61
(g62
g63
NtRp634
(dp635
g66
(dp636
g74
I4
ssg75
g630
sg68
(lp637
S'ISO-8859-1,utf-8;q=0.7,*;q=0.3'
p638
asbasbasbag61
(g77
g63
NtRp639
(dp640
g66
(dp641
sg75
g435
sg68
(lp642
g61
(g82
g63
NtRp643
(dp644
g66
(dp645
g86
g87
ssg75
g639
sg68
(lp646
S'http_accept_encoding'
p647
asbag61
(g82
g63
NtRp648
(dp649
g66
(dp650
g93
g94
ssg75
g639
sg68
(lp651
S':'
asbag61
(g82
g63
NtRp652
(dp653
g66
(dp654
sg75
g639
sg68
(lp655
g61
(g62
g63
NtRp656
(dp657
g66
(dp658
g74
I4
ssg75
g652
sg68
(lp659
S'gzip,deflate,sdch'
p660
asbasbasbag61
(g77
g63
NtRp661
(dp662
g66
(dp663
sg75
g435
sg68
(lp664
g61
(g82
g63
NtRp665
(dp666
g66
(dp667
g86
g87
ssg75
g661
sg68
(lp668
S'http_accept_language'
p669
asbag61
(g82
g63
NtRp670
(dp671
g66
(dp672
g93
g94
ssg75
g661
sg68
(lp673
S':'
asbag61
(g82
g63
NtRp674
(dp675
g66
(dp676
sg75
g661
sg68
(lp677
g61
(g62
g63
NtRp678
(dp679
g66
(dp680
g74
I4
ssg75
g674
sg68
(lp681
S'pt-BR,pt;q=0.8,en-US;q=0.6,en;q=0.4'
p682
asbasbasbag61
(g77
g63
NtRp683
(dp684
g66
(dp685
sg75
g435
sg68
(lp686
g61
(g82
g63
NtRp687
(dp688
g66
(dp689
g86
g87
ssg75
g683
sg68
(lp690
S'http_connection'
p691
asbag61
(g82
g63
NtRp692
(dp693
g66
(dp694
g93
g94
ssg75
g683
sg68
(lp695
S':'
asbag61
(g82
g63
NtRp696
(dp697
g66
(dp698
sg75
g683
sg68
(lp699
g61
(g62
g63
NtRp700
(dp701
g66
(dp702
g74
I4
ssg75
g696
sg68
(lp703
S'keep-alive'
p704
asbasbasbag61
(g77
g63
NtRp705
(dp706
g66
(dp707
sg75
g435
sg68
(lp708
g61
(g82
g63
NtRp709
(dp710
g66
(dp711
g86
g87
ssg75
g705
sg68
(lp712
S'http_cookie'
p713
asbag61
(g82
g63
NtRp714
(dp715
g66
(dp716
g93
g94
ssg75
g705
sg68
(lp717
S':'
asbag61
(g82
g63
NtRp718
(dp719
g66
(dp720
sg75
g705
sg68
(lp721
g61
(g62
g63
NtRp722
(dp723
g66
(dp724
g74
I4
ssg75
g718
sg68
(lp725
S'session_id_welcome=127.0.0.1-428eee6e-d977-48aa-81f9-d00d95c3e4dd'
p726
asbasbasbag61
(g77
g63
NtRp727
(dp728
g66
(dp729
sg75
g435
sg68
(lp730
g61
(g82
g63
NtRp731
(dp732
g66
(dp733
g86
g87
ssg75
g727
sg68
(lp734
S'http_dnt'
p735
asbag61
(g82
g63
NtRp736
(dp737
g66
(dp738
g93
g94
ssg75
g727
sg68
(lp739
S':'
asbag61
(g82
g63
NtRp740
(dp741
g66
(dp742
sg75
g727
sg68
(lp743
g61
(g62
g63
NtRp744
(dp745
g66
(dp746
g74
I4
ssg75
g740
sg68
(lp747
S'1'
asbasbasbag61
(g77
g63
NtRp748
(dp749
g66
(dp750
sg75
g435
sg68
(lp751
g61
(g82
g63
NtRp752
(dp753
g66
(dp754
g86
g87
ssg75
g748
sg68
(lp755
S'http_host'
p756
asbag61
(g82
g63
NtRp757
(dp758
g66
(dp759
g93
g94
ssg75
g748
sg68
(lp760
S':'
asbag61
(g82
g63
NtRp761
(dp762
g66
(dp763
sg75
g748
sg68
(lp764
g61
(g62
g63
NtRp765
(dp766
g66
(dp767
g74
I4
ssg75
g761
sg68
(lp768
S'127.0.0.1:8000'
p769
asbasbasbag61
(g77
g63
NtRp770
(dp771
g66
(dp772
sg75
g435
sg68
(lp773
g61
(g82
g63
NtRp774
(dp775
g66
(dp776
g86
g87
ssg75
g770
sg68
(lp777
S'http_user_agent'
p778
asbag61
(g82
g63
NtRp779
(dp780
g66
(dp781
g93
g94
ssg75
g770
sg68
(lp782
S':'
asbag61
(g82
g63
NtRp783
(dp784
g66
(dp785
sg75
g770
sg68
(lp786
g61
(g62
g63
NtRp787
(dp788
g66
(dp789
g74
I4
ssg75
g783
sg68
(lp790
S'Mozilla/5.0 (Windows NT 6.1; WOW64) AppleWebKit/536.11 (KHTML, like Gecko) Chrome/20.0.1132.57 Safari/536.11'
p791
asbasbasbag61
(g77
g63
NtRp792
(dp793
g66
(dp794
sg75
g435
sg68
(lp795
g61
(g82
g63
NtRp796
(dp797
g66
(dp798
g86
g87
ssg75
g792
sg68
(lp799
S'is_jython'
p800
asbag61
(g82
g63
NtRp801
(dp802
g66
(dp803
g93
g94
ssg75
g792
sg68
(lp804
S':'
asbag61
(g82
g63
NtRp805
(dp806
g66
(dp807
sg75
g792
sg68
(lp808
g61
(g62
g63
NtRp809
(dp810
g66
(dp811
g74
I4
ssg75
g805
sg68
(lp812
g104
asbasbasbag61
(g77
g63
NtRp813
(dp814
g66
(dp815
sg75
g435
sg68
(lp816
g61
(g82
g63
NtRp817
(dp818
g66
(dp819
g86
g87
ssg75
g813
sg68
(lp820
S'is_pypy'
p821
asbag61
(g82
g63
NtRp822
(dp823
g66
(dp824
g93
g94
ssg75
g813
sg68
(lp825
S':'
asbag61
(g82
g63
NtRp826
(dp827
g66
(dp828
sg75
g813
sg68
(lp829
g61
(g62
g63
NtRp830
(dp831
g66
(dp832
g74
I4
ssg75
g826
sg68
(lp833
g104
asbasbasbag61
(g77
g63
NtRp834
(dp835
g66
(dp836
sg75
g435
sg68
(lp837
g61
(g82
g63
NtRp838
(dp839
g66
(dp840
g86
g87
ssg75
g834
sg68
(lp841
S'path_info'
p842
asbag61
(g82
g63
NtRp843
(dp844
g66
(dp845
g93
g94
ssg75
g834
sg68
(lp846
S':'
asbag61
(g82
g63
NtRp847
(dp848
g66
(dp849
sg75
g834
sg68
(lp850
g61
(g62
g63
NtRp851
(dp852
g66
(dp853
g74
I4
ssg75
g847
sg68
(lp854
S'/unioeste_code/'
p855
asbasbasbag61
(g77
g63
NtRp856
(dp857
g66
(dp858
sg75
g435
sg68
(lp859
g61
(g82
g63
NtRp860
(dp861
g66
(dp862
g86
g87
ssg75
g856
sg68
(lp863
S'query_string'
p864
asbag61
(g82
g63
NtRp865
(dp866
g66
(dp867
g93
g94
ssg75
g856
sg68
(lp868
S':'
asbag61
(g82
g63
NtRp869
(dp870
g66
(dp871
sg75
g856
sg68
(lp872
g61
(g62
g63
NtRp873
(dp874
g66
(dp875
g74
I4
ssg75
g869
sg68
(lp876
S''
asbasbasbag61
(g77
g63
NtRp877
(dp878
g66
(dp879
sg75
g435
sg68
(lp880
g61
(g82
g63
NtRp881
(dp882
g66
(dp883
g86
g87
ssg75
g877
sg68
(lp884
S'remote_addr'
p885
asbag61
(g82
g63
NtRp886
(dp887
g66
(dp888
g93
g94
ssg75
g877
sg68
(lp889
S':'
asbag61
(g82
g63
NtRp890
(dp891
g66
(dp892
sg75
g877
sg68
(lp893
g61
(g62
g63
NtRp894
(dp895
g66
(dp896
g74
I4
ssg75
g890
sg68
(lp897
g194
asbasbasbag61
(g77
g63
NtRp898
(dp899
g66
(dp900
sg75
g435
sg68
(lp901
g61
(g82
g63
NtRp902
(dp903
g66
(dp904
g86
g87
ssg75
g898
sg68
(lp905
S'remote_port'
p906
asbag61
(g82
g63
NtRp907
(dp908
g66
(dp909
g93
g94
ssg75
g898
sg68
(lp910
S':'
asbag61
(g82
g63
NtRp911
(dp912
g66
(dp913
sg75
g898
sg68
(lp914
g61
(g62
g63
NtRp915
(dp916
g66
(dp917
g74
I4
ssg75
g911
sg68
(lp918
S'11928'
p919
asbasbasbag61
(g77
g63
NtRp920
(dp921
g66
(dp922
sg75
g435
sg68
(lp923
g61
(g82
g63
NtRp924
(dp925
g66
(dp926
g86
g87
ssg75
g920
sg68
(lp927
S'request_method'
p928
asbag61
(g82
g63
NtRp929
(dp930
g66
(dp931
g93
g94
ssg75
g920
sg68
(lp932
S':'
asbag61
(g82
g63
NtRp933
(dp934
g66
(dp935
sg75
g920
sg68
(lp936
g61
(g62
g63
NtRp937
(dp938
g66
(dp939
g74
I4
ssg75
g933
sg68
(lp940
S'GET'
p941
asbasbasbag61
(g77
g63
NtRp942
(dp943
g66
(dp944
sg75
g435
sg68
(lp945
g61
(g82
g63
NtRp946
(dp947
g66
(dp948
g86
g87
ssg75
g942
sg68
(lp949
S'script_name'
p950
asbag61
(g82
g63
NtRp951
(dp952
g66
(dp953
g93
g94
ssg75
g942
sg68
(lp954
S':'
asbag61
(g82
g63
NtRp955
(dp956
g66
(dp957
sg75
g942
sg68
(lp958
g61
(g62
g63
NtRp959
(dp960
g66
(dp961
g74
I4
ssg75
g955
sg68
(lp962
S''
asbasbasbag61
(g77
g63
NtRp963
(dp964
g66
(dp965
sg75
g435
sg68
(lp966
g61
(g82
g63
NtRp967
(dp968
g66
(dp969
g86
g87
ssg75
g963
sg68
(lp970
S'server_name'
p971
asbag61
(g82
g63
NtRp972
(dp973
g66
(dp974
g93
g94
ssg75
g963
sg68
(lp975
S':'
asbag61
(g82
g63
NtRp976
(dp977
g66
(dp978
sg75
g963
sg68
(lp979
g61
(g62
g63
NtRp980
(dp981
g66
(dp982
g74
I4
ssg75
g976
sg68
(lp983
S'Pedro-PC'
p984
asbasbasbag61
(g77
g63
NtRp985
(dp986
g66
(dp987
sg75
g435
sg68
(lp988
g61
(g82
g63
NtRp989
(dp990
g66
(dp991
g86
g87
ssg75
g985
sg68
(lp992
S'server_port'
p993
asbag61
(g82
g63
NtRp994
(dp995
g66
(dp996
g93
g94
ssg75
g985
sg68
(lp997
S':'
asbag61
(g82
g63
NtRp998
(dp999
g66
(dp1000
sg75
g985
sg68
(lp1001
g61
(g62
g63
NtRp1002
(dp1003
g66
(dp1004
g74
I4
ssg75
g998
sg68
(lp1005
S'8000'
p1006
asbasbasbag61
(g77
g63
NtRp1007
(dp1008
g66
(dp1009
sg75
g435
sg68
(lp1010
g61
(g82
g63
NtRp1011
(dp1012
g66
(dp1013
g86
g87
ssg75
g1007
sg68
(lp1014
S'server_protocol'
p1015
asbag61
(g82
g63
NtRp1016
(dp1017
g66
(dp1018
g93
g94
ssg75
g1007
sg68
(lp1019
S':'
asbag61
(g82
g63
NtRp1020
(dp1021
g66
(dp1022
sg75
g1007
sg68
(lp1023
g61
(g62
g63
NtRp1024
(dp1025
g66
(dp1026
g74
I4
ssg75
g1020
sg68
(lp1027
S'HTTP/1.1'
p1028
asbasbasbag61
(g77
g63
NtRp1029
(dp1030
g66
(dp1031
sg75
g435
sg68
(lp1032
g61
(g82
g63
NtRp1033
(dp1034
g66
(dp1035
g86
g87
ssg75
g1029
sg68
(lp1036
S'server_software'
p1037
asbag61
(g82
g63
NtRp1038
(dp1039
g66
(dp1040
g93
g94
ssg75
g1029
sg68
(lp1041
S':'
asbag61
(g82
g63
NtRp1042
(dp1043
g66
(dp1044
sg75
g1029
sg68
(lp1045
g61
(g62
g63
NtRp1046
(dp1047
g66
(dp1048
g74
I4
ssg75
g1042
sg68
(lp1049
S'Rocket 1.2.4'
p1050
asbasbasbag61
(g77
g63
NtRp1051
(dp1052
g66
(dp1053
sg75
g435
sg68
(lp1054
g61
(g82
g63
NtRp1055
(dp1056
g66
(dp1057
g86
g87
ssg75
g1051
sg68
(lp1058
S'web2py_crontype'
p1059
asbag61
(g82
g63
NtRp1060
(dp1061
g66
(dp1062
g93
g94
ssg75
g1051
sg68
(lp1063
S':'
asbag61
(g82
g63
NtRp1064
(dp1065
g66
(dp1066
sg75
g1051
sg68
(lp1067
g61
(g62
g63
NtRp1068
(dp1069
g66
(dp1070
g74
I4
ssg75
g1064
sg68
(lp1071
S'hard'
p1072
asbasbasbag61
(g77
g63
NtRp1073
(dp1074
g66
(dp1075
sg75
g435
sg68
(lp1076
g61
(g82
g63
NtRp1077
(dp1078
g66
(dp1079
g86
g87
ssg75
g1073
sg68
(lp1080
S'web2py_path'
p1081
asbag61
(g82
g63
NtRp1082
(dp1083
g66
(dp1084
g93
g94
ssg75
g1073
sg68
(lp1085
S':'
asbag61
(g82
g63
NtRp1086
(dp1087
g66
(dp1088
sg75
g1073
sg68
(lp1089
g61
(g62
g63
NtRp1090
(dp1091
g66
(dp1092
g74
I4
ssg75
g1086
sg68
(lp1093
g482
asbasbasbag61
(g77
g63
NtRp1094
(dp1095
g66
(dp1096
sg75
g435
sg68
(lp1097
g61
(g82
g63
NtRp1098
(dp1099
g66
(dp1100
g86
g87
ssg75
g1094
sg68
(lp1101
S'web2py_version'
p1102
asbag61
(g82
g63
NtRp1103
(dp1104
g66
(dp1105
g93
g94
ssg75
g1094
sg68
(lp1106
S':'
asbag61
(g82
g63
NtRp1107
(dp1108
g66
(dp1109
sg75
g1094
sg68
(lp1110
g61
(g62
g63
NtRp1111
(dp1112
g66
(dp1113
g74
I4
ssg75
g1107
sg68
(lp1114
g61
(g70
g63
NtRp1115
(dp1116
g66
(dp1117
g74
I3
ssg75
Nsg68
(lp1118
g61
(g77
g63
NtRp1119
(dp1120
g66
(dp1121
sg75
g1115
sg68
(lp1122
g61
(g82
g63
NtRp1123
(dp1124
g66
(dp1125
sg75
g1119
sg68
(lp1126
g61
(g62
g63
NtRp1127
(dp1128
g66
(dp1129
g74
I3
ssg75
g1123
sg68
(lp1130
S'1'
asbasbasbag61
(g77
g63
NtRp1131
(dp1132
g66
(dp1133
sg75
g1115
sg68
(lp1134
g61
(g82
g63
NtRp1135
(dp1136
g66
(dp1137
sg75
g1131
sg68
(lp1138
g61
(g62
g63
NtRp1139
(dp1140
g66
(dp1141
g74
I3
ssg75
g1135
sg68
(lp1142
S'99'
p1143
asbasbasbag61
(g77
g63
NtRp1144
(dp1145
g66
(dp1146
sg75
g1115
sg68
(lp1147
g61
(g82
g63
NtRp1148
(dp1149
g66
(dp1150
sg75
g1144
sg68
(lp1151
g61
(g62
g63
NtRp1152
(dp1153
g66
(dp1154
g74
I3
ssg75
g1148
sg68
(lp1155
S'7'
asbasbasbag61
(g77
g63
NtRp1156
(dp1157
g66
(dp1158
sg75
g1115
sg68
(lp1159
g61
(g82
g63
NtRp1160
(dp1161
g66
(dp1162
sg75
g1156
sg68
(lp1163
g61
(g62
g63
NtRp1164
(dp1165
g66
(dp1166
g74
I3
ssg75
g1160
sg68
(lp1167
S'datetime.datetime(2012, 3, 4, 22, 12, 8)'
p1168
asbasbasbag61
(g77
g63
NtRp1169
(dp1170
g66
(dp1171
sg75
g1115
sg68
(lp1172
g61
(g82
g63
NtRp1173
(dp1174
g66
(dp1175
sg75
g1169
sg68
(lp1176
g61
(g62
g63
NtRp1177
(dp1178
g66
(dp1179
g74
I3
ssg75
g1173
sg68
(lp1180
S'stable'
p1181
asbasbasbasbasbasbasbag61
(g77
g63
NtRp1182
(dp1183
g66
(dp1184
sg75
g435
sg68
(lp1185
g61
(g82
g63
NtRp1186
(dp1187
g66
(dp1188
g86
g87
ssg75
g1182
sg68
(lp1189
S'wsgi_errors'
p1190
asbag61
(g82
g63
NtRp1191
(dp1192
g66
(dp1193
g93
g94
ssg75
g1182
sg68
(lp1194
S':'
asbag61
(g82
g63
NtRp1195
(dp1196
g66
(dp1197
sg75
g1182
sg68
(lp1198
g61
(g62
g63
NtRp1199
(dp1200
g66
(dp1201
g74
I4
ssg75
g1195
sg68
(lp1202
S'<__main__.Stderr object at 0x00486670>'
p1203
asbasbasbag61
(g77
g63
NtRp1204
(dp1205
g66
(dp1206
sg75
g435
sg68
(lp1207
g61
(g82
g63
NtRp1208
(dp1209
g66
(dp1210
g86
g87
ssg75
g1204
sg68
(lp1211
S'wsgi_file_wrapper'
p1212
asbag61
(g82
g63
NtRp1213
(dp1214
g66
(dp1215
g93
g94
ssg75
g1204
sg68
(lp1216
S':'
asbag61
(g82
g63
NtRp1217
(dp1218
g66
(dp1219
sg75
g1204
sg68
(lp1220
g61
(g62
g63
NtRp1221
(dp1222
g66
(dp1223
g74
I4
ssg75
g1217
sg68
(lp1224
S'<class wsgiref.util.FileWrapper at 0x02E8DE10>'
p1225
asbasbasbag61
(g77
g63
NtRp1226
(dp1227
g66
(dp1228
sg75
g435
sg68
(lp1229
g61
(g82
g63
NtRp1230
(dp1231
g66
(dp1232
g86
g87
ssg75
g1226
sg68
(lp1233
S'wsgi_input'
p1234
asbag61
(g82
g63
NtRp1235
(dp1236
g66
(dp1237
g93
g94
ssg75
g1226
sg68
(lp1238
S':'
asbag61
(g82
g63
NtRp1239
(dp1240
g66
(dp1241
sg75
g1226
sg68
(lp1242
g61
(g62
g63
NtRp1243
(dp1244
g66
(dp1245
g74
I4
ssg75
g1239
sg68
(lp1246
S'<socket._fileobject object at 0x03267730>'
p1247
asbasbasbag61
(g77
g63
NtRp1248
(dp1249
g66
(dp1250
sg75
g435
sg68
(lp1251
g61
(g82
g63
NtRp1252
(dp1253
g66
(dp1254
g86
g87
ssg75
g1248
sg68
(lp1255
S'wsgi_multiprocess'
p1256
asbag61
(g82
g63
NtRp1257
(dp1258
g66
(dp1259
g93
g94
ssg75
g1248
sg68
(lp1260
S':'
asbag61
(g82
g63
NtRp1261
(dp1262
g66
(dp1263
sg75
g1248
sg68
(lp1264
g61
(g62
g63
NtRp1265
(dp1266
g66
(dp1267
g74
I4
ssg75
g1261
sg68
(lp1268
g104
asbasbasbag61
(g77
g63
NtRp1269
(dp1270
g66
(dp1271
sg75
g435
sg68
(lp1272
g61
(g82
g63
NtRp1273
(dp1274
g66
(dp1275
g86
g87
ssg75
g1269
sg68
(lp1276
S'wsgi_multithread'
p1277
asbag61
(g82
g63
NtRp1278
(dp1279
g66
(dp1280
g93
g94
ssg75
g1269
sg68
(lp1281
S':'
asbag61
(g82
g63
NtRp1282
(dp1283
g66
(dp1284
sg75
g1269
sg68
(lp1285
g61
(g62
g63
NtRp1286
(dp1287
g66
(dp1288
g74
I4
ssg75
g1282
sg68
(lp1289
S'True'
p1290
asbasbasbag61
(g77
g63
NtRp1291
(dp1292
g66
(dp1293
sg75
g435
sg68
(lp1294
g61
(g82
g63
NtRp1295
(dp1296
g66
(dp1297
g86
g87
ssg75
g1291
sg68
(lp1298
S'wsgi_run_once'
p1299
asbag61
(g82
g63
NtRp1300
(dp1301
g66
(dp1302
g93
g94
ssg75
g1291
sg68
(lp1303
S':'
asbag61
(g82
g63
NtRp1304
(dp1305
g66
(dp1306
sg75
g1291
sg68
(lp1307
g61
(g62
g63
NtRp1308
(dp1309
g66
(dp1310
g74
I4
ssg75
g1304
sg68
(lp1311
g104
asbasbasbag61
(g77
g63
NtRp1312
(dp1313
g66
(dp1314
sg75
g435
sg68
(lp1315
g61
(g82
g63
NtRp1316
(dp1317
g66
(dp1318
g86
g87
ssg75
g1312
sg68
(lp1319
S'wsgi_url_scheme'
p1320
asbag61
(g82
g63
NtRp1321
(dp1322
g66
(dp1323
g93
g94
ssg75
g1312
sg68
(lp1324
S':'
asbag61
(g82
g63
NtRp1325
(dp1326
g66
(dp1327
sg75
g1312
sg68
(lp1328
g61
(g62
g63
NtRp1329
(dp1330
g66
(dp1331
g74
I4
ssg75
g1325
sg68
(lp1332
S'http'
p1333
asbasbasbag61
(g77
g63
NtRp1334
(dp1335
g66
(dp1336
sg75
g435
sg68
(lp1337
g61
(g82
g63
NtRp1338
(dp1339
g66
(dp1340
g86
g87
ssg75
g1334
sg68
(lp1341
S'wsgi_version'
p1342
asbag61
(g82
g63
NtRp1343
(dp1344
g66
(dp1345
g93
g94
ssg75
g1334
sg68
(lp1346
S':'
asbag61
(g82
g63
NtRp1347
(dp1348
g66
(dp1349
sg75
g1334
sg68
(lp1350
g61
(g62
g63
NtRp1351
(dp1352
g66
(dp1353
g74
I4
ssg75
g1347
sg68
(lp1354
g61
(g70
g63
NtRp1355
(dp1356
g66
(dp1357
g74
I3
ssg75
Nsg68
(lp1358
g61
(g77
g63
NtRp1359
(dp1360
g66
(dp1361
sg75
g1355
sg68
(lp1362
g61
(g82
g63
NtRp1363
(dp1364
g66
(dp1365
sg75
g1359
sg68
(lp1366
g61
(g62
g63
NtRp1367
(dp1368
g66
(dp1369
g74
I3
ssg75
g1363
sg68
(lp1370
S'1'
asbasbasbag61
(g77
g63
NtRp1371
(dp1372
g66
(dp1373
sg75
g1355
sg68
(lp1374
g61
(g82
g63
NtRp1375
(dp1376
g66
(dp1377
sg75
g1371
sg68
(lp1378
g61
(g62
g63
NtRp1379
(dp1380
g66
(dp1381
g74
I3
ssg75
g1375
sg68
(lp1382
S'0'
asbasbasbasbasbasbasbasbasbasbasbag61
(g77
g63
NtRp1383
(dp1384
g66
(dp1385
sg75
g71
sg68
(lp1386
g61
(g82
g63
NtRp1387
(dp1388
g66
(dp1389
g86
g87
ssg75
g1383
sg68
(lp1390
S'extension'
p1391
asbag61
(g82
g63
NtRp1392
(dp1393
g66
(dp1394
g93
g94
ssg75
g1383
sg68
(lp1395
S':'
asbag61
(g82
g63
NtRp1396
(dp1397
g66
(dp1398
sg75
g1383
sg68
(lp1399
g61
(g62
g63
NtRp1400
(dp1401
g66
(dp1402
g74
I5
ssg75
g1396
sg68
(lp1403
S'html'
p1404
asbasbasbag61
(g77
g63
NtRp1405
(dp1406
g66
(dp1407
sg75
g71
sg68
(lp1408
g61
(g82
g63
NtRp1409
(dp1410
g66
(dp1411
g86
g87
ssg75
g1405
sg68
(lp1412
S'folder'
p1413
asbag61
(g82
g63
NtRp1414
(dp1415
g66
(dp1416
g93
g94
ssg75
g1405
sg68
(lp1417
S':'
asbag61
(g82
g63
NtRp1418
(dp1419
g66
(dp1420
sg75
g1405
sg68
(lp1421
g61
(g62
g63
NtRp1422
(dp1423
g66
(dp1424
g74
I5
ssg75
g1418
sg68
(lp1425
S'C:\\web2py\\applications\\unioeste_code\\'
p1426
asbasbasbag61
(g77
g63
NtRp1427
(dp1428
g66
(dp1429
sg75
g71
sg68
(lp1430
g61
(g82
g63
NtRp1431
(dp1432
g66
(dp1433
g86
g87
ssg75
g1427
sg68
(lp1434
S'function'
p1435
asbag61
(g82
g63
NtRp1436
(dp1437
g66
(dp1438
g93
g94
ssg75
g1427
sg68
(lp1439
S':'
asbag61
(g82
g63
NtRp1440
(dp1441
g66
(dp1442
sg75
g1427
sg68
(lp1443
g61
(g62
g63
NtRp1444
(dp1445
g66
(dp1446
g74
I5
ssg75
g1440
sg68
(lp1447
S'index'
p1448
asbasbasbag61
(g77
g63
NtRp1449
(dp1450
g66
(dp1451
sg75
g71
sg68
(lp1452
g61
(g82
g63
NtRp1453
(dp1454
g66
(dp1455
g86
g87
ssg75
g1449
sg68
(lp1456
S'get_vars'
p1457
asbag61
(g82
g63
NtRp1458
(dp1459
g66
(dp1460
g93
g94
ssg75
g1449
sg68
(lp1461
S':'
asbag61
(g82
g63
NtRp1462
(dp1463
g66
(dp1464
sg75
g1449
sg68
(lp1465
g61
(g62
g63
NtRp1466
(dp1467
g66
(dp1468
g74
I5
ssg75
g1462
sg68
(lp1469
g61
(g70
g63
NtRp1470
(dp1471
g66
(dp1472
g74
I4
ssg75
Nsg68
(lp1473
sbasbasbasbag61
(g77
g63
NtRp1474
(dp1475
g66
(dp1476
sg75
g71
sg68
(lp1477
g61
(g82
g63
NtRp1478
(dp1479
g66
(dp1480
g86
g87
ssg75
g1474
sg68
(lp1481
S'global_settings'
p1482
asbag61
(g82
g63
NtRp1483
(dp1484
g66
(dp1485
g93
g94
ssg75
g1474
sg68
(lp1486
S':'
asbag61
(g82
g63
NtRp1487
(dp1488
g66
(dp1489
sg75
g1474
sg68
(lp1490
g61
(g62
g63
NtRp1491
(dp1492
g66
(dp1493
g74
I5
ssg75
g1487
sg68
(lp1494
g61
(g70
g63
NtRp1495
(dp1496
g66
(dp1497
g74
I4
ssg75
Nsg68
(lp1498
g61
(g77
g63
NtRp1499
(dp1500
g66
(dp1501
sg75
g1495
sg68
(lp1502
g61
(g82
g63
NtRp1503
(dp1504
g66
(dp1505
g86
g87
ssg75
g1499
sg68
(lp1506
g447
asbag61
(g82
g63
NtRp1507
(dp1508
g66
(dp1509
g93
g94
ssg75
g1499
sg68
(lp1510
S':'
asbag61
(g82
g63
NtRp1511
(dp1512
g66
(dp1513
sg75
g1499
sg68
(lp1514
g61
(g62
g63
NtRp1515
(dp1516
g66
(dp1517
g74
I4
ssg75
g1511
sg68
(lp1518
S"set(['C:\\\\web2py\\\\applications\\\\welcome\\\\', 'C:\\\\web2py\\\\applications\\\\unioeste_code\\\\'])"
p1519
asbasbasbag61
(g77
g63
NtRp1520
(dp1521
g66
(dp1522
sg75
g1495
sg68
(lp1523
g61
(g82
g63
NtRp1524
(dp1525
g66
(dp1526
g86
g87
ssg75
g1520
sg68
(lp1527
g469
asbag61
(g82
g63
NtRp1528
(dp1529
g66
(dp1530
g93
g94
ssg75
g1520
sg68
(lp1531
S':'
asbag61
(g82
g63
NtRp1532
(dp1533
g66
(dp1534
sg75
g1520
sg68
(lp1535
g61
(g62
g63
NtRp1536
(dp1537
g66
(dp1538
g74
I4
ssg75
g1532
sg68
(lp1539
g482
asbasbasbag61
(g77
g63
NtRp1540
(dp1541
g66
(dp1542
sg75
g1495
sg68
(lp1543
g61
(g82
g63
NtRp1544
(dp1545
g66
(dp1546
g86
g87
ssg75
g1540
sg68
(lp1547
g491
asbag61
(g82
g63
NtRp1548
(dp1549
g66
(dp1550
g93
g94
ssg75
g1540
sg68
(lp1551
S':'
asbag61
(g82
g63
NtRp1552
(dp1553
g66
(dp1554
sg75
g1540
sg68
(lp1555
g61
(g62
g63
NtRp1556
(dp1557
g66
(dp1558
g74
I4
ssg75
g1552
sg68
(lp1559
g61
(g70
g63
NtRp1560
(dp1561
g66
(dp1562
g74
I3
ssg75
Nsg68
(lp1563
sbasbasbasbag61
(g77
g63
NtRp1564
(dp1565
g66
(dp1566
sg75
g1495
sg68
(lp1567
g61
(g82
g63
NtRp1568
(dp1569
g66
(dp1570
g86
g87
ssg75
g1564
sg68
(lp1571
g516
asbag61
(g82
g63
NtRp1572
(dp1573
g66
(dp1574
g93
g94
ssg75
g1564
sg68
(lp1575
S':'
asbag61
(g82
g63
NtRp1576
(dp1577
g66
(dp1578
sg75
g1564
sg68
(lp1579
g61
(g62
g63
NtRp1580
(dp1581
g66
(dp1582
g74
I4
ssg75
g1576
sg68
(lp1583
S"<Values at 0x309c300: {'verbose': False, 'ip': '127.0.0.1', 'shutdown_timeout': 5, 'taskbar': False, 'nocron': False, 'pid_filename': 'httpserver.pid', 'maxthreads': None, 'softcron': False, 'server_name': 'Pedro-PC', 'bpython': False, 'nogui': False, 'port': 8000, 'extcron': False, 'debuglevel': 30, 'test': None, 'folder': 'C:\\\\web2py', 'config': '', 'import_models': False, 'winservice': '', 'shell': None, 'run': '', 'log_filename': 'httpserver.log', 'args': [''], 'socket_timeout': 5, 'ssl_ca_certificate': None, 'scheduler': None, 'profiler_filename': None, 'ssl_private_key': '', 'password': '<ask>', 'request_queue_size': 5, 'ssl_certificate': '', 'cronjob': False, 'numthreads': None, 'quiet': False, 'interfaces': None, 'minthreads': None, 'timeout': 10, 'plain': False, 'nobanner': False}>"
p1584
asbasbasbag61
(g77
g63
NtRp1585
(dp1586
g66
(dp1587
sg75
g1495
sg68
(lp1588
g61
(g82
g63
NtRp1589
(dp1590
g66
(dp1591
g86
g87
ssg75
g1585
sg68
(lp1592
g538
asbag61
(g82
g63
NtRp1593
(dp1594
g66
(dp1595
g93
g94
ssg75
g1585
sg68
(lp1596
S':'
asbag61
(g82
g63
NtRp1597
(dp1598
g66
(dp1599
sg75
g1585
sg68
(lp1600
g61
(g62
g63
NtRp1601
(dp1602
g66
(dp1603
g74
I4
ssg75
g1597
sg68
(lp1604
S'set([])'
p1605
asbasbasbag61
(g77
g63
NtRp1606
(dp1607
g66
(dp1608
sg75
g1495
sg68
(lp1609
g61
(g82
g63
NtRp1610
(dp1611
g66
(dp1612
g86
g87
ssg75
g1606
sg68
(lp1613
g560
asbag61
(g82
g63
NtRp1614
(dp1615
g66
(dp1616
g93
g94
ssg75
g1606
sg68
(lp1617
S':'
asbag61
(g82
g63
NtRp1618
(dp1619
g66
(dp1620
sg75
g1606
sg68
(lp1621
g61
(g62
g63
NtRp1622
(dp1623
g66
(dp1624
g74
I4
ssg75
g1618
sg68
(lp1625
g104
asbasbasbag61
(g77
g63
NtRp1626
(dp1627
g66
(dp1628
sg75
g1495
sg68
(lp1629
g61
(g82
g63
NtRp1630
(dp1631
g66
(dp1632
g86
g87
ssg75
g1626
sg68
(lp1633
g581
asbag61
(g82
g63
NtRp1634
(dp1635
g66
(dp1636
g93
g94
ssg75
g1626
sg68
(lp1637
S':'
asbag61
(g82
g63
NtRp1638
(dp1639
g66
(dp1640
sg75
g1626
sg68
(lp1641
g61
(g62
g63
NtRp1642
(dp1643
g66
(dp1644
g74
I4
ssg75
g1638
sg68
(lp1645
g594
asbasbasbag61
(g77
g63
NtRp1646
(dp1647
g66
(dp1648
sg75
g1495
sg68
(lp1649
g61
(g82
g63
NtRp1650
(dp1651
g66
(dp1652
g86
g87
ssg75
g1646
sg68
(lp1653
g800
asbag61
(g82
g63
NtRp1654
(dp1655
g66
(dp1656
g93
g94
ssg75
g1646
sg68
(lp1657
S':'
asbag61
(g82
g63
NtRp1658
(dp1659
g66
(dp1660
sg75
g1646
sg68
(lp1661
g61
(g62
g63
NtRp1662
(dp1663
g66
(dp1664
g74
I4
ssg75
g1658
sg68
(lp1665
g104
asbasbasbag61
(g77
g63
NtRp1666
(dp1667
g66
(dp1668
sg75
g1495
sg68
(lp1669
g61
(g82
g63
NtRp1670
(dp1671
g66
(dp1672
g86
g87
ssg75
g1666
sg68
(lp1673
g821
asbag61
(g82
g63
NtRp1674
(dp1675
g66
(dp1676
g93
g94
ssg75
g1666
sg68
(lp1677
S':'
asbag61
(g82
g63
NtRp1678
(dp1679
g66
(dp1680
sg75
g1666
sg68
(lp1681
g61
(g62
g63
NtRp1682
(dp1683
g66
(dp1684
g74
I4
ssg75
g1678
sg68
(lp1685
g104
asbasbasbag61
(g77
g63
NtRp1686
(dp1687
g66
(dp1688
sg75
g1495
sg68
(lp1689
g61
(g82
g63
NtRp1690
(dp1691
g66
(dp1692
g86
g87
ssg75
g1686
sg68
(lp1693
g1059
asbag61
(g82
g63
NtRp1694
(dp1695
g66
(dp1696
g93
g94
ssg75
g1686
sg68
(lp1697
S':'
asbag61
(g82
g63
NtRp1698
(dp1699
g66
(dp1700
sg75
g1686
sg68
(lp1701
g61
(g62
g63
NtRp1702
(dp1703
g66
(dp1704
g74
I4
ssg75
g1698
sg68
(lp1705
g1072
asbasbasbag61
(g77
g63
NtRp1706
(dp1707
g66
(dp1708
sg75
g1495
sg68
(lp1709
g61
(g82
g63
NtRp1710
(dp1711
g66
(dp1712
g86
g87
ssg75
g1706
sg68
(lp1713
g1102
asbag61
(g82
g63
NtRp1714
(dp1715
g66
(dp1716
g93
g94
ssg75
g1706
sg68
(lp1717
S':'
asbag61
(g82
g63
NtRp1718
(dp1719
g66
(dp1720
sg75
g1706
sg68
(lp1721
g61
(g62
g63
NtRp1722
(dp1723
g66
(dp1724
g74
I4
ssg75
g1718
sg68
(lp1725
g61
(g70
g63
NtRp1726
(dp1727
g66
(dp1728
g74
I3
ssg75
Nsg68
(lp1729
g61
(g77
g63
NtRp1730
(dp1731
g66
(dp1732
sg75
g1726
sg68
(lp1733
g61
(g82
g63
NtRp1734
(dp1735
g66
(dp1736
sg75
g1730
sg68
(lp1737
g61
(g62
g63
NtRp1738
(dp1739
g66
(dp1740
g74
I3
ssg75
g1734
sg68
(lp1741
S'1'
asbasbasbag61
(g77
g63
NtRp1742
(dp1743
g66
(dp1744
sg75
g1726
sg68
(lp1745
g61
(g82
g63
NtRp1746
(dp1747
g66
(dp1748
sg75
g1742
sg68
(lp1749
g61
(g62
g63
NtRp1750
(dp1751
g66
(dp1752
g74
I3
ssg75
g1746
sg68
(lp1753
S'99'
p1754
asbasbasbag61
(g77
g63
NtRp1755
(dp1756
g66
(dp1757
sg75
g1726
sg68
(lp1758
g61
(g82
g63
NtRp1759
(dp1760
g66
(dp1761
sg75
g1755
sg68
(lp1762
g61
(g62
g63
NtRp1763
(dp1764
g66
(dp1765
g74
I3
ssg75
g1759
sg68
(lp1766
S'7'
asbasbasbag61
(g77
g63
NtRp1767
(dp1768
g66
(dp1769
sg75
g1726
sg68
(lp1770
g61
(g82
g63
NtRp1771
(dp1772
g66
(dp1773
sg75
g1767
sg68
(lp1774
g61
(g62
g63
NtRp1775
(dp1776
g66
(dp1777
g74
I3
ssg75
g1771
sg68
(lp1778
S'datetime.datetime(2012, 3, 4, 22, 12, 8)'
p1779
asbasbasbag61
(g77
g63
NtRp1780
(dp1781
g66
(dp1782
sg75
g1726
sg68
(lp1783
g61
(g82
g63
NtRp1784
(dp1785
g66
(dp1786
sg75
g1780
sg68
(lp1787
g61
(g62
g63
NtRp1788
(dp1789
g66
(dp1790
g74
I3
ssg75
g1784
sg68
(lp1791
g1181
asbasbasbasbasbasbasbasbasbasbasbag61
(g77
g63
NtRp1792
(dp1793
g66
(dp1794
sg75
g71
sg68
(lp1795
g61
(g82
g63
NtRp1796
(dp1797
g66
(dp1798
g86
g87
ssg75
g1792
sg68
(lp1799
S'is_https'
p1800
asbag61
(g82
g63
NtRp1801
(dp1802
g66
(dp1803
g93
g94
ssg75
g1792
sg68
(lp1804
S':'
asbag61
(g82
g63
NtRp1805
(dp1806
g66
(dp1807
sg75
g1792
sg68
(lp1808
g61
(g62
g63
NtRp1809
(dp1810
g66
(dp1811
g74
I5
ssg75
g1805
sg68
(lp1812
g104
asbasbasbag61
(g77
g63
NtRp1813
(dp1814
g66
(dp1815
sg75
g71
sg68
(lp1816
g61
(g82
g63
NtRp1817
(dp1818
g66
(dp1819
g86
g87
ssg75
g1813
sg68
(lp1820
S'is_local'
p1821
asbag61
(g82
g63
NtRp1822
(dp1823
g66
(dp1824
g93
g94
ssg75
g1813
sg68
(lp1825
S':'
asbag61
(g82
g63
NtRp1826
(dp1827
g66
(dp1828
sg75
g1813
sg68
(lp1829
g61
(g62
g63
NtRp1830
(dp1831
g66
(dp1832
g74
I5
ssg75
g1826
sg68
(lp1833
g1290
asbasbasbag61
(g77
g63
NtRp1834
(dp1835
g66
(dp1836
sg75
g71
sg68
(lp1837
g61
(g82
g63
NtRp1838
(dp1839
g66
(dp1840
g86
g87
ssg75
g1834
sg68
(lp1841
S'is_restful'
p1842
asbag61
(g82
g63
NtRp1843
(dp1844
g66
(dp1845
g93
g94
ssg75
g1834
sg68
(lp1846
S':'
asbag61
(g82
g63
NtRp1847
(dp1848
g66
(dp1849
sg75
g1834
sg68
(lp1850
g61
(g62
g63
NtRp1851
(dp1852
g66
(dp1853
g74
I5
ssg75
g1847
sg68
(lp1854
g104
asbasbasbag61
(g77
g63
NtRp1855
(dp1856
g66
(dp1857
sg75
g71
sg68
(lp1858
g61
(g82
g63
NtRp1859
(dp1860
g66
(dp1861
g86
g87
ssg75
g1855
sg68
(lp1862
S'now'
p1863
asbag61
(g82
g63
NtRp1864
(dp1865
g66
(dp1866
g93
g94
ssg75
g1855
sg68
(lp1867
S':'
asbag61
(g82
g63
NtRp1868
(dp1869
g66
(dp1870
sg75
g1855
sg68
(lp1871
g61
(g62
g63
NtRp1872
(dp1873
g66
(dp1874
g74
I5
ssg75
g1868
sg68
(lp1875
S'datetime.datetime(2012, 7, 29, 22, 10, 38, 738000)'
p1876
asbasbasbag61
(g77
g63
NtRp1877
(dp1878
g66
(dp1879
sg75
g71
sg68
(lp1880
g61
(g82
g63
NtRp1881
(dp1882
g66
(dp1883
g86
g87
ssg75
g1877
sg68
(lp1884
S'post_vars'
p1885
asbag61
(g82
g63
NtRp1886
(dp1887
g66
(dp1888
g93
g94
ssg75
g1877
sg68
(lp1889
S':'
asbag61
(g82
g63
NtRp1890
(dp1891
g66
(dp1892
sg75
g1877
sg68
(lp1893
g61
(g62
g63
NtRp1894
(dp1895
g66
(dp1896
g74
I5
ssg75
g1890
sg68
(lp1897
g61
(g70
g63
NtRp1898
(dp1899
g66
(dp1900
g74
I4
ssg75
Nsg68
(lp1901
sbasbasbasbag61
(g77
g63
NtRp1902
(dp1903
g66
(dp1904
sg75
g71
sg68
(lp1905
g61
(g82
g63
NtRp1906
(dp1907
g66
(dp1908
g86
g87
ssg75
g1902
sg68
(lp1909
S'url'
p1910
asbag61
(g82
g63
NtRp1911
(dp1912
g66
(dp1913
g93
g94
ssg75
g1902
sg68
(lp1914
S':'
asbag61
(g82
g63
NtRp1915
(dp1916
g66
(dp1917
sg75
g1902
sg68
(lp1918
g61
(g62
g63
NtRp1919
(dp1920
g66
(dp1921
g74
I5
ssg75
g1915
sg68
(lp1922
S'/unioeste_code/default/index'
p1923
asbasbasbag61
(g77
g63
NtRp1924
(dp1925
g66
(dp1926
sg75
g71
sg68
(lp1927
g61
(g82
g63
NtRp1928
(dp1929
g66
(dp1930
g86
g87
ssg75
g1924
sg68
(lp1931
S'utcnow'
p1932
asbag61
(g82
g63
NtRp1933
(dp1934
g66
(dp1935
g93
g94
ssg75
g1924
sg68
(lp1936
S':'
asbag61
(g82
g63
NtRp1937
(dp1938
g66
(dp1939
sg75
g1924
sg68
(lp1940
g61
(g62
g63
NtRp1941
(dp1942
g66
(dp1943
g74
I5
ssg75
g1937
sg68
(lp1944
S'datetime.datetime(2012, 7, 30, 1, 10, 38, 738000)'
p1945
asbasbasbag61
(g77
g63
NtRp1946
(dp1947
g66
(dp1948
sg75
g71
sg68
(lp1949
g61
(g82
g63
NtRp1950
(dp1951
g66
(dp1952
g86
g87
ssg75
g1946
sg68
(lp1953
S'uuid'
p1954
asbag61
(g82
g63
NtRp1955
(dp1956
g66
(dp1957
g93
g94
ssg75
g1946
sg68
(lp1958
S':'
asbag61
(g82
g63
NtRp1959
(dp1960
g66
(dp1961
sg75
g1946
sg68
(lp1962
g61
(g62
g63
NtRp1963
(dp1964
g66
(dp1965
g74
I5
ssg75
g1959
sg68
(lp1966
S'unioeste_code/127.0.0.1.2012-07-29.22-10-38.a4c0ae25-b166-4054-9b4f-77f63f726c24'
p1967
asbasbasbag61
(g77
g63
NtRp1968
(dp1969
g66
(dp1970
sg75
g71
sg68
(lp1971
g61
(g82
g63
NtRp1972
(dp1973
g66
(dp1974
g86
g87
ssg75
g1968
sg68
(lp1975
S'vars'
p1976
asbag61
(g82
g63
NtRp1977
(dp1978
g66
(dp1979
g93
g94
ssg75
g1968
sg68
(lp1980
S':'
asbag61
(g82
g63
NtRp1981
(dp1982
g66
(dp1983
sg75
g1968
sg68
(lp1984
g61
(g62
g63
NtRp1985
(dp1986
g66
(dp1987
g74
I5
ssg75
g1981
sg68
(lp1988
g61
(g70
g63
NtRp1989
(dp1990
g66
(dp1991
g74
I4
ssg75
Nsg68
(lp1992
sbasbasbasbag61
(g77
g63
NtRp1993
(dp1994
g66
(dp1995
sg75
g71
sg68
(lp1996
g61
(g82
g63
NtRp1997
(dp1998
g66
(dp1999
g86
g87
ssg75
g1993
sg68
(lp2000
S'wsgi'
p2001
asbag61
(g82
g63
NtRp2002
(dp2003
g66
(dp2004
g93
g94
ssg75
g1993
sg68
(lp2005
S':'
asbag61
(g82
g63
NtRp2006
(dp2007
g66
(dp2008
sg75
g1993
sg68
(lp2009
g61
(g62
g63
NtRp2010
(dp2011
g66
(dp2012
g74
I5
ssg75
g2006
sg68
(lp2013
g61
(g70
g63
NtRp2014
(dp2015
g66
(dp2016
g74
I4
ssg75
Nsg68
(lp2017
g61
(g77
g63
NtRp2018
(dp2019
g66
(dp2020
sg75
g2014
sg68
(lp2021
g61
(g82
g63
NtRp2022
(dp2023
g66
(dp2024
g86
g87
ssg75
g2018
sg68
(lp2025
S'environ'
p2026
asbag61
(g82
g63
NtRp2027
(dp2028
g66
(dp2029
g93
g94
ssg75
g2018
sg68
(lp2030
S':'
asbag61
(g82
g63
NtRp2031
(dp2032
g66
(dp2033
sg75
g2018
sg68
(lp2034
g61
(g62
g63
NtRp2035
(dp2036
g66
(dp2037
g74
I4
ssg75
g2031
sg68
(lp2038
g61
(g70
g63
NtRp2039
(dp2040
g66
(dp2041
g74
I3
ssg75
Nsg68
(lp2042
g61
(g77
g63
NtRp2043
(dp2044
g66
(dp2045
sg75
g2039
sg68
(lp2046
g61
(g82
g63
NtRp2047
(dp2048
g66
(dp2049
g86
g87
ssg75
g2043
sg68
(lp2050
S'HTTP_ACCEPT'
p2051
asbag61
(g82
g63
NtRp2052
(dp2053
g66
(dp2054
g93
g94
ssg75
g2043
sg68
(lp2055
S':'
asbag61
(g82
g63
NtRp2056
(dp2057
g66
(dp2058
sg75
g2043
sg68
(lp2059
g61
(g62
g63
NtRp2060
(dp2061
g66
(dp2062
g74
I3
ssg75
g2056
sg68
(lp2063
g616
asbasbasbag61
(g77
g63
NtRp2064
(dp2065
g66
(dp2066
sg75
g2039
sg68
(lp2067
g61
(g82
g63
NtRp2068
(dp2069
g66
(dp2070
g86
g87
ssg75
g2064
sg68
(lp2071
S'HTTP_ACCEPT_CHARSET'
p2072
asbag61
(g82
g63
NtRp2073
(dp2074
g66
(dp2075
g93
g94
ssg75
g2064
sg68
(lp2076
S':'
asbag61
(g82
g63
NtRp2077
(dp2078
g66
(dp2079
sg75
g2064
sg68
(lp2080
g61
(g62
g63
NtRp2081
(dp2082
g66
(dp2083
g74
I3
ssg75
g2077
sg68
(lp2084
g638
asbasbasbag61
(g77
g63
NtRp2085
(dp2086
g66
(dp2087
sg75
g2039
sg68
(lp2088
g61
(g82
g63
NtRp2089
(dp2090
g66
(dp2091
g86
g87
ssg75
g2085
sg68
(lp2092
S'HTTP_ACCEPT_ENCODING'
p2093
asbag61
(g82
g63
NtRp2094
(dp2095
g66
(dp2096
g93
g94
ssg75
g2085
sg68
(lp2097
S':'
asbag61
(g82
g63
NtRp2098
(dp2099
g66
(dp2100
sg75
g2085
sg68
(lp2101
g61
(g62
g63
NtRp2102
(dp2103
g66
(dp2104
g74
I3
ssg75
g2098
sg68
(lp2105
g660
asbasbasbag61
(g77
g63
NtRp2106
(dp2107
g66
(dp2108
sg75
g2039
sg68
(lp2109
g61
(g82
g63
NtRp2110
(dp2111
g66
(dp2112
g86
g87
ssg75
g2106
sg68
(lp2113
S'HTTP_ACCEPT_LANGUAGE'
p2114
asbag61
(g82
g63
NtRp2115
(dp2116
g66
(dp2117
g93
g94
ssg75
g2106
sg68
(lp2118
S':'
asbag61
(g82
g63
NtRp2119
(dp2120
g66
(dp2121
sg75
g2106
sg68
(lp2122
g61
(g62
g63
NtRp2123
(dp2124
g66
(dp2125
g74
I3
ssg75
g2119
sg68
(lp2126
g682
asbasbasbag61
(g77
g63
NtRp2127
(dp2128
g66
(dp2129
sg75
g2039
sg68
(lp2130
g61
(g82
g63
NtRp2131
(dp2132
g66
(dp2133
g86
g87
ssg75
g2127
sg68
(lp2134
S'HTTP_CONNECTION'
p2135
asbag61
(g82
g63
NtRp2136
(dp2137
g66
(dp2138
g93
g94
ssg75
g2127
sg68
(lp2139
S':'
asbag61
(g82
g63
NtRp2140
(dp2141
g66
(dp2142
sg75
g2127
sg68
(lp2143
g61
(g62
g63
NtRp2144
(dp2145
g66
(dp2146
g74
I3
ssg75
g2140
sg68
(lp2147
g704
asbasbasbag61
(g77
g63
NtRp2148
(dp2149
g66
(dp2150
sg75
g2039
sg68
(lp2151
g61
(g82
g63
NtRp2152
(dp2153
g66
(dp2154
g86
g87
ssg75
g2148
sg68
(lp2155
S'HTTP_COOKIE'
p2156
asbag61
(g82
g63
NtRp2157
(dp2158
g66
(dp2159
g93
g94
ssg75
g2148
sg68
(lp2160
S':'
asbag61
(g82
g63
NtRp2161
(dp2162
g66
(dp2163
sg75
g2148
sg68
(lp2164
g61
(g62
g63
NtRp2165
(dp2166
g66
(dp2167
g74
I3
ssg75
g2161
sg68
(lp2168
g726
asbasbasbag61
(g77
g63
NtRp2169
(dp2170
g66
(dp2171
sg75
g2039
sg68
(lp2172
g61
(g82
g63
NtRp2173
(dp2174
g66
(dp2175
g86
g87
ssg75
g2169
sg68
(lp2176
S'HTTP_DNT'
p2177
asbag61
(g82
g63
NtRp2178
(dp2179
g66
(dp2180
g93
g94
ssg75
g2169
sg68
(lp2181
S':'
asbag61
(g82
g63
NtRp2182
(dp2183
g66
(dp2184
sg75
g2169
sg68
(lp2185
g61
(g62
g63
NtRp2186
(dp2187
g66
(dp2188
g74
I3
ssg75
g2182
sg68
(lp2189
S'1'
asbasbasbag61
(g77
g63
NtRp2190
(dp2191
g66
(dp2192
sg75
g2039
sg68
(lp2193
g61
(g82
g63
NtRp2194
(dp2195
g66
(dp2196
g86
g87
ssg75
g2190
sg68
(lp2197
S'HTTP_HOST'
p2198
asbag61
(g82
g63
NtRp2199
(dp2200
g66
(dp2201
g93
g94
ssg75
g2190
sg68
(lp2202
S':'
asbag61
(g82
g63
NtRp2203
(dp2204
g66
(dp2205
sg75
g2190
sg68
(lp2206
g61
(g62
g63
NtRp2207
(dp2208
g66
(dp2209
g74
I3
ssg75
g2203
sg68
(lp2210
g769
asbasbasbag61
(g77
g63
NtRp2211
(dp2212
g66
(dp2213
sg75
g2039
sg68
(lp2214
g61
(g82
g63
NtRp2215
(dp2216
g66
(dp2217
g86
g87
ssg75
g2211
sg68
(lp2218
S'HTTP_USER_AGENT'
p2219
asbag61
(g82
g63
NtRp2220
(dp2221
g66
(dp2222
g93
g94
ssg75
g2211
sg68
(lp2223
S':'
asbag61
(g82
g63
NtRp2224
(dp2225
g66
(dp2226
sg75
g2211
sg68
(lp2227
g61
(g62
g63
NtRp2228
(dp2229
g66
(dp2230
g74
I3
ssg75
g2224
sg68
(lp2231
g791
asbasbasbag61
(g77
g63
NtRp2232
(dp2233
g66
(dp2234
sg75
g2039
sg68
(lp2235
g61
(g82
g63
NtRp2236
(dp2237
g66
(dp2238
g86
g87
ssg75
g2232
sg68
(lp2239
S'PATH_INFO'
p2240
asbag61
(g82
g63
NtRp2241
(dp2242
g66
(dp2243
g93
g94
ssg75
g2232
sg68
(lp2244
S':'
asbag61
(g82
g63
NtRp2245
(dp2246
g66
(dp2247
sg75
g2232
sg68
(lp2248
g61
(g62
g63
NtRp2249
(dp2250
g66
(dp2251
g74
I3
ssg75
g2245
sg68
(lp2252
g855
asbasbasbag61
(g77
g63
NtRp2253
(dp2254
g66
(dp2255
sg75
g2039
sg68
(lp2256
g61
(g82
g63
NtRp2257
(dp2258
g66
(dp2259
g86
g87
ssg75
g2253
sg68
(lp2260
S'QUERY_STRING'
p2261
asbag61
(g82
g63
NtRp2262
(dp2263
g66
(dp2264
g93
g94
ssg75
g2253
sg68
(lp2265
S':'
asbag61
(g82
g63
NtRp2266
(dp2267
g66
(dp2268
sg75
g2253
sg68
(lp2269
g61
(g62
g63
NtRp2270
(dp2271
g66
(dp2272
g74
I3
ssg75
g2266
sg68
(lp2273
S''
asbasbasbag61
(g77
g63
NtRp2274
(dp2275
g66
(dp2276
sg75
g2039
sg68
(lp2277
g61
(g82
g63
NtRp2278
(dp2279
g66
(dp2280
g86
g87
ssg75
g2274
sg68
(lp2281
S'REMOTE_ADDR'
p2282
asbag61
(g82
g63
NtRp2283
(dp2284
g66
(dp2285
g93
g94
ssg75
g2274
sg68
(lp2286
S':'
asbag61
(g82
g63
NtRp2287
(dp2288
g66
(dp2289
sg75
g2274
sg68
(lp2290
g61
(g62
g63
NtRp2291
(dp2292
g66
(dp2293
g74
I3
ssg75
g2287
sg68
(lp2294
g194
asbasbasbag61
(g77
g63
NtRp2295
(dp2296
g66
(dp2297
sg75
g2039
sg68
(lp2298
g61
(g82
g63
NtRp2299
(dp2300
g66
(dp2301
g86
g87
ssg75
g2295
sg68
(lp2302
S'REMOTE_PORT'
p2303
asbag61
(g82
g63
NtRp2304
(dp2305
g66
(dp2306
g93
g94
ssg75
g2295
sg68
(lp2307
S':'
asbag61
(g82
g63
NtRp2308
(dp2309
g66
(dp2310
sg75
g2295
sg68
(lp2311
g61
(g62
g63
NtRp2312
(dp2313
g66
(dp2314
g74
I3
ssg75
g2308
sg68
(lp2315
g919
asbasbasbag61
(g77
g63
NtRp2316
(dp2317
g66
(dp2318
sg75
g2039
sg68
(lp2319
g61
(g82
g63
NtRp2320
(dp2321
g66
(dp2322
g86
g87
ssg75
g2316
sg68
(lp2323
S'REQUEST_METHOD'
p2324
asbag61
(g82
g63
NtRp2325
(dp2326
g66
(dp2327
g93
g94
ssg75
g2316
sg68
(lp2328
S':'
asbag61
(g82
g63
NtRp2329
(dp2330
g66
(dp2331
sg75
g2316
sg68
(lp2332
g61
(g62
g63
NtRp2333
(dp2334
g66
(dp2335
g74
I3
ssg75
g2329
sg68
(lp2336
g941
asbasbasbag61
(g77
g63
NtRp2337
(dp2338
g66
(dp2339
sg75
g2039
sg68
(lp2340
g61
(g82
g63
NtRp2341
(dp2342
g66
(dp2343
g86
g87
ssg75
g2337
sg68
(lp2344
S'SCRIPT_NAME'
p2345
asbag61
(g82
g63
NtRp2346
(dp2347
g66
(dp2348
g93
g94
ssg75
g2337
sg68
(lp2349
S':'
asbag61
(g82
g63
NtRp2350
(dp2351
g66
(dp2352
sg75
g2337
sg68
(lp2353
g61
(g62
g63
NtRp2354
(dp2355
g66
(dp2356
g74
I3
ssg75
g2350
sg68
(lp2357
S''
asbasbasbag61
(g77
g63
NtRp2358
(dp2359
g66
(dp2360
sg75
g2039
sg68
(lp2361
g61
(g82
g63
NtRp2362
(dp2363
g66
(dp2364
g86
g87
ssg75
g2358
sg68
(lp2365
S'SERVER_NAME'
p2366
asbag61
(g82
g63
NtRp2367
(dp2368
g66
(dp2369
g93
g94
ssg75
g2358
sg68
(lp2370
S':'
asbag61
(g82
g63
NtRp2371
(dp2372
g66
(dp2373
sg75
g2358
sg68
(lp2374
g61
(g62
g63
NtRp2375
(dp2376
g66
(dp2377
g74
I3
ssg75
g2371
sg68
(lp2378
g984
asbasbasbag61
(g77
g63
NtRp2379
(dp2380
g66
(dp2381
sg75
g2039
sg68
(lp2382
g61
(g82
g63
NtRp2383
(dp2384
g66
(dp2385
g86
g87
ssg75
g2379
sg68
(lp2386
S'SERVER_PORT'
p2387
asbag61
(g82
g63
NtRp2388
(dp2389
g66
(dp2390
g93
g94
ssg75
g2379
sg68
(lp2391
S':'
asbag61
(g82
g63
NtRp2392
(dp2393
g66
(dp2394
sg75
g2379
sg68
(lp2395
g61
(g62
g63
NtRp2396
(dp2397
g66
(dp2398
g74
I3
ssg75
g2392
sg68
(lp2399
g1006
asbasbasbag61
(g77
g63
NtRp2400
(dp2401
g66
(dp2402
sg75
g2039
sg68
(lp2403
g61
(g82
g63
NtRp2404
(dp2405
g66
(dp2406
g86
g87
ssg75
g2400
sg68
(lp2407
S'SERVER_PROTOCOL'
p2408
asbag61
(g82
g63
NtRp2409
(dp2410
g66
(dp2411
g93
g94
ssg75
g2400
sg68
(lp2412
S':'
asbag61
(g82
g63
NtRp2413
(dp2414
g66
(dp2415
sg75
g2400
sg68
(lp2416
g61
(g62
g63
NtRp2417
(dp2418
g66
(dp2419
g74
I3
ssg75
g2413
sg68
(lp2420
g1028
asbasbasbag61
(g77
g63
NtRp2421
(dp2422
g66
(dp2423
sg75
g2039
sg68
(lp2424
g61
(g82
g63
NtRp2425
(dp2426
g66
(dp2427
g86
g87
ssg75
g2421
sg68
(lp2428
S'SERVER_SOFTWARE'
p2429
asbag61
(g82
g63
NtRp2430
(dp2431
g66
(dp2432
g93
g94
ssg75
g2421
sg68
(lp2433
S':'
asbag61
(g82
g63
NtRp2434
(dp2435
g66
(dp2436
sg75
g2421
sg68
(lp2437
g61
(g62
g63
NtRp2438
(dp2439
g66
(dp2440
g74
I3
ssg75
g2434
sg68
(lp2441
g1050
asbasbasbag61
(g77
g63
NtRp2442
(dp2443
g66
(dp2444
sg75
g2039
sg68
(lp2445
g61
(g82
g63
NtRp2446
(dp2447
g66
(dp2448
g86
g87
ssg75
g2442
sg68
(lp2449
S'wsgi.errors'
p2450
asbag61
(g82
g63
NtRp2451
(dp2452
g66
(dp2453
g93
g94
ssg75
g2442
sg68
(lp2454
S':'
asbag61
(g82
g63
NtRp2455
(dp2456
g66
(dp2457
sg75
g2442
sg68
(lp2458
g61
(g62
g63
NtRp2459
(dp2460
g66
(dp2461
g74
I3
ssg75
g2455
sg68
(lp2462
S'<__main__.Stderr object at 0x00486670>'
p2463
asbasbasbag61
(g77
g63
NtRp2464
(dp2465
g66
(dp2466
sg75
g2039
sg68
(lp2467
g61
(g82
g63
NtRp2468
(dp2469
g66
(dp2470
g86
g87
ssg75
g2464
sg68
(lp2471
S'wsgi.file_wrapper'
p2472
asbag61
(g82
g63
NtRp2473
(dp2474
g66
(dp2475
g93
g94
ssg75
g2464
sg68
(lp2476
S':'
asbag61
(g82
g63
NtRp2477
(dp2478
g66
(dp2479
sg75
g2464
sg68
(lp2480
g61
(g62
g63
NtRp2481
(dp2482
g66
(dp2483
g74
I3
ssg75
g2477
sg68
(lp2484
S'<class wsgiref.util.FileWrapper at 0x02E8DE10>'
p2485
asbasbasbag61
(g77
g63
NtRp2486
(dp2487
g66
(dp2488
sg75
g2039
sg68
(lp2489
g61
(g82
g63
NtRp2490
(dp2491
g66
(dp2492
g86
g87
ssg75
g2486
sg68
(lp2493
S'wsgi.input'
p2494
asbag61
(g82
g63
NtRp2495
(dp2496
g66
(dp2497
g93
g94
ssg75
g2486
sg68
(lp2498
S':'
asbag61
(g82
g63
NtRp2499
(dp2500
g66
(dp2501
sg75
g2486
sg68
(lp2502
g61
(g62
g63
NtRp2503
(dp2504
g66
(dp2505
g74
I3
ssg75
g2499
sg68
(lp2506
S'<cStringIO.StringO object at 0x06067C80>'
p2507
asbasbasbag61
(g77
g63
NtRp2508
(dp2509
g66
(dp2510
sg75
g2039
sg68
(lp2511
g61
(g82
g63
NtRp2512
(dp2513
g66
(dp2514
g86
g87
ssg75
g2508
sg68
(lp2515
S'wsgi.multiprocess'
p2516
asbag61
(g82
g63
NtRp2517
(dp2518
g66
(dp2519
g93
g94
ssg75
g2508
sg68
(lp2520
S':'
asbag61
(g82
g63
NtRp2521
(dp2522
g66
(dp2523
sg75
g2508
sg68
(lp2524
g61
(g62
g63
NtRp2525
(dp2526
g66
(dp2527
g74
I3
ssg75
g2521
sg68
(lp2528
g104
asbasbasbag61
(g77
g63
NtRp2529
(dp2530
g66
(dp2531
sg75
g2039
sg68
(lp2532
g61
(g82
g63
NtRp2533
(dp2534
g66
(dp2535
g86
g87
ssg75
g2529
sg68
(lp2536
S'wsgi.multithread'
p2537
asbag61
(g82
g63
NtRp2538
(dp2539
g66
(dp2540
g93
g94
ssg75
g2529
sg68
(lp2541
S':'
asbag61
(g82
g63
NtRp2542
(dp2543
g66
(dp2544
sg75
g2529
sg68
(lp2545
g61
(g62
g63
NtRp2546
(dp2547
g66
(dp2548
g74
I3
ssg75
g2542
sg68
(lp2549
g1290
asbasbasbag61
(g77
g63
NtRp2550
(dp2551
g66
(dp2552
sg75
g2039
sg68
(lp2553
g61
(g82
g63
NtRp2554
(dp2555
g66
(dp2556
g86
g87
ssg75
g2550
sg68
(lp2557
S'wsgi.run_once'
p2558
asbag61
(g82
g63
NtRp2559
(dp2560
g66
(dp2561
g93
g94
ssg75
g2550
sg68
(lp2562
S':'
asbag61
(g82
g63
NtRp2563
(dp2564
g66
(dp2565
sg75
g2550
sg68
(lp2566
g61
(g62
g63
NtRp2567
(dp2568
g66
(dp2569
g74
I3
ssg75
g2563
sg68
(lp2570
g104
asbasbasbag61
(g77
g63
NtRp2571
(dp2572
g66
(dp2573
sg75
g2039
sg68
(lp2574
g61
(g82
g63
NtRp2575
(dp2576
g66
(dp2577
g86
g87
ssg75
g2571
sg68
(lp2578
S'wsgi.url_scheme'
p2579
asbag61
(g82
g63
NtRp2580
(dp2581
g66
(dp2582
g93
g94
ssg75
g2571
sg68
(lp2583
S':'
asbag61
(g82
g63
NtRp2584
(dp2585
g66
(dp2586
sg75
g2571
sg68
(lp2587
g61
(g62
g63
NtRp2588
(dp2589
g66
(dp2590
g74
I3
ssg75
g2584
sg68
(lp2591
g1333
asbasbasbag61
(g77
g63
NtRp2592
(dp2593
g66
(dp2594
sg75
g2039
sg68
(lp2595
g61
(g82
g63
NtRp2596
(dp2597
g66
(dp2598
g86
g87
ssg75
g2592
sg68
(lp2599
S'wsgi.version'
p2600
asbag61
(g82
g63
NtRp2601
(dp2602
g66
(dp2603
g93
g94
ssg75
g2592
sg68
(lp2604
S':'
asbag61
(g82
g63
NtRp2605
(dp2606
g66
(dp2607
sg75
g2592
sg68
(lp2608
g61
(g62
g63
NtRp2609
(dp2610
g66
(dp2611
g74
I3
ssg75
g2605
sg68
(lp2612
S'1'
asbasbasbasbasbasbasbasbasbasbasbasbasbsS'frames'
p2613
(lp2614
(dp2615
S'file'
p2616
S'C:\\web2py\\gluon\\restricted.py'
p2617
sS'dump'
p2618
(dp2619
sS'lnum'
p2620
I204
sS'lines'
p2621
(dp2622
sS'call'
p2623
S'(code=r"left_sidebar_enabled,right_sidebar_enabled=False...ponse.write(\'\\n</body>\\n</html>\\n\', escape=False)", environment={\'A\': <class \'gluon.html.A\'>, \'Auth\': <class \'gluon.tools.Auth\'>, \'B\': <class \'gluon.html.B\'>, \'BEAUTIFY\': <class \'gluon.html.BEAUTIFY\'>, \'BODY\': <class \'gluon.html.BODY\'>, \'BR\': <class \'gluon.html.BR\'>, \'BUTTON\': <class \'gluon.html.BUTTON\'>, \'CAT\': <class \'gluon.html.CAT\'>, \'CENTER\': <class \'gluon.html.CENTER\'>, \'CLEANUP\': <class \'gluon.validators.CLEANUP\'>, ...}, layer=r\'C:\\web2py\\applications\\unioeste_code\\views\\default/index.html\')'
p2624
sS'func'
p2625
S'restricted'
p2626
sa(dp2627
g2616
S'C:\\web2py\\gluon\\restricted.py'
p2628
sg2618
(dp2629
sg2620
I189
sg2621
(dp2630
sg2623
S'(code=r"left_sidebar_enabled,right_sidebar_enabled=False...ponse.write(\'\\n</body>\\n</html>\\n\', escape=False)", layer=r\'C:\\web2py\\applications\\unioeste_code\\views\\default/index.html\')'
p2631
sg2625
S'compile2'
p2632
sasS'pyver'
p2633
S'Python 2.5.4: C:\\web2py\\web2py_no_console.exe'
p2634
sS'session'
p2635
g61
(g62
g63
NtRp2636
(dp2637
g66
(dp2638
sg68
(lp2639
g61
(g70
g63
NtRp2640
(dp2641
g66
(dp2642
g74
I5
ssg75
Nsg68
(lp2643
sbasbsS'etype'
p2644
S"<type 'exceptions.SyntaxError'>"
p2645
sS'date'
p2646
S'Sun Jul 29 22:10:38 2012'
p2647
sS'response'
p2648
g61
(g62
g63
NtRp2649
(dp2650
g66
(dp2651
sg68
(lp2652
g61
(g70
g63
NtRp2653
(dp2654
g66
(dp2655
g74
I5
ssg75
Nsg68
(lp2656
g61
(g77
g63
NtRp2657
(dp2658
g66
(dp2659
sg75
g2653
sg68
(lp2660
g61
(g82
g63
NtRp2661
(dp2662
g66
(dp2663
g86
g87
ssg75
g2657
sg68
(lp2664
g159
asbag61
(g82
g63
NtRp2665
(dp2666
g66
(dp2667
g93
g94
ssg75
g2657
sg68
(lp2668
S':'
asbag61
(g82
g63
NtRp2669
(dp2670
g66
(dp2671
sg75
g2657
sg68
(lp2672
g61
(g62
g63
NtRp2673
(dp2674
g66
(dp2675
g74
I5
ssg75
g2669
sg68
(lp2676
S'<cStringIO.StringO object at 0x06067B80>'
p2677
asbasbasbag61
(g77
g63
NtRp2678
(dp2679
g66
(dp2680
sg75
g2653
sg68
(lp2681
g61
(g82
g63
NtRp2682
(dp2683
g66
(dp2684
g86
g87
ssg75
g2678
sg68
(lp2685
g225
asbag61
(g82
g63
NtRp2686
(dp2687
g66
(dp2688
g93
g94
ssg75
g2678
sg68
(lp2689
S':'
asbag61
(g82
g63
NtRp2690
(dp2691
g66
(dp2692
sg75
g2678
sg68
(lp2693
g61
(g62
g63
NtRp2694
(dp2695
g66
(dp2696
g74
I5
ssg75
g2690
sg68
(lp2697
g61
(g70
g63
NtRp2698
(dp2699
g66
(dp2700
g74
I4
ssg75
Nsg68
(lp2701
g61
(g77
g63
NtRp2702
(dp2703
g66
(dp2704
sg75
g2698
sg68
(lp2705
g61
(g82
g63
NtRp2706
(dp2707
g66
(dp2708
g86
g87
ssg75
g2702
sg68
(lp2709
S'session_id_unioeste_code'
p2710
asbag61
(g82
g63
NtRp2711
(dp2712
g66
(dp2713
g93
g94
ssg75
g2702
sg68
(lp2714
S':'
asbag61
(g82
g63
NtRp2715
(dp2716
g66
(dp2717
sg75
g2702
sg68
(lp2718
g61
(g62
g63
NtRp2719
(dp2720
g66
(dp2721
g74
I4
ssg75
g2715
sg68
(lp2722
g61
(g70
g63
NtRp2723
(dp2724
g66
(dp2725
g74
I3
ssg75
Nsg68
(lp2726
g61
(g77
g63
NtRp2727
(dp2728
g66
(dp2729
sg75
g2723
sg68
(lp2730
g61
(g82
g63
NtRp2731
(dp2732
g66
(dp2733
g86
g87
ssg75
g2727
sg68
(lp2734
g275
asbag61
(g82
g63
NtRp2735
(dp2736
g66
(dp2737
g93
g94
ssg75
g2727
sg68
(lp2738
S':'
asbag61
(g82
g63
NtRp2739
(dp2740
g66
(dp2741
sg75
g2727
sg68
(lp2742
g61
(g62
g63
NtRp2743
(dp2744
g66
(dp2745
g74
I3
ssg75
g2739
sg68
(lp2746
S''
asbasbasbag61
(g77
g63
NtRp2747
(dp2748
g66
(dp2749
sg75
g2723
sg68
(lp2750
g61
(g82
g63
NtRp2751
(dp2752
g66
(dp2753
g86
g87
ssg75
g2747
sg68
(lp2754
g296
asbag61
(g82
g63
NtRp2755
(dp2756
g66
(dp2757
g93
g94
ssg75
g2747
sg68
(lp2758
S':'
asbag61
(g82
g63
NtRp2759
(dp2760
g66
(dp2761
sg75
g2747
sg68
(lp2762
g61
(g62
g63
NtRp2763
(dp2764
g66
(dp2765
g74
I3
ssg75
g2759
sg68
(lp2766
S''
asbasbasbag61
(g77
g63
NtRp2767
(dp2768
g66
(dp2769
sg75
g2723
sg68
(lp2770
g61
(g82
g63
NtRp2771
(dp2772
g66
(dp2773
g86
g87
ssg75
g2767
sg68
(lp2774
g317
asbag61
(g82
g63
NtRp2775
(dp2776
g66
(dp2777
g93
g94
ssg75
g2767
sg68
(lp2778
S':'
asbag61
(g82
g63
NtRp2779
(dp2780
g66
(dp2781
sg75
g2767
sg68
(lp2782
g61
(g62
g63
NtRp2783
(dp2784
g66
(dp2785
g74
I3
ssg75
g2779
sg68
(lp2786
S''
asbasbasbag61
(g77
g63
NtRp2787
(dp2788
g66
(dp2789
sg75
g2723
sg68
(lp2790
g61
(g82
g63
NtRp2791
(dp2792
g66
(dp2793
g86
g87
ssg75
g2787
sg68
(lp2794
g338
asbag61
(g82
g63
NtRp2795
(dp2796
g66
(dp2797
g93
g94
ssg75
g2787
sg68
(lp2798
S':'
asbag61
(g82
g63
NtRp2799
(dp2800
g66
(dp2801
sg75
g2787
sg68
(lp2802
g61
(g62
g63
NtRp2803
(dp2804
g66
(dp2805
g74
I3
ssg75
g2799
sg68
(lp2806
S''
asbasbasbag61
(g77
g63
NtRp2807
(dp2808
g66
(dp2809
sg75
g2723
sg68
(lp2810
g61
(g82
g63
NtRp2811
(dp2812
g66
(dp2813
g86
g87
ssg75
g2807
sg68
(lp2814
g359
asbag61
(g82
g63
NtRp2815
(dp2816
g66
(dp2817
g93
g94
ssg75
g2807
sg68
(lp2818
S':'
asbag61
(g82
g63
NtRp2819
(dp2820
g66
(dp2821
sg75
g2807
sg68
(lp2822
g61
(g62
g63
NtRp2823
(dp2824
g66
(dp2825
g74
I3
ssg75
g2819
sg68
(lp2826
S'/'
asbasbasbag61
(g77
g63
NtRp2827
(dp2828
g66
(dp2829
sg75
g2723
sg68
(lp2830
g61
(g82
g63
NtRp2831
(dp2832
g66
(dp2833
g86
g87
ssg75
g2827
sg68
(lp2834
g380
asbag61
(g82
g63
NtRp2835
(dp2836
g66
(dp2837
g93
g94
ssg75
g2827
sg68
(lp2838
S':'
asbag61
(g82
g63
NtRp2839
(dp2840
g66
(dp2841
sg75
g2827
sg68
(lp2842
g61
(g62
g63
NtRp2843
(dp2844
g66
(dp2845
g74
I3
ssg75
g2839
sg68
(lp2846
S''
asbasbasbag61
(g77
g63
NtRp2847
(dp2848
g66
(dp2849
sg75
g2723
sg68
(lp2850
g61
(g82
g63
NtRp2851
(dp2852
g66
(dp2853
g86
g87
ssg75
g2847
sg68
(lp2854
g401
asbag61
(g82
g63
NtRp2855
(dp2856
g66
(dp2857
g93
g94
ssg75
g2847
sg68
(lp2858
S':'
asbag61
(g82
g63
NtRp2859
(dp2860
g66
(dp2861
sg75
g2847
sg68
(lp2862
g61
(g62
g63
NtRp2863
(dp2864
g66
(dp2865
g74
I3
ssg75
g2859
sg68
(lp2866
S''
asbasbasbasbasbasbasbasbasbasbasbag61
(g77
g63
NtRp2867
(dp2868
g66
(dp2869
sg75
g2653
sg68
(lp2870
g61
(g82
g63
NtRp2871
(dp2872
g66
(dp2873
g86
g87
ssg75
g2867
sg68
(lp2874
S'delimiters'
p2875
asbag61
(g82
g63
NtRp2876
(dp2877
g66
(dp2878
g93
g94
ssg75
g2867
sg68
(lp2879
S':'
asbag61
(g82
g63
NtRp2880
(dp2881
g66
(dp2882
sg75
g2867
sg68
(lp2883
g61
(g62
g63
NtRp2884
(dp2885
g66
(dp2886
g74
I5
ssg75
g2880
sg68
(lp2887
g61
(g70
g63
NtRp2888
(dp2889
g66
(dp2890
g74
I4
ssg75
Nsg68
(lp2891
g61
(g77
g63
NtRp2892
(dp2893
g66
(dp2894
sg75
g2888
sg68
(lp2895
g61
(g82
g63
NtRp2896
(dp2897
g66
(dp2898
sg75
g2892
sg68
(lp2899
g61
(g62
g63
NtRp2900
(dp2901
g66
(dp2902
g74
I4
ssg75
g2896
sg68
(lp2903
S'{{'
p2904
asbasbasbag61
(g77
g63
NtRp2905
(dp2906
g66
(dp2907
sg75
g2888
sg68
(lp2908
g61
(g82
g63
NtRp2909
(dp2910
g66
(dp2911
sg75
g2905
sg68
(lp2912
g61
(g62
g63
NtRp2913
(dp2914
g66
(dp2915
g74
I4
ssg75
g2909
sg68
(lp2916
S'}}'
p2917
asbasbasbasbasbasbasbag61
(g77
g63
NtRp2918
(dp2919
g66
(dp2920
sg75
g2653
sg68
(lp2921
g61
(g82
g63
NtRp2922
(dp2923
g66
(dp2924
g86
g87
ssg75
g2918
sg68
(lp2925
S'files'
p2926
asbag61
(g82
g63
NtRp2927
(dp2928
g66
(dp2929
g93
g94
ssg75
g2918
sg68
(lp2930
S':'
asbag61
(g82
g63
NtRp2931
(dp2932
g66
(dp2933
sg75
g2918
sg68
(lp2934
g61
(g62
g63
NtRp2935
(dp2936
g66
(dp2937
g74
I5
ssg75
g2931
sg68
(lp2938
g61
(g70
g63
NtRp2939
(dp2940
g66
(dp2941
g74
I4
ssg75
Nsg68
(lp2942
sbasbasbasbag61
(g77
g63
NtRp2943
(dp2944
g66
(dp2945
sg75
g2653
sg68
(lp2946
g61
(g82
g63
NtRp2947
(dp2948
g66
(dp2949
g86
g87
ssg75
g2943
sg68
(lp2950
S'flash'
p2951
asbag61
(g82
g63
NtRp2952
(dp2953
g66
(dp2954
g93
g94
ssg75
g2943
sg68
(lp2955
S':'
asbag61
(g82
g63
NtRp2956
(dp2957
g66
(dp2958
sg75
g2943
sg68
(lp2959
g61
(g62
g63
NtRp2960
(dp2961
g66
(dp2962
g74
I5
ssg75
g2956
sg68
(lp2963
S''
asbasbasbag61
(g77
g63
NtRp2964
(dp2965
g66
(dp2966
sg75
g2653
sg68
(lp2967
g61
(g82
g63
NtRp2968
(dp2969
g66
(dp2970
g86
g87
ssg75
g2964
sg68
(lp2971
S'generic_patterns'
p2972
asbag61
(g82
g63
NtRp2973
(dp2974
g66
(dp2975
g93
g94
ssg75
g2964
sg68
(lp2976
S':'
asbag61
(g82
g63
NtRp2977
(dp2978
g66
(dp2979
sg75
g2964
sg68
(lp2980
g61
(g62
g63
NtRp2981
(dp2982
g66
(dp2983
g74
I5
ssg75
g2977
sg68
(lp2984
g61
(g70
g63
NtRp2985
(dp2986
g66
(dp2987
g74
I4
ssg75
Nsg68
(lp2988
sbasbasbasbag61
(g77
g63
NtRp2989
(dp2990
g66
(dp2991
sg75
g2653
sg68
(lp2992
g61
(g82
g63
NtRp2993
(dp2994
g66
(dp2995
g86
g87
ssg75
g2989
sg68
(lp2996
S'headers'
p2997
asbag61
(g82
g63
NtRp2998
(dp2999
g66
(dp3000
g93
g94
ssg75
g2989
sg68
(lp3001
S':'
asbag61
(g82
g63
NtRp3002
(dp3003
g66
(dp3004
sg75
g2989
sg68
(lp3005
g61
(g62
g63
NtRp3006
(dp3007
g66
(dp3008
g74
I5
ssg75
g3002
sg68
(lp3009
g61
(g70
g63
NtRp3010
(dp3011
g66
(dp3012
g74
I4
ssg75
Nsg68
(lp3013
g61
(g77
g63
NtRp3014
(dp3015
g66
(dp3016
sg75
g3010
sg68
(lp3017
g61
(g82
g63
NtRp3018
(dp3019
g66
(dp3020
g86
g87
ssg75
g3014
sg68
(lp3021
S'Cache-Control'
p3022
asbag61
(g82
g63
NtRp3023
(dp3024
g66
(dp3025
g93
g94
ssg75
g3014
sg68
(lp3026
S':'
asbag61
(g82
g63
NtRp3027
(dp3028
g66
(dp3029
sg75
g3014
sg68
(lp3030
g61
(g62
g63
NtRp3031
(dp3032
g66
(dp3033
g74
I4
ssg75
g3027
sg68
(lp3034
S'no-store, no-cache, must-revalidate, post-check=0, pre-check=0'
p3035
asbasbasbag61
(g77
g63
NtRp3036
(dp3037
g66
(dp3038
sg75
g3010
sg68
(lp3039
g61
(g82
g63
NtRp3040
(dp3041
g66
(dp3042
g86
g87
ssg75
g3036
sg68
(lp3043
S'Content-Type'
p3044
asbag61
(g82
g63
NtRp3045
(dp3046
g66
(dp3047
g93
g94
ssg75
g3036
sg68
(lp3048
S':'
asbag61
(g82
g63
NtRp3049
(dp3050
g66
(dp3051
sg75
g3036
sg68
(lp3052
g61
(g62
g63
NtRp3053
(dp3054
g66
(dp3055
g74
I4
ssg75
g3049
sg68
(lp3056
S'text/html; charset=utf-8'
p3057
asbasbasbag61
(g77
g63
NtRp3058
(dp3059
g66
(dp3060
sg75
g3010
sg68
(lp3061
g61
(g82
g63
NtRp3062
(dp3063
g66
(dp3064
g86
g87
ssg75
g3058
sg68
(lp3065
S'Expires'
p3066
asbag61
(g82
g63
NtRp3067
(dp3068
g66
(dp3069
g93
g94
ssg75
g3058
sg68
(lp3070
S':'
asbag61
(g82
g63
NtRp3071
(dp3072
g66
(dp3073
sg75
g3058
sg68
(lp3074
g61
(g62
g63
NtRp3075
(dp3076
g66
(dp3077
g74
I4
ssg75
g3071
sg68
(lp3078
S'Mon, 30 Jul 2012 01:10:38 GMT'
p3079
asbasbasbag61
(g77
g63
NtRp3080
(dp3081
g66
(dp3082
sg75
g3010
sg68
(lp3083
g61
(g82
g63
NtRp3084
(dp3085
g66
(dp3086
g86
g87
ssg75
g3080
sg68
(lp3087
S'Pragma'
p3088
asbag61
(g82
g63
NtRp3089
(dp3090
g66
(dp3091
g93
g94
ssg75
g3080
sg68
(lp3092
S':'
asbag61
(g82
g63
NtRp3093
(dp3094
g66
(dp3095
sg75
g3080
sg68
(lp3096
g61
(g62
g63
NtRp3097
(dp3098
g66
(dp3099
g74
I4
ssg75
g3093
sg68
(lp3100
S'no-cache'
p3101
asbasbasbag61
(g77
g63
NtRp3102
(dp3103
g66
(dp3104
sg75
g3010
sg68
(lp3105
g61
(g82
g63
NtRp3106
(dp3107
g66
(dp3108
g86
g87
ssg75
g3102
sg68
(lp3109
S'X-Powered-By'
p3110
asbag61
(g82
g63
NtRp3111
(dp3112
g66
(dp3113
g93
g94
ssg75
g3102
sg68
(lp3114
S':'
asbag61
(g82
g63
NtRp3115
(dp3116
g66
(dp3117
sg75
g3102
sg68
(lp3118
g61
(g62
g63
NtRp3119
(dp3120
g66
(dp3121
g74
I4
ssg75
g3115
sg68
(lp3122
S'web2py'
p3123
asbasbasbasbasbasbasbag61
(g77
g63
NtRp3124
(dp3125
g66
(dp3126
sg75
g2653
sg68
(lp3127
g61
(g82
g63
NtRp3128
(dp3129
g66
(dp3130
g86
g87
ssg75
g3124
sg68
(lp3131
S'menu'
p3132
asbag61
(g82
g63
NtRp3133
(dp3134
g66
(dp3135
g93
g94
ssg75
g3124
sg68
(lp3136
S':'
asbag61
(g82
g63
NtRp3137
(dp3138
g66
(dp3139
sg75
g3124
sg68
(lp3140
g61
(g62
g63
NtRp3141
(dp3142
g66
(dp3143
g74
I5
ssg75
g3137
sg68
(lp3144
g61
(g70
g63
NtRp3145
(dp3146
g66
(dp3147
g74
I4
ssg75
Nsg68
(lp3148
g61
(g77
g63
NtRp3149
(dp3150
g66
(dp3151
sg75
g3145
sg68
(lp3152
g61
(g82
g63
NtRp3153
(dp3154
g66
(dp3155
sg75
g3149
sg68
(lp3156
g61
(g62
g63
NtRp3157
(dp3158
g66
(dp3159
g74
I4
ssg75
g3153
sg68
(lp3160
g61
(g70
g63
NtRp3161
(dp3162
g66
(dp3163
g74
I3
ssg75
Nsg68
(lp3164
g61
(g77
g63
NtRp3165
(dp3166
g66
(dp3167
sg75
g3161
sg68
(lp3168
g61
(g82
g63
NtRp3169
(dp3170
g66
(dp3171
sg75
g3165
sg68
(lp3172
g61
(g62
g63
NtRp3173
(dp3174
g66
(dp3175
g74
I3
ssg75
g3169
sg68
(lp3176
cgluon.languages
lazyT_unpickle
p3177
(S't\x04\x00\x00\x00Home'
tRp3178
asbasbasbag61
(g77
g63
NtRp3179
(dp3180
g66
(dp3181
sg75
g3161
sg68
(lp3182
g61
(g82
g63
NtRp3183
(dp3184
g66
(dp3185
sg75
g3179
sg68
(lp3186
g61
(g62
g63
NtRp3187
(dp3188
g66
(dp3189
g74
I3
ssg75
g3183
sg68
(lp3190
g104
asbasbasbag61
(g77
g63
NtRp3191
(dp3192
g66
(dp3193
sg75
g3161
sg68
(lp3194
g61
(g82
g63
NtRp3195
(dp3196
g66
(dp3197
sg75
g3191
sg68
(lp3198
g61
(g62
g63
NtRp3199
(dp3200
g66
(dp3201
g74
I3
ssg75
g3195
sg68
(lp3202
S'/unioeste_code/default/index'
p3203
asbasbasbag61
(g77
g63
NtRp3204
(dp3205
g66
(dp3206
sg75
g3161
sg68
(lp3207
g61
(g82
g63
NtRp3208
(dp3209
g66
(dp3210
sg75
g3204
sg68
(lp3211
g61
(g62
g63
NtRp3212
(dp3213
g66
(dp3214
g74
I3
ssg75
g3208
sg68
(lp3215
g61
(g70
g63
NtRp3216
(dp3217
g66
(dp3218
g74
I2
ssg75
Nsg68
(lp3219
sbasbasbasbasbasbasbasbag61
(g77
g63
NtRp3220
(dp3221
g66
(dp3222
sg75
g3145
sg68
(lp3223
g61
(g82
g63
NtRp3224
(dp3225
g66
(dp3226
sg75
g3220
sg68
(lp3227
g61
(g62
g63
NtRp3228
(dp3229
g66
(dp3230
g74
I4
ssg75
g3224
sg68
(lp3231
g61
(g70
g63
NtRp3232
(dp3233
g66
(dp3234
g74
I3
ssg75
Nsg68
(lp3235
g61
(g77
g63
NtRp3236
(dp3237
g66
(dp3238
sg75
g3232
sg68
(lp3239
g61
(g82
g63
NtRp3240
(dp3241
g66
(dp3242
sg75
g3236
sg68
(lp3243
g61
(g62
g63
NtRp3244
(dp3245
g66
(dp3246
g74
I3
ssg75
g3240
sg68
(lp3247
g61
(cgluon.html
SPAN
p3248
g63
NtRp3249
(dp3250
g66
(dp3251
g86
S'color:yellow'
p3252
ssg75
Nsg68
(lp3253
g3123
asbasbasbasbag61
(g77
g63
NtRp3254
(dp3255
g66
(dp3256
sg75
g3232
sg68
(lp3257
g61
(g82
g63
NtRp3258
(dp3259
g66
(dp3260
sg75
g3254
sg68
(lp3261
g61
(g62
g63
NtRp3262
(dp3263
g66
(dp3264
g74
I3
ssg75
g3258
sg68
(lp3265
g104
asbasbasbag61
(g77
g63
NtRp3266
(dp3267
g66
(dp3268
sg75
g3232
sg68
(lp3269
g61
(g82
g63
NtRp3270
(dp3271
g66
(dp3272
sg75
g3266
sg68
(lp3273
g61
(g62
g63
NtRp3274
(dp3275
g66
(dp3276
g74
I3
ssg75
g3270
sg68
(lp3277
S'None'
p3278
asbasbasbag61
(g77
g63
NtRp3279
(dp3280
g66
(dp3281
sg75
g3232
sg68
(lp3282
g61
(g82
g63
NtRp3283
(dp3284
g66
(dp3285
sg75
g3279
sg68
(lp3286
g61
(g62
g63
NtRp3287
(dp3288
g66
(dp3289
g74
I3
ssg75
g3283
sg68
(lp3290
g61
(g70
g63
NtRp3291
(dp3292
g66
(dp3293
g74
I2
ssg75
Nsg68
(lp3294
g61
(g77
g63
NtRp3295
(dp3296
g66
(dp3297
sg75
g3291
sg68
(lp3298
g61
(g82
g63
NtRp3299
(dp3300
g66
(dp3301
sg75
g3295
sg68
(lp3302
g61
(g62
g63
NtRp3303
(dp3304
g66
(dp3305
g74
I2
ssg75
g3299
sg68
(lp3306
g61
(g70
g63
NtRp3307
(dp3308
g66
(dp3309
g74
I1
ssg75
Nsg68
(lp3310
g61
(g77
g63
NtRp3311
(dp3312
g66
(dp3313
sg75
g3307
sg68
(lp3314
g61
(g82
g63
NtRp3315
(dp3316
g66
(dp3317
sg75
g3311
sg68
(lp3318
g61
(g62
g63
NtRp3319
(dp3320
g66
(dp3321
g74
I1
ssg75
g3315
sg68
(lp3322
g3177
(S's\x08\x00\x00\x00My Sites'
tRp3323
asbasbasbag61
(g77
g63
NtRp3324
(dp3325
g66
(dp3326
sg75
g3307
sg68
(lp3327
g61
(g82
g63
NtRp3328
(dp3329
g66
(dp3330
sg75
g3324
sg68
(lp3331
g61
(g62
g63
NtRp3332
(dp3333
g66
(dp3334
g74
I1
ssg75
g3328
sg68
(lp3335
I00
asbasbasbag61
(g77
g63
NtRp3336
(dp3337
g66
(dp3338
sg75
g3307
sg68
(lp3339
g61
(g82
g63
NtRp3340
(dp3341
g66
(dp3342
sg75
g3336
sg68
(lp3343
g61
(g62
g63
NtRp3344
(dp3345
g66
(dp3346
g74
I1
ssg75
g3340
sg68
(lp3347
S'/admin/default/site'
p3348
asbasbasbasbasbasbasbag61
(g77
g63
NtRp3349
(dp3350
g66
(dp3351
sg75
g3291
sg68
(lp3352
g61
(g82
g63
NtRp3353
(dp3354
g66
(dp3355
sg75
g3349
sg68
(lp3356
g61
(g62
g63
NtRp3357
(dp3358
g66
(dp3359
g74
I2
ssg75
g3353
sg68
(lp3360
g61
(g70
g63
NtRp3361
(dp3362
g66
(dp3363
g74
I1
ssg75
Nsg68
(lp3364
g61
(g77
g63
NtRp3365
(dp3366
g66
(dp3367
sg75
g3361
sg68
(lp3368
g61
(g82
g63
NtRp3369
(dp3370
g66
(dp3371
sg75
g3365
sg68
(lp3372
g61
(g62
g63
NtRp3373
(dp3374
g66
(dp3375
g74
I1
ssg75
g3369
sg68
(lp3376
g3177
(S's\x08\x00\x00\x00This App'
tRp3377
asbasbasbag61
(g77
g63
NtRp3378
(dp3379
g66
(dp3380
sg75
g3361
sg68
(lp3381
g61
(g82
g63
NtRp3382
(dp3383
g66
(dp3384
sg75
g3378
sg68
(lp3385
g61
(g62
g63
NtRp3386
(dp3387
g66
(dp3388
g74
I1
ssg75
g3382
sg68
(lp3389
I00
asbasbasbag61
(g77
g63
NtRp3390
(dp3391
g66
(dp3392
sg75
g3361
sg68
(lp3393
g61
(g82
g63
NtRp3394
(dp3395
g66
(dp3396
sg75
g3390
sg68
(lp3397
g61
(g62
g63
NtRp3398
(dp3399
g66
(dp3400
g74
I1
ssg75
g3394
sg68
(lp3401
S'/admin/default/design/unioeste_code'
p3402
asbasbasbag61
(g77
g63
NtRp3403
(dp3404
g66
(dp3405
sg75
g3361
sg68
(lp3406
g61
(g82
g63
NtRp3407
(dp3408
g66
(dp3409
sg75
g3403
sg68
(lp3410
g61
(g62
g63
NtRp3411
(dp3412
g66
(dp3413
g74
I1
ssg75
g3407
sg68
(lp3414
(lp3415
(g3177
(S't\x0b\x00\x00\x00Controlador'
tRp3416
I00
S'/admin/default/edit/unioeste_code/controllers/default.py'
tp3417
a(g3177
(S's\x0e\x00\x00\x00Visualiza\xc3\xa7\xc3\xa3o'
tRp3418
I00
S'/admin/default/edit/unioeste_code/views/default/index.html'
tp3419
a(g3177
(S't\x06\x00\x00\x00Layout'
tRp3420
I00
S'/admin/default/edit/unioeste_code/views/layout.html'
tp3421
a(g3177
(S't\n\x00\x00\x00Stylesheet'
tRp3422
I00
S'/admin/default/edit/unioeste_code/static/css/web2py.css'
tp3423
a(g3177
(S's\t\x00\x00\x00Modelo BD'
tRp3424
I00
S'/admin/default/edit/unioeste_code/models/db.py'
tp3425
a(g3177
(S's\x0e\x00\x00\x00Modelo de Menu'
tRp3426
I00
S'/admin/default/edit/unioeste_code/models/menu.py'
tp3427
a(g3177
(S's\x0e\x00\x00\x00Banco de dados'
tRp3428
I00
S'/unioeste_code/appadmin/index'
tp3429
a(g3177
(S't\x06\x00\x00\x00Errors'
tRp3430
I00
S'/admin/default/errors/unioeste_code'
tp3431
a(g3177
(S't\x05\x00\x00\x00About'
tRp3432
I00
S'/admin/default/about/unioeste_code'
tp3433
aasbasbasbasbasbasbasbag61
(g77
g63
NtRp3434
(dp3435
g66
(dp3436
sg75
g3291
sg68
(lp3437
g61
(g82
g63
NtRp3438
(dp3439
g66
(dp3440
sg75
g3434
sg68
(lp3441
g61
(g62
g63
NtRp3442
(dp3443
g66
(dp3444
g74
I2
ssg75
g3438
sg68
(lp3445
g61
(g70
g63
NtRp3446
(dp3447
g66
(dp3448
g74
I1
ssg75
Nsg68
(lp3449
g61
(g77
g63
NtRp3450
(dp3451
g66
(dp3452
sg75
g3446
sg68
(lp3453
g61
(g82
g63
NtRp3454
(dp3455
g66
(dp3456
sg75
g3450
sg68
(lp3457
g61
(g62
g63
NtRp3458
(dp3459
g66
(dp3460
g74
I1
ssg75
g3454
sg68
(lp3461
S'web2py.com'
p3462
asbasbasbag61
(g77
g63
NtRp3463
(dp3464
g66
(dp3465
sg75
g3446
sg68
(lp3466
g61
(g82
g63
NtRp3467
(dp3468
g66
(dp3469
sg75
g3463
sg68
(lp3470
g61
(g62
g63
NtRp3471
(dp3472
g66
(dp3473
g74
I1
ssg75
g3467
sg68
(lp3474
I00
asbasbasbag61
(g77
g63
NtRp3475
(dp3476
g66
(dp3477
sg75
g3446
sg68
(lp3478
g61
(g82
g63
NtRp3479
(dp3480
g66
(dp3481
sg75
g3475
sg68
(lp3482
g61
(g62
g63
NtRp3483
(dp3484
g66
(dp3485
g74
I1
ssg75
g3479
sg68
(lp3486
S'http://www.web2py.com'
p3487
asbasbasbag61
(g77
g63
NtRp3488
(dp3489
g66
(dp3490
sg75
g3446
sg68
(lp3491
g61
(g82
g63
NtRp3492
(dp3493
g66
(dp3494
sg75
g3488
sg68
(lp3495
g61
(g62
g63
NtRp3496
(dp3497
g66
(dp3498
g74
I1
ssg75
g3492
sg68
(lp3499
(lp3500
(g3177
(S't\x08\x00\x00\x00Download'
tRp3501
I00
S'http://www.web2py.com/examples/default/download'
p3502
tp3503
a(g3177
(S't\x07\x00\x00\x00Support'
tRp3504
I00
S'http://www.web2py.com/examples/default/support'
p3505
tp3506
a(g3177
(S't\x04\x00\x00\x00Demo'
tRp3507
I00
S'http://web2py.com/demo_admin'
p3508
tp3509
a(g3177
(S's\x0e\x00\x00\x00Quick Examples'
tRp3510
I00
S'http://web2py.com/examples/default/examples'
p3511
tp3512
a(g3177
(S't\x03\x00\x00\x00FAQ'
tRp3513
I00
S'http://web2py.com/AlterEgo'
p3514
tp3515
a(g3177
(S't\x06\x00\x00\x00Videos'
tRp3516
I00
S'http://www.web2py.com/examples/default/videos/'
p3517
tp3518
a(g3177
(S's\x11\x00\x00\x00Free Applications'
tRp3519
I00
S'http://web2py.com/appliances'
p3520
tp3521
a(g3177
(S't\x07\x00\x00\x00Plugins'
tRp3522
I00
S'http://web2py.com/plugins'
p3523
tp3524
a(g3177
(S't\x07\x00\x00\x00Layouts'
tRp3525
I00
S'http://web2py.com/layouts'
p3526
tp3527
a(g3177
(S't\x07\x00\x00\x00Recipes'
tRp3528
I00
S'http://web2pyslices.com/'
p3529
tp3530
a(g3177
(S't\x08\x00\x00\x00Semantic'
tRp3531
I00
S'http://web2py.com/semantic'
p3532
tp3533
aasbasbasbasbasbasbasbag61
(g77
g63
NtRp3534
(dp3535
g66
(dp3536
sg75
g3291
sg68
(lp3537
g61
(g82
g63
NtRp3538
(dp3539
g66
(dp3540
sg75
g3534
sg68
(lp3541
g61
(g62
g63
NtRp3542
(dp3543
g66
(dp3544
g74
I2
ssg75
g3538
sg68
(lp3545
g61
(g70
g63
NtRp3546
(dp3547
g66
(dp3548
g74
I1
ssg75
Nsg68
(lp3549
g61
(g77
g63
NtRp3550
(dp3551
g66
(dp3552
sg75
g3546
sg68
(lp3553
g61
(g82
g63
NtRp3554
(dp3555
g66
(dp3556
sg75
g3550
sg68
(lp3557
g61
(g62
g63
NtRp3558
(dp3559
g66
(dp3560
g74
I1
ssg75
g3554
sg68
(lp3561
g3177
(S't\r\x00\x00\x00Documentation'
tRp3562
asbasbasbag61
(g77
g63
NtRp3563
(dp3564
g66
(dp3565
sg75
g3546
sg68
(lp3566
g61
(g82
g63
NtRp3567
(dp3568
g66
(dp3569
sg75
g3563
sg68
(lp3570
g61
(g62
g63
NtRp3571
(dp3572
g66
(dp3573
g74
I1
ssg75
g3567
sg68
(lp3574
I00
asbasbasbag61
(g77
g63
NtRp3575
(dp3576
g66
(dp3577
sg75
g3546
sg68
(lp3578
g61
(g82
g63
NtRp3579
(dp3580
g66
(dp3581
sg75
g3575
sg68
(lp3582
g61
(g62
g63
NtRp3583
(dp3584
g66
(dp3585
g74
I1
ssg75
g3579
sg68
(lp3586
S'http://www.web2py.com/book'
p3587
asbasbasbag61
(g77
g63
NtRp3588
(dp3589
g66
(dp3590
sg75
g3546
sg68
(lp3591
g61
(g82
g63
NtRp3592
(dp3593
g66
(dp3594
sg75
g3588
sg68
(lp3595
g61
(g62
g63
NtRp3596
(dp3597
g66
(dp3598
g74
I1
ssg75
g3592
sg68
(lp3599
(lp3600
(g3177
(S't\x07\x00\x00\x00Preface'
tRp3601
I00
S'http://www.web2py.com/book/default/chapter/00'
p3602
tp3603
a(g3177
(S't\x0c\x00\x00\x00Introduction'
tRp3604
I00
S'http://www.web2py.com/book/default/chapter/01'
p3605
tp3606
a(g3177
(S't\x06\x00\x00\x00Python'
tRp3607
I00
S'http://www.web2py.com/book/default/chapter/02'
p3608
tp3609
a(g3177
(S't\x08\x00\x00\x00Overview'
tRp3610
I00
S'http://www.web2py.com/book/default/chapter/03'
p3611
tp3612
a(g3177
(S's\x08\x00\x00\x00The Core'
tRp3613
I00
S'http://www.web2py.com/book/default/chapter/04'
p3614
tp3615
a(g3177
(S's\t\x00\x00\x00The Views'
tRp3616
I00
S'http://www.web2py.com/book/default/chapter/05'
p3617
tp3618
a(g3177
(S's\x0e\x00\x00\x00Banco de dados'
tRp3619
I00
S'http://www.web2py.com/book/default/chapter/06'
p3620
tp3621
a(g3177
(S's\x14\x00\x00\x00Forms and Validators'
tRp3622
I00
S'http://www.web2py.com/book/default/chapter/07'
p3623
tp3624
a(g3177
(S's\r\x00\x00\x00Email and SMS'
tRp3625
I00
S'http://www.web2py.com/book/default/chapter/08'
p3626
tp3627
a(g3177
(S's\x0e\x00\x00\x00Access Control'
tRp3628
I00
S'http://www.web2py.com/book/default/chapter/09'
p3629
tp3630
a(g3177
(S't\x08\x00\x00\x00Services'
tRp3631
I00
S'http://www.web2py.com/book/default/chapter/10'
p3632
tp3633
a(g3177
(S's\x0c\x00\x00\x00Ajax Recipes'
tRp3634
I00
S'http://www.web2py.com/book/default/chapter/11'
p3635
tp3636
a(g3177
(S's\x16\x00\x00\x00Components and Plugins'
tRp3637
I00
S'http://www.web2py.com/book/default/chapter/12'
p3638
tp3639
a(g3177
(S's\x12\x00\x00\x00Deployment Recipes'
tRp3640
I00
S'http://www.web2py.com/book/default/chapter/13'
p3641
tp3642
a(g3177
(S's\r\x00\x00\x00Other Recipes'
tRp3643
I00
S'http://www.web2py.com/book/default/chapter/14'
p3644
tp3645
a(g3177
(S's\r\x00\x00\x00Buy this book'
tRp3646
I00
S'http://stores.lulu.com/web2py'
p3647
tp3648
aasbasbasbasbasbasbasbag61
(g77
g63
NtRp3649
(dp3650
g66
(dp3651
sg75
g3291
sg68
(lp3652
g61
(g82
g63
NtRp3653
(dp3654
g66
(dp3655
sg75
g3649
sg68
(lp3656
g61
(g62
g63
NtRp3657
(dp3658
g66
(dp3659
g74
I2
ssg75
g3653
sg68
(lp3660
g61
(g70
g63
NtRp3661
(dp3662
g66
(dp3663
g74
I1
ssg75
Nsg68
(lp3664
g61
(g77
g63
NtRp3665
(dp3666
g66
(dp3667
sg75
g3661
sg68
(lp3668
g61
(g82
g63
NtRp3669
(dp3670
g66
(dp3671
sg75
g3665
sg68
(lp3672
g61
(g62
g63
NtRp3673
(dp3674
g66
(dp3675
g74
I1
ssg75
g3669
sg68
(lp3676
g3177
(S't\t\x00\x00\x00Community'
tRp3677
asbasbasbag61
(g77
g63
NtRp3678
(dp3679
g66
(dp3680
sg75
g3661
sg68
(lp3681
g61
(g82
g63
NtRp3682
(dp3683
g66
(dp3684
sg75
g3678
sg68
(lp3685
g61
(g62
g63
NtRp3686
(dp3687
g66
(dp3688
g74
I1
ssg75
g3682
sg68
(lp3689
I00
asbasbasbag61
(g77
g63
NtRp3690
(dp3691
g66
(dp3692
sg75
g3661
sg68
(lp3693
g61
(g82
g63
NtRp3694
(dp3695
g66
(dp3696
sg75
g3690
sg68
(lp3697
g61
(g62
g63
NtRp3698
(dp3699
g66
(dp3700
g74
I1
ssg75
g3694
sg68
(lp3701
Nasbasbasbag61
(g77
g63
NtRp3702
(dp3703
g66
(dp3704
sg75
g3661
sg68
(lp3705
g61
(g82
g63
NtRp3706
(dp3707
g66
(dp3708
sg75
g3702
sg68
(lp3709
g61
(g62
g63
NtRp3710
(dp3711
g66
(dp3712
g74
I1
ssg75
g3706
sg68
(lp3713
(lp3714
(g3177
(S't\x06\x00\x00\x00Groups'
tRp3715
I00
S'http://www.web2py.com/examples/default/usergroups'
p3716
tp3717
a(g3177
(S't\x07\x00\x00\x00Twitter'
tRp3718
I00
S'http://twitter.com/web2py'
p3719
tp3720
a(g3177
(S's\t\x00\x00\x00Live Chat'
tRp3721
I00
S'http://webchat.freenode.net/?channels=web2py'
p3722
tp3723
aasbasbasbasbasbasbasbag61
(g77
g63
NtRp3724
(dp3725
g66
(dp3726
sg75
g3291
sg68
(lp3727
g61
(g82
g63
NtRp3728
(dp3729
g66
(dp3730
sg75
g3724
sg68
(lp3731
g61
(g62
g63
NtRp3732
(dp3733
g66
(dp3734
g74
I2
ssg75
g3728
sg68
(lp3735
g61
(g70
g63
NtRp3736
(dp3737
g66
(dp3738
g74
I1
ssg75
Nsg68
(lp3739
g61
(g77
g63
NtRp3740
(dp3741
g66
(dp3742
sg75
g3736
sg68
(lp3743
g61
(g82
g63
NtRp3744
(dp3745
g66
(dp3746
sg75
g3740
sg68
(lp3747
g61
(g62
g63
NtRp3748
(dp3749
g66
(dp3750
g74
I1
ssg75
g3744
sg68
(lp3751
g3177
(S't\x07\x00\x00\x00Plugins'
tRp3752
asbasbasbag61
(g77
g63
NtRp3753
(dp3754
g66
(dp3755
sg75
g3736
sg68
(lp3756
g61
(g82
g63
NtRp3757
(dp3758
g66
(dp3759
sg75
g3753
sg68
(lp3760
g61
(g62
g63
NtRp3761
(dp3762
g66
(dp3763
g74
I1
ssg75
g3757
sg68
(lp3764
I00
asbasbasbag61
(g77
g63
NtRp3765
(dp3766
g66
(dp3767
sg75
g3736
sg68
(lp3768
g61
(g82
g63
NtRp3769
(dp3770
g66
(dp3771
sg75
g3765
sg68
(lp3772
g61
(g62
g63
NtRp3773
(dp3774
g66
(dp3775
g74
I1
ssg75
g3769
sg68
(lp3776
Nasbasbasbag61
(g77
g63
NtRp3777
(dp3778
g66
(dp3779
sg75
g3736
sg68
(lp3780
g61
(g82
g63
NtRp3781
(dp3782
g66
(dp3783
sg75
g3777
sg68
(lp3784
g61
(g62
g63
NtRp3785
(dp3786
g66
(dp3787
g74
I1
ssg75
g3781
sg68
(lp3788
(lp3789
(S'plugin_wiki'
p3790
I00
S'http://web2py.com/examples/default/download'
p3791
tp3792
a(g3177
(S's\r\x00\x00\x00Other Plugins'
tRp3793
I00
g3523
tp3794
a(g3177
(S's\x0e\x00\x00\x00Layout Plugins'
tRp3795
I00
g3526
tp3796
aasbasbasbasbasbasbasbasbasbasbasbasbasbasbasbasbasbasbasbag61
(g77
g63
NtRp3797
(dp3798
g66
(dp3799
sg75
g2653
sg68
(lp3800
g61
(g82
g63
NtRp3801
(dp3802
g66
(dp3803
g86
g87
ssg75
g3797
sg68
(lp3804
S'meta'
p3805
asbag61
(g82
g63
NtRp3806
(dp3807
g66
(dp3808
g93
g94
ssg75
g3797
sg68
(lp3809
S':'
asbag61
(g82
g63
NtRp3810
(dp3811
g66
(dp3812
sg75
g3797
sg68
(lp3813
g61
(g62
g63
NtRp3814
(dp3815
g66
(dp3816
g74
I5
ssg75
g3810
sg68
(lp3817
g61
(g70
g63
NtRp3818
(dp3819
g66
(dp3820
g74
I4
ssg75
Nsg68
(lp3821
g61
(g77
g63
NtRp3822
(dp3823
g66
(dp3824
sg75
g3818
sg68
(lp3825
g61
(g82
g63
NtRp3826
(dp3827
g66
(dp3828
g86
g87
ssg75
g3822
sg68
(lp3829
S'author'
p3830
asbag61
(g82
g63
NtRp3831
(dp3832
g66
(dp3833
g93
g94
ssg75
g3822
sg68
(lp3834
S':'
asbag61
(g82
g63
NtRp3835
(dp3836
g66
(dp3837
sg75
g3822
sg68
(lp3838
g61
(g62
g63
NtRp3839
(dp3840
g66
(dp3841
g74
I4
ssg75
g3835
sg68
(lp3842
S'Your Name <you@example.com>'
p3843
asbasbasbag61
(g77
g63
NtRp3844
(dp3845
g66
(dp3846
sg75
g3818
sg68
(lp3847
g61
(g82
g63
NtRp3848
(dp3849
g66
(dp3850
g86
g87
ssg75
g3844
sg68
(lp3851
S'copyright'
p3852
asbag61
(g82
g63
NtRp3853
(dp3854
g66
(dp3855
g93
g94
ssg75
g3844
sg68
(lp3856
S':'
asbag61
(g82
g63
NtRp3857
(dp3858
g66
(dp3859
sg75
g3844
sg68
(lp3860
g61
(g62
g63
NtRp3861
(dp3862
g66
(dp3863
g74
I4
ssg75
g3857
sg68
(lp3864
S'Copyright 2011'
p3865
asbasbasbag61
(g77
g63
NtRp3866
(dp3867
g66
(dp3868
sg75
g3818
sg68
(lp3869
g61
(g82
g63
NtRp3870
(dp3871
g66
(dp3872
g86
g87
ssg75
g3866
sg68
(lp3873
S'description'
p3874
asbag61
(g82
g63
NtRp3875
(dp3876
g66
(dp3877
g93
g94
ssg75
g3866
sg68
(lp3878
S':'
asbag61
(g82
g63
NtRp3879
(dp3880
g66
(dp3881
sg75
g3866
sg68
(lp3882
g61
(g62
g63
NtRp3883
(dp3884
g66
(dp3885
g74
I4
ssg75
g3879
sg68
(lp3886
S'a cool new app'
p3887
asbasbasbag61
(g77
g63
NtRp3888
(dp3889
g66
(dp3890
sg75
g3818
sg68
(lp3891
g61
(g82
g63
NtRp3892
(dp3893
g66
(dp3894
g86
g87
ssg75
g3888
sg68
(lp3895
S'generator'
p3896
asbag61
(g82
g63
NtRp3897
(dp3898
g66
(dp3899
g93
g94
ssg75
g3888
sg68
(lp3900
S':'
asbag61
(g82
g63
NtRp3901
(dp3902
g66
(dp3903
sg75
g3888
sg68
(lp3904
g61
(g62
g63
NtRp3905
(dp3906
g66
(dp3907
g74
I4
ssg75
g3901
sg68
(lp3908
S'Web2py Web Framework'
p3909
asbasbasbag61
(g77
g63
NtRp3910
(dp3911
g66
(dp3912
sg75
g3818
sg68
(lp3913
g61
(g82
g63
NtRp3914
(dp3915
g66
(dp3916
g86
g87
ssg75
g3910
sg68
(lp3917
S'keywords'
p3918
asbag61
(g82
g63
NtRp3919
(dp3920
g66
(dp3921
g93
g94
ssg75
g3910
sg68
(lp3922
S':'
asbag61
(g82
g63
NtRp3923
(dp3924
g66
(dp3925
sg75
g3910
sg68
(lp3926
g61
(g62
g63
NtRp3927
(dp3928
g66
(dp3929
g74
I4
ssg75
g3923
sg68
(lp3930
S'web2py, python, framework'
p3931
asbasbasbasbasbasbasbag61
(g77
g63
NtRp3932
(dp3933
g66
(dp3934
sg75
g2653
sg68
(lp3935
g61
(g82
g63
NtRp3936
(dp3937
g66
(dp3938
g86
g87
ssg75
g3932
sg68
(lp3939
S'postprocessing'
p3940
asbag61
(g82
g63
NtRp3941
(dp3942
g66
(dp3943
g93
g94
ssg75
g3932
sg68
(lp3944
S':'
asbag61
(g82
g63
NtRp3945
(dp3946
g66
(dp3947
sg75
g3932
sg68
(lp3948
g61
(g62
g63
NtRp3949
(dp3950
g66
(dp3951
g74
I5
ssg75
g3945
sg68
(lp3952
g61
(g70
g63
NtRp3953
(dp3954
g66
(dp3955
g74
I4
ssg75
Nsg68
(lp3956
sbasbasbasbag61
(g77
g63
NtRp3957
(dp3958
g66
(dp3959
sg75
g2653
sg68
(lp3960
g61
(g82
g63
NtRp3961
(dp3962
g66
(dp3963
g86
g87
ssg75
g3957
sg68
(lp3964
S'session_filename'
p3965
asbag61
(g82
g63
NtRp3966
(dp3967
g66
(dp3968
g93
g94
ssg75
g3957
sg68
(lp3969
S':'
asbag61
(g82
g63
NtRp3970
(dp3971
g66
(dp3972
sg75
g3957
sg68
(lp3973
g61
(g62
g63
NtRp3974
(dp3975
g66
(dp3976
g74
I5
ssg75
g3970
sg68
(lp3977
S'C:\\web2py\\applications\\unioeste_code\\sessions\\127.0.0.1-d8a13ecc-5b3c-4981-8eac-1a7061470456'
p3978
asbasbasbag61
(g77
g63
NtRp3979
(dp3980
g66
(dp3981
sg75
g2653
sg68
(lp3982
g61
(g82
g63
NtRp3983
(dp3984
g66
(dp3985
g86
g87
ssg75
g3979
sg68
(lp3986
S'session_id'
p3987
asbag61
(g82
g63
NtRp3988
(dp3989
g66
(dp3990
g93
g94
ssg75
g3979
sg68
(lp3991
S':'
asbag61
(g82
g63
NtRp3992
(dp3993
g66
(dp3994
sg75
g3979
sg68
(lp3995
g61
(g62
g63
NtRp3996
(dp3997
g66
(dp3998
g74
I5
ssg75
g3992
sg68
(lp3999
S'127.0.0.1-d8a13ecc-5b3c-4981-8eac-1a7061470456'
p4000
asbasbasbag61
(g77
g63
NtRp4001
(dp4002
g66
(dp4003
sg75
g2653
sg68
(lp4004
g61
(g82
g63
NtRp4005
(dp4006
g66
(dp4007
g86
g87
ssg75
g4001
sg68
(lp4008
S'session_id_name'
p4009
asbag61
(g82
g63
NtRp4010
(dp4011
g66
(dp4012
g93
g94
ssg75
g4001
sg68
(lp4013
S':'
asbag61
(g82
g63
NtRp4014
(dp4015
g66
(dp4016
sg75
g4001
sg68
(lp4017
g61
(g62
g63
NtRp4018
(dp4019
g66
(dp4020
g74
I5
ssg75
g4014
sg68
(lp4021
g2710
asbasbasbag61
(g77
g63
NtRp4022
(dp4023
g66
(dp4024
sg75
g2653
sg68
(lp4025
g61
(g82
g63
NtRp4026
(dp4027
g66
(dp4028
g86
g87
ssg75
g4022
sg68
(lp4029
S'session_new'
p4030
asbag61
(g82
g63
NtRp4031
(dp4032
g66
(dp4033
g93
g94
ssg75
g4022
sg68
(lp4034
S':'
asbag61
(g82
g63
NtRp4035
(dp4036
g66
(dp4037
sg75
g4022
sg68
(lp4038
g61
(g62
g63
NtRp4039
(dp4040
g66
(dp4041
g74
I5
ssg75
g4035
sg68
(lp4042
g1290
asbasbasbag61
(g77
g63
NtRp4043
(dp4044
g66
(dp4045
sg75
g2653
sg68
(lp4046
g61
(g82
g63
NtRp4047
(dp4048
g66
(dp4049
g86
g87
ssg75
g4043
sg68
(lp4050
S'status'
p4051
asbag61
(g82
g63
NtRp4052
(dp4053
g66
(dp4054
g93
g94
ssg75
g4043
sg68
(lp4055
S':'
asbag61
(g82
g63
NtRp4056
(dp4057
g66
(dp4058
sg75
g4043
sg68
(lp4059
g61
(g62
g63
NtRp4060
(dp4061
g66
(dp4062
g74
I5
ssg75
g4056
sg68
(lp4063
S'200'
p4064
asbasbasbag61
(g77
g63
NtRp4065
(dp4066
g66
(dp4067
sg75
g2653
sg68
(lp4068
g61
(g82
g63
NtRp4069
(dp4070
g66
(dp4071
g86
g87
ssg75
g4065
sg68
(lp4072
S'subtitle'
p4073
asbag61
(g82
g63
NtRp4074
(dp4075
g66
(dp4076
g93
g94
ssg75
g4065
sg68
(lp4077
S':'
asbag61
(g82
g63
NtRp4078
(dp4079
g66
(dp4080
sg75
g4065
sg68
(lp4081
g61
(g62
g63
NtRp4082
(dp4083
g66
(dp4084
g74
I5
ssg75
g4078
sg68
(lp4085
g3177
(S's\x0f\x00\x00\x00Personalize-me!'
tRp4086
asbasbasbag61
(g77
g63
NtRp4087
(dp4088
g66
(dp4089
sg75
g2653
sg68
(lp4090
g61
(g82
g63
NtRp4091
(dp4092
g66
(dp4093
g86
g87
ssg75
g4087
sg68
(lp4094
S'title'
p4095
asbag61
(g82
g63
NtRp4096
(dp4097
g66
(dp4098
g93
g94
ssg75
g4087
sg68
(lp4099
S':'
asbag61
(g82
g63
NtRp4100
(dp4101
g66
(dp4102
sg75
g4087
sg68
(lp4103
g61
(g62
g63
NtRp4104
(dp4105
g66
(dp4106
g74
I5
ssg75
g4100
sg68
(lp4107
S'Unioeste Code'
p4108
asbasbasbag61
(g77
g63
NtRp4109
(dp4110
g66
(dp4111
sg75
g2653
sg68
(lp4112
g61
(g82
g63
NtRp4113
(dp4114
g66
(dp4115
g86
g87
ssg75
g4109
sg68
(lp4116
g1954
asbag61
(g82
g63
NtRp4117
(dp4118
g66
(dp4119
g93
g94
ssg75
g4109
sg68
(lp4120
S':'
asbag61
(g82
g63
NtRp4121
(dp4122
g66
(dp4123
sg75
g4109
sg68
(lp4124
g61
(g62
g63
NtRp4125
(dp4126
g66
(dp4127
g74
I5
ssg75
g4121
sg68
(lp4128
g1967
asbasbasbag61
(g77
g63
NtRp4129
(dp4130
g66
(dp4131
sg75
g2653
sg68
(lp4132
g61
(g82
g63
NtRp4133
(dp4134
g66
(dp4135
g86
g87
ssg75
g4129
sg68
(lp4136
S'view'
p4137
asbag61
(g82
g63
NtRp4138
(dp4139
g66
(dp4140
g93
g94
ssg75
g4129
sg68
(lp4141
S':'
asbag61
(g82
g63
NtRp4142
(dp4143
g66
(dp4144
sg75
g4129
sg68
(lp4145
g61
(g62
g63
NtRp4146
(dp4147
g66
(dp4148
g74
I5
ssg75
g4142
sg68
(lp4149
S'default/index.html'
p4150
asbasbasbasbasbsS'locals'
p4151
(dp4152
g4
S"r'C:\\web2py\\applications\\unioeste_code\\views\\default/index.html'"
p4153
sg6
S'r"left_sidebar_enabled,right_sidebar_enabled=False...ponse.write(\'\\n</body>\\n</html>\\n\', escape=False)"'
p4154
sssS'traceback'
p4155
S'Traceback (most recent call last):\n  File "gluon/restricted.py", line 204, in restricted\n  File "gluon/restricted.py", line 189, in compile2\n  File "C:\\web2py\\applications\\unioeste_code\\views\\default/index.html", line 94\n    response.write(LI(A(problem.title, _href=URL("showProblem", args=problem.id)) +  by " + user.first_name + " " + user.last_name ))\n                                                                                                              ^\nSyntaxError: invalid syntax\n'
p4156
s.