(dp1
S'output'
p2
S"<type 'exceptions.AttributeError'> 'property' object has no attribute 'setter'"
p3
sS'layer'
p4
S'C:\\web2py\\applications\\unioeste_code\\views\\default/index.html'
p5
sS'code'
p6
S'response.write(\'<!DOCTYPE html>\\n<!-- paulirish.com/2008/conditional-stylesheets-vs-css-hacks-answer-neither/ -->\\n<!--[if lt IE 7]><html class="ie ie6 ie-lte9 ie-lte8 ie-lte7 no-js" lang="\', escape=False)\nresponse.write(T.accepted_language or \'en\')\nresponse.write(\'"> <![endif]-->\\n<!--[if IE 7]><html class="ie ie7 ie-lte9 ie-lte8 ie-lte7 no-js" lang="\', escape=False)\nresponse.write(T.accepted_language or \'en\')\nresponse.write(\'"> <![endif]-->\\n<!--[if IE 8]><html class="ie ie8 ie-lte9 ie-lte8 no-js" lang="\', escape=False)\nresponse.write(T.accepted_language or \'en\')\nresponse.write(\'"> <![endif]-->\\n<!--[if IE 9]><html class="ie9 ie-lte9 no-js" lang="\', escape=False)\nresponse.write(T.accepted_language or \'en\')\nresponse.write(\'"> <![endif]-->\\n<!--[if (gt IE 9)|!(IE)]><!--> <html class="no-js" lang="\', escape=False)\nresponse.write(T.accepted_language or \'en\')\nresponse.write(\'"> <!--<![endif]-->\\n<head>\\n  <meta charset="utf-8" />\\n  <!-- www.phpied.com/conditional-comments-block-downloads/ -->\\n  <!-- Always force latest IE rendering engine\\n\\t   (even in intranet) & Chrome Frame\\n\\t   Remove this if you use the .htaccess -->\\n  <!--[if IE]>\\n    <meta http-equiv="X-UA-Compatible" content="IE=edge\', escape=False)\nresponse.write(not request.is_local and \',chrome=1\' or \'\')\nresponse.write(\'">\\n  <![endif]-->\\n  \\n  <title>\', escape=False)\nresponse.write(response.title or request.application)\nresponse.write(\'</title>\\n  \\n  <!-- http://dev.w3.org/html5/markup/meta.name.html -->\\n  <meta name="application-name" content="\', escape=False)\nresponse.write(request.application)\nresponse.write(\'" />\\n  \\n  <!-- Speaking of Google, don\\\'t forget to set your site up:\\n\\t   http://google.com/webmasters -->\\n  <meta name="google-site-verification" content="" />\\n\\n  <!--  Mobile Viewport Fix\\n\\t  j.mp/mobileviewport & davidbcalhoun.com/2010/viewport-metatag\\n\\t  device-width: Occupy full width of the screen in its current orientation\\n\\t  initial-scale = 1.0 retains dimensions instead of zooming out if page height > device height\\n\\t  user-scalable = yes allows the user to zoom in -->\\n  <meta name="viewport" content="width=device-width, initial-scale=1.0, user-scalable=yes">\\n  \\n  <!-- Place favicon.ico and apple-touch-icon.png in the root of your domain and delete these references -->\\n  <link rel="shortcut icon" href="\', escape=False)\nresponse.write(URL(\'static\',\'favicon.ico\'))\nresponse.write(\'" type="image/x-icon">\\n  <link rel="apple-touch-icon" href="\', escape=False)\nresponse.write(URL(\'static\',\'favicon.png\'))\nresponse.write(\'">\\n\\n  <!-- All JavaScript at the bottom, except for Modernizr which enables \\n\\t   HTML5 elements & feature detects -->\\n  <script src="\', escape=False)\nresponse.write(URL(\'static\',\'js/modernizr.custom.js\'))\nresponse.write(\'"></script>  \\n\\n  <!-- include stylesheets -->\\n  \', escape=False)\nresponse.files.append(URL(\'static\',\'css/skeleton.css\'))\nresponse.files.append(URL(\'static\',\'css/web2py.css\'))\nif response.menu:\n    response.files.append(URL(\'static\',\'css/superfish.css\'))\n    response.files.append(URL(\'static\',\'js/superfish.js\'))\n    pass\nresponse.write(\'\\n\\n  \', escape=False)\nresponse.write(\'<script type="text/javascript"><!--\\n    // These variables are used by the web2py_ajax_init function in web2py_ajax.js (which is loaded below).\\n    var w2p_ajax_confirm_message = "\', escape=False)\nresponse.write(T(\'Are you sure you want to delete this object?\'))\nresponse.write(\'";\\n    var w2p_ajax_date_format = "\', escape=False)\nresponse.write(T(\'%Y-%m-%d\'))\nresponse.write(\'";\\n    var w2p_ajax_datetime_format = "\', escape=False)\nresponse.write(T(\'%Y-%m-%d %H:%M:%S\'))\nresponse.write(\'";\\n    //--></script>\\n\', escape=False)\nresponse.files.insert(0,URL(\'static\',\'js/jquery.js\'))\nresponse.files.insert(1,URL(\'static\',\'css/calendar.css\'))\nresponse.files.insert(2,URL(\'static\',\'js/calendar.js\'))\nresponse.files.insert(3,URL(\'static\',\'js/web2py.js\'))\nresponse.include_meta()\nresponse.include_files()\nresponse.write(\'\\n\', escape=False)\nresponse.write(\'\\n\\n  \', escape=False)\nif response.menu:\n    response.write(\'\\n  <script type="text/javascript">\\n    jQuery(function(){ jQuery(\\\'ul.sf-menu\\\').supersubs({minWidth:12,maxWidth:30,extraWidth:3}).superfish(); });\\n  </script>\\n  \', escape=False)\n    pass\nresponse.write(\'\\n\\n  \', escape=False)\n# using sidebars need to know what sidebar you want to use\nleft_sidebar_enabled = globals().get(\'left_sidebar_enabled\',False)\nright_sidebar_enabled = globals().get(\'right_sidebar_enabled\',False)\nmiddle_columns = {0:\'sixteen\',1:\'twelve\',2:\'eight\'}[\n(left_sidebar_enabled and 1 or 0)+(right_sidebar_enabled and 1 or 0)]\nresponse.write(\'\\n\\n  <!-- uncomment here to load jquery-ui\\n  <link rel="stylesheet" href="http://ajax.googleapis.com/ajax/libs/jqueryui/1.8.16/themes/base/jquery-ui.css" type="text/css" media="all" />\\n  <script src="http://ajax.googleapis.com/ajax/libs/jqueryui/1.8.16/jquery-ui.min.js" type="text/javascript"></script>\\n  uncomment to load jquery-ui //-->\\n</head>\\n<body>\\n  <div class="wrapper"><!-- for sticky footer -->\\n  \\n    <div class="topbar">\\n      <div class="container">    \\n        <div class="sixteen columns">\\n          <div id="navbar">\', escape=False)\nresponse.write(\'auth\' in globals() and auth.navbar(separators=(\' \',\' | \',\'\')))\nresponse.write(\'</div>\\n          \', escape=False)\nis_mobile=request.user_agent().is_mobile\nresponse.write(\'\\n\\t  \', escape=False)\nif response.menu:\n    response.write(\'\\n          <div id="menu">\\n             \', escape=False)\n    response.write(MENU(response.menu, _class=\'mobile-menu\' if is_mobile else \'sf-menu\',mobile=is_mobile))\n    response.write(\'\\n          </div>\\n          \', escape=False)\n    pass\nresponse.write(\'\\n        </div>\\n      </div>\\n    </div><!-- topbar -->\\n    \\n    <div class="flash">\', escape=False)\nresponse.write(response.flash or \'\')\nresponse.write(\'</div>\\n    \\n    <div class="header">\\n      <div class="container">         \\n        <div class="sixteen columns">\\n          <img src="\', escape=False)\nresponse.write(URL(\'static\',\'images/logo-code.png\'))\nresponse.write(\'" class="remove-bottom" style="margin-top: .5em;" />\\n          <!-- H5 subtitle-->\\n        </div>\\n        <div class="sixteen columns">\\n          <div style="border: 1px solid #000000; ">\\n            <div style="float:right; padding-top: .25em;" class="a2a_kit a2a_default_style">\\n            <a class="a2a_dd" href="http://www.addtoany.com/share_save">Share</a></div>\\n            <script type="text/javascript" src="http://static.addtoany.com/menu/page.js"></script>\\n          </div>\\n        </div>\\n      </div>\\n    </div>\\n\\n    <div class="main">\\n      <div class="container">                 \\n        \', escape=False)\nif left_sidebar_enabled:\n    response.write(\'\\n        <div class="four columns left-sidebar">\\n          \', escape=False)\n    response.write(\'\\n          <h3>Left Sidebar</h3>\\n          <p></p>\\n          \', escape=False)\n    response.write(\'\\n        </div>\\n        \', escape=False)\n    pass\nresponse.write(\'\\n        \\n        <div class="\', escape=False)\nresponse.write(middle_columns)\nresponse.write(\' columns center">\\n          \', escape=False)\nresponse.write(\'\\n          \', escape=False)\nresponse.write(\'\\n\\n\\n\', escape=False)\nresponse.write(H1(T("Current Problems")))\nresponse.write(\'\\n<ul>\\n\', escape=False)\nfor problem in problems:\n    response.write(\'\\n\', escape=False)\n    user = db(db.auth_user.id==problem.created_by).select().first()\n    response.write(\'\\n\', escape=False)\n    response.write(LI(A(problem.title, _style="font-weight:bold;",_href=URL("Problem", args=problem.id)), " by " + user.first_name + " " + user.last_name + " ", SPAN(prettydate(problem.created_on), _style="color:green;font-weight:bold;")))\n    response.write(\'\\n\', escape=False)\n    pass\nresponse.write(\'\\n\\n\\n\', escape=False)\nfrom pyGravatar import Gravatar\nresponse.write(\'\\n\', escape=False)\nIMG(_src=Gravatar(auth.user.email).thumb())\nresponse.write(\'\\n\\n\\n</ul>\\n\\n\', escape=False)\nresponse.write(\'\\n          \', escape=False)\nresponse.write(\'\\n        </div>\\n        \\n        \', escape=False)\nif right_sidebar_enabled:\n    response.write(\'\\n        <div class="four columns">\\n          \', escape=False)\n    response.write(\'\\n          <h3>Right Sidebar</h3>\\n          <p></p>\\n          \', escape=False)\n    response.write(\'\\n        </div>    \\n        \', escape=False)\n    pass\nresponse.write(\'\\n        \\n      </div><!-- container -->\\n    </div><!-- main -->\\n    \\n    <div class="push"></div>\\n  </div><!-- wrapper -->\\n\\n  <div class="footer">\\n    <div class="container">    \\n      <div class="sixteen columns">\\n        \', escape=False)\nresponse.write(\' <!-- this is default footer -->\\n        <div class="footer-content clearfix">\\n            <div style="float: left;">\\n            <a href="https://developers.google.com//"> \\n            <img style="padding-left: 8em; padding-bottom:1em; " src="https://developers.google.com/appengine/images/appengine-noborder-120x30.gif" alt="Powered by Google App Engine"/>\\n            </a>\\n          </div>\\n          <div class="footer-content clearfix">\\n            <div style="float: left;   ">\\n            <a href="http://www.python.org/"> \\n            <img style="" src="http://www.python.org/community/logos/python-powered-w-70x28.png" alt="Powered by Python"/>\\n            </a>\\n          </div>\\n          <div style="padding-left: 19.5em; padding-top: 0.25em;">\\n            <a href="http://www.web2py.com/">\\n            <img style="" src="\', escape=False)\nresponse.write(URL(\'static\',\'images/poweredby.png\'))\nresponse.write(\'"/>\\n            </a>\\n          </div>\\n        </div>\\n        \', escape=False)\nresponse.write(\'\\t\\n      </div>\\n    </div><!-- container -->\\n  </div><!-- footer -->\\n  \\n  <!--[if lt IE 7 ]>\\n\\t<script src="\', escape=False)\nresponse.write(URL(\'static\',\'js/dd_belatedpng.js\'))\nresponse.write(\'"></script>\\n\\t<script> DD_belatedPNG.fix(\\\'img, .png_bg\\\'); //fix any <img> or .png_bg background-images </script>\\n\\t<![endif]-->\\n  \', escape=False)\nif response.google_analytics_id:\n    response.write(\'<script type="text/javascript"> var _gaq = _gaq || []; _gaq.push([\\\'_setAccount\\\', \\\'\', escape=False)\n    response.write(response.google_analytics_id)\n    response.write("\']); _gaq.push([\'_trackPageview\']); (function() { var ga = document.createElement(\'script\'); ga.type = \'text/javascript\'; ga.async = true; ga.src = (\'https:\' == document.location.protocol ? \'https://ssl\' : \'http://www\') + \'.google-analytics.com/ga.js\'; var s = document.getElementsByTagName(\'script\')[0]; s.parentNode.insertBefore(ga, s); })(); </script> ", escape=False)\n    pass\nresponse.write(\'\\n</body>\\n</html>\\n\', escape=False)'
p7
sS'snapshot'
p8
(dp9
S'exception'
p10
(dp11
S'__hash__'
p12
S"<method-wrapper '__hash__' of exceptions.AttributeError object at 0x08450D50>"
p13
sS'__setattr__'
p14
S"<method-wrapper '__setattr__' of exceptions.AttributeError object at 0x08450D50>"
p15
sS'__reduce_ex__'
p16
S'<built-in method __reduce_ex__ of exceptions.AttributeError object at 0x08450D50>'
p17
sS'__getslice__'
p18
S"<method-wrapper '__getslice__' of exceptions.AttributeError object at 0x08450D50>"
p19
sS'__getitem__'
p20
S"<method-wrapper '__getitem__' of exceptions.AttributeError object at 0x08450D50>"
p21
sS'__setstate__'
p22
S'<built-in method __setstate__ of exceptions.AttributeError object at 0x08450D50>'
p23
sS'__reduce__'
p24
S'<built-in method __reduce__ of exceptions.AttributeError object at 0x08450D50>'
p25
sS'__str__'
p26
S"<method-wrapper '__str__' of exceptions.AttributeError object at 0x08450D50>"
p27
sS'args'
p28
S'("\'property\' object has no attribute \'setter\'",)'
p29
sS'__getattribute__'
p30
S"<method-wrapper '__getattribute__' of exceptions.AttributeError object at 0x08450D50>"
p31
sS'__class__'
p32
S"<type 'exceptions.AttributeError'>"
p33
sS'__delattr__'
p34
S"<method-wrapper '__delattr__' of exceptions.AttributeError object at 0x08450D50>"
p35
sS'__repr__'
p36
S"<method-wrapper '__repr__' of exceptions.AttributeError object at 0x08450D50>"
p37
sS'__dict__'
p38
S'{}'
p39
sS'__doc__'
p40
S"'Attribute not found.'"
p41
sS'__init__'
p42
S"<method-wrapper '__init__' of exceptions.AttributeError object at 0x08450D50>"
p43
sS'__new__'
p44
S'<built-in method __new__ of type object at 0x1E1CDA68>'
p45
ssS'evalue'
p46
S"'property' object has no attribute 'setter'"
p47
sS'request'
p48
ccopy_reg
_reconstructor
p49
(cgluon.html
BEAUTIFY
p50
c__builtin__
object
p51
NtRp52
(dp53
S'attributes'
p54
(dp55
sS'components'
p56
(lp57
g49
(cgluon.html
TABLE
p58
g51
NtRp59
(dp60
g54
(dp61
S'level'
p62
I5
ssS'parent'
p63
Nsg56
(lp64
g49
(cgluon.html
TR
p65
g51
NtRp66
(dp67
g54
(dp68
sg63
g59
sg56
(lp69
g49
(cgluon.html
TD
p70
g51
NtRp71
(dp72
g54
(dp73
S'_style'
p74
S'font-weight:bold;vertical-align:top'
p75
ssg63
g66
sg56
(lp76
S'ajax'
p77
asbag49
(g70
g51
NtRp78
(dp79
g54
(dp80
S'_valign'
p81
S'top'
p82
ssg63
g66
sg56
(lp83
S':'
asbag49
(g70
g51
NtRp84
(dp85
g54
(dp86
sg63
g66
sg56
(lp87
g49
(g50
g51
NtRp88
(dp89
g54
(dp90
g62
I5
ssg63
g84
sg56
(lp91
S'False'
p92
asbasbasbag49
(g65
g51
NtRp93
(dp94
g54
(dp95
sg63
g59
sg56
(lp96
g49
(g70
g51
NtRp97
(dp98
g54
(dp99
g74
g75
ssg63
g93
sg56
(lp100
S'application'
p101
asbag49
(g70
g51
NtRp102
(dp103
g54
(dp104
g81
g82
ssg63
g93
sg56
(lp105
S':'
asbag49
(g70
g51
NtRp106
(dp107
g54
(dp108
sg63
g93
sg56
(lp109
g49
(g50
g51
NtRp110
(dp111
g54
(dp112
g62
I5
ssg63
g106
sg56
(lp113
S'unioeste_code'
p114
asbasbasbag49
(g65
g51
NtRp115
(dp116
g54
(dp117
sg63
g59
sg56
(lp118
g49
(g70
g51
NtRp119
(dp120
g54
(dp121
g74
g75
ssg63
g115
sg56
(lp122
g28
asbag49
(g70
g51
NtRp123
(dp124
g54
(dp125
g81
g82
ssg63
g115
sg56
(lp126
S':'
asbag49
(g70
g51
NtRp127
(dp128
g54
(dp129
sg63
g115
sg56
(lp130
g49
(g50
g51
NtRp131
(dp132
g54
(dp133
g62
I5
ssg63
g127
sg56
(lp134
g49
(g58
g51
NtRp135
(dp136
g54
(dp137
g62
I4
ssg63
Nsg56
(lp138
sbasbasbasbag49
(g65
g51
NtRp139
(dp140
g54
(dp141
sg63
g59
sg56
(lp142
g49
(g70
g51
NtRp143
(dp144
g54
(dp145
g74
g75
ssg63
g139
sg56
(lp146
S'body'
p147
asbag49
(g70
g51
NtRp148
(dp149
g54
(dp150
g81
g82
ssg63
g139
sg56
(lp151
S':'
asbag49
(g70
g51
NtRp152
(dp153
g54
(dp154
sg63
g139
sg56
(lp155
g49
(g50
g51
NtRp156
(dp157
g54
(dp158
g62
I5
ssg63
g152
sg56
(lp159
S'<cStringIO.StringO object at 0x084D6400>'
p160
asbasbasbag49
(g65
g51
NtRp161
(dp162
g54
(dp163
sg63
g59
sg56
(lp164
g49
(g70
g51
NtRp165
(dp166
g54
(dp167
g74
g75
ssg63
g161
sg56
(lp168
S'client'
p169
asbag49
(g70
g51
NtRp170
(dp171
g54
(dp172
g81
g82
ssg63
g161
sg56
(lp173
S':'
asbag49
(g70
g51
NtRp174
(dp175
g54
(dp176
sg63
g161
sg56
(lp177
g49
(g50
g51
NtRp178
(dp179
g54
(dp180
g62
I5
ssg63
g174
sg56
(lp181
S'127.0.0.1'
p182
asbasbasbag49
(g65
g51
NtRp183
(dp184
g54
(dp185
sg63
g59
sg56
(lp186
g49
(g70
g51
NtRp187
(dp188
g54
(dp189
g74
g75
ssg63
g183
sg56
(lp190
S'controller'
p191
asbag49
(g70
g51
NtRp192
(dp193
g54
(dp194
g81
g82
ssg63
g183
sg56
(lp195
S':'
asbag49
(g70
g51
NtRp196
(dp197
g54
(dp198
sg63
g183
sg56
(lp199
g49
(g50
g51
NtRp200
(dp201
g54
(dp202
g62
I5
ssg63
g196
sg56
(lp203
S'default'
p204
asbasbasbag49
(g65
g51
NtRp205
(dp206
g54
(dp207
sg63
g59
sg56
(lp208
g49
(g70
g51
NtRp209
(dp210
g54
(dp211
g74
g75
ssg63
g205
sg56
(lp212
S'cookies'
p213
asbag49
(g70
g51
NtRp214
(dp215
g54
(dp216
g81
g82
ssg63
g205
sg56
(lp217
S':'
asbag49
(g70
g51
NtRp218
(dp219
g54
(dp220
sg63
g205
sg56
(lp221
g49
(g50
g51
NtRp222
(dp223
g54
(dp224
g62
I5
ssg63
g218
sg56
(lp225
g49
(g58
g51
NtRp226
(dp227
g54
(dp228
g62
I4
ssg63
Nsg56
(lp229
g49
(g65
g51
NtRp230
(dp231
g54
(dp232
sg63
g226
sg56
(lp233
g49
(g70
g51
NtRp234
(dp235
g54
(dp236
g74
g75
ssg63
g230
sg56
(lp237
S'session_id_admin'
p238
asbag49
(g70
g51
NtRp239
(dp240
g54
(dp241
g81
g82
ssg63
g230
sg56
(lp242
S':'
asbag49
(g70
g51
NtRp243
(dp244
g54
(dp245
sg63
g230
sg56
(lp246
g49
(g50
g51
NtRp247
(dp248
g54
(dp249
g62
I4
ssg63
g243
sg56
(lp250
g49
(g58
g51
NtRp251
(dp252
g54
(dp253
g62
I3
ssg63
Nsg56
(lp254
g49
(g65
g51
NtRp255
(dp256
g54
(dp257
sg63
g251
sg56
(lp258
g49
(g70
g51
NtRp259
(dp260
g54
(dp261
g74
g75
ssg63
g255
sg56
(lp262
S'comment'
p263
asbag49
(g70
g51
NtRp264
(dp265
g54
(dp266
g81
g82
ssg63
g255
sg56
(lp267
S':'
asbag49
(g70
g51
NtRp268
(dp269
g54
(dp270
sg63
g255
sg56
(lp271
g49
(g50
g51
NtRp272
(dp273
g54
(dp274
g62
I3
ssg63
g268
sg56
(lp275
S''
asbasbasbag49
(g65
g51
NtRp276
(dp277
g54
(dp278
sg63
g251
sg56
(lp279
g49
(g70
g51
NtRp280
(dp281
g54
(dp282
g74
g75
ssg63
g276
sg56
(lp283
S'domain'
p284
asbag49
(g70
g51
NtRp285
(dp286
g54
(dp287
g81
g82
ssg63
g276
sg56
(lp288
S':'
asbag49
(g70
g51
NtRp289
(dp290
g54
(dp291
sg63
g276
sg56
(lp292
g49
(g50
g51
NtRp293
(dp294
g54
(dp295
g62
I3
ssg63
g289
sg56
(lp296
S''
asbasbasbag49
(g65
g51
NtRp297
(dp298
g54
(dp299
sg63
g251
sg56
(lp300
g49
(g70
g51
NtRp301
(dp302
g54
(dp303
g74
g75
ssg63
g297
sg56
(lp304
S'expires'
p305
asbag49
(g70
g51
NtRp306
(dp307
g54
(dp308
g81
g82
ssg63
g297
sg56
(lp309
S':'
asbag49
(g70
g51
NtRp310
(dp311
g54
(dp312
sg63
g297
sg56
(lp313
g49
(g50
g51
NtRp314
(dp315
g54
(dp316
g62
I3
ssg63
g310
sg56
(lp317
S''
asbasbasbag49
(g65
g51
NtRp318
(dp319
g54
(dp320
sg63
g251
sg56
(lp321
g49
(g70
g51
NtRp322
(dp323
g54
(dp324
g74
g75
ssg63
g318
sg56
(lp325
S'max-age'
p326
asbag49
(g70
g51
NtRp327
(dp328
g54
(dp329
g81
g82
ssg63
g318
sg56
(lp330
S':'
asbag49
(g70
g51
NtRp331
(dp332
g54
(dp333
sg63
g318
sg56
(lp334
g49
(g50
g51
NtRp335
(dp336
g54
(dp337
g62
I3
ssg63
g331
sg56
(lp338
S''
asbasbasbag49
(g65
g51
NtRp339
(dp340
g54
(dp341
sg63
g251
sg56
(lp342
g49
(g70
g51
NtRp343
(dp344
g54
(dp345
g74
g75
ssg63
g339
sg56
(lp346
S'path'
p347
asbag49
(g70
g51
NtRp348
(dp349
g54
(dp350
g81
g82
ssg63
g339
sg56
(lp351
S':'
asbag49
(g70
g51
NtRp352
(dp353
g54
(dp354
sg63
g339
sg56
(lp355
g49
(g50
g51
NtRp356
(dp357
g54
(dp358
g62
I3
ssg63
g352
sg56
(lp359
S''
asbasbasbag49
(g65
g51
NtRp360
(dp361
g54
(dp362
sg63
g251
sg56
(lp363
g49
(g70
g51
NtRp364
(dp365
g54
(dp366
g74
g75
ssg63
g360
sg56
(lp367
S'secure'
p368
asbag49
(g70
g51
NtRp369
(dp370
g54
(dp371
g81
g82
ssg63
g360
sg56
(lp372
S':'
asbag49
(g70
g51
NtRp373
(dp374
g54
(dp375
sg63
g360
sg56
(lp376
g49
(g50
g51
NtRp377
(dp378
g54
(dp379
g62
I3
ssg63
g373
sg56
(lp380
S''
asbasbasbag49
(g65
g51
NtRp381
(dp382
g54
(dp383
sg63
g251
sg56
(lp384
g49
(g70
g51
NtRp385
(dp386
g54
(dp387
g74
g75
ssg63
g381
sg56
(lp388
S'version'
p389
asbag49
(g70
g51
NtRp390
(dp391
g54
(dp392
g81
g82
ssg63
g381
sg56
(lp393
S':'
asbag49
(g70
g51
NtRp394
(dp395
g54
(dp396
sg63
g381
sg56
(lp397
g49
(g50
g51
NtRp398
(dp399
g54
(dp400
g62
I3
ssg63
g394
sg56
(lp401
S''
asbasbasbasbasbasbasbag49
(g65
g51
NtRp402
(dp403
g54
(dp404
sg63
g226
sg56
(lp405
g49
(g70
g51
NtRp406
(dp407
g54
(dp408
g74
g75
ssg63
g402
sg56
(lp409
S'session_id_unioeste_code'
p410
asbag49
(g70
g51
NtRp411
(dp412
g54
(dp413
g81
g82
ssg63
g402
sg56
(lp414
S':'
asbag49
(g70
g51
NtRp415
(dp416
g54
(dp417
sg63
g402
sg56
(lp418
g49
(g50
g51
NtRp419
(dp420
g54
(dp421
g62
I4
ssg63
g415
sg56
(lp422
g49
(g58
g51
NtRp423
(dp424
g54
(dp425
g62
I3
ssg63
Nsg56
(lp426
g49
(g65
g51
NtRp427
(dp428
g54
(dp429
sg63
g423
sg56
(lp430
g49
(g70
g51
NtRp431
(dp432
g54
(dp433
g74
g75
ssg63
g427
sg56
(lp434
g263
asbag49
(g70
g51
NtRp435
(dp436
g54
(dp437
g81
g82
ssg63
g427
sg56
(lp438
S':'
asbag49
(g70
g51
NtRp439
(dp440
g54
(dp441
sg63
g427
sg56
(lp442
g49
(g50
g51
NtRp443
(dp444
g54
(dp445
g62
I3
ssg63
g439
sg56
(lp446
S''
asbasbasbag49
(g65
g51
NtRp447
(dp448
g54
(dp449
sg63
g423
sg56
(lp450
g49
(g70
g51
NtRp451
(dp452
g54
(dp453
g74
g75
ssg63
g447
sg56
(lp454
g284
asbag49
(g70
g51
NtRp455
(dp456
g54
(dp457
g81
g82
ssg63
g447
sg56
(lp458
S':'
asbag49
(g70
g51
NtRp459
(dp460
g54
(dp461
sg63
g447
sg56
(lp462
g49
(g50
g51
NtRp463
(dp464
g54
(dp465
g62
I3
ssg63
g459
sg56
(lp466
S''
asbasbasbag49
(g65
g51
NtRp467
(dp468
g54
(dp469
sg63
g423
sg56
(lp470
g49
(g70
g51
NtRp471
(dp472
g54
(dp473
g74
g75
ssg63
g467
sg56
(lp474
g305
asbag49
(g70
g51
NtRp475
(dp476
g54
(dp477
g81
g82
ssg63
g467
sg56
(lp478
S':'
asbag49
(g70
g51
NtRp479
(dp480
g54
(dp481
sg63
g467
sg56
(lp482
g49
(g50
g51
NtRp483
(dp484
g54
(dp485
g62
I3
ssg63
g479
sg56
(lp486
S''
asbasbasbag49
(g65
g51
NtRp487
(dp488
g54
(dp489
sg63
g423
sg56
(lp490
g49
(g70
g51
NtRp491
(dp492
g54
(dp493
g74
g75
ssg63
g487
sg56
(lp494
g326
asbag49
(g70
g51
NtRp495
(dp496
g54
(dp497
g81
g82
ssg63
g487
sg56
(lp498
S':'
asbag49
(g70
g51
NtRp499
(dp500
g54
(dp501
sg63
g487
sg56
(lp502
g49
(g50
g51
NtRp503
(dp504
g54
(dp505
g62
I3
ssg63
g499
sg56
(lp506
S''
asbasbasbag49
(g65
g51
NtRp507
(dp508
g54
(dp509
sg63
g423
sg56
(lp510
g49
(g70
g51
NtRp511
(dp512
g54
(dp513
g74
g75
ssg63
g507
sg56
(lp514
g347
asbag49
(g70
g51
NtRp515
(dp516
g54
(dp517
g81
g82
ssg63
g507
sg56
(lp518
S':'
asbag49
(g70
g51
NtRp519
(dp520
g54
(dp521
sg63
g507
sg56
(lp522
g49
(g50
g51
NtRp523
(dp524
g54
(dp525
g62
I3
ssg63
g519
sg56
(lp526
S''
asbasbasbag49
(g65
g51
NtRp527
(dp528
g54
(dp529
sg63
g423
sg56
(lp530
g49
(g70
g51
NtRp531
(dp532
g54
(dp533
g74
g75
ssg63
g527
sg56
(lp534
g368
asbag49
(g70
g51
NtRp535
(dp536
g54
(dp537
g81
g82
ssg63
g527
sg56
(lp538
S':'
asbag49
(g70
g51
NtRp539
(dp540
g54
(dp541
sg63
g527
sg56
(lp542
g49
(g50
g51
NtRp543
(dp544
g54
(dp545
g62
I3
ssg63
g539
sg56
(lp546
S''
asbasbasbag49
(g65
g51
NtRp547
(dp548
g54
(dp549
sg63
g423
sg56
(lp550
g49
(g70
g51
NtRp551
(dp552
g54
(dp553
g74
g75
ssg63
g547
sg56
(lp554
g389
asbag49
(g70
g51
NtRp555
(dp556
g54
(dp557
g81
g82
ssg63
g547
sg56
(lp558
S':'
asbag49
(g70
g51
NtRp559
(dp560
g54
(dp561
sg63
g547
sg56
(lp562
g49
(g50
g51
NtRp563
(dp564
g54
(dp565
g62
I3
ssg63
g559
sg56
(lp566
S''
asbasbasbasbasbasbasbag49
(g65
g51
NtRp567
(dp568
g54
(dp569
sg63
g226
sg56
(lp570
g49
(g70
g51
NtRp571
(dp572
g54
(dp573
g74
g75
ssg63
g567
sg56
(lp574
S'session_id_welcome'
p575
asbag49
(g70
g51
NtRp576
(dp577
g54
(dp578
g81
g82
ssg63
g567
sg56
(lp579
S':'
asbag49
(g70
g51
NtRp580
(dp581
g54
(dp582
sg63
g567
sg56
(lp583
g49
(g50
g51
NtRp584
(dp585
g54
(dp586
g62
I4
ssg63
g580
sg56
(lp587
g49
(g58
g51
NtRp588
(dp589
g54
(dp590
g62
I3
ssg63
Nsg56
(lp591
g49
(g65
g51
NtRp592
(dp593
g54
(dp594
sg63
g588
sg56
(lp595
g49
(g70
g51
NtRp596
(dp597
g54
(dp598
g74
g75
ssg63
g592
sg56
(lp599
g263
asbag49
(g70
g51
NtRp600
(dp601
g54
(dp602
g81
g82
ssg63
g592
sg56
(lp603
S':'
asbag49
(g70
g51
NtRp604
(dp605
g54
(dp606
sg63
g592
sg56
(lp607
g49
(g50
g51
NtRp608
(dp609
g54
(dp610
g62
I3
ssg63
g604
sg56
(lp611
S''
asbasbasbag49
(g65
g51
NtRp612
(dp613
g54
(dp614
sg63
g588
sg56
(lp615
g49
(g70
g51
NtRp616
(dp617
g54
(dp618
g74
g75
ssg63
g612
sg56
(lp619
g284
asbag49
(g70
g51
NtRp620
(dp621
g54
(dp622
g81
g82
ssg63
g612
sg56
(lp623
S':'
asbag49
(g70
g51
NtRp624
(dp625
g54
(dp626
sg63
g612
sg56
(lp627
g49
(g50
g51
NtRp628
(dp629
g54
(dp630
g62
I3
ssg63
g624
sg56
(lp631
S''
asbasbasbag49
(g65
g51
NtRp632
(dp633
g54
(dp634
sg63
g588
sg56
(lp635
g49
(g70
g51
NtRp636
(dp637
g54
(dp638
g74
g75
ssg63
g632
sg56
(lp639
g305
asbag49
(g70
g51
NtRp640
(dp641
g54
(dp642
g81
g82
ssg63
g632
sg56
(lp643
S':'
asbag49
(g70
g51
NtRp644
(dp645
g54
(dp646
sg63
g632
sg56
(lp647
g49
(g50
g51
NtRp648
(dp649
g54
(dp650
g62
I3
ssg63
g644
sg56
(lp651
S''
asbasbasbag49
(g65
g51
NtRp652
(dp653
g54
(dp654
sg63
g588
sg56
(lp655
g49
(g70
g51
NtRp656
(dp657
g54
(dp658
g74
g75
ssg63
g652
sg56
(lp659
g326
asbag49
(g70
g51
NtRp660
(dp661
g54
(dp662
g81
g82
ssg63
g652
sg56
(lp663
S':'
asbag49
(g70
g51
NtRp664
(dp665
g54
(dp666
sg63
g652
sg56
(lp667
g49
(g50
g51
NtRp668
(dp669
g54
(dp670
g62
I3
ssg63
g664
sg56
(lp671
S''
asbasbasbag49
(g65
g51
NtRp672
(dp673
g54
(dp674
sg63
g588
sg56
(lp675
g49
(g70
g51
NtRp676
(dp677
g54
(dp678
g74
g75
ssg63
g672
sg56
(lp679
g347
asbag49
(g70
g51
NtRp680
(dp681
g54
(dp682
g81
g82
ssg63
g672
sg56
(lp683
S':'
asbag49
(g70
g51
NtRp684
(dp685
g54
(dp686
sg63
g672
sg56
(lp687
g49
(g50
g51
NtRp688
(dp689
g54
(dp690
g62
I3
ssg63
g684
sg56
(lp691
S''
asbasbasbag49
(g65
g51
NtRp692
(dp693
g54
(dp694
sg63
g588
sg56
(lp695
g49
(g70
g51
NtRp696
(dp697
g54
(dp698
g74
g75
ssg63
g692
sg56
(lp699
g368
asbag49
(g70
g51
NtRp700
(dp701
g54
(dp702
g81
g82
ssg63
g692
sg56
(lp703
S':'
asbag49
(g70
g51
NtRp704
(dp705
g54
(dp706
sg63
g692
sg56
(lp707
g49
(g50
g51
NtRp708
(dp709
g54
(dp710
g62
I3
ssg63
g704
sg56
(lp711
S''
asbasbasbag49
(g65
g51
NtRp712
(dp713
g54
(dp714
sg63
g588
sg56
(lp715
g49
(g70
g51
NtRp716
(dp717
g54
(dp718
g74
g75
ssg63
g712
sg56
(lp719
g389
asbag49
(g70
g51
NtRp720
(dp721
g54
(dp722
g81
g82
ssg63
g712
sg56
(lp723
S':'
asbag49
(g70
g51
NtRp724
(dp725
g54
(dp726
sg63
g712
sg56
(lp727
g49
(g50
g51
NtRp728
(dp729
g54
(dp730
g62
I3
ssg63
g724
sg56
(lp731
S''
asbasbasbasbasbasbasbasbasbasbasbag49
(g65
g51
NtRp732
(dp733
g54
(dp734
sg63
g59
sg56
(lp735
g49
(g70
g51
NtRp736
(dp737
g54
(dp738
g74
g75
ssg63
g732
sg56
(lp739
S'env'
p740
asbag49
(g70
g51
NtRp741
(dp742
g54
(dp743
g81
g82
ssg63
g732
sg56
(lp744
S':'
asbag49
(g70
g51
NtRp745
(dp746
g54
(dp747
sg63
g732
sg56
(lp748
g49
(g50
g51
NtRp749
(dp750
g54
(dp751
g62
I5
ssg63
g745
sg56
(lp752
g49
(g58
g51
NtRp753
(dp754
g54
(dp755
g62
I4
ssg63
Nsg56
(lp756
g49
(g65
g51
NtRp757
(dp758
g54
(dp759
sg63
g753
sg56
(lp760
g49
(g70
g51
NtRp761
(dp762
g54
(dp763
g74
g75
ssg63
g757
sg56
(lp764
S'app_folders'
p765
asbag49
(g70
g51
NtRp766
(dp767
g54
(dp768
g81
g82
ssg63
g757
sg56
(lp769
S':'
asbag49
(g70
g51
NtRp770
(dp771
g54
(dp772
sg63
g757
sg56
(lp773
g49
(g50
g51
NtRp774
(dp775
g54
(dp776
g62
I4
ssg63
g770
sg56
(lp777
S"set(['C:\\\\web2py\\\\applications\\\\admin\\\\', 'C:\\\\web2py\\\\applications\\\\welcome\\\\', 'C:\\\\web2py\\\\applications\\\\unioeste_code\\\\'])"
p778
asbasbasbag49
(g65
g51
NtRp779
(dp780
g54
(dp781
sg63
g753
sg56
(lp782
g49
(g70
g51
NtRp783
(dp784
g54
(dp785
g74
g75
ssg63
g779
sg56
(lp786
S'applications_parent'
p787
asbag49
(g70
g51
NtRp788
(dp789
g54
(dp790
g81
g82
ssg63
g779
sg56
(lp791
S':'
asbag49
(g70
g51
NtRp792
(dp793
g54
(dp794
sg63
g779
sg56
(lp795
g49
(g50
g51
NtRp796
(dp797
g54
(dp798
g62
I4
ssg63
g792
sg56
(lp799
S'C:\\web2py'
p800
asbasbasbag49
(g65
g51
NtRp801
(dp802
g54
(dp803
sg63
g753
sg56
(lp804
g49
(g70
g51
NtRp805
(dp806
g54
(dp807
g74
g75
ssg63
g801
sg56
(lp808
S'cmd_args'
p809
asbag49
(g70
g51
NtRp810
(dp811
g54
(dp812
g81
g82
ssg63
g801
sg56
(lp813
S':'
asbag49
(g70
g51
NtRp814
(dp815
g54
(dp816
sg63
g801
sg56
(lp817
g49
(g50
g51
NtRp818
(dp819
g54
(dp820
g62
I4
ssg63
g814
sg56
(lp821
g49
(g58
g51
NtRp822
(dp823
g54
(dp824
g62
I3
ssg63
Nsg56
(lp825
sbasbasbasbag49
(g65
g51
NtRp826
(dp827
g54
(dp828
sg63
g753
sg56
(lp829
g49
(g70
g51
NtRp830
(dp831
g54
(dp832
g74
g75
ssg63
g826
sg56
(lp833
S'cmd_options'
p834
asbag49
(g70
g51
NtRp835
(dp836
g54
(dp837
g81
g82
ssg63
g826
sg56
(lp838
S':'
asbag49
(g70
g51
NtRp839
(dp840
g54
(dp841
sg63
g826
sg56
(lp842
g49
(g50
g51
NtRp843
(dp844
g54
(dp845
g62
I4
ssg63
g839
sg56
(lp846
S"<Values at 0x31dc300: {'verbose': False, 'ip': '127.0.0.1', 'shutdown_timeout': 5, 'taskbar': False, 'nocron': False, 'pid_filename': 'httpserver.pid', 'maxthreads': None, 'softcron': False, 'server_name': 'Pedro-PC', 'bpython': False, 'nogui': False, 'port': 8000, 'extcron': False, 'debuglevel': 30, 'test': None, 'folder': 'C:\\\\web2py', 'config': '', 'import_models': False, 'winservice': '', 'shell': None, 'run': '', 'log_filename': 'httpserver.log', 'args': [''], 'socket_timeout': 5, 'ssl_ca_certificate': None, 'scheduler': None, 'profiler_filename': None, 'ssl_private_key': '', 'password': '<ask>', 'request_queue_size': 5, 'ssl_certificate': '', 'cronjob': False, 'numthreads': None, 'quiet': False, 'interfaces': None, 'minthreads': None, 'timeout': 10, 'plain': False, 'nobanner': False}>"
p847
asbasbasbag49
(g65
g51
NtRp848
(dp849
g54
(dp850
sg63
g753
sg56
(lp851
g49
(g70
g51
NtRp852
(dp853
g54
(dp854
g74
g75
ssg63
g848
sg56
(lp855
S'db_sessions'
p856
asbag49
(g70
g51
NtRp857
(dp858
g54
(dp859
g81
g82
ssg63
g848
sg56
(lp860
S':'
asbag49
(g70
g51
NtRp861
(dp862
g54
(dp863
sg63
g848
sg56
(lp864
g49
(g50
g51
NtRp865
(dp866
g54
(dp867
g62
I4
ssg63
g861
sg56
(lp868
S'set([])'
p869
asbasbasbag49
(g65
g51
NtRp870
(dp871
g54
(dp872
sg63
g753
sg56
(lp873
g49
(g70
g51
NtRp874
(dp875
g54
(dp876
g74
g75
ssg63
g870
sg56
(lp877
S'debugging'
p878
asbag49
(g70
g51
NtRp879
(dp880
g54
(dp881
g81
g82
ssg63
g870
sg56
(lp882
S':'
asbag49
(g70
g51
NtRp883
(dp884
g54
(dp885
sg63
g870
sg56
(lp886
g49
(g50
g51
NtRp887
(dp888
g54
(dp889
g62
I4
ssg63
g883
sg56
(lp890
S'True'
p891
asbasbasbag49
(g65
g51
NtRp892
(dp893
g54
(dp894
sg63
g753
sg56
(lp895
g49
(g70
g51
NtRp896
(dp897
g54
(dp898
g74
g75
ssg63
g892
sg56
(lp899
S'gluon_parent'
p900
asbag49
(g70
g51
NtRp901
(dp902
g54
(dp903
g81
g82
ssg63
g892
sg56
(lp904
S':'
asbag49
(g70
g51
NtRp905
(dp906
g54
(dp907
sg63
g892
sg56
(lp908
g49
(g50
g51
NtRp909
(dp910
g54
(dp911
g62
I4
ssg63
g905
sg56
(lp912
S'C:\\web2py'
p913
asbasbasbag49
(g65
g51
NtRp914
(dp915
g54
(dp916
sg63
g753
sg56
(lp917
g49
(g70
g51
NtRp918
(dp919
g54
(dp920
g74
g75
ssg63
g914
sg56
(lp921
S'http_accept'
p922
asbag49
(g70
g51
NtRp923
(dp924
g54
(dp925
g81
g82
ssg63
g914
sg56
(lp926
S':'
asbag49
(g70
g51
NtRp927
(dp928
g54
(dp929
sg63
g914
sg56
(lp930
g49
(g50
g51
NtRp931
(dp932
g54
(dp933
g62
I4
ssg63
g927
sg56
(lp934
S'text/html,application/xhtml+xml,application/xml;q=0.9,*/*;q=0.8'
p935
asbasbasbag49
(g65
g51
NtRp936
(dp937
g54
(dp938
sg63
g753
sg56
(lp939
g49
(g70
g51
NtRp940
(dp941
g54
(dp942
g74
g75
ssg63
g936
sg56
(lp943
S'http_accept_charset'
p944
asbag49
(g70
g51
NtRp945
(dp946
g54
(dp947
g81
g82
ssg63
g936
sg56
(lp948
S':'
asbag49
(g70
g51
NtRp949
(dp950
g54
(dp951
sg63
g936
sg56
(lp952
g49
(g50
g51
NtRp953
(dp954
g54
(dp955
g62
I4
ssg63
g949
sg56
(lp956
S'ISO-8859-1,utf-8;q=0.7,*;q=0.3'
p957
asbasbasbag49
(g65
g51
NtRp958
(dp959
g54
(dp960
sg63
g753
sg56
(lp961
g49
(g70
g51
NtRp962
(dp963
g54
(dp964
g74
g75
ssg63
g958
sg56
(lp965
S'http_accept_encoding'
p966
asbag49
(g70
g51
NtRp967
(dp968
g54
(dp969
g81
g82
ssg63
g958
sg56
(lp970
S':'
asbag49
(g70
g51
NtRp971
(dp972
g54
(dp973
sg63
g958
sg56
(lp974
g49
(g50
g51
NtRp975
(dp976
g54
(dp977
g62
I4
ssg63
g971
sg56
(lp978
S'gzip,deflate,sdch'
p979
asbasbasbag49
(g65
g51
NtRp980
(dp981
g54
(dp982
sg63
g753
sg56
(lp983
g49
(g70
g51
NtRp984
(dp985
g54
(dp986
g74
g75
ssg63
g980
sg56
(lp987
S'http_accept_language'
p988
asbag49
(g70
g51
NtRp989
(dp990
g54
(dp991
g81
g82
ssg63
g980
sg56
(lp992
S':'
asbag49
(g70
g51
NtRp993
(dp994
g54
(dp995
sg63
g980
sg56
(lp996
g49
(g50
g51
NtRp997
(dp998
g54
(dp999
g62
I4
ssg63
g993
sg56
(lp1000
S'pt-BR,pt;q=0.8,en-US;q=0.6,en;q=0.4'
p1001
asbasbasbag49
(g65
g51
NtRp1002
(dp1003
g54
(dp1004
sg63
g753
sg56
(lp1005
g49
(g70
g51
NtRp1006
(dp1007
g54
(dp1008
g74
g75
ssg63
g1002
sg56
(lp1009
S'http_cache_control'
p1010
asbag49
(g70
g51
NtRp1011
(dp1012
g54
(dp1013
g81
g82
ssg63
g1002
sg56
(lp1014
S':'
asbag49
(g70
g51
NtRp1015
(dp1016
g54
(dp1017
sg63
g1002
sg56
(lp1018
g49
(g50
g51
NtRp1019
(dp1020
g54
(dp1021
g62
I4
ssg63
g1015
sg56
(lp1022
S'max-age=0'
p1023
asbasbasbag49
(g65
g51
NtRp1024
(dp1025
g54
(dp1026
sg63
g753
sg56
(lp1027
g49
(g70
g51
NtRp1028
(dp1029
g54
(dp1030
g74
g75
ssg63
g1024
sg56
(lp1031
S'http_connection'
p1032
asbag49
(g70
g51
NtRp1033
(dp1034
g54
(dp1035
g81
g82
ssg63
g1024
sg56
(lp1036
S':'
asbag49
(g70
g51
NtRp1037
(dp1038
g54
(dp1039
sg63
g1024
sg56
(lp1040
g49
(g50
g51
NtRp1041
(dp1042
g54
(dp1043
g62
I4
ssg63
g1037
sg56
(lp1044
S'keep-alive'
p1045
asbasbasbag49
(g65
g51
NtRp1046
(dp1047
g54
(dp1048
sg63
g753
sg56
(lp1049
g49
(g70
g51
NtRp1050
(dp1051
g54
(dp1052
g74
g75
ssg63
g1046
sg56
(lp1053
S'http_cookie'
p1054
asbag49
(g70
g51
NtRp1055
(dp1056
g54
(dp1057
g81
g82
ssg63
g1046
sg56
(lp1058
S':'
asbag49
(g70
g51
NtRp1059
(dp1060
g54
(dp1061
sg63
g1046
sg56
(lp1062
g49
(g50
g51
NtRp1063
(dp1064
g54
(dp1065
g62
I4
ssg63
g1059
sg56
(lp1066
S'session_id_welcome=127.0.0.1-76f3c1b1-2d56-4011-a35f-e7072ae8a814; session_id_unioeste_code=127.0.0.1-bc48ac14-a4c3-4aad-bdf5-edbbf68c575e; session_id_admin=127.0.0.1-b030b836-135a-4bad-8831-8a062289d8a4'
p1067
asbasbasbag49
(g65
g51
NtRp1068
(dp1069
g54
(dp1070
sg63
g753
sg56
(lp1071
g49
(g70
g51
NtRp1072
(dp1073
g54
(dp1074
g74
g75
ssg63
g1068
sg56
(lp1075
S'http_dnt'
p1076
asbag49
(g70
g51
NtRp1077
(dp1078
g54
(dp1079
g81
g82
ssg63
g1068
sg56
(lp1080
S':'
asbag49
(g70
g51
NtRp1081
(dp1082
g54
(dp1083
sg63
g1068
sg56
(lp1084
g49
(g50
g51
NtRp1085
(dp1086
g54
(dp1087
g62
I4
ssg63
g1081
sg56
(lp1088
S'1'
asbasbasbag49
(g65
g51
NtRp1089
(dp1090
g54
(dp1091
sg63
g753
sg56
(lp1092
g49
(g70
g51
NtRp1093
(dp1094
g54
(dp1095
g74
g75
ssg63
g1089
sg56
(lp1096
S'http_host'
p1097
asbag49
(g70
g51
NtRp1098
(dp1099
g54
(dp1100
g81
g82
ssg63
g1089
sg56
(lp1101
S':'
asbag49
(g70
g51
NtRp1102
(dp1103
g54
(dp1104
sg63
g1089
sg56
(lp1105
g49
(g50
g51
NtRp1106
(dp1107
g54
(dp1108
g62
I4
ssg63
g1102
sg56
(lp1109
S'127.0.0.1:8000'
p1110
asbasbasbag49
(g65
g51
NtRp1111
(dp1112
g54
(dp1113
sg63
g753
sg56
(lp1114
g49
(g70
g51
NtRp1115
(dp1116
g54
(dp1117
g74
g75
ssg63
g1111
sg56
(lp1118
S'http_user_agent'
p1119
asbag49
(g70
g51
NtRp1120
(dp1121
g54
(dp1122
g81
g82
ssg63
g1111
sg56
(lp1123
S':'
asbag49
(g70
g51
NtRp1124
(dp1125
g54
(dp1126
sg63
g1111
sg56
(lp1127
g49
(g50
g51
NtRp1128
(dp1129
g54
(dp1130
g62
I4
ssg63
g1124
sg56
(lp1131
S'Mozilla/5.0 (Windows NT 6.1; WOW64) AppleWebKit/536.11 (KHTML, like Gecko) Chrome/20.0.1132.57 Safari/536.11'
p1132
asbasbasbag49
(g65
g51
NtRp1133
(dp1134
g54
(dp1135
sg63
g753
sg56
(lp1136
g49
(g70
g51
NtRp1137
(dp1138
g54
(dp1139
g74
g75
ssg63
g1133
sg56
(lp1140
S'is_jython'
p1141
asbag49
(g70
g51
NtRp1142
(dp1143
g54
(dp1144
g81
g82
ssg63
g1133
sg56
(lp1145
S':'
asbag49
(g70
g51
NtRp1146
(dp1147
g54
(dp1148
sg63
g1133
sg56
(lp1149
g49
(g50
g51
NtRp1150
(dp1151
g54
(dp1152
g62
I4
ssg63
g1146
sg56
(lp1153
g92
asbasbasbag49
(g65
g51
NtRp1154
(dp1155
g54
(dp1156
sg63
g753
sg56
(lp1157
g49
(g70
g51
NtRp1158
(dp1159
g54
(dp1160
g74
g75
ssg63
g1154
sg56
(lp1161
S'is_pypy'
p1162
asbag49
(g70
g51
NtRp1163
(dp1164
g54
(dp1165
g81
g82
ssg63
g1154
sg56
(lp1166
S':'
asbag49
(g70
g51
NtRp1167
(dp1168
g54
(dp1169
sg63
g1154
sg56
(lp1170
g49
(g50
g51
NtRp1171
(dp1172
g54
(dp1173
g62
I4
ssg63
g1167
sg56
(lp1174
g92
asbasbasbag49
(g65
g51
NtRp1175
(dp1176
g54
(dp1177
sg63
g753
sg56
(lp1178
g49
(g70
g51
NtRp1179
(dp1180
g54
(dp1181
g74
g75
ssg63
g1175
sg56
(lp1182
S'path_info'
p1183
asbag49
(g70
g51
NtRp1184
(dp1185
g54
(dp1186
g81
g82
ssg63
g1175
sg56
(lp1187
S':'
asbag49
(g70
g51
NtRp1188
(dp1189
g54
(dp1190
sg63
g1175
sg56
(lp1191
g49
(g50
g51
NtRp1192
(dp1193
g54
(dp1194
g62
I4
ssg63
g1188
sg56
(lp1195
S'/unioeste_code/'
p1196
asbasbasbag49
(g65
g51
NtRp1197
(dp1198
g54
(dp1199
sg63
g753
sg56
(lp1200
g49
(g70
g51
NtRp1201
(dp1202
g54
(dp1203
g74
g75
ssg63
g1197
sg56
(lp1204
S'query_string'
p1205
asbag49
(g70
g51
NtRp1206
(dp1207
g54
(dp1208
g81
g82
ssg63
g1197
sg56
(lp1209
S':'
asbag49
(g70
g51
NtRp1210
(dp1211
g54
(dp1212
sg63
g1197
sg56
(lp1213
g49
(g50
g51
NtRp1214
(dp1215
g54
(dp1216
g62
I4
ssg63
g1210
sg56
(lp1217
S''
asbasbasbag49
(g65
g51
NtRp1218
(dp1219
g54
(dp1220
sg63
g753
sg56
(lp1221
g49
(g70
g51
NtRp1222
(dp1223
g54
(dp1224
g74
g75
ssg63
g1218
sg56
(lp1225
S'remote_addr'
p1226
asbag49
(g70
g51
NtRp1227
(dp1228
g54
(dp1229
g81
g82
ssg63
g1218
sg56
(lp1230
S':'
asbag49
(g70
g51
NtRp1231
(dp1232
g54
(dp1233
sg63
g1218
sg56
(lp1234
g49
(g50
g51
NtRp1235
(dp1236
g54
(dp1237
g62
I4
ssg63
g1231
sg56
(lp1238
g182
asbasbasbag49
(g65
g51
NtRp1239
(dp1240
g54
(dp1241
sg63
g753
sg56
(lp1242
g49
(g70
g51
NtRp1243
(dp1244
g54
(dp1245
g74
g75
ssg63
g1239
sg56
(lp1246
S'remote_port'
p1247
asbag49
(g70
g51
NtRp1248
(dp1249
g54
(dp1250
g81
g82
ssg63
g1239
sg56
(lp1251
S':'
asbag49
(g70
g51
NtRp1252
(dp1253
g54
(dp1254
sg63
g1239
sg56
(lp1255
g49
(g50
g51
NtRp1256
(dp1257
g54
(dp1258
g62
I4
ssg63
g1252
sg56
(lp1259
S'3906'
p1260
asbasbasbag49
(g65
g51
NtRp1261
(dp1262
g54
(dp1263
sg63
g753
sg56
(lp1264
g49
(g70
g51
NtRp1265
(dp1266
g54
(dp1267
g74
g75
ssg63
g1261
sg56
(lp1268
S'request_method'
p1269
asbag49
(g70
g51
NtRp1270
(dp1271
g54
(dp1272
g81
g82
ssg63
g1261
sg56
(lp1273
S':'
asbag49
(g70
g51
NtRp1274
(dp1275
g54
(dp1276
sg63
g1261
sg56
(lp1277
g49
(g50
g51
NtRp1278
(dp1279
g54
(dp1280
g62
I4
ssg63
g1274
sg56
(lp1281
S'GET'
p1282
asbasbasbag49
(g65
g51
NtRp1283
(dp1284
g54
(dp1285
sg63
g753
sg56
(lp1286
g49
(g70
g51
NtRp1287
(dp1288
g54
(dp1289
g74
g75
ssg63
g1283
sg56
(lp1290
S'script_name'
p1291
asbag49
(g70
g51
NtRp1292
(dp1293
g54
(dp1294
g81
g82
ssg63
g1283
sg56
(lp1295
S':'
asbag49
(g70
g51
NtRp1296
(dp1297
g54
(dp1298
sg63
g1283
sg56
(lp1299
g49
(g50
g51
NtRp1300
(dp1301
g54
(dp1302
g62
I4
ssg63
g1296
sg56
(lp1303
S''
asbasbasbag49
(g65
g51
NtRp1304
(dp1305
g54
(dp1306
sg63
g753
sg56
(lp1307
g49
(g70
g51
NtRp1308
(dp1309
g54
(dp1310
g74
g75
ssg63
g1304
sg56
(lp1311
S'server_name'
p1312
asbag49
(g70
g51
NtRp1313
(dp1314
g54
(dp1315
g81
g82
ssg63
g1304
sg56
(lp1316
S':'
asbag49
(g70
g51
NtRp1317
(dp1318
g54
(dp1319
sg63
g1304
sg56
(lp1320
g49
(g50
g51
NtRp1321
(dp1322
g54
(dp1323
g62
I4
ssg63
g1317
sg56
(lp1324
S'Pedro-PC'
p1325
asbasbasbag49
(g65
g51
NtRp1326
(dp1327
g54
(dp1328
sg63
g753
sg56
(lp1329
g49
(g70
g51
NtRp1330
(dp1331
g54
(dp1332
g74
g75
ssg63
g1326
sg56
(lp1333
S'server_port'
p1334
asbag49
(g70
g51
NtRp1335
(dp1336
g54
(dp1337
g81
g82
ssg63
g1326
sg56
(lp1338
S':'
asbag49
(g70
g51
NtRp1339
(dp1340
g54
(dp1341
sg63
g1326
sg56
(lp1342
g49
(g50
g51
NtRp1343
(dp1344
g54
(dp1345
g62
I4
ssg63
g1339
sg56
(lp1346
S'8000'
p1347
asbasbasbag49
(g65
g51
NtRp1348
(dp1349
g54
(dp1350
sg63
g753
sg56
(lp1351
g49
(g70
g51
NtRp1352
(dp1353
g54
(dp1354
g74
g75
ssg63
g1348
sg56
(lp1355
S'server_protocol'
p1356
asbag49
(g70
g51
NtRp1357
(dp1358
g54
(dp1359
g81
g82
ssg63
g1348
sg56
(lp1360
S':'
asbag49
(g70
g51
NtRp1361
(dp1362
g54
(dp1363
sg63
g1348
sg56
(lp1364
g49
(g50
g51
NtRp1365
(dp1366
g54
(dp1367
g62
I4
ssg63
g1361
sg56
(lp1368
S'HTTP/1.1'
p1369
asbasbasbag49
(g65
g51
NtRp1370
(dp1371
g54
(dp1372
sg63
g753
sg56
(lp1373
g49
(g70
g51
NtRp1374
(dp1375
g54
(dp1376
g74
g75
ssg63
g1370
sg56
(lp1377
S'server_software'
p1378
asbag49
(g70
g51
NtRp1379
(dp1380
g54
(dp1381
g81
g82
ssg63
g1370
sg56
(lp1382
S':'
asbag49
(g70
g51
NtRp1383
(dp1384
g54
(dp1385
sg63
g1370
sg56
(lp1386
g49
(g50
g51
NtRp1387
(dp1388
g54
(dp1389
g62
I4
ssg63
g1383
sg56
(lp1390
S'Rocket 1.2.4'
p1391
asbasbasbag49
(g65
g51
NtRp1392
(dp1393
g54
(dp1394
sg63
g753
sg56
(lp1395
g49
(g70
g51
NtRp1396
(dp1397
g54
(dp1398
g74
g75
ssg63
g1392
sg56
(lp1399
S'web2py_crontype'
p1400
asbag49
(g70
g51
NtRp1401
(dp1402
g54
(dp1403
g81
g82
ssg63
g1392
sg56
(lp1404
S':'
asbag49
(g70
g51
NtRp1405
(dp1406
g54
(dp1407
sg63
g1392
sg56
(lp1408
g49
(g50
g51
NtRp1409
(dp1410
g54
(dp1411
g62
I4
ssg63
g1405
sg56
(lp1412
S'hard'
p1413
asbasbasbag49
(g65
g51
NtRp1414
(dp1415
g54
(dp1416
sg63
g753
sg56
(lp1417
g49
(g70
g51
NtRp1418
(dp1419
g54
(dp1420
g74
g75
ssg63
g1414
sg56
(lp1421
S'web2py_path'
p1422
asbag49
(g70
g51
NtRp1423
(dp1424
g54
(dp1425
g81
g82
ssg63
g1414
sg56
(lp1426
S':'
asbag49
(g70
g51
NtRp1427
(dp1428
g54
(dp1429
sg63
g1414
sg56
(lp1430
g49
(g50
g51
NtRp1431
(dp1432
g54
(dp1433
g62
I4
ssg63
g1427
sg56
(lp1434
g800
asbasbasbag49
(g65
g51
NtRp1435
(dp1436
g54
(dp1437
sg63
g753
sg56
(lp1438
g49
(g70
g51
NtRp1439
(dp1440
g54
(dp1441
g74
g75
ssg63
g1435
sg56
(lp1442
S'web2py_version'
p1443
asbag49
(g70
g51
NtRp1444
(dp1445
g54
(dp1446
g81
g82
ssg63
g1435
sg56
(lp1447
S':'
asbag49
(g70
g51
NtRp1448
(dp1449
g54
(dp1450
sg63
g1435
sg56
(lp1451
g49
(g50
g51
NtRp1452
(dp1453
g54
(dp1454
g62
I4
ssg63
g1448
sg56
(lp1455
g49
(g58
g51
NtRp1456
(dp1457
g54
(dp1458
g62
I3
ssg63
Nsg56
(lp1459
g49
(g65
g51
NtRp1460
(dp1461
g54
(dp1462
sg63
g1456
sg56
(lp1463
g49
(g70
g51
NtRp1464
(dp1465
g54
(dp1466
sg63
g1460
sg56
(lp1467
g49
(g50
g51
NtRp1468
(dp1469
g54
(dp1470
g62
I3
ssg63
g1464
sg56
(lp1471
S'1'
asbasbasbag49
(g65
g51
NtRp1472
(dp1473
g54
(dp1474
sg63
g1456
sg56
(lp1475
g49
(g70
g51
NtRp1476
(dp1477
g54
(dp1478
sg63
g1472
sg56
(lp1479
g49
(g50
g51
NtRp1480
(dp1481
g54
(dp1482
g62
I3
ssg63
g1476
sg56
(lp1483
S'99'
p1484
asbasbasbag49
(g65
g51
NtRp1485
(dp1486
g54
(dp1487
sg63
g1456
sg56
(lp1488
g49
(g70
g51
NtRp1489
(dp1490
g54
(dp1491
sg63
g1485
sg56
(lp1492
g49
(g50
g51
NtRp1493
(dp1494
g54
(dp1495
g62
I3
ssg63
g1489
sg56
(lp1496
S'7'
asbasbasbag49
(g65
g51
NtRp1497
(dp1498
g54
(dp1499
sg63
g1456
sg56
(lp1500
g49
(g70
g51
NtRp1501
(dp1502
g54
(dp1503
sg63
g1497
sg56
(lp1504
g49
(g50
g51
NtRp1505
(dp1506
g54
(dp1507
g62
I3
ssg63
g1501
sg56
(lp1508
S'datetime.datetime(2012, 3, 4, 22, 12, 8)'
p1509
asbasbasbag49
(g65
g51
NtRp1510
(dp1511
g54
(dp1512
sg63
g1456
sg56
(lp1513
g49
(g70
g51
NtRp1514
(dp1515
g54
(dp1516
sg63
g1510
sg56
(lp1517
g49
(g50
g51
NtRp1518
(dp1519
g54
(dp1520
g62
I3
ssg63
g1514
sg56
(lp1521
S'stable'
p1522
asbasbasbasbasbasbasbag49
(g65
g51
NtRp1523
(dp1524
g54
(dp1525
sg63
g753
sg56
(lp1526
g49
(g70
g51
NtRp1527
(dp1528
g54
(dp1529
g74
g75
ssg63
g1523
sg56
(lp1530
S'wsgi_errors'
p1531
asbag49
(g70
g51
NtRp1532
(dp1533
g54
(dp1534
g81
g82
ssg63
g1523
sg56
(lp1535
S':'
asbag49
(g70
g51
NtRp1536
(dp1537
g54
(dp1538
sg63
g1523
sg56
(lp1539
g49
(g50
g51
NtRp1540
(dp1541
g54
(dp1542
g62
I4
ssg63
g1536
sg56
(lp1543
S'<__main__.Stderr object at 0x00356670>'
p1544
asbasbasbag49
(g65
g51
NtRp1545
(dp1546
g54
(dp1547
sg63
g753
sg56
(lp1548
g49
(g70
g51
NtRp1549
(dp1550
g54
(dp1551
g74
g75
ssg63
g1545
sg56
(lp1552
S'wsgi_file_wrapper'
p1553
asbag49
(g70
g51
NtRp1554
(dp1555
g54
(dp1556
g81
g82
ssg63
g1545
sg56
(lp1557
S':'
asbag49
(g70
g51
NtRp1558
(dp1559
g54
(dp1560
sg63
g1545
sg56
(lp1561
g49
(g50
g51
NtRp1562
(dp1563
g54
(dp1564
g62
I4
ssg63
g1558
sg56
(lp1565
S'<class wsgiref.util.FileWrapper at 0x02FCDE10>'
p1566
asbasbasbag49
(g65
g51
NtRp1567
(dp1568
g54
(dp1569
sg63
g753
sg56
(lp1570
g49
(g70
g51
NtRp1571
(dp1572
g54
(dp1573
g74
g75
ssg63
g1567
sg56
(lp1574
S'wsgi_input'
p1575
asbag49
(g70
g51
NtRp1576
(dp1577
g54
(dp1578
g81
g82
ssg63
g1567
sg56
(lp1579
S':'
asbag49
(g70
g51
NtRp1580
(dp1581
g54
(dp1582
sg63
g1567
sg56
(lp1583
g49
(g50
g51
NtRp1584
(dp1585
g54
(dp1586
g62
I4
ssg63
g1580
sg56
(lp1587
S'<socket._fileobject object at 0x084781B0>'
p1588
asbasbasbag49
(g65
g51
NtRp1589
(dp1590
g54
(dp1591
sg63
g753
sg56
(lp1592
g49
(g70
g51
NtRp1593
(dp1594
g54
(dp1595
g74
g75
ssg63
g1589
sg56
(lp1596
S'wsgi_multiprocess'
p1597
asbag49
(g70
g51
NtRp1598
(dp1599
g54
(dp1600
g81
g82
ssg63
g1589
sg56
(lp1601
S':'
asbag49
(g70
g51
NtRp1602
(dp1603
g54
(dp1604
sg63
g1589
sg56
(lp1605
g49
(g50
g51
NtRp1606
(dp1607
g54
(dp1608
g62
I4
ssg63
g1602
sg56
(lp1609
g92
asbasbasbag49
(g65
g51
NtRp1610
(dp1611
g54
(dp1612
sg63
g753
sg56
(lp1613
g49
(g70
g51
NtRp1614
(dp1615
g54
(dp1616
g74
g75
ssg63
g1610
sg56
(lp1617
S'wsgi_multithread'
p1618
asbag49
(g70
g51
NtRp1619
(dp1620
g54
(dp1621
g81
g82
ssg63
g1610
sg56
(lp1622
S':'
asbag49
(g70
g51
NtRp1623
(dp1624
g54
(dp1625
sg63
g1610
sg56
(lp1626
g49
(g50
g51
NtRp1627
(dp1628
g54
(dp1629
g62
I4
ssg63
g1623
sg56
(lp1630
g891
asbasbasbag49
(g65
g51
NtRp1631
(dp1632
g54
(dp1633
sg63
g753
sg56
(lp1634
g49
(g70
g51
NtRp1635
(dp1636
g54
(dp1637
g74
g75
ssg63
g1631
sg56
(lp1638
S'wsgi_run_once'
p1639
asbag49
(g70
g51
NtRp1640
(dp1641
g54
(dp1642
g81
g82
ssg63
g1631
sg56
(lp1643
S':'
asbag49
(g70
g51
NtRp1644
(dp1645
g54
(dp1646
sg63
g1631
sg56
(lp1647
g49
(g50
g51
NtRp1648
(dp1649
g54
(dp1650
g62
I4
ssg63
g1644
sg56
(lp1651
g92
asbasbasbag49
(g65
g51
NtRp1652
(dp1653
g54
(dp1654
sg63
g753
sg56
(lp1655
g49
(g70
g51
NtRp1656
(dp1657
g54
(dp1658
g74
g75
ssg63
g1652
sg56
(lp1659
S'wsgi_url_scheme'
p1660
asbag49
(g70
g51
NtRp1661
(dp1662
g54
(dp1663
g81
g82
ssg63
g1652
sg56
(lp1664
S':'
asbag49
(g70
g51
NtRp1665
(dp1666
g54
(dp1667
sg63
g1652
sg56
(lp1668
g49
(g50
g51
NtRp1669
(dp1670
g54
(dp1671
g62
I4
ssg63
g1665
sg56
(lp1672
S'http'
p1673
asbasbasbag49
(g65
g51
NtRp1674
(dp1675
g54
(dp1676
sg63
g753
sg56
(lp1677
g49
(g70
g51
NtRp1678
(dp1679
g54
(dp1680
g74
g75
ssg63
g1674
sg56
(lp1681
S'wsgi_version'
p1682
asbag49
(g70
g51
NtRp1683
(dp1684
g54
(dp1685
g81
g82
ssg63
g1674
sg56
(lp1686
S':'
asbag49
(g70
g51
NtRp1687
(dp1688
g54
(dp1689
sg63
g1674
sg56
(lp1690
g49
(g50
g51
NtRp1691
(dp1692
g54
(dp1693
g62
I4
ssg63
g1687
sg56
(lp1694
g49
(g58
g51
NtRp1695
(dp1696
g54
(dp1697
g62
I3
ssg63
Nsg56
(lp1698
g49
(g65
g51
NtRp1699
(dp1700
g54
(dp1701
sg63
g1695
sg56
(lp1702
g49
(g70
g51
NtRp1703
(dp1704
g54
(dp1705
sg63
g1699
sg56
(lp1706
g49
(g50
g51
NtRp1707
(dp1708
g54
(dp1709
g62
I3
ssg63
g1703
sg56
(lp1710
S'1'
asbasbasbag49
(g65
g51
NtRp1711
(dp1712
g54
(dp1713
sg63
g1695
sg56
(lp1714
g49
(g70
g51
NtRp1715
(dp1716
g54
(dp1717
sg63
g1711
sg56
(lp1718
g49
(g50
g51
NtRp1719
(dp1720
g54
(dp1721
g62
I3
ssg63
g1715
sg56
(lp1722
S'0'
asbasbasbasbasbasbasbasbasbasbasbag49
(g65
g51
NtRp1723
(dp1724
g54
(dp1725
sg63
g59
sg56
(lp1726
g49
(g70
g51
NtRp1727
(dp1728
g54
(dp1729
g74
g75
ssg63
g1723
sg56
(lp1730
S'extension'
p1731
asbag49
(g70
g51
NtRp1732
(dp1733
g54
(dp1734
g81
g82
ssg63
g1723
sg56
(lp1735
S':'
asbag49
(g70
g51
NtRp1736
(dp1737
g54
(dp1738
sg63
g1723
sg56
(lp1739
g49
(g50
g51
NtRp1740
(dp1741
g54
(dp1742
g62
I5
ssg63
g1736
sg56
(lp1743
S'html'
p1744
asbasbasbag49
(g65
g51
NtRp1745
(dp1746
g54
(dp1747
sg63
g59
sg56
(lp1748
g49
(g70
g51
NtRp1749
(dp1750
g54
(dp1751
g74
g75
ssg63
g1745
sg56
(lp1752
S'folder'
p1753
asbag49
(g70
g51
NtRp1754
(dp1755
g54
(dp1756
g81
g82
ssg63
g1745
sg56
(lp1757
S':'
asbag49
(g70
g51
NtRp1758
(dp1759
g54
(dp1760
sg63
g1745
sg56
(lp1761
g49
(g50
g51
NtRp1762
(dp1763
g54
(dp1764
g62
I5
ssg63
g1758
sg56
(lp1765
S'C:\\web2py\\applications\\unioeste_code\\'
p1766
asbasbasbag49
(g65
g51
NtRp1767
(dp1768
g54
(dp1769
sg63
g59
sg56
(lp1770
g49
(g70
g51
NtRp1771
(dp1772
g54
(dp1773
g74
g75
ssg63
g1767
sg56
(lp1774
S'function'
p1775
asbag49
(g70
g51
NtRp1776
(dp1777
g54
(dp1778
g81
g82
ssg63
g1767
sg56
(lp1779
S':'
asbag49
(g70
g51
NtRp1780
(dp1781
g54
(dp1782
sg63
g1767
sg56
(lp1783
g49
(g50
g51
NtRp1784
(dp1785
g54
(dp1786
g62
I5
ssg63
g1780
sg56
(lp1787
S'index'
p1788
asbasbasbag49
(g65
g51
NtRp1789
(dp1790
g54
(dp1791
sg63
g59
sg56
(lp1792
g49
(g70
g51
NtRp1793
(dp1794
g54
(dp1795
g74
g75
ssg63
g1789
sg56
(lp1796
S'get_vars'
p1797
asbag49
(g70
g51
NtRp1798
(dp1799
g54
(dp1800
g81
g82
ssg63
g1789
sg56
(lp1801
S':'
asbag49
(g70
g51
NtRp1802
(dp1803
g54
(dp1804
sg63
g1789
sg56
(lp1805
g49
(g50
g51
NtRp1806
(dp1807
g54
(dp1808
g62
I5
ssg63
g1802
sg56
(lp1809
g49
(g58
g51
NtRp1810
(dp1811
g54
(dp1812
g62
I4
ssg63
Nsg56
(lp1813
sbasbasbasbag49
(g65
g51
NtRp1814
(dp1815
g54
(dp1816
sg63
g59
sg56
(lp1817
g49
(g70
g51
NtRp1818
(dp1819
g54
(dp1820
g74
g75
ssg63
g1814
sg56
(lp1821
S'global_settings'
p1822
asbag49
(g70
g51
NtRp1823
(dp1824
g54
(dp1825
g81
g82
ssg63
g1814
sg56
(lp1826
S':'
asbag49
(g70
g51
NtRp1827
(dp1828
g54
(dp1829
sg63
g1814
sg56
(lp1830
g49
(g50
g51
NtRp1831
(dp1832
g54
(dp1833
g62
I5
ssg63
g1827
sg56
(lp1834
g49
(g58
g51
NtRp1835
(dp1836
g54
(dp1837
g62
I4
ssg63
Nsg56
(lp1838
g49
(g65
g51
NtRp1839
(dp1840
g54
(dp1841
sg63
g1835
sg56
(lp1842
g49
(g70
g51
NtRp1843
(dp1844
g54
(dp1845
g74
g75
ssg63
g1839
sg56
(lp1846
g765
asbag49
(g70
g51
NtRp1847
(dp1848
g54
(dp1849
g81
g82
ssg63
g1839
sg56
(lp1850
S':'
asbag49
(g70
g51
NtRp1851
(dp1852
g54
(dp1853
sg63
g1839
sg56
(lp1854
g49
(g50
g51
NtRp1855
(dp1856
g54
(dp1857
g62
I4
ssg63
g1851
sg56
(lp1858
S"set(['C:\\\\web2py\\\\applications\\\\admin\\\\', 'C:\\\\web2py\\\\applications\\\\welcome\\\\', 'C:\\\\web2py\\\\applications\\\\unioeste_code\\\\'])"
p1859
asbasbasbag49
(g65
g51
NtRp1860
(dp1861
g54
(dp1862
sg63
g1835
sg56
(lp1863
g49
(g70
g51
NtRp1864
(dp1865
g54
(dp1866
g74
g75
ssg63
g1860
sg56
(lp1867
g787
asbag49
(g70
g51
NtRp1868
(dp1869
g54
(dp1870
g81
g82
ssg63
g1860
sg56
(lp1871
S':'
asbag49
(g70
g51
NtRp1872
(dp1873
g54
(dp1874
sg63
g1860
sg56
(lp1875
g49
(g50
g51
NtRp1876
(dp1877
g54
(dp1878
g62
I4
ssg63
g1872
sg56
(lp1879
g800
asbasbasbag49
(g65
g51
NtRp1880
(dp1881
g54
(dp1882
sg63
g1835
sg56
(lp1883
g49
(g70
g51
NtRp1884
(dp1885
g54
(dp1886
g74
g75
ssg63
g1880
sg56
(lp1887
g809
asbag49
(g70
g51
NtRp1888
(dp1889
g54
(dp1890
g81
g82
ssg63
g1880
sg56
(lp1891
S':'
asbag49
(g70
g51
NtRp1892
(dp1893
g54
(dp1894
sg63
g1880
sg56
(lp1895
g49
(g50
g51
NtRp1896
(dp1897
g54
(dp1898
g62
I4
ssg63
g1892
sg56
(lp1899
g49
(g58
g51
NtRp1900
(dp1901
g54
(dp1902
g62
I3
ssg63
Nsg56
(lp1903
sbasbasbasbag49
(g65
g51
NtRp1904
(dp1905
g54
(dp1906
sg63
g1835
sg56
(lp1907
g49
(g70
g51
NtRp1908
(dp1909
g54
(dp1910
g74
g75
ssg63
g1904
sg56
(lp1911
g834
asbag49
(g70
g51
NtRp1912
(dp1913
g54
(dp1914
g81
g82
ssg63
g1904
sg56
(lp1915
S':'
asbag49
(g70
g51
NtRp1916
(dp1917
g54
(dp1918
sg63
g1904
sg56
(lp1919
g49
(g50
g51
NtRp1920
(dp1921
g54
(dp1922
g62
I4
ssg63
g1916
sg56
(lp1923
S"<Values at 0x31dc300: {'verbose': False, 'ip': '127.0.0.1', 'shutdown_timeout': 5, 'taskbar': False, 'nocron': False, 'pid_filename': 'httpserver.pid', 'maxthreads': None, 'softcron': False, 'server_name': 'Pedro-PC', 'bpython': False, 'nogui': False, 'port': 8000, 'extcron': False, 'debuglevel': 30, 'test': None, 'folder': 'C:\\\\web2py', 'config': '', 'import_models': False, 'winservice': '', 'shell': None, 'run': '', 'log_filename': 'httpserver.log', 'args': [''], 'socket_timeout': 5, 'ssl_ca_certificate': None, 'scheduler': None, 'profiler_filename': None, 'ssl_private_key': '', 'password': '<ask>', 'request_queue_size': 5, 'ssl_certificate': '', 'cronjob': False, 'numthreads': None, 'quiet': False, 'interfaces': None, 'minthreads': None, 'timeout': 10, 'plain': False, 'nobanner': False}>"
p1924
asbasbasbag49
(g65
g51
NtRp1925
(dp1926
g54
(dp1927
sg63
g1835
sg56
(lp1928
g49
(g70
g51
NtRp1929
(dp1930
g54
(dp1931
g74
g75
ssg63
g1925
sg56
(lp1932
g856
asbag49
(g70
g51
NtRp1933
(dp1934
g54
(dp1935
g81
g82
ssg63
g1925
sg56
(lp1936
S':'
asbag49
(g70
g51
NtRp1937
(dp1938
g54
(dp1939
sg63
g1925
sg56
(lp1940
g49
(g50
g51
NtRp1941
(dp1942
g54
(dp1943
g62
I4
ssg63
g1937
sg56
(lp1944
S'set([])'
p1945
asbasbasbag49
(g65
g51
NtRp1946
(dp1947
g54
(dp1948
sg63
g1835
sg56
(lp1949
g49
(g70
g51
NtRp1950
(dp1951
g54
(dp1952
g74
g75
ssg63
g1946
sg56
(lp1953
g878
asbag49
(g70
g51
NtRp1954
(dp1955
g54
(dp1956
g81
g82
ssg63
g1946
sg56
(lp1957
S':'
asbag49
(g70
g51
NtRp1958
(dp1959
g54
(dp1960
sg63
g1946
sg56
(lp1961
g49
(g50
g51
NtRp1962
(dp1963
g54
(dp1964
g62
I4
ssg63
g1958
sg56
(lp1965
g891
asbasbasbag49
(g65
g51
NtRp1966
(dp1967
g54
(dp1968
sg63
g1835
sg56
(lp1969
g49
(g70
g51
NtRp1970
(dp1971
g54
(dp1972
g74
g75
ssg63
g1966
sg56
(lp1973
g900
asbag49
(g70
g51
NtRp1974
(dp1975
g54
(dp1976
g81
g82
ssg63
g1966
sg56
(lp1977
S':'
asbag49
(g70
g51
NtRp1978
(dp1979
g54
(dp1980
sg63
g1966
sg56
(lp1981
g49
(g50
g51
NtRp1982
(dp1983
g54
(dp1984
g62
I4
ssg63
g1978
sg56
(lp1985
g913
asbasbasbag49
(g65
g51
NtRp1986
(dp1987
g54
(dp1988
sg63
g1835
sg56
(lp1989
g49
(g70
g51
NtRp1990
(dp1991
g54
(dp1992
g74
g75
ssg63
g1986
sg56
(lp1993
g1141
asbag49
(g70
g51
NtRp1994
(dp1995
g54
(dp1996
g81
g82
ssg63
g1986
sg56
(lp1997
S':'
asbag49
(g70
g51
NtRp1998
(dp1999
g54
(dp2000
sg63
g1986
sg56
(lp2001
g49
(g50
g51
NtRp2002
(dp2003
g54
(dp2004
g62
I4
ssg63
g1998
sg56
(lp2005
g92
asbasbasbag49
(g65
g51
NtRp2006
(dp2007
g54
(dp2008
sg63
g1835
sg56
(lp2009
g49
(g70
g51
NtRp2010
(dp2011
g54
(dp2012
g74
g75
ssg63
g2006
sg56
(lp2013
g1162
asbag49
(g70
g51
NtRp2014
(dp2015
g54
(dp2016
g81
g82
ssg63
g2006
sg56
(lp2017
S':'
asbag49
(g70
g51
NtRp2018
(dp2019
g54
(dp2020
sg63
g2006
sg56
(lp2021
g49
(g50
g51
NtRp2022
(dp2023
g54
(dp2024
g62
I4
ssg63
g2018
sg56
(lp2025
g92
asbasbasbag49
(g65
g51
NtRp2026
(dp2027
g54
(dp2028
sg63
g1835
sg56
(lp2029
g49
(g70
g51
NtRp2030
(dp2031
g54
(dp2032
g74
g75
ssg63
g2026
sg56
(lp2033
g1400
asbag49
(g70
g51
NtRp2034
(dp2035
g54
(dp2036
g81
g82
ssg63
g2026
sg56
(lp2037
S':'
asbag49
(g70
g51
NtRp2038
(dp2039
g54
(dp2040
sg63
g2026
sg56
(lp2041
g49
(g50
g51
NtRp2042
(dp2043
g54
(dp2044
g62
I4
ssg63
g2038
sg56
(lp2045
g1413
asbasbasbag49
(g65
g51
NtRp2046
(dp2047
g54
(dp2048
sg63
g1835
sg56
(lp2049
g49
(g70
g51
NtRp2050
(dp2051
g54
(dp2052
g74
g75
ssg63
g2046
sg56
(lp2053
g1443
asbag49
(g70
g51
NtRp2054
(dp2055
g54
(dp2056
g81
g82
ssg63
g2046
sg56
(lp2057
S':'
asbag49
(g70
g51
NtRp2058
(dp2059
g54
(dp2060
sg63
g2046
sg56
(lp2061
g49
(g50
g51
NtRp2062
(dp2063
g54
(dp2064
g62
I4
ssg63
g2058
sg56
(lp2065
g49
(g58
g51
NtRp2066
(dp2067
g54
(dp2068
g62
I3
ssg63
Nsg56
(lp2069
g49
(g65
g51
NtRp2070
(dp2071
g54
(dp2072
sg63
g2066
sg56
(lp2073
g49
(g70
g51
NtRp2074
(dp2075
g54
(dp2076
sg63
g2070
sg56
(lp2077
g49
(g50
g51
NtRp2078
(dp2079
g54
(dp2080
g62
I3
ssg63
g2074
sg56
(lp2081
S'1'
asbasbasbag49
(g65
g51
NtRp2082
(dp2083
g54
(dp2084
sg63
g2066
sg56
(lp2085
g49
(g70
g51
NtRp2086
(dp2087
g54
(dp2088
sg63
g2082
sg56
(lp2089
g49
(g50
g51
NtRp2090
(dp2091
g54
(dp2092
g62
I3
ssg63
g2086
sg56
(lp2093
S'99'
p2094
asbasbasbag49
(g65
g51
NtRp2095
(dp2096
g54
(dp2097
sg63
g2066
sg56
(lp2098
g49
(g70
g51
NtRp2099
(dp2100
g54
(dp2101
sg63
g2095
sg56
(lp2102
g49
(g50
g51
NtRp2103
(dp2104
g54
(dp2105
g62
I3
ssg63
g2099
sg56
(lp2106
S'7'
asbasbasbag49
(g65
g51
NtRp2107
(dp2108
g54
(dp2109
sg63
g2066
sg56
(lp2110
g49
(g70
g51
NtRp2111
(dp2112
g54
(dp2113
sg63
g2107
sg56
(lp2114
g49
(g50
g51
NtRp2115
(dp2116
g54
(dp2117
g62
I3
ssg63
g2111
sg56
(lp2118
S'datetime.datetime(2012, 3, 4, 22, 12, 8)'
p2119
asbasbasbag49
(g65
g51
NtRp2120
(dp2121
g54
(dp2122
sg63
g2066
sg56
(lp2123
g49
(g70
g51
NtRp2124
(dp2125
g54
(dp2126
sg63
g2120
sg56
(lp2127
g49
(g50
g51
NtRp2128
(dp2129
g54
(dp2130
g62
I3
ssg63
g2124
sg56
(lp2131
g1522
asbasbasbasbasbasbasbasbasbasbasbag49
(g65
g51
NtRp2132
(dp2133
g54
(dp2134
sg63
g59
sg56
(lp2135
g49
(g70
g51
NtRp2136
(dp2137
g54
(dp2138
g74
g75
ssg63
g2132
sg56
(lp2139
S'is_https'
p2140
asbag49
(g70
g51
NtRp2141
(dp2142
g54
(dp2143
g81
g82
ssg63
g2132
sg56
(lp2144
S':'
asbag49
(g70
g51
NtRp2145
(dp2146
g54
(dp2147
sg63
g2132
sg56
(lp2148
g49
(g50
g51
NtRp2149
(dp2150
g54
(dp2151
g62
I5
ssg63
g2145
sg56
(lp2152
g92
asbasbasbag49
(g65
g51
NtRp2153
(dp2154
g54
(dp2155
sg63
g59
sg56
(lp2156
g49
(g70
g51
NtRp2157
(dp2158
g54
(dp2159
g74
g75
ssg63
g2153
sg56
(lp2160
S'is_local'
p2161
asbag49
(g70
g51
NtRp2162
(dp2163
g54
(dp2164
g81
g82
ssg63
g2153
sg56
(lp2165
S':'
asbag49
(g70
g51
NtRp2166
(dp2167
g54
(dp2168
sg63
g2153
sg56
(lp2169
g49
(g50
g51
NtRp2170
(dp2171
g54
(dp2172
g62
I5
ssg63
g2166
sg56
(lp2173
g891
asbasbasbag49
(g65
g51
NtRp2174
(dp2175
g54
(dp2176
sg63
g59
sg56
(lp2177
g49
(g70
g51
NtRp2178
(dp2179
g54
(dp2180
g74
g75
ssg63
g2174
sg56
(lp2181
S'is_restful'
p2182
asbag49
(g70
g51
NtRp2183
(dp2184
g54
(dp2185
g81
g82
ssg63
g2174
sg56
(lp2186
S':'
asbag49
(g70
g51
NtRp2187
(dp2188
g54
(dp2189
sg63
g2174
sg56
(lp2190
g49
(g50
g51
NtRp2191
(dp2192
g54
(dp2193
g62
I5
ssg63
g2187
sg56
(lp2194
g92
asbasbasbag49
(g65
g51
NtRp2195
(dp2196
g54
(dp2197
sg63
g59
sg56
(lp2198
g49
(g70
g51
NtRp2199
(dp2200
g54
(dp2201
g74
g75
ssg63
g2195
sg56
(lp2202
S'now'
p2203
asbag49
(g70
g51
NtRp2204
(dp2205
g54
(dp2206
g81
g82
ssg63
g2195
sg56
(lp2207
S':'
asbag49
(g70
g51
NtRp2208
(dp2209
g54
(dp2210
sg63
g2195
sg56
(lp2211
g49
(g50
g51
NtRp2212
(dp2213
g54
(dp2214
g62
I5
ssg63
g2208
sg56
(lp2215
S'datetime.datetime(2012, 7, 30, 23, 10, 11, 467000)'
p2216
asbasbasbag49
(g65
g51
NtRp2217
(dp2218
g54
(dp2219
sg63
g59
sg56
(lp2220
g49
(g70
g51
NtRp2221
(dp2222
g54
(dp2223
g74
g75
ssg63
g2217
sg56
(lp2224
S'post_vars'
p2225
asbag49
(g70
g51
NtRp2226
(dp2227
g54
(dp2228
g81
g82
ssg63
g2217
sg56
(lp2229
S':'
asbag49
(g70
g51
NtRp2230
(dp2231
g54
(dp2232
sg63
g2217
sg56
(lp2233
g49
(g50
g51
NtRp2234
(dp2235
g54
(dp2236
g62
I5
ssg63
g2230
sg56
(lp2237
g49
(g58
g51
NtRp2238
(dp2239
g54
(dp2240
g62
I4
ssg63
Nsg56
(lp2241
sbasbasbasbag49
(g65
g51
NtRp2242
(dp2243
g54
(dp2244
sg63
g59
sg56
(lp2245
g49
(g70
g51
NtRp2246
(dp2247
g54
(dp2248
g74
g75
ssg63
g2242
sg56
(lp2249
S'url'
p2250
asbag49
(g70
g51
NtRp2251
(dp2252
g54
(dp2253
g81
g82
ssg63
g2242
sg56
(lp2254
S':'
asbag49
(g70
g51
NtRp2255
(dp2256
g54
(dp2257
sg63
g2242
sg56
(lp2258
g49
(g50
g51
NtRp2259
(dp2260
g54
(dp2261
g62
I5
ssg63
g2255
sg56
(lp2262
S'/unioeste_code/default/index'
p2263
asbasbasbag49
(g65
g51
NtRp2264
(dp2265
g54
(dp2266
sg63
g59
sg56
(lp2267
g49
(g70
g51
NtRp2268
(dp2269
g54
(dp2270
g74
g75
ssg63
g2264
sg56
(lp2271
S'utcnow'
p2272
asbag49
(g70
g51
NtRp2273
(dp2274
g54
(dp2275
g81
g82
ssg63
g2264
sg56
(lp2276
S':'
asbag49
(g70
g51
NtRp2277
(dp2278
g54
(dp2279
sg63
g2264
sg56
(lp2280
g49
(g50
g51
NtRp2281
(dp2282
g54
(dp2283
g62
I5
ssg63
g2277
sg56
(lp2284
S'datetime.datetime(2012, 7, 31, 2, 10, 11, 467000)'
p2285
asbasbasbag49
(g65
g51
NtRp2286
(dp2287
g54
(dp2288
sg63
g59
sg56
(lp2289
g49
(g70
g51
NtRp2290
(dp2291
g54
(dp2292
g74
g75
ssg63
g2286
sg56
(lp2293
S'uuid'
p2294
asbag49
(g70
g51
NtRp2295
(dp2296
g54
(dp2297
g81
g82
ssg63
g2286
sg56
(lp2298
S':'
asbag49
(g70
g51
NtRp2299
(dp2300
g54
(dp2301
sg63
g2286
sg56
(lp2302
g49
(g50
g51
NtRp2303
(dp2304
g54
(dp2305
g62
I5
ssg63
g2299
sg56
(lp2306
S'unioeste_code/127.0.0.1.2012-07-30.23-10-11.ba573fd9-504c-439f-9eac-35abec5904f8'
p2307
asbasbasbag49
(g65
g51
NtRp2308
(dp2309
g54
(dp2310
sg63
g59
sg56
(lp2311
g49
(g70
g51
NtRp2312
(dp2313
g54
(dp2314
g74
g75
ssg63
g2308
sg56
(lp2315
S'vars'
p2316
asbag49
(g70
g51
NtRp2317
(dp2318
g54
(dp2319
g81
g82
ssg63
g2308
sg56
(lp2320
S':'
asbag49
(g70
g51
NtRp2321
(dp2322
g54
(dp2323
sg63
g2308
sg56
(lp2324
g49
(g50
g51
NtRp2325
(dp2326
g54
(dp2327
g62
I5
ssg63
g2321
sg56
(lp2328
g49
(g58
g51
NtRp2329
(dp2330
g54
(dp2331
g62
I4
ssg63
Nsg56
(lp2332
sbasbasbasbag49
(g65
g51
NtRp2333
(dp2334
g54
(dp2335
sg63
g59
sg56
(lp2336
g49
(g70
g51
NtRp2337
(dp2338
g54
(dp2339
g74
g75
ssg63
g2333
sg56
(lp2340
S'wsgi'
p2341
asbag49
(g70
g51
NtRp2342
(dp2343
g54
(dp2344
g81
g82
ssg63
g2333
sg56
(lp2345
S':'
asbag49
(g70
g51
NtRp2346
(dp2347
g54
(dp2348
sg63
g2333
sg56
(lp2349
g49
(g50
g51
NtRp2350
(dp2351
g54
(dp2352
g62
I5
ssg63
g2346
sg56
(lp2353
g49
(g58
g51
NtRp2354
(dp2355
g54
(dp2356
g62
I4
ssg63
Nsg56
(lp2357
g49
(g65
g51
NtRp2358
(dp2359
g54
(dp2360
sg63
g2354
sg56
(lp2361
g49
(g70
g51
NtRp2362
(dp2363
g54
(dp2364
g74
g75
ssg63
g2358
sg56
(lp2365
S'environ'
p2366
asbag49
(g70
g51
NtRp2367
(dp2368
g54
(dp2369
g81
g82
ssg63
g2358
sg56
(lp2370
S':'
asbag49
(g70
g51
NtRp2371
(dp2372
g54
(dp2373
sg63
g2358
sg56
(lp2374
g49
(g50
g51
NtRp2375
(dp2376
g54
(dp2377
g62
I4
ssg63
g2371
sg56
(lp2378
g49
(g58
g51
NtRp2379
(dp2380
g54
(dp2381
g62
I3
ssg63
Nsg56
(lp2382
g49
(g65
g51
NtRp2383
(dp2384
g54
(dp2385
sg63
g2379
sg56
(lp2386
g49
(g70
g51
NtRp2387
(dp2388
g54
(dp2389
g74
g75
ssg63
g2383
sg56
(lp2390
S'HTTP_ACCEPT'
p2391
asbag49
(g70
g51
NtRp2392
(dp2393
g54
(dp2394
g81
g82
ssg63
g2383
sg56
(lp2395
S':'
asbag49
(g70
g51
NtRp2396
(dp2397
g54
(dp2398
sg63
g2383
sg56
(lp2399
g49
(g50
g51
NtRp2400
(dp2401
g54
(dp2402
g62
I3
ssg63
g2396
sg56
(lp2403
g935
asbasbasbag49
(g65
g51
NtRp2404
(dp2405
g54
(dp2406
sg63
g2379
sg56
(lp2407
g49
(g70
g51
NtRp2408
(dp2409
g54
(dp2410
g74
g75
ssg63
g2404
sg56
(lp2411
S'HTTP_ACCEPT_CHARSET'
p2412
asbag49
(g70
g51
NtRp2413
(dp2414
g54
(dp2415
g81
g82
ssg63
g2404
sg56
(lp2416
S':'
asbag49
(g70
g51
NtRp2417
(dp2418
g54
(dp2419
sg63
g2404
sg56
(lp2420
g49
(g50
g51
NtRp2421
(dp2422
g54
(dp2423
g62
I3
ssg63
g2417
sg56
(lp2424
g957
asbasbasbag49
(g65
g51
NtRp2425
(dp2426
g54
(dp2427
sg63
g2379
sg56
(lp2428
g49
(g70
g51
NtRp2429
(dp2430
g54
(dp2431
g74
g75
ssg63
g2425
sg56
(lp2432
S'HTTP_ACCEPT_ENCODING'
p2433
asbag49
(g70
g51
NtRp2434
(dp2435
g54
(dp2436
g81
g82
ssg63
g2425
sg56
(lp2437
S':'
asbag49
(g70
g51
NtRp2438
(dp2439
g54
(dp2440
sg63
g2425
sg56
(lp2441
g49
(g50
g51
NtRp2442
(dp2443
g54
(dp2444
g62
I3
ssg63
g2438
sg56
(lp2445
g979
asbasbasbag49
(g65
g51
NtRp2446
(dp2447
g54
(dp2448
sg63
g2379
sg56
(lp2449
g49
(g70
g51
NtRp2450
(dp2451
g54
(dp2452
g74
g75
ssg63
g2446
sg56
(lp2453
S'HTTP_ACCEPT_LANGUAGE'
p2454
asbag49
(g70
g51
NtRp2455
(dp2456
g54
(dp2457
g81
g82
ssg63
g2446
sg56
(lp2458
S':'
asbag49
(g70
g51
NtRp2459
(dp2460
g54
(dp2461
sg63
g2446
sg56
(lp2462
g49
(g50
g51
NtRp2463
(dp2464
g54
(dp2465
g62
I3
ssg63
g2459
sg56
(lp2466
g1001
asbasbasbag49
(g65
g51
NtRp2467
(dp2468
g54
(dp2469
sg63
g2379
sg56
(lp2470
g49
(g70
g51
NtRp2471
(dp2472
g54
(dp2473
g74
g75
ssg63
g2467
sg56
(lp2474
S'HTTP_CACHE_CONTROL'
p2475
asbag49
(g70
g51
NtRp2476
(dp2477
g54
(dp2478
g81
g82
ssg63
g2467
sg56
(lp2479
S':'
asbag49
(g70
g51
NtRp2480
(dp2481
g54
(dp2482
sg63
g2467
sg56
(lp2483
g49
(g50
g51
NtRp2484
(dp2485
g54
(dp2486
g62
I3
ssg63
g2480
sg56
(lp2487
g1023
asbasbasbag49
(g65
g51
NtRp2488
(dp2489
g54
(dp2490
sg63
g2379
sg56
(lp2491
g49
(g70
g51
NtRp2492
(dp2493
g54
(dp2494
g74
g75
ssg63
g2488
sg56
(lp2495
S'HTTP_CONNECTION'
p2496
asbag49
(g70
g51
NtRp2497
(dp2498
g54
(dp2499
g81
g82
ssg63
g2488
sg56
(lp2500
S':'
asbag49
(g70
g51
NtRp2501
(dp2502
g54
(dp2503
sg63
g2488
sg56
(lp2504
g49
(g50
g51
NtRp2505
(dp2506
g54
(dp2507
g62
I3
ssg63
g2501
sg56
(lp2508
g1045
asbasbasbag49
(g65
g51
NtRp2509
(dp2510
g54
(dp2511
sg63
g2379
sg56
(lp2512
g49
(g70
g51
NtRp2513
(dp2514
g54
(dp2515
g74
g75
ssg63
g2509
sg56
(lp2516
S'HTTP_COOKIE'
p2517
asbag49
(g70
g51
NtRp2518
(dp2519
g54
(dp2520
g81
g82
ssg63
g2509
sg56
(lp2521
S':'
asbag49
(g70
g51
NtRp2522
(dp2523
g54
(dp2524
sg63
g2509
sg56
(lp2525
g49
(g50
g51
NtRp2526
(dp2527
g54
(dp2528
g62
I3
ssg63
g2522
sg56
(lp2529
g1067
asbasbasbag49
(g65
g51
NtRp2530
(dp2531
g54
(dp2532
sg63
g2379
sg56
(lp2533
g49
(g70
g51
NtRp2534
(dp2535
g54
(dp2536
g74
g75
ssg63
g2530
sg56
(lp2537
S'HTTP_DNT'
p2538
asbag49
(g70
g51
NtRp2539
(dp2540
g54
(dp2541
g81
g82
ssg63
g2530
sg56
(lp2542
S':'
asbag49
(g70
g51
NtRp2543
(dp2544
g54
(dp2545
sg63
g2530
sg56
(lp2546
g49
(g50
g51
NtRp2547
(dp2548
g54
(dp2549
g62
I3
ssg63
g2543
sg56
(lp2550
S'1'
asbasbasbag49
(g65
g51
NtRp2551
(dp2552
g54
(dp2553
sg63
g2379
sg56
(lp2554
g49
(g70
g51
NtRp2555
(dp2556
g54
(dp2557
g74
g75
ssg63
g2551
sg56
(lp2558
S'HTTP_HOST'
p2559
asbag49
(g70
g51
NtRp2560
(dp2561
g54
(dp2562
g81
g82
ssg63
g2551
sg56
(lp2563
S':'
asbag49
(g70
g51
NtRp2564
(dp2565
g54
(dp2566
sg63
g2551
sg56
(lp2567
g49
(g50
g51
NtRp2568
(dp2569
g54
(dp2570
g62
I3
ssg63
g2564
sg56
(lp2571
g1110
asbasbasbag49
(g65
g51
NtRp2572
(dp2573
g54
(dp2574
sg63
g2379
sg56
(lp2575
g49
(g70
g51
NtRp2576
(dp2577
g54
(dp2578
g74
g75
ssg63
g2572
sg56
(lp2579
S'HTTP_USER_AGENT'
p2580
asbag49
(g70
g51
NtRp2581
(dp2582
g54
(dp2583
g81
g82
ssg63
g2572
sg56
(lp2584
S':'
asbag49
(g70
g51
NtRp2585
(dp2586
g54
(dp2587
sg63
g2572
sg56
(lp2588
g49
(g50
g51
NtRp2589
(dp2590
g54
(dp2591
g62
I3
ssg63
g2585
sg56
(lp2592
g1132
asbasbasbag49
(g65
g51
NtRp2593
(dp2594
g54
(dp2595
sg63
g2379
sg56
(lp2596
g49
(g70
g51
NtRp2597
(dp2598
g54
(dp2599
g74
g75
ssg63
g2593
sg56
(lp2600
S'PATH_INFO'
p2601
asbag49
(g70
g51
NtRp2602
(dp2603
g54
(dp2604
g81
g82
ssg63
g2593
sg56
(lp2605
S':'
asbag49
(g70
g51
NtRp2606
(dp2607
g54
(dp2608
sg63
g2593
sg56
(lp2609
g49
(g50
g51
NtRp2610
(dp2611
g54
(dp2612
g62
I3
ssg63
g2606
sg56
(lp2613
g1196
asbasbasbag49
(g65
g51
NtRp2614
(dp2615
g54
(dp2616
sg63
g2379
sg56
(lp2617
g49
(g70
g51
NtRp2618
(dp2619
g54
(dp2620
g74
g75
ssg63
g2614
sg56
(lp2621
S'QUERY_STRING'
p2622
asbag49
(g70
g51
NtRp2623
(dp2624
g54
(dp2625
g81
g82
ssg63
g2614
sg56
(lp2626
S':'
asbag49
(g70
g51
NtRp2627
(dp2628
g54
(dp2629
sg63
g2614
sg56
(lp2630
g49
(g50
g51
NtRp2631
(dp2632
g54
(dp2633
g62
I3
ssg63
g2627
sg56
(lp2634
S''
asbasbasbag49
(g65
g51
NtRp2635
(dp2636
g54
(dp2637
sg63
g2379
sg56
(lp2638
g49
(g70
g51
NtRp2639
(dp2640
g54
(dp2641
g74
g75
ssg63
g2635
sg56
(lp2642
S'REMOTE_ADDR'
p2643
asbag49
(g70
g51
NtRp2644
(dp2645
g54
(dp2646
g81
g82
ssg63
g2635
sg56
(lp2647
S':'
asbag49
(g70
g51
NtRp2648
(dp2649
g54
(dp2650
sg63
g2635
sg56
(lp2651
g49
(g50
g51
NtRp2652
(dp2653
g54
(dp2654
g62
I3
ssg63
g2648
sg56
(lp2655
g182
asbasbasbag49
(g65
g51
NtRp2656
(dp2657
g54
(dp2658
sg63
g2379
sg56
(lp2659
g49
(g70
g51
NtRp2660
(dp2661
g54
(dp2662
g74
g75
ssg63
g2656
sg56
(lp2663
S'REMOTE_PORT'
p2664
asbag49
(g70
g51
NtRp2665
(dp2666
g54
(dp2667
g81
g82
ssg63
g2656
sg56
(lp2668
S':'
asbag49
(g70
g51
NtRp2669
(dp2670
g54
(dp2671
sg63
g2656
sg56
(lp2672
g49
(g50
g51
NtRp2673
(dp2674
g54
(dp2675
g62
I3
ssg63
g2669
sg56
(lp2676
g1260
asbasbasbag49
(g65
g51
NtRp2677
(dp2678
g54
(dp2679
sg63
g2379
sg56
(lp2680
g49
(g70
g51
NtRp2681
(dp2682
g54
(dp2683
g74
g75
ssg63
g2677
sg56
(lp2684
S'REQUEST_METHOD'
p2685
asbag49
(g70
g51
NtRp2686
(dp2687
g54
(dp2688
g81
g82
ssg63
g2677
sg56
(lp2689
S':'
asbag49
(g70
g51
NtRp2690
(dp2691
g54
(dp2692
sg63
g2677
sg56
(lp2693
g49
(g50
g51
NtRp2694
(dp2695
g54
(dp2696
g62
I3
ssg63
g2690
sg56
(lp2697
g1282
asbasbasbag49
(g65
g51
NtRp2698
(dp2699
g54
(dp2700
sg63
g2379
sg56
(lp2701
g49
(g70
g51
NtRp2702
(dp2703
g54
(dp2704
g74
g75
ssg63
g2698
sg56
(lp2705
S'SCRIPT_NAME'
p2706
asbag49
(g70
g51
NtRp2707
(dp2708
g54
(dp2709
g81
g82
ssg63
g2698
sg56
(lp2710
S':'
asbag49
(g70
g51
NtRp2711
(dp2712
g54
(dp2713
sg63
g2698
sg56
(lp2714
g49
(g50
g51
NtRp2715
(dp2716
g54
(dp2717
g62
I3
ssg63
g2711
sg56
(lp2718
S''
asbasbasbag49
(g65
g51
NtRp2719
(dp2720
g54
(dp2721
sg63
g2379
sg56
(lp2722
g49
(g70
g51
NtRp2723
(dp2724
g54
(dp2725
g74
g75
ssg63
g2719
sg56
(lp2726
S'SERVER_NAME'
p2727
asbag49
(g70
g51
NtRp2728
(dp2729
g54
(dp2730
g81
g82
ssg63
g2719
sg56
(lp2731
S':'
asbag49
(g70
g51
NtRp2732
(dp2733
g54
(dp2734
sg63
g2719
sg56
(lp2735
g49
(g50
g51
NtRp2736
(dp2737
g54
(dp2738
g62
I3
ssg63
g2732
sg56
(lp2739
g1325
asbasbasbag49
(g65
g51
NtRp2740
(dp2741
g54
(dp2742
sg63
g2379
sg56
(lp2743
g49
(g70
g51
NtRp2744
(dp2745
g54
(dp2746
g74
g75
ssg63
g2740
sg56
(lp2747
S'SERVER_PORT'
p2748
asbag49
(g70
g51
NtRp2749
(dp2750
g54
(dp2751
g81
g82
ssg63
g2740
sg56
(lp2752
S':'
asbag49
(g70
g51
NtRp2753
(dp2754
g54
(dp2755
sg63
g2740
sg56
(lp2756
g49
(g50
g51
NtRp2757
(dp2758
g54
(dp2759
g62
I3
ssg63
g2753
sg56
(lp2760
g1347
asbasbasbag49
(g65
g51
NtRp2761
(dp2762
g54
(dp2763
sg63
g2379
sg56
(lp2764
g49
(g70
g51
NtRp2765
(dp2766
g54
(dp2767
g74
g75
ssg63
g2761
sg56
(lp2768
S'SERVER_PROTOCOL'
p2769
asbag49
(g70
g51
NtRp2770
(dp2771
g54
(dp2772
g81
g82
ssg63
g2761
sg56
(lp2773
S':'
asbag49
(g70
g51
NtRp2774
(dp2775
g54
(dp2776
sg63
g2761
sg56
(lp2777
g49
(g50
g51
NtRp2778
(dp2779
g54
(dp2780
g62
I3
ssg63
g2774
sg56
(lp2781
g1369
asbasbasbag49
(g65
g51
NtRp2782
(dp2783
g54
(dp2784
sg63
g2379
sg56
(lp2785
g49
(g70
g51
NtRp2786
(dp2787
g54
(dp2788
g74
g75
ssg63
g2782
sg56
(lp2789
S'SERVER_SOFTWARE'
p2790
asbag49
(g70
g51
NtRp2791
(dp2792
g54
(dp2793
g81
g82
ssg63
g2782
sg56
(lp2794
S':'
asbag49
(g70
g51
NtRp2795
(dp2796
g54
(dp2797
sg63
g2782
sg56
(lp2798
g49
(g50
g51
NtRp2799
(dp2800
g54
(dp2801
g62
I3
ssg63
g2795
sg56
(lp2802
g1391
asbasbasbag49
(g65
g51
NtRp2803
(dp2804
g54
(dp2805
sg63
g2379
sg56
(lp2806
g49
(g70
g51
NtRp2807
(dp2808
g54
(dp2809
g74
g75
ssg63
g2803
sg56
(lp2810
S'wsgi.errors'
p2811
asbag49
(g70
g51
NtRp2812
(dp2813
g54
(dp2814
g81
g82
ssg63
g2803
sg56
(lp2815
S':'
asbag49
(g70
g51
NtRp2816
(dp2817
g54
(dp2818
sg63
g2803
sg56
(lp2819
g49
(g50
g51
NtRp2820
(dp2821
g54
(dp2822
g62
I3
ssg63
g2816
sg56
(lp2823
S'<__main__.Stderr object at 0x00356670>'
p2824
asbasbasbag49
(g65
g51
NtRp2825
(dp2826
g54
(dp2827
sg63
g2379
sg56
(lp2828
g49
(g70
g51
NtRp2829
(dp2830
g54
(dp2831
g74
g75
ssg63
g2825
sg56
(lp2832
S'wsgi.file_wrapper'
p2833
asbag49
(g70
g51
NtRp2834
(dp2835
g54
(dp2836
g81
g82
ssg63
g2825
sg56
(lp2837
S':'
asbag49
(g70
g51
NtRp2838
(dp2839
g54
(dp2840
sg63
g2825
sg56
(lp2841
g49
(g50
g51
NtRp2842
(dp2843
g54
(dp2844
g62
I3
ssg63
g2838
sg56
(lp2845
S'<class wsgiref.util.FileWrapper at 0x02FCDE10>'
p2846
asbasbasbag49
(g65
g51
NtRp2847
(dp2848
g54
(dp2849
sg63
g2379
sg56
(lp2850
g49
(g70
g51
NtRp2851
(dp2852
g54
(dp2853
g74
g75
ssg63
g2847
sg56
(lp2854
S'wsgi.input'
p2855
asbag49
(g70
g51
NtRp2856
(dp2857
g54
(dp2858
g81
g82
ssg63
g2847
sg56
(lp2859
S':'
asbag49
(g70
g51
NtRp2860
(dp2861
g54
(dp2862
sg63
g2847
sg56
(lp2863
g49
(g50
g51
NtRp2864
(dp2865
g54
(dp2866
g62
I3
ssg63
g2860
sg56
(lp2867
S'<cStringIO.StringO object at 0x084D6400>'
p2868
asbasbasbag49
(g65
g51
NtRp2869
(dp2870
g54
(dp2871
sg63
g2379
sg56
(lp2872
g49
(g70
g51
NtRp2873
(dp2874
g54
(dp2875
g74
g75
ssg63
g2869
sg56
(lp2876
S'wsgi.multiprocess'
p2877
asbag49
(g70
g51
NtRp2878
(dp2879
g54
(dp2880
g81
g82
ssg63
g2869
sg56
(lp2881
S':'
asbag49
(g70
g51
NtRp2882
(dp2883
g54
(dp2884
sg63
g2869
sg56
(lp2885
g49
(g50
g51
NtRp2886
(dp2887
g54
(dp2888
g62
I3
ssg63
g2882
sg56
(lp2889
g92
asbasbasbag49
(g65
g51
NtRp2890
(dp2891
g54
(dp2892
sg63
g2379
sg56
(lp2893
g49
(g70
g51
NtRp2894
(dp2895
g54
(dp2896
g74
g75
ssg63
g2890
sg56
(lp2897
S'wsgi.multithread'
p2898
asbag49
(g70
g51
NtRp2899
(dp2900
g54
(dp2901
g81
g82
ssg63
g2890
sg56
(lp2902
S':'
asbag49
(g70
g51
NtRp2903
(dp2904
g54
(dp2905
sg63
g2890
sg56
(lp2906
g49
(g50
g51
NtRp2907
(dp2908
g54
(dp2909
g62
I3
ssg63
g2903
sg56
(lp2910
g891
asbasbasbag49
(g65
g51
NtRp2911
(dp2912
g54
(dp2913
sg63
g2379
sg56
(lp2914
g49
(g70
g51
NtRp2915
(dp2916
g54
(dp2917
g74
g75
ssg63
g2911
sg56
(lp2918
S'wsgi.run_once'
p2919
asbag49
(g70
g51
NtRp2920
(dp2921
g54
(dp2922
g81
g82
ssg63
g2911
sg56
(lp2923
S':'
asbag49
(g70
g51
NtRp2924
(dp2925
g54
(dp2926
sg63
g2911
sg56
(lp2927
g49
(g50
g51
NtRp2928
(dp2929
g54
(dp2930
g62
I3
ssg63
g2924
sg56
(lp2931
g92
asbasbasbag49
(g65
g51
NtRp2932
(dp2933
g54
(dp2934
sg63
g2379
sg56
(lp2935
g49
(g70
g51
NtRp2936
(dp2937
g54
(dp2938
g74
g75
ssg63
g2932
sg56
(lp2939
S'wsgi.url_scheme'
p2940
asbag49
(g70
g51
NtRp2941
(dp2942
g54
(dp2943
g81
g82
ssg63
g2932
sg56
(lp2944
S':'
asbag49
(g70
g51
NtRp2945
(dp2946
g54
(dp2947
sg63
g2932
sg56
(lp2948
g49
(g50
g51
NtRp2949
(dp2950
g54
(dp2951
g62
I3
ssg63
g2945
sg56
(lp2952
g1673
asbasbasbag49
(g65
g51
NtRp2953
(dp2954
g54
(dp2955
sg63
g2379
sg56
(lp2956
g49
(g70
g51
NtRp2957
(dp2958
g54
(dp2959
g74
g75
ssg63
g2953
sg56
(lp2960
S'wsgi.version'
p2961
asbag49
(g70
g51
NtRp2962
(dp2963
g54
(dp2964
g81
g82
ssg63
g2953
sg56
(lp2965
S':'
asbag49
(g70
g51
NtRp2966
(dp2967
g54
(dp2968
sg63
g2953
sg56
(lp2969
g49
(g50
g51
NtRp2970
(dp2971
g54
(dp2972
g62
I3
ssg63
g2966
sg56
(lp2973
S'1'
asbasbasbasbasbasbasbasbasbasbasbasbasbsS'frames'
p2974
(lp2975
(dp2976
S'file'
p2977
S'C:\\web2py\\gluon\\restricted.py'
p2978
sS'dump'
p2979
(dp2980
sS'lnum'
p2981
I205
sS'lines'
p2982
(dp2983
sS'call'
p2984
S'(code=r"response.write(\'<!DOCTYPE html>\\n<!-- paulirish....ponse.write(\'\\n</body>\\n</html>\\n\', escape=False)", environment={\'A\': <class \'gluon.html.A\'>, \'Auth\': <class \'gluon.tools.Auth\'>, \'B\': <class \'gluon.html.B\'>, \'BEAUTIFY\': <class \'gluon.html.BEAUTIFY\'>, \'BODY\': <class \'gluon.html.BODY\'>, \'BR\': <class \'gluon.html.BR\'>, \'BUTTON\': <class \'gluon.html.BUTTON\'>, \'CAT\': <class \'gluon.html.CAT\'>, \'CENTER\': <class \'gluon.html.CENTER\'>, \'CLEANUP\': <class \'gluon.validators.CLEANUP\'>, ...}, layer=r\'C:\\web2py\\applications\\unioeste_code\\views\\default/index.html\')'
p2985
sS'func'
p2986
S'restricted'
p2987
sa(dp2988
g2977
S'C:\\web2py\\applications\\unioeste_code\\views\\default\\index.html'
p2989
sg2979
(dp2990
sg2981
I90
sg2982
(dp2991
I96
S'if right_sidebar_enabled:'
p2992
sI97
S'    response.write(\'\\n        <div class="four columns">\\n          \', escape=False)'
p2993
sI98
S"    response.write('\\n          <h3>Right Sidebar</h3>\\n          <p></p>\\n          ', escape=False)"
p2994
sI99
S"    response.write('\\n        </div>    \\n        ', escape=False)"
p2995
sI100
S'    pass'
p2996
sI81
S"response.write('\\n<ul>\\n', escape=False)"
p2997
sI82
S'for problem in problems:'
p2998
sI83
S"    response.write('\\n', escape=False)"
p2999
sI84
S'    user = db(db.auth_user.id==problem.created_by).select().first()'
p3000
sI85
S"    response.write('\\n', escape=False)"
p3001
sI86
S'    response.write(LI(A(problem.title, _style="font-weight:bold;",_href=URL("Problem", args=problem.id)), " by " + user.first_name + " " + user.last_name + " ", SPAN(prettydate(problem.created_on), _style="color:green;font-weight:bold;")))'
p3002
sI87
S"    response.write('\\n', escape=False)"
p3003
sI88
S'    pass'
p3004
sI89
S"response.write('\\n\\n\\n', escape=False)"
p3005
sI90
S'from pyGravatar import Gravatar'
p3006
sI91
S"response.write('\\n', escape=False)"
p3007
sI92
S'IMG(_src=Gravatar(auth.user.email).thumb())'
p3008
sI93
S"response.write('\\n\\n\\n</ul>\\n\\n', escape=False)"
p3009
sI94
S"response.write('\\n          ', escape=False)"
p3010
sI95
S"response.write('\\n        </div>\\n        \\n        ', escape=False)"
p3011
ssg2984
S'()'
p3012
sg2986
S'<module>'
p3013
sa(dp3014
g2977
S'C:\\web2py\\gluon\\custom_import.py'
p3015
sg2979
(dp3016
sg2981
I289
sg2982
(dp3017
sg2984
S"(self=<gluon.custom_import._Web2pyImporter object at 0x030613B0>, name='pyGravatar', globals={'A': <class 'gluon.html.A'>, 'Auth': <class 'gluon.tools.Auth'>, 'B': <class 'gluon.html.B'>, 'BEAUTIFY': <class 'gluon.html.BEAUTIFY'>, 'BODY': <class 'gluon.html.BODY'>, 'BR': <class 'gluon.html.BR'>, 'BUTTON': <class 'gluon.html.BUTTON'>, 'CAT': <class 'gluon.html.CAT'>, 'CENTER': <class 'gluon.html.CENTER'>, 'CLEANUP': <class 'gluon.validators.CLEANUP'>, ...}, locals={'A': <class 'gluon.html.A'>, 'Auth': <class 'gluon.tools.Auth'>, 'B': <class 'gluon.html.B'>, 'BEAUTIFY': <class 'gluon.html.BEAUTIFY'>, 'BODY': <class 'gluon.html.BODY'>, 'BR': <class 'gluon.html.BR'>, 'BUTTON': <class 'gluon.html.BUTTON'>, 'CAT': <class 'gluon.html.CAT'>, 'CENTER': <class 'gluon.html.CENTER'>, 'CLEANUP': <class 'gluon.validators.CLEANUP'>, ...}, fromlist=('Gravatar',), level=-1)"
p3018
sg2986
S'__call__'
p3019
sa(dp3020
g2977
S'C:\\web2py\\gluon\\custom_import.py'
p3021
sg2979
(dp3022
sg2981
I78
sg2982
(dp3023
sg2984
S"(self=<gluon.custom_import._Web2pyImporter object at 0x030613B0>, name='applications.unioeste_code.modules.pyGravatar', globals={'A': <class 'gluon.html.A'>, 'Auth': <class 'gluon.tools.Auth'>, 'B': <class 'gluon.html.B'>, 'BEAUTIFY': <class 'gluon.html.BEAUTIFY'>, 'BODY': <class 'gluon.html.BODY'>, 'BR': <class 'gluon.html.BR'>, 'BUTTON': <class 'gluon.html.BUTTON'>, 'CAT': <class 'gluon.html.CAT'>, 'CENTER': <class 'gluon.html.CENTER'>, 'CLEANUP': <class 'gluon.validators.CLEANUP'>, ...}, locals={'A': <class 'gluon.html.A'>, 'Auth': <class 'gluon.tools.Auth'>, 'B': <class 'gluon.html.B'>, 'BEAUTIFY': <class 'gluon.html.BEAUTIFY'>, 'BODY': <class 'gluon.html.BODY'>, 'BR': <class 'gluon.html.BR'>, 'BUTTON': <class 'gluon.html.BUTTON'>, 'CAT': <class 'gluon.html.CAT'>, 'CENTER': <class 'gluon.html.CENTER'>, 'CLEANUP': <class 'gluon.validators.CLEANUP'>, ...}, fromlist=('Gravatar',), level=-1)"
p3024
sg2986
g3019
sa(dp3025
g2977
S'C:\\web2py\\applications\\unioeste_code\\modules\\pyGravatar.py'
p3026
sg2979
(dp3027
sg2981
I27
sg2982
(dp3028
I22
S"RATINGS         = ['g', 'pg', 'r', 'x']"
p3029
sI23
S'MAX_SIZE        = 512'
p3030
sI24
S'MIN_SIZE        = 1'
p3031
sI25
S"DEFAULTS        = ['404', 'mm', 'identicon', 'monsterid', 'wavatar', 'retro']"
p3032
sI26
S''
sI27
S'class Gravatar(object):'
p3033
sI28
S'    """'
p3034
sI29
S'    Represents a Gravatar user.'
p3035
sI30
S'    """'
p3036
sI31
S''
ssg2984
S'()'
p3037
sg2986
g3013
sa(dp3038
g2977
S'C:\\web2py\\applications\\unioeste_code\\modules\\pyGravatar.py'
p3039
sg2979
(dp3040
sg2981
I47
sg2982
(dp3041
I42
S'    @property'
p3042
sI43
S'    def secure(self):'
p3043
sI44
S'        """Return the secure parameter."""'
p3044
sI45
S'        return self._secure'
p3045
sI46
S''
sI47
S'    @secure.setter'
p3046
sI48
S'    def secure(self, value):'
p3047
sI49
S'        """Set the secure parameter and regenerate the thumbnail link."""'
p3048
sI50
S'        self._secure = value'
p3049
sI51
S'        self._thumb  = self._link_to_img()'
p3050
ssg2984
S'()'
p3051
sg2986
S'Gravatar'
p3052
sasS'pyver'
p3053
S'Python 2.5.4: C:\\web2py\\web2py_no_console.exe'
p3054
sS'session'
p3055
g49
(g50
g51
NtRp3056
(dp3057
g54
(dp3058
sg56
(lp3059
g49
(g58
g51
NtRp3060
(dp3061
g54
(dp3062
g62
I5
ssg63
Nsg56
(lp3063
sbasbsS'etype'
p3064
S"<type 'exceptions.AttributeError'>"
p3065
sS'date'
p3066
S'Mon Jul 30 23:10:12 2012'
p3067
sS'response'
p3068
g49
(g50
g51
NtRp3069
(dp3070
g54
(dp3071
sg56
(lp3072
g49
(g58
g51
NtRp3073
(dp3074
g54
(dp3075
g62
I5
ssg63
Nsg56
(lp3076
g49
(g65
g51
NtRp3077
(dp3078
g54
(dp3079
sg63
g3073
sg56
(lp3080
g49
(g70
g51
NtRp3081
(dp3082
g54
(dp3083
g74
g75
ssg63
g3077
sg56
(lp3084
g147
asbag49
(g70
g51
NtRp3085
(dp3086
g54
(dp3087
g81
g82
ssg63
g3077
sg56
(lp3088
S':'
asbag49
(g70
g51
NtRp3089
(dp3090
g54
(dp3091
sg63
g3077
sg56
(lp3092
g49
(g50
g51
NtRp3093
(dp3094
g54
(dp3095
g62
I5
ssg63
g3089
sg56
(lp3096
S'<cStringIO.StringO object at 0x084D61C0>'
p3097
asbasbasbag49
(g65
g51
NtRp3098
(dp3099
g54
(dp3100
sg63
g3073
sg56
(lp3101
g49
(g70
g51
NtRp3102
(dp3103
g54
(dp3104
g74
g75
ssg63
g3098
sg56
(lp3105
g213
asbag49
(g70
g51
NtRp3106
(dp3107
g54
(dp3108
g81
g82
ssg63
g3098
sg56
(lp3109
S':'
asbag49
(g70
g51
NtRp3110
(dp3111
g54
(dp3112
sg63
g3098
sg56
(lp3113
g49
(g50
g51
NtRp3114
(dp3115
g54
(dp3116
g62
I5
ssg63
g3110
sg56
(lp3117
g49
(g58
g51
NtRp3118
(dp3119
g54
(dp3120
g62
I4
ssg63
Nsg56
(lp3121
g49
(g65
g51
NtRp3122
(dp3123
g54
(dp3124
sg63
g3118
sg56
(lp3125
g49
(g70
g51
NtRp3126
(dp3127
g54
(dp3128
g74
g75
ssg63
g3122
sg56
(lp3129
S'session_id_unioeste_code'
p3130
asbag49
(g70
g51
NtRp3131
(dp3132
g54
(dp3133
g81
g82
ssg63
g3122
sg56
(lp3134
S':'
asbag49
(g70
g51
NtRp3135
(dp3136
g54
(dp3137
sg63
g3122
sg56
(lp3138
g49
(g50
g51
NtRp3139
(dp3140
g54
(dp3141
g62
I4
ssg63
g3135
sg56
(lp3142
g49
(g58
g51
NtRp3143
(dp3144
g54
(dp3145
g62
I3
ssg63
Nsg56
(lp3146
g49
(g65
g51
NtRp3147
(dp3148
g54
(dp3149
sg63
g3143
sg56
(lp3150
g49
(g70
g51
NtRp3151
(dp3152
g54
(dp3153
g74
g75
ssg63
g3147
sg56
(lp3154
g263
asbag49
(g70
g51
NtRp3155
(dp3156
g54
(dp3157
g81
g82
ssg63
g3147
sg56
(lp3158
S':'
asbag49
(g70
g51
NtRp3159
(dp3160
g54
(dp3161
sg63
g3147
sg56
(lp3162
g49
(g50
g51
NtRp3163
(dp3164
g54
(dp3165
g62
I3
ssg63
g3159
sg56
(lp3166
S''
asbasbasbag49
(g65
g51
NtRp3167
(dp3168
g54
(dp3169
sg63
g3143
sg56
(lp3170
g49
(g70
g51
NtRp3171
(dp3172
g54
(dp3173
g74
g75
ssg63
g3167
sg56
(lp3174
g284
asbag49
(g70
g51
NtRp3175
(dp3176
g54
(dp3177
g81
g82
ssg63
g3167
sg56
(lp3178
S':'
asbag49
(g70
g51
NtRp3179
(dp3180
g54
(dp3181
sg63
g3167
sg56
(lp3182
g49
(g50
g51
NtRp3183
(dp3184
g54
(dp3185
g62
I3
ssg63
g3179
sg56
(lp3186
S''
asbasbasbag49
(g65
g51
NtRp3187
(dp3188
g54
(dp3189
sg63
g3143
sg56
(lp3190
g49
(g70
g51
NtRp3191
(dp3192
g54
(dp3193
g74
g75
ssg63
g3187
sg56
(lp3194
g305
asbag49
(g70
g51
NtRp3195
(dp3196
g54
(dp3197
g81
g82
ssg63
g3187
sg56
(lp3198
S':'
asbag49
(g70
g51
NtRp3199
(dp3200
g54
(dp3201
sg63
g3187
sg56
(lp3202
g49
(g50
g51
NtRp3203
(dp3204
g54
(dp3205
g62
I3
ssg63
g3199
sg56
(lp3206
S''
asbasbasbag49
(g65
g51
NtRp3207
(dp3208
g54
(dp3209
sg63
g3143
sg56
(lp3210
g49
(g70
g51
NtRp3211
(dp3212
g54
(dp3213
g74
g75
ssg63
g3207
sg56
(lp3214
g326
asbag49
(g70
g51
NtRp3215
(dp3216
g54
(dp3217
g81
g82
ssg63
g3207
sg56
(lp3218
S':'
asbag49
(g70
g51
NtRp3219
(dp3220
g54
(dp3221
sg63
g3207
sg56
(lp3222
g49
(g50
g51
NtRp3223
(dp3224
g54
(dp3225
g62
I3
ssg63
g3219
sg56
(lp3226
S''
asbasbasbag49
(g65
g51
NtRp3227
(dp3228
g54
(dp3229
sg63
g3143
sg56
(lp3230
g49
(g70
g51
NtRp3231
(dp3232
g54
(dp3233
g74
g75
ssg63
g3227
sg56
(lp3234
g347
asbag49
(g70
g51
NtRp3235
(dp3236
g54
(dp3237
g81
g82
ssg63
g3227
sg56
(lp3238
S':'
asbag49
(g70
g51
NtRp3239
(dp3240
g54
(dp3241
sg63
g3227
sg56
(lp3242
g49
(g50
g51
NtRp3243
(dp3244
g54
(dp3245
g62
I3
ssg63
g3239
sg56
(lp3246
S'/'
asbasbasbag49
(g65
g51
NtRp3247
(dp3248
g54
(dp3249
sg63
g3143
sg56
(lp3250
g49
(g70
g51
NtRp3251
(dp3252
g54
(dp3253
g74
g75
ssg63
g3247
sg56
(lp3254
g368
asbag49
(g70
g51
NtRp3255
(dp3256
g54
(dp3257
g81
g82
ssg63
g3247
sg56
(lp3258
S':'
asbag49
(g70
g51
NtRp3259
(dp3260
g54
(dp3261
sg63
g3247
sg56
(lp3262
g49
(g50
g51
NtRp3263
(dp3264
g54
(dp3265
g62
I3
ssg63
g3259
sg56
(lp3266
S''
asbasbasbag49
(g65
g51
NtRp3267
(dp3268
g54
(dp3269
sg63
g3143
sg56
(lp3270
g49
(g70
g51
NtRp3271
(dp3272
g54
(dp3273
g74
g75
ssg63
g3267
sg56
(lp3274
g389
asbag49
(g70
g51
NtRp3275
(dp3276
g54
(dp3277
g81
g82
ssg63
g3267
sg56
(lp3278
S':'
asbag49
(g70
g51
NtRp3279
(dp3280
g54
(dp3281
sg63
g3267
sg56
(lp3282
g49
(g50
g51
NtRp3283
(dp3284
g54
(dp3285
g62
I3
ssg63
g3279
sg56
(lp3286
S''
asbasbasbasbasbasbasbasbasbasbasbag49
(g65
g51
NtRp3287
(dp3288
g54
(dp3289
sg63
g3073
sg56
(lp3290
g49
(g70
g51
NtRp3291
(dp3292
g54
(dp3293
g74
g75
ssg63
g3287
sg56
(lp3294
S'delimiters'
p3295
asbag49
(g70
g51
NtRp3296
(dp3297
g54
(dp3298
g81
g82
ssg63
g3287
sg56
(lp3299
S':'
asbag49
(g70
g51
NtRp3300
(dp3301
g54
(dp3302
sg63
g3287
sg56
(lp3303
g49
(g50
g51
NtRp3304
(dp3305
g54
(dp3306
g62
I5
ssg63
g3300
sg56
(lp3307
g49
(g58
g51
NtRp3308
(dp3309
g54
(dp3310
g62
I4
ssg63
Nsg56
(lp3311
g49
(g65
g51
NtRp3312
(dp3313
g54
(dp3314
sg63
g3308
sg56
(lp3315
g49
(g70
g51
NtRp3316
(dp3317
g54
(dp3318
sg63
g3312
sg56
(lp3319
g49
(g50
g51
NtRp3320
(dp3321
g54
(dp3322
g62
I4
ssg63
g3316
sg56
(lp3323
S'{{'
p3324
asbasbasbag49
(g65
g51
NtRp3325
(dp3326
g54
(dp3327
sg63
g3308
sg56
(lp3328
g49
(g70
g51
NtRp3329
(dp3330
g54
(dp3331
sg63
g3325
sg56
(lp3332
g49
(g50
g51
NtRp3333
(dp3334
g54
(dp3335
g62
I4
ssg63
g3329
sg56
(lp3336
S'}}'
p3337
asbasbasbasbasbasbasbag49
(g65
g51
NtRp3338
(dp3339
g54
(dp3340
sg63
g3073
sg56
(lp3341
g49
(g70
g51
NtRp3342
(dp3343
g54
(dp3344
g74
g75
ssg63
g3338
sg56
(lp3345
S'files'
p3346
asbag49
(g70
g51
NtRp3347
(dp3348
g54
(dp3349
g81
g82
ssg63
g3338
sg56
(lp3350
S':'
asbag49
(g70
g51
NtRp3351
(dp3352
g54
(dp3353
sg63
g3338
sg56
(lp3354
g49
(g50
g51
NtRp3355
(dp3356
g54
(dp3357
g62
I5
ssg63
g3351
sg56
(lp3358
g49
(g58
g51
NtRp3359
(dp3360
g54
(dp3361
g62
I4
ssg63
Nsg56
(lp3362
g49
(g65
g51
NtRp3363
(dp3364
g54
(dp3365
sg63
g3359
sg56
(lp3366
g49
(g70
g51
NtRp3367
(dp3368
g54
(dp3369
sg63
g3363
sg56
(lp3370
g49
(g50
g51
NtRp3371
(dp3372
g54
(dp3373
g62
I4
ssg63
g3367
sg56
(lp3374
S'/unioeste_code/static/js/jquery.js'
p3375
asbasbasbag49
(g65
g51
NtRp3376
(dp3377
g54
(dp3378
sg63
g3359
sg56
(lp3379
g49
(g70
g51
NtRp3380
(dp3381
g54
(dp3382
sg63
g3376
sg56
(lp3383
g49
(g50
g51
NtRp3384
(dp3385
g54
(dp3386
g62
I4
ssg63
g3380
sg56
(lp3387
S'/unioeste_code/static/css/calendar.css'
p3388
asbasbasbag49
(g65
g51
NtRp3389
(dp3390
g54
(dp3391
sg63
g3359
sg56
(lp3392
g49
(g70
g51
NtRp3393
(dp3394
g54
(dp3395
sg63
g3389
sg56
(lp3396
g49
(g50
g51
NtRp3397
(dp3398
g54
(dp3399
g62
I4
ssg63
g3393
sg56
(lp3400
S'/unioeste_code/static/js/calendar.js'
p3401
asbasbasbag49
(g65
g51
NtRp3402
(dp3403
g54
(dp3404
sg63
g3359
sg56
(lp3405
g49
(g70
g51
NtRp3406
(dp3407
g54
(dp3408
sg63
g3402
sg56
(lp3409
g49
(g50
g51
NtRp3410
(dp3411
g54
(dp3412
g62
I4
ssg63
g3406
sg56
(lp3413
S'/unioeste_code/static/js/web2py.js'
p3414
asbasbasbag49
(g65
g51
NtRp3415
(dp3416
g54
(dp3417
sg63
g3359
sg56
(lp3418
g49
(g70
g51
NtRp3419
(dp3420
g54
(dp3421
sg63
g3415
sg56
(lp3422
g49
(g50
g51
NtRp3423
(dp3424
g54
(dp3425
g62
I4
ssg63
g3419
sg56
(lp3426
S'/unioeste_code/static/css/skeleton.css'
p3427
asbasbasbag49
(g65
g51
NtRp3428
(dp3429
g54
(dp3430
sg63
g3359
sg56
(lp3431
g49
(g70
g51
NtRp3432
(dp3433
g54
(dp3434
sg63
g3428
sg56
(lp3435
g49
(g50
g51
NtRp3436
(dp3437
g54
(dp3438
g62
I4
ssg63
g3432
sg56
(lp3439
S'/unioeste_code/static/css/web2py.css'
p3440
asbasbasbag49
(g65
g51
NtRp3441
(dp3442
g54
(dp3443
sg63
g3359
sg56
(lp3444
g49
(g70
g51
NtRp3445
(dp3446
g54
(dp3447
sg63
g3441
sg56
(lp3448
g49
(g50
g51
NtRp3449
(dp3450
g54
(dp3451
g62
I4
ssg63
g3445
sg56
(lp3452
S'/unioeste_code/static/css/superfish.css'
p3453
asbasbasbag49
(g65
g51
NtRp3454
(dp3455
g54
(dp3456
sg63
g3359
sg56
(lp3457
g49
(g70
g51
NtRp3458
(dp3459
g54
(dp3460
sg63
g3454
sg56
(lp3461
g49
(g50
g51
NtRp3462
(dp3463
g54
(dp3464
g62
I4
ssg63
g3458
sg56
(lp3465
S'/unioeste_code/static/js/superfish.js'
p3466
asbasbasbasbasbasbasbag49
(g65
g51
NtRp3467
(dp3468
g54
(dp3469
sg63
g3073
sg56
(lp3470
g49
(g70
g51
NtRp3471
(dp3472
g54
(dp3473
g74
g75
ssg63
g3467
sg56
(lp3474
S'flash'
p3475
asbag49
(g70
g51
NtRp3476
(dp3477
g54
(dp3478
g81
g82
ssg63
g3467
sg56
(lp3479
S':'
asbag49
(g70
g51
NtRp3480
(dp3481
g54
(dp3482
sg63
g3467
sg56
(lp3483
g49
(g50
g51
NtRp3484
(dp3485
g54
(dp3486
g62
I5
ssg63
g3480
sg56
(lp3487
S''
asbasbasbag49
(g65
g51
NtRp3488
(dp3489
g54
(dp3490
sg63
g3073
sg56
(lp3491
g49
(g70
g51
NtRp3492
(dp3493
g54
(dp3494
g74
g75
ssg63
g3488
sg56
(lp3495
S'generic_patterns'
p3496
asbag49
(g70
g51
NtRp3497
(dp3498
g54
(dp3499
g81
g82
ssg63
g3488
sg56
(lp3500
S':'
asbag49
(g70
g51
NtRp3501
(dp3502
g54
(dp3503
sg63
g3488
sg56
(lp3504
g49
(g50
g51
NtRp3505
(dp3506
g54
(dp3507
g62
I5
ssg63
g3501
sg56
(lp3508
g49
(g58
g51
NtRp3509
(dp3510
g54
(dp3511
g62
I4
ssg63
Nsg56
(lp3512
sbasbasbasbag49
(g65
g51
NtRp3513
(dp3514
g54
(dp3515
sg63
g3073
sg56
(lp3516
g49
(g70
g51
NtRp3517
(dp3518
g54
(dp3519
g74
g75
ssg63
g3513
sg56
(lp3520
S'headers'
p3521
asbag49
(g70
g51
NtRp3522
(dp3523
g54
(dp3524
g81
g82
ssg63
g3513
sg56
(lp3525
S':'
asbag49
(g70
g51
NtRp3526
(dp3527
g54
(dp3528
sg63
g3513
sg56
(lp3529
g49
(g50
g51
NtRp3530
(dp3531
g54
(dp3532
g62
I5
ssg63
g3526
sg56
(lp3533
g49
(g58
g51
NtRp3534
(dp3535
g54
(dp3536
g62
I4
ssg63
Nsg56
(lp3537
g49
(g65
g51
NtRp3538
(dp3539
g54
(dp3540
sg63
g3534
sg56
(lp3541
g49
(g70
g51
NtRp3542
(dp3543
g54
(dp3544
g74
g75
ssg63
g3538
sg56
(lp3545
S'Cache-Control'
p3546
asbag49
(g70
g51
NtRp3547
(dp3548
g54
(dp3549
g81
g82
ssg63
g3538
sg56
(lp3550
S':'
asbag49
(g70
g51
NtRp3551
(dp3552
g54
(dp3553
sg63
g3538
sg56
(lp3554
g49
(g50
g51
NtRp3555
(dp3556
g54
(dp3557
g62
I4
ssg63
g3551
sg56
(lp3558
S'no-store, no-cache, must-revalidate, post-check=0, pre-check=0'
p3559
asbasbasbag49
(g65
g51
NtRp3560
(dp3561
g54
(dp3562
sg63
g3534
sg56
(lp3563
g49
(g70
g51
NtRp3564
(dp3565
g54
(dp3566
g74
g75
ssg63
g3560
sg56
(lp3567
S'Content-Type'
p3568
asbag49
(g70
g51
NtRp3569
(dp3570
g54
(dp3571
g81
g82
ssg63
g3560
sg56
(lp3572
S':'
asbag49
(g70
g51
NtRp3573
(dp3574
g54
(dp3575
sg63
g3560
sg56
(lp3576
g49
(g50
g51
NtRp3577
(dp3578
g54
(dp3579
g62
I4
ssg63
g3573
sg56
(lp3580
S'text/html; charset=utf-8'
p3581
asbasbasbag49
(g65
g51
NtRp3582
(dp3583
g54
(dp3584
sg63
g3534
sg56
(lp3585
g49
(g70
g51
NtRp3586
(dp3587
g54
(dp3588
g74
g75
ssg63
g3582
sg56
(lp3589
S'Expires'
p3590
asbag49
(g70
g51
NtRp3591
(dp3592
g54
(dp3593
g81
g82
ssg63
g3582
sg56
(lp3594
S':'
asbag49
(g70
g51
NtRp3595
(dp3596
g54
(dp3597
sg63
g3582
sg56
(lp3598
g49
(g50
g51
NtRp3599
(dp3600
g54
(dp3601
g62
I4
ssg63
g3595
sg56
(lp3602
S'Tue, 31 Jul 2012 02:10:11 GMT'
p3603
asbasbasbag49
(g65
g51
NtRp3604
(dp3605
g54
(dp3606
sg63
g3534
sg56
(lp3607
g49
(g70
g51
NtRp3608
(dp3609
g54
(dp3610
g74
g75
ssg63
g3604
sg56
(lp3611
S'Pragma'
p3612
asbag49
(g70
g51
NtRp3613
(dp3614
g54
(dp3615
g81
g82
ssg63
g3604
sg56
(lp3616
S':'
asbag49
(g70
g51
NtRp3617
(dp3618
g54
(dp3619
sg63
g3604
sg56
(lp3620
g49
(g50
g51
NtRp3621
(dp3622
g54
(dp3623
g62
I4
ssg63
g3617
sg56
(lp3624
S'no-cache'
p3625
asbasbasbag49
(g65
g51
NtRp3626
(dp3627
g54
(dp3628
sg63
g3534
sg56
(lp3629
g49
(g70
g51
NtRp3630
(dp3631
g54
(dp3632
g74
g75
ssg63
g3626
sg56
(lp3633
S'X-Powered-By'
p3634
asbag49
(g70
g51
NtRp3635
(dp3636
g54
(dp3637
g81
g82
ssg63
g3626
sg56
(lp3638
S':'
asbag49
(g70
g51
NtRp3639
(dp3640
g54
(dp3641
sg63
g3626
sg56
(lp3642
g49
(g50
g51
NtRp3643
(dp3644
g54
(dp3645
g62
I4
ssg63
g3639
sg56
(lp3646
S'web2py'
p3647
asbasbasbasbasbasbasbag49
(g65
g51
NtRp3648
(dp3649
g54
(dp3650
sg63
g3073
sg56
(lp3651
g49
(g70
g51
NtRp3652
(dp3653
g54
(dp3654
g74
g75
ssg63
g3648
sg56
(lp3655
S'menu'
p3656
asbag49
(g70
g51
NtRp3657
(dp3658
g54
(dp3659
g81
g82
ssg63
g3648
sg56
(lp3660
S':'
asbag49
(g70
g51
NtRp3661
(dp3662
g54
(dp3663
sg63
g3648
sg56
(lp3664
g49
(g50
g51
NtRp3665
(dp3666
g54
(dp3667
g62
I5
ssg63
g3661
sg56
(lp3668
g49
(g58
g51
NtRp3669
(dp3670
g54
(dp3671
g62
I4
ssg63
Nsg56
(lp3672
g49
(g65
g51
NtRp3673
(dp3674
g54
(dp3675
sg63
g3669
sg56
(lp3676
g49
(g70
g51
NtRp3677
(dp3678
g54
(dp3679
sg63
g3673
sg56
(lp3680
g49
(g50
g51
NtRp3681
(dp3682
g54
(dp3683
g62
I4
ssg63
g3677
sg56
(lp3684
g49
(g58
g51
NtRp3685
(dp3686
g54
(dp3687
g62
I3
ssg63
Nsg56
(lp3688
g49
(g65
g51
NtRp3689
(dp3690
g54
(dp3691
sg63
g3685
sg56
(lp3692
g49
(g70
g51
NtRp3693
(dp3694
g54
(dp3695
sg63
g3689
sg56
(lp3696
g49
(g50
g51
NtRp3697
(dp3698
g54
(dp3699
g62
I3
ssg63
g3693
sg56
(lp3700
cgluon.languages
lazyT_unpickle
p3701
(S't\x04\x00\x00\x00Home'
tRp3702
asbasbasbag49
(g65
g51
NtRp3703
(dp3704
g54
(dp3705
sg63
g3685
sg56
(lp3706
g49
(g70
g51
NtRp3707
(dp3708
g54
(dp3709
sg63
g3703
sg56
(lp3710
g49
(g50
g51
NtRp3711
(dp3712
g54
(dp3713
g62
I3
ssg63
g3707
sg56
(lp3714
g92
asbasbasbag49
(g65
g51
NtRp3715
(dp3716
g54
(dp3717
sg63
g3685
sg56
(lp3718
g49
(g70
g51
NtRp3719
(dp3720
g54
(dp3721
sg63
g3715
sg56
(lp3722
g49
(g50
g51
NtRp3723
(dp3724
g54
(dp3725
g62
I3
ssg63
g3719
sg56
(lp3726
S'/unioeste_code/default/index'
p3727
asbasbasbag49
(g65
g51
NtRp3728
(dp3729
g54
(dp3730
sg63
g3685
sg56
(lp3731
g49
(g70
g51
NtRp3732
(dp3733
g54
(dp3734
sg63
g3728
sg56
(lp3735
g49
(g50
g51
NtRp3736
(dp3737
g54
(dp3738
g62
I3
ssg63
g3732
sg56
(lp3739
g49
(g58
g51
NtRp3740
(dp3741
g54
(dp3742
g62
I2
ssg63
Nsg56
(lp3743
sbasbasbasbasbasbasbasbag49
(g65
g51
NtRp3744
(dp3745
g54
(dp3746
sg63
g3669
sg56
(lp3747
g49
(g70
g51
NtRp3748
(dp3749
g54
(dp3750
sg63
g3744
sg56
(lp3751
g49
(g50
g51
NtRp3752
(dp3753
g54
(dp3754
g62
I4
ssg63
g3748
sg56
(lp3755
g49
(g58
g51
NtRp3756
(dp3757
g54
(dp3758
g62
I3
ssg63
Nsg56
(lp3759
g49
(g65
g51
NtRp3760
(dp3761
g54
(dp3762
sg63
g3756
sg56
(lp3763
g49
(g70
g51
NtRp3764
(dp3765
g54
(dp3766
sg63
g3760
sg56
(lp3767
g49
(g50
g51
NtRp3768
(dp3769
g54
(dp3770
g62
I3
ssg63
g3764
sg56
(lp3771
g49
(cgluon.html
SPAN
p3772
g51
NtRp3773
(dp3774
g54
(dp3775
g74
S'color:yellow'
p3776
ssg63
g49
(cgluon.html
A
p3777
g51
NtRp3778
(dp3779
g54
(dp3780
S'_onclick'
p3781
S'javascript:void(0);return false;'
p3782
sS'_href'
p3783
S'#'
ssg63
g49
(cgluon.html
LI
p3784
g51
NtRp3785
(dp3786
g54
(dp3787
S'_class'
p3788
S'web2py-menu-expand'
p3789
ssg63
g49
(cgluon.html
UL
p3790
g51
NtRp3791
(dp3792
g54
(dp3793
S'mobile'
p3794
I00
sS'li_class'
p3795
g3789
sg3788
S'sf-menu'
p3796
sS'ul_class'
p3797
S'web2py-menu-vertical'
p3798
sS'li_active'
p3799
S'web2py-menu-active'
p3800
ssg63
Nsg56
(lp3801
g49
(g3784
g51
NtRp3802
(dp3803
g54
(dp3804
sg63
g3791
sg56
(lp3805
g49
(g3777
g51
NtRp3806
(dp3807
g54
(dp3808
g3783
g3727
ssg63
g3802
sg56
(lp3809
g3702
asbasbag3785
asbsg56
(lp3810
g3778
ag49
(g3790
g51
NtRp3811
(dp3812
g54
(dp3813
g3788
g3798
ssg63
g3785
sg56
(lp3814
g49
(g3784
g51
NtRp3815
(dp3816
g54
(dp3817
sg63
g3811
sg56
(lp3818
g49
(g3777
g51
NtRp3819
(dp3820
g54
(dp3821
g3783
S'/admin/default/site'
p3822
ssg63
g3815
sg56
(lp3823
g3701
(S's\x08\x00\x00\x00My Sites'
tRp3824
asbasbag49
(g3784
g51
NtRp3825
(dp3826
g54
(dp3827
g3788
g3789
ssg63
g3811
sg56
(lp3828
g49
(g3777
g51
NtRp3829
(dp3830
g54
(dp3831
g3783
S'/admin/default/design/unioeste_code'
p3832
ssg63
g3825
sg56
(lp3833
g3701
(S's\x08\x00\x00\x00This App'
tRp3834
asbag49
(g3790
g51
NtRp3835
(dp3836
g54
(dp3837
g3788
g3798
ssg63
g3825
sg56
(lp3838
g49
(g3784
g51
NtRp3839
(dp3840
g54
(dp3841
sg63
g3835
sg56
(lp3842
g49
(g3777
g51
NtRp3843
(dp3844
g54
(dp3845
g3783
S'/admin/default/edit/unioeste_code/controllers/default.py'
p3846
ssg63
g3839
sg56
(lp3847
g3701
(S't\x0b\x00\x00\x00Controlador'
tRp3848
asbasbag49
(g3784
g51
NtRp3849
(dp3850
g54
(dp3851
sg63
g3835
sg56
(lp3852
g49
(g3777
g51
NtRp3853
(dp3854
g54
(dp3855
g3783
S'/admin/default/edit/unioeste_code/views/default/index.html'
p3856
ssg63
g3849
sg56
(lp3857
g3701
(S's\x0e\x00\x00\x00Visualiza\xc3\xa7\xc3\xa3o'
tRp3858
asbasbag49
(g3784
g51
NtRp3859
(dp3860
g54
(dp3861
sg63
g3835
sg56
(lp3862
g49
(g3777
g51
NtRp3863
(dp3864
g54
(dp3865
g3783
S'/admin/default/edit/unioeste_code/views/layout.html'
p3866
ssg63
g3859
sg56
(lp3867
g3701
(S't\x06\x00\x00\x00Layout'
tRp3868
asbasbag49
(g3784
g51
NtRp3869
(dp3870
g54
(dp3871
sg63
g3835
sg56
(lp3872
g49
(g3777
g51
NtRp3873
(dp3874
g54
(dp3875
g3783
S'/admin/default/edit/unioeste_code/static/css/web2py.css'
p3876
ssg63
g3869
sg56
(lp3877
g3701
(S't\n\x00\x00\x00Stylesheet'
tRp3878
asbasbag49
(g3784
g51
NtRp3879
(dp3880
g54
(dp3881
sg63
g3835
sg56
(lp3882
g49
(g3777
g51
NtRp3883
(dp3884
g54
(dp3885
g3783
S'/admin/default/edit/unioeste_code/models/db.py'
p3886
ssg63
g3879
sg56
(lp3887
g3701
(S's\t\x00\x00\x00Modelo BD'
tRp3888
asbasbag49
(g3784
g51
NtRp3889
(dp3890
g54
(dp3891
sg63
g3835
sg56
(lp3892
g49
(g3777
g51
NtRp3893
(dp3894
g54
(dp3895
g3783
S'/admin/default/edit/unioeste_code/models/menu.py'
p3896
ssg63
g3889
sg56
(lp3897
g3701
(S's\x0e\x00\x00\x00Modelo de Menu'
tRp3898
asbasbag49
(g3784
g51
NtRp3899
(dp3900
g54
(dp3901
sg63
g3835
sg56
(lp3902
g49
(g3777
g51
NtRp3903
(dp3904
g54
(dp3905
g3783
S'/unioeste_code/appadmin/index'
p3906
ssg63
g3899
sg56
(lp3907
g3701
(S's\x0e\x00\x00\x00Banco de dados'
tRp3908
asbasbag49
(g3784
g51
NtRp3909
(dp3910
g54
(dp3911
sg63
g3835
sg56
(lp3912
g49
(g3777
g51
NtRp3913
(dp3914
g54
(dp3915
g3783
S'/admin/default/errors/unioeste_code'
p3916
ssg63
g3909
sg56
(lp3917
g3701
(S't\x06\x00\x00\x00Errors'
tRp3918
asbasbag49
(g3784
g51
NtRp3919
(dp3920
g54
(dp3921
sg63
g3835
sg56
(lp3922
g49
(g3777
g51
NtRp3923
(dp3924
g54
(dp3925
g3783
S'/admin/default/about/unioeste_code'
p3926
ssg63
g3919
sg56
(lp3927
g3701
(S't\x05\x00\x00\x00About'
tRp3928
asbasbasbasbag49
(g3784
g51
NtRp3929
(dp3930
g54
(dp3931
g3788
g3789
ssg63
g3811
sg56
(lp3932
g49
(g3777
g51
NtRp3933
(dp3934
g54
(dp3935
g3783
S'http://www.web2py.com'
p3936
ssg63
g3929
sg56
(lp3937
S'web2py.com'
p3938
asbag49
(g3790
g51
NtRp3939
(dp3940
g54
(dp3941
g3788
g3798
ssg63
g3929
sg56
(lp3942
g49
(g3784
g51
NtRp3943
(dp3944
g54
(dp3945
sg63
g3939
sg56
(lp3946
g49
(g3777
g51
NtRp3947
(dp3948
g54
(dp3949
g3783
S'http://www.web2py.com/examples/default/download'
p3950
ssg63
g3943
sg56
(lp3951
g3701
(S't\x08\x00\x00\x00Download'
tRp3952
asbasbag49
(g3784
g51
NtRp3953
(dp3954
g54
(dp3955
sg63
g3939
sg56
(lp3956
g49
(g3777
g51
NtRp3957
(dp3958
g54
(dp3959
g3783
S'http://www.web2py.com/examples/default/support'
p3960
ssg63
g3953
sg56
(lp3961
g3701
(S't\x07\x00\x00\x00Support'
tRp3962
asbasbag49
(g3784
g51
NtRp3963
(dp3964
g54
(dp3965
sg63
g3939
sg56
(lp3966
g49
(g3777
g51
NtRp3967
(dp3968
g54
(dp3969
g3783
S'http://web2py.com/demo_admin'
p3970
ssg63
g3963
sg56
(lp3971
g3701
(S't\x04\x00\x00\x00Demo'
tRp3972
asbasbag49
(g3784
g51
NtRp3973
(dp3974
g54
(dp3975
sg63
g3939
sg56
(lp3976
g49
(g3777
g51
NtRp3977
(dp3978
g54
(dp3979
g3783
S'http://web2py.com/examples/default/examples'
p3980
ssg63
g3973
sg56
(lp3981
g3701
(S's\x0e\x00\x00\x00Quick Examples'
tRp3982
asbasbag49
(g3784
g51
NtRp3983
(dp3984
g54
(dp3985
sg63
g3939
sg56
(lp3986
g49
(g3777
g51
NtRp3987
(dp3988
g54
(dp3989
g3783
S'http://web2py.com/AlterEgo'
p3990
ssg63
g3983
sg56
(lp3991
g3701
(S't\x03\x00\x00\x00FAQ'
tRp3992
asbasbag49
(g3784
g51
NtRp3993
(dp3994
g54
(dp3995
sg63
g3939
sg56
(lp3996
g49
(g3777
g51
NtRp3997
(dp3998
g54
(dp3999
g3783
S'http://www.web2py.com/examples/default/videos/'
p4000
ssg63
g3993
sg56
(lp4001
g3701
(S't\x06\x00\x00\x00Videos'
tRp4002
asbasbag49
(g3784
g51
NtRp4003
(dp4004
g54
(dp4005
sg63
g3939
sg56
(lp4006
g49
(g3777
g51
NtRp4007
(dp4008
g54
(dp4009
g3783
S'http://web2py.com/appliances'
p4010
ssg63
g4003
sg56
(lp4011
g3701
(S's\x11\x00\x00\x00Free Applications'
tRp4012
asbasbag49
(g3784
g51
NtRp4013
(dp4014
g54
(dp4015
sg63
g3939
sg56
(lp4016
g49
(g3777
g51
NtRp4017
(dp4018
g54
(dp4019
g3783
S'http://web2py.com/plugins'
p4020
ssg63
g4013
sg56
(lp4021
g3701
(S't\x07\x00\x00\x00Plugins'
tRp4022
asbasbag49
(g3784
g51
NtRp4023
(dp4024
g54
(dp4025
sg63
g3939
sg56
(lp4026
g49
(g3777
g51
NtRp4027
(dp4028
g54
(dp4029
g3783
S'http://web2py.com/layouts'
p4030
ssg63
g4023
sg56
(lp4031
g3701
(S't\x07\x00\x00\x00Layouts'
tRp4032
asbasbag49
(g3784
g51
NtRp4033
(dp4034
g54
(dp4035
sg63
g3939
sg56
(lp4036
g49
(g3777
g51
NtRp4037
(dp4038
g54
(dp4039
g3783
S'http://web2pyslices.com/'
p4040
ssg63
g4033
sg56
(lp4041
g3701
(S't\x07\x00\x00\x00Recipes'
tRp4042
asbasbag49
(g3784
g51
NtRp4043
(dp4044
g54
(dp4045
sg63
g3939
sg56
(lp4046
g49
(g3777
g51
NtRp4047
(dp4048
g54
(dp4049
g3783
S'http://web2py.com/semantic'
p4050
ssg63
g4043
sg56
(lp4051
g3701
(S't\x08\x00\x00\x00Semantic'
tRp4052
asbasbasbasbag49
(g3784
g51
NtRp4053
(dp4054
g54
(dp4055
g3788
g3789
ssg63
g3811
sg56
(lp4056
g49
(g3777
g51
NtRp4057
(dp4058
g54
(dp4059
g3783
S'http://www.web2py.com/book'
p4060
ssg63
g4053
sg56
(lp4061
g3701
(S't\r\x00\x00\x00Documentation'
tRp4062
asbag49
(g3790
g51
NtRp4063
(dp4064
g54
(dp4065
g3788
g3798
ssg63
g4053
sg56
(lp4066
g49
(g3784
g51
NtRp4067
(dp4068
g54
(dp4069
sg63
g4063
sg56
(lp4070
g49
(g3777
g51
NtRp4071
(dp4072
g54
(dp4073
g3783
S'http://www.web2py.com/book/default/chapter/00'
p4074
ssg63
g4067
sg56
(lp4075
g3701
(S't\x07\x00\x00\x00Preface'
tRp4076
asbasbag49
(g3784
g51
NtRp4077
(dp4078
g54
(dp4079
sg63
g4063
sg56
(lp4080
g49
(g3777
g51
NtRp4081
(dp4082
g54
(dp4083
g3783
S'http://www.web2py.com/book/default/chapter/01'
p4084
ssg63
g4077
sg56
(lp4085
g3701
(S't\x0c\x00\x00\x00Introduction'
tRp4086
asbasbag49
(g3784
g51
NtRp4087
(dp4088
g54
(dp4089
sg63
g4063
sg56
(lp4090
g49
(g3777
g51
NtRp4091
(dp4092
g54
(dp4093
g3783
S'http://www.web2py.com/book/default/chapter/02'
p4094
ssg63
g4087
sg56
(lp4095
g3701
(S't\x06\x00\x00\x00Python'
tRp4096
asbasbag49
(g3784
g51
NtRp4097
(dp4098
g54
(dp4099
sg63
g4063
sg56
(lp4100
g49
(g3777
g51
NtRp4101
(dp4102
g54
(dp4103
g3783
S'http://www.web2py.com/book/default/chapter/03'
p4104
ssg63
g4097
sg56
(lp4105
g3701
(S't\x08\x00\x00\x00Overview'
tRp4106
asbasbag49
(g3784
g51
NtRp4107
(dp4108
g54
(dp4109
sg63
g4063
sg56
(lp4110
g49
(g3777
g51
NtRp4111
(dp4112
g54
(dp4113
g3783
S'http://www.web2py.com/book/default/chapter/04'
p4114
ssg63
g4107
sg56
(lp4115
g3701
(S's\x08\x00\x00\x00The Core'
tRp4116
asbasbag49
(g3784
g51
NtRp4117
(dp4118
g54
(dp4119
sg63
g4063
sg56
(lp4120
g49
(g3777
g51
NtRp4121
(dp4122
g54
(dp4123
g3783
S'http://www.web2py.com/book/default/chapter/05'
p4124
ssg63
g4117
sg56
(lp4125
g3701
(S's\t\x00\x00\x00The Views'
tRp4126
asbasbag49
(g3784
g51
NtRp4127
(dp4128
g54
(dp4129
sg63
g4063
sg56
(lp4130
g49
(g3777
g51
NtRp4131
(dp4132
g54
(dp4133
g3783
S'http://www.web2py.com/book/default/chapter/06'
p4134
ssg63
g4127
sg56
(lp4135
g3701
(S's\x0e\x00\x00\x00Banco de dados'
tRp4136
asbasbag49
(g3784
g51
NtRp4137
(dp4138
g54
(dp4139
sg63
g4063
sg56
(lp4140
g49
(g3777
g51
NtRp4141
(dp4142
g54
(dp4143
g3783
S'http://www.web2py.com/book/default/chapter/07'
p4144
ssg63
g4137
sg56
(lp4145
g3701
(S's\x14\x00\x00\x00Forms and Validators'
tRp4146
asbasbag49
(g3784
g51
NtRp4147
(dp4148
g54
(dp4149
sg63
g4063
sg56
(lp4150
g49
(g3777
g51
NtRp4151
(dp4152
g54
(dp4153
g3783
S'http://www.web2py.com/book/default/chapter/08'
p4154
ssg63
g4147
sg56
(lp4155
g3701
(S's\r\x00\x00\x00Email and SMS'
tRp4156
asbasbag49
(g3784
g51
NtRp4157
(dp4158
g54
(dp4159
sg63
g4063
sg56
(lp4160
g49
(g3777
g51
NtRp4161
(dp4162
g54
(dp4163
g3783
S'http://www.web2py.com/book/default/chapter/09'
p4164
ssg63
g4157
sg56
(lp4165
g3701
(S's\x0e\x00\x00\x00Access Control'
tRp4166
asbasbag49
(g3784
g51
NtRp4167
(dp4168
g54
(dp4169
sg63
g4063
sg56
(lp4170
g49
(g3777
g51
NtRp4171
(dp4172
g54
(dp4173
g3783
S'http://www.web2py.com/book/default/chapter/10'
p4174
ssg63
g4167
sg56
(lp4175
g3701
(S't\x08\x00\x00\x00Services'
tRp4176
asbasbag49
(g3784
g51
NtRp4177
(dp4178
g54
(dp4179
sg63
g4063
sg56
(lp4180
g49
(g3777
g51
NtRp4181
(dp4182
g54
(dp4183
g3783
S'http://www.web2py.com/book/default/chapter/11'
p4184
ssg63
g4177
sg56
(lp4185
g3701
(S's\x0c\x00\x00\x00Ajax Recipes'
tRp4186
asbasbag49
(g3784
g51
NtRp4187
(dp4188
g54
(dp4189
sg63
g4063
sg56
(lp4190
g49
(g3777
g51
NtRp4191
(dp4192
g54
(dp4193
g3783
S'http://www.web2py.com/book/default/chapter/12'
p4194
ssg63
g4187
sg56
(lp4195
g3701
(S's\x16\x00\x00\x00Components and Plugins'
tRp4196
asbasbag49
(g3784
g51
NtRp4197
(dp4198
g54
(dp4199
sg63
g4063
sg56
(lp4200
g49
(g3777
g51
NtRp4201
(dp4202
g54
(dp4203
g3783
S'http://www.web2py.com/book/default/chapter/13'
p4204
ssg63
g4197
sg56
(lp4205
g3701
(S's\x12\x00\x00\x00Deployment Recipes'
tRp4206
asbasbag49
(g3784
g51
NtRp4207
(dp4208
g54
(dp4209
sg63
g4063
sg56
(lp4210
g49
(g3777
g51
NtRp4211
(dp4212
g54
(dp4213
g3783
S'http://www.web2py.com/book/default/chapter/14'
p4214
ssg63
g4207
sg56
(lp4215
g3701
(S's\r\x00\x00\x00Other Recipes'
tRp4216
asbasbag49
(g3784
g51
NtRp4217
(dp4218
g54
(dp4219
sg63
g4063
sg56
(lp4220
g49
(g3777
g51
NtRp4221
(dp4222
g54
(dp4223
g3783
S'http://stores.lulu.com/web2py'
p4224
ssg63
g4217
sg56
(lp4225
g3701
(S's\r\x00\x00\x00Buy this book'
tRp4226
asbasbasbasbag49
(g3784
g51
NtRp4227
(dp4228
g54
(dp4229
g3788
g3789
ssg63
g3811
sg56
(lp4230
g49
(g3777
g51
NtRp4231
(dp4232
g54
(dp4233
g3781
g3782
sg3783
S'#'
ssg63
g4227
sg56
(lp4234
g3701
(S't\t\x00\x00\x00Community'
tRp4235
asbag49
(g3790
g51
NtRp4236
(dp4237
g54
(dp4238
g3788
g3798
ssg63
g4227
sg56
(lp4239
g49
(g3784
g51
NtRp4240
(dp4241
g54
(dp4242
sg63
g4236
sg56
(lp4243
g49
(g3777
g51
NtRp4244
(dp4245
g54
(dp4246
g3783
S'http://www.web2py.com/examples/default/usergroups'
p4247
ssg63
g4240
sg56
(lp4248
g3701
(S't\x06\x00\x00\x00Groups'
tRp4249
asbasbag49
(g3784
g51
NtRp4250
(dp4251
g54
(dp4252
sg63
g4236
sg56
(lp4253
g49
(g3777
g51
NtRp4254
(dp4255
g54
(dp4256
g3783
S'http://twitter.com/web2py'
p4257
ssg63
g4250
sg56
(lp4258
g3701
(S't\x07\x00\x00\x00Twitter'
tRp4259
asbasbag49
(g3784
g51
NtRp4260
(dp4261
g54
(dp4262
sg63
g4236
sg56
(lp4263
g49
(g3777
g51
NtRp4264
(dp4265
g54
(dp4266
g3783
S'http://webchat.freenode.net/?channels=web2py'
p4267
ssg63
g4260
sg56
(lp4268
g3701
(S's\t\x00\x00\x00Live Chat'
tRp4269
asbasbasbasbag49
(g3784
g51
NtRp4270
(dp4271
g54
(dp4272
g3788
g3789
ssg63
g3811
sg56
(lp4273
g49
(g3777
g51
NtRp4274
(dp4275
g54
(dp4276
g3781
g3782
sg3783
S'#'
ssg63
g4270
sg56
(lp4277
g3701
(S't\x07\x00\x00\x00Plugins'
tRp4278
asbag49
(g3790
g51
NtRp4279
(dp4280
g54
(dp4281
g3788
g3798
ssg63
g4270
sg56
(lp4282
g49
(g3784
g51
NtRp4283
(dp4284
g54
(dp4285
sg63
g4279
sg56
(lp4286
g49
(g3777
g51
NtRp4287
(dp4288
g54
(dp4289
g3783
S'http://web2py.com/examples/default/download'
p4290
ssg63
g4283
sg56
(lp4291
S'plugin_wiki'
p4292
asbasbag49
(g3784
g51
NtRp4293
(dp4294
g54
(dp4295
sg63
g4279
sg56
(lp4296
g49
(g3777
g51
NtRp4297
(dp4298
g54
(dp4299
g3783
g4020
ssg63
g4293
sg56
(lp4300
g3701
(S's\r\x00\x00\x00Other Plugins'
tRp4301
asbasbag49
(g3784
g51
NtRp4302
(dp4303
g54
(dp4304
sg63
g4279
sg56
(lp4305
g49
(g3777
g51
NtRp4306
(dp4307
g54
(dp4308
g3783
g4030
ssg63
g4302
sg56
(lp4309
g3701
(S's\x0e\x00\x00\x00Layout Plugins'
tRp4310
asbasbasbasbasbasbsg56
(lp4311
g3773
asbsg56
(lp4312
g3647
asbasbasbasbag49
(g65
g51
NtRp4313
(dp4314
g54
(dp4315
sg63
g3756
sg56
(lp4316
g49
(g70
g51
NtRp4317
(dp4318
g54
(dp4319
sg63
g4313
sg56
(lp4320
g49
(g50
g51
NtRp4321
(dp4322
g54
(dp4323
g62
I3
ssg63
g4317
sg56
(lp4324
g92
asbasbasbag49
(g65
g51
NtRp4325
(dp4326
g54
(dp4327
sg63
g3756
sg56
(lp4328
g49
(g70
g51
NtRp4329
(dp4330
g54
(dp4331
sg63
g4325
sg56
(lp4332
g49
(g50
g51
NtRp4333
(dp4334
g54
(dp4335
g62
I3
ssg63
g4329
sg56
(lp4336
S'None'
p4337
asbasbasbag49
(g65
g51
NtRp4338
(dp4339
g54
(dp4340
sg63
g3756
sg56
(lp4341
g49
(g70
g51
NtRp4342
(dp4343
g54
(dp4344
sg63
g4338
sg56
(lp4345
g49
(g50
g51
NtRp4346
(dp4347
g54
(dp4348
g62
I3
ssg63
g4342
sg56
(lp4349
g49
(g58
g51
NtRp4350
(dp4351
g54
(dp4352
g62
I2
ssg63
Nsg56
(lp4353
g49
(g65
g51
NtRp4354
(dp4355
g54
(dp4356
sg63
g4350
sg56
(lp4357
g49
(g70
g51
NtRp4358
(dp4359
g54
(dp4360
sg63
g4354
sg56
(lp4361
g49
(g50
g51
NtRp4362
(dp4363
g54
(dp4364
g62
I2
ssg63
g4358
sg56
(lp4365
g49
(g58
g51
NtRp4366
(dp4367
g54
(dp4368
g62
I1
ssg63
Nsg56
(lp4369
g49
(g65
g51
NtRp4370
(dp4371
g54
(dp4372
sg63
g4366
sg56
(lp4373
g49
(g70
g51
NtRp4374
(dp4375
g54
(dp4376
sg63
g4370
sg56
(lp4377
g49
(g50
g51
NtRp4378
(dp4379
g54
(dp4380
g62
I1
ssg63
g4374
sg56
(lp4381
g3824
asbasbasbag49
(g65
g51
NtRp4382
(dp4383
g54
(dp4384
sg63
g4366
sg56
(lp4385
g49
(g70
g51
NtRp4386
(dp4387
g54
(dp4388
sg63
g4382
sg56
(lp4389
g49
(g50
g51
NtRp4390
(dp4391
g54
(dp4392
g62
I1
ssg63
g4386
sg56
(lp4393
I00
asbasbasbag49
(g65
g51
NtRp4394
(dp4395
g54
(dp4396
sg63
g4366
sg56
(lp4397
g49
(g70
g51
NtRp4398
(dp4399
g54
(dp4400
sg63
g4394
sg56
(lp4401
g49
(g50
g51
NtRp4402
(dp4403
g54
(dp4404
g62
I1
ssg63
g4398
sg56
(lp4405
g3822
asbasbasbasbasbasbasbag49
(g65
g51
NtRp4406
(dp4407
g54
(dp4408
sg63
g4350
sg56
(lp4409
g49
(g70
g51
NtRp4410
(dp4411
g54
(dp4412
sg63
g4406
sg56
(lp4413
g49
(g50
g51
NtRp4414
(dp4415
g54
(dp4416
g62
I2
ssg63
g4410
sg56
(lp4417
g49
(g58
g51
NtRp4418
(dp4419
g54
(dp4420
g62
I1
ssg63
Nsg56
(lp4421
g49
(g65
g51
NtRp4422
(dp4423
g54
(dp4424
sg63
g4418
sg56
(lp4425
g49
(g70
g51
NtRp4426
(dp4427
g54
(dp4428
sg63
g4422
sg56
(lp4429
g49
(g50
g51
NtRp4430
(dp4431
g54
(dp4432
g62
I1
ssg63
g4426
sg56
(lp4433
g3834
asbasbasbag49
(g65
g51
NtRp4434
(dp4435
g54
(dp4436
sg63
g4418
sg56
(lp4437
g49
(g70
g51
NtRp4438
(dp4439
g54
(dp4440
sg63
g4434
sg56
(lp4441
g49
(g50
g51
NtRp4442
(dp4443
g54
(dp4444
g62
I1
ssg63
g4438
sg56
(lp4445
I00
asbasbasbag49
(g65
g51
NtRp4446
(dp4447
g54
(dp4448
sg63
g4418
sg56
(lp4449
g49
(g70
g51
NtRp4450
(dp4451
g54
(dp4452
sg63
g4446
sg56
(lp4453
g49
(g50
g51
NtRp4454
(dp4455
g54
(dp4456
g62
I1
ssg63
g4450
sg56
(lp4457
g3832
asbasbasbag49
(g65
g51
NtRp4458
(dp4459
g54
(dp4460
sg63
g4418
sg56
(lp4461
g49
(g70
g51
NtRp4462
(dp4463
g54
(dp4464
sg63
g4458
sg56
(lp4465
g49
(g50
g51
NtRp4466
(dp4467
g54
(dp4468
g62
I1
ssg63
g4462
sg56
(lp4469
(lp4470
(g3848
I00
g3846
tp4471
a(g3858
I00
g3856
tp4472
a(g3868
I00
g3866
tp4473
a(g3878
I00
g3876
tp4474
a(g3888
I00
g3886
tp4475
a(g3898
I00
g3896
tp4476
a(g3908
I00
g3906
tp4477
a(g3918
I00
g3916
tp4478
a(g3928
I00
g3926
tp4479
aasbasbasbasbasbasbasbag49
(g65
g51
NtRp4480
(dp4481
g54
(dp4482
sg63
g4350
sg56
(lp4483
g49
(g70
g51
NtRp4484
(dp4485
g54
(dp4486
sg63
g4480
sg56
(lp4487
g49
(g50
g51
NtRp4488
(dp4489
g54
(dp4490
g62
I2
ssg63
g4484
sg56
(lp4491
g49
(g58
g51
NtRp4492
(dp4493
g54
(dp4494
g62
I1
ssg63
Nsg56
(lp4495
g49
(g65
g51
NtRp4496
(dp4497
g54
(dp4498
sg63
g4492
sg56
(lp4499
g49
(g70
g51
NtRp4500
(dp4501
g54
(dp4502
sg63
g4496
sg56
(lp4503
g49
(g50
g51
NtRp4504
(dp4505
g54
(dp4506
g62
I1
ssg63
g4500
sg56
(lp4507
g3938
asbasbasbag49
(g65
g51
NtRp4508
(dp4509
g54
(dp4510
sg63
g4492
sg56
(lp4511
g49
(g70
g51
NtRp4512
(dp4513
g54
(dp4514
sg63
g4508
sg56
(lp4515
g49
(g50
g51
NtRp4516
(dp4517
g54
(dp4518
g62
I1
ssg63
g4512
sg56
(lp4519
I00
asbasbasbag49
(g65
g51
NtRp4520
(dp4521
g54
(dp4522
sg63
g4492
sg56
(lp4523
g49
(g70
g51
NtRp4524
(dp4525
g54
(dp4526
sg63
g4520
sg56
(lp4527
g49
(g50
g51
NtRp4528
(dp4529
g54
(dp4530
g62
I1
ssg63
g4524
sg56
(lp4531
g3936
asbasbasbag49
(g65
g51
NtRp4532
(dp4533
g54
(dp4534
sg63
g4492
sg56
(lp4535
g49
(g70
g51
NtRp4536
(dp4537
g54
(dp4538
sg63
g4532
sg56
(lp4539
g49
(g50
g51
NtRp4540
(dp4541
g54
(dp4542
g62
I1
ssg63
g4536
sg56
(lp4543
(lp4544
(g3952
I00
g3950
tp4545
a(g3962
I00
g3960
tp4546
a(g3972
I00
g3970
tp4547
a(g3982
I00
g3980
tp4548
a(g3992
I00
g3990
tp4549
a(g4002
I00
g4000
tp4550
a(g4012
I00
g4010
tp4551
a(g4022
I00
g4020
tp4552
a(g4032
I00
g4030
tp4553
a(g4042
I00
g4040
tp4554
a(g4052
I00
g4050
tp4555
aasbasbasbasbasbasbasbag49
(g65
g51
NtRp4556
(dp4557
g54
(dp4558
sg63
g4350
sg56
(lp4559
g49
(g70
g51
NtRp4560
(dp4561
g54
(dp4562
sg63
g4556
sg56
(lp4563
g49
(g50
g51
NtRp4564
(dp4565
g54
(dp4566
g62
I2
ssg63
g4560
sg56
(lp4567
g49
(g58
g51
NtRp4568
(dp4569
g54
(dp4570
g62
I1
ssg63
Nsg56
(lp4571
g49
(g65
g51
NtRp4572
(dp4573
g54
(dp4574
sg63
g4568
sg56
(lp4575
g49
(g70
g51
NtRp4576
(dp4577
g54
(dp4578
sg63
g4572
sg56
(lp4579
g49
(g50
g51
NtRp4580
(dp4581
g54
(dp4582
g62
I1
ssg63
g4576
sg56
(lp4583
g4062
asbasbasbag49
(g65
g51
NtRp4584
(dp4585
g54
(dp4586
sg63
g4568
sg56
(lp4587
g49
(g70
g51
NtRp4588
(dp4589
g54
(dp4590
sg63
g4584
sg56
(lp4591
g49
(g50
g51
NtRp4592
(dp4593
g54
(dp4594
g62
I1
ssg63
g4588
sg56
(lp4595
I00
asbasbasbag49
(g65
g51
NtRp4596
(dp4597
g54
(dp4598
sg63
g4568
sg56
(lp4599
g49
(g70
g51
NtRp4600
(dp4601
g54
(dp4602
sg63
g4596
sg56
(lp4603
g49
(g50
g51
NtRp4604
(dp4605
g54
(dp4606
g62
I1
ssg63
g4600
sg56
(lp4607
g4060
asbasbasbag49
(g65
g51
NtRp4608
(dp4609
g54
(dp4610
sg63
g4568
sg56
(lp4611
g49
(g70
g51
NtRp4612
(dp4613
g54
(dp4614
sg63
g4608
sg56
(lp4615
g49
(g50
g51
NtRp4616
(dp4617
g54
(dp4618
g62
I1
ssg63
g4612
sg56
(lp4619
(lp4620
(g4076
I00
g4074
tp4621
a(g4086
I00
g4084
tp4622
a(g4096
I00
g4094
tp4623
a(g4106
I00
g4104
tp4624
a(g4116
I00
g4114
tp4625
a(g4126
I00
g4124
tp4626
a(g4136
I00
g4134
tp4627
a(g4146
I00
g4144
tp4628
a(g4156
I00
g4154
tp4629
a(g4166
I00
g4164
tp4630
a(g4176
I00
g4174
tp4631
a(g4186
I00
g4184
tp4632
a(g4196
I00
g4194
tp4633
a(g4206
I00
g4204
tp4634
a(g4216
I00
g4214
tp4635
a(g4226
I00
g4224
tp4636
aasbasbasbasbasbasbasbag49
(g65
g51
NtRp4637
(dp4638
g54
(dp4639
sg63
g4350
sg56
(lp4640
g49
(g70
g51
NtRp4641
(dp4642
g54
(dp4643
sg63
g4637
sg56
(lp4644
g49
(g50
g51
NtRp4645
(dp4646
g54
(dp4647
g62
I2
ssg63
g4641
sg56
(lp4648
g49
(g58
g51
NtRp4649
(dp4650
g54
(dp4651
g62
I1
ssg63
Nsg56
(lp4652
g49
(g65
g51
NtRp4653
(dp4654
g54
(dp4655
sg63
g4649
sg56
(lp4656
g49
(g70
g51
NtRp4657
(dp4658
g54
(dp4659
sg63
g4653
sg56
(lp4660
g49
(g50
g51
NtRp4661
(dp4662
g54
(dp4663
g62
I1
ssg63
g4657
sg56
(lp4664
g4235
asbasbasbag49
(g65
g51
NtRp4665
(dp4666
g54
(dp4667
sg63
g4649
sg56
(lp4668
g49
(g70
g51
NtRp4669
(dp4670
g54
(dp4671
sg63
g4665
sg56
(lp4672
g49
(g50
g51
NtRp4673
(dp4674
g54
(dp4675
g62
I1
ssg63
g4669
sg56
(lp4676
I00
asbasbasbag49
(g65
g51
NtRp4677
(dp4678
g54
(dp4679
sg63
g4649
sg56
(lp4680
g49
(g70
g51
NtRp4681
(dp4682
g54
(dp4683
sg63
g4677
sg56
(lp4684
g49
(g50
g51
NtRp4685
(dp4686
g54
(dp4687
g62
I1
ssg63
g4681
sg56
(lp4688
Nasbasbasbag49
(g65
g51
NtRp4689
(dp4690
g54
(dp4691
sg63
g4649
sg56
(lp4692
g49
(g70
g51
NtRp4693
(dp4694
g54
(dp4695
sg63
g4689
sg56
(lp4696
g49
(g50
g51
NtRp4697
(dp4698
g54
(dp4699
g62
I1
ssg63
g4693
sg56
(lp4700
(lp4701
(g4249
I00
g4247
tp4702
a(g4259
I00
g4257
tp4703
a(g4269
I00
g4267
tp4704
aasbasbasbasbasbasbasbag49
(g65
g51
NtRp4705
(dp4706
g54
(dp4707
sg63
g4350
sg56
(lp4708
g49
(g70
g51
NtRp4709
(dp4710
g54
(dp4711
sg63
g4705
sg56
(lp4712
g49
(g50
g51
NtRp4713
(dp4714
g54
(dp4715
g62
I2
ssg63
g4709
sg56
(lp4716
g49
(g58
g51
NtRp4717
(dp4718
g54
(dp4719
g62
I1
ssg63
Nsg56
(lp4720
g49
(g65
g51
NtRp4721
(dp4722
g54
(dp4723
sg63
g4717
sg56
(lp4724
g49
(g70
g51
NtRp4725
(dp4726
g54
(dp4727
sg63
g4721
sg56
(lp4728
g49
(g50
g51
NtRp4729
(dp4730
g54
(dp4731
g62
I1
ssg63
g4725
sg56
(lp4732
g4278
asbasbasbag49
(g65
g51
NtRp4733
(dp4734
g54
(dp4735
sg63
g4717
sg56
(lp4736
g49
(g70
g51
NtRp4737
(dp4738
g54
(dp4739
sg63
g4733
sg56
(lp4740
g49
(g50
g51
NtRp4741
(dp4742
g54
(dp4743
g62
I1
ssg63
g4737
sg56
(lp4744
I00
asbasbasbag49
(g65
g51
NtRp4745
(dp4746
g54
(dp4747
sg63
g4717
sg56
(lp4748
g49
(g70
g51
NtRp4749
(dp4750
g54
(dp4751
sg63
g4745
sg56
(lp4752
g49
(g50
g51
NtRp4753
(dp4754
g54
(dp4755
g62
I1
ssg63
g4749
sg56
(lp4756
Nasbasbasbag49
(g65
g51
NtRp4757
(dp4758
g54
(dp4759
sg63
g4717
sg56
(lp4760
g49
(g70
g51
NtRp4761
(dp4762
g54
(dp4763
sg63
g4757
sg56
(lp4764
g49
(g50
g51
NtRp4765
(dp4766
g54
(dp4767
g62
I1
ssg63
g4761
sg56
(lp4768
(lp4769
(g4292
I00
g4290
tp4770
a(g4301
I00
g4020
tp4771
a(g4310
I00
g4030
tp4772
aasbasbasbasbasbasbasbasbasbasbasbasbasbasbasbasbasbasbasbag49
(g65
g51
NtRp4773
(dp4774
g54
(dp4775
sg63
g3073
sg56
(lp4776
g49
(g70
g51
NtRp4777
(dp4778
g54
(dp4779
g74
g75
ssg63
g4773
sg56
(lp4780
S'meta'
p4781
asbag49
(g70
g51
NtRp4782
(dp4783
g54
(dp4784
g81
g82
ssg63
g4773
sg56
(lp4785
S':'
asbag49
(g70
g51
NtRp4786
(dp4787
g54
(dp4788
sg63
g4773
sg56
(lp4789
g49
(g50
g51
NtRp4790
(dp4791
g54
(dp4792
g62
I5
ssg63
g4786
sg56
(lp4793
g49
(g58
g51
NtRp4794
(dp4795
g54
(dp4796
g62
I4
ssg63
Nsg56
(lp4797
g49
(g65
g51
NtRp4798
(dp4799
g54
(dp4800
sg63
g4794
sg56
(lp4801
g49
(g70
g51
NtRp4802
(dp4803
g54
(dp4804
g74
g75
ssg63
g4798
sg56
(lp4805
S'author'
p4806
asbag49
(g70
g51
NtRp4807
(dp4808
g54
(dp4809
g81
g82
ssg63
g4798
sg56
(lp4810
S':'
asbag49
(g70
g51
NtRp4811
(dp4812
g54
(dp4813
sg63
g4798
sg56
(lp4814
g49
(g50
g51
NtRp4815
(dp4816
g54
(dp4817
g62
I4
ssg63
g4811
sg56
(lp4818
S'Your Name <you@example.com>'
p4819
asbasbasbag49
(g65
g51
NtRp4820
(dp4821
g54
(dp4822
sg63
g4794
sg56
(lp4823
g49
(g70
g51
NtRp4824
(dp4825
g54
(dp4826
g74
g75
ssg63
g4820
sg56
(lp4827
S'copyright'
p4828
asbag49
(g70
g51
NtRp4829
(dp4830
g54
(dp4831
g81
g82
ssg63
g4820
sg56
(lp4832
S':'
asbag49
(g70
g51
NtRp4833
(dp4834
g54
(dp4835
sg63
g4820
sg56
(lp4836
g49
(g50
g51
NtRp4837
(dp4838
g54
(dp4839
g62
I4
ssg63
g4833
sg56
(lp4840
S'Copyright 2011'
p4841
asbasbasbag49
(g65
g51
NtRp4842
(dp4843
g54
(dp4844
sg63
g4794
sg56
(lp4845
g49
(g70
g51
NtRp4846
(dp4847
g54
(dp4848
g74
g75
ssg63
g4842
sg56
(lp4849
S'description'
p4850
asbag49
(g70
g51
NtRp4851
(dp4852
g54
(dp4853
g81
g82
ssg63
g4842
sg56
(lp4854
S':'
asbag49
(g70
g51
NtRp4855
(dp4856
g54
(dp4857
sg63
g4842
sg56
(lp4858
g49
(g50
g51
NtRp4859
(dp4860
g54
(dp4861
g62
I4
ssg63
g4855
sg56
(lp4862
S'a cool new app'
p4863
asbasbasbag49
(g65
g51
NtRp4864
(dp4865
g54
(dp4866
sg63
g4794
sg56
(lp4867
g49
(g70
g51
NtRp4868
(dp4869
g54
(dp4870
g74
g75
ssg63
g4864
sg56
(lp4871
S'generator'
p4872
asbag49
(g70
g51
NtRp4873
(dp4874
g54
(dp4875
g81
g82
ssg63
g4864
sg56
(lp4876
S':'
asbag49
(g70
g51
NtRp4877
(dp4878
g54
(dp4879
sg63
g4864
sg56
(lp4880
g49
(g50
g51
NtRp4881
(dp4882
g54
(dp4883
g62
I4
ssg63
g4877
sg56
(lp4884
S'Web2py Web Framework'
p4885
asbasbasbag49
(g65
g51
NtRp4886
(dp4887
g54
(dp4888
sg63
g4794
sg56
(lp4889
g49
(g70
g51
NtRp4890
(dp4891
g54
(dp4892
g74
g75
ssg63
g4886
sg56
(lp4893
S'keywords'
p4894
asbag49
(g70
g51
NtRp4895
(dp4896
g54
(dp4897
g81
g82
ssg63
g4886
sg56
(lp4898
S':'
asbag49
(g70
g51
NtRp4899
(dp4900
g54
(dp4901
sg63
g4886
sg56
(lp4902
g49
(g50
g51
NtRp4903
(dp4904
g54
(dp4905
g62
I4
ssg63
g4899
sg56
(lp4906
S'web2py, python, framework'
p4907
asbasbasbasbasbasbasbag49
(g65
g51
NtRp4908
(dp4909
g54
(dp4910
sg63
g3073
sg56
(lp4911
g49
(g70
g51
NtRp4912
(dp4913
g54
(dp4914
g74
g75
ssg63
g4908
sg56
(lp4915
S'postprocessing'
p4916
asbag49
(g70
g51
NtRp4917
(dp4918
g54
(dp4919
g81
g82
ssg63
g4908
sg56
(lp4920
S':'
asbag49
(g70
g51
NtRp4921
(dp4922
g54
(dp4923
sg63
g4908
sg56
(lp4924
g49
(g50
g51
NtRp4925
(dp4926
g54
(dp4927
g62
I5
ssg63
g4921
sg56
(lp4928
g49
(g58
g51
NtRp4929
(dp4930
g54
(dp4931
g62
I4
ssg63
Nsg56
(lp4932
sbasbasbasbag49
(g65
g51
NtRp4933
(dp4934
g54
(dp4935
sg63
g3073
sg56
(lp4936
g49
(g70
g51
NtRp4937
(dp4938
g54
(dp4939
g74
g75
ssg63
g4933
sg56
(lp4940
S'session_file'
p4941
asbag49
(g70
g51
NtRp4942
(dp4943
g54
(dp4944
g81
g82
ssg63
g4933
sg56
(lp4945
S':'
asbag49
(g70
g51
NtRp4946
(dp4947
g54
(dp4948
sg63
g4933
sg56
(lp4949
g49
(g50
g51
NtRp4950
(dp4951
g54
(dp4952
g62
I5
ssg63
g4946
sg56
(lp4953
S"<open file 'C:\\web2py\\applications\\unioeste_code\\sessions\\127.0.0.1-bc48ac14-a4c3-4aad-bdf5-edbbf68c575e', mode 'rb+' at 0x0847F3C8>"
p4954
asbasbasbag49
(g65
g51
NtRp4955
(dp4956
g54
(dp4957
sg63
g3073
sg56
(lp4958
g49
(g70
g51
NtRp4959
(dp4960
g54
(dp4961
g74
g75
ssg63
g4955
sg56
(lp4962
S'session_filename'
p4963
asbag49
(g70
g51
NtRp4964
(dp4965
g54
(dp4966
g81
g82
ssg63
g4955
sg56
(lp4967
S':'
asbag49
(g70
g51
NtRp4968
(dp4969
g54
(dp4970
sg63
g4955
sg56
(lp4971
g49
(g50
g51
NtRp4972
(dp4973
g54
(dp4974
g62
I5
ssg63
g4968
sg56
(lp4975
S'C:\\web2py\\applications\\unioeste_code\\sessions\\127.0.0.1-bc48ac14-a4c3-4aad-bdf5-edbbf68c575e'
p4976
asbasbasbag49
(g65
g51
NtRp4977
(dp4978
g54
(dp4979
sg63
g3073
sg56
(lp4980
g49
(g70
g51
NtRp4981
(dp4982
g54
(dp4983
g74
g75
ssg63
g4977
sg56
(lp4984
S'session_id'
p4985
asbag49
(g70
g51
NtRp4986
(dp4987
g54
(dp4988
g81
g82
ssg63
g4977
sg56
(lp4989
S':'
asbag49
(g70
g51
NtRp4990
(dp4991
g54
(dp4992
sg63
g4977
sg56
(lp4993
g49
(g50
g51
NtRp4994
(dp4995
g54
(dp4996
g62
I5
ssg63
g4990
sg56
(lp4997
S'127.0.0.1-bc48ac14-a4c3-4aad-bdf5-edbbf68c575e'
p4998
asbasbasbag49
(g65
g51
NtRp4999
(dp5000
g54
(dp5001
sg63
g3073
sg56
(lp5002
g49
(g70
g51
NtRp5003
(dp5004
g54
(dp5005
g74
g75
ssg63
g4999
sg56
(lp5006
S'session_id_name'
p5007
asbag49
(g70
g51
NtRp5008
(dp5009
g54
(dp5010
g81
g82
ssg63
g4999
sg56
(lp5011
S':'
asbag49
(g70
g51
NtRp5012
(dp5013
g54
(dp5014
sg63
g4999
sg56
(lp5015
g49
(g50
g51
NtRp5016
(dp5017
g54
(dp5018
g62
I5
ssg63
g5012
sg56
(lp5019
g3130
asbasbasbag49
(g65
g51
NtRp5020
(dp5021
g54
(dp5022
sg63
g3073
sg56
(lp5023
g49
(g70
g51
NtRp5024
(dp5025
g54
(dp5026
g74
g75
ssg63
g5020
sg56
(lp5027
S'session_locked'
p5028
asbag49
(g70
g51
NtRp5029
(dp5030
g54
(dp5031
g81
g82
ssg63
g5020
sg56
(lp5032
S':'
asbag49
(g70
g51
NtRp5033
(dp5034
g54
(dp5035
sg63
g5020
sg56
(lp5036
g49
(g50
g51
NtRp5037
(dp5038
g54
(dp5039
g62
I5
ssg63
g5033
sg56
(lp5040
g891
asbasbasbag49
(g65
g51
NtRp5041
(dp5042
g54
(dp5043
sg63
g3073
sg56
(lp5044
g49
(g70
g51
NtRp5045
(dp5046
g54
(dp5047
g74
g75
ssg63
g5041
sg56
(lp5048
S'session_new'
p5049
asbag49
(g70
g51
NtRp5050
(dp5051
g54
(dp5052
g81
g82
ssg63
g5041
sg56
(lp5053
S':'
asbag49
(g70
g51
NtRp5054
(dp5055
g54
(dp5056
sg63
g5041
sg56
(lp5057
g49
(g50
g51
NtRp5058
(dp5059
g54
(dp5060
g62
I5
ssg63
g5054
sg56
(lp5061
g92
asbasbasbag49
(g65
g51
NtRp5062
(dp5063
g54
(dp5064
sg63
g3073
sg56
(lp5065
g49
(g70
g51
NtRp5066
(dp5067
g54
(dp5068
g74
g75
ssg63
g5062
sg56
(lp5069
S'status'
p5070
asbag49
(g70
g51
NtRp5071
(dp5072
g54
(dp5073
g81
g82
ssg63
g5062
sg56
(lp5074
S':'
asbag49
(g70
g51
NtRp5075
(dp5076
g54
(dp5077
sg63
g5062
sg56
(lp5078
g49
(g50
g51
NtRp5079
(dp5080
g54
(dp5081
g62
I5
ssg63
g5075
sg56
(lp5082
S'200'
p5083
asbasbasbag49
(g65
g51
NtRp5084
(dp5085
g54
(dp5086
sg63
g3073
sg56
(lp5087
g49
(g70
g51
NtRp5088
(dp5089
g54
(dp5090
g74
g75
ssg63
g5084
sg56
(lp5091
S'subtitle'
p5092
asbag49
(g70
g51
NtRp5093
(dp5094
g54
(dp5095
g81
g82
ssg63
g5084
sg56
(lp5096
S':'
asbag49
(g70
g51
NtRp5097
(dp5098
g54
(dp5099
sg63
g5084
sg56
(lp5100
g49
(g50
g51
NtRp5101
(dp5102
g54
(dp5103
g62
I5
ssg63
g5097
sg56
(lp5104
g3701
(S's\x0f\x00\x00\x00Personalize-me!'
tRp5105
asbasbasbag49
(g65
g51
NtRp5106
(dp5107
g54
(dp5108
sg63
g3073
sg56
(lp5109
g49
(g70
g51
NtRp5110
(dp5111
g54
(dp5112
g74
g75
ssg63
g5106
sg56
(lp5113
S'title'
p5114
asbag49
(g70
g51
NtRp5115
(dp5116
g54
(dp5117
g81
g82
ssg63
g5106
sg56
(lp5118
S':'
asbag49
(g70
g51
NtRp5119
(dp5120
g54
(dp5121
sg63
g5106
sg56
(lp5122
g49
(g50
g51
NtRp5123
(dp5124
g54
(dp5125
g62
I5
ssg63
g5119
sg56
(lp5126
S'Unioeste Code'
p5127
asbasbasbag49
(g65
g51
NtRp5128
(dp5129
g54
(dp5130
sg63
g3073
sg56
(lp5131
g49
(g70
g51
NtRp5132
(dp5133
g54
(dp5134
g74
g75
ssg63
g5128
sg56
(lp5135
g2294
asbag49
(g70
g51
NtRp5136
(dp5137
g54
(dp5138
g81
g82
ssg63
g5128
sg56
(lp5139
S':'
asbag49
(g70
g51
NtRp5140
(dp5141
g54
(dp5142
sg63
g5128
sg56
(lp5143
g49
(g50
g51
NtRp5144
(dp5145
g54
(dp5146
g62
I5
ssg63
g5140
sg56
(lp5147
g2307
asbasbasbag49
(g65
g51
NtRp5148
(dp5149
g54
(dp5150
sg63
g3073
sg56
(lp5151
g49
(g70
g51
NtRp5152
(dp5153
g54
(dp5154
g74
g75
ssg63
g5148
sg56
(lp5155
S'view'
p5156
asbag49
(g70
g51
NtRp5157
(dp5158
g54
(dp5159
g81
g82
ssg63
g5148
sg56
(lp5160
S':'
asbag49
(g70
g51
NtRp5161
(dp5162
g54
(dp5163
sg63
g5148
sg56
(lp5164
g49
(g50
g51
NtRp5165
(dp5166
g54
(dp5167
g62
I5
ssg63
g5161
sg56
(lp5168
S'default/index.html'
p5169
asbasbasbasbasbsS'locals'
p5170
(dp5171
S'__module__'
p5172
S"'applications.unioeste_code.modules.pyGravatar'"
p5173
sg40
S"'\\n    Represents a Gravatar user.\\n    '"
p5174
sg42
S'<function __init__ at 0x08556470>'
p5175
sg368
S'<property object at 0x08450DF0>'
p5176
sssS'traceback'
p5177
S'Traceback (most recent call last):\n  File "gluon/restricted.py", line 205, in restricted\n  File "C:\\web2py\\applications\\unioeste_code\\views\\default/index.html", line 90, in <module>\n  File "gluon/custom_import.py", line 289, in __call__\n  File "gluon/custom_import.py", line 78, in __call__\n  File "applications\\unioeste_code\\modules\\pyGravatar.py", line 27, in <module>\n  File "applications\\unioeste_code\\modules\\pyGravatar.py", line 47, in Gravatar\nAttributeError: \'property\' object has no attribute \'setter\'\n'
p5178
s.