(dp1
S'output'
p2
S"<type 'exceptions.ValueError'> invalid literal for int() with base 10: 'static'"
p3
sS'layer'
p4
S'C:\\web2py\\applications\\unioeste_code\\controllers/default.py'
p5
sS'code'
p6
S'# -*- coding: utf-8 -*-\n# this file is released under public domain and you can use without limitations\n\n#########################################################################\n## This is a samples controller\n## - index is the default action of any application\n## - user is required for authentication and authorization\n## - download is for downloading files uploaded in the db (does streaming)\n## - call exposes all registered services (none by default)\n#########################################################################\n\ndef index():\n    problems = db().select(db.problem.ALL, orderby = db.problem.title)\n    return dict(problems=problems)\n\ndef showProblem():\n    problem = db(db.problem.id==request.args(0)).select().first()\n    db.code.problem_id.default = problem.id\n    form = SQLFORM(db.code)\n    if form.process().accepted:\n        response.flash = \'your code is posted\'\n    codes = db(db.code.problem_id == problem.id).select()    \n    return dict(problem=problem, codes=codes, form=form)\n\ndef showCode():\n    return dict(message=message)\n\ndef problems():\n    problems = db().select(db.problem.ALL, orderby = db.problem.title)\n    return dict(problems=problems)\n\n@auth.requires_membership(\'manager\')\ndef manageCode():\n    grid = SQLFORM.smartgrid(db.code)\n    return dict(grid=grid)\n\ndef user():\n    """\n    exposes:\n    http://..../[app]/default/user/login\n    http://..../[app]/default/user/logout\n    http://..../[app]/default/user/register\n    http://..../[app]/default/user/profile\n    http://..../[app]/default/user/retrieve_password\n    http://..../[app]/default/user/change_password\n    use @auth.requires_login()\n        @auth.requires_membership(\'group name\')\n        @auth.requires_permission(\'read\',\'table name\',record_id)\n    to decorate functions that need access control\n    """\n    return dict(form=auth())\n\n\ndef download():\n    """\n    allows downloading of uploaded files\n    http://..../[app]/default/download/[filename]\n    """\n    return response.download(request,db)\n\n\ndef call():\n    """\n    exposes services. for example:\n    http://..../[app]/default/call/jsonrpc\n    decorate with @services.jsonrpc the functions to expose\n    supports xml, json, xmlrpc, jsonrpc, amfrpc, rss, csv\n    """\n    return service()\n\n\n@auth.requires_signature()\ndef data():\n    """\n    http://..../[app]/default/data/tables\n    http://..../[app]/default/data/create/[table]\n    http://..../[app]/default/data/read/[table]/[id]\n    http://..../[app]/default/data/update/[table]/[id]\n    http://..../[app]/default/data/delete/[table]/[id]\n    http://..../[app]/default/data/select/[table]\n    http://..../[app]/default/data/search/[table]\n    but URLs must be signed, i.e. linked with\n      A(\'table\',_href=URL(\'data/tables\',user_signature=True))\n    or with the signed load operator\n      LOAD(\'default\',\'data.load\',args=\'tables\',ajax=True,user_signature=True)\n    """\n    return dict(form=crud())\n\n\nresponse._vars=response._caller(showProblem)\n'
p7
sS'snapshot'
p8
(dp9
S'exception'
p10
(dp11
S'__hash__'
p12
S"<method-wrapper '__hash__' of exceptions.ValueError object at 0x064A9AA8>"
p13
sS'__setattr__'
p14
S"<method-wrapper '__setattr__' of exceptions.ValueError object at 0x064A9AA8>"
p15
sS'__reduce_ex__'
p16
S'<built-in method __reduce_ex__ of exceptions.ValueError object at 0x064A9AA8>'
p17
sS'__getslice__'
p18
S"<method-wrapper '__getslice__' of exceptions.ValueError object at 0x064A9AA8>"
p19
sS'__getitem__'
p20
S"<method-wrapper '__getitem__' of exceptions.ValueError object at 0x064A9AA8>"
p21
sS'__setstate__'
p22
S'<built-in method __setstate__ of exceptions.ValueError object at 0x064A9AA8>'
p23
sS'__reduce__'
p24
S'<built-in method __reduce__ of exceptions.ValueError object at 0x064A9AA8>'
p25
sS'__str__'
p26
S"<method-wrapper '__str__' of exceptions.ValueError object at 0x064A9AA8>"
p27
sS'args'
p28
S'("invalid literal for int() with base 10: \'static\'",)'
p29
sS'__getattribute__'
p30
S"<method-wrapper '__getattribute__' of exceptions.ValueError object at 0x064A9AA8>"
p31
sS'__class__'
p32
S"<type 'exceptions.ValueError'>"
p33
sS'__delattr__'
p34
S"<method-wrapper '__delattr__' of exceptions.ValueError object at 0x064A9AA8>"
p35
sS'__repr__'
p36
S"<method-wrapper '__repr__' of exceptions.ValueError object at 0x064A9AA8>"
p37
sS'__dict__'
p38
S'{}'
p39
sS'__doc__'
p40
S"'Inappropriate argument value (of correct type).'"
p41
sS'__init__'
p42
S"<method-wrapper '__init__' of exceptions.ValueError object at 0x064A9AA8>"
p43
sS'__new__'
p44
S'<built-in method __new__ of type object at 0x1E1CE080>'
p45
ssS'evalue'
p46
S"invalid literal for int() with base 10: 'static'"
p47
sS'request'
p48
ccopy_reg
_reconstructor
p49
(cgluon.html
BEAUTIFY
p50
c__builtin__
object
p51
NtRp52
(dp53
S'attributes'
p54
(dp55
sS'components'
p56
(lp57
g49
(cgluon.html
TABLE
p58
g51
NtRp59
(dp60
g54
(dp61
S'level'
p62
I5
ssS'parent'
p63
Nsg56
(lp64
g49
(cgluon.html
TR
p65
g51
NtRp66
(dp67
g54
(dp68
sg63
g59
sg56
(lp69
g49
(cgluon.html
TD
p70
g51
NtRp71
(dp72
g54
(dp73
S'_style'
p74
S'font-weight:bold;vertical-align:top'
p75
ssg63
g66
sg56
(lp76
S'ajax'
p77
asbag49
(g70
g51
NtRp78
(dp79
g54
(dp80
S'_valign'
p81
S'top'
p82
ssg63
g66
sg56
(lp83
S':'
asbag49
(g70
g51
NtRp84
(dp85
g54
(dp86
sg63
g66
sg56
(lp87
g49
(g50
g51
NtRp88
(dp89
g54
(dp90
g62
I5
ssg63
g84
sg56
(lp91
S'False'
p92
asbasbasbag49
(g65
g51
NtRp93
(dp94
g54
(dp95
sg63
g59
sg56
(lp96
g49
(g70
g51
NtRp97
(dp98
g54
(dp99
g74
g75
ssg63
g93
sg56
(lp100
S'application'
p101
asbag49
(g70
g51
NtRp102
(dp103
g54
(dp104
g81
g82
ssg63
g93
sg56
(lp105
S':'
asbag49
(g70
g51
NtRp106
(dp107
g54
(dp108
sg63
g93
sg56
(lp109
g49
(g50
g51
NtRp110
(dp111
g54
(dp112
g62
I5
ssg63
g106
sg56
(lp113
S'unioeste_code'
p114
asbasbasbag49
(g65
g51
NtRp115
(dp116
g54
(dp117
sg63
g59
sg56
(lp118
g49
(g70
g51
NtRp119
(dp120
g54
(dp121
g74
g75
ssg63
g115
sg56
(lp122
g28
asbag49
(g70
g51
NtRp123
(dp124
g54
(dp125
g81
g82
ssg63
g115
sg56
(lp126
S':'
asbag49
(g70
g51
NtRp127
(dp128
g54
(dp129
sg63
g115
sg56
(lp130
g49
(g50
g51
NtRp131
(dp132
g54
(dp133
g62
I5
ssg63
g127
sg56
(lp134
g49
(g58
g51
NtRp135
(dp136
g54
(dp137
g62
I4
ssg63
Nsg56
(lp138
g49
(g65
g51
NtRp139
(dp140
g54
(dp141
sg63
g135
sg56
(lp142
g49
(g70
g51
NtRp143
(dp144
g54
(dp145
sg63
g139
sg56
(lp146
g49
(g50
g51
NtRp147
(dp148
g54
(dp149
g62
I4
ssg63
g143
sg56
(lp150
S'static'
p151
asbasbasbag49
(g65
g51
NtRp152
(dp153
g54
(dp154
sg63
g135
sg56
(lp155
g49
(g70
g51
NtRp156
(dp157
g54
(dp158
sg63
g152
sg56
(lp159
g49
(g50
g51
NtRp160
(dp161
g54
(dp162
g62
I4
ssg63
g156
sg56
(lp163
S'mode'
p164
asbasbasbag49
(g65
g51
NtRp165
(dp166
g54
(dp167
sg63
g135
sg56
(lp168
g49
(g70
g51
NtRp169
(dp170
g54
(dp171
sg63
g165
sg56
(lp172
g49
(g50
g51
NtRp173
(dp174
g54
(dp175
g62
I4
ssg63
g169
sg56
(lp176
S'clike.js'
p177
asbasbasbasbasbasbasbag49
(g65
g51
NtRp178
(dp179
g54
(dp180
sg63
g59
sg56
(lp181
g49
(g70
g51
NtRp182
(dp183
g54
(dp184
g74
g75
ssg63
g178
sg56
(lp185
S'body'
p186
asbag49
(g70
g51
NtRp187
(dp188
g54
(dp189
g81
g82
ssg63
g178
sg56
(lp190
S':'
asbag49
(g70
g51
NtRp191
(dp192
g54
(dp193
sg63
g178
sg56
(lp194
g49
(g50
g51
NtRp195
(dp196
g54
(dp197
g62
I5
ssg63
g191
sg56
(lp198
S'<cStringIO.StringO object at 0x030AC6A0>'
p199
asbasbasbag49
(g65
g51
NtRp200
(dp201
g54
(dp202
sg63
g59
sg56
(lp203
g49
(g70
g51
NtRp204
(dp205
g54
(dp206
g74
g75
ssg63
g200
sg56
(lp207
S'client'
p208
asbag49
(g70
g51
NtRp209
(dp210
g54
(dp211
g81
g82
ssg63
g200
sg56
(lp212
S':'
asbag49
(g70
g51
NtRp213
(dp214
g54
(dp215
sg63
g200
sg56
(lp216
g49
(g50
g51
NtRp217
(dp218
g54
(dp219
g62
I5
ssg63
g213
sg56
(lp220
S'127.0.0.1'
p221
asbasbasbag49
(g65
g51
NtRp222
(dp223
g54
(dp224
sg63
g59
sg56
(lp225
g49
(g70
g51
NtRp226
(dp227
g54
(dp228
g74
g75
ssg63
g222
sg56
(lp229
S'controller'
p230
asbag49
(g70
g51
NtRp231
(dp232
g54
(dp233
g81
g82
ssg63
g222
sg56
(lp234
S':'
asbag49
(g70
g51
NtRp235
(dp236
g54
(dp237
sg63
g222
sg56
(lp238
g49
(g50
g51
NtRp239
(dp240
g54
(dp241
g62
I5
ssg63
g235
sg56
(lp242
S'default'
p243
asbasbasbag49
(g65
g51
NtRp244
(dp245
g54
(dp246
sg63
g59
sg56
(lp247
g49
(g70
g51
NtRp248
(dp249
g54
(dp250
g74
g75
ssg63
g244
sg56
(lp251
S'cookies'
p252
asbag49
(g70
g51
NtRp253
(dp254
g54
(dp255
g81
g82
ssg63
g244
sg56
(lp256
S':'
asbag49
(g70
g51
NtRp257
(dp258
g54
(dp259
sg63
g244
sg56
(lp260
g49
(g50
g51
NtRp261
(dp262
g54
(dp263
g62
I5
ssg63
g257
sg56
(lp264
g49
(g58
g51
NtRp265
(dp266
g54
(dp267
g62
I4
ssg63
Nsg56
(lp268
g49
(g65
g51
NtRp269
(dp270
g54
(dp271
sg63
g265
sg56
(lp272
g49
(g70
g51
NtRp273
(dp274
g54
(dp275
g74
g75
ssg63
g269
sg56
(lp276
S'session_id_admin'
p277
asbag49
(g70
g51
NtRp278
(dp279
g54
(dp280
g81
g82
ssg63
g269
sg56
(lp281
S':'
asbag49
(g70
g51
NtRp282
(dp283
g54
(dp284
sg63
g269
sg56
(lp285
g49
(g50
g51
NtRp286
(dp287
g54
(dp288
g62
I4
ssg63
g282
sg56
(lp289
g49
(g58
g51
NtRp290
(dp291
g54
(dp292
g62
I3
ssg63
Nsg56
(lp293
g49
(g65
g51
NtRp294
(dp295
g54
(dp296
sg63
g290
sg56
(lp297
g49
(g70
g51
NtRp298
(dp299
g54
(dp300
g74
g75
ssg63
g294
sg56
(lp301
S'comment'
p302
asbag49
(g70
g51
NtRp303
(dp304
g54
(dp305
g81
g82
ssg63
g294
sg56
(lp306
S':'
asbag49
(g70
g51
NtRp307
(dp308
g54
(dp309
sg63
g294
sg56
(lp310
g49
(g50
g51
NtRp311
(dp312
g54
(dp313
g62
I3
ssg63
g307
sg56
(lp314
S''
asbasbasbag49
(g65
g51
NtRp315
(dp316
g54
(dp317
sg63
g290
sg56
(lp318
g49
(g70
g51
NtRp319
(dp320
g54
(dp321
g74
g75
ssg63
g315
sg56
(lp322
S'domain'
p323
asbag49
(g70
g51
NtRp324
(dp325
g54
(dp326
g81
g82
ssg63
g315
sg56
(lp327
S':'
asbag49
(g70
g51
NtRp328
(dp329
g54
(dp330
sg63
g315
sg56
(lp331
g49
(g50
g51
NtRp332
(dp333
g54
(dp334
g62
I3
ssg63
g328
sg56
(lp335
S''
asbasbasbag49
(g65
g51
NtRp336
(dp337
g54
(dp338
sg63
g290
sg56
(lp339
g49
(g70
g51
NtRp340
(dp341
g54
(dp342
g74
g75
ssg63
g336
sg56
(lp343
S'expires'
p344
asbag49
(g70
g51
NtRp345
(dp346
g54
(dp347
g81
g82
ssg63
g336
sg56
(lp348
S':'
asbag49
(g70
g51
NtRp349
(dp350
g54
(dp351
sg63
g336
sg56
(lp352
g49
(g50
g51
NtRp353
(dp354
g54
(dp355
g62
I3
ssg63
g349
sg56
(lp356
S''
asbasbasbag49
(g65
g51
NtRp357
(dp358
g54
(dp359
sg63
g290
sg56
(lp360
g49
(g70
g51
NtRp361
(dp362
g54
(dp363
g74
g75
ssg63
g357
sg56
(lp364
S'max-age'
p365
asbag49
(g70
g51
NtRp366
(dp367
g54
(dp368
g81
g82
ssg63
g357
sg56
(lp369
S':'
asbag49
(g70
g51
NtRp370
(dp371
g54
(dp372
sg63
g357
sg56
(lp373
g49
(g50
g51
NtRp374
(dp375
g54
(dp376
g62
I3
ssg63
g370
sg56
(lp377
S''
asbasbasbag49
(g65
g51
NtRp378
(dp379
g54
(dp380
sg63
g290
sg56
(lp381
g49
(g70
g51
NtRp382
(dp383
g54
(dp384
g74
g75
ssg63
g378
sg56
(lp385
S'path'
p386
asbag49
(g70
g51
NtRp387
(dp388
g54
(dp389
g81
g82
ssg63
g378
sg56
(lp390
S':'
asbag49
(g70
g51
NtRp391
(dp392
g54
(dp393
sg63
g378
sg56
(lp394
g49
(g50
g51
NtRp395
(dp396
g54
(dp397
g62
I3
ssg63
g391
sg56
(lp398
S''
asbasbasbag49
(g65
g51
NtRp399
(dp400
g54
(dp401
sg63
g290
sg56
(lp402
g49
(g70
g51
NtRp403
(dp404
g54
(dp405
g74
g75
ssg63
g399
sg56
(lp406
S'secure'
p407
asbag49
(g70
g51
NtRp408
(dp409
g54
(dp410
g81
g82
ssg63
g399
sg56
(lp411
S':'
asbag49
(g70
g51
NtRp412
(dp413
g54
(dp414
sg63
g399
sg56
(lp415
g49
(g50
g51
NtRp416
(dp417
g54
(dp418
g62
I3
ssg63
g412
sg56
(lp419
S''
asbasbasbag49
(g65
g51
NtRp420
(dp421
g54
(dp422
sg63
g290
sg56
(lp423
g49
(g70
g51
NtRp424
(dp425
g54
(dp426
g74
g75
ssg63
g420
sg56
(lp427
S'version'
p428
asbag49
(g70
g51
NtRp429
(dp430
g54
(dp431
g81
g82
ssg63
g420
sg56
(lp432
S':'
asbag49
(g70
g51
NtRp433
(dp434
g54
(dp435
sg63
g420
sg56
(lp436
g49
(g50
g51
NtRp437
(dp438
g54
(dp439
g62
I3
ssg63
g433
sg56
(lp440
S''
asbasbasbasbasbasbasbag49
(g65
g51
NtRp441
(dp442
g54
(dp443
sg63
g265
sg56
(lp444
g49
(g70
g51
NtRp445
(dp446
g54
(dp447
g74
g75
ssg63
g441
sg56
(lp448
S'session_id_unioeste_code'
p449
asbag49
(g70
g51
NtRp450
(dp451
g54
(dp452
g81
g82
ssg63
g441
sg56
(lp453
S':'
asbag49
(g70
g51
NtRp454
(dp455
g54
(dp456
sg63
g441
sg56
(lp457
g49
(g50
g51
NtRp458
(dp459
g54
(dp460
g62
I4
ssg63
g454
sg56
(lp461
g49
(g58
g51
NtRp462
(dp463
g54
(dp464
g62
I3
ssg63
Nsg56
(lp465
g49
(g65
g51
NtRp466
(dp467
g54
(dp468
sg63
g462
sg56
(lp469
g49
(g70
g51
NtRp470
(dp471
g54
(dp472
g74
g75
ssg63
g466
sg56
(lp473
g302
asbag49
(g70
g51
NtRp474
(dp475
g54
(dp476
g81
g82
ssg63
g466
sg56
(lp477
S':'
asbag49
(g70
g51
NtRp478
(dp479
g54
(dp480
sg63
g466
sg56
(lp481
g49
(g50
g51
NtRp482
(dp483
g54
(dp484
g62
I3
ssg63
g478
sg56
(lp485
S''
asbasbasbag49
(g65
g51
NtRp486
(dp487
g54
(dp488
sg63
g462
sg56
(lp489
g49
(g70
g51
NtRp490
(dp491
g54
(dp492
g74
g75
ssg63
g486
sg56
(lp493
g323
asbag49
(g70
g51
NtRp494
(dp495
g54
(dp496
g81
g82
ssg63
g486
sg56
(lp497
S':'
asbag49
(g70
g51
NtRp498
(dp499
g54
(dp500
sg63
g486
sg56
(lp501
g49
(g50
g51
NtRp502
(dp503
g54
(dp504
g62
I3
ssg63
g498
sg56
(lp505
S''
asbasbasbag49
(g65
g51
NtRp506
(dp507
g54
(dp508
sg63
g462
sg56
(lp509
g49
(g70
g51
NtRp510
(dp511
g54
(dp512
g74
g75
ssg63
g506
sg56
(lp513
g344
asbag49
(g70
g51
NtRp514
(dp515
g54
(dp516
g81
g82
ssg63
g506
sg56
(lp517
S':'
asbag49
(g70
g51
NtRp518
(dp519
g54
(dp520
sg63
g506
sg56
(lp521
g49
(g50
g51
NtRp522
(dp523
g54
(dp524
g62
I3
ssg63
g518
sg56
(lp525
S''
asbasbasbag49
(g65
g51
NtRp526
(dp527
g54
(dp528
sg63
g462
sg56
(lp529
g49
(g70
g51
NtRp530
(dp531
g54
(dp532
g74
g75
ssg63
g526
sg56
(lp533
g365
asbag49
(g70
g51
NtRp534
(dp535
g54
(dp536
g81
g82
ssg63
g526
sg56
(lp537
S':'
asbag49
(g70
g51
NtRp538
(dp539
g54
(dp540
sg63
g526
sg56
(lp541
g49
(g50
g51
NtRp542
(dp543
g54
(dp544
g62
I3
ssg63
g538
sg56
(lp545
S''
asbasbasbag49
(g65
g51
NtRp546
(dp547
g54
(dp548
sg63
g462
sg56
(lp549
g49
(g70
g51
NtRp550
(dp551
g54
(dp552
g74
g75
ssg63
g546
sg56
(lp553
g386
asbag49
(g70
g51
NtRp554
(dp555
g54
(dp556
g81
g82
ssg63
g546
sg56
(lp557
S':'
asbag49
(g70
g51
NtRp558
(dp559
g54
(dp560
sg63
g546
sg56
(lp561
g49
(g50
g51
NtRp562
(dp563
g54
(dp564
g62
I3
ssg63
g558
sg56
(lp565
S''
asbasbasbag49
(g65
g51
NtRp566
(dp567
g54
(dp568
sg63
g462
sg56
(lp569
g49
(g70
g51
NtRp570
(dp571
g54
(dp572
g74
g75
ssg63
g566
sg56
(lp573
g407
asbag49
(g70
g51
NtRp574
(dp575
g54
(dp576
g81
g82
ssg63
g566
sg56
(lp577
S':'
asbag49
(g70
g51
NtRp578
(dp579
g54
(dp580
sg63
g566
sg56
(lp581
g49
(g50
g51
NtRp582
(dp583
g54
(dp584
g62
I3
ssg63
g578
sg56
(lp585
S''
asbasbasbag49
(g65
g51
NtRp586
(dp587
g54
(dp588
sg63
g462
sg56
(lp589
g49
(g70
g51
NtRp590
(dp591
g54
(dp592
g74
g75
ssg63
g586
sg56
(lp593
g428
asbag49
(g70
g51
NtRp594
(dp595
g54
(dp596
g81
g82
ssg63
g586
sg56
(lp597
S':'
asbag49
(g70
g51
NtRp598
(dp599
g54
(dp600
sg63
g586
sg56
(lp601
g49
(g50
g51
NtRp602
(dp603
g54
(dp604
g62
I3
ssg63
g598
sg56
(lp605
S''
asbasbasbasbasbasbasbasbasbasbasbag49
(g65
g51
NtRp606
(dp607
g54
(dp608
sg63
g59
sg56
(lp609
g49
(g70
g51
NtRp610
(dp611
g54
(dp612
g74
g75
ssg63
g606
sg56
(lp613
S'env'
p614
asbag49
(g70
g51
NtRp615
(dp616
g54
(dp617
g81
g82
ssg63
g606
sg56
(lp618
S':'
asbag49
(g70
g51
NtRp619
(dp620
g54
(dp621
sg63
g606
sg56
(lp622
g49
(g50
g51
NtRp623
(dp624
g54
(dp625
g62
I5
ssg63
g619
sg56
(lp626
g49
(g58
g51
NtRp627
(dp628
g54
(dp629
g62
I4
ssg63
Nsg56
(lp630
g49
(g65
g51
NtRp631
(dp632
g54
(dp633
sg63
g627
sg56
(lp634
g49
(g70
g51
NtRp635
(dp636
g54
(dp637
g74
g75
ssg63
g631
sg56
(lp638
S'app_folders'
p639
asbag49
(g70
g51
NtRp640
(dp641
g54
(dp642
g81
g82
ssg63
g631
sg56
(lp643
S':'
asbag49
(g70
g51
NtRp644
(dp645
g54
(dp646
sg63
g631
sg56
(lp647
g49
(g50
g51
NtRp648
(dp649
g54
(dp650
g62
I4
ssg63
g644
sg56
(lp651
S"set(['C:\\\\web2py\\\\applications\\\\admin\\\\', 'C:\\\\web2py\\\\applications\\\\welcome\\\\', 'C:\\\\web2py\\\\applications\\\\unioeste_code\\\\'])"
p652
asbasbasbag49
(g65
g51
NtRp653
(dp654
g54
(dp655
sg63
g627
sg56
(lp656
g49
(g70
g51
NtRp657
(dp658
g54
(dp659
g74
g75
ssg63
g653
sg56
(lp660
S'applications_parent'
p661
asbag49
(g70
g51
NtRp662
(dp663
g54
(dp664
g81
g82
ssg63
g653
sg56
(lp665
S':'
asbag49
(g70
g51
NtRp666
(dp667
g54
(dp668
sg63
g653
sg56
(lp669
g49
(g50
g51
NtRp670
(dp671
g54
(dp672
g62
I4
ssg63
g666
sg56
(lp673
S'C:\\web2py'
p674
asbasbasbag49
(g65
g51
NtRp675
(dp676
g54
(dp677
sg63
g627
sg56
(lp678
g49
(g70
g51
NtRp679
(dp680
g54
(dp681
g74
g75
ssg63
g675
sg56
(lp682
S'cmd_args'
p683
asbag49
(g70
g51
NtRp684
(dp685
g54
(dp686
g81
g82
ssg63
g675
sg56
(lp687
S':'
asbag49
(g70
g51
NtRp688
(dp689
g54
(dp690
sg63
g675
sg56
(lp691
g49
(g50
g51
NtRp692
(dp693
g54
(dp694
g62
I4
ssg63
g688
sg56
(lp695
g49
(g58
g51
NtRp696
(dp697
g54
(dp698
g62
I3
ssg63
Nsg56
(lp699
sbasbasbasbag49
(g65
g51
NtRp700
(dp701
g54
(dp702
sg63
g627
sg56
(lp703
g49
(g70
g51
NtRp704
(dp705
g54
(dp706
g74
g75
ssg63
g700
sg56
(lp707
S'cmd_options'
p708
asbag49
(g70
g51
NtRp709
(dp710
g54
(dp711
g81
g82
ssg63
g700
sg56
(lp712
S':'
asbag49
(g70
g51
NtRp713
(dp714
g54
(dp715
sg63
g700
sg56
(lp716
g49
(g50
g51
NtRp717
(dp718
g54
(dp719
g62
I4
ssg63
g713
sg56
(lp720
S"<Values at 0x309c300: {'verbose': False, 'ip': '127.0.0.1', 'shutdown_timeout': 5, 'taskbar': False, 'nocron': False, 'pid_filename': 'httpserver.pid', 'maxthreads': None, 'softcron': False, 'server_name': 'Pedro-PC', 'bpython': False, 'nogui': False, 'port': 8000, 'extcron': False, 'debuglevel': 30, 'test': None, 'folder': 'C:\\\\web2py', 'config': '', 'import_models': False, 'winservice': '', 'shell': None, 'run': '', 'log_filename': 'httpserver.log', 'args': [''], 'socket_timeout': 5, 'ssl_ca_certificate': None, 'scheduler': None, 'profiler_filename': None, 'ssl_private_key': '', 'password': '<ask>', 'request_queue_size': 5, 'ssl_certificate': '', 'cronjob': False, 'numthreads': None, 'quiet': False, 'interfaces': None, 'minthreads': None, 'timeout': 10, 'plain': False, 'nobanner': False}>"
p721
asbasbasbag49
(g65
g51
NtRp722
(dp723
g54
(dp724
sg63
g627
sg56
(lp725
g49
(g70
g51
NtRp726
(dp727
g54
(dp728
g74
g75
ssg63
g722
sg56
(lp729
S'db_sessions'
p730
asbag49
(g70
g51
NtRp731
(dp732
g54
(dp733
g81
g82
ssg63
g722
sg56
(lp734
S':'
asbag49
(g70
g51
NtRp735
(dp736
g54
(dp737
sg63
g722
sg56
(lp738
g49
(g50
g51
NtRp739
(dp740
g54
(dp741
g62
I4
ssg63
g735
sg56
(lp742
S'set([])'
p743
asbasbasbag49
(g65
g51
NtRp744
(dp745
g54
(dp746
sg63
g627
sg56
(lp747
g49
(g70
g51
NtRp748
(dp749
g54
(dp750
g74
g75
ssg63
g744
sg56
(lp751
S'debugging'
p752
asbag49
(g70
g51
NtRp753
(dp754
g54
(dp755
g81
g82
ssg63
g744
sg56
(lp756
S':'
asbag49
(g70
g51
NtRp757
(dp758
g54
(dp759
sg63
g744
sg56
(lp760
g49
(g50
g51
NtRp761
(dp762
g54
(dp763
g62
I4
ssg63
g757
sg56
(lp764
g92
asbasbasbag49
(g65
g51
NtRp765
(dp766
g54
(dp767
sg63
g627
sg56
(lp768
g49
(g70
g51
NtRp769
(dp770
g54
(dp771
g74
g75
ssg63
g765
sg56
(lp772
S'gluon_parent'
p773
asbag49
(g70
g51
NtRp774
(dp775
g54
(dp776
g81
g82
ssg63
g765
sg56
(lp777
S':'
asbag49
(g70
g51
NtRp778
(dp779
g54
(dp780
sg63
g765
sg56
(lp781
g49
(g50
g51
NtRp782
(dp783
g54
(dp784
g62
I4
ssg63
g778
sg56
(lp785
S'C:\\web2py'
p786
asbasbasbag49
(g65
g51
NtRp787
(dp788
g54
(dp789
sg63
g627
sg56
(lp790
g49
(g70
g51
NtRp791
(dp792
g54
(dp793
g74
g75
ssg63
g787
sg56
(lp794
S'http_accept'
p795
asbag49
(g70
g51
NtRp796
(dp797
g54
(dp798
g81
g82
ssg63
g787
sg56
(lp799
S':'
asbag49
(g70
g51
NtRp800
(dp801
g54
(dp802
sg63
g787
sg56
(lp803
g49
(g50
g51
NtRp804
(dp805
g54
(dp806
g62
I4
ssg63
g800
sg56
(lp807
S'text/html,application/xhtml+xml,application/xml;q=0.9,*/*;q=0.8'
p808
asbasbasbag49
(g65
g51
NtRp809
(dp810
g54
(dp811
sg63
g627
sg56
(lp812
g49
(g70
g51
NtRp813
(dp814
g54
(dp815
g74
g75
ssg63
g809
sg56
(lp816
S'http_accept_charset'
p817
asbag49
(g70
g51
NtRp818
(dp819
g54
(dp820
g81
g82
ssg63
g809
sg56
(lp821
S':'
asbag49
(g70
g51
NtRp822
(dp823
g54
(dp824
sg63
g809
sg56
(lp825
g49
(g50
g51
NtRp826
(dp827
g54
(dp828
g62
I4
ssg63
g822
sg56
(lp829
S'ISO-8859-1,utf-8;q=0.7,*;q=0.3'
p830
asbasbasbag49
(g65
g51
NtRp831
(dp832
g54
(dp833
sg63
g627
sg56
(lp834
g49
(g70
g51
NtRp835
(dp836
g54
(dp837
g74
g75
ssg63
g831
sg56
(lp838
S'http_accept_encoding'
p839
asbag49
(g70
g51
NtRp840
(dp841
g54
(dp842
g81
g82
ssg63
g831
sg56
(lp843
S':'
asbag49
(g70
g51
NtRp844
(dp845
g54
(dp846
sg63
g831
sg56
(lp847
g49
(g50
g51
NtRp848
(dp849
g54
(dp850
g62
I4
ssg63
g844
sg56
(lp851
S'gzip,deflate,sdch'
p852
asbasbasbag49
(g65
g51
NtRp853
(dp854
g54
(dp855
sg63
g627
sg56
(lp856
g49
(g70
g51
NtRp857
(dp858
g54
(dp859
g74
g75
ssg63
g853
sg56
(lp860
S'http_accept_language'
p861
asbag49
(g70
g51
NtRp862
(dp863
g54
(dp864
g81
g82
ssg63
g853
sg56
(lp865
S':'
asbag49
(g70
g51
NtRp866
(dp867
g54
(dp868
sg63
g853
sg56
(lp869
g49
(g50
g51
NtRp870
(dp871
g54
(dp872
g62
I4
ssg63
g866
sg56
(lp873
S'pt-BR,pt;q=0.8,en-US;q=0.6,en;q=0.4'
p874
asbasbasbag49
(g65
g51
NtRp875
(dp876
g54
(dp877
sg63
g627
sg56
(lp878
g49
(g70
g51
NtRp879
(dp880
g54
(dp881
g74
g75
ssg63
g875
sg56
(lp882
S'http_connection'
p883
asbag49
(g70
g51
NtRp884
(dp885
g54
(dp886
g81
g82
ssg63
g875
sg56
(lp887
S':'
asbag49
(g70
g51
NtRp888
(dp889
g54
(dp890
sg63
g875
sg56
(lp891
g49
(g50
g51
NtRp892
(dp893
g54
(dp894
g62
I4
ssg63
g888
sg56
(lp895
S'keep-alive'
p896
asbasbasbag49
(g65
g51
NtRp897
(dp898
g54
(dp899
sg63
g627
sg56
(lp900
g49
(g70
g51
NtRp901
(dp902
g54
(dp903
g74
g75
ssg63
g897
sg56
(lp904
S'http_cookie'
p905
asbag49
(g70
g51
NtRp906
(dp907
g54
(dp908
g81
g82
ssg63
g897
sg56
(lp909
S':'
asbag49
(g70
g51
NtRp910
(dp911
g54
(dp912
sg63
g897
sg56
(lp913
g49
(g50
g51
NtRp914
(dp915
g54
(dp916
g62
I4
ssg63
g910
sg56
(lp917
S'session_id_admin=127.0.0.1-642cccd8-e60e-420d-bb22-90e7c2fbcbb0; session_id_unioeste_code=127.0.0.1-ac0e57bf-2a61-4ff7-b75a-c2e830b4787a'
p918
asbasbasbag49
(g65
g51
NtRp919
(dp920
g54
(dp921
sg63
g627
sg56
(lp922
g49
(g70
g51
NtRp923
(dp924
g54
(dp925
g74
g75
ssg63
g919
sg56
(lp926
S'http_dnt'
p927
asbag49
(g70
g51
NtRp928
(dp929
g54
(dp930
g81
g82
ssg63
g919
sg56
(lp931
S':'
asbag49
(g70
g51
NtRp932
(dp933
g54
(dp934
sg63
g919
sg56
(lp935
g49
(g50
g51
NtRp936
(dp937
g54
(dp938
g62
I4
ssg63
g932
sg56
(lp939
S'1'
asbasbasbag49
(g65
g51
NtRp940
(dp941
g54
(dp942
sg63
g627
sg56
(lp943
g49
(g70
g51
NtRp944
(dp945
g54
(dp946
g74
g75
ssg63
g940
sg56
(lp947
S'http_host'
p948
asbag49
(g70
g51
NtRp949
(dp950
g54
(dp951
g81
g82
ssg63
g940
sg56
(lp952
S':'
asbag49
(g70
g51
NtRp953
(dp954
g54
(dp955
sg63
g940
sg56
(lp956
g49
(g50
g51
NtRp957
(dp958
g54
(dp959
g62
I4
ssg63
g953
sg56
(lp960
S'localhost:8000'
p961
asbasbasbag49
(g65
g51
NtRp962
(dp963
g54
(dp964
sg63
g627
sg56
(lp965
g49
(g70
g51
NtRp966
(dp967
g54
(dp968
g74
g75
ssg63
g962
sg56
(lp969
S'http_user_agent'
p970
asbag49
(g70
g51
NtRp971
(dp972
g54
(dp973
g81
g82
ssg63
g962
sg56
(lp974
S':'
asbag49
(g70
g51
NtRp975
(dp976
g54
(dp977
sg63
g962
sg56
(lp978
g49
(g50
g51
NtRp979
(dp980
g54
(dp981
g62
I4
ssg63
g975
sg56
(lp982
S'Mozilla/5.0 (Windows NT 6.1; WOW64) AppleWebKit/536.11 (KHTML, like Gecko) Chrome/20.0.1132.57 Safari/536.11'
p983
asbasbasbag49
(g65
g51
NtRp984
(dp985
g54
(dp986
sg63
g627
sg56
(lp987
g49
(g70
g51
NtRp988
(dp989
g54
(dp990
g74
g75
ssg63
g984
sg56
(lp991
S'is_jython'
p992
asbag49
(g70
g51
NtRp993
(dp994
g54
(dp995
g81
g82
ssg63
g984
sg56
(lp996
S':'
asbag49
(g70
g51
NtRp997
(dp998
g54
(dp999
sg63
g984
sg56
(lp1000
g49
(g50
g51
NtRp1001
(dp1002
g54
(dp1003
g62
I4
ssg63
g997
sg56
(lp1004
g92
asbasbasbag49
(g65
g51
NtRp1005
(dp1006
g54
(dp1007
sg63
g627
sg56
(lp1008
g49
(g70
g51
NtRp1009
(dp1010
g54
(dp1011
g74
g75
ssg63
g1005
sg56
(lp1012
S'is_pypy'
p1013
asbag49
(g70
g51
NtRp1014
(dp1015
g54
(dp1016
g81
g82
ssg63
g1005
sg56
(lp1017
S':'
asbag49
(g70
g51
NtRp1018
(dp1019
g54
(dp1020
sg63
g1005
sg56
(lp1021
g49
(g50
g51
NtRp1022
(dp1023
g54
(dp1024
g62
I4
ssg63
g1018
sg56
(lp1025
g92
asbasbasbag49
(g65
g51
NtRp1026
(dp1027
g54
(dp1028
sg63
g627
sg56
(lp1029
g49
(g70
g51
NtRp1030
(dp1031
g54
(dp1032
g74
g75
ssg63
g1026
sg56
(lp1033
S'path_info'
p1034
asbag49
(g70
g51
NtRp1035
(dp1036
g54
(dp1037
g81
g82
ssg63
g1026
sg56
(lp1038
S':'
asbag49
(g70
g51
NtRp1039
(dp1040
g54
(dp1041
sg63
g1026
sg56
(lp1042
g49
(g50
g51
NtRp1043
(dp1044
g54
(dp1045
g62
I4
ssg63
g1039
sg56
(lp1046
S'/unioeste_code/default/showProblem/static/mode/clike.js'
p1047
asbasbasbag49
(g65
g51
NtRp1048
(dp1049
g54
(dp1050
sg63
g627
sg56
(lp1051
g49
(g70
g51
NtRp1052
(dp1053
g54
(dp1054
g74
g75
ssg63
g1048
sg56
(lp1055
S'query_string'
p1056
asbag49
(g70
g51
NtRp1057
(dp1058
g54
(dp1059
g81
g82
ssg63
g1048
sg56
(lp1060
S':'
asbag49
(g70
g51
NtRp1061
(dp1062
g54
(dp1063
sg63
g1048
sg56
(lp1064
g49
(g50
g51
NtRp1065
(dp1066
g54
(dp1067
g62
I4
ssg63
g1061
sg56
(lp1068
S''
asbasbasbag49
(g65
g51
NtRp1069
(dp1070
g54
(dp1071
sg63
g627
sg56
(lp1072
g49
(g70
g51
NtRp1073
(dp1074
g54
(dp1075
g74
g75
ssg63
g1069
sg56
(lp1076
S'remote_addr'
p1077
asbag49
(g70
g51
NtRp1078
(dp1079
g54
(dp1080
g81
g82
ssg63
g1069
sg56
(lp1081
S':'
asbag49
(g70
g51
NtRp1082
(dp1083
g54
(dp1084
sg63
g1069
sg56
(lp1085
g49
(g50
g51
NtRp1086
(dp1087
g54
(dp1088
g62
I4
ssg63
g1082
sg56
(lp1089
g221
asbasbasbag49
(g65
g51
NtRp1090
(dp1091
g54
(dp1092
sg63
g627
sg56
(lp1093
g49
(g70
g51
NtRp1094
(dp1095
g54
(dp1096
g74
g75
ssg63
g1090
sg56
(lp1097
S'remote_port'
p1098
asbag49
(g70
g51
NtRp1099
(dp1100
g54
(dp1101
g81
g82
ssg63
g1090
sg56
(lp1102
S':'
asbag49
(g70
g51
NtRp1103
(dp1104
g54
(dp1105
sg63
g1090
sg56
(lp1106
g49
(g50
g51
NtRp1107
(dp1108
g54
(dp1109
g62
I4
ssg63
g1103
sg56
(lp1110
S'42851'
p1111
asbasbasbag49
(g65
g51
NtRp1112
(dp1113
g54
(dp1114
sg63
g627
sg56
(lp1115
g49
(g70
g51
NtRp1116
(dp1117
g54
(dp1118
g74
g75
ssg63
g1112
sg56
(lp1119
S'request_method'
p1120
asbag49
(g70
g51
NtRp1121
(dp1122
g54
(dp1123
g81
g82
ssg63
g1112
sg56
(lp1124
S':'
asbag49
(g70
g51
NtRp1125
(dp1126
g54
(dp1127
sg63
g1112
sg56
(lp1128
g49
(g50
g51
NtRp1129
(dp1130
g54
(dp1131
g62
I4
ssg63
g1125
sg56
(lp1132
S'GET'
p1133
asbasbasbag49
(g65
g51
NtRp1134
(dp1135
g54
(dp1136
sg63
g627
sg56
(lp1137
g49
(g70
g51
NtRp1138
(dp1139
g54
(dp1140
g74
g75
ssg63
g1134
sg56
(lp1141
S'script_name'
p1142
asbag49
(g70
g51
NtRp1143
(dp1144
g54
(dp1145
g81
g82
ssg63
g1134
sg56
(lp1146
S':'
asbag49
(g70
g51
NtRp1147
(dp1148
g54
(dp1149
sg63
g1134
sg56
(lp1150
g49
(g50
g51
NtRp1151
(dp1152
g54
(dp1153
g62
I4
ssg63
g1147
sg56
(lp1154
S''
asbasbasbag49
(g65
g51
NtRp1155
(dp1156
g54
(dp1157
sg63
g627
sg56
(lp1158
g49
(g70
g51
NtRp1159
(dp1160
g54
(dp1161
g74
g75
ssg63
g1155
sg56
(lp1162
S'server_name'
p1163
asbag49
(g70
g51
NtRp1164
(dp1165
g54
(dp1166
g81
g82
ssg63
g1155
sg56
(lp1167
S':'
asbag49
(g70
g51
NtRp1168
(dp1169
g54
(dp1170
sg63
g1155
sg56
(lp1171
g49
(g50
g51
NtRp1172
(dp1173
g54
(dp1174
g62
I4
ssg63
g1168
sg56
(lp1175
S'Pedro-PC'
p1176
asbasbasbag49
(g65
g51
NtRp1177
(dp1178
g54
(dp1179
sg63
g627
sg56
(lp1180
g49
(g70
g51
NtRp1181
(dp1182
g54
(dp1183
g74
g75
ssg63
g1177
sg56
(lp1184
S'server_port'
p1185
asbag49
(g70
g51
NtRp1186
(dp1187
g54
(dp1188
g81
g82
ssg63
g1177
sg56
(lp1189
S':'
asbag49
(g70
g51
NtRp1190
(dp1191
g54
(dp1192
sg63
g1177
sg56
(lp1193
g49
(g50
g51
NtRp1194
(dp1195
g54
(dp1196
g62
I4
ssg63
g1190
sg56
(lp1197
S'8000'
p1198
asbasbasbag49
(g65
g51
NtRp1199
(dp1200
g54
(dp1201
sg63
g627
sg56
(lp1202
g49
(g70
g51
NtRp1203
(dp1204
g54
(dp1205
g74
g75
ssg63
g1199
sg56
(lp1206
S'server_protocol'
p1207
asbag49
(g70
g51
NtRp1208
(dp1209
g54
(dp1210
g81
g82
ssg63
g1199
sg56
(lp1211
S':'
asbag49
(g70
g51
NtRp1212
(dp1213
g54
(dp1214
sg63
g1199
sg56
(lp1215
g49
(g50
g51
NtRp1216
(dp1217
g54
(dp1218
g62
I4
ssg63
g1212
sg56
(lp1219
S'HTTP/1.1'
p1220
asbasbasbag49
(g65
g51
NtRp1221
(dp1222
g54
(dp1223
sg63
g627
sg56
(lp1224
g49
(g70
g51
NtRp1225
(dp1226
g54
(dp1227
g74
g75
ssg63
g1221
sg56
(lp1228
S'server_software'
p1229
asbag49
(g70
g51
NtRp1230
(dp1231
g54
(dp1232
g81
g82
ssg63
g1221
sg56
(lp1233
S':'
asbag49
(g70
g51
NtRp1234
(dp1235
g54
(dp1236
sg63
g1221
sg56
(lp1237
g49
(g50
g51
NtRp1238
(dp1239
g54
(dp1240
g62
I4
ssg63
g1234
sg56
(lp1241
S'Rocket 1.2.4'
p1242
asbasbasbag49
(g65
g51
NtRp1243
(dp1244
g54
(dp1245
sg63
g627
sg56
(lp1246
g49
(g70
g51
NtRp1247
(dp1248
g54
(dp1249
g74
g75
ssg63
g1243
sg56
(lp1250
S'web2py_crontype'
p1251
asbag49
(g70
g51
NtRp1252
(dp1253
g54
(dp1254
g81
g82
ssg63
g1243
sg56
(lp1255
S':'
asbag49
(g70
g51
NtRp1256
(dp1257
g54
(dp1258
sg63
g1243
sg56
(lp1259
g49
(g50
g51
NtRp1260
(dp1261
g54
(dp1262
g62
I4
ssg63
g1256
sg56
(lp1263
S'hard'
p1264
asbasbasbag49
(g65
g51
NtRp1265
(dp1266
g54
(dp1267
sg63
g627
sg56
(lp1268
g49
(g70
g51
NtRp1269
(dp1270
g54
(dp1271
g74
g75
ssg63
g1265
sg56
(lp1272
S'web2py_path'
p1273
asbag49
(g70
g51
NtRp1274
(dp1275
g54
(dp1276
g81
g82
ssg63
g1265
sg56
(lp1277
S':'
asbag49
(g70
g51
NtRp1278
(dp1279
g54
(dp1280
sg63
g1265
sg56
(lp1281
g49
(g50
g51
NtRp1282
(dp1283
g54
(dp1284
g62
I4
ssg63
g1278
sg56
(lp1285
g674
asbasbasbag49
(g65
g51
NtRp1286
(dp1287
g54
(dp1288
sg63
g627
sg56
(lp1289
g49
(g70
g51
NtRp1290
(dp1291
g54
(dp1292
g74
g75
ssg63
g1286
sg56
(lp1293
S'web2py_version'
p1294
asbag49
(g70
g51
NtRp1295
(dp1296
g54
(dp1297
g81
g82
ssg63
g1286
sg56
(lp1298
S':'
asbag49
(g70
g51
NtRp1299
(dp1300
g54
(dp1301
sg63
g1286
sg56
(lp1302
g49
(g50
g51
NtRp1303
(dp1304
g54
(dp1305
g62
I4
ssg63
g1299
sg56
(lp1306
g49
(g58
g51
NtRp1307
(dp1308
g54
(dp1309
g62
I3
ssg63
Nsg56
(lp1310
g49
(g65
g51
NtRp1311
(dp1312
g54
(dp1313
sg63
g1307
sg56
(lp1314
g49
(g70
g51
NtRp1315
(dp1316
g54
(dp1317
sg63
g1311
sg56
(lp1318
g49
(g50
g51
NtRp1319
(dp1320
g54
(dp1321
g62
I3
ssg63
g1315
sg56
(lp1322
S'1'
asbasbasbag49
(g65
g51
NtRp1323
(dp1324
g54
(dp1325
sg63
g1307
sg56
(lp1326
g49
(g70
g51
NtRp1327
(dp1328
g54
(dp1329
sg63
g1323
sg56
(lp1330
g49
(g50
g51
NtRp1331
(dp1332
g54
(dp1333
g62
I3
ssg63
g1327
sg56
(lp1334
S'99'
p1335
asbasbasbag49
(g65
g51
NtRp1336
(dp1337
g54
(dp1338
sg63
g1307
sg56
(lp1339
g49
(g70
g51
NtRp1340
(dp1341
g54
(dp1342
sg63
g1336
sg56
(lp1343
g49
(g50
g51
NtRp1344
(dp1345
g54
(dp1346
g62
I3
ssg63
g1340
sg56
(lp1347
S'7'
asbasbasbag49
(g65
g51
NtRp1348
(dp1349
g54
(dp1350
sg63
g1307
sg56
(lp1351
g49
(g70
g51
NtRp1352
(dp1353
g54
(dp1354
sg63
g1348
sg56
(lp1355
g49
(g50
g51
NtRp1356
(dp1357
g54
(dp1358
g62
I3
ssg63
g1352
sg56
(lp1359
S'datetime.datetime(2012, 3, 4, 22, 12, 8)'
p1360
asbasbasbag49
(g65
g51
NtRp1361
(dp1362
g54
(dp1363
sg63
g1307
sg56
(lp1364
g49
(g70
g51
NtRp1365
(dp1366
g54
(dp1367
sg63
g1361
sg56
(lp1368
g49
(g50
g51
NtRp1369
(dp1370
g54
(dp1371
g62
I3
ssg63
g1365
sg56
(lp1372
S'stable'
p1373
asbasbasbasbasbasbasbag49
(g65
g51
NtRp1374
(dp1375
g54
(dp1376
sg63
g627
sg56
(lp1377
g49
(g70
g51
NtRp1378
(dp1379
g54
(dp1380
g74
g75
ssg63
g1374
sg56
(lp1381
S'wsgi_errors'
p1382
asbag49
(g70
g51
NtRp1383
(dp1384
g54
(dp1385
g81
g82
ssg63
g1374
sg56
(lp1386
S':'
asbag49
(g70
g51
NtRp1387
(dp1388
g54
(dp1389
sg63
g1374
sg56
(lp1390
g49
(g50
g51
NtRp1391
(dp1392
g54
(dp1393
g62
I4
ssg63
g1387
sg56
(lp1394
S'<__main__.Stderr object at 0x00486670>'
p1395
asbasbasbag49
(g65
g51
NtRp1396
(dp1397
g54
(dp1398
sg63
g627
sg56
(lp1399
g49
(g70
g51
NtRp1400
(dp1401
g54
(dp1402
g74
g75
ssg63
g1396
sg56
(lp1403
S'wsgi_file_wrapper'
p1404
asbag49
(g70
g51
NtRp1405
(dp1406
g54
(dp1407
g81
g82
ssg63
g1396
sg56
(lp1408
S':'
asbag49
(g70
g51
NtRp1409
(dp1410
g54
(dp1411
sg63
g1396
sg56
(lp1412
g49
(g50
g51
NtRp1413
(dp1414
g54
(dp1415
g62
I4
ssg63
g1409
sg56
(lp1416
S'<class wsgiref.util.FileWrapper at 0x02E8DE10>'
p1417
asbasbasbag49
(g65
g51
NtRp1418
(dp1419
g54
(dp1420
sg63
g627
sg56
(lp1421
g49
(g70
g51
NtRp1422
(dp1423
g54
(dp1424
g74
g75
ssg63
g1418
sg56
(lp1425
S'wsgi_input'
p1426
asbag49
(g70
g51
NtRp1427
(dp1428
g54
(dp1429
g81
g82
ssg63
g1418
sg56
(lp1430
S':'
asbag49
(g70
g51
NtRp1431
(dp1432
g54
(dp1433
sg63
g1418
sg56
(lp1434
g49
(g50
g51
NtRp1435
(dp1436
g54
(dp1437
g62
I4
ssg63
g1431
sg56
(lp1438
S'<socket._fileobject object at 0x06705A30>'
p1439
asbasbasbag49
(g65
g51
NtRp1440
(dp1441
g54
(dp1442
sg63
g627
sg56
(lp1443
g49
(g70
g51
NtRp1444
(dp1445
g54
(dp1446
g74
g75
ssg63
g1440
sg56
(lp1447
S'wsgi_multiprocess'
p1448
asbag49
(g70
g51
NtRp1449
(dp1450
g54
(dp1451
g81
g82
ssg63
g1440
sg56
(lp1452
S':'
asbag49
(g70
g51
NtRp1453
(dp1454
g54
(dp1455
sg63
g1440
sg56
(lp1456
g49
(g50
g51
NtRp1457
(dp1458
g54
(dp1459
g62
I4
ssg63
g1453
sg56
(lp1460
g92
asbasbasbag49
(g65
g51
NtRp1461
(dp1462
g54
(dp1463
sg63
g627
sg56
(lp1464
g49
(g70
g51
NtRp1465
(dp1466
g54
(dp1467
g74
g75
ssg63
g1461
sg56
(lp1468
S'wsgi_multithread'
p1469
asbag49
(g70
g51
NtRp1470
(dp1471
g54
(dp1472
g81
g82
ssg63
g1461
sg56
(lp1473
S':'
asbag49
(g70
g51
NtRp1474
(dp1475
g54
(dp1476
sg63
g1461
sg56
(lp1477
g49
(g50
g51
NtRp1478
(dp1479
g54
(dp1480
g62
I4
ssg63
g1474
sg56
(lp1481
S'True'
p1482
asbasbasbag49
(g65
g51
NtRp1483
(dp1484
g54
(dp1485
sg63
g627
sg56
(lp1486
g49
(g70
g51
NtRp1487
(dp1488
g54
(dp1489
g74
g75
ssg63
g1483
sg56
(lp1490
S'wsgi_run_once'
p1491
asbag49
(g70
g51
NtRp1492
(dp1493
g54
(dp1494
g81
g82
ssg63
g1483
sg56
(lp1495
S':'
asbag49
(g70
g51
NtRp1496
(dp1497
g54
(dp1498
sg63
g1483
sg56
(lp1499
g49
(g50
g51
NtRp1500
(dp1501
g54
(dp1502
g62
I4
ssg63
g1496
sg56
(lp1503
g92
asbasbasbag49
(g65
g51
NtRp1504
(dp1505
g54
(dp1506
sg63
g627
sg56
(lp1507
g49
(g70
g51
NtRp1508
(dp1509
g54
(dp1510
g74
g75
ssg63
g1504
sg56
(lp1511
S'wsgi_url_scheme'
p1512
asbag49
(g70
g51
NtRp1513
(dp1514
g54
(dp1515
g81
g82
ssg63
g1504
sg56
(lp1516
S':'
asbag49
(g70
g51
NtRp1517
(dp1518
g54
(dp1519
sg63
g1504
sg56
(lp1520
g49
(g50
g51
NtRp1521
(dp1522
g54
(dp1523
g62
I4
ssg63
g1517
sg56
(lp1524
S'http'
p1525
asbasbasbag49
(g65
g51
NtRp1526
(dp1527
g54
(dp1528
sg63
g627
sg56
(lp1529
g49
(g70
g51
NtRp1530
(dp1531
g54
(dp1532
g74
g75
ssg63
g1526
sg56
(lp1533
S'wsgi_version'
p1534
asbag49
(g70
g51
NtRp1535
(dp1536
g54
(dp1537
g81
g82
ssg63
g1526
sg56
(lp1538
S':'
asbag49
(g70
g51
NtRp1539
(dp1540
g54
(dp1541
sg63
g1526
sg56
(lp1542
g49
(g50
g51
NtRp1543
(dp1544
g54
(dp1545
g62
I4
ssg63
g1539
sg56
(lp1546
g49
(g58
g51
NtRp1547
(dp1548
g54
(dp1549
g62
I3
ssg63
Nsg56
(lp1550
g49
(g65
g51
NtRp1551
(dp1552
g54
(dp1553
sg63
g1547
sg56
(lp1554
g49
(g70
g51
NtRp1555
(dp1556
g54
(dp1557
sg63
g1551
sg56
(lp1558
g49
(g50
g51
NtRp1559
(dp1560
g54
(dp1561
g62
I3
ssg63
g1555
sg56
(lp1562
S'1'
asbasbasbag49
(g65
g51
NtRp1563
(dp1564
g54
(dp1565
sg63
g1547
sg56
(lp1566
g49
(g70
g51
NtRp1567
(dp1568
g54
(dp1569
sg63
g1563
sg56
(lp1570
g49
(g50
g51
NtRp1571
(dp1572
g54
(dp1573
g62
I3
ssg63
g1567
sg56
(lp1574
S'0'
asbasbasbasbasbasbasbasbasbasbasbag49
(g65
g51
NtRp1575
(dp1576
g54
(dp1577
sg63
g59
sg56
(lp1578
g49
(g70
g51
NtRp1579
(dp1580
g54
(dp1581
g74
g75
ssg63
g1575
sg56
(lp1582
S'extension'
p1583
asbag49
(g70
g51
NtRp1584
(dp1585
g54
(dp1586
g81
g82
ssg63
g1575
sg56
(lp1587
S':'
asbag49
(g70
g51
NtRp1588
(dp1589
g54
(dp1590
sg63
g1575
sg56
(lp1591
g49
(g50
g51
NtRp1592
(dp1593
g54
(dp1594
g62
I5
ssg63
g1588
sg56
(lp1595
S'html'
p1596
asbasbasbag49
(g65
g51
NtRp1597
(dp1598
g54
(dp1599
sg63
g59
sg56
(lp1600
g49
(g70
g51
NtRp1601
(dp1602
g54
(dp1603
g74
g75
ssg63
g1597
sg56
(lp1604
S'folder'
p1605
asbag49
(g70
g51
NtRp1606
(dp1607
g54
(dp1608
g81
g82
ssg63
g1597
sg56
(lp1609
S':'
asbag49
(g70
g51
NtRp1610
(dp1611
g54
(dp1612
sg63
g1597
sg56
(lp1613
g49
(g50
g51
NtRp1614
(dp1615
g54
(dp1616
g62
I5
ssg63
g1610
sg56
(lp1617
S'C:\\web2py\\applications\\unioeste_code\\'
p1618
asbasbasbag49
(g65
g51
NtRp1619
(dp1620
g54
(dp1621
sg63
g59
sg56
(lp1622
g49
(g70
g51
NtRp1623
(dp1624
g54
(dp1625
g74
g75
ssg63
g1619
sg56
(lp1626
S'function'
p1627
asbag49
(g70
g51
NtRp1628
(dp1629
g54
(dp1630
g81
g82
ssg63
g1619
sg56
(lp1631
S':'
asbag49
(g70
g51
NtRp1632
(dp1633
g54
(dp1634
sg63
g1619
sg56
(lp1635
g49
(g50
g51
NtRp1636
(dp1637
g54
(dp1638
g62
I5
ssg63
g1632
sg56
(lp1639
S'showProblem'
p1640
asbasbasbag49
(g65
g51
NtRp1641
(dp1642
g54
(dp1643
sg63
g59
sg56
(lp1644
g49
(g70
g51
NtRp1645
(dp1646
g54
(dp1647
g74
g75
ssg63
g1641
sg56
(lp1648
S'get_vars'
p1649
asbag49
(g70
g51
NtRp1650
(dp1651
g54
(dp1652
g81
g82
ssg63
g1641
sg56
(lp1653
S':'
asbag49
(g70
g51
NtRp1654
(dp1655
g54
(dp1656
sg63
g1641
sg56
(lp1657
g49
(g50
g51
NtRp1658
(dp1659
g54
(dp1660
g62
I5
ssg63
g1654
sg56
(lp1661
g49
(g58
g51
NtRp1662
(dp1663
g54
(dp1664
g62
I4
ssg63
Nsg56
(lp1665
sbasbasbasbag49
(g65
g51
NtRp1666
(dp1667
g54
(dp1668
sg63
g59
sg56
(lp1669
g49
(g70
g51
NtRp1670
(dp1671
g54
(dp1672
g74
g75
ssg63
g1666
sg56
(lp1673
S'global_settings'
p1674
asbag49
(g70
g51
NtRp1675
(dp1676
g54
(dp1677
g81
g82
ssg63
g1666
sg56
(lp1678
S':'
asbag49
(g70
g51
NtRp1679
(dp1680
g54
(dp1681
sg63
g1666
sg56
(lp1682
g49
(g50
g51
NtRp1683
(dp1684
g54
(dp1685
g62
I5
ssg63
g1679
sg56
(lp1686
g49
(g58
g51
NtRp1687
(dp1688
g54
(dp1689
g62
I4
ssg63
Nsg56
(lp1690
g49
(g65
g51
NtRp1691
(dp1692
g54
(dp1693
sg63
g1687
sg56
(lp1694
g49
(g70
g51
NtRp1695
(dp1696
g54
(dp1697
g74
g75
ssg63
g1691
sg56
(lp1698
g639
asbag49
(g70
g51
NtRp1699
(dp1700
g54
(dp1701
g81
g82
ssg63
g1691
sg56
(lp1702
S':'
asbag49
(g70
g51
NtRp1703
(dp1704
g54
(dp1705
sg63
g1691
sg56
(lp1706
g49
(g50
g51
NtRp1707
(dp1708
g54
(dp1709
g62
I4
ssg63
g1703
sg56
(lp1710
S"set(['C:\\\\web2py\\\\applications\\\\admin\\\\', 'C:\\\\web2py\\\\applications\\\\welcome\\\\', 'C:\\\\web2py\\\\applications\\\\unioeste_code\\\\'])"
p1711
asbasbasbag49
(g65
g51
NtRp1712
(dp1713
g54
(dp1714
sg63
g1687
sg56
(lp1715
g49
(g70
g51
NtRp1716
(dp1717
g54
(dp1718
g74
g75
ssg63
g1712
sg56
(lp1719
g661
asbag49
(g70
g51
NtRp1720
(dp1721
g54
(dp1722
g81
g82
ssg63
g1712
sg56
(lp1723
S':'
asbag49
(g70
g51
NtRp1724
(dp1725
g54
(dp1726
sg63
g1712
sg56
(lp1727
g49
(g50
g51
NtRp1728
(dp1729
g54
(dp1730
g62
I4
ssg63
g1724
sg56
(lp1731
g674
asbasbasbag49
(g65
g51
NtRp1732
(dp1733
g54
(dp1734
sg63
g1687
sg56
(lp1735
g49
(g70
g51
NtRp1736
(dp1737
g54
(dp1738
g74
g75
ssg63
g1732
sg56
(lp1739
g683
asbag49
(g70
g51
NtRp1740
(dp1741
g54
(dp1742
g81
g82
ssg63
g1732
sg56
(lp1743
S':'
asbag49
(g70
g51
NtRp1744
(dp1745
g54
(dp1746
sg63
g1732
sg56
(lp1747
g49
(g50
g51
NtRp1748
(dp1749
g54
(dp1750
g62
I4
ssg63
g1744
sg56
(lp1751
g49
(g58
g51
NtRp1752
(dp1753
g54
(dp1754
g62
I3
ssg63
Nsg56
(lp1755
sbasbasbasbag49
(g65
g51
NtRp1756
(dp1757
g54
(dp1758
sg63
g1687
sg56
(lp1759
g49
(g70
g51
NtRp1760
(dp1761
g54
(dp1762
g74
g75
ssg63
g1756
sg56
(lp1763
g708
asbag49
(g70
g51
NtRp1764
(dp1765
g54
(dp1766
g81
g82
ssg63
g1756
sg56
(lp1767
S':'
asbag49
(g70
g51
NtRp1768
(dp1769
g54
(dp1770
sg63
g1756
sg56
(lp1771
g49
(g50
g51
NtRp1772
(dp1773
g54
(dp1774
g62
I4
ssg63
g1768
sg56
(lp1775
S"<Values at 0x309c300: {'verbose': False, 'ip': '127.0.0.1', 'shutdown_timeout': 5, 'taskbar': False, 'nocron': False, 'pid_filename': 'httpserver.pid', 'maxthreads': None, 'softcron': False, 'server_name': 'Pedro-PC', 'bpython': False, 'nogui': False, 'port': 8000, 'extcron': False, 'debuglevel': 30, 'test': None, 'folder': 'C:\\\\web2py', 'config': '', 'import_models': False, 'winservice': '', 'shell': None, 'run': '', 'log_filename': 'httpserver.log', 'args': [''], 'socket_timeout': 5, 'ssl_ca_certificate': None, 'scheduler': None, 'profiler_filename': None, 'ssl_private_key': '', 'password': '<ask>', 'request_queue_size': 5, 'ssl_certificate': '', 'cronjob': False, 'numthreads': None, 'quiet': False, 'interfaces': None, 'minthreads': None, 'timeout': 10, 'plain': False, 'nobanner': False}>"
p1776
asbasbasbag49
(g65
g51
NtRp1777
(dp1778
g54
(dp1779
sg63
g1687
sg56
(lp1780
g49
(g70
g51
NtRp1781
(dp1782
g54
(dp1783
g74
g75
ssg63
g1777
sg56
(lp1784
g730
asbag49
(g70
g51
NtRp1785
(dp1786
g54
(dp1787
g81
g82
ssg63
g1777
sg56
(lp1788
S':'
asbag49
(g70
g51
NtRp1789
(dp1790
g54
(dp1791
sg63
g1777
sg56
(lp1792
g49
(g50
g51
NtRp1793
(dp1794
g54
(dp1795
g62
I4
ssg63
g1789
sg56
(lp1796
S'set([])'
p1797
asbasbasbag49
(g65
g51
NtRp1798
(dp1799
g54
(dp1800
sg63
g1687
sg56
(lp1801
g49
(g70
g51
NtRp1802
(dp1803
g54
(dp1804
g74
g75
ssg63
g1798
sg56
(lp1805
g752
asbag49
(g70
g51
NtRp1806
(dp1807
g54
(dp1808
g81
g82
ssg63
g1798
sg56
(lp1809
S':'
asbag49
(g70
g51
NtRp1810
(dp1811
g54
(dp1812
sg63
g1798
sg56
(lp1813
g49
(g50
g51
NtRp1814
(dp1815
g54
(dp1816
g62
I4
ssg63
g1810
sg56
(lp1817
g92
asbasbasbag49
(g65
g51
NtRp1818
(dp1819
g54
(dp1820
sg63
g1687
sg56
(lp1821
g49
(g70
g51
NtRp1822
(dp1823
g54
(dp1824
g74
g75
ssg63
g1818
sg56
(lp1825
g773
asbag49
(g70
g51
NtRp1826
(dp1827
g54
(dp1828
g81
g82
ssg63
g1818
sg56
(lp1829
S':'
asbag49
(g70
g51
NtRp1830
(dp1831
g54
(dp1832
sg63
g1818
sg56
(lp1833
g49
(g50
g51
NtRp1834
(dp1835
g54
(dp1836
g62
I4
ssg63
g1830
sg56
(lp1837
g786
asbasbasbag49
(g65
g51
NtRp1838
(dp1839
g54
(dp1840
sg63
g1687
sg56
(lp1841
g49
(g70
g51
NtRp1842
(dp1843
g54
(dp1844
g74
g75
ssg63
g1838
sg56
(lp1845
g992
asbag49
(g70
g51
NtRp1846
(dp1847
g54
(dp1848
g81
g82
ssg63
g1838
sg56
(lp1849
S':'
asbag49
(g70
g51
NtRp1850
(dp1851
g54
(dp1852
sg63
g1838
sg56
(lp1853
g49
(g50
g51
NtRp1854
(dp1855
g54
(dp1856
g62
I4
ssg63
g1850
sg56
(lp1857
g92
asbasbasbag49
(g65
g51
NtRp1858
(dp1859
g54
(dp1860
sg63
g1687
sg56
(lp1861
g49
(g70
g51
NtRp1862
(dp1863
g54
(dp1864
g74
g75
ssg63
g1858
sg56
(lp1865
g1013
asbag49
(g70
g51
NtRp1866
(dp1867
g54
(dp1868
g81
g82
ssg63
g1858
sg56
(lp1869
S':'
asbag49
(g70
g51
NtRp1870
(dp1871
g54
(dp1872
sg63
g1858
sg56
(lp1873
g49
(g50
g51
NtRp1874
(dp1875
g54
(dp1876
g62
I4
ssg63
g1870
sg56
(lp1877
g92
asbasbasbag49
(g65
g51
NtRp1878
(dp1879
g54
(dp1880
sg63
g1687
sg56
(lp1881
g49
(g70
g51
NtRp1882
(dp1883
g54
(dp1884
g74
g75
ssg63
g1878
sg56
(lp1885
g1251
asbag49
(g70
g51
NtRp1886
(dp1887
g54
(dp1888
g81
g82
ssg63
g1878
sg56
(lp1889
S':'
asbag49
(g70
g51
NtRp1890
(dp1891
g54
(dp1892
sg63
g1878
sg56
(lp1893
g49
(g50
g51
NtRp1894
(dp1895
g54
(dp1896
g62
I4
ssg63
g1890
sg56
(lp1897
g1264
asbasbasbag49
(g65
g51
NtRp1898
(dp1899
g54
(dp1900
sg63
g1687
sg56
(lp1901
g49
(g70
g51
NtRp1902
(dp1903
g54
(dp1904
g74
g75
ssg63
g1898
sg56
(lp1905
g1294
asbag49
(g70
g51
NtRp1906
(dp1907
g54
(dp1908
g81
g82
ssg63
g1898
sg56
(lp1909
S':'
asbag49
(g70
g51
NtRp1910
(dp1911
g54
(dp1912
sg63
g1898
sg56
(lp1913
g49
(g50
g51
NtRp1914
(dp1915
g54
(dp1916
g62
I4
ssg63
g1910
sg56
(lp1917
g49
(g58
g51
NtRp1918
(dp1919
g54
(dp1920
g62
I3
ssg63
Nsg56
(lp1921
g49
(g65
g51
NtRp1922
(dp1923
g54
(dp1924
sg63
g1918
sg56
(lp1925
g49
(g70
g51
NtRp1926
(dp1927
g54
(dp1928
sg63
g1922
sg56
(lp1929
g49
(g50
g51
NtRp1930
(dp1931
g54
(dp1932
g62
I3
ssg63
g1926
sg56
(lp1933
S'1'
asbasbasbag49
(g65
g51
NtRp1934
(dp1935
g54
(dp1936
sg63
g1918
sg56
(lp1937
g49
(g70
g51
NtRp1938
(dp1939
g54
(dp1940
sg63
g1934
sg56
(lp1941
g49
(g50
g51
NtRp1942
(dp1943
g54
(dp1944
g62
I3
ssg63
g1938
sg56
(lp1945
S'99'
p1946
asbasbasbag49
(g65
g51
NtRp1947
(dp1948
g54
(dp1949
sg63
g1918
sg56
(lp1950
g49
(g70
g51
NtRp1951
(dp1952
g54
(dp1953
sg63
g1947
sg56
(lp1954
g49
(g50
g51
NtRp1955
(dp1956
g54
(dp1957
g62
I3
ssg63
g1951
sg56
(lp1958
S'7'
asbasbasbag49
(g65
g51
NtRp1959
(dp1960
g54
(dp1961
sg63
g1918
sg56
(lp1962
g49
(g70
g51
NtRp1963
(dp1964
g54
(dp1965
sg63
g1959
sg56
(lp1966
g49
(g50
g51
NtRp1967
(dp1968
g54
(dp1969
g62
I3
ssg63
g1963
sg56
(lp1970
S'datetime.datetime(2012, 3, 4, 22, 12, 8)'
p1971
asbasbasbag49
(g65
g51
NtRp1972
(dp1973
g54
(dp1974
sg63
g1918
sg56
(lp1975
g49
(g70
g51
NtRp1976
(dp1977
g54
(dp1978
sg63
g1972
sg56
(lp1979
g49
(g50
g51
NtRp1980
(dp1981
g54
(dp1982
g62
I3
ssg63
g1976
sg56
(lp1983
g1373
asbasbasbasbasbasbasbasbasbasbasbag49
(g65
g51
NtRp1984
(dp1985
g54
(dp1986
sg63
g59
sg56
(lp1987
g49
(g70
g51
NtRp1988
(dp1989
g54
(dp1990
g74
g75
ssg63
g1984
sg56
(lp1991
S'is_https'
p1992
asbag49
(g70
g51
NtRp1993
(dp1994
g54
(dp1995
g81
g82
ssg63
g1984
sg56
(lp1996
S':'
asbag49
(g70
g51
NtRp1997
(dp1998
g54
(dp1999
sg63
g1984
sg56
(lp2000
g49
(g50
g51
NtRp2001
(dp2002
g54
(dp2003
g62
I5
ssg63
g1997
sg56
(lp2004
g92
asbasbasbag49
(g65
g51
NtRp2005
(dp2006
g54
(dp2007
sg63
g59
sg56
(lp2008
g49
(g70
g51
NtRp2009
(dp2010
g54
(dp2011
g74
g75
ssg63
g2005
sg56
(lp2012
S'is_local'
p2013
asbag49
(g70
g51
NtRp2014
(dp2015
g54
(dp2016
g81
g82
ssg63
g2005
sg56
(lp2017
S':'
asbag49
(g70
g51
NtRp2018
(dp2019
g54
(dp2020
sg63
g2005
sg56
(lp2021
g49
(g50
g51
NtRp2022
(dp2023
g54
(dp2024
g62
I5
ssg63
g2018
sg56
(lp2025
g1482
asbasbasbag49
(g65
g51
NtRp2026
(dp2027
g54
(dp2028
sg63
g59
sg56
(lp2029
g49
(g70
g51
NtRp2030
(dp2031
g54
(dp2032
g74
g75
ssg63
g2026
sg56
(lp2033
S'is_restful'
p2034
asbag49
(g70
g51
NtRp2035
(dp2036
g54
(dp2037
g81
g82
ssg63
g2026
sg56
(lp2038
S':'
asbag49
(g70
g51
NtRp2039
(dp2040
g54
(dp2041
sg63
g2026
sg56
(lp2042
g49
(g50
g51
NtRp2043
(dp2044
g54
(dp2045
g62
I5
ssg63
g2039
sg56
(lp2046
g92
asbasbasbag49
(g65
g51
NtRp2047
(dp2048
g54
(dp2049
sg63
g59
sg56
(lp2050
g49
(g70
g51
NtRp2051
(dp2052
g54
(dp2053
g74
g75
ssg63
g2047
sg56
(lp2054
S'now'
p2055
asbag49
(g70
g51
NtRp2056
(dp2057
g54
(dp2058
g81
g82
ssg63
g2047
sg56
(lp2059
S':'
asbag49
(g70
g51
NtRp2060
(dp2061
g54
(dp2062
sg63
g2047
sg56
(lp2063
g49
(g50
g51
NtRp2064
(dp2065
g54
(dp2066
g62
I5
ssg63
g2060
sg56
(lp2067
S'datetime.datetime(2012, 7, 30, 0, 6, 0, 578000)'
p2068
asbasbasbag49
(g65
g51
NtRp2069
(dp2070
g54
(dp2071
sg63
g59
sg56
(lp2072
g49
(g70
g51
NtRp2073
(dp2074
g54
(dp2075
g74
g75
ssg63
g2069
sg56
(lp2076
S'post_vars'
p2077
asbag49
(g70
g51
NtRp2078
(dp2079
g54
(dp2080
g81
g82
ssg63
g2069
sg56
(lp2081
S':'
asbag49
(g70
g51
NtRp2082
(dp2083
g54
(dp2084
sg63
g2069
sg56
(lp2085
g49
(g50
g51
NtRp2086
(dp2087
g54
(dp2088
g62
I5
ssg63
g2082
sg56
(lp2089
g49
(g58
g51
NtRp2090
(dp2091
g54
(dp2092
g62
I4
ssg63
Nsg56
(lp2093
sbasbasbasbag49
(g65
g51
NtRp2094
(dp2095
g54
(dp2096
sg63
g59
sg56
(lp2097
g49
(g70
g51
NtRp2098
(dp2099
g54
(dp2100
g74
g75
ssg63
g2094
sg56
(lp2101
S'raw_args'
p2102
asbag49
(g70
g51
NtRp2103
(dp2104
g54
(dp2105
g81
g82
ssg63
g2094
sg56
(lp2106
S':'
asbag49
(g70
g51
NtRp2107
(dp2108
g54
(dp2109
sg63
g2094
sg56
(lp2110
g49
(g50
g51
NtRp2111
(dp2112
g54
(dp2113
g62
I5
ssg63
g2107
sg56
(lp2114
S'static/mode/clike.js'
p2115
asbasbasbag49
(g65
g51
NtRp2116
(dp2117
g54
(dp2118
sg63
g59
sg56
(lp2119
g49
(g70
g51
NtRp2120
(dp2121
g54
(dp2122
g74
g75
ssg63
g2116
sg56
(lp2123
S'url'
p2124
asbag49
(g70
g51
NtRp2125
(dp2126
g54
(dp2127
g81
g82
ssg63
g2116
sg56
(lp2128
S':'
asbag49
(g70
g51
NtRp2129
(dp2130
g54
(dp2131
sg63
g2116
sg56
(lp2132
g49
(g50
g51
NtRp2133
(dp2134
g54
(dp2135
g62
I5
ssg63
g2129
sg56
(lp2136
S'/unioeste_code/default/showProblem/static/mode/clike.js'
p2137
asbasbasbag49
(g65
g51
NtRp2138
(dp2139
g54
(dp2140
sg63
g59
sg56
(lp2141
g49
(g70
g51
NtRp2142
(dp2143
g54
(dp2144
g74
g75
ssg63
g2138
sg56
(lp2145
S'utcnow'
p2146
asbag49
(g70
g51
NtRp2147
(dp2148
g54
(dp2149
g81
g82
ssg63
g2138
sg56
(lp2150
S':'
asbag49
(g70
g51
NtRp2151
(dp2152
g54
(dp2153
sg63
g2138
sg56
(lp2154
g49
(g50
g51
NtRp2155
(dp2156
g54
(dp2157
g62
I5
ssg63
g2151
sg56
(lp2158
S'datetime.datetime(2012, 7, 30, 3, 6, 0, 578000)'
p2159
asbasbasbag49
(g65
g51
NtRp2160
(dp2161
g54
(dp2162
sg63
g59
sg56
(lp2163
g49
(g70
g51
NtRp2164
(dp2165
g54
(dp2166
g74
g75
ssg63
g2160
sg56
(lp2167
S'uuid'
p2168
asbag49
(g70
g51
NtRp2169
(dp2170
g54
(dp2171
g81
g82
ssg63
g2160
sg56
(lp2172
S':'
asbag49
(g70
g51
NtRp2173
(dp2174
g54
(dp2175
sg63
g2160
sg56
(lp2176
g49
(g50
g51
NtRp2177
(dp2178
g54
(dp2179
g62
I5
ssg63
g2173
sg56
(lp2180
S'unioeste_code/127.0.0.1.2012-07-30.00-06-00.f728878d-e233-484b-a2b2-d562709b2c76'
p2181
asbasbasbag49
(g65
g51
NtRp2182
(dp2183
g54
(dp2184
sg63
g59
sg56
(lp2185
g49
(g70
g51
NtRp2186
(dp2187
g54
(dp2188
g74
g75
ssg63
g2182
sg56
(lp2189
S'vars'
p2190
asbag49
(g70
g51
NtRp2191
(dp2192
g54
(dp2193
g81
g82
ssg63
g2182
sg56
(lp2194
S':'
asbag49
(g70
g51
NtRp2195
(dp2196
g54
(dp2197
sg63
g2182
sg56
(lp2198
g49
(g50
g51
NtRp2199
(dp2200
g54
(dp2201
g62
I5
ssg63
g2195
sg56
(lp2202
g49
(g58
g51
NtRp2203
(dp2204
g54
(dp2205
g62
I4
ssg63
Nsg56
(lp2206
sbasbasbasbag49
(g65
g51
NtRp2207
(dp2208
g54
(dp2209
sg63
g59
sg56
(lp2210
g49
(g70
g51
NtRp2211
(dp2212
g54
(dp2213
g74
g75
ssg63
g2207
sg56
(lp2214
S'wsgi'
p2215
asbag49
(g70
g51
NtRp2216
(dp2217
g54
(dp2218
g81
g82
ssg63
g2207
sg56
(lp2219
S':'
asbag49
(g70
g51
NtRp2220
(dp2221
g54
(dp2222
sg63
g2207
sg56
(lp2223
g49
(g50
g51
NtRp2224
(dp2225
g54
(dp2226
g62
I5
ssg63
g2220
sg56
(lp2227
g49
(g58
g51
NtRp2228
(dp2229
g54
(dp2230
g62
I4
ssg63
Nsg56
(lp2231
g49
(g65
g51
NtRp2232
(dp2233
g54
(dp2234
sg63
g2228
sg56
(lp2235
g49
(g70
g51
NtRp2236
(dp2237
g54
(dp2238
g74
g75
ssg63
g2232
sg56
(lp2239
S'environ'
p2240
asbag49
(g70
g51
NtRp2241
(dp2242
g54
(dp2243
g81
g82
ssg63
g2232
sg56
(lp2244
S':'
asbag49
(g70
g51
NtRp2245
(dp2246
g54
(dp2247
sg63
g2232
sg56
(lp2248
g49
(g50
g51
NtRp2249
(dp2250
g54
(dp2251
g62
I4
ssg63
g2245
sg56
(lp2252
g49
(g58
g51
NtRp2253
(dp2254
g54
(dp2255
g62
I3
ssg63
Nsg56
(lp2256
g49
(g65
g51
NtRp2257
(dp2258
g54
(dp2259
sg63
g2253
sg56
(lp2260
g49
(g70
g51
NtRp2261
(dp2262
g54
(dp2263
g74
g75
ssg63
g2257
sg56
(lp2264
S'HTTP_ACCEPT'
p2265
asbag49
(g70
g51
NtRp2266
(dp2267
g54
(dp2268
g81
g82
ssg63
g2257
sg56
(lp2269
S':'
asbag49
(g70
g51
NtRp2270
(dp2271
g54
(dp2272
sg63
g2257
sg56
(lp2273
g49
(g50
g51
NtRp2274
(dp2275
g54
(dp2276
g62
I3
ssg63
g2270
sg56
(lp2277
g808
asbasbasbag49
(g65
g51
NtRp2278
(dp2279
g54
(dp2280
sg63
g2253
sg56
(lp2281
g49
(g70
g51
NtRp2282
(dp2283
g54
(dp2284
g74
g75
ssg63
g2278
sg56
(lp2285
S'HTTP_ACCEPT_CHARSET'
p2286
asbag49
(g70
g51
NtRp2287
(dp2288
g54
(dp2289
g81
g82
ssg63
g2278
sg56
(lp2290
S':'
asbag49
(g70
g51
NtRp2291
(dp2292
g54
(dp2293
sg63
g2278
sg56
(lp2294
g49
(g50
g51
NtRp2295
(dp2296
g54
(dp2297
g62
I3
ssg63
g2291
sg56
(lp2298
g830
asbasbasbag49
(g65
g51
NtRp2299
(dp2300
g54
(dp2301
sg63
g2253
sg56
(lp2302
g49
(g70
g51
NtRp2303
(dp2304
g54
(dp2305
g74
g75
ssg63
g2299
sg56
(lp2306
S'HTTP_ACCEPT_ENCODING'
p2307
asbag49
(g70
g51
NtRp2308
(dp2309
g54
(dp2310
g81
g82
ssg63
g2299
sg56
(lp2311
S':'
asbag49
(g70
g51
NtRp2312
(dp2313
g54
(dp2314
sg63
g2299
sg56
(lp2315
g49
(g50
g51
NtRp2316
(dp2317
g54
(dp2318
g62
I3
ssg63
g2312
sg56
(lp2319
g852
asbasbasbag49
(g65
g51
NtRp2320
(dp2321
g54
(dp2322
sg63
g2253
sg56
(lp2323
g49
(g70
g51
NtRp2324
(dp2325
g54
(dp2326
g74
g75
ssg63
g2320
sg56
(lp2327
S'HTTP_ACCEPT_LANGUAGE'
p2328
asbag49
(g70
g51
NtRp2329
(dp2330
g54
(dp2331
g81
g82
ssg63
g2320
sg56
(lp2332
S':'
asbag49
(g70
g51
NtRp2333
(dp2334
g54
(dp2335
sg63
g2320
sg56
(lp2336
g49
(g50
g51
NtRp2337
(dp2338
g54
(dp2339
g62
I3
ssg63
g2333
sg56
(lp2340
g874
asbasbasbag49
(g65
g51
NtRp2341
(dp2342
g54
(dp2343
sg63
g2253
sg56
(lp2344
g49
(g70
g51
NtRp2345
(dp2346
g54
(dp2347
g74
g75
ssg63
g2341
sg56
(lp2348
S'HTTP_CONNECTION'
p2349
asbag49
(g70
g51
NtRp2350
(dp2351
g54
(dp2352
g81
g82
ssg63
g2341
sg56
(lp2353
S':'
asbag49
(g70
g51
NtRp2354
(dp2355
g54
(dp2356
sg63
g2341
sg56
(lp2357
g49
(g50
g51
NtRp2358
(dp2359
g54
(dp2360
g62
I3
ssg63
g2354
sg56
(lp2361
g896
asbasbasbag49
(g65
g51
NtRp2362
(dp2363
g54
(dp2364
sg63
g2253
sg56
(lp2365
g49
(g70
g51
NtRp2366
(dp2367
g54
(dp2368
g74
g75
ssg63
g2362
sg56
(lp2369
S'HTTP_COOKIE'
p2370
asbag49
(g70
g51
NtRp2371
(dp2372
g54
(dp2373
g81
g82
ssg63
g2362
sg56
(lp2374
S':'
asbag49
(g70
g51
NtRp2375
(dp2376
g54
(dp2377
sg63
g2362
sg56
(lp2378
g49
(g50
g51
NtRp2379
(dp2380
g54
(dp2381
g62
I3
ssg63
g2375
sg56
(lp2382
g918
asbasbasbag49
(g65
g51
NtRp2383
(dp2384
g54
(dp2385
sg63
g2253
sg56
(lp2386
g49
(g70
g51
NtRp2387
(dp2388
g54
(dp2389
g74
g75
ssg63
g2383
sg56
(lp2390
S'HTTP_DNT'
p2391
asbag49
(g70
g51
NtRp2392
(dp2393
g54
(dp2394
g81
g82
ssg63
g2383
sg56
(lp2395
S':'
asbag49
(g70
g51
NtRp2396
(dp2397
g54
(dp2398
sg63
g2383
sg56
(lp2399
g49
(g50
g51
NtRp2400
(dp2401
g54
(dp2402
g62
I3
ssg63
g2396
sg56
(lp2403
S'1'
asbasbasbag49
(g65
g51
NtRp2404
(dp2405
g54
(dp2406
sg63
g2253
sg56
(lp2407
g49
(g70
g51
NtRp2408
(dp2409
g54
(dp2410
g74
g75
ssg63
g2404
sg56
(lp2411
S'HTTP_HOST'
p2412
asbag49
(g70
g51
NtRp2413
(dp2414
g54
(dp2415
g81
g82
ssg63
g2404
sg56
(lp2416
S':'
asbag49
(g70
g51
NtRp2417
(dp2418
g54
(dp2419
sg63
g2404
sg56
(lp2420
g49
(g50
g51
NtRp2421
(dp2422
g54
(dp2423
g62
I3
ssg63
g2417
sg56
(lp2424
g961
asbasbasbag49
(g65
g51
NtRp2425
(dp2426
g54
(dp2427
sg63
g2253
sg56
(lp2428
g49
(g70
g51
NtRp2429
(dp2430
g54
(dp2431
g74
g75
ssg63
g2425
sg56
(lp2432
S'HTTP_USER_AGENT'
p2433
asbag49
(g70
g51
NtRp2434
(dp2435
g54
(dp2436
g81
g82
ssg63
g2425
sg56
(lp2437
S':'
asbag49
(g70
g51
NtRp2438
(dp2439
g54
(dp2440
sg63
g2425
sg56
(lp2441
g49
(g50
g51
NtRp2442
(dp2443
g54
(dp2444
g62
I3
ssg63
g2438
sg56
(lp2445
g983
asbasbasbag49
(g65
g51
NtRp2446
(dp2447
g54
(dp2448
sg63
g2253
sg56
(lp2449
g49
(g70
g51
NtRp2450
(dp2451
g54
(dp2452
g74
g75
ssg63
g2446
sg56
(lp2453
S'PATH_INFO'
p2454
asbag49
(g70
g51
NtRp2455
(dp2456
g54
(dp2457
g81
g82
ssg63
g2446
sg56
(lp2458
S':'
asbag49
(g70
g51
NtRp2459
(dp2460
g54
(dp2461
sg63
g2446
sg56
(lp2462
g49
(g50
g51
NtRp2463
(dp2464
g54
(dp2465
g62
I3
ssg63
g2459
sg56
(lp2466
g1047
asbasbasbag49
(g65
g51
NtRp2467
(dp2468
g54
(dp2469
sg63
g2253
sg56
(lp2470
g49
(g70
g51
NtRp2471
(dp2472
g54
(dp2473
g74
g75
ssg63
g2467
sg56
(lp2474
S'QUERY_STRING'
p2475
asbag49
(g70
g51
NtRp2476
(dp2477
g54
(dp2478
g81
g82
ssg63
g2467
sg56
(lp2479
S':'
asbag49
(g70
g51
NtRp2480
(dp2481
g54
(dp2482
sg63
g2467
sg56
(lp2483
g49
(g50
g51
NtRp2484
(dp2485
g54
(dp2486
g62
I3
ssg63
g2480
sg56
(lp2487
S''
asbasbasbag49
(g65
g51
NtRp2488
(dp2489
g54
(dp2490
sg63
g2253
sg56
(lp2491
g49
(g70
g51
NtRp2492
(dp2493
g54
(dp2494
g74
g75
ssg63
g2488
sg56
(lp2495
S'REMOTE_ADDR'
p2496
asbag49
(g70
g51
NtRp2497
(dp2498
g54
(dp2499
g81
g82
ssg63
g2488
sg56
(lp2500
S':'
asbag49
(g70
g51
NtRp2501
(dp2502
g54
(dp2503
sg63
g2488
sg56
(lp2504
g49
(g50
g51
NtRp2505
(dp2506
g54
(dp2507
g62
I3
ssg63
g2501
sg56
(lp2508
g221
asbasbasbag49
(g65
g51
NtRp2509
(dp2510
g54
(dp2511
sg63
g2253
sg56
(lp2512
g49
(g70
g51
NtRp2513
(dp2514
g54
(dp2515
g74
g75
ssg63
g2509
sg56
(lp2516
S'REMOTE_PORT'
p2517
asbag49
(g70
g51
NtRp2518
(dp2519
g54
(dp2520
g81
g82
ssg63
g2509
sg56
(lp2521
S':'
asbag49
(g70
g51
NtRp2522
(dp2523
g54
(dp2524
sg63
g2509
sg56
(lp2525
g49
(g50
g51
NtRp2526
(dp2527
g54
(dp2528
g62
I3
ssg63
g2522
sg56
(lp2529
g1111
asbasbasbag49
(g65
g51
NtRp2530
(dp2531
g54
(dp2532
sg63
g2253
sg56
(lp2533
g49
(g70
g51
NtRp2534
(dp2535
g54
(dp2536
g74
g75
ssg63
g2530
sg56
(lp2537
S'REQUEST_METHOD'
p2538
asbag49
(g70
g51
NtRp2539
(dp2540
g54
(dp2541
g81
g82
ssg63
g2530
sg56
(lp2542
S':'
asbag49
(g70
g51
NtRp2543
(dp2544
g54
(dp2545
sg63
g2530
sg56
(lp2546
g49
(g50
g51
NtRp2547
(dp2548
g54
(dp2549
g62
I3
ssg63
g2543
sg56
(lp2550
g1133
asbasbasbag49
(g65
g51
NtRp2551
(dp2552
g54
(dp2553
sg63
g2253
sg56
(lp2554
g49
(g70
g51
NtRp2555
(dp2556
g54
(dp2557
g74
g75
ssg63
g2551
sg56
(lp2558
S'SCRIPT_NAME'
p2559
asbag49
(g70
g51
NtRp2560
(dp2561
g54
(dp2562
g81
g82
ssg63
g2551
sg56
(lp2563
S':'
asbag49
(g70
g51
NtRp2564
(dp2565
g54
(dp2566
sg63
g2551
sg56
(lp2567
g49
(g50
g51
NtRp2568
(dp2569
g54
(dp2570
g62
I3
ssg63
g2564
sg56
(lp2571
S''
asbasbasbag49
(g65
g51
NtRp2572
(dp2573
g54
(dp2574
sg63
g2253
sg56
(lp2575
g49
(g70
g51
NtRp2576
(dp2577
g54
(dp2578
g74
g75
ssg63
g2572
sg56
(lp2579
S'SERVER_NAME'
p2580
asbag49
(g70
g51
NtRp2581
(dp2582
g54
(dp2583
g81
g82
ssg63
g2572
sg56
(lp2584
S':'
asbag49
(g70
g51
NtRp2585
(dp2586
g54
(dp2587
sg63
g2572
sg56
(lp2588
g49
(g50
g51
NtRp2589
(dp2590
g54
(dp2591
g62
I3
ssg63
g2585
sg56
(lp2592
g1176
asbasbasbag49
(g65
g51
NtRp2593
(dp2594
g54
(dp2595
sg63
g2253
sg56
(lp2596
g49
(g70
g51
NtRp2597
(dp2598
g54
(dp2599
g74
g75
ssg63
g2593
sg56
(lp2600
S'SERVER_PORT'
p2601
asbag49
(g70
g51
NtRp2602
(dp2603
g54
(dp2604
g81
g82
ssg63
g2593
sg56
(lp2605
S':'
asbag49
(g70
g51
NtRp2606
(dp2607
g54
(dp2608
sg63
g2593
sg56
(lp2609
g49
(g50
g51
NtRp2610
(dp2611
g54
(dp2612
g62
I3
ssg63
g2606
sg56
(lp2613
g1198
asbasbasbag49
(g65
g51
NtRp2614
(dp2615
g54
(dp2616
sg63
g2253
sg56
(lp2617
g49
(g70
g51
NtRp2618
(dp2619
g54
(dp2620
g74
g75
ssg63
g2614
sg56
(lp2621
S'SERVER_PROTOCOL'
p2622
asbag49
(g70
g51
NtRp2623
(dp2624
g54
(dp2625
g81
g82
ssg63
g2614
sg56
(lp2626
S':'
asbag49
(g70
g51
NtRp2627
(dp2628
g54
(dp2629
sg63
g2614
sg56
(lp2630
g49
(g50
g51
NtRp2631
(dp2632
g54
(dp2633
g62
I3
ssg63
g2627
sg56
(lp2634
g1220
asbasbasbag49
(g65
g51
NtRp2635
(dp2636
g54
(dp2637
sg63
g2253
sg56
(lp2638
g49
(g70
g51
NtRp2639
(dp2640
g54
(dp2641
g74
g75
ssg63
g2635
sg56
(lp2642
S'SERVER_SOFTWARE'
p2643
asbag49
(g70
g51
NtRp2644
(dp2645
g54
(dp2646
g81
g82
ssg63
g2635
sg56
(lp2647
S':'
asbag49
(g70
g51
NtRp2648
(dp2649
g54
(dp2650
sg63
g2635
sg56
(lp2651
g49
(g50
g51
NtRp2652
(dp2653
g54
(dp2654
g62
I3
ssg63
g2648
sg56
(lp2655
g1242
asbasbasbag49
(g65
g51
NtRp2656
(dp2657
g54
(dp2658
sg63
g2253
sg56
(lp2659
g49
(g70
g51
NtRp2660
(dp2661
g54
(dp2662
g74
g75
ssg63
g2656
sg56
(lp2663
S'wsgi.errors'
p2664
asbag49
(g70
g51
NtRp2665
(dp2666
g54
(dp2667
g81
g82
ssg63
g2656
sg56
(lp2668
S':'
asbag49
(g70
g51
NtRp2669
(dp2670
g54
(dp2671
sg63
g2656
sg56
(lp2672
g49
(g50
g51
NtRp2673
(dp2674
g54
(dp2675
g62
I3
ssg63
g2669
sg56
(lp2676
S'<__main__.Stderr object at 0x00486670>'
p2677
asbasbasbag49
(g65
g51
NtRp2678
(dp2679
g54
(dp2680
sg63
g2253
sg56
(lp2681
g49
(g70
g51
NtRp2682
(dp2683
g54
(dp2684
g74
g75
ssg63
g2678
sg56
(lp2685
S'wsgi.file_wrapper'
p2686
asbag49
(g70
g51
NtRp2687
(dp2688
g54
(dp2689
g81
g82
ssg63
g2678
sg56
(lp2690
S':'
asbag49
(g70
g51
NtRp2691
(dp2692
g54
(dp2693
sg63
g2678
sg56
(lp2694
g49
(g50
g51
NtRp2695
(dp2696
g54
(dp2697
g62
I3
ssg63
g2691
sg56
(lp2698
S'<class wsgiref.util.FileWrapper at 0x02E8DE10>'
p2699
asbasbasbag49
(g65
g51
NtRp2700
(dp2701
g54
(dp2702
sg63
g2253
sg56
(lp2703
g49
(g70
g51
NtRp2704
(dp2705
g54
(dp2706
g74
g75
ssg63
g2700
sg56
(lp2707
S'wsgi.input'
p2708
asbag49
(g70
g51
NtRp2709
(dp2710
g54
(dp2711
g81
g82
ssg63
g2700
sg56
(lp2712
S':'
asbag49
(g70
g51
NtRp2713
(dp2714
g54
(dp2715
sg63
g2700
sg56
(lp2716
g49
(g50
g51
NtRp2717
(dp2718
g54
(dp2719
g62
I3
ssg63
g2713
sg56
(lp2720
S'<cStringIO.StringO object at 0x030AC6A0>'
p2721
asbasbasbag49
(g65
g51
NtRp2722
(dp2723
g54
(dp2724
sg63
g2253
sg56
(lp2725
g49
(g70
g51
NtRp2726
(dp2727
g54
(dp2728
g74
g75
ssg63
g2722
sg56
(lp2729
S'wsgi.multiprocess'
p2730
asbag49
(g70
g51
NtRp2731
(dp2732
g54
(dp2733
g81
g82
ssg63
g2722
sg56
(lp2734
S':'
asbag49
(g70
g51
NtRp2735
(dp2736
g54
(dp2737
sg63
g2722
sg56
(lp2738
g49
(g50
g51
NtRp2739
(dp2740
g54
(dp2741
g62
I3
ssg63
g2735
sg56
(lp2742
g92
asbasbasbag49
(g65
g51
NtRp2743
(dp2744
g54
(dp2745
sg63
g2253
sg56
(lp2746
g49
(g70
g51
NtRp2747
(dp2748
g54
(dp2749
g74
g75
ssg63
g2743
sg56
(lp2750
S'wsgi.multithread'
p2751
asbag49
(g70
g51
NtRp2752
(dp2753
g54
(dp2754
g81
g82
ssg63
g2743
sg56
(lp2755
S':'
asbag49
(g70
g51
NtRp2756
(dp2757
g54
(dp2758
sg63
g2743
sg56
(lp2759
g49
(g50
g51
NtRp2760
(dp2761
g54
(dp2762
g62
I3
ssg63
g2756
sg56
(lp2763
g1482
asbasbasbag49
(g65
g51
NtRp2764
(dp2765
g54
(dp2766
sg63
g2253
sg56
(lp2767
g49
(g70
g51
NtRp2768
(dp2769
g54
(dp2770
g74
g75
ssg63
g2764
sg56
(lp2771
S'wsgi.run_once'
p2772
asbag49
(g70
g51
NtRp2773
(dp2774
g54
(dp2775
g81
g82
ssg63
g2764
sg56
(lp2776
S':'
asbag49
(g70
g51
NtRp2777
(dp2778
g54
(dp2779
sg63
g2764
sg56
(lp2780
g49
(g50
g51
NtRp2781
(dp2782
g54
(dp2783
g62
I3
ssg63
g2777
sg56
(lp2784
g92
asbasbasbag49
(g65
g51
NtRp2785
(dp2786
g54
(dp2787
sg63
g2253
sg56
(lp2788
g49
(g70
g51
NtRp2789
(dp2790
g54
(dp2791
g74
g75
ssg63
g2785
sg56
(lp2792
S'wsgi.url_scheme'
p2793
asbag49
(g70
g51
NtRp2794
(dp2795
g54
(dp2796
g81
g82
ssg63
g2785
sg56
(lp2797
S':'
asbag49
(g70
g51
NtRp2798
(dp2799
g54
(dp2800
sg63
g2785
sg56
(lp2801
g49
(g50
g51
NtRp2802
(dp2803
g54
(dp2804
g62
I3
ssg63
g2798
sg56
(lp2805
g1525
asbasbasbag49
(g65
g51
NtRp2806
(dp2807
g54
(dp2808
sg63
g2253
sg56
(lp2809
g49
(g70
g51
NtRp2810
(dp2811
g54
(dp2812
g74
g75
ssg63
g2806
sg56
(lp2813
S'wsgi.version'
p2814
asbag49
(g70
g51
NtRp2815
(dp2816
g54
(dp2817
g81
g82
ssg63
g2806
sg56
(lp2818
S':'
asbag49
(g70
g51
NtRp2819
(dp2820
g54
(dp2821
sg63
g2806
sg56
(lp2822
g49
(g50
g51
NtRp2823
(dp2824
g54
(dp2825
g62
I3
ssg63
g2819
sg56
(lp2826
S'1'
asbasbasbasbasbasbasbasbasbasbasbasbasbsS'frames'
p2827
(lp2828
(dp2829
S'file'
p2830
S'C:\\web2py\\gluon\\restricted.py'
p2831
sS'dump'
p2832
(dp2833
sS'lnum'
p2834
I205
sS'lines'
p2835
(dp2836
sS'call'
p2837
S"(code='# -*- coding: utf-8 -*-\\n# this file is released ...)\\n\\n\\nresponse._vars=response._caller(showProblem)\\n', environment={'A': <class 'gluon.html.A'>, 'Auth': <class 'gluon.tools.Auth'>, 'B': <class 'gluon.html.B'>, 'BEAUTIFY': <class 'gluon.html.BEAUTIFY'>, 'BODY': <class 'gluon.html.BODY'>, 'BR': <class 'gluon.html.BR'>, 'BUTTON': <class 'gluon.html.BUTTON'>, 'CAT': <class 'gluon.html.CAT'>, 'CENTER': <class 'gluon.html.CENTER'>, 'CLEANUP': <class 'gluon.validators.CLEANUP'>, ...}, layer=r'C:\\web2py\\applications\\unioeste_code\\controllers/default.py')"
p2838
sS'func'
p2839
S'restricted'
p2840
sa(dp2841
g2830
S'C:\\web2py\\applications\\unioeste_code\\controllers\\default.py'
p2842
sg2832
(dp2843
sg2834
I90
sg2835
(dp2844
I79
S'    http://..../[app]/default/data/delete/[table]/[id]'
p2845
sI80
S'    http://..../[app]/default/data/select/[table]'
p2846
sI81
S'    http://..../[app]/default/data/search/[table]'
p2847
sI82
S'    but URLs must be signed, i.e. linked with'
p2848
sI83
S"      A('table',_href=URL('data/tables',user_signature=True))"
p2849
sI84
S'    or with the signed load operator'
p2850
sI85
S"      LOAD('default','data.load',args='tables',ajax=True,user_signature=True)"
p2851
sI86
S'    """'
p2852
sI87
S'    return dict(form=crud())'
p2853
sI88
S''
ssg2837
S'()'
p2854
sg2839
S'<module>'
p2855
sa(dp2856
g2830
S'C:\\web2py\\gluon\\globals.py'
p2857
sg2832
(dp2858
sg2834
I173
sg2835
(dp2859
sg2837
S'(f=<function showProblem at 0x0672C7F0>)'
p2860
sg2839
S'<lambda>'
p2861
sa(dp2862
g2830
S'C:\\web2py\\applications\\unioeste_code\\controllers\\default.py'
p2863
sg2832
(dp2864
sg2834
I17
sg2835
(dp2865
I12
S'def index():'
p2866
sI13
S'    problems = db().select(db.problem.ALL, orderby = db.problem.title)'
p2867
sI14
S'    return dict(problems=problems)'
p2868
sI15
S''
sI16
S'def showProblem():'
p2869
sI17
S'    problem = db(db.problem.id==request.args(0)).select().first()'
p2870
sI18
S'    db.code.problem_id.default = problem.id'
p2871
sI19
S'    form = SQLFORM(db.code)'
p2872
sI20
S'    if form.process().accepted:'
p2873
sI21
S"        response.flash = 'your code is posted'"
p2874
ssg2837
S'()'
p2875
sg2839
S'showProblem'
p2876
sa(dp2877
g2830
S'C:\\web2py\\gluon\\dal.py'
p2878
sg2832
(dp2879
sg2834
I7578
sg2835
(dp2880
sg2837
S'(self=<gluon.dal.Set object at 0x06C34C90>, *fields=[<gluon.dal.Field object at 0x06134CB0>, <gluon.dal.Field object at 0x062DA290>, <gluon.dal.Field object at 0x061342B0>, <gluon.dal.Field object at 0x06134850>, <gluon.dal.Field object at 0x06134B90>], **attributes={})'
p2881
sg2839
S'select'
p2882
sa(dp2883
g2830
S'C:\\web2py\\gluon\\dal.py'
p2884
sg2832
(dp2885
sg2834
I1307
sg2835
(dp2886
sg2837
S'(self=<gluon.dal.SQLiteAdapter object at 0x062DA8F0>, query=<gluon.dal.Query object at 0x06C34A90>, fields=[<gluon.dal.Field object at 0x06134CB0>, <gluon.dal.Field object at 0x062DA290>, <gluon.dal.Field object at 0x061342B0>, <gluon.dal.Field object at 0x06134850>, <gluon.dal.Field object at 0x06134B90>], attributes={})'
p2887
sg2839
g2882
sa(dp2888
g2830
S'C:\\web2py\\gluon\\dal.py'
p2889
sg2832
(dp2890
sg2834
I1756
sg2835
(dp2891
sg2837
S'(self=<gluon.dal.SQLiteAdapter object at 0x062DA8F0>, query=<gluon.dal.Query object at 0x06C34A90>, fields=[<gluon.dal.Field object at 0x06134CB0>, <gluon.dal.Field object at 0x062DA290>, <gluon.dal.Field object at 0x061342B0>, <gluon.dal.Field object at 0x06134850>, <gluon.dal.Field object at 0x06134B90>], attributes={})'
p2892
sg2839
S'_select'
p2893
sa(dp2894
g2830
S'C:\\web2py\\gluon\\dal.py'
p2895
sg2832
(dp2896
sg2834
I1200
sg2835
(dp2897
sg2837
S'(self=<gluon.dal.SQLiteAdapter object at 0x062DA8F0>, query=<gluon.dal.Query object at 0x06C34A90>, fields=[<gluon.dal.Field object at 0x06134CB0>, <gluon.dal.Field object at 0x062DA290>, <gluon.dal.Field object at 0x061342B0>, <gluon.dal.Field object at 0x06134850>, <gluon.dal.Field object at 0x06134B90>], attributes={})'
p2898
sg2839
g2893
sa(dp2899
g2830
S'C:\\web2py\\gluon\\dal.py'
p2900
sg2832
(dp2901
sg2834
I1046
sg2835
(dp2902
sg2837
S'(self=<gluon.dal.SQLiteAdapter object at 0x062DA8F0>, expression=<gluon.dal.Query object at 0x06C34A90>, field_type=None)'
p2903
sg2839
S'expand'
p2904
sa(dp2905
g2830
S'C:\\web2py\\gluon\\dal.py'
p2906
sg2832
(dp2907
sg2834
I987
sg2835
(dp2908
sg2837
S"(self=<gluon.dal.SQLiteAdapter object at 0x062DA8F0>, first=<gluon.dal.Field object at 0x06134CB0>, second='static')"
p2909
sg2839
S'EQ'
p2910
sa(dp2911
g2830
S'C:\\web2py\\gluon\\dal.py'
p2912
sg2832
(dp2913
sg2834
I1054
sg2835
(dp2914
sg2837
S"(self=<gluon.dal.SQLiteAdapter object at 0x062DA8F0>, expression='static', field_type='id')"
p2915
sg2839
g2904
sa(dp2916
g2830
S'C:\\web2py\\gluon\\dal.py'
p2917
sg2832
(dp2918
sg2834
I1425
sg2835
(dp2919
sg2837
S"(self=<gluon.dal.SQLiteAdapter object at 0x062DA8F0>, obj='static', fieldtype='id')"
p2920
sg2839
S'represent'
p2921
sasS'pyver'
p2922
S'Python 2.5.4: C:\\web2py\\web2py_no_console.exe'
p2923
sS'session'
p2924
g49
(g50
g51
NtRp2925
(dp2926
g54
(dp2927
sg56
(lp2928
g49
(g58
g51
NtRp2929
(dp2930
g54
(dp2931
g62
I5
ssg63
Nsg56
(lp2932
sbasbsS'etype'
p2933
S"<type 'exceptions.ValueError'>"
p2934
sS'date'
p2935
S'Mon Jul 30 00:06:00 2012'
p2936
sS'response'
p2937
g49
(g50
g51
NtRp2938
(dp2939
g54
(dp2940
sg56
(lp2941
g49
(g58
g51
NtRp2942
(dp2943
g54
(dp2944
g62
I5
ssg63
Nsg56
(lp2945
g49
(g65
g51
NtRp2946
(dp2947
g54
(dp2948
sg63
g2942
sg56
(lp2949
g49
(g70
g51
NtRp2950
(dp2951
g54
(dp2952
g74
g75
ssg63
g2946
sg56
(lp2953
g186
asbag49
(g70
g51
NtRp2954
(dp2955
g54
(dp2956
g81
g82
ssg63
g2946
sg56
(lp2957
S':'
asbag49
(g70
g51
NtRp2958
(dp2959
g54
(dp2960
sg63
g2946
sg56
(lp2961
g49
(g50
g51
NtRp2962
(dp2963
g54
(dp2964
g62
I5
ssg63
g2958
sg56
(lp2965
S'<cStringIO.StringO object at 0x06A7BD60>'
p2966
asbasbasbag49
(g65
g51
NtRp2967
(dp2968
g54
(dp2969
sg63
g2942
sg56
(lp2970
g49
(g70
g51
NtRp2971
(dp2972
g54
(dp2973
g74
g75
ssg63
g2967
sg56
(lp2974
g252
asbag49
(g70
g51
NtRp2975
(dp2976
g54
(dp2977
g81
g82
ssg63
g2967
sg56
(lp2978
S':'
asbag49
(g70
g51
NtRp2979
(dp2980
g54
(dp2981
sg63
g2967
sg56
(lp2982
g49
(g50
g51
NtRp2983
(dp2984
g54
(dp2985
g62
I5
ssg63
g2979
sg56
(lp2986
g49
(g58
g51
NtRp2987
(dp2988
g54
(dp2989
g62
I4
ssg63
Nsg56
(lp2990
g49
(g65
g51
NtRp2991
(dp2992
g54
(dp2993
sg63
g2987
sg56
(lp2994
g49
(g70
g51
NtRp2995
(dp2996
g54
(dp2997
g74
g75
ssg63
g2991
sg56
(lp2998
S'session_id_unioeste_code'
p2999
asbag49
(g70
g51
NtRp3000
(dp3001
g54
(dp3002
g81
g82
ssg63
g2991
sg56
(lp3003
S':'
asbag49
(g70
g51
NtRp3004
(dp3005
g54
(dp3006
sg63
g2991
sg56
(lp3007
g49
(g50
g51
NtRp3008
(dp3009
g54
(dp3010
g62
I4
ssg63
g3004
sg56
(lp3011
g49
(g58
g51
NtRp3012
(dp3013
g54
(dp3014
g62
I3
ssg63
Nsg56
(lp3015
g49
(g65
g51
NtRp3016
(dp3017
g54
(dp3018
sg63
g3012
sg56
(lp3019
g49
(g70
g51
NtRp3020
(dp3021
g54
(dp3022
g74
g75
ssg63
g3016
sg56
(lp3023
g302
asbag49
(g70
g51
NtRp3024
(dp3025
g54
(dp3026
g81
g82
ssg63
g3016
sg56
(lp3027
S':'
asbag49
(g70
g51
NtRp3028
(dp3029
g54
(dp3030
sg63
g3016
sg56
(lp3031
g49
(g50
g51
NtRp3032
(dp3033
g54
(dp3034
g62
I3
ssg63
g3028
sg56
(lp3035
S''
asbasbasbag49
(g65
g51
NtRp3036
(dp3037
g54
(dp3038
sg63
g3012
sg56
(lp3039
g49
(g70
g51
NtRp3040
(dp3041
g54
(dp3042
g74
g75
ssg63
g3036
sg56
(lp3043
g323
asbag49
(g70
g51
NtRp3044
(dp3045
g54
(dp3046
g81
g82
ssg63
g3036
sg56
(lp3047
S':'
asbag49
(g70
g51
NtRp3048
(dp3049
g54
(dp3050
sg63
g3036
sg56
(lp3051
g49
(g50
g51
NtRp3052
(dp3053
g54
(dp3054
g62
I3
ssg63
g3048
sg56
(lp3055
S''
asbasbasbag49
(g65
g51
NtRp3056
(dp3057
g54
(dp3058
sg63
g3012
sg56
(lp3059
g49
(g70
g51
NtRp3060
(dp3061
g54
(dp3062
g74
g75
ssg63
g3056
sg56
(lp3063
g344
asbag49
(g70
g51
NtRp3064
(dp3065
g54
(dp3066
g81
g82
ssg63
g3056
sg56
(lp3067
S':'
asbag49
(g70
g51
NtRp3068
(dp3069
g54
(dp3070
sg63
g3056
sg56
(lp3071
g49
(g50
g51
NtRp3072
(dp3073
g54
(dp3074
g62
I3
ssg63
g3068
sg56
(lp3075
S''
asbasbasbag49
(g65
g51
NtRp3076
(dp3077
g54
(dp3078
sg63
g3012
sg56
(lp3079
g49
(g70
g51
NtRp3080
(dp3081
g54
(dp3082
g74
g75
ssg63
g3076
sg56
(lp3083
g365
asbag49
(g70
g51
NtRp3084
(dp3085
g54
(dp3086
g81
g82
ssg63
g3076
sg56
(lp3087
S':'
asbag49
(g70
g51
NtRp3088
(dp3089
g54
(dp3090
sg63
g3076
sg56
(lp3091
g49
(g50
g51
NtRp3092
(dp3093
g54
(dp3094
g62
I3
ssg63
g3088
sg56
(lp3095
S''
asbasbasbag49
(g65
g51
NtRp3096
(dp3097
g54
(dp3098
sg63
g3012
sg56
(lp3099
g49
(g70
g51
NtRp3100
(dp3101
g54
(dp3102
g74
g75
ssg63
g3096
sg56
(lp3103
g386
asbag49
(g70
g51
NtRp3104
(dp3105
g54
(dp3106
g81
g82
ssg63
g3096
sg56
(lp3107
S':'
asbag49
(g70
g51
NtRp3108
(dp3109
g54
(dp3110
sg63
g3096
sg56
(lp3111
g49
(g50
g51
NtRp3112
(dp3113
g54
(dp3114
g62
I3
ssg63
g3108
sg56
(lp3115
S'/'
asbasbasbag49
(g65
g51
NtRp3116
(dp3117
g54
(dp3118
sg63
g3012
sg56
(lp3119
g49
(g70
g51
NtRp3120
(dp3121
g54
(dp3122
g74
g75
ssg63
g3116
sg56
(lp3123
g407
asbag49
(g70
g51
NtRp3124
(dp3125
g54
(dp3126
g81
g82
ssg63
g3116
sg56
(lp3127
S':'
asbag49
(g70
g51
NtRp3128
(dp3129
g54
(dp3130
sg63
g3116
sg56
(lp3131
g49
(g50
g51
NtRp3132
(dp3133
g54
(dp3134
g62
I3
ssg63
g3128
sg56
(lp3135
S''
asbasbasbag49
(g65
g51
NtRp3136
(dp3137
g54
(dp3138
sg63
g3012
sg56
(lp3139
g49
(g70
g51
NtRp3140
(dp3141
g54
(dp3142
g74
g75
ssg63
g3136
sg56
(lp3143
g428
asbag49
(g70
g51
NtRp3144
(dp3145
g54
(dp3146
g81
g82
ssg63
g3136
sg56
(lp3147
S':'
asbag49
(g70
g51
NtRp3148
(dp3149
g54
(dp3150
sg63
g3136
sg56
(lp3151
g49
(g50
g51
NtRp3152
(dp3153
g54
(dp3154
g62
I3
ssg63
g3148
sg56
(lp3155
S''
asbasbasbasbasbasbasbasbasbasbasbag49
(g65
g51
NtRp3156
(dp3157
g54
(dp3158
sg63
g2942
sg56
(lp3159
g49
(g70
g51
NtRp3160
(dp3161
g54
(dp3162
g74
g75
ssg63
g3156
sg56
(lp3163
S'delimiters'
p3164
asbag49
(g70
g51
NtRp3165
(dp3166
g54
(dp3167
g81
g82
ssg63
g3156
sg56
(lp3168
S':'
asbag49
(g70
g51
NtRp3169
(dp3170
g54
(dp3171
sg63
g3156
sg56
(lp3172
g49
(g50
g51
NtRp3173
(dp3174
g54
(dp3175
g62
I5
ssg63
g3169
sg56
(lp3176
g49
(g58
g51
NtRp3177
(dp3178
g54
(dp3179
g62
I4
ssg63
Nsg56
(lp3180
g49
(g65
g51
NtRp3181
(dp3182
g54
(dp3183
sg63
g3177
sg56
(lp3184
g49
(g70
g51
NtRp3185
(dp3186
g54
(dp3187
sg63
g3181
sg56
(lp3188
g49
(g50
g51
NtRp3189
(dp3190
g54
(dp3191
g62
I4
ssg63
g3185
sg56
(lp3192
S'{{'
p3193
asbasbasbag49
(g65
g51
NtRp3194
(dp3195
g54
(dp3196
sg63
g3177
sg56
(lp3197
g49
(g70
g51
NtRp3198
(dp3199
g54
(dp3200
sg63
g3194
sg56
(lp3201
g49
(g50
g51
NtRp3202
(dp3203
g54
(dp3204
g62
I4
ssg63
g3198
sg56
(lp3205
S'}}'
p3206
asbasbasbasbasbasbasbag49
(g65
g51
NtRp3207
(dp3208
g54
(dp3209
sg63
g2942
sg56
(lp3210
g49
(g70
g51
NtRp3211
(dp3212
g54
(dp3213
g74
g75
ssg63
g3207
sg56
(lp3214
S'files'
p3215
asbag49
(g70
g51
NtRp3216
(dp3217
g54
(dp3218
g81
g82
ssg63
g3207
sg56
(lp3219
S':'
asbag49
(g70
g51
NtRp3220
(dp3221
g54
(dp3222
sg63
g3207
sg56
(lp3223
g49
(g50
g51
NtRp3224
(dp3225
g54
(dp3226
g62
I5
ssg63
g3220
sg56
(lp3227
g49
(g58
g51
NtRp3228
(dp3229
g54
(dp3230
g62
I4
ssg63
Nsg56
(lp3231
sbasbasbasbag49
(g65
g51
NtRp3232
(dp3233
g54
(dp3234
sg63
g2942
sg56
(lp3235
g49
(g70
g51
NtRp3236
(dp3237
g54
(dp3238
g74
g75
ssg63
g3232
sg56
(lp3239
S'flash'
p3240
asbag49
(g70
g51
NtRp3241
(dp3242
g54
(dp3243
g81
g82
ssg63
g3232
sg56
(lp3244
S':'
asbag49
(g70
g51
NtRp3245
(dp3246
g54
(dp3247
sg63
g3232
sg56
(lp3248
g49
(g50
g51
NtRp3249
(dp3250
g54
(dp3251
g62
I5
ssg63
g3245
sg56
(lp3252
S''
asbasbasbag49
(g65
g51
NtRp3253
(dp3254
g54
(dp3255
sg63
g2942
sg56
(lp3256
g49
(g70
g51
NtRp3257
(dp3258
g54
(dp3259
g74
g75
ssg63
g3253
sg56
(lp3260
S'generic_patterns'
p3261
asbag49
(g70
g51
NtRp3262
(dp3263
g54
(dp3264
g81
g82
ssg63
g3253
sg56
(lp3265
S':'
asbag49
(g70
g51
NtRp3266
(dp3267
g54
(dp3268
sg63
g3253
sg56
(lp3269
g49
(g50
g51
NtRp3270
(dp3271
g54
(dp3272
g62
I5
ssg63
g3266
sg56
(lp3273
g49
(g58
g51
NtRp3274
(dp3275
g54
(dp3276
g62
I4
ssg63
Nsg56
(lp3277
sbasbasbasbag49
(g65
g51
NtRp3278
(dp3279
g54
(dp3280
sg63
g2942
sg56
(lp3281
g49
(g70
g51
NtRp3282
(dp3283
g54
(dp3284
g74
g75
ssg63
g3278
sg56
(lp3285
S'headers'
p3286
asbag49
(g70
g51
NtRp3287
(dp3288
g54
(dp3289
g81
g82
ssg63
g3278
sg56
(lp3290
S':'
asbag49
(g70
g51
NtRp3291
(dp3292
g54
(dp3293
sg63
g3278
sg56
(lp3294
g49
(g50
g51
NtRp3295
(dp3296
g54
(dp3297
g62
I5
ssg63
g3291
sg56
(lp3298
g49
(g58
g51
NtRp3299
(dp3300
g54
(dp3301
g62
I4
ssg63
Nsg56
(lp3302
g49
(g65
g51
NtRp3303
(dp3304
g54
(dp3305
sg63
g3299
sg56
(lp3306
g49
(g70
g51
NtRp3307
(dp3308
g54
(dp3309
g74
g75
ssg63
g3303
sg56
(lp3310
S'Cache-Control'
p3311
asbag49
(g70
g51
NtRp3312
(dp3313
g54
(dp3314
g81
g82
ssg63
g3303
sg56
(lp3315
S':'
asbag49
(g70
g51
NtRp3316
(dp3317
g54
(dp3318
sg63
g3303
sg56
(lp3319
g49
(g50
g51
NtRp3320
(dp3321
g54
(dp3322
g62
I4
ssg63
g3316
sg56
(lp3323
S'no-store, no-cache, must-revalidate, post-check=0, pre-check=0'
p3324
asbasbasbag49
(g65
g51
NtRp3325
(dp3326
g54
(dp3327
sg63
g3299
sg56
(lp3328
g49
(g70
g51
NtRp3329
(dp3330
g54
(dp3331
g74
g75
ssg63
g3325
sg56
(lp3332
S'Content-Type'
p3333
asbag49
(g70
g51
NtRp3334
(dp3335
g54
(dp3336
g81
g82
ssg63
g3325
sg56
(lp3337
S':'
asbag49
(g70
g51
NtRp3338
(dp3339
g54
(dp3340
sg63
g3325
sg56
(lp3341
g49
(g50
g51
NtRp3342
(dp3343
g54
(dp3344
g62
I4
ssg63
g3338
sg56
(lp3345
S'text/html; charset=utf-8'
p3346
asbasbasbag49
(g65
g51
NtRp3347
(dp3348
g54
(dp3349
sg63
g3299
sg56
(lp3350
g49
(g70
g51
NtRp3351
(dp3352
g54
(dp3353
g74
g75
ssg63
g3347
sg56
(lp3354
S'Expires'
p3355
asbag49
(g70
g51
NtRp3356
(dp3357
g54
(dp3358
g81
g82
ssg63
g3347
sg56
(lp3359
S':'
asbag49
(g70
g51
NtRp3360
(dp3361
g54
(dp3362
sg63
g3347
sg56
(lp3363
g49
(g50
g51
NtRp3364
(dp3365
g54
(dp3366
g62
I4
ssg63
g3360
sg56
(lp3367
S'Mon, 30 Jul 2012 03:06:00 GMT'
p3368
asbasbasbag49
(g65
g51
NtRp3369
(dp3370
g54
(dp3371
sg63
g3299
sg56
(lp3372
g49
(g70
g51
NtRp3373
(dp3374
g54
(dp3375
g74
g75
ssg63
g3369
sg56
(lp3376
S'Pragma'
p3377
asbag49
(g70
g51
NtRp3378
(dp3379
g54
(dp3380
g81
g82
ssg63
g3369
sg56
(lp3381
S':'
asbag49
(g70
g51
NtRp3382
(dp3383
g54
(dp3384
sg63
g3369
sg56
(lp3385
g49
(g50
g51
NtRp3386
(dp3387
g54
(dp3388
g62
I4
ssg63
g3382
sg56
(lp3389
S'no-cache'
p3390
asbasbasbag49
(g65
g51
NtRp3391
(dp3392
g54
(dp3393
sg63
g3299
sg56
(lp3394
g49
(g70
g51
NtRp3395
(dp3396
g54
(dp3397
g74
g75
ssg63
g3391
sg56
(lp3398
S'X-Powered-By'
p3399
asbag49
(g70
g51
NtRp3400
(dp3401
g54
(dp3402
g81
g82
ssg63
g3391
sg56
(lp3403
S':'
asbag49
(g70
g51
NtRp3404
(dp3405
g54
(dp3406
sg63
g3391
sg56
(lp3407
g49
(g50
g51
NtRp3408
(dp3409
g54
(dp3410
g62
I4
ssg63
g3404
sg56
(lp3411
S'web2py'
p3412
asbasbasbasbasbasbasbag49
(g65
g51
NtRp3413
(dp3414
g54
(dp3415
sg63
g2942
sg56
(lp3416
g49
(g70
g51
NtRp3417
(dp3418
g54
(dp3419
g74
g75
ssg63
g3413
sg56
(lp3420
S'menu'
p3421
asbag49
(g70
g51
NtRp3422
(dp3423
g54
(dp3424
g81
g82
ssg63
g3413
sg56
(lp3425
S':'
asbag49
(g70
g51
NtRp3426
(dp3427
g54
(dp3428
sg63
g3413
sg56
(lp3429
g49
(g50
g51
NtRp3430
(dp3431
g54
(dp3432
g62
I5
ssg63
g3426
sg56
(lp3433
g49
(g58
g51
NtRp3434
(dp3435
g54
(dp3436
g62
I4
ssg63
Nsg56
(lp3437
g49
(g65
g51
NtRp3438
(dp3439
g54
(dp3440
sg63
g3434
sg56
(lp3441
g49
(g70
g51
NtRp3442
(dp3443
g54
(dp3444
sg63
g3438
sg56
(lp3445
g49
(g50
g51
NtRp3446
(dp3447
g54
(dp3448
g62
I4
ssg63
g3442
sg56
(lp3449
g49
(g58
g51
NtRp3450
(dp3451
g54
(dp3452
g62
I3
ssg63
Nsg56
(lp3453
g49
(g65
g51
NtRp3454
(dp3455
g54
(dp3456
sg63
g3450
sg56
(lp3457
g49
(g70
g51
NtRp3458
(dp3459
g54
(dp3460
sg63
g3454
sg56
(lp3461
g49
(g50
g51
NtRp3462
(dp3463
g54
(dp3464
g62
I3
ssg63
g3458
sg56
(lp3465
cgluon.languages
lazyT_unpickle
p3466
(S't\x04\x00\x00\x00Home'
tRp3467
asbasbasbag49
(g65
g51
NtRp3468
(dp3469
g54
(dp3470
sg63
g3450
sg56
(lp3471
g49
(g70
g51
NtRp3472
(dp3473
g54
(dp3474
sg63
g3468
sg56
(lp3475
g49
(g50
g51
NtRp3476
(dp3477
g54
(dp3478
g62
I3
ssg63
g3472
sg56
(lp3479
g92
asbasbasbag49
(g65
g51
NtRp3480
(dp3481
g54
(dp3482
sg63
g3450
sg56
(lp3483
g49
(g70
g51
NtRp3484
(dp3485
g54
(dp3486
sg63
g3480
sg56
(lp3487
g49
(g50
g51
NtRp3488
(dp3489
g54
(dp3490
g62
I3
ssg63
g3484
sg56
(lp3491
S'/unioeste_code/default/index'
p3492
asbasbasbag49
(g65
g51
NtRp3493
(dp3494
g54
(dp3495
sg63
g3450
sg56
(lp3496
g49
(g70
g51
NtRp3497
(dp3498
g54
(dp3499
sg63
g3493
sg56
(lp3500
g49
(g50
g51
NtRp3501
(dp3502
g54
(dp3503
g62
I3
ssg63
g3497
sg56
(lp3504
g49
(g58
g51
NtRp3505
(dp3506
g54
(dp3507
g62
I2
ssg63
Nsg56
(lp3508
sbasbasbasbasbasbasbasbag49
(g65
g51
NtRp3509
(dp3510
g54
(dp3511
sg63
g3434
sg56
(lp3512
g49
(g70
g51
NtRp3513
(dp3514
g54
(dp3515
sg63
g3509
sg56
(lp3516
g49
(g50
g51
NtRp3517
(dp3518
g54
(dp3519
g62
I4
ssg63
g3513
sg56
(lp3520
g49
(g58
g51
NtRp3521
(dp3522
g54
(dp3523
g62
I3
ssg63
Nsg56
(lp3524
g49
(g65
g51
NtRp3525
(dp3526
g54
(dp3527
sg63
g3521
sg56
(lp3528
g49
(g70
g51
NtRp3529
(dp3530
g54
(dp3531
sg63
g3525
sg56
(lp3532
g49
(g50
g51
NtRp3533
(dp3534
g54
(dp3535
g62
I3
ssg63
g3529
sg56
(lp3536
g49
(cgluon.html
SPAN
p3537
g51
NtRp3538
(dp3539
g54
(dp3540
g74
S'color:yellow'
p3541
ssg63
Nsg56
(lp3542
g3412
asbasbasbasbag49
(g65
g51
NtRp3543
(dp3544
g54
(dp3545
sg63
g3521
sg56
(lp3546
g49
(g70
g51
NtRp3547
(dp3548
g54
(dp3549
sg63
g3543
sg56
(lp3550
g49
(g50
g51
NtRp3551
(dp3552
g54
(dp3553
g62
I3
ssg63
g3547
sg56
(lp3554
g92
asbasbasbag49
(g65
g51
NtRp3555
(dp3556
g54
(dp3557
sg63
g3521
sg56
(lp3558
g49
(g70
g51
NtRp3559
(dp3560
g54
(dp3561
sg63
g3555
sg56
(lp3562
g49
(g50
g51
NtRp3563
(dp3564
g54
(dp3565
g62
I3
ssg63
g3559
sg56
(lp3566
S'None'
p3567
asbasbasbag49
(g65
g51
NtRp3568
(dp3569
g54
(dp3570
sg63
g3521
sg56
(lp3571
g49
(g70
g51
NtRp3572
(dp3573
g54
(dp3574
sg63
g3568
sg56
(lp3575
g49
(g50
g51
NtRp3576
(dp3577
g54
(dp3578
g62
I3
ssg63
g3572
sg56
(lp3579
g49
(g58
g51
NtRp3580
(dp3581
g54
(dp3582
g62
I2
ssg63
Nsg56
(lp3583
g49
(g65
g51
NtRp3584
(dp3585
g54
(dp3586
sg63
g3580
sg56
(lp3587
g49
(g70
g51
NtRp3588
(dp3589
g54
(dp3590
sg63
g3584
sg56
(lp3591
g49
(g50
g51
NtRp3592
(dp3593
g54
(dp3594
g62
I2
ssg63
g3588
sg56
(lp3595
g49
(g58
g51
NtRp3596
(dp3597
g54
(dp3598
g62
I1
ssg63
Nsg56
(lp3599
g49
(g65
g51
NtRp3600
(dp3601
g54
(dp3602
sg63
g3596
sg56
(lp3603
g49
(g70
g51
NtRp3604
(dp3605
g54
(dp3606
sg63
g3600
sg56
(lp3607
g49
(g50
g51
NtRp3608
(dp3609
g54
(dp3610
g62
I1
ssg63
g3604
sg56
(lp3611
g3466
(S's\x08\x00\x00\x00My Sites'
tRp3612
asbasbasbag49
(g65
g51
NtRp3613
(dp3614
g54
(dp3615
sg63
g3596
sg56
(lp3616
g49
(g70
g51
NtRp3617
(dp3618
g54
(dp3619
sg63
g3613
sg56
(lp3620
g49
(g50
g51
NtRp3621
(dp3622
g54
(dp3623
g62
I1
ssg63
g3617
sg56
(lp3624
I00
asbasbasbag49
(g65
g51
NtRp3625
(dp3626
g54
(dp3627
sg63
g3596
sg56
(lp3628
g49
(g70
g51
NtRp3629
(dp3630
g54
(dp3631
sg63
g3625
sg56
(lp3632
g49
(g50
g51
NtRp3633
(dp3634
g54
(dp3635
g62
I1
ssg63
g3629
sg56
(lp3636
S'/admin/default/site'
p3637
asbasbasbasbasbasbasbag49
(g65
g51
NtRp3638
(dp3639
g54
(dp3640
sg63
g3580
sg56
(lp3641
g49
(g70
g51
NtRp3642
(dp3643
g54
(dp3644
sg63
g3638
sg56
(lp3645
g49
(g50
g51
NtRp3646
(dp3647
g54
(dp3648
g62
I2
ssg63
g3642
sg56
(lp3649
g49
(g58
g51
NtRp3650
(dp3651
g54
(dp3652
g62
I1
ssg63
Nsg56
(lp3653
g49
(g65
g51
NtRp3654
(dp3655
g54
(dp3656
sg63
g3650
sg56
(lp3657
g49
(g70
g51
NtRp3658
(dp3659
g54
(dp3660
sg63
g3654
sg56
(lp3661
g49
(g50
g51
NtRp3662
(dp3663
g54
(dp3664
g62
I1
ssg63
g3658
sg56
(lp3665
g3466
(S's\x08\x00\x00\x00This App'
tRp3666
asbasbasbag49
(g65
g51
NtRp3667
(dp3668
g54
(dp3669
sg63
g3650
sg56
(lp3670
g49
(g70
g51
NtRp3671
(dp3672
g54
(dp3673
sg63
g3667
sg56
(lp3674
g49
(g50
g51
NtRp3675
(dp3676
g54
(dp3677
g62
I1
ssg63
g3671
sg56
(lp3678
I00
asbasbasbag49
(g65
g51
NtRp3679
(dp3680
g54
(dp3681
sg63
g3650
sg56
(lp3682
g49
(g70
g51
NtRp3683
(dp3684
g54
(dp3685
sg63
g3679
sg56
(lp3686
g49
(g50
g51
NtRp3687
(dp3688
g54
(dp3689
g62
I1
ssg63
g3683
sg56
(lp3690
S'/admin/default/design/unioeste_code'
p3691
asbasbasbag49
(g65
g51
NtRp3692
(dp3693
g54
(dp3694
sg63
g3650
sg56
(lp3695
g49
(g70
g51
NtRp3696
(dp3697
g54
(dp3698
sg63
g3692
sg56
(lp3699
g49
(g50
g51
NtRp3700
(dp3701
g54
(dp3702
g62
I1
ssg63
g3696
sg56
(lp3703
(lp3704
(g3466
(S't\x0b\x00\x00\x00Controlador'
tRp3705
I00
S'/admin/default/edit/unioeste_code/controllers/default.py'
tp3706
a(g3466
(S's\x0e\x00\x00\x00Visualiza\xc3\xa7\xc3\xa3o'
tRp3707
I00
S'/admin/default/edit/unioeste_code/views/default/showProblem.html'
tp3708
a(g3466
(S't\x06\x00\x00\x00Layout'
tRp3709
I00
S'/admin/default/edit/unioeste_code/views/layout.html'
tp3710
a(g3466
(S't\n\x00\x00\x00Stylesheet'
tRp3711
I00
S'/admin/default/edit/unioeste_code/static/css/web2py.css'
tp3712
a(g3466
(S's\t\x00\x00\x00Modelo BD'
tRp3713
I00
S'/admin/default/edit/unioeste_code/models/db.py'
tp3714
a(g3466
(S's\x0e\x00\x00\x00Modelo de Menu'
tRp3715
I00
S'/admin/default/edit/unioeste_code/models/menu.py'
tp3716
a(g3466
(S's\x0e\x00\x00\x00Banco de dados'
tRp3717
I00
S'/unioeste_code/appadmin/index'
tp3718
a(g3466
(S't\x06\x00\x00\x00Errors'
tRp3719
I00
S'/admin/default/errors/unioeste_code'
tp3720
a(g3466
(S't\x05\x00\x00\x00About'
tRp3721
I00
S'/admin/default/about/unioeste_code'
tp3722
aasbasbasbasbasbasbasbag49
(g65
g51
NtRp3723
(dp3724
g54
(dp3725
sg63
g3580
sg56
(lp3726
g49
(g70
g51
NtRp3727
(dp3728
g54
(dp3729
sg63
g3723
sg56
(lp3730
g49
(g50
g51
NtRp3731
(dp3732
g54
(dp3733
g62
I2
ssg63
g3727
sg56
(lp3734
g49
(g58
g51
NtRp3735
(dp3736
g54
(dp3737
g62
I1
ssg63
Nsg56
(lp3738
g49
(g65
g51
NtRp3739
(dp3740
g54
(dp3741
sg63
g3735
sg56
(lp3742
g49
(g70
g51
NtRp3743
(dp3744
g54
(dp3745
sg63
g3739
sg56
(lp3746
g49
(g50
g51
NtRp3747
(dp3748
g54
(dp3749
g62
I1
ssg63
g3743
sg56
(lp3750
S'web2py.com'
p3751
asbasbasbag49
(g65
g51
NtRp3752
(dp3753
g54
(dp3754
sg63
g3735
sg56
(lp3755
g49
(g70
g51
NtRp3756
(dp3757
g54
(dp3758
sg63
g3752
sg56
(lp3759
g49
(g50
g51
NtRp3760
(dp3761
g54
(dp3762
g62
I1
ssg63
g3756
sg56
(lp3763
I00
asbasbasbag49
(g65
g51
NtRp3764
(dp3765
g54
(dp3766
sg63
g3735
sg56
(lp3767
g49
(g70
g51
NtRp3768
(dp3769
g54
(dp3770
sg63
g3764
sg56
(lp3771
g49
(g50
g51
NtRp3772
(dp3773
g54
(dp3774
g62
I1
ssg63
g3768
sg56
(lp3775
S'http://www.web2py.com'
p3776
asbasbasbag49
(g65
g51
NtRp3777
(dp3778
g54
(dp3779
sg63
g3735
sg56
(lp3780
g49
(g70
g51
NtRp3781
(dp3782
g54
(dp3783
sg63
g3777
sg56
(lp3784
g49
(g50
g51
NtRp3785
(dp3786
g54
(dp3787
g62
I1
ssg63
g3781
sg56
(lp3788
(lp3789
(g3466
(S't\x08\x00\x00\x00Download'
tRp3790
I00
S'http://www.web2py.com/examples/default/download'
p3791
tp3792
a(g3466
(S't\x07\x00\x00\x00Support'
tRp3793
I00
S'http://www.web2py.com/examples/default/support'
p3794
tp3795
a(g3466
(S't\x04\x00\x00\x00Demo'
tRp3796
I00
S'http://web2py.com/demo_admin'
p3797
tp3798
a(g3466
(S's\x0e\x00\x00\x00Quick Examples'
tRp3799
I00
S'http://web2py.com/examples/default/examples'
p3800
tp3801
a(g3466
(S't\x03\x00\x00\x00FAQ'
tRp3802
I00
S'http://web2py.com/AlterEgo'
p3803
tp3804
a(g3466
(S't\x06\x00\x00\x00Videos'
tRp3805
I00
S'http://www.web2py.com/examples/default/videos/'
p3806
tp3807
a(g3466
(S's\x11\x00\x00\x00Free Applications'
tRp3808
I00
S'http://web2py.com/appliances'
p3809
tp3810
a(g3466
(S't\x07\x00\x00\x00Plugins'
tRp3811
I00
S'http://web2py.com/plugins'
p3812
tp3813
a(g3466
(S't\x07\x00\x00\x00Layouts'
tRp3814
I00
S'http://web2py.com/layouts'
p3815
tp3816
a(g3466
(S't\x07\x00\x00\x00Recipes'
tRp3817
I00
S'http://web2pyslices.com/'
p3818
tp3819
a(g3466
(S't\x08\x00\x00\x00Semantic'
tRp3820
I00
S'http://web2py.com/semantic'
p3821
tp3822
aasbasbasbasbasbasbasbag49
(g65
g51
NtRp3823
(dp3824
g54
(dp3825
sg63
g3580
sg56
(lp3826
g49
(g70
g51
NtRp3827
(dp3828
g54
(dp3829
sg63
g3823
sg56
(lp3830
g49
(g50
g51
NtRp3831
(dp3832
g54
(dp3833
g62
I2
ssg63
g3827
sg56
(lp3834
g49
(g58
g51
NtRp3835
(dp3836
g54
(dp3837
g62
I1
ssg63
Nsg56
(lp3838
g49
(g65
g51
NtRp3839
(dp3840
g54
(dp3841
sg63
g3835
sg56
(lp3842
g49
(g70
g51
NtRp3843
(dp3844
g54
(dp3845
sg63
g3839
sg56
(lp3846
g49
(g50
g51
NtRp3847
(dp3848
g54
(dp3849
g62
I1
ssg63
g3843
sg56
(lp3850
g3466
(S't\r\x00\x00\x00Documentation'
tRp3851
asbasbasbag49
(g65
g51
NtRp3852
(dp3853
g54
(dp3854
sg63
g3835
sg56
(lp3855
g49
(g70
g51
NtRp3856
(dp3857
g54
(dp3858
sg63
g3852
sg56
(lp3859
g49
(g50
g51
NtRp3860
(dp3861
g54
(dp3862
g62
I1
ssg63
g3856
sg56
(lp3863
I00
asbasbasbag49
(g65
g51
NtRp3864
(dp3865
g54
(dp3866
sg63
g3835
sg56
(lp3867
g49
(g70
g51
NtRp3868
(dp3869
g54
(dp3870
sg63
g3864
sg56
(lp3871
g49
(g50
g51
NtRp3872
(dp3873
g54
(dp3874
g62
I1
ssg63
g3868
sg56
(lp3875
S'http://www.web2py.com/book'
p3876
asbasbasbag49
(g65
g51
NtRp3877
(dp3878
g54
(dp3879
sg63
g3835
sg56
(lp3880
g49
(g70
g51
NtRp3881
(dp3882
g54
(dp3883
sg63
g3877
sg56
(lp3884
g49
(g50
g51
NtRp3885
(dp3886
g54
(dp3887
g62
I1
ssg63
g3881
sg56
(lp3888
(lp3889
(g3466
(S't\x07\x00\x00\x00Preface'
tRp3890
I00
S'http://www.web2py.com/book/default/chapter/00'
p3891
tp3892
a(g3466
(S't\x0c\x00\x00\x00Introduction'
tRp3893
I00
S'http://www.web2py.com/book/default/chapter/01'
p3894
tp3895
a(g3466
(S't\x06\x00\x00\x00Python'
tRp3896
I00
S'http://www.web2py.com/book/default/chapter/02'
p3897
tp3898
a(g3466
(S't\x08\x00\x00\x00Overview'
tRp3899
I00
S'http://www.web2py.com/book/default/chapter/03'
p3900
tp3901
a(g3466
(S's\x08\x00\x00\x00The Core'
tRp3902
I00
S'http://www.web2py.com/book/default/chapter/04'
p3903
tp3904
a(g3466
(S's\t\x00\x00\x00The Views'
tRp3905
I00
S'http://www.web2py.com/book/default/chapter/05'
p3906
tp3907
a(g3466
(S's\x0e\x00\x00\x00Banco de dados'
tRp3908
I00
S'http://www.web2py.com/book/default/chapter/06'
p3909
tp3910
a(g3466
(S's\x14\x00\x00\x00Forms and Validators'
tRp3911
I00
S'http://www.web2py.com/book/default/chapter/07'
p3912
tp3913
a(g3466
(S's\r\x00\x00\x00Email and SMS'
tRp3914
I00
S'http://www.web2py.com/book/default/chapter/08'
p3915
tp3916
a(g3466
(S's\x0e\x00\x00\x00Access Control'
tRp3917
I00
S'http://www.web2py.com/book/default/chapter/09'
p3918
tp3919
a(g3466
(S't\x08\x00\x00\x00Services'
tRp3920
I00
S'http://www.web2py.com/book/default/chapter/10'
p3921
tp3922
a(g3466
(S's\x0c\x00\x00\x00Ajax Recipes'
tRp3923
I00
S'http://www.web2py.com/book/default/chapter/11'
p3924
tp3925
a(g3466
(S's\x16\x00\x00\x00Components and Plugins'
tRp3926
I00
S'http://www.web2py.com/book/default/chapter/12'
p3927
tp3928
a(g3466
(S's\x12\x00\x00\x00Deployment Recipes'
tRp3929
I00
S'http://www.web2py.com/book/default/chapter/13'
p3930
tp3931
a(g3466
(S's\r\x00\x00\x00Other Recipes'
tRp3932
I00
S'http://www.web2py.com/book/default/chapter/14'
p3933
tp3934
a(g3466
(S's\r\x00\x00\x00Buy this book'
tRp3935
I00
S'http://stores.lulu.com/web2py'
p3936
tp3937
aasbasbasbasbasbasbasbag49
(g65
g51
NtRp3938
(dp3939
g54
(dp3940
sg63
g3580
sg56
(lp3941
g49
(g70
g51
NtRp3942
(dp3943
g54
(dp3944
sg63
g3938
sg56
(lp3945
g49
(g50
g51
NtRp3946
(dp3947
g54
(dp3948
g62
I2
ssg63
g3942
sg56
(lp3949
g49
(g58
g51
NtRp3950
(dp3951
g54
(dp3952
g62
I1
ssg63
Nsg56
(lp3953
g49
(g65
g51
NtRp3954
(dp3955
g54
(dp3956
sg63
g3950
sg56
(lp3957
g49
(g70
g51
NtRp3958
(dp3959
g54
(dp3960
sg63
g3954
sg56
(lp3961
g49
(g50
g51
NtRp3962
(dp3963
g54
(dp3964
g62
I1
ssg63
g3958
sg56
(lp3965
g3466
(S't\t\x00\x00\x00Community'
tRp3966
asbasbasbag49
(g65
g51
NtRp3967
(dp3968
g54
(dp3969
sg63
g3950
sg56
(lp3970
g49
(g70
g51
NtRp3971
(dp3972
g54
(dp3973
sg63
g3967
sg56
(lp3974
g49
(g50
g51
NtRp3975
(dp3976
g54
(dp3977
g62
I1
ssg63
g3971
sg56
(lp3978
I00
asbasbasbag49
(g65
g51
NtRp3979
(dp3980
g54
(dp3981
sg63
g3950
sg56
(lp3982
g49
(g70
g51
NtRp3983
(dp3984
g54
(dp3985
sg63
g3979
sg56
(lp3986
g49
(g50
g51
NtRp3987
(dp3988
g54
(dp3989
g62
I1
ssg63
g3983
sg56
(lp3990
Nasbasbasbag49
(g65
g51
NtRp3991
(dp3992
g54
(dp3993
sg63
g3950
sg56
(lp3994
g49
(g70
g51
NtRp3995
(dp3996
g54
(dp3997
sg63
g3991
sg56
(lp3998
g49
(g50
g51
NtRp3999
(dp4000
g54
(dp4001
g62
I1
ssg63
g3995
sg56
(lp4002
(lp4003
(g3466
(S't\x06\x00\x00\x00Groups'
tRp4004
I00
S'http://www.web2py.com/examples/default/usergroups'
p4005
tp4006
a(g3466
(S't\x07\x00\x00\x00Twitter'
tRp4007
I00
S'http://twitter.com/web2py'
p4008
tp4009
a(g3466
(S's\t\x00\x00\x00Live Chat'
tRp4010
I00
S'http://webchat.freenode.net/?channels=web2py'
p4011
tp4012
aasbasbasbasbasbasbasbag49
(g65
g51
NtRp4013
(dp4014
g54
(dp4015
sg63
g3580
sg56
(lp4016
g49
(g70
g51
NtRp4017
(dp4018
g54
(dp4019
sg63
g4013
sg56
(lp4020
g49
(g50
g51
NtRp4021
(dp4022
g54
(dp4023
g62
I2
ssg63
g4017
sg56
(lp4024
g49
(g58
g51
NtRp4025
(dp4026
g54
(dp4027
g62
I1
ssg63
Nsg56
(lp4028
g49
(g65
g51
NtRp4029
(dp4030
g54
(dp4031
sg63
g4025
sg56
(lp4032
g49
(g70
g51
NtRp4033
(dp4034
g54
(dp4035
sg63
g4029
sg56
(lp4036
g49
(g50
g51
NtRp4037
(dp4038
g54
(dp4039
g62
I1
ssg63
g4033
sg56
(lp4040
g3466
(S't\x07\x00\x00\x00Plugins'
tRp4041
asbasbasbag49
(g65
g51
NtRp4042
(dp4043
g54
(dp4044
sg63
g4025
sg56
(lp4045
g49
(g70
g51
NtRp4046
(dp4047
g54
(dp4048
sg63
g4042
sg56
(lp4049
g49
(g50
g51
NtRp4050
(dp4051
g54
(dp4052
g62
I1
ssg63
g4046
sg56
(lp4053
I00
asbasbasbag49
(g65
g51
NtRp4054
(dp4055
g54
(dp4056
sg63
g4025
sg56
(lp4057
g49
(g70
g51
NtRp4058
(dp4059
g54
(dp4060
sg63
g4054
sg56
(lp4061
g49
(g50
g51
NtRp4062
(dp4063
g54
(dp4064
g62
I1
ssg63
g4058
sg56
(lp4065
Nasbasbasbag49
(g65
g51
NtRp4066
(dp4067
g54
(dp4068
sg63
g4025
sg56
(lp4069
g49
(g70
g51
NtRp4070
(dp4071
g54
(dp4072
sg63
g4066
sg56
(lp4073
g49
(g50
g51
NtRp4074
(dp4075
g54
(dp4076
g62
I1
ssg63
g4070
sg56
(lp4077
(lp4078
(S'plugin_wiki'
p4079
I00
S'http://web2py.com/examples/default/download'
p4080
tp4081
a(g3466
(S's\r\x00\x00\x00Other Plugins'
tRp4082
I00
g3812
tp4083
a(g3466
(S's\x0e\x00\x00\x00Layout Plugins'
tRp4084
I00
g3815
tp4085
aasbasbasbasbasbasbasbasbasbasbasbasbasbasbasbasbasbasbasbag49
(g65
g51
NtRp4086
(dp4087
g54
(dp4088
sg63
g2942
sg56
(lp4089
g49
(g70
g51
NtRp4090
(dp4091
g54
(dp4092
g74
g75
ssg63
g4086
sg56
(lp4093
S'meta'
p4094
asbag49
(g70
g51
NtRp4095
(dp4096
g54
(dp4097
g81
g82
ssg63
g4086
sg56
(lp4098
S':'
asbag49
(g70
g51
NtRp4099
(dp4100
g54
(dp4101
sg63
g4086
sg56
(lp4102
g49
(g50
g51
NtRp4103
(dp4104
g54
(dp4105
g62
I5
ssg63
g4099
sg56
(lp4106
g49
(g58
g51
NtRp4107
(dp4108
g54
(dp4109
g62
I4
ssg63
Nsg56
(lp4110
g49
(g65
g51
NtRp4111
(dp4112
g54
(dp4113
sg63
g4107
sg56
(lp4114
g49
(g70
g51
NtRp4115
(dp4116
g54
(dp4117
g74
g75
ssg63
g4111
sg56
(lp4118
S'author'
p4119
asbag49
(g70
g51
NtRp4120
(dp4121
g54
(dp4122
g81
g82
ssg63
g4111
sg56
(lp4123
S':'
asbag49
(g70
g51
NtRp4124
(dp4125
g54
(dp4126
sg63
g4111
sg56
(lp4127
g49
(g50
g51
NtRp4128
(dp4129
g54
(dp4130
g62
I4
ssg63
g4124
sg56
(lp4131
S'Your Name <you@example.com>'
p4132
asbasbasbag49
(g65
g51
NtRp4133
(dp4134
g54
(dp4135
sg63
g4107
sg56
(lp4136
g49
(g70
g51
NtRp4137
(dp4138
g54
(dp4139
g74
g75
ssg63
g4133
sg56
(lp4140
S'copyright'
p4141
asbag49
(g70
g51
NtRp4142
(dp4143
g54
(dp4144
g81
g82
ssg63
g4133
sg56
(lp4145
S':'
asbag49
(g70
g51
NtRp4146
(dp4147
g54
(dp4148
sg63
g4133
sg56
(lp4149
g49
(g50
g51
NtRp4150
(dp4151
g54
(dp4152
g62
I4
ssg63
g4146
sg56
(lp4153
S'Copyright 2011'
p4154
asbasbasbag49
(g65
g51
NtRp4155
(dp4156
g54
(dp4157
sg63
g4107
sg56
(lp4158
g49
(g70
g51
NtRp4159
(dp4160
g54
(dp4161
g74
g75
ssg63
g4155
sg56
(lp4162
S'description'
p4163
asbag49
(g70
g51
NtRp4164
(dp4165
g54
(dp4166
g81
g82
ssg63
g4155
sg56
(lp4167
S':'
asbag49
(g70
g51
NtRp4168
(dp4169
g54
(dp4170
sg63
g4155
sg56
(lp4171
g49
(g50
g51
NtRp4172
(dp4173
g54
(dp4174
g62
I4
ssg63
g4168
sg56
(lp4175
S'a cool new app'
p4176
asbasbasbag49
(g65
g51
NtRp4177
(dp4178
g54
(dp4179
sg63
g4107
sg56
(lp4180
g49
(g70
g51
NtRp4181
(dp4182
g54
(dp4183
g74
g75
ssg63
g4177
sg56
(lp4184
S'generator'
p4185
asbag49
(g70
g51
NtRp4186
(dp4187
g54
(dp4188
g81
g82
ssg63
g4177
sg56
(lp4189
S':'
asbag49
(g70
g51
NtRp4190
(dp4191
g54
(dp4192
sg63
g4177
sg56
(lp4193
g49
(g50
g51
NtRp4194
(dp4195
g54
(dp4196
g62
I4
ssg63
g4190
sg56
(lp4197
S'Web2py Web Framework'
p4198
asbasbasbag49
(g65
g51
NtRp4199
(dp4200
g54
(dp4201
sg63
g4107
sg56
(lp4202
g49
(g70
g51
NtRp4203
(dp4204
g54
(dp4205
g74
g75
ssg63
g4199
sg56
(lp4206
S'keywords'
p4207
asbag49
(g70
g51
NtRp4208
(dp4209
g54
(dp4210
g81
g82
ssg63
g4199
sg56
(lp4211
S':'
asbag49
(g70
g51
NtRp4212
(dp4213
g54
(dp4214
sg63
g4199
sg56
(lp4215
g49
(g50
g51
NtRp4216
(dp4217
g54
(dp4218
g62
I4
ssg63
g4212
sg56
(lp4219
S'web2py, python, framework'
p4220
asbasbasbasbasbasbasbag49
(g65
g51
NtRp4221
(dp4222
g54
(dp4223
sg63
g2942
sg56
(lp4224
g49
(g70
g51
NtRp4225
(dp4226
g54
(dp4227
g74
g75
ssg63
g4221
sg56
(lp4228
S'postprocessing'
p4229
asbag49
(g70
g51
NtRp4230
(dp4231
g54
(dp4232
g81
g82
ssg63
g4221
sg56
(lp4233
S':'
asbag49
(g70
g51
NtRp4234
(dp4235
g54
(dp4236
sg63
g4221
sg56
(lp4237
g49
(g50
g51
NtRp4238
(dp4239
g54
(dp4240
g62
I5
ssg63
g4234
sg56
(lp4241
g49
(g58
g51
NtRp4242
(dp4243
g54
(dp4244
g62
I4
ssg63
Nsg56
(lp4245
sbasbasbasbag49
(g65
g51
NtRp4246
(dp4247
g54
(dp4248
sg63
g2942
sg56
(lp4249
g49
(g70
g51
NtRp4250
(dp4251
g54
(dp4252
g74
g75
ssg63
g4246
sg56
(lp4253
S'session_file'
p4254
asbag49
(g70
g51
NtRp4255
(dp4256
g54
(dp4257
g81
g82
ssg63
g4246
sg56
(lp4258
S':'
asbag49
(g70
g51
NtRp4259
(dp4260
g54
(dp4261
sg63
g4246
sg56
(lp4262
g49
(g50
g51
NtRp4263
(dp4264
g54
(dp4265
g62
I5
ssg63
g4259
sg56
(lp4266
S"<open file 'C:\\web2py\\applications\\unioeste_code\\sessions\\127.0.0.1-ac0e57bf-2a61-4ff7-b75a-c2e830b4787a', mode 'rb+' at 0x065BA578>"
p4267
asbasbasbag49
(g65
g51
NtRp4268
(dp4269
g54
(dp4270
sg63
g2942
sg56
(lp4271
g49
(g70
g51
NtRp4272
(dp4273
g54
(dp4274
g74
g75
ssg63
g4268
sg56
(lp4275
S'session_filename'
p4276
asbag49
(g70
g51
NtRp4277
(dp4278
g54
(dp4279
g81
g82
ssg63
g4268
sg56
(lp4280
S':'
asbag49
(g70
g51
NtRp4281
(dp4282
g54
(dp4283
sg63
g4268
sg56
(lp4284
g49
(g50
g51
NtRp4285
(dp4286
g54
(dp4287
g62
I5
ssg63
g4281
sg56
(lp4288
S'C:\\web2py\\applications\\unioeste_code\\sessions\\127.0.0.1-ac0e57bf-2a61-4ff7-b75a-c2e830b4787a'
p4289
asbasbasbag49
(g65
g51
NtRp4290
(dp4291
g54
(dp4292
sg63
g2942
sg56
(lp4293
g49
(g70
g51
NtRp4294
(dp4295
g54
(dp4296
g74
g75
ssg63
g4290
sg56
(lp4297
S'session_id'
p4298
asbag49
(g70
g51
NtRp4299
(dp4300
g54
(dp4301
g81
g82
ssg63
g4290
sg56
(lp4302
S':'
asbag49
(g70
g51
NtRp4303
(dp4304
g54
(dp4305
sg63
g4290
sg56
(lp4306
g49
(g50
g51
NtRp4307
(dp4308
g54
(dp4309
g62
I5
ssg63
g4303
sg56
(lp4310
S'127.0.0.1-ac0e57bf-2a61-4ff7-b75a-c2e830b4787a'
p4311
asbasbasbag49
(g65
g51
NtRp4312
(dp4313
g54
(dp4314
sg63
g2942
sg56
(lp4315
g49
(g70
g51
NtRp4316
(dp4317
g54
(dp4318
g74
g75
ssg63
g4312
sg56
(lp4319
S'session_id_name'
p4320
asbag49
(g70
g51
NtRp4321
(dp4322
g54
(dp4323
g81
g82
ssg63
g4312
sg56
(lp4324
S':'
asbag49
(g70
g51
NtRp4325
(dp4326
g54
(dp4327
sg63
g4312
sg56
(lp4328
g49
(g50
g51
NtRp4329
(dp4330
g54
(dp4331
g62
I5
ssg63
g4325
sg56
(lp4332
g2999
asbasbasbag49
(g65
g51
NtRp4333
(dp4334
g54
(dp4335
sg63
g2942
sg56
(lp4336
g49
(g70
g51
NtRp4337
(dp4338
g54
(dp4339
g74
g75
ssg63
g4333
sg56
(lp4340
S'session_locked'
p4341
asbag49
(g70
g51
NtRp4342
(dp4343
g54
(dp4344
g81
g82
ssg63
g4333
sg56
(lp4345
S':'
asbag49
(g70
g51
NtRp4346
(dp4347
g54
(dp4348
sg63
g4333
sg56
(lp4349
g49
(g50
g51
NtRp4350
(dp4351
g54
(dp4352
g62
I5
ssg63
g4346
sg56
(lp4353
g1482
asbasbasbag49
(g65
g51
NtRp4354
(dp4355
g54
(dp4356
sg63
g2942
sg56
(lp4357
g49
(g70
g51
NtRp4358
(dp4359
g54
(dp4360
g74
g75
ssg63
g4354
sg56
(lp4361
S'session_new'
p4362
asbag49
(g70
g51
NtRp4363
(dp4364
g54
(dp4365
g81
g82
ssg63
g4354
sg56
(lp4366
S':'
asbag49
(g70
g51
NtRp4367
(dp4368
g54
(dp4369
sg63
g4354
sg56
(lp4370
g49
(g50
g51
NtRp4371
(dp4372
g54
(dp4373
g62
I5
ssg63
g4367
sg56
(lp4374
g92
asbasbasbag49
(g65
g51
NtRp4375
(dp4376
g54
(dp4377
sg63
g2942
sg56
(lp4378
g49
(g70
g51
NtRp4379
(dp4380
g54
(dp4381
g74
g75
ssg63
g4375
sg56
(lp4382
S'status'
p4383
asbag49
(g70
g51
NtRp4384
(dp4385
g54
(dp4386
g81
g82
ssg63
g4375
sg56
(lp4387
S':'
asbag49
(g70
g51
NtRp4388
(dp4389
g54
(dp4390
sg63
g4375
sg56
(lp4391
g49
(g50
g51
NtRp4392
(dp4393
g54
(dp4394
g62
I5
ssg63
g4388
sg56
(lp4395
S'200'
p4396
asbasbasbag49
(g65
g51
NtRp4397
(dp4398
g54
(dp4399
sg63
g2942
sg56
(lp4400
g49
(g70
g51
NtRp4401
(dp4402
g54
(dp4403
g74
g75
ssg63
g4397
sg56
(lp4404
S'subtitle'
p4405
asbag49
(g70
g51
NtRp4406
(dp4407
g54
(dp4408
g81
g82
ssg63
g4397
sg56
(lp4409
S':'
asbag49
(g70
g51
NtRp4410
(dp4411
g54
(dp4412
sg63
g4397
sg56
(lp4413
g49
(g50
g51
NtRp4414
(dp4415
g54
(dp4416
g62
I5
ssg63
g4410
sg56
(lp4417
g3466
(S's\x0f\x00\x00\x00Personalize-me!'
tRp4418
asbasbasbag49
(g65
g51
NtRp4419
(dp4420
g54
(dp4421
sg63
g2942
sg56
(lp4422
g49
(g70
g51
NtRp4423
(dp4424
g54
(dp4425
g74
g75
ssg63
g4419
sg56
(lp4426
S'title'
p4427
asbag49
(g70
g51
NtRp4428
(dp4429
g54
(dp4430
g81
g82
ssg63
g4419
sg56
(lp4431
S':'
asbag49
(g70
g51
NtRp4432
(dp4433
g54
(dp4434
sg63
g4419
sg56
(lp4435
g49
(g50
g51
NtRp4436
(dp4437
g54
(dp4438
g62
I5
ssg63
g4432
sg56
(lp4439
S'Unioeste Code'
p4440
asbasbasbag49
(g65
g51
NtRp4441
(dp4442
g54
(dp4443
sg63
g2942
sg56
(lp4444
g49
(g70
g51
NtRp4445
(dp4446
g54
(dp4447
g74
g75
ssg63
g4441
sg56
(lp4448
g2168
asbag49
(g70
g51
NtRp4449
(dp4450
g54
(dp4451
g81
g82
ssg63
g4441
sg56
(lp4452
S':'
asbag49
(g70
g51
NtRp4453
(dp4454
g54
(dp4455
sg63
g4441
sg56
(lp4456
g49
(g50
g51
NtRp4457
(dp4458
g54
(dp4459
g62
I5
ssg63
g4453
sg56
(lp4460
g2181
asbasbasbag49
(g65
g51
NtRp4461
(dp4462
g54
(dp4463
sg63
g2942
sg56
(lp4464
g49
(g70
g51
NtRp4465
(dp4466
g54
(dp4467
g74
g75
ssg63
g4461
sg56
(lp4468
S'view'
p4469
asbag49
(g70
g51
NtRp4470
(dp4471
g54
(dp4472
g81
g82
ssg63
g4461
sg56
(lp4473
S':'
asbag49
(g70
g51
NtRp4474
(dp4475
g54
(dp4476
sg63
g4461
sg56
(lp4477
g49
(g50
g51
NtRp4478
(dp4479
g54
(dp4480
g62
I5
ssg63
g4474
sg56
(lp4481
S'default/showProblem.html'
p4482
asbasbasbasbasbsS'locals'
p4483
(dp4484
S'self'
p4485
S'<gluon.dal.SQLiteAdapter object at 0x062DA8F0>'
p4486
sS'r'
S'None'
p4487
sS'obj'
p4488
S"'static'"
p4489
sS'fieldtype'
p4490
S"'id'"
p4491
sssS'traceback'
p4492
S'Traceback (most recent call last):\n  File "gluon/restricted.py", line 205, in restricted\n  File "C:\\web2py\\applications\\unioeste_code\\controllers/default.py", line 90, in <module>\n  File "gluon/globals.py", line 173, in <lambda>\n  File "C:\\web2py\\applications\\unioeste_code\\controllers/default.py", line 17, in showProblem\n  File "gluon/dal.py", line 7578, in select\n  File "gluon/dal.py", line 1307, in select\n  File "gluon/dal.py", line 1756, in _select\n  File "gluon/dal.py", line 1200, in _select\n  File "gluon/dal.py", line 1046, in expand\n  File "gluon/dal.py", line 987, in EQ\n  File "gluon/dal.py", line 1054, in expand\n  File "gluon/dal.py", line 1425, in represent\nValueError: invalid literal for int() with base 10: \'static\'\n'
p4493
s.