(dp1
S'output'
p2
S"<type 'exceptions.SyntaxError'> invalid syntax (default/Code.html, line 89)"
p3
sS'layer'
p4
S'C:\\web2py\\applications\\unioeste_code\\views\\default/Code.html'
p5
sS'code'
p6
S'response.write(\' \', escape=False)\nresponse.write(\'<!DOCTYPE html>\\n<!-- paulirish.com/2008/conditional-stylesheets-vs-css-hacks-answer-neither/ -->\\n<!--[if lt IE 7]><html class="ie ie6 ie-lte9 ie-lte8 ie-lte7 no-js" lang="\', escape=False)\nresponse.write(T.accepted_language or \'en\')\nresponse.write(\'"> <![endif]-->\\n<!--[if IE 7]><html class="ie ie7 ie-lte9 ie-lte8 ie-lte7 no-js" lang="\', escape=False)\nresponse.write(T.accepted_language or \'en\')\nresponse.write(\'"> <![endif]-->\\n<!--[if IE 8]><html class="ie ie8 ie-lte9 ie-lte8 no-js" lang="\', escape=False)\nresponse.write(T.accepted_language or \'en\')\nresponse.write(\'"> <![endif]-->\\n<!--[if IE 9]><html class="ie9 ie-lte9 no-js" lang="\', escape=False)\nresponse.write(T.accepted_language or \'en\')\nresponse.write(\'"> <![endif]-->\\n<!--[if (gt IE 9)|!(IE)]><!--> <html class="no-js" lang="\', escape=False)\nresponse.write(T.accepted_language or \'en\')\nresponse.write(\'"> <!--<![endif]-->\\n<head>\\n  <meta charset="utf-8" />\\n  <!-- www.phpied.com/conditional-comments-block-downloads/ -->\\n  <!-- Always force latest IE rendering engine\\n\\t   (even in intranet) & Chrome Frame\\n\\t   Remove this if you use the .htaccess -->\\n  <!--[if IE]>\\n    <meta http-equiv="X-UA-Compatible" content="IE=edge\', escape=False)\nresponse.write(not request.is_local and \',chrome=1\' or \'\')\nresponse.write(\'">\\n  <![endif]-->\\n  \\n  <title>\', escape=False)\nresponse.write(response.title or request.application)\nresponse.write(\'</title>\\n  \\n  <!-- http://dev.w3.org/html5/markup/meta.name.html -->\\n  <meta name="application-name" content="\', escape=False)\nresponse.write(request.application)\nresponse.write(\'" />\\n  \\n  <!-- Speaking of Google, don\\\'t forget to set your site up:\\n\\t   http://google.com/webmasters -->\\n  <meta name="google-site-verification" content="" />\\n\\n  <!--  Mobile Viewport Fix\\n\\t  j.mp/mobileviewport & davidbcalhoun.com/2010/viewport-metatag\\n\\t  device-width: Occupy full width of the screen in its current orientation\\n\\t  initial-scale = 1.0 retains dimensions instead of zooming out if page height > device height\\n\\t  user-scalable = yes allows the user to zoom in -->\\n  <meta name="viewport" content="width=device-width, initial-scale=1.0, user-scalable=yes">\\n  \\n  <!-- Place favicon.ico and apple-touch-icon.png in the root of your domain and delete these references -->\\n  <link rel="shortcut icon" href="\', escape=False)\nresponse.write(URL(\'static\',\'favicon.ico\'))\nresponse.write(\'" type="image/x-icon">\\n  <link rel="apple-touch-icon" href="\', escape=False)\nresponse.write(URL(\'static\',\'favicon.png\'))\nresponse.write(\'">\\n\\n  <!-- All JavaScript at the bottom, except for Modernizr which enables \\n\\t   HTML5 elements & feature detects -->\\n  <script src="\', escape=False)\nresponse.write(URL(\'static\',\'js/modernizr.custom.js\'))\nresponse.write(\'"></script>  \\n\\n  <!-- include stylesheets -->\\n  \', escape=False)\nresponse.files.append(URL(\'static\',\'css/skeleton.css\'))\nresponse.files.append(URL(\'static\',\'css/web2py.css\'))\nif response.menu:\n    response.files.append(URL(\'static\',\'css/superfish.css\'))\n    response.files.append(URL(\'static\',\'js/superfish.js\'))\n    pass\nresponse.write(\'\\n\\n  \', escape=False)\nresponse.write(\'<script type="text/javascript"><!--\\n    // These variables are used by the web2py_ajax_init function in web2py_ajax.js (which is loaded below).\\n    var w2p_ajax_confirm_message = "\', escape=False)\nresponse.write(T(\'Are you sure you want to delete this object?\'))\nresponse.write(\'";\\n    var w2p_ajax_date_format = "\', escape=False)\nresponse.write(T(\'%Y-%m-%d\'))\nresponse.write(\'";\\n    var w2p_ajax_datetime_format = "\', escape=False)\nresponse.write(T(\'%Y-%m-%d %H:%M:%S\'))\nresponse.write(\'";\\n    //--></script>\\n\', escape=False)\nresponse.files.insert(0,URL(\'static\',\'js/jquery.js\'))\nresponse.files.insert(1,URL(\'static\',\'css/calendar.css\'))\nresponse.files.insert(2,URL(\'static\',\'js/calendar.js\'))\nresponse.files.insert(3,URL(\'static\',\'js/web2py.js\'))\nresponse.include_meta()\nresponse.include_files()\nresponse.write(\'\\n\', escape=False)\nresponse.write(\'\\n\\n  \', escape=False)\nif response.menu:\n    response.write(\'\\n  <script type="text/javascript">\\n    jQuery(function(){ jQuery(\\\'ul.sf-menu\\\').supersubs({minWidth:12,maxWidth:30,extraWidth:3}).superfish(); });\\n  </script>\\n  \', escape=False)\n    pass\nresponse.write(\'\\n\\n  \', escape=False)\n# using sidebars need to know what sidebar you want to use\nleft_sidebar_enabled = globals().get(\'left_sidebar_enabled\',False)\nright_sidebar_enabled = globals().get(\'right_sidebar_enabled\',False)\nmiddle_columns = {0:\'sixteen\',1:\'twelve\',2:\'eight\'}[\n(left_sidebar_enabled and 1 or 0)+(right_sidebar_enabled and 1 or 0)]\nresponse.write(\'\\n\\n  <!-- uncomment here to load jquery-ui\\n  <link rel="stylesheet" href="http://ajax.googleapis.com/ajax/libs/jqueryui/1.8.16/themes/base/jquery-ui.css" type="text/css" media="all" />\\n  <script src="http://ajax.googleapis.com/ajax/libs/jqueryui/1.8.16/jquery-ui.min.js" type="text/javascript"></script>\\n  uncomment to load jquery-ui //-->\\n</head>\\n<body>\\n  <div class="wrapper"><!-- for sticky footer -->\\n  \\n    <div class="topbar">\\n      <div class="container">    \\n        <div class="sixteen columns">\\n          <div id="navbar">\', escape=False)\nresponse.write(\'auth\' in globals() and auth.navbar(separators=(\' \',\' | \',\'\')))\nresponse.write(\'</div>\\n          \', escape=False)\nis_mobile=request.user_agent().is_mobile\nresponse.write(\'\\n\\t  \', escape=False)\nif response.menu:\n    response.write(\'\\n          <div id="menu">\\n             \', escape=False)\n    response.write(MENU(response.menu, _class=\'mobile-menu\' if is_mobile else \'sf-menu\',mobile=is_mobile))\n    response.write(\'\\n          </div>\\n          \', escape=False)\n    pass\nresponse.write(\'\\n        </div>\\n      </div>\\n    </div><!-- topbar -->\\n    \\n    <div class="flash">\', escape=False)\nresponse.write(response.flash or \'\')\nresponse.write(\'</div>\\n    \\n    <div class="header">\\n      <div class="container">         \\n        <div class="sixteen columns">\\n          <h1 class="remove-bottom" style="margin-top: .5em;">\\n          \', escape=False)\nresponse.write(response.title or request.application)\nresponse.write(\'\\n          </h1>\\n          <h5>\', escape=False)\nresponse.write(response.subtitle or \'\')\nresponse.write(\'</h5>\\n        </div>\\n        <div class="sixteen columns">\\n          <div class="statusbar clearfix">\\n            \', escape=False)\nresponse.write(\'\\n            <div class="breadcrumbs">\', escape=False)\nresponse.write(request.function.replace(\'_\', \' \').title())\nresponse.write(\'</div>\\n            \', escape=False)\nresponse.write(\'\\n            <!-- AddToAny BEGIN -->\\n            <div style="float:right; padding-top: .25em;" class="a2a_kit a2a_default_style">\\n            <a class="a2a_dd" href="http://www.addtoany.com/share_save">Share</a></div>\\n            <script type="text/javascript" src="http://static.addtoany.com/menu/page.js"></script>\\n            <!-- AddToAny END -->\\n          </div>\\n        </div>\\n      </div>\\n    </div>\\n\\n    <div class="main">\\n      <div class="container">                 \\n        \', escape=False)\nif left_sidebar_enabled:\n    response.write(\'\\n        <div class="four columns left-sidebar">\\n          \', escape=False)\n    response.write(\'\\n          <h3>Left Sidebar</h3>\\n          <p></p>\\n          \', escape=False)\n    response.write(\'\\n        </div>\\n        \', escape=False)\n    pass\nresponse.write(\'\\n        \\n        <div class="\', escape=False)\nresponse.write(middle_columns)\nresponse.write(\' columns center">\\n          \', escape=False)\nresponse.write(\'\\n          \', escape=False)\nresponse.write(\'\\r\\n\\r\\n <head>\\r\\n <script src="../../static/lib/codemirror.js"></script>\\r\\n <link rel="stylesheet" href="../../static/lib/codemirror.css">\\r\\n <script src="../../static/mode/clike.js"></script>\\r\\n <style>.CodeMirror {border: 3px solid #cccccc;}</style>\\r\\n</head>\\r\\n\\r\\n\\r\\n\', escape=False)\nfrom uc_utils import shortify\nresponse.write(\'\\r\\n\\r\\n\', escape=False)\nresponse.write(H1(T("Solution by ") {{=shortify(author))\nresponse.write(\')}}\\r\\n\\r\\n<textarea id="code_body">\\r\\n\', escape=False)\nresponse.write(code.body)\nresponse.write(\'\\r\\n</textarea>\\r\\n\\r\\n\', escape=False)\nresponse.write(H3(T("Comments"), _style="color:green"))\nresponse.write(\'\\r\\n\\r\\n\', escape=False)\nfor comment in comments:\n    response.write(\'\\r\\n\', escape=False)\n    user = db(db.auth_user.id==comment.created_by).select().first()\n    response.write(\'\\r\\n<div class="statusbar">\\r\\n\\t<p>\', escape=False)\n    response.write(shortify(user))\n    response.write(\' \', escape=False)\n    response.write(prettydate(code.created_on))\n    response.write(\'</p>\\r\\n\\t\', escape=False)\n    response.write(comment.body)\n    response.write(\'\\r\\n</div>\\r\\n\', escape=False)\n    pass\nresponse.write(\'\\r\\n\\r\\n\\r\\n\', escape=False)\nresponse.write(H2(T("Post your comment!")))\nresponse.write(\'\\r\\n\', escape=False)\nresponse.write(form)\nresponse.write(\'\\r\\n\\r\\n\\r\\n\\r\\n\\r\\n<script type="text/javascript">\\r\\n      var editor = CodeMirror.fromTextArea(document.getElementById("code_body"), {\\r\\n        lineNumbers: true,\\r\\n        matchBrackets: true,\\r\\n        mode: "text/x-c++src",\\r\\n        reardOnly: true\\r\\n      });\\r\\n</script>\\r\\n\\r\\n\', escape=False)\nresponse.write(\'\\n          \', escape=False)\nresponse.write(\'\\n        </div>\\n        \\n        \', escape=False)\nif right_sidebar_enabled:\n    response.write(\'\\n        <div class="four columns">\\n          \', escape=False)\n    response.write(\'\\n          <h3>Right Sidebar</h3>\\n          <p></p>\\n          \', escape=False)\n    response.write(\'\\n        </div>    \\n        \', escape=False)\n    pass\nresponse.write(\'\\n        \\n      </div><!-- container -->\\n    </div><!-- main -->\\n    \\n    <div class="push"></div>\\n  </div><!-- wrapper -->\\n\\n  <div class="footer">\\n    <div class="container">    \\n      <div class="sixteen columns">\\n        \', escape=False)\nresponse.write(\' <!-- this is default footer -->\\n        <div class="footer-content clearfix">\\n          <div class="copyright">\', escape=False)\nresponse.write(T(\'Copyright\'))\nresponse.write(\' &#169; 2011</div>\\n          <div style="float: right;">\\n            <a href="http://www.web2py.com/">\\n            <img style="padding-bottom: 0;" src="\', escape=False)\nresponse.write(URL(\'static\',\'images/poweredby.png\'))\nresponse.write(\'"/>\\n            </a>\\n          </div>\\n        </div>\\n        \', escape=False)\nresponse.write(\'\\t\\n      </div>\\n    </div><!-- container -->\\n  </div><!-- footer -->\\n  \\n  <!--[if lt IE 7 ]>\\n\\t<script src="\', escape=False)\nresponse.write(URL(\'static\',\'js/dd_belatedpng.js\'))\nresponse.write(\'"></script>\\n\\t<script> DD_belatedPNG.fix(\\\'img, .png_bg\\\'); //fix any <img> or .png_bg background-images </script>\\n\\t<![endif]-->\\n  \', escape=False)\nif response.google_analytics_id:\n    response.write(\'<script type="text/javascript"> var _gaq = _gaq || []; _gaq.push([\\\'_setAccount\\\', \\\'\', escape=False)\n    response.write(response.google_analytics_id)\n    response.write("\']); _gaq.push([\'_trackPageview\']); (function() { var ga = document.createElement(\'script\'); ga.type = \'text/javascript\'; ga.async = true; ga.src = (\'https:\' == document.location.protocol ? \'https://ssl\' : \'http://www\') + \'.google-analytics.com/ga.js\'; var s = document.getElementsByTagName(\'script\')[0]; s.parentNode.insertBefore(ga, s); })(); </script> ", escape=False)\n    pass\nresponse.write(\'\\n</body>\\n</html>\\n\', escape=False)'
p7
sS'snapshot'
p8
(dp9
S'exception'
p10
(dp11
S'__getslice__'
p12
S"<method-wrapper '__getslice__' of exceptions.SyntaxError object at 0x060BBAF0>"
p13
sS'text'
p14
S'\'response.write(H1(T("Solution by ") {{=shortify(author))\\n\''
p15
sS'__str__'
p16
S"<method-wrapper '__str__' of exceptions.SyntaxError object at 0x060BBAF0>"
p17
sS'__reduce__'
p18
S'<built-in method __reduce__ of exceptions.SyntaxError object at 0x060BBAF0>'
p19
sS'__dict__'
p20
S'{}'
p21
sS'__init__'
p22
S"<method-wrapper '__init__' of exceptions.SyntaxError object at 0x060BBAF0>"
p23
sS'__setattr__'
p24
S"<method-wrapper '__setattr__' of exceptions.SyntaxError object at 0x060BBAF0>"
p25
sS'__reduce_ex__'
p26
S'<built-in method __reduce_ex__ of exceptions.SyntaxError object at 0x060BBAF0>'
p27
sS'__new__'
p28
S'<built-in method __new__ of type object at 0x1E1CDBD0>'
p29
sS'__class__'
p30
S"<type 'exceptions.SyntaxError'>"
p31
sS'filename'
p32
S"r'C:\\web2py\\applications\\unioeste_code\\views\\default/Code.html'"
p33
sS'lineno'
p34
S'89'
p35
sS'msg'
p36
S"'invalid syntax'"
p37
sS'__doc__'
p38
S"'Invalid syntax.'"
p39
sS'__getitem__'
p40
S"<method-wrapper '__getitem__' of exceptions.SyntaxError object at 0x060BBAF0>"
p41
sS'__setstate__'
p42
S'<built-in method __setstate__ of exceptions.SyntaxError object at 0x060BBAF0>'
p43
sS'__getattribute__'
p44
S"<method-wrapper '__getattribute__' of exceptions.SyntaxError object at 0x060BBAF0>"
p45
sS'print_file_and_line'
p46
S'None'
p47
sS'args'
p48
S'(\'invalid syntax\', (r\'C:\\web2py\\applications\\unioeste_code\\views\\default/Code.html\', 89, 37, \'response.write(H1(T("Solution by ") {{=shortify(author))\\n\'))'
p49
sS'offset'
p50
S'37'
p51
sS'__delattr__'
p52
S"<method-wrapper '__delattr__' of exceptions.SyntaxError object at 0x060BBAF0>"
p53
sS'__repr__'
p54
S"<method-wrapper '__repr__' of exceptions.SyntaxError object at 0x060BBAF0>"
p55
sS'__hash__'
p56
S"<method-wrapper '__hash__' of exceptions.SyntaxError object at 0x060BBAF0>"
p57
ssS'evalue'
p58
S'invalid syntax (default/Code.html, line 89)'
p59
sS'request'
p60
ccopy_reg
_reconstructor
p61
(cgluon.html
BEAUTIFY
p62
c__builtin__
object
p63
NtRp64
(dp65
S'attributes'
p66
(dp67
sS'components'
p68
(lp69
g61
(cgluon.html
TABLE
p70
g63
NtRp71
(dp72
g66
(dp73
S'level'
p74
I5
ssS'parent'
p75
Nsg68
(lp76
g61
(cgluon.html
TR
p77
g63
NtRp78
(dp79
g66
(dp80
sg75
g71
sg68
(lp81
g61
(cgluon.html
TD
p82
g63
NtRp83
(dp84
g66
(dp85
S'_style'
p86
S'font-weight:bold;vertical-align:top'
p87
ssg75
g78
sg68
(lp88
S'ajax'
p89
asbag61
(g82
g63
NtRp90
(dp91
g66
(dp92
S'_valign'
p93
S'top'
p94
ssg75
g78
sg68
(lp95
S':'
asbag61
(g82
g63
NtRp96
(dp97
g66
(dp98
sg75
g78
sg68
(lp99
g61
(g62
g63
NtRp100
(dp101
g66
(dp102
g74
I5
ssg75
g96
sg68
(lp103
S'False'
p104
asbasbasbag61
(g77
g63
NtRp105
(dp106
g66
(dp107
sg75
g71
sg68
(lp108
g61
(g82
g63
NtRp109
(dp110
g66
(dp111
g86
g87
ssg75
g105
sg68
(lp112
S'application'
p113
asbag61
(g82
g63
NtRp114
(dp115
g66
(dp116
g93
g94
ssg75
g105
sg68
(lp117
S':'
asbag61
(g82
g63
NtRp118
(dp119
g66
(dp120
sg75
g105
sg68
(lp121
g61
(g62
g63
NtRp122
(dp123
g66
(dp124
g74
I5
ssg75
g118
sg68
(lp125
S'unioeste_code'
p126
asbasbasbag61
(g77
g63
NtRp127
(dp128
g66
(dp129
sg75
g71
sg68
(lp130
g61
(g82
g63
NtRp131
(dp132
g66
(dp133
g86
g87
ssg75
g127
sg68
(lp134
g48
asbag61
(g82
g63
NtRp135
(dp136
g66
(dp137
g93
g94
ssg75
g127
sg68
(lp138
S':'
asbag61
(g82
g63
NtRp139
(dp140
g66
(dp141
sg75
g127
sg68
(lp142
g61
(g62
g63
NtRp143
(dp144
g66
(dp145
g74
I5
ssg75
g139
sg68
(lp146
g61
(g70
g63
NtRp147
(dp148
g66
(dp149
g74
I4
ssg75
Nsg68
(lp150
g61
(g77
g63
NtRp151
(dp152
g66
(dp153
sg75
g147
sg68
(lp154
g61
(g82
g63
NtRp155
(dp156
g66
(dp157
sg75
g151
sg68
(lp158
g61
(g62
g63
NtRp159
(dp160
g66
(dp161
g74
I4
ssg75
g155
sg68
(lp162
S'2'
asbasbasbasbasbasbasbag61
(g77
g63
NtRp163
(dp164
g66
(dp165
sg75
g71
sg68
(lp166
g61
(g82
g63
NtRp167
(dp168
g66
(dp169
g86
g87
ssg75
g163
sg68
(lp170
S'body'
p171
asbag61
(g82
g63
NtRp172
(dp173
g66
(dp174
g93
g94
ssg75
g163
sg68
(lp175
S':'
asbag61
(g82
g63
NtRp176
(dp177
g66
(dp178
sg75
g163
sg68
(lp179
g61
(g62
g63
NtRp180
(dp181
g66
(dp182
g74
I5
ssg75
g176
sg68
(lp183
S'<cStringIO.StringO object at 0x031FE0A0>'
p184
asbasbasbag61
(g77
g63
NtRp185
(dp186
g66
(dp187
sg75
g71
sg68
(lp188
g61
(g82
g63
NtRp189
(dp190
g66
(dp191
g86
g87
ssg75
g185
sg68
(lp192
S'client'
p193
asbag61
(g82
g63
NtRp194
(dp195
g66
(dp196
g93
g94
ssg75
g185
sg68
(lp197
S':'
asbag61
(g82
g63
NtRp198
(dp199
g66
(dp200
sg75
g185
sg68
(lp201
g61
(g62
g63
NtRp202
(dp203
g66
(dp204
g74
I5
ssg75
g198
sg68
(lp205
S'127.0.0.1'
p206
asbasbasbag61
(g77
g63
NtRp207
(dp208
g66
(dp209
sg75
g71
sg68
(lp210
g61
(g82
g63
NtRp211
(dp212
g66
(dp213
g86
g87
ssg75
g207
sg68
(lp214
S'controller'
p215
asbag61
(g82
g63
NtRp216
(dp217
g66
(dp218
g93
g94
ssg75
g207
sg68
(lp219
S':'
asbag61
(g82
g63
NtRp220
(dp221
g66
(dp222
sg75
g207
sg68
(lp223
g61
(g62
g63
NtRp224
(dp225
g66
(dp226
g74
I5
ssg75
g220
sg68
(lp227
S'default'
p228
asbasbasbag61
(g77
g63
NtRp229
(dp230
g66
(dp231
sg75
g71
sg68
(lp232
g61
(g82
g63
NtRp233
(dp234
g66
(dp235
g86
g87
ssg75
g229
sg68
(lp236
S'cookies'
p237
asbag61
(g82
g63
NtRp238
(dp239
g66
(dp240
g93
g94
ssg75
g229
sg68
(lp241
S':'
asbag61
(g82
g63
NtRp242
(dp243
g66
(dp244
sg75
g229
sg68
(lp245
g61
(g62
g63
NtRp246
(dp247
g66
(dp248
g74
I5
ssg75
g242
sg68
(lp249
g61
(g70
g63
NtRp250
(dp251
g66
(dp252
g74
I4
ssg75
Nsg68
(lp253
g61
(g77
g63
NtRp254
(dp255
g66
(dp256
sg75
g250
sg68
(lp257
g61
(g82
g63
NtRp258
(dp259
g66
(dp260
g86
g87
ssg75
g254
sg68
(lp261
S'session_id_admin'
p262
asbag61
(g82
g63
NtRp263
(dp264
g66
(dp265
g93
g94
ssg75
g254
sg68
(lp266
S':'
asbag61
(g82
g63
NtRp267
(dp268
g66
(dp269
sg75
g254
sg68
(lp270
g61
(g62
g63
NtRp271
(dp272
g66
(dp273
g74
I4
ssg75
g267
sg68
(lp274
g61
(g70
g63
NtRp275
(dp276
g66
(dp277
g74
I3
ssg75
Nsg68
(lp278
g61
(g77
g63
NtRp279
(dp280
g66
(dp281
sg75
g275
sg68
(lp282
g61
(g82
g63
NtRp283
(dp284
g66
(dp285
g86
g87
ssg75
g279
sg68
(lp286
S'comment'
p287
asbag61
(g82
g63
NtRp288
(dp289
g66
(dp290
g93
g94
ssg75
g279
sg68
(lp291
S':'
asbag61
(g82
g63
NtRp292
(dp293
g66
(dp294
sg75
g279
sg68
(lp295
g61
(g62
g63
NtRp296
(dp297
g66
(dp298
g74
I3
ssg75
g292
sg68
(lp299
S''
asbasbasbag61
(g77
g63
NtRp300
(dp301
g66
(dp302
sg75
g275
sg68
(lp303
g61
(g82
g63
NtRp304
(dp305
g66
(dp306
g86
g87
ssg75
g300
sg68
(lp307
S'domain'
p308
asbag61
(g82
g63
NtRp309
(dp310
g66
(dp311
g93
g94
ssg75
g300
sg68
(lp312
S':'
asbag61
(g82
g63
NtRp313
(dp314
g66
(dp315
sg75
g300
sg68
(lp316
g61
(g62
g63
NtRp317
(dp318
g66
(dp319
g74
I3
ssg75
g313
sg68
(lp320
S''
asbasbasbag61
(g77
g63
NtRp321
(dp322
g66
(dp323
sg75
g275
sg68
(lp324
g61
(g82
g63
NtRp325
(dp326
g66
(dp327
g86
g87
ssg75
g321
sg68
(lp328
S'expires'
p329
asbag61
(g82
g63
NtRp330
(dp331
g66
(dp332
g93
g94
ssg75
g321
sg68
(lp333
S':'
asbag61
(g82
g63
NtRp334
(dp335
g66
(dp336
sg75
g321
sg68
(lp337
g61
(g62
g63
NtRp338
(dp339
g66
(dp340
g74
I3
ssg75
g334
sg68
(lp341
S''
asbasbasbag61
(g77
g63
NtRp342
(dp343
g66
(dp344
sg75
g275
sg68
(lp345
g61
(g82
g63
NtRp346
(dp347
g66
(dp348
g86
g87
ssg75
g342
sg68
(lp349
S'max-age'
p350
asbag61
(g82
g63
NtRp351
(dp352
g66
(dp353
g93
g94
ssg75
g342
sg68
(lp354
S':'
asbag61
(g82
g63
NtRp355
(dp356
g66
(dp357
sg75
g342
sg68
(lp358
g61
(g62
g63
NtRp359
(dp360
g66
(dp361
g74
I3
ssg75
g355
sg68
(lp362
S''
asbasbasbag61
(g77
g63
NtRp363
(dp364
g66
(dp365
sg75
g275
sg68
(lp366
g61
(g82
g63
NtRp367
(dp368
g66
(dp369
g86
g87
ssg75
g363
sg68
(lp370
S'path'
p371
asbag61
(g82
g63
NtRp372
(dp373
g66
(dp374
g93
g94
ssg75
g363
sg68
(lp375
S':'
asbag61
(g82
g63
NtRp376
(dp377
g66
(dp378
sg75
g363
sg68
(lp379
g61
(g62
g63
NtRp380
(dp381
g66
(dp382
g74
I3
ssg75
g376
sg68
(lp383
S''
asbasbasbag61
(g77
g63
NtRp384
(dp385
g66
(dp386
sg75
g275
sg68
(lp387
g61
(g82
g63
NtRp388
(dp389
g66
(dp390
g86
g87
ssg75
g384
sg68
(lp391
S'secure'
p392
asbag61
(g82
g63
NtRp393
(dp394
g66
(dp395
g93
g94
ssg75
g384
sg68
(lp396
S':'
asbag61
(g82
g63
NtRp397
(dp398
g66
(dp399
sg75
g384
sg68
(lp400
g61
(g62
g63
NtRp401
(dp402
g66
(dp403
g74
I3
ssg75
g397
sg68
(lp404
S''
asbasbasbag61
(g77
g63
NtRp405
(dp406
g66
(dp407
sg75
g275
sg68
(lp408
g61
(g82
g63
NtRp409
(dp410
g66
(dp411
g86
g87
ssg75
g405
sg68
(lp412
S'version'
p413
asbag61
(g82
g63
NtRp414
(dp415
g66
(dp416
g93
g94
ssg75
g405
sg68
(lp417
S':'
asbag61
(g82
g63
NtRp418
(dp419
g66
(dp420
sg75
g405
sg68
(lp421
g61
(g62
g63
NtRp422
(dp423
g66
(dp424
g74
I3
ssg75
g418
sg68
(lp425
S''
asbasbasbasbasbasbasbag61
(g77
g63
NtRp426
(dp427
g66
(dp428
sg75
g250
sg68
(lp429
g61
(g82
g63
NtRp430
(dp431
g66
(dp432
g86
g87
ssg75
g426
sg68
(lp433
S'session_id_unioeste_code'
p434
asbag61
(g82
g63
NtRp435
(dp436
g66
(dp437
g93
g94
ssg75
g426
sg68
(lp438
S':'
asbag61
(g82
g63
NtRp439
(dp440
g66
(dp441
sg75
g426
sg68
(lp442
g61
(g62
g63
NtRp443
(dp444
g66
(dp445
g74
I4
ssg75
g439
sg68
(lp446
g61
(g70
g63
NtRp447
(dp448
g66
(dp449
g74
I3
ssg75
Nsg68
(lp450
g61
(g77
g63
NtRp451
(dp452
g66
(dp453
sg75
g447
sg68
(lp454
g61
(g82
g63
NtRp455
(dp456
g66
(dp457
g86
g87
ssg75
g451
sg68
(lp458
g287
asbag61
(g82
g63
NtRp459
(dp460
g66
(dp461
g93
g94
ssg75
g451
sg68
(lp462
S':'
asbag61
(g82
g63
NtRp463
(dp464
g66
(dp465
sg75
g451
sg68
(lp466
g61
(g62
g63
NtRp467
(dp468
g66
(dp469
g74
I3
ssg75
g463
sg68
(lp470
S''
asbasbasbag61
(g77
g63
NtRp471
(dp472
g66
(dp473
sg75
g447
sg68
(lp474
g61
(g82
g63
NtRp475
(dp476
g66
(dp477
g86
g87
ssg75
g471
sg68
(lp478
g308
asbag61
(g82
g63
NtRp479
(dp480
g66
(dp481
g93
g94
ssg75
g471
sg68
(lp482
S':'
asbag61
(g82
g63
NtRp483
(dp484
g66
(dp485
sg75
g471
sg68
(lp486
g61
(g62
g63
NtRp487
(dp488
g66
(dp489
g74
I3
ssg75
g483
sg68
(lp490
S''
asbasbasbag61
(g77
g63
NtRp491
(dp492
g66
(dp493
sg75
g447
sg68
(lp494
g61
(g82
g63
NtRp495
(dp496
g66
(dp497
g86
g87
ssg75
g491
sg68
(lp498
g329
asbag61
(g82
g63
NtRp499
(dp500
g66
(dp501
g93
g94
ssg75
g491
sg68
(lp502
S':'
asbag61
(g82
g63
NtRp503
(dp504
g66
(dp505
sg75
g491
sg68
(lp506
g61
(g62
g63
NtRp507
(dp508
g66
(dp509
g74
I3
ssg75
g503
sg68
(lp510
S''
asbasbasbag61
(g77
g63
NtRp511
(dp512
g66
(dp513
sg75
g447
sg68
(lp514
g61
(g82
g63
NtRp515
(dp516
g66
(dp517
g86
g87
ssg75
g511
sg68
(lp518
g350
asbag61
(g82
g63
NtRp519
(dp520
g66
(dp521
g93
g94
ssg75
g511
sg68
(lp522
S':'
asbag61
(g82
g63
NtRp523
(dp524
g66
(dp525
sg75
g511
sg68
(lp526
g61
(g62
g63
NtRp527
(dp528
g66
(dp529
g74
I3
ssg75
g523
sg68
(lp530
S''
asbasbasbag61
(g77
g63
NtRp531
(dp532
g66
(dp533
sg75
g447
sg68
(lp534
g61
(g82
g63
NtRp535
(dp536
g66
(dp537
g86
g87
ssg75
g531
sg68
(lp538
g371
asbag61
(g82
g63
NtRp539
(dp540
g66
(dp541
g93
g94
ssg75
g531
sg68
(lp542
S':'
asbag61
(g82
g63
NtRp543
(dp544
g66
(dp545
sg75
g531
sg68
(lp546
g61
(g62
g63
NtRp547
(dp548
g66
(dp549
g74
I3
ssg75
g543
sg68
(lp550
S''
asbasbasbag61
(g77
g63
NtRp551
(dp552
g66
(dp553
sg75
g447
sg68
(lp554
g61
(g82
g63
NtRp555
(dp556
g66
(dp557
g86
g87
ssg75
g551
sg68
(lp558
g392
asbag61
(g82
g63
NtRp559
(dp560
g66
(dp561
g93
g94
ssg75
g551
sg68
(lp562
S':'
asbag61
(g82
g63
NtRp563
(dp564
g66
(dp565
sg75
g551
sg68
(lp566
g61
(g62
g63
NtRp567
(dp568
g66
(dp569
g74
I3
ssg75
g563
sg68
(lp570
S''
asbasbasbag61
(g77
g63
NtRp571
(dp572
g66
(dp573
sg75
g447
sg68
(lp574
g61
(g82
g63
NtRp575
(dp576
g66
(dp577
g86
g87
ssg75
g571
sg68
(lp578
g413
asbag61
(g82
g63
NtRp579
(dp580
g66
(dp581
g93
g94
ssg75
g571
sg68
(lp582
S':'
asbag61
(g82
g63
NtRp583
(dp584
g66
(dp585
sg75
g571
sg68
(lp586
g61
(g62
g63
NtRp587
(dp588
g66
(dp589
g74
I3
ssg75
g583
sg68
(lp590
S''
asbasbasbasbasbasbasbasbasbasbasbag61
(g77
g63
NtRp591
(dp592
g66
(dp593
sg75
g71
sg68
(lp594
g61
(g82
g63
NtRp595
(dp596
g66
(dp597
g86
g87
ssg75
g591
sg68
(lp598
S'env'
p599
asbag61
(g82
g63
NtRp600
(dp601
g66
(dp602
g93
g94
ssg75
g591
sg68
(lp603
S':'
asbag61
(g82
g63
NtRp604
(dp605
g66
(dp606
sg75
g591
sg68
(lp607
g61
(g62
g63
NtRp608
(dp609
g66
(dp610
g74
I5
ssg75
g604
sg68
(lp611
g61
(g70
g63
NtRp612
(dp613
g66
(dp614
g74
I4
ssg75
Nsg68
(lp615
g61
(g77
g63
NtRp616
(dp617
g66
(dp618
sg75
g612
sg68
(lp619
g61
(g82
g63
NtRp620
(dp621
g66
(dp622
g86
g87
ssg75
g616
sg68
(lp623
S'app_folders'
p624
asbag61
(g82
g63
NtRp625
(dp626
g66
(dp627
g93
g94
ssg75
g616
sg68
(lp628
S':'
asbag61
(g82
g63
NtRp629
(dp630
g66
(dp631
sg75
g616
sg68
(lp632
g61
(g62
g63
NtRp633
(dp634
g66
(dp635
g74
I4
ssg75
g629
sg68
(lp636
S"set(['C:\\\\web2py\\\\applications\\\\admin\\\\', 'C:\\\\web2py\\\\applications\\\\welcome\\\\', 'C:\\\\web2py\\\\applications\\\\unioeste_code\\\\'])"
p637
asbasbasbag61
(g77
g63
NtRp638
(dp639
g66
(dp640
sg75
g612
sg68
(lp641
g61
(g82
g63
NtRp642
(dp643
g66
(dp644
g86
g87
ssg75
g638
sg68
(lp645
S'applications_parent'
p646
asbag61
(g82
g63
NtRp647
(dp648
g66
(dp649
g93
g94
ssg75
g638
sg68
(lp650
S':'
asbag61
(g82
g63
NtRp651
(dp652
g66
(dp653
sg75
g638
sg68
(lp654
g61
(g62
g63
NtRp655
(dp656
g66
(dp657
g74
I4
ssg75
g651
sg68
(lp658
S'C:\\web2py'
p659
asbasbasbag61
(g77
g63
NtRp660
(dp661
g66
(dp662
sg75
g612
sg68
(lp663
g61
(g82
g63
NtRp664
(dp665
g66
(dp666
g86
g87
ssg75
g660
sg68
(lp667
S'cmd_args'
p668
asbag61
(g82
g63
NtRp669
(dp670
g66
(dp671
g93
g94
ssg75
g660
sg68
(lp672
S':'
asbag61
(g82
g63
NtRp673
(dp674
g66
(dp675
sg75
g660
sg68
(lp676
g61
(g62
g63
NtRp677
(dp678
g66
(dp679
g74
I4
ssg75
g673
sg68
(lp680
g61
(g70
g63
NtRp681
(dp682
g66
(dp683
g74
I3
ssg75
Nsg68
(lp684
sbasbasbasbag61
(g77
g63
NtRp685
(dp686
g66
(dp687
sg75
g612
sg68
(lp688
g61
(g82
g63
NtRp689
(dp690
g66
(dp691
g86
g87
ssg75
g685
sg68
(lp692
S'cmd_options'
p693
asbag61
(g82
g63
NtRp694
(dp695
g66
(dp696
g93
g94
ssg75
g685
sg68
(lp697
S':'
asbag61
(g82
g63
NtRp698
(dp699
g66
(dp700
sg75
g685
sg68
(lp701
g61
(g62
g63
NtRp702
(dp703
g66
(dp704
g74
I4
ssg75
g698
sg68
(lp705
S"<Values at 0x309c300: {'verbose': False, 'ip': '127.0.0.1', 'shutdown_timeout': 5, 'taskbar': False, 'nocron': False, 'pid_filename': 'httpserver.pid', 'maxthreads': None, 'softcron': False, 'server_name': 'Pedro-PC', 'bpython': False, 'nogui': False, 'port': 8000, 'extcron': False, 'debuglevel': 30, 'test': None, 'folder': 'C:\\\\web2py', 'config': '', 'import_models': False, 'winservice': '', 'shell': None, 'run': '', 'log_filename': 'httpserver.log', 'args': [''], 'socket_timeout': 5, 'ssl_ca_certificate': None, 'scheduler': None, 'profiler_filename': None, 'ssl_private_key': '', 'password': '<ask>', 'request_queue_size': 5, 'ssl_certificate': '', 'cronjob': False, 'numthreads': None, 'quiet': False, 'interfaces': None, 'minthreads': None, 'timeout': 10, 'plain': False, 'nobanner': False}>"
p706
asbasbasbag61
(g77
g63
NtRp707
(dp708
g66
(dp709
sg75
g612
sg68
(lp710
g61
(g82
g63
NtRp711
(dp712
g66
(dp713
g86
g87
ssg75
g707
sg68
(lp714
S'db_sessions'
p715
asbag61
(g82
g63
NtRp716
(dp717
g66
(dp718
g93
g94
ssg75
g707
sg68
(lp719
S':'
asbag61
(g82
g63
NtRp720
(dp721
g66
(dp722
sg75
g707
sg68
(lp723
g61
(g62
g63
NtRp724
(dp725
g66
(dp726
g74
I4
ssg75
g720
sg68
(lp727
S'set([])'
p728
asbasbasbag61
(g77
g63
NtRp729
(dp730
g66
(dp731
sg75
g612
sg68
(lp732
g61
(g82
g63
NtRp733
(dp734
g66
(dp735
g86
g87
ssg75
g729
sg68
(lp736
S'debugging'
p737
asbag61
(g82
g63
NtRp738
(dp739
g66
(dp740
g93
g94
ssg75
g729
sg68
(lp741
S':'
asbag61
(g82
g63
NtRp742
(dp743
g66
(dp744
sg75
g729
sg68
(lp745
g61
(g62
g63
NtRp746
(dp747
g66
(dp748
g74
I4
ssg75
g742
sg68
(lp749
g104
asbasbasbag61
(g77
g63
NtRp750
(dp751
g66
(dp752
sg75
g612
sg68
(lp753
g61
(g82
g63
NtRp754
(dp755
g66
(dp756
g86
g87
ssg75
g750
sg68
(lp757
S'gluon_parent'
p758
asbag61
(g82
g63
NtRp759
(dp760
g66
(dp761
g93
g94
ssg75
g750
sg68
(lp762
S':'
asbag61
(g82
g63
NtRp763
(dp764
g66
(dp765
sg75
g750
sg68
(lp766
g61
(g62
g63
NtRp767
(dp768
g66
(dp769
g74
I4
ssg75
g763
sg68
(lp770
S'C:\\web2py'
p771
asbasbasbag61
(g77
g63
NtRp772
(dp773
g66
(dp774
sg75
g612
sg68
(lp775
g61
(g82
g63
NtRp776
(dp777
g66
(dp778
g86
g87
ssg75
g772
sg68
(lp779
S'http_accept'
p780
asbag61
(g82
g63
NtRp781
(dp782
g66
(dp783
g93
g94
ssg75
g772
sg68
(lp784
S':'
asbag61
(g82
g63
NtRp785
(dp786
g66
(dp787
sg75
g772
sg68
(lp788
g61
(g62
g63
NtRp789
(dp790
g66
(dp791
g74
I4
ssg75
g785
sg68
(lp792
S'text/html,application/xhtml+xml,application/xml;q=0.9,*/*;q=0.8'
p793
asbasbasbag61
(g77
g63
NtRp794
(dp795
g66
(dp796
sg75
g612
sg68
(lp797
g61
(g82
g63
NtRp798
(dp799
g66
(dp800
g86
g87
ssg75
g794
sg68
(lp801
S'http_accept_charset'
p802
asbag61
(g82
g63
NtRp803
(dp804
g66
(dp805
g93
g94
ssg75
g794
sg68
(lp806
S':'
asbag61
(g82
g63
NtRp807
(dp808
g66
(dp809
sg75
g794
sg68
(lp810
g61
(g62
g63
NtRp811
(dp812
g66
(dp813
g74
I4
ssg75
g807
sg68
(lp814
S'ISO-8859-1,utf-8;q=0.7,*;q=0.3'
p815
asbasbasbag61
(g77
g63
NtRp816
(dp817
g66
(dp818
sg75
g612
sg68
(lp819
g61
(g82
g63
NtRp820
(dp821
g66
(dp822
g86
g87
ssg75
g816
sg68
(lp823
S'http_accept_encoding'
p824
asbag61
(g82
g63
NtRp825
(dp826
g66
(dp827
g93
g94
ssg75
g816
sg68
(lp828
S':'
asbag61
(g82
g63
NtRp829
(dp830
g66
(dp831
sg75
g816
sg68
(lp832
g61
(g62
g63
NtRp833
(dp834
g66
(dp835
g74
I4
ssg75
g829
sg68
(lp836
S'gzip,deflate,sdch'
p837
asbasbasbag61
(g77
g63
NtRp838
(dp839
g66
(dp840
sg75
g612
sg68
(lp841
g61
(g82
g63
NtRp842
(dp843
g66
(dp844
g86
g87
ssg75
g838
sg68
(lp845
S'http_accept_language'
p846
asbag61
(g82
g63
NtRp847
(dp848
g66
(dp849
g93
g94
ssg75
g838
sg68
(lp850
S':'
asbag61
(g82
g63
NtRp851
(dp852
g66
(dp853
sg75
g838
sg68
(lp854
g61
(g62
g63
NtRp855
(dp856
g66
(dp857
g74
I4
ssg75
g851
sg68
(lp858
S'pt-BR,pt;q=0.8,en-US;q=0.6,en;q=0.4'
p859
asbasbasbag61
(g77
g63
NtRp860
(dp861
g66
(dp862
sg75
g612
sg68
(lp863
g61
(g82
g63
NtRp864
(dp865
g66
(dp866
g86
g87
ssg75
g860
sg68
(lp867
S'http_cache_control'
p868
asbag61
(g82
g63
NtRp869
(dp870
g66
(dp871
g93
g94
ssg75
g860
sg68
(lp872
S':'
asbag61
(g82
g63
NtRp873
(dp874
g66
(dp875
sg75
g860
sg68
(lp876
g61
(g62
g63
NtRp877
(dp878
g66
(dp879
g74
I4
ssg75
g873
sg68
(lp880
S'max-age=0'
p881
asbasbasbag61
(g77
g63
NtRp882
(dp883
g66
(dp884
sg75
g612
sg68
(lp885
g61
(g82
g63
NtRp886
(dp887
g66
(dp888
g86
g87
ssg75
g882
sg68
(lp889
S'http_connection'
p890
asbag61
(g82
g63
NtRp891
(dp892
g66
(dp893
g93
g94
ssg75
g882
sg68
(lp894
S':'
asbag61
(g82
g63
NtRp895
(dp896
g66
(dp897
sg75
g882
sg68
(lp898
g61
(g62
g63
NtRp899
(dp900
g66
(dp901
g74
I4
ssg75
g895
sg68
(lp902
S'keep-alive'
p903
asbasbasbag61
(g77
g63
NtRp904
(dp905
g66
(dp906
sg75
g612
sg68
(lp907
g61
(g82
g63
NtRp908
(dp909
g66
(dp910
g86
g87
ssg75
g904
sg68
(lp911
S'http_cookie'
p912
asbag61
(g82
g63
NtRp913
(dp914
g66
(dp915
g93
g94
ssg75
g904
sg68
(lp916
S':'
asbag61
(g82
g63
NtRp917
(dp918
g66
(dp919
sg75
g904
sg68
(lp920
g61
(g62
g63
NtRp921
(dp922
g66
(dp923
g74
I4
ssg75
g917
sg68
(lp924
S'session_id_admin=127.0.0.1-5b5708ff-f236-440a-9e31-904908de9b24; session_id_unioeste_code=127.0.0.1-ac0e57bf-2a61-4ff7-b75a-c2e830b4787a'
p925
asbasbasbag61
(g77
g63
NtRp926
(dp927
g66
(dp928
sg75
g612
sg68
(lp929
g61
(g82
g63
NtRp930
(dp931
g66
(dp932
g86
g87
ssg75
g926
sg68
(lp933
S'http_dnt'
p934
asbag61
(g82
g63
NtRp935
(dp936
g66
(dp937
g93
g94
ssg75
g926
sg68
(lp938
S':'
asbag61
(g82
g63
NtRp939
(dp940
g66
(dp941
sg75
g926
sg68
(lp942
g61
(g62
g63
NtRp943
(dp944
g66
(dp945
g74
I4
ssg75
g939
sg68
(lp946
S'1'
asbasbasbag61
(g77
g63
NtRp947
(dp948
g66
(dp949
sg75
g612
sg68
(lp950
g61
(g82
g63
NtRp951
(dp952
g66
(dp953
g86
g87
ssg75
g947
sg68
(lp954
S'http_host'
p955
asbag61
(g82
g63
NtRp956
(dp957
g66
(dp958
g93
g94
ssg75
g947
sg68
(lp959
S':'
asbag61
(g82
g63
NtRp960
(dp961
g66
(dp962
sg75
g947
sg68
(lp963
g61
(g62
g63
NtRp964
(dp965
g66
(dp966
g74
I4
ssg75
g960
sg68
(lp967
S'localhost:8000'
p968
asbasbasbag61
(g77
g63
NtRp969
(dp970
g66
(dp971
sg75
g612
sg68
(lp972
g61
(g82
g63
NtRp973
(dp974
g66
(dp975
g86
g87
ssg75
g969
sg68
(lp976
S'http_user_agent'
p977
asbag61
(g82
g63
NtRp978
(dp979
g66
(dp980
g93
g94
ssg75
g969
sg68
(lp981
S':'
asbag61
(g82
g63
NtRp982
(dp983
g66
(dp984
sg75
g969
sg68
(lp985
g61
(g62
g63
NtRp986
(dp987
g66
(dp988
g74
I4
ssg75
g982
sg68
(lp989
S'Mozilla/5.0 (Windows NT 6.1; WOW64) AppleWebKit/536.11 (KHTML, like Gecko) Chrome/20.0.1132.57 Safari/536.11'
p990
asbasbasbag61
(g77
g63
NtRp991
(dp992
g66
(dp993
sg75
g612
sg68
(lp994
g61
(g82
g63
NtRp995
(dp996
g66
(dp997
g86
g87
ssg75
g991
sg68
(lp998
S'is_jython'
p999
asbag61
(g82
g63
NtRp1000
(dp1001
g66
(dp1002
g93
g94
ssg75
g991
sg68
(lp1003
S':'
asbag61
(g82
g63
NtRp1004
(dp1005
g66
(dp1006
sg75
g991
sg68
(lp1007
g61
(g62
g63
NtRp1008
(dp1009
g66
(dp1010
g74
I4
ssg75
g1004
sg68
(lp1011
g104
asbasbasbag61
(g77
g63
NtRp1012
(dp1013
g66
(dp1014
sg75
g612
sg68
(lp1015
g61
(g82
g63
NtRp1016
(dp1017
g66
(dp1018
g86
g87
ssg75
g1012
sg68
(lp1019
S'is_pypy'
p1020
asbag61
(g82
g63
NtRp1021
(dp1022
g66
(dp1023
g93
g94
ssg75
g1012
sg68
(lp1024
S':'
asbag61
(g82
g63
NtRp1025
(dp1026
g66
(dp1027
sg75
g1012
sg68
(lp1028
g61
(g62
g63
NtRp1029
(dp1030
g66
(dp1031
g74
I4
ssg75
g1025
sg68
(lp1032
g104
asbasbasbag61
(g77
g63
NtRp1033
(dp1034
g66
(dp1035
sg75
g612
sg68
(lp1036
g61
(g82
g63
NtRp1037
(dp1038
g66
(dp1039
g86
g87
ssg75
g1033
sg68
(lp1040
S'path_info'
p1041
asbag61
(g82
g63
NtRp1042
(dp1043
g66
(dp1044
g93
g94
ssg75
g1033
sg68
(lp1045
S':'
asbag61
(g82
g63
NtRp1046
(dp1047
g66
(dp1048
sg75
g1033
sg68
(lp1049
g61
(g62
g63
NtRp1050
(dp1051
g66
(dp1052
g74
I4
ssg75
g1046
sg68
(lp1053
S'/unioeste_code/default/Code/2'
p1054
asbasbasbag61
(g77
g63
NtRp1055
(dp1056
g66
(dp1057
sg75
g612
sg68
(lp1058
g61
(g82
g63
NtRp1059
(dp1060
g66
(dp1061
g86
g87
ssg75
g1055
sg68
(lp1062
S'query_string'
p1063
asbag61
(g82
g63
NtRp1064
(dp1065
g66
(dp1066
g93
g94
ssg75
g1055
sg68
(lp1067
S':'
asbag61
(g82
g63
NtRp1068
(dp1069
g66
(dp1070
sg75
g1055
sg68
(lp1071
g61
(g62
g63
NtRp1072
(dp1073
g66
(dp1074
g74
I4
ssg75
g1068
sg68
(lp1075
S''
asbasbasbag61
(g77
g63
NtRp1076
(dp1077
g66
(dp1078
sg75
g612
sg68
(lp1079
g61
(g82
g63
NtRp1080
(dp1081
g66
(dp1082
g86
g87
ssg75
g1076
sg68
(lp1083
S'remote_addr'
p1084
asbag61
(g82
g63
NtRp1085
(dp1086
g66
(dp1087
g93
g94
ssg75
g1076
sg68
(lp1088
S':'
asbag61
(g82
g63
NtRp1089
(dp1090
g66
(dp1091
sg75
g1076
sg68
(lp1092
g61
(g62
g63
NtRp1093
(dp1094
g66
(dp1095
g74
I4
ssg75
g1089
sg68
(lp1096
g206
asbasbasbag61
(g77
g63
NtRp1097
(dp1098
g66
(dp1099
sg75
g612
sg68
(lp1100
g61
(g82
g63
NtRp1101
(dp1102
g66
(dp1103
g86
g87
ssg75
g1097
sg68
(lp1104
S'remote_port'
p1105
asbag61
(g82
g63
NtRp1106
(dp1107
g66
(dp1108
g93
g94
ssg75
g1097
sg68
(lp1109
S':'
asbag61
(g82
g63
NtRp1110
(dp1111
g66
(dp1112
sg75
g1097
sg68
(lp1113
g61
(g62
g63
NtRp1114
(dp1115
g66
(dp1116
g74
I4
ssg75
g1110
sg68
(lp1117
S'10454'
p1118
asbasbasbag61
(g77
g63
NtRp1119
(dp1120
g66
(dp1121
sg75
g612
sg68
(lp1122
g61
(g82
g63
NtRp1123
(dp1124
g66
(dp1125
g86
g87
ssg75
g1119
sg68
(lp1126
S'request_method'
p1127
asbag61
(g82
g63
NtRp1128
(dp1129
g66
(dp1130
g93
g94
ssg75
g1119
sg68
(lp1131
S':'
asbag61
(g82
g63
NtRp1132
(dp1133
g66
(dp1134
sg75
g1119
sg68
(lp1135
g61
(g62
g63
NtRp1136
(dp1137
g66
(dp1138
g74
I4
ssg75
g1132
sg68
(lp1139
S'GET'
p1140
asbasbasbag61
(g77
g63
NtRp1141
(dp1142
g66
(dp1143
sg75
g612
sg68
(lp1144
g61
(g82
g63
NtRp1145
(dp1146
g66
(dp1147
g86
g87
ssg75
g1141
sg68
(lp1148
S'script_name'
p1149
asbag61
(g82
g63
NtRp1150
(dp1151
g66
(dp1152
g93
g94
ssg75
g1141
sg68
(lp1153
S':'
asbag61
(g82
g63
NtRp1154
(dp1155
g66
(dp1156
sg75
g1141
sg68
(lp1157
g61
(g62
g63
NtRp1158
(dp1159
g66
(dp1160
g74
I4
ssg75
g1154
sg68
(lp1161
S''
asbasbasbag61
(g77
g63
NtRp1162
(dp1163
g66
(dp1164
sg75
g612
sg68
(lp1165
g61
(g82
g63
NtRp1166
(dp1167
g66
(dp1168
g86
g87
ssg75
g1162
sg68
(lp1169
S'server_name'
p1170
asbag61
(g82
g63
NtRp1171
(dp1172
g66
(dp1173
g93
g94
ssg75
g1162
sg68
(lp1174
S':'
asbag61
(g82
g63
NtRp1175
(dp1176
g66
(dp1177
sg75
g1162
sg68
(lp1178
g61
(g62
g63
NtRp1179
(dp1180
g66
(dp1181
g74
I4
ssg75
g1175
sg68
(lp1182
S'Pedro-PC'
p1183
asbasbasbag61
(g77
g63
NtRp1184
(dp1185
g66
(dp1186
sg75
g612
sg68
(lp1187
g61
(g82
g63
NtRp1188
(dp1189
g66
(dp1190
g86
g87
ssg75
g1184
sg68
(lp1191
S'server_port'
p1192
asbag61
(g82
g63
NtRp1193
(dp1194
g66
(dp1195
g93
g94
ssg75
g1184
sg68
(lp1196
S':'
asbag61
(g82
g63
NtRp1197
(dp1198
g66
(dp1199
sg75
g1184
sg68
(lp1200
g61
(g62
g63
NtRp1201
(dp1202
g66
(dp1203
g74
I4
ssg75
g1197
sg68
(lp1204
S'8000'
p1205
asbasbasbag61
(g77
g63
NtRp1206
(dp1207
g66
(dp1208
sg75
g612
sg68
(lp1209
g61
(g82
g63
NtRp1210
(dp1211
g66
(dp1212
g86
g87
ssg75
g1206
sg68
(lp1213
S'server_protocol'
p1214
asbag61
(g82
g63
NtRp1215
(dp1216
g66
(dp1217
g93
g94
ssg75
g1206
sg68
(lp1218
S':'
asbag61
(g82
g63
NtRp1219
(dp1220
g66
(dp1221
sg75
g1206
sg68
(lp1222
g61
(g62
g63
NtRp1223
(dp1224
g66
(dp1225
g74
I4
ssg75
g1219
sg68
(lp1226
S'HTTP/1.1'
p1227
asbasbasbag61
(g77
g63
NtRp1228
(dp1229
g66
(dp1230
sg75
g612
sg68
(lp1231
g61
(g82
g63
NtRp1232
(dp1233
g66
(dp1234
g86
g87
ssg75
g1228
sg68
(lp1235
S'server_software'
p1236
asbag61
(g82
g63
NtRp1237
(dp1238
g66
(dp1239
g93
g94
ssg75
g1228
sg68
(lp1240
S':'
asbag61
(g82
g63
NtRp1241
(dp1242
g66
(dp1243
sg75
g1228
sg68
(lp1244
g61
(g62
g63
NtRp1245
(dp1246
g66
(dp1247
g74
I4
ssg75
g1241
sg68
(lp1248
S'Rocket 1.2.4'
p1249
asbasbasbag61
(g77
g63
NtRp1250
(dp1251
g66
(dp1252
sg75
g612
sg68
(lp1253
g61
(g82
g63
NtRp1254
(dp1255
g66
(dp1256
g86
g87
ssg75
g1250
sg68
(lp1257
S'web2py_crontype'
p1258
asbag61
(g82
g63
NtRp1259
(dp1260
g66
(dp1261
g93
g94
ssg75
g1250
sg68
(lp1262
S':'
asbag61
(g82
g63
NtRp1263
(dp1264
g66
(dp1265
sg75
g1250
sg68
(lp1266
g61
(g62
g63
NtRp1267
(dp1268
g66
(dp1269
g74
I4
ssg75
g1263
sg68
(lp1270
S'hard'
p1271
asbasbasbag61
(g77
g63
NtRp1272
(dp1273
g66
(dp1274
sg75
g612
sg68
(lp1275
g61
(g82
g63
NtRp1276
(dp1277
g66
(dp1278
g86
g87
ssg75
g1272
sg68
(lp1279
S'web2py_path'
p1280
asbag61
(g82
g63
NtRp1281
(dp1282
g66
(dp1283
g93
g94
ssg75
g1272
sg68
(lp1284
S':'
asbag61
(g82
g63
NtRp1285
(dp1286
g66
(dp1287
sg75
g1272
sg68
(lp1288
g61
(g62
g63
NtRp1289
(dp1290
g66
(dp1291
g74
I4
ssg75
g1285
sg68
(lp1292
g659
asbasbasbag61
(g77
g63
NtRp1293
(dp1294
g66
(dp1295
sg75
g612
sg68
(lp1296
g61
(g82
g63
NtRp1297
(dp1298
g66
(dp1299
g86
g87
ssg75
g1293
sg68
(lp1300
S'web2py_version'
p1301
asbag61
(g82
g63
NtRp1302
(dp1303
g66
(dp1304
g93
g94
ssg75
g1293
sg68
(lp1305
S':'
asbag61
(g82
g63
NtRp1306
(dp1307
g66
(dp1308
sg75
g1293
sg68
(lp1309
g61
(g62
g63
NtRp1310
(dp1311
g66
(dp1312
g74
I4
ssg75
g1306
sg68
(lp1313
g61
(g70
g63
NtRp1314
(dp1315
g66
(dp1316
g74
I3
ssg75
Nsg68
(lp1317
g61
(g77
g63
NtRp1318
(dp1319
g66
(dp1320
sg75
g1314
sg68
(lp1321
g61
(g82
g63
NtRp1322
(dp1323
g66
(dp1324
sg75
g1318
sg68
(lp1325
g61
(g62
g63
NtRp1326
(dp1327
g66
(dp1328
g74
I3
ssg75
g1322
sg68
(lp1329
S'1'
asbasbasbag61
(g77
g63
NtRp1330
(dp1331
g66
(dp1332
sg75
g1314
sg68
(lp1333
g61
(g82
g63
NtRp1334
(dp1335
g66
(dp1336
sg75
g1330
sg68
(lp1337
g61
(g62
g63
NtRp1338
(dp1339
g66
(dp1340
g74
I3
ssg75
g1334
sg68
(lp1341
S'99'
p1342
asbasbasbag61
(g77
g63
NtRp1343
(dp1344
g66
(dp1345
sg75
g1314
sg68
(lp1346
g61
(g82
g63
NtRp1347
(dp1348
g66
(dp1349
sg75
g1343
sg68
(lp1350
g61
(g62
g63
NtRp1351
(dp1352
g66
(dp1353
g74
I3
ssg75
g1347
sg68
(lp1354
S'7'
asbasbasbag61
(g77
g63
NtRp1355
(dp1356
g66
(dp1357
sg75
g1314
sg68
(lp1358
g61
(g82
g63
NtRp1359
(dp1360
g66
(dp1361
sg75
g1355
sg68
(lp1362
g61
(g62
g63
NtRp1363
(dp1364
g66
(dp1365
g74
I3
ssg75
g1359
sg68
(lp1366
S'datetime.datetime(2012, 3, 4, 22, 12, 8)'
p1367
asbasbasbag61
(g77
g63
NtRp1368
(dp1369
g66
(dp1370
sg75
g1314
sg68
(lp1371
g61
(g82
g63
NtRp1372
(dp1373
g66
(dp1374
sg75
g1368
sg68
(lp1375
g61
(g62
g63
NtRp1376
(dp1377
g66
(dp1378
g74
I3
ssg75
g1372
sg68
(lp1379
S'stable'
p1380
asbasbasbasbasbasbasbag61
(g77
g63
NtRp1381
(dp1382
g66
(dp1383
sg75
g612
sg68
(lp1384
g61
(g82
g63
NtRp1385
(dp1386
g66
(dp1387
g86
g87
ssg75
g1381
sg68
(lp1388
S'wsgi_errors'
p1389
asbag61
(g82
g63
NtRp1390
(dp1391
g66
(dp1392
g93
g94
ssg75
g1381
sg68
(lp1393
S':'
asbag61
(g82
g63
NtRp1394
(dp1395
g66
(dp1396
sg75
g1381
sg68
(lp1397
g61
(g62
g63
NtRp1398
(dp1399
g66
(dp1400
g74
I4
ssg75
g1394
sg68
(lp1401
S'<__main__.Stderr object at 0x00486670>'
p1402
asbasbasbag61
(g77
g63
NtRp1403
(dp1404
g66
(dp1405
sg75
g612
sg68
(lp1406
g61
(g82
g63
NtRp1407
(dp1408
g66
(dp1409
g86
g87
ssg75
g1403
sg68
(lp1410
S'wsgi_file_wrapper'
p1411
asbag61
(g82
g63
NtRp1412
(dp1413
g66
(dp1414
g93
g94
ssg75
g1403
sg68
(lp1415
S':'
asbag61
(g82
g63
NtRp1416
(dp1417
g66
(dp1418
sg75
g1403
sg68
(lp1419
g61
(g62
g63
NtRp1420
(dp1421
g66
(dp1422
g74
I4
ssg75
g1416
sg68
(lp1423
S'<class wsgiref.util.FileWrapper at 0x02E8DE10>'
p1424
asbasbasbag61
(g77
g63
NtRp1425
(dp1426
g66
(dp1427
sg75
g612
sg68
(lp1428
g61
(g82
g63
NtRp1429
(dp1430
g66
(dp1431
g86
g87
ssg75
g1425
sg68
(lp1432
S'wsgi_input'
p1433
asbag61
(g82
g63
NtRp1434
(dp1435
g66
(dp1436
g93
g94
ssg75
g1425
sg68
(lp1437
S':'
asbag61
(g82
g63
NtRp1438
(dp1439
g66
(dp1440
sg75
g1425
sg68
(lp1441
g61
(g62
g63
NtRp1442
(dp1443
g66
(dp1444
g74
I4
ssg75
g1438
sg68
(lp1445
S'<socket._fileobject object at 0x06AE30F0>'
p1446
asbasbasbag61
(g77
g63
NtRp1447
(dp1448
g66
(dp1449
sg75
g612
sg68
(lp1450
g61
(g82
g63
NtRp1451
(dp1452
g66
(dp1453
g86
g87
ssg75
g1447
sg68
(lp1454
S'wsgi_multiprocess'
p1455
asbag61
(g82
g63
NtRp1456
(dp1457
g66
(dp1458
g93
g94
ssg75
g1447
sg68
(lp1459
S':'
asbag61
(g82
g63
NtRp1460
(dp1461
g66
(dp1462
sg75
g1447
sg68
(lp1463
g61
(g62
g63
NtRp1464
(dp1465
g66
(dp1466
g74
I4
ssg75
g1460
sg68
(lp1467
g104
asbasbasbag61
(g77
g63
NtRp1468
(dp1469
g66
(dp1470
sg75
g612
sg68
(lp1471
g61
(g82
g63
NtRp1472
(dp1473
g66
(dp1474
g86
g87
ssg75
g1468
sg68
(lp1475
S'wsgi_multithread'
p1476
asbag61
(g82
g63
NtRp1477
(dp1478
g66
(dp1479
g93
g94
ssg75
g1468
sg68
(lp1480
S':'
asbag61
(g82
g63
NtRp1481
(dp1482
g66
(dp1483
sg75
g1468
sg68
(lp1484
g61
(g62
g63
NtRp1485
(dp1486
g66
(dp1487
g74
I4
ssg75
g1481
sg68
(lp1488
S'True'
p1489
asbasbasbag61
(g77
g63
NtRp1490
(dp1491
g66
(dp1492
sg75
g612
sg68
(lp1493
g61
(g82
g63
NtRp1494
(dp1495
g66
(dp1496
g86
g87
ssg75
g1490
sg68
(lp1497
S'wsgi_run_once'
p1498
asbag61
(g82
g63
NtRp1499
(dp1500
g66
(dp1501
g93
g94
ssg75
g1490
sg68
(lp1502
S':'
asbag61
(g82
g63
NtRp1503
(dp1504
g66
(dp1505
sg75
g1490
sg68
(lp1506
g61
(g62
g63
NtRp1507
(dp1508
g66
(dp1509
g74
I4
ssg75
g1503
sg68
(lp1510
g104
asbasbasbag61
(g77
g63
NtRp1511
(dp1512
g66
(dp1513
sg75
g612
sg68
(lp1514
g61
(g82
g63
NtRp1515
(dp1516
g66
(dp1517
g86
g87
ssg75
g1511
sg68
(lp1518
S'wsgi_url_scheme'
p1519
asbag61
(g82
g63
NtRp1520
(dp1521
g66
(dp1522
g93
g94
ssg75
g1511
sg68
(lp1523
S':'
asbag61
(g82
g63
NtRp1524
(dp1525
g66
(dp1526
sg75
g1511
sg68
(lp1527
g61
(g62
g63
NtRp1528
(dp1529
g66
(dp1530
g74
I4
ssg75
g1524
sg68
(lp1531
S'http'
p1532
asbasbasbag61
(g77
g63
NtRp1533
(dp1534
g66
(dp1535
sg75
g612
sg68
(lp1536
g61
(g82
g63
NtRp1537
(dp1538
g66
(dp1539
g86
g87
ssg75
g1533
sg68
(lp1540
S'wsgi_version'
p1541
asbag61
(g82
g63
NtRp1542
(dp1543
g66
(dp1544
g93
g94
ssg75
g1533
sg68
(lp1545
S':'
asbag61
(g82
g63
NtRp1546
(dp1547
g66
(dp1548
sg75
g1533
sg68
(lp1549
g61
(g62
g63
NtRp1550
(dp1551
g66
(dp1552
g74
I4
ssg75
g1546
sg68
(lp1553
g61
(g70
g63
NtRp1554
(dp1555
g66
(dp1556
g74
I3
ssg75
Nsg68
(lp1557
g61
(g77
g63
NtRp1558
(dp1559
g66
(dp1560
sg75
g1554
sg68
(lp1561
g61
(g82
g63
NtRp1562
(dp1563
g66
(dp1564
sg75
g1558
sg68
(lp1565
g61
(g62
g63
NtRp1566
(dp1567
g66
(dp1568
g74
I3
ssg75
g1562
sg68
(lp1569
S'1'
asbasbasbag61
(g77
g63
NtRp1570
(dp1571
g66
(dp1572
sg75
g1554
sg68
(lp1573
g61
(g82
g63
NtRp1574
(dp1575
g66
(dp1576
sg75
g1570
sg68
(lp1577
g61
(g62
g63
NtRp1578
(dp1579
g66
(dp1580
g74
I3
ssg75
g1574
sg68
(lp1581
S'0'
asbasbasbasbasbasbasbasbasbasbasbag61
(g77
g63
NtRp1582
(dp1583
g66
(dp1584
sg75
g71
sg68
(lp1585
g61
(g82
g63
NtRp1586
(dp1587
g66
(dp1588
g86
g87
ssg75
g1582
sg68
(lp1589
S'extension'
p1590
asbag61
(g82
g63
NtRp1591
(dp1592
g66
(dp1593
g93
g94
ssg75
g1582
sg68
(lp1594
S':'
asbag61
(g82
g63
NtRp1595
(dp1596
g66
(dp1597
sg75
g1582
sg68
(lp1598
g61
(g62
g63
NtRp1599
(dp1600
g66
(dp1601
g74
I5
ssg75
g1595
sg68
(lp1602
S'html'
p1603
asbasbasbag61
(g77
g63
NtRp1604
(dp1605
g66
(dp1606
sg75
g71
sg68
(lp1607
g61
(g82
g63
NtRp1608
(dp1609
g66
(dp1610
g86
g87
ssg75
g1604
sg68
(lp1611
S'folder'
p1612
asbag61
(g82
g63
NtRp1613
(dp1614
g66
(dp1615
g93
g94
ssg75
g1604
sg68
(lp1616
S':'
asbag61
(g82
g63
NtRp1617
(dp1618
g66
(dp1619
sg75
g1604
sg68
(lp1620
g61
(g62
g63
NtRp1621
(dp1622
g66
(dp1623
g74
I5
ssg75
g1617
sg68
(lp1624
S'C:\\web2py\\applications\\unioeste_code\\'
p1625
asbasbasbag61
(g77
g63
NtRp1626
(dp1627
g66
(dp1628
sg75
g71
sg68
(lp1629
g61
(g82
g63
NtRp1630
(dp1631
g66
(dp1632
g86
g87
ssg75
g1626
sg68
(lp1633
S'function'
p1634
asbag61
(g82
g63
NtRp1635
(dp1636
g66
(dp1637
g93
g94
ssg75
g1626
sg68
(lp1638
S':'
asbag61
(g82
g63
NtRp1639
(dp1640
g66
(dp1641
sg75
g1626
sg68
(lp1642
g61
(g62
g63
NtRp1643
(dp1644
g66
(dp1645
g74
I5
ssg75
g1639
sg68
(lp1646
S'Code'
p1647
asbasbasbag61
(g77
g63
NtRp1648
(dp1649
g66
(dp1650
sg75
g71
sg68
(lp1651
g61
(g82
g63
NtRp1652
(dp1653
g66
(dp1654
g86
g87
ssg75
g1648
sg68
(lp1655
S'get_vars'
p1656
asbag61
(g82
g63
NtRp1657
(dp1658
g66
(dp1659
g93
g94
ssg75
g1648
sg68
(lp1660
S':'
asbag61
(g82
g63
NtRp1661
(dp1662
g66
(dp1663
sg75
g1648
sg68
(lp1664
g61
(g62
g63
NtRp1665
(dp1666
g66
(dp1667
g74
I5
ssg75
g1661
sg68
(lp1668
g61
(g70
g63
NtRp1669
(dp1670
g66
(dp1671
g74
I4
ssg75
Nsg68
(lp1672
sbasbasbasbag61
(g77
g63
NtRp1673
(dp1674
g66
(dp1675
sg75
g71
sg68
(lp1676
g61
(g82
g63
NtRp1677
(dp1678
g66
(dp1679
g86
g87
ssg75
g1673
sg68
(lp1680
S'global_settings'
p1681
asbag61
(g82
g63
NtRp1682
(dp1683
g66
(dp1684
g93
g94
ssg75
g1673
sg68
(lp1685
S':'
asbag61
(g82
g63
NtRp1686
(dp1687
g66
(dp1688
sg75
g1673
sg68
(lp1689
g61
(g62
g63
NtRp1690
(dp1691
g66
(dp1692
g74
I5
ssg75
g1686
sg68
(lp1693
g61
(g70
g63
NtRp1694
(dp1695
g66
(dp1696
g74
I4
ssg75
Nsg68
(lp1697
g61
(g77
g63
NtRp1698
(dp1699
g66
(dp1700
sg75
g1694
sg68
(lp1701
g61
(g82
g63
NtRp1702
(dp1703
g66
(dp1704
g86
g87
ssg75
g1698
sg68
(lp1705
g624
asbag61
(g82
g63
NtRp1706
(dp1707
g66
(dp1708
g93
g94
ssg75
g1698
sg68
(lp1709
S':'
asbag61
(g82
g63
NtRp1710
(dp1711
g66
(dp1712
sg75
g1698
sg68
(lp1713
g61
(g62
g63
NtRp1714
(dp1715
g66
(dp1716
g74
I4
ssg75
g1710
sg68
(lp1717
S"set(['C:\\\\web2py\\\\applications\\\\admin\\\\', 'C:\\\\web2py\\\\applications\\\\welcome\\\\', 'C:\\\\web2py\\\\applications\\\\unioeste_code\\\\'])"
p1718
asbasbasbag61
(g77
g63
NtRp1719
(dp1720
g66
(dp1721
sg75
g1694
sg68
(lp1722
g61
(g82
g63
NtRp1723
(dp1724
g66
(dp1725
g86
g87
ssg75
g1719
sg68
(lp1726
g646
asbag61
(g82
g63
NtRp1727
(dp1728
g66
(dp1729
g93
g94
ssg75
g1719
sg68
(lp1730
S':'
asbag61
(g82
g63
NtRp1731
(dp1732
g66
(dp1733
sg75
g1719
sg68
(lp1734
g61
(g62
g63
NtRp1735
(dp1736
g66
(dp1737
g74
I4
ssg75
g1731
sg68
(lp1738
g659
asbasbasbag61
(g77
g63
NtRp1739
(dp1740
g66
(dp1741
sg75
g1694
sg68
(lp1742
g61
(g82
g63
NtRp1743
(dp1744
g66
(dp1745
g86
g87
ssg75
g1739
sg68
(lp1746
g668
asbag61
(g82
g63
NtRp1747
(dp1748
g66
(dp1749
g93
g94
ssg75
g1739
sg68
(lp1750
S':'
asbag61
(g82
g63
NtRp1751
(dp1752
g66
(dp1753
sg75
g1739
sg68
(lp1754
g61
(g62
g63
NtRp1755
(dp1756
g66
(dp1757
g74
I4
ssg75
g1751
sg68
(lp1758
g61
(g70
g63
NtRp1759
(dp1760
g66
(dp1761
g74
I3
ssg75
Nsg68
(lp1762
sbasbasbasbag61
(g77
g63
NtRp1763
(dp1764
g66
(dp1765
sg75
g1694
sg68
(lp1766
g61
(g82
g63
NtRp1767
(dp1768
g66
(dp1769
g86
g87
ssg75
g1763
sg68
(lp1770
g693
asbag61
(g82
g63
NtRp1771
(dp1772
g66
(dp1773
g93
g94
ssg75
g1763
sg68
(lp1774
S':'
asbag61
(g82
g63
NtRp1775
(dp1776
g66
(dp1777
sg75
g1763
sg68
(lp1778
g61
(g62
g63
NtRp1779
(dp1780
g66
(dp1781
g74
I4
ssg75
g1775
sg68
(lp1782
S"<Values at 0x309c300: {'verbose': False, 'ip': '127.0.0.1', 'shutdown_timeout': 5, 'taskbar': False, 'nocron': False, 'pid_filename': 'httpserver.pid', 'maxthreads': None, 'softcron': False, 'server_name': 'Pedro-PC', 'bpython': False, 'nogui': False, 'port': 8000, 'extcron': False, 'debuglevel': 30, 'test': None, 'folder': 'C:\\\\web2py', 'config': '', 'import_models': False, 'winservice': '', 'shell': None, 'run': '', 'log_filename': 'httpserver.log', 'args': [''], 'socket_timeout': 5, 'ssl_ca_certificate': None, 'scheduler': None, 'profiler_filename': None, 'ssl_private_key': '', 'password': '<ask>', 'request_queue_size': 5, 'ssl_certificate': '', 'cronjob': False, 'numthreads': None, 'quiet': False, 'interfaces': None, 'minthreads': None, 'timeout': 10, 'plain': False, 'nobanner': False}>"
p1783
asbasbasbag61
(g77
g63
NtRp1784
(dp1785
g66
(dp1786
sg75
g1694
sg68
(lp1787
g61
(g82
g63
NtRp1788
(dp1789
g66
(dp1790
g86
g87
ssg75
g1784
sg68
(lp1791
g715
asbag61
(g82
g63
NtRp1792
(dp1793
g66
(dp1794
g93
g94
ssg75
g1784
sg68
(lp1795
S':'
asbag61
(g82
g63
NtRp1796
(dp1797
g66
(dp1798
sg75
g1784
sg68
(lp1799
g61
(g62
g63
NtRp1800
(dp1801
g66
(dp1802
g74
I4
ssg75
g1796
sg68
(lp1803
S'set([])'
p1804
asbasbasbag61
(g77
g63
NtRp1805
(dp1806
g66
(dp1807
sg75
g1694
sg68
(lp1808
g61
(g82
g63
NtRp1809
(dp1810
g66
(dp1811
g86
g87
ssg75
g1805
sg68
(lp1812
g737
asbag61
(g82
g63
NtRp1813
(dp1814
g66
(dp1815
g93
g94
ssg75
g1805
sg68
(lp1816
S':'
asbag61
(g82
g63
NtRp1817
(dp1818
g66
(dp1819
sg75
g1805
sg68
(lp1820
g61
(g62
g63
NtRp1821
(dp1822
g66
(dp1823
g74
I4
ssg75
g1817
sg68
(lp1824
g104
asbasbasbag61
(g77
g63
NtRp1825
(dp1826
g66
(dp1827
sg75
g1694
sg68
(lp1828
g61
(g82
g63
NtRp1829
(dp1830
g66
(dp1831
g86
g87
ssg75
g1825
sg68
(lp1832
g758
asbag61
(g82
g63
NtRp1833
(dp1834
g66
(dp1835
g93
g94
ssg75
g1825
sg68
(lp1836
S':'
asbag61
(g82
g63
NtRp1837
(dp1838
g66
(dp1839
sg75
g1825
sg68
(lp1840
g61
(g62
g63
NtRp1841
(dp1842
g66
(dp1843
g74
I4
ssg75
g1837
sg68
(lp1844
g771
asbasbasbag61
(g77
g63
NtRp1845
(dp1846
g66
(dp1847
sg75
g1694
sg68
(lp1848
g61
(g82
g63
NtRp1849
(dp1850
g66
(dp1851
g86
g87
ssg75
g1845
sg68
(lp1852
g999
asbag61
(g82
g63
NtRp1853
(dp1854
g66
(dp1855
g93
g94
ssg75
g1845
sg68
(lp1856
S':'
asbag61
(g82
g63
NtRp1857
(dp1858
g66
(dp1859
sg75
g1845
sg68
(lp1860
g61
(g62
g63
NtRp1861
(dp1862
g66
(dp1863
g74
I4
ssg75
g1857
sg68
(lp1864
g104
asbasbasbag61
(g77
g63
NtRp1865
(dp1866
g66
(dp1867
sg75
g1694
sg68
(lp1868
g61
(g82
g63
NtRp1869
(dp1870
g66
(dp1871
g86
g87
ssg75
g1865
sg68
(lp1872
g1020
asbag61
(g82
g63
NtRp1873
(dp1874
g66
(dp1875
g93
g94
ssg75
g1865
sg68
(lp1876
S':'
asbag61
(g82
g63
NtRp1877
(dp1878
g66
(dp1879
sg75
g1865
sg68
(lp1880
g61
(g62
g63
NtRp1881
(dp1882
g66
(dp1883
g74
I4
ssg75
g1877
sg68
(lp1884
g104
asbasbasbag61
(g77
g63
NtRp1885
(dp1886
g66
(dp1887
sg75
g1694
sg68
(lp1888
g61
(g82
g63
NtRp1889
(dp1890
g66
(dp1891
g86
g87
ssg75
g1885
sg68
(lp1892
g1258
asbag61
(g82
g63
NtRp1893
(dp1894
g66
(dp1895
g93
g94
ssg75
g1885
sg68
(lp1896
S':'
asbag61
(g82
g63
NtRp1897
(dp1898
g66
(dp1899
sg75
g1885
sg68
(lp1900
g61
(g62
g63
NtRp1901
(dp1902
g66
(dp1903
g74
I4
ssg75
g1897
sg68
(lp1904
g1271
asbasbasbag61
(g77
g63
NtRp1905
(dp1906
g66
(dp1907
sg75
g1694
sg68
(lp1908
g61
(g82
g63
NtRp1909
(dp1910
g66
(dp1911
g86
g87
ssg75
g1905
sg68
(lp1912
g1301
asbag61
(g82
g63
NtRp1913
(dp1914
g66
(dp1915
g93
g94
ssg75
g1905
sg68
(lp1916
S':'
asbag61
(g82
g63
NtRp1917
(dp1918
g66
(dp1919
sg75
g1905
sg68
(lp1920
g61
(g62
g63
NtRp1921
(dp1922
g66
(dp1923
g74
I4
ssg75
g1917
sg68
(lp1924
g61
(g70
g63
NtRp1925
(dp1926
g66
(dp1927
g74
I3
ssg75
Nsg68
(lp1928
g61
(g77
g63
NtRp1929
(dp1930
g66
(dp1931
sg75
g1925
sg68
(lp1932
g61
(g82
g63
NtRp1933
(dp1934
g66
(dp1935
sg75
g1929
sg68
(lp1936
g61
(g62
g63
NtRp1937
(dp1938
g66
(dp1939
g74
I3
ssg75
g1933
sg68
(lp1940
S'1'
asbasbasbag61
(g77
g63
NtRp1941
(dp1942
g66
(dp1943
sg75
g1925
sg68
(lp1944
g61
(g82
g63
NtRp1945
(dp1946
g66
(dp1947
sg75
g1941
sg68
(lp1948
g61
(g62
g63
NtRp1949
(dp1950
g66
(dp1951
g74
I3
ssg75
g1945
sg68
(lp1952
S'99'
p1953
asbasbasbag61
(g77
g63
NtRp1954
(dp1955
g66
(dp1956
sg75
g1925
sg68
(lp1957
g61
(g82
g63
NtRp1958
(dp1959
g66
(dp1960
sg75
g1954
sg68
(lp1961
g61
(g62
g63
NtRp1962
(dp1963
g66
(dp1964
g74
I3
ssg75
g1958
sg68
(lp1965
S'7'
asbasbasbag61
(g77
g63
NtRp1966
(dp1967
g66
(dp1968
sg75
g1925
sg68
(lp1969
g61
(g82
g63
NtRp1970
(dp1971
g66
(dp1972
sg75
g1966
sg68
(lp1973
g61
(g62
g63
NtRp1974
(dp1975
g66
(dp1976
g74
I3
ssg75
g1970
sg68
(lp1977
S'datetime.datetime(2012, 3, 4, 22, 12, 8)'
p1978
asbasbasbag61
(g77
g63
NtRp1979
(dp1980
g66
(dp1981
sg75
g1925
sg68
(lp1982
g61
(g82
g63
NtRp1983
(dp1984
g66
(dp1985
sg75
g1979
sg68
(lp1986
g61
(g62
g63
NtRp1987
(dp1988
g66
(dp1989
g74
I3
ssg75
g1983
sg68
(lp1990
g1380
asbasbasbasbasbasbasbasbasbasbasbag61
(g77
g63
NtRp1991
(dp1992
g66
(dp1993
sg75
g71
sg68
(lp1994
g61
(g82
g63
NtRp1995
(dp1996
g66
(dp1997
g86
g87
ssg75
g1991
sg68
(lp1998
S'is_https'
p1999
asbag61
(g82
g63
NtRp2000
(dp2001
g66
(dp2002
g93
g94
ssg75
g1991
sg68
(lp2003
S':'
asbag61
(g82
g63
NtRp2004
(dp2005
g66
(dp2006
sg75
g1991
sg68
(lp2007
g61
(g62
g63
NtRp2008
(dp2009
g66
(dp2010
g74
I5
ssg75
g2004
sg68
(lp2011
g104
asbasbasbag61
(g77
g63
NtRp2012
(dp2013
g66
(dp2014
sg75
g71
sg68
(lp2015
g61
(g82
g63
NtRp2016
(dp2017
g66
(dp2018
g86
g87
ssg75
g2012
sg68
(lp2019
S'is_local'
p2020
asbag61
(g82
g63
NtRp2021
(dp2022
g66
(dp2023
g93
g94
ssg75
g2012
sg68
(lp2024
S':'
asbag61
(g82
g63
NtRp2025
(dp2026
g66
(dp2027
sg75
g2012
sg68
(lp2028
g61
(g62
g63
NtRp2029
(dp2030
g66
(dp2031
g74
I5
ssg75
g2025
sg68
(lp2032
g1489
asbasbasbag61
(g77
g63
NtRp2033
(dp2034
g66
(dp2035
sg75
g71
sg68
(lp2036
g61
(g82
g63
NtRp2037
(dp2038
g66
(dp2039
g86
g87
ssg75
g2033
sg68
(lp2040
S'is_restful'
p2041
asbag61
(g82
g63
NtRp2042
(dp2043
g66
(dp2044
g93
g94
ssg75
g2033
sg68
(lp2045
S':'
asbag61
(g82
g63
NtRp2046
(dp2047
g66
(dp2048
sg75
g2033
sg68
(lp2049
g61
(g62
g63
NtRp2050
(dp2051
g66
(dp2052
g74
I5
ssg75
g2046
sg68
(lp2053
g104
asbasbasbag61
(g77
g63
NtRp2054
(dp2055
g66
(dp2056
sg75
g71
sg68
(lp2057
g61
(g82
g63
NtRp2058
(dp2059
g66
(dp2060
g86
g87
ssg75
g2054
sg68
(lp2061
S'now'
p2062
asbag61
(g82
g63
NtRp2063
(dp2064
g66
(dp2065
g93
g94
ssg75
g2054
sg68
(lp2066
S':'
asbag61
(g82
g63
NtRp2067
(dp2068
g66
(dp2069
sg75
g2054
sg68
(lp2070
g61
(g62
g63
NtRp2071
(dp2072
g66
(dp2073
g74
I5
ssg75
g2067
sg68
(lp2074
S'datetime.datetime(2012, 7, 30, 2, 9, 5, 808000)'
p2075
asbasbasbag61
(g77
g63
NtRp2076
(dp2077
g66
(dp2078
sg75
g71
sg68
(lp2079
g61
(g82
g63
NtRp2080
(dp2081
g66
(dp2082
g86
g87
ssg75
g2076
sg68
(lp2083
S'post_vars'
p2084
asbag61
(g82
g63
NtRp2085
(dp2086
g66
(dp2087
g93
g94
ssg75
g2076
sg68
(lp2088
S':'
asbag61
(g82
g63
NtRp2089
(dp2090
g66
(dp2091
sg75
g2076
sg68
(lp2092
g61
(g62
g63
NtRp2093
(dp2094
g66
(dp2095
g74
I5
ssg75
g2089
sg68
(lp2096
g61
(g70
g63
NtRp2097
(dp2098
g66
(dp2099
g74
I4
ssg75
Nsg68
(lp2100
sbasbasbasbag61
(g77
g63
NtRp2101
(dp2102
g66
(dp2103
sg75
g71
sg68
(lp2104
g61
(g82
g63
NtRp2105
(dp2106
g66
(dp2107
g86
g87
ssg75
g2101
sg68
(lp2108
S'raw_args'
p2109
asbag61
(g82
g63
NtRp2110
(dp2111
g66
(dp2112
g93
g94
ssg75
g2101
sg68
(lp2113
S':'
asbag61
(g82
g63
NtRp2114
(dp2115
g66
(dp2116
sg75
g2101
sg68
(lp2117
g61
(g62
g63
NtRp2118
(dp2119
g66
(dp2120
g74
I5
ssg75
g2114
sg68
(lp2121
S'2'
asbasbasbag61
(g77
g63
NtRp2122
(dp2123
g66
(dp2124
sg75
g71
sg68
(lp2125
g61
(g82
g63
NtRp2126
(dp2127
g66
(dp2128
g86
g87
ssg75
g2122
sg68
(lp2129
S'url'
p2130
asbag61
(g82
g63
NtRp2131
(dp2132
g66
(dp2133
g93
g94
ssg75
g2122
sg68
(lp2134
S':'
asbag61
(g82
g63
NtRp2135
(dp2136
g66
(dp2137
sg75
g2122
sg68
(lp2138
g61
(g62
g63
NtRp2139
(dp2140
g66
(dp2141
g74
I5
ssg75
g2135
sg68
(lp2142
S'/unioeste_code/default/Code/2'
p2143
asbasbasbag61
(g77
g63
NtRp2144
(dp2145
g66
(dp2146
sg75
g71
sg68
(lp2147
g61
(g82
g63
NtRp2148
(dp2149
g66
(dp2150
g86
g87
ssg75
g2144
sg68
(lp2151
S'utcnow'
p2152
asbag61
(g82
g63
NtRp2153
(dp2154
g66
(dp2155
g93
g94
ssg75
g2144
sg68
(lp2156
S':'
asbag61
(g82
g63
NtRp2157
(dp2158
g66
(dp2159
sg75
g2144
sg68
(lp2160
g61
(g62
g63
NtRp2161
(dp2162
g66
(dp2163
g74
I5
ssg75
g2157
sg68
(lp2164
S'datetime.datetime(2012, 7, 30, 5, 9, 5, 808000)'
p2165
asbasbasbag61
(g77
g63
NtRp2166
(dp2167
g66
(dp2168
sg75
g71
sg68
(lp2169
g61
(g82
g63
NtRp2170
(dp2171
g66
(dp2172
g86
g87
ssg75
g2166
sg68
(lp2173
S'uuid'
p2174
asbag61
(g82
g63
NtRp2175
(dp2176
g66
(dp2177
g93
g94
ssg75
g2166
sg68
(lp2178
S':'
asbag61
(g82
g63
NtRp2179
(dp2180
g66
(dp2181
sg75
g2166
sg68
(lp2182
g61
(g62
g63
NtRp2183
(dp2184
g66
(dp2185
g74
I5
ssg75
g2179
sg68
(lp2186
S'unioeste_code/127.0.0.1.2012-07-30.02-09-05.410048b9-95ac-45ea-a326-b4c2272e2cc4'
p2187
asbasbasbag61
(g77
g63
NtRp2188
(dp2189
g66
(dp2190
sg75
g71
sg68
(lp2191
g61
(g82
g63
NtRp2192
(dp2193
g66
(dp2194
g86
g87
ssg75
g2188
sg68
(lp2195
S'vars'
p2196
asbag61
(g82
g63
NtRp2197
(dp2198
g66
(dp2199
g93
g94
ssg75
g2188
sg68
(lp2200
S':'
asbag61
(g82
g63
NtRp2201
(dp2202
g66
(dp2203
sg75
g2188
sg68
(lp2204
g61
(g62
g63
NtRp2205
(dp2206
g66
(dp2207
g74
I5
ssg75
g2201
sg68
(lp2208
g61
(g70
g63
NtRp2209
(dp2210
g66
(dp2211
g74
I4
ssg75
Nsg68
(lp2212
sbasbasbasbag61
(g77
g63
NtRp2213
(dp2214
g66
(dp2215
sg75
g71
sg68
(lp2216
g61
(g82
g63
NtRp2217
(dp2218
g66
(dp2219
g86
g87
ssg75
g2213
sg68
(lp2220
S'wsgi'
p2221
asbag61
(g82
g63
NtRp2222
(dp2223
g66
(dp2224
g93
g94
ssg75
g2213
sg68
(lp2225
S':'
asbag61
(g82
g63
NtRp2226
(dp2227
g66
(dp2228
sg75
g2213
sg68
(lp2229
g61
(g62
g63
NtRp2230
(dp2231
g66
(dp2232
g74
I5
ssg75
g2226
sg68
(lp2233
g61
(g70
g63
NtRp2234
(dp2235
g66
(dp2236
g74
I4
ssg75
Nsg68
(lp2237
g61
(g77
g63
NtRp2238
(dp2239
g66
(dp2240
sg75
g2234
sg68
(lp2241
g61
(g82
g63
NtRp2242
(dp2243
g66
(dp2244
g86
g87
ssg75
g2238
sg68
(lp2245
S'environ'
p2246
asbag61
(g82
g63
NtRp2247
(dp2248
g66
(dp2249
g93
g94
ssg75
g2238
sg68
(lp2250
S':'
asbag61
(g82
g63
NtRp2251
(dp2252
g66
(dp2253
sg75
g2238
sg68
(lp2254
g61
(g62
g63
NtRp2255
(dp2256
g66
(dp2257
g74
I4
ssg75
g2251
sg68
(lp2258
g61
(g70
g63
NtRp2259
(dp2260
g66
(dp2261
g74
I3
ssg75
Nsg68
(lp2262
g61
(g77
g63
NtRp2263
(dp2264
g66
(dp2265
sg75
g2259
sg68
(lp2266
g61
(g82
g63
NtRp2267
(dp2268
g66
(dp2269
g86
g87
ssg75
g2263
sg68
(lp2270
S'HTTP_ACCEPT'
p2271
asbag61
(g82
g63
NtRp2272
(dp2273
g66
(dp2274
g93
g94
ssg75
g2263
sg68
(lp2275
S':'
asbag61
(g82
g63
NtRp2276
(dp2277
g66
(dp2278
sg75
g2263
sg68
(lp2279
g61
(g62
g63
NtRp2280
(dp2281
g66
(dp2282
g74
I3
ssg75
g2276
sg68
(lp2283
g793
asbasbasbag61
(g77
g63
NtRp2284
(dp2285
g66
(dp2286
sg75
g2259
sg68
(lp2287
g61
(g82
g63
NtRp2288
(dp2289
g66
(dp2290
g86
g87
ssg75
g2284
sg68
(lp2291
S'HTTP_ACCEPT_CHARSET'
p2292
asbag61
(g82
g63
NtRp2293
(dp2294
g66
(dp2295
g93
g94
ssg75
g2284
sg68
(lp2296
S':'
asbag61
(g82
g63
NtRp2297
(dp2298
g66
(dp2299
sg75
g2284
sg68
(lp2300
g61
(g62
g63
NtRp2301
(dp2302
g66
(dp2303
g74
I3
ssg75
g2297
sg68
(lp2304
g815
asbasbasbag61
(g77
g63
NtRp2305
(dp2306
g66
(dp2307
sg75
g2259
sg68
(lp2308
g61
(g82
g63
NtRp2309
(dp2310
g66
(dp2311
g86
g87
ssg75
g2305
sg68
(lp2312
S'HTTP_ACCEPT_ENCODING'
p2313
asbag61
(g82
g63
NtRp2314
(dp2315
g66
(dp2316
g93
g94
ssg75
g2305
sg68
(lp2317
S':'
asbag61
(g82
g63
NtRp2318
(dp2319
g66
(dp2320
sg75
g2305
sg68
(lp2321
g61
(g62
g63
NtRp2322
(dp2323
g66
(dp2324
g74
I3
ssg75
g2318
sg68
(lp2325
g837
asbasbasbag61
(g77
g63
NtRp2326
(dp2327
g66
(dp2328
sg75
g2259
sg68
(lp2329
g61
(g82
g63
NtRp2330
(dp2331
g66
(dp2332
g86
g87
ssg75
g2326
sg68
(lp2333
S'HTTP_ACCEPT_LANGUAGE'
p2334
asbag61
(g82
g63
NtRp2335
(dp2336
g66
(dp2337
g93
g94
ssg75
g2326
sg68
(lp2338
S':'
asbag61
(g82
g63
NtRp2339
(dp2340
g66
(dp2341
sg75
g2326
sg68
(lp2342
g61
(g62
g63
NtRp2343
(dp2344
g66
(dp2345
g74
I3
ssg75
g2339
sg68
(lp2346
g859
asbasbasbag61
(g77
g63
NtRp2347
(dp2348
g66
(dp2349
sg75
g2259
sg68
(lp2350
g61
(g82
g63
NtRp2351
(dp2352
g66
(dp2353
g86
g87
ssg75
g2347
sg68
(lp2354
S'HTTP_CACHE_CONTROL'
p2355
asbag61
(g82
g63
NtRp2356
(dp2357
g66
(dp2358
g93
g94
ssg75
g2347
sg68
(lp2359
S':'
asbag61
(g82
g63
NtRp2360
(dp2361
g66
(dp2362
sg75
g2347
sg68
(lp2363
g61
(g62
g63
NtRp2364
(dp2365
g66
(dp2366
g74
I3
ssg75
g2360
sg68
(lp2367
g881
asbasbasbag61
(g77
g63
NtRp2368
(dp2369
g66
(dp2370
sg75
g2259
sg68
(lp2371
g61
(g82
g63
NtRp2372
(dp2373
g66
(dp2374
g86
g87
ssg75
g2368
sg68
(lp2375
S'HTTP_CONNECTION'
p2376
asbag61
(g82
g63
NtRp2377
(dp2378
g66
(dp2379
g93
g94
ssg75
g2368
sg68
(lp2380
S':'
asbag61
(g82
g63
NtRp2381
(dp2382
g66
(dp2383
sg75
g2368
sg68
(lp2384
g61
(g62
g63
NtRp2385
(dp2386
g66
(dp2387
g74
I3
ssg75
g2381
sg68
(lp2388
g903
asbasbasbag61
(g77
g63
NtRp2389
(dp2390
g66
(dp2391
sg75
g2259
sg68
(lp2392
g61
(g82
g63
NtRp2393
(dp2394
g66
(dp2395
g86
g87
ssg75
g2389
sg68
(lp2396
S'HTTP_COOKIE'
p2397
asbag61
(g82
g63
NtRp2398
(dp2399
g66
(dp2400
g93
g94
ssg75
g2389
sg68
(lp2401
S':'
asbag61
(g82
g63
NtRp2402
(dp2403
g66
(dp2404
sg75
g2389
sg68
(lp2405
g61
(g62
g63
NtRp2406
(dp2407
g66
(dp2408
g74
I3
ssg75
g2402
sg68
(lp2409
g925
asbasbasbag61
(g77
g63
NtRp2410
(dp2411
g66
(dp2412
sg75
g2259
sg68
(lp2413
g61
(g82
g63
NtRp2414
(dp2415
g66
(dp2416
g86
g87
ssg75
g2410
sg68
(lp2417
S'HTTP_DNT'
p2418
asbag61
(g82
g63
NtRp2419
(dp2420
g66
(dp2421
g93
g94
ssg75
g2410
sg68
(lp2422
S':'
asbag61
(g82
g63
NtRp2423
(dp2424
g66
(dp2425
sg75
g2410
sg68
(lp2426
g61
(g62
g63
NtRp2427
(dp2428
g66
(dp2429
g74
I3
ssg75
g2423
sg68
(lp2430
S'1'
asbasbasbag61
(g77
g63
NtRp2431
(dp2432
g66
(dp2433
sg75
g2259
sg68
(lp2434
g61
(g82
g63
NtRp2435
(dp2436
g66
(dp2437
g86
g87
ssg75
g2431
sg68
(lp2438
S'HTTP_HOST'
p2439
asbag61
(g82
g63
NtRp2440
(dp2441
g66
(dp2442
g93
g94
ssg75
g2431
sg68
(lp2443
S':'
asbag61
(g82
g63
NtRp2444
(dp2445
g66
(dp2446
sg75
g2431
sg68
(lp2447
g61
(g62
g63
NtRp2448
(dp2449
g66
(dp2450
g74
I3
ssg75
g2444
sg68
(lp2451
g968
asbasbasbag61
(g77
g63
NtRp2452
(dp2453
g66
(dp2454
sg75
g2259
sg68
(lp2455
g61
(g82
g63
NtRp2456
(dp2457
g66
(dp2458
g86
g87
ssg75
g2452
sg68
(lp2459
S'HTTP_USER_AGENT'
p2460
asbag61
(g82
g63
NtRp2461
(dp2462
g66
(dp2463
g93
g94
ssg75
g2452
sg68
(lp2464
S':'
asbag61
(g82
g63
NtRp2465
(dp2466
g66
(dp2467
sg75
g2452
sg68
(lp2468
g61
(g62
g63
NtRp2469
(dp2470
g66
(dp2471
g74
I3
ssg75
g2465
sg68
(lp2472
g990
asbasbasbag61
(g77
g63
NtRp2473
(dp2474
g66
(dp2475
sg75
g2259
sg68
(lp2476
g61
(g82
g63
NtRp2477
(dp2478
g66
(dp2479
g86
g87
ssg75
g2473
sg68
(lp2480
S'PATH_INFO'
p2481
asbag61
(g82
g63
NtRp2482
(dp2483
g66
(dp2484
g93
g94
ssg75
g2473
sg68
(lp2485
S':'
asbag61
(g82
g63
NtRp2486
(dp2487
g66
(dp2488
sg75
g2473
sg68
(lp2489
g61
(g62
g63
NtRp2490
(dp2491
g66
(dp2492
g74
I3
ssg75
g2486
sg68
(lp2493
g1054
asbasbasbag61
(g77
g63
NtRp2494
(dp2495
g66
(dp2496
sg75
g2259
sg68
(lp2497
g61
(g82
g63
NtRp2498
(dp2499
g66
(dp2500
g86
g87
ssg75
g2494
sg68
(lp2501
S'QUERY_STRING'
p2502
asbag61
(g82
g63
NtRp2503
(dp2504
g66
(dp2505
g93
g94
ssg75
g2494
sg68
(lp2506
S':'
asbag61
(g82
g63
NtRp2507
(dp2508
g66
(dp2509
sg75
g2494
sg68
(lp2510
g61
(g62
g63
NtRp2511
(dp2512
g66
(dp2513
g74
I3
ssg75
g2507
sg68
(lp2514
S''
asbasbasbag61
(g77
g63
NtRp2515
(dp2516
g66
(dp2517
sg75
g2259
sg68
(lp2518
g61
(g82
g63
NtRp2519
(dp2520
g66
(dp2521
g86
g87
ssg75
g2515
sg68
(lp2522
S'REMOTE_ADDR'
p2523
asbag61
(g82
g63
NtRp2524
(dp2525
g66
(dp2526
g93
g94
ssg75
g2515
sg68
(lp2527
S':'
asbag61
(g82
g63
NtRp2528
(dp2529
g66
(dp2530
sg75
g2515
sg68
(lp2531
g61
(g62
g63
NtRp2532
(dp2533
g66
(dp2534
g74
I3
ssg75
g2528
sg68
(lp2535
g206
asbasbasbag61
(g77
g63
NtRp2536
(dp2537
g66
(dp2538
sg75
g2259
sg68
(lp2539
g61
(g82
g63
NtRp2540
(dp2541
g66
(dp2542
g86
g87
ssg75
g2536
sg68
(lp2543
S'REMOTE_PORT'
p2544
asbag61
(g82
g63
NtRp2545
(dp2546
g66
(dp2547
g93
g94
ssg75
g2536
sg68
(lp2548
S':'
asbag61
(g82
g63
NtRp2549
(dp2550
g66
(dp2551
sg75
g2536
sg68
(lp2552
g61
(g62
g63
NtRp2553
(dp2554
g66
(dp2555
g74
I3
ssg75
g2549
sg68
(lp2556
g1118
asbasbasbag61
(g77
g63
NtRp2557
(dp2558
g66
(dp2559
sg75
g2259
sg68
(lp2560
g61
(g82
g63
NtRp2561
(dp2562
g66
(dp2563
g86
g87
ssg75
g2557
sg68
(lp2564
S'REQUEST_METHOD'
p2565
asbag61
(g82
g63
NtRp2566
(dp2567
g66
(dp2568
g93
g94
ssg75
g2557
sg68
(lp2569
S':'
asbag61
(g82
g63
NtRp2570
(dp2571
g66
(dp2572
sg75
g2557
sg68
(lp2573
g61
(g62
g63
NtRp2574
(dp2575
g66
(dp2576
g74
I3
ssg75
g2570
sg68
(lp2577
g1140
asbasbasbag61
(g77
g63
NtRp2578
(dp2579
g66
(dp2580
sg75
g2259
sg68
(lp2581
g61
(g82
g63
NtRp2582
(dp2583
g66
(dp2584
g86
g87
ssg75
g2578
sg68
(lp2585
S'SCRIPT_NAME'
p2586
asbag61
(g82
g63
NtRp2587
(dp2588
g66
(dp2589
g93
g94
ssg75
g2578
sg68
(lp2590
S':'
asbag61
(g82
g63
NtRp2591
(dp2592
g66
(dp2593
sg75
g2578
sg68
(lp2594
g61
(g62
g63
NtRp2595
(dp2596
g66
(dp2597
g74
I3
ssg75
g2591
sg68
(lp2598
S''
asbasbasbag61
(g77
g63
NtRp2599
(dp2600
g66
(dp2601
sg75
g2259
sg68
(lp2602
g61
(g82
g63
NtRp2603
(dp2604
g66
(dp2605
g86
g87
ssg75
g2599
sg68
(lp2606
S'SERVER_NAME'
p2607
asbag61
(g82
g63
NtRp2608
(dp2609
g66
(dp2610
g93
g94
ssg75
g2599
sg68
(lp2611
S':'
asbag61
(g82
g63
NtRp2612
(dp2613
g66
(dp2614
sg75
g2599
sg68
(lp2615
g61
(g62
g63
NtRp2616
(dp2617
g66
(dp2618
g74
I3
ssg75
g2612
sg68
(lp2619
g1183
asbasbasbag61
(g77
g63
NtRp2620
(dp2621
g66
(dp2622
sg75
g2259
sg68
(lp2623
g61
(g82
g63
NtRp2624
(dp2625
g66
(dp2626
g86
g87
ssg75
g2620
sg68
(lp2627
S'SERVER_PORT'
p2628
asbag61
(g82
g63
NtRp2629
(dp2630
g66
(dp2631
g93
g94
ssg75
g2620
sg68
(lp2632
S':'
asbag61
(g82
g63
NtRp2633
(dp2634
g66
(dp2635
sg75
g2620
sg68
(lp2636
g61
(g62
g63
NtRp2637
(dp2638
g66
(dp2639
g74
I3
ssg75
g2633
sg68
(lp2640
g1205
asbasbasbag61
(g77
g63
NtRp2641
(dp2642
g66
(dp2643
sg75
g2259
sg68
(lp2644
g61
(g82
g63
NtRp2645
(dp2646
g66
(dp2647
g86
g87
ssg75
g2641
sg68
(lp2648
S'SERVER_PROTOCOL'
p2649
asbag61
(g82
g63
NtRp2650
(dp2651
g66
(dp2652
g93
g94
ssg75
g2641
sg68
(lp2653
S':'
asbag61
(g82
g63
NtRp2654
(dp2655
g66
(dp2656
sg75
g2641
sg68
(lp2657
g61
(g62
g63
NtRp2658
(dp2659
g66
(dp2660
g74
I3
ssg75
g2654
sg68
(lp2661
g1227
asbasbasbag61
(g77
g63
NtRp2662
(dp2663
g66
(dp2664
sg75
g2259
sg68
(lp2665
g61
(g82
g63
NtRp2666
(dp2667
g66
(dp2668
g86
g87
ssg75
g2662
sg68
(lp2669
S'SERVER_SOFTWARE'
p2670
asbag61
(g82
g63
NtRp2671
(dp2672
g66
(dp2673
g93
g94
ssg75
g2662
sg68
(lp2674
S':'
asbag61
(g82
g63
NtRp2675
(dp2676
g66
(dp2677
sg75
g2662
sg68
(lp2678
g61
(g62
g63
NtRp2679
(dp2680
g66
(dp2681
g74
I3
ssg75
g2675
sg68
(lp2682
g1249
asbasbasbag61
(g77
g63
NtRp2683
(dp2684
g66
(dp2685
sg75
g2259
sg68
(lp2686
g61
(g82
g63
NtRp2687
(dp2688
g66
(dp2689
g86
g87
ssg75
g2683
sg68
(lp2690
S'wsgi.errors'
p2691
asbag61
(g82
g63
NtRp2692
(dp2693
g66
(dp2694
g93
g94
ssg75
g2683
sg68
(lp2695
S':'
asbag61
(g82
g63
NtRp2696
(dp2697
g66
(dp2698
sg75
g2683
sg68
(lp2699
g61
(g62
g63
NtRp2700
(dp2701
g66
(dp2702
g74
I3
ssg75
g2696
sg68
(lp2703
S'<__main__.Stderr object at 0x00486670>'
p2704
asbasbasbag61
(g77
g63
NtRp2705
(dp2706
g66
(dp2707
sg75
g2259
sg68
(lp2708
g61
(g82
g63
NtRp2709
(dp2710
g66
(dp2711
g86
g87
ssg75
g2705
sg68
(lp2712
S'wsgi.file_wrapper'
p2713
asbag61
(g82
g63
NtRp2714
(dp2715
g66
(dp2716
g93
g94
ssg75
g2705
sg68
(lp2717
S':'
asbag61
(g82
g63
NtRp2718
(dp2719
g66
(dp2720
sg75
g2705
sg68
(lp2721
g61
(g62
g63
NtRp2722
(dp2723
g66
(dp2724
g74
I3
ssg75
g2718
sg68
(lp2725
S'<class wsgiref.util.FileWrapper at 0x02E8DE10>'
p2726
asbasbasbag61
(g77
g63
NtRp2727
(dp2728
g66
(dp2729
sg75
g2259
sg68
(lp2730
g61
(g82
g63
NtRp2731
(dp2732
g66
(dp2733
g86
g87
ssg75
g2727
sg68
(lp2734
S'wsgi.input'
p2735
asbag61
(g82
g63
NtRp2736
(dp2737
g66
(dp2738
g93
g94
ssg75
g2727
sg68
(lp2739
S':'
asbag61
(g82
g63
NtRp2740
(dp2741
g66
(dp2742
sg75
g2727
sg68
(lp2743
g61
(g62
g63
NtRp2744
(dp2745
g66
(dp2746
g74
I3
ssg75
g2740
sg68
(lp2747
S'<cStringIO.StringO object at 0x031FE0A0>'
p2748
asbasbasbag61
(g77
g63
NtRp2749
(dp2750
g66
(dp2751
sg75
g2259
sg68
(lp2752
g61
(g82
g63
NtRp2753
(dp2754
g66
(dp2755
g86
g87
ssg75
g2749
sg68
(lp2756
S'wsgi.multiprocess'
p2757
asbag61
(g82
g63
NtRp2758
(dp2759
g66
(dp2760
g93
g94
ssg75
g2749
sg68
(lp2761
S':'
asbag61
(g82
g63
NtRp2762
(dp2763
g66
(dp2764
sg75
g2749
sg68
(lp2765
g61
(g62
g63
NtRp2766
(dp2767
g66
(dp2768
g74
I3
ssg75
g2762
sg68
(lp2769
g104
asbasbasbag61
(g77
g63
NtRp2770
(dp2771
g66
(dp2772
sg75
g2259
sg68
(lp2773
g61
(g82
g63
NtRp2774
(dp2775
g66
(dp2776
g86
g87
ssg75
g2770
sg68
(lp2777
S'wsgi.multithread'
p2778
asbag61
(g82
g63
NtRp2779
(dp2780
g66
(dp2781
g93
g94
ssg75
g2770
sg68
(lp2782
S':'
asbag61
(g82
g63
NtRp2783
(dp2784
g66
(dp2785
sg75
g2770
sg68
(lp2786
g61
(g62
g63
NtRp2787
(dp2788
g66
(dp2789
g74
I3
ssg75
g2783
sg68
(lp2790
g1489
asbasbasbag61
(g77
g63
NtRp2791
(dp2792
g66
(dp2793
sg75
g2259
sg68
(lp2794
g61
(g82
g63
NtRp2795
(dp2796
g66
(dp2797
g86
g87
ssg75
g2791
sg68
(lp2798
S'wsgi.run_once'
p2799
asbag61
(g82
g63
NtRp2800
(dp2801
g66
(dp2802
g93
g94
ssg75
g2791
sg68
(lp2803
S':'
asbag61
(g82
g63
NtRp2804
(dp2805
g66
(dp2806
sg75
g2791
sg68
(lp2807
g61
(g62
g63
NtRp2808
(dp2809
g66
(dp2810
g74
I3
ssg75
g2804
sg68
(lp2811
g104
asbasbasbag61
(g77
g63
NtRp2812
(dp2813
g66
(dp2814
sg75
g2259
sg68
(lp2815
g61
(g82
g63
NtRp2816
(dp2817
g66
(dp2818
g86
g87
ssg75
g2812
sg68
(lp2819
S'wsgi.url_scheme'
p2820
asbag61
(g82
g63
NtRp2821
(dp2822
g66
(dp2823
g93
g94
ssg75
g2812
sg68
(lp2824
S':'
asbag61
(g82
g63
NtRp2825
(dp2826
g66
(dp2827
sg75
g2812
sg68
(lp2828
g61
(g62
g63
NtRp2829
(dp2830
g66
(dp2831
g74
I3
ssg75
g2825
sg68
(lp2832
g1532
asbasbasbag61
(g77
g63
NtRp2833
(dp2834
g66
(dp2835
sg75
g2259
sg68
(lp2836
g61
(g82
g63
NtRp2837
(dp2838
g66
(dp2839
g86
g87
ssg75
g2833
sg68
(lp2840
S'wsgi.version'
p2841
asbag61
(g82
g63
NtRp2842
(dp2843
g66
(dp2844
g93
g94
ssg75
g2833
sg68
(lp2845
S':'
asbag61
(g82
g63
NtRp2846
(dp2847
g66
(dp2848
sg75
g2833
sg68
(lp2849
g61
(g62
g63
NtRp2850
(dp2851
g66
(dp2852
g74
I3
ssg75
g2846
sg68
(lp2853
S'1'
asbasbasbasbasbasbasbasbasbasbasbasbasbsS'frames'
p2854
(lp2855
(dp2856
S'file'
p2857
S'C:\\web2py\\gluon\\restricted.py'
p2858
sS'dump'
p2859
(dp2860
sS'lnum'
p2861
I204
sS'lines'
p2862
(dp2863
sS'call'
p2864
S'(code="response.write(\' \', escape=False)\\nresponse.write...ponse.write(\'\\\\n</body>\\\\n</html>\\\\n\', escape=False)", environment={\'A\': <class \'gluon.html.A\'>, \'Auth\': <class \'gluon.tools.Auth\'>, \'B\': <class \'gluon.html.B\'>, \'BEAUTIFY\': <class \'gluon.html.BEAUTIFY\'>, \'BODY\': <class \'gluon.html.BODY\'>, \'BR\': <class \'gluon.html.BR\'>, \'BUTTON\': <class \'gluon.html.BUTTON\'>, \'CAT\': <class \'gluon.html.CAT\'>, \'CENTER\': <class \'gluon.html.CENTER\'>, \'CLEANUP\': <class \'gluon.validators.CLEANUP\'>, ...}, layer=r\'C:\\web2py\\applications\\unioeste_code\\views\\default/Code.html\')'
p2865
sS'func'
p2866
S'restricted'
p2867
sa(dp2868
g2857
S'C:\\web2py\\gluon\\restricted.py'
p2869
sg2859
(dp2870
sg2861
I189
sg2862
(dp2871
sg2864
S'(code="response.write(\' \', escape=False)\\nresponse.write...ponse.write(\'\\\\n</body>\\\\n</html>\\\\n\', escape=False)", layer=r\'C:\\web2py\\applications\\unioeste_code\\views\\default/Code.html\')'
p2872
sg2866
S'compile2'
p2873
sasS'pyver'
p2874
S'Python 2.5.4: C:\\web2py\\web2py_no_console.exe'
p2875
sS'session'
p2876
g61
(g62
g63
NtRp2877
(dp2878
g66
(dp2879
sg68
(lp2880
g61
(g70
g63
NtRp2881
(dp2882
g66
(dp2883
g74
I5
ssg75
Nsg68
(lp2884
g61
(g77
g63
NtRp2885
(dp2886
g66
(dp2887
sg75
g2881
sg68
(lp2888
g61
(g82
g63
NtRp2889
(dp2890
g66
(dp2891
g86
g87
ssg75
g2885
sg68
(lp2892
S'auth'
p2893
asbag61
(g82
g63
NtRp2894
(dp2895
g66
(dp2896
g93
g94
ssg75
g2885
sg68
(lp2897
S':'
asbag61
(g82
g63
NtRp2898
(dp2899
g66
(dp2900
sg75
g2885
sg68
(lp2901
g61
(g62
g63
NtRp2902
(dp2903
g66
(dp2904
g74
I5
ssg75
g2898
sg68
(lp2905
g61
(g70
g63
NtRp2906
(dp2907
g66
(dp2908
g74
I4
ssg75
Nsg68
(lp2909
g61
(g77
g63
NtRp2910
(dp2911
g66
(dp2912
sg75
g2906
sg68
(lp2913
g61
(g82
g63
NtRp2914
(dp2915
g66
(dp2916
g86
g87
ssg75
g2910
sg68
(lp2917
S'expiration'
p2918
asbag61
(g82
g63
NtRp2919
(dp2920
g66
(dp2921
g93
g94
ssg75
g2910
sg68
(lp2922
S':'
asbag61
(g82
g63
NtRp2923
(dp2924
g66
(dp2925
sg75
g2910
sg68
(lp2926
g61
(g62
g63
NtRp2927
(dp2928
g66
(dp2929
g74
I4
ssg75
g2923
sg68
(lp2930
S'3600'
p2931
asbasbasbag61
(g77
g63
NtRp2932
(dp2933
g66
(dp2934
sg75
g2906
sg68
(lp2935
g61
(g82
g63
NtRp2936
(dp2937
g66
(dp2938
g86
g87
ssg75
g2932
sg68
(lp2939
S'hmac_key'
p2940
asbag61
(g82
g63
NtRp2941
(dp2942
g66
(dp2943
g93
g94
ssg75
g2932
sg68
(lp2944
S':'
asbag61
(g82
g63
NtRp2945
(dp2946
g66
(dp2947
sg75
g2932
sg68
(lp2948
g61
(g62
g63
NtRp2949
(dp2950
g66
(dp2951
g74
I4
ssg75
g2945
sg68
(lp2952
S'995a0c66-3f99-485b-9dcd-26805f1668c1'
p2953
asbasbasbag61
(g77
g63
NtRp2954
(dp2955
g66
(dp2956
sg75
g2906
sg68
(lp2957
g61
(g82
g63
NtRp2958
(dp2959
g66
(dp2960
g86
g87
ssg75
g2954
sg68
(lp2961
S'last_visit'
p2962
asbag61
(g82
g63
NtRp2963
(dp2964
g66
(dp2965
g93
g94
ssg75
g2954
sg68
(lp2966
S':'
asbag61
(g82
g63
NtRp2967
(dp2968
g66
(dp2969
sg75
g2954
sg68
(lp2970
g61
(g62
g63
NtRp2971
(dp2972
g66
(dp2973
g74
I4
ssg75
g2967
sg68
(lp2974
S'datetime.datetime(2012, 7, 30, 2, 6, 45, 915000)'
p2975
asbasbasbag61
(g77
g63
NtRp2976
(dp2977
g66
(dp2978
sg75
g2906
sg68
(lp2979
g61
(g82
g63
NtRp2980
(dp2981
g66
(dp2982
g86
g87
ssg75
g2976
sg68
(lp2983
S'remember'
p2984
asbag61
(g82
g63
NtRp2985
(dp2986
g66
(dp2987
g93
g94
ssg75
g2976
sg68
(lp2988
S':'
asbag61
(g82
g63
NtRp2989
(dp2990
g66
(dp2991
sg75
g2976
sg68
(lp2992
g61
(g62
g63
NtRp2993
(dp2994
g66
(dp2995
g74
I4
ssg75
g2989
sg68
(lp2996
g104
asbasbasbag61
(g77
g63
NtRp2997
(dp2998
g66
(dp2999
sg75
g2906
sg68
(lp3000
g61
(g82
g63
NtRp3001
(dp3002
g66
(dp3003
g86
g87
ssg75
g2997
sg68
(lp3004
S'user'
p3005
asbag61
(g82
g63
NtRp3006
(dp3007
g66
(dp3008
g93
g94
ssg75
g2997
sg68
(lp3009
S':'
asbag61
(g82
g63
NtRp3010
(dp3011
g66
(dp3012
sg75
g2997
sg68
(lp3013
g61
(g62
g63
NtRp3014
(dp3015
g66
(dp3016
g74
I4
ssg75
g3010
sg68
(lp3017
g61
(g70
g63
NtRp3018
(dp3019
g66
(dp3020
g74
I3
ssg75
Nsg68
(lp3021
g61
(g77
g63
NtRp3022
(dp3023
g66
(dp3024
sg75
g3018
sg68
(lp3025
g61
(g82
g63
NtRp3026
(dp3027
g66
(dp3028
g86
g87
ssg75
g3022
sg68
(lp3029
S'email'
p3030
asbag61
(g82
g63
NtRp3031
(dp3032
g66
(dp3033
g93
g94
ssg75
g3022
sg68
(lp3034
S':'
asbag61
(g82
g63
NtRp3035
(dp3036
g66
(dp3037
sg75
g3022
sg68
(lp3038
g61
(g62
g63
NtRp3039
(dp3040
g66
(dp3041
g74
I3
ssg75
g3035
sg68
(lp3042
S'scmirror1@gmail.com'
p3043
asbasbasbag61
(g77
g63
NtRp3044
(dp3045
g66
(dp3046
sg75
g3018
sg68
(lp3047
g61
(g82
g63
NtRp3048
(dp3049
g66
(dp3050
g86
g87
ssg75
g3044
sg68
(lp3051
S'first_name'
p3052
asbag61
(g82
g63
NtRp3053
(dp3054
g66
(dp3055
g93
g94
ssg75
g3044
sg68
(lp3056
S':'
asbag61
(g82
g63
NtRp3057
(dp3058
g66
(dp3059
sg75
g3044
sg68
(lp3060
g61
(g62
g63
NtRp3061
(dp3062
g66
(dp3063
g74
I3
ssg75
g3057
sg68
(lp3064
S'Pedro'
p3065
asbasbasbag61
(g77
g63
NtRp3066
(dp3067
g66
(dp3068
sg75
g3018
sg68
(lp3069
g61
(g82
g63
NtRp3070
(dp3071
g66
(dp3072
g86
g87
ssg75
g3066
sg68
(lp3073
S'id'
p3074
asbag61
(g82
g63
NtRp3075
(dp3076
g66
(dp3077
g93
g94
ssg75
g3066
sg68
(lp3078
S':'
asbag61
(g82
g63
NtRp3079
(dp3080
g66
(dp3081
sg75
g3066
sg68
(lp3082
g61
(g62
g63
NtRp3083
(dp3084
g66
(dp3085
g74
I3
ssg75
g3079
sg68
(lp3086
S'1'
asbasbasbag61
(g77
g63
NtRp3087
(dp3088
g66
(dp3089
sg75
g3018
sg68
(lp3090
g61
(g82
g63
NtRp3091
(dp3092
g66
(dp3093
g86
g87
ssg75
g3087
sg68
(lp3094
S'last_name'
p3095
asbag61
(g82
g63
NtRp3096
(dp3097
g66
(dp3098
g93
g94
ssg75
g3087
sg68
(lp3099
S':'
asbag61
(g82
g63
NtRp3100
(dp3101
g66
(dp3102
sg75
g3087
sg68
(lp3103
g61
(g62
g63
NtRp3104
(dp3105
g66
(dp3106
g74
I3
ssg75
g3100
sg68
(lp3107
S'Lacerda'
p3108
asbasbasbag61
(g77
g63
NtRp3109
(dp3110
g66
(dp3111
sg75
g3018
sg68
(lp3112
g61
(g82
g63
NtRp3113
(dp3114
g66
(dp3115
g86
g87
ssg75
g3109
sg68
(lp3116
S'password'
p3117
asbag61
(g82
g63
NtRp3118
(dp3119
g66
(dp3120
g93
g94
ssg75
g3109
sg68
(lp3121
S':'
asbag61
(g82
g63
NtRp3122
(dp3123
g66
(dp3124
sg75
g3109
sg68
(lp3125
g61
(g62
g63
NtRp3126
(dp3127
g66
(dp3128
g74
I3
ssg75
g3122
sg68
(lp3129
S'4297f44b13955235245b2497399d7a93'
p3130
asbasbasbag61
(g77
g63
NtRp3131
(dp3132
g66
(dp3133
sg75
g3018
sg68
(lp3134
g61
(g82
g63
NtRp3135
(dp3136
g66
(dp3137
g86
g87
ssg75
g3131
sg68
(lp3138
S'registration_id'
p3139
asbag61
(g82
g63
NtRp3140
(dp3141
g66
(dp3142
g93
g94
ssg75
g3131
sg68
(lp3143
S':'
asbag61
(g82
g63
NtRp3144
(dp3145
g66
(dp3146
sg75
g3131
sg68
(lp3147
g61
(g62
g63
NtRp3148
(dp3149
g66
(dp3150
g74
I3
ssg75
g3144
sg68
(lp3151
S''
asbasbasbag61
(g77
g63
NtRp3152
(dp3153
g66
(dp3154
sg75
g3018
sg68
(lp3155
g61
(g82
g63
NtRp3156
(dp3157
g66
(dp3158
g86
g87
ssg75
g3152
sg68
(lp3159
S'registration_key'
p3160
asbag61
(g82
g63
NtRp3161
(dp3162
g66
(dp3163
g93
g94
ssg75
g3152
sg68
(lp3164
S':'
asbag61
(g82
g63
NtRp3165
(dp3166
g66
(dp3167
sg75
g3152
sg68
(lp3168
g61
(g62
g63
NtRp3169
(dp3170
g66
(dp3171
g74
I3
ssg75
g3165
sg68
(lp3172
S''
asbasbasbag61
(g77
g63
NtRp3173
(dp3174
g66
(dp3175
sg75
g3018
sg68
(lp3176
g61
(g82
g63
NtRp3177
(dp3178
g66
(dp3179
g86
g87
ssg75
g3173
sg68
(lp3180
S'reset_password_key'
p3181
asbag61
(g82
g63
NtRp3182
(dp3183
g66
(dp3184
g93
g94
ssg75
g3173
sg68
(lp3185
S':'
asbag61
(g82
g63
NtRp3186
(dp3187
g66
(dp3188
sg75
g3173
sg68
(lp3189
g61
(g62
g63
NtRp3190
(dp3191
g66
(dp3192
g74
I3
ssg75
g3186
sg68
(lp3193
S''
asbasbasbasbasbasbasbag61
(g77
g63
NtRp3194
(dp3195
g66
(dp3196
sg75
g2906
sg68
(lp3197
g61
(g82
g63
NtRp3198
(dp3199
g66
(dp3200
g86
g87
ssg75
g3194
sg68
(lp3201
S'user_groups'
p3202
asbag61
(g82
g63
NtRp3203
(dp3204
g66
(dp3205
g93
g94
ssg75
g3194
sg68
(lp3206
S':'
asbag61
(g82
g63
NtRp3207
(dp3208
g66
(dp3209
sg75
g3194
sg68
(lp3210
g61
(g62
g63
NtRp3211
(dp3212
g66
(dp3213
g74
I4
ssg75
g3207
sg68
(lp3214
g61
(g70
g63
NtRp3215
(dp3216
g66
(dp3217
g74
I3
ssg75
Nsg68
(lp3218
g61
(g77
g63
NtRp3219
(dp3220
g66
(dp3221
sg75
g3215
sg68
(lp3222
g61
(g82
g63
NtRp3223
(dp3224
g66
(dp3225
g86
g87
ssg75
g3219
sg68
(lp3226
S'1'
asbag61
(g82
g63
NtRp3227
(dp3228
g66
(dp3229
g93
g94
ssg75
g3219
sg68
(lp3230
S':'
asbag61
(g82
g63
NtRp3231
(dp3232
g66
(dp3233
sg75
g3219
sg68
(lp3234
g61
(g62
g63
NtRp3235
(dp3236
g66
(dp3237
g74
I3
ssg75
g3231
sg68
(lp3238
S'user_1'
p3239
asbasbasbag61
(g77
g63
NtRp3240
(dp3241
g66
(dp3242
sg75
g3215
sg68
(lp3243
g61
(g82
g63
NtRp3244
(dp3245
g66
(dp3246
g86
g87
ssg75
g3240
sg68
(lp3247
S'2'
asbag61
(g82
g63
NtRp3248
(dp3249
g66
(dp3250
g93
g94
ssg75
g3240
sg68
(lp3251
S':'
asbag61
(g82
g63
NtRp3252
(dp3253
g66
(dp3254
sg75
g3240
sg68
(lp3255
g61
(g62
g63
NtRp3256
(dp3257
g66
(dp3258
g74
I3
ssg75
g3252
sg68
(lp3259
S'manager'
p3260
asbasbasbasbasbasbasbasbasbasbasbasbasbsS'etype'
p3261
S"<type 'exceptions.SyntaxError'>"
p3262
sS'date'
p3263
S'Mon Jul 30 02:09:05 2012'
p3264
sS'response'
p3265
g61
(g62
g63
NtRp3266
(dp3267
g66
(dp3268
sg68
(lp3269
g61
(g70
g63
NtRp3270
(dp3271
g66
(dp3272
g74
I5
ssg75
Nsg68
(lp3273
g61
(g77
g63
NtRp3274
(dp3275
g66
(dp3276
sg75
g3270
sg68
(lp3277
g61
(g82
g63
NtRp3278
(dp3279
g66
(dp3280
g86
g87
ssg75
g3274
sg68
(lp3281
g171
asbag61
(g82
g63
NtRp3282
(dp3283
g66
(dp3284
g93
g94
ssg75
g3274
sg68
(lp3285
S':'
asbag61
(g82
g63
NtRp3286
(dp3287
g66
(dp3288
sg75
g3274
sg68
(lp3289
g61
(g62
g63
NtRp3290
(dp3291
g66
(dp3292
g74
I5
ssg75
g3286
sg68
(lp3293
S'<cStringIO.StringO object at 0x066E46C0>'
p3294
asbasbasbag61
(g77
g63
NtRp3295
(dp3296
g66
(dp3297
sg75
g3270
sg68
(lp3298
g61
(g82
g63
NtRp3299
(dp3300
g66
(dp3301
g86
g87
ssg75
g3295
sg68
(lp3302
g237
asbag61
(g82
g63
NtRp3303
(dp3304
g66
(dp3305
g93
g94
ssg75
g3295
sg68
(lp3306
S':'
asbag61
(g82
g63
NtRp3307
(dp3308
g66
(dp3309
sg75
g3295
sg68
(lp3310
g61
(g62
g63
NtRp3311
(dp3312
g66
(dp3313
g74
I5
ssg75
g3307
sg68
(lp3314
g61
(g70
g63
NtRp3315
(dp3316
g66
(dp3317
g74
I4
ssg75
Nsg68
(lp3318
g61
(g77
g63
NtRp3319
(dp3320
g66
(dp3321
sg75
g3315
sg68
(lp3322
g61
(g82
g63
NtRp3323
(dp3324
g66
(dp3325
g86
g87
ssg75
g3319
sg68
(lp3326
S'session_id_unioeste_code'
p3327
asbag61
(g82
g63
NtRp3328
(dp3329
g66
(dp3330
g93
g94
ssg75
g3319
sg68
(lp3331
S':'
asbag61
(g82
g63
NtRp3332
(dp3333
g66
(dp3334
sg75
g3319
sg68
(lp3335
g61
(g62
g63
NtRp3336
(dp3337
g66
(dp3338
g74
I4
ssg75
g3332
sg68
(lp3339
g61
(g70
g63
NtRp3340
(dp3341
g66
(dp3342
g74
I3
ssg75
Nsg68
(lp3343
g61
(g77
g63
NtRp3344
(dp3345
g66
(dp3346
sg75
g3340
sg68
(lp3347
g61
(g82
g63
NtRp3348
(dp3349
g66
(dp3350
g86
g87
ssg75
g3344
sg68
(lp3351
g287
asbag61
(g82
g63
NtRp3352
(dp3353
g66
(dp3354
g93
g94
ssg75
g3344
sg68
(lp3355
S':'
asbag61
(g82
g63
NtRp3356
(dp3357
g66
(dp3358
sg75
g3344
sg68
(lp3359
g61
(g62
g63
NtRp3360
(dp3361
g66
(dp3362
g74
I3
ssg75
g3356
sg68
(lp3363
S''
asbasbasbag61
(g77
g63
NtRp3364
(dp3365
g66
(dp3366
sg75
g3340
sg68
(lp3367
g61
(g82
g63
NtRp3368
(dp3369
g66
(dp3370
g86
g87
ssg75
g3364
sg68
(lp3371
g308
asbag61
(g82
g63
NtRp3372
(dp3373
g66
(dp3374
g93
g94
ssg75
g3364
sg68
(lp3375
S':'
asbag61
(g82
g63
NtRp3376
(dp3377
g66
(dp3378
sg75
g3364
sg68
(lp3379
g61
(g62
g63
NtRp3380
(dp3381
g66
(dp3382
g74
I3
ssg75
g3376
sg68
(lp3383
S''
asbasbasbag61
(g77
g63
NtRp3384
(dp3385
g66
(dp3386
sg75
g3340
sg68
(lp3387
g61
(g82
g63
NtRp3388
(dp3389
g66
(dp3390
g86
g87
ssg75
g3384
sg68
(lp3391
g329
asbag61
(g82
g63
NtRp3392
(dp3393
g66
(dp3394
g93
g94
ssg75
g3384
sg68
(lp3395
S':'
asbag61
(g82
g63
NtRp3396
(dp3397
g66
(dp3398
sg75
g3384
sg68
(lp3399
g61
(g62
g63
NtRp3400
(dp3401
g66
(dp3402
g74
I3
ssg75
g3396
sg68
(lp3403
S''
asbasbasbag61
(g77
g63
NtRp3404
(dp3405
g66
(dp3406
sg75
g3340
sg68
(lp3407
g61
(g82
g63
NtRp3408
(dp3409
g66
(dp3410
g86
g87
ssg75
g3404
sg68
(lp3411
g350
asbag61
(g82
g63
NtRp3412
(dp3413
g66
(dp3414
g93
g94
ssg75
g3404
sg68
(lp3415
S':'
asbag61
(g82
g63
NtRp3416
(dp3417
g66
(dp3418
sg75
g3404
sg68
(lp3419
g61
(g62
g63
NtRp3420
(dp3421
g66
(dp3422
g74
I3
ssg75
g3416
sg68
(lp3423
S''
asbasbasbag61
(g77
g63
NtRp3424
(dp3425
g66
(dp3426
sg75
g3340
sg68
(lp3427
g61
(g82
g63
NtRp3428
(dp3429
g66
(dp3430
g86
g87
ssg75
g3424
sg68
(lp3431
g371
asbag61
(g82
g63
NtRp3432
(dp3433
g66
(dp3434
g93
g94
ssg75
g3424
sg68
(lp3435
S':'
asbag61
(g82
g63
NtRp3436
(dp3437
g66
(dp3438
sg75
g3424
sg68
(lp3439
g61
(g62
g63
NtRp3440
(dp3441
g66
(dp3442
g74
I3
ssg75
g3436
sg68
(lp3443
S'/'
asbasbasbag61
(g77
g63
NtRp3444
(dp3445
g66
(dp3446
sg75
g3340
sg68
(lp3447
g61
(g82
g63
NtRp3448
(dp3449
g66
(dp3450
g86
g87
ssg75
g3444
sg68
(lp3451
g392
asbag61
(g82
g63
NtRp3452
(dp3453
g66
(dp3454
g93
g94
ssg75
g3444
sg68
(lp3455
S':'
asbag61
(g82
g63
NtRp3456
(dp3457
g66
(dp3458
sg75
g3444
sg68
(lp3459
g61
(g62
g63
NtRp3460
(dp3461
g66
(dp3462
g74
I3
ssg75
g3456
sg68
(lp3463
S''
asbasbasbag61
(g77
g63
NtRp3464
(dp3465
g66
(dp3466
sg75
g3340
sg68
(lp3467
g61
(g82
g63
NtRp3468
(dp3469
g66
(dp3470
g86
g87
ssg75
g3464
sg68
(lp3471
g413
asbag61
(g82
g63
NtRp3472
(dp3473
g66
(dp3474
g93
g94
ssg75
g3464
sg68
(lp3475
S':'
asbag61
(g82
g63
NtRp3476
(dp3477
g66
(dp3478
sg75
g3464
sg68
(lp3479
g61
(g62
g63
NtRp3480
(dp3481
g66
(dp3482
g74
I3
ssg75
g3476
sg68
(lp3483
S''
asbasbasbasbasbasbasbasbasbasbasbag61
(g77
g63
NtRp3484
(dp3485
g66
(dp3486
sg75
g3270
sg68
(lp3487
g61
(g82
g63
NtRp3488
(dp3489
g66
(dp3490
g86
g87
ssg75
g3484
sg68
(lp3491
S'delimiters'
p3492
asbag61
(g82
g63
NtRp3493
(dp3494
g66
(dp3495
g93
g94
ssg75
g3484
sg68
(lp3496
S':'
asbag61
(g82
g63
NtRp3497
(dp3498
g66
(dp3499
sg75
g3484
sg68
(lp3500
g61
(g62
g63
NtRp3501
(dp3502
g66
(dp3503
g74
I5
ssg75
g3497
sg68
(lp3504
g61
(g70
g63
NtRp3505
(dp3506
g66
(dp3507
g74
I4
ssg75
Nsg68
(lp3508
g61
(g77
g63
NtRp3509
(dp3510
g66
(dp3511
sg75
g3505
sg68
(lp3512
g61
(g82
g63
NtRp3513
(dp3514
g66
(dp3515
sg75
g3509
sg68
(lp3516
g61
(g62
g63
NtRp3517
(dp3518
g66
(dp3519
g74
I4
ssg75
g3513
sg68
(lp3520
S'{{'
p3521
asbasbasbag61
(g77
g63
NtRp3522
(dp3523
g66
(dp3524
sg75
g3505
sg68
(lp3525
g61
(g82
g63
NtRp3526
(dp3527
g66
(dp3528
sg75
g3522
sg68
(lp3529
g61
(g62
g63
NtRp3530
(dp3531
g66
(dp3532
g74
I4
ssg75
g3526
sg68
(lp3533
S'}}'
p3534
asbasbasbasbasbasbasbag61
(g77
g63
NtRp3535
(dp3536
g66
(dp3537
sg75
g3270
sg68
(lp3538
g61
(g82
g63
NtRp3539
(dp3540
g66
(dp3541
g86
g87
ssg75
g3535
sg68
(lp3542
S'files'
p3543
asbag61
(g82
g63
NtRp3544
(dp3545
g66
(dp3546
g93
g94
ssg75
g3535
sg68
(lp3547
S':'
asbag61
(g82
g63
NtRp3548
(dp3549
g66
(dp3550
sg75
g3535
sg68
(lp3551
g61
(g62
g63
NtRp3552
(dp3553
g66
(dp3554
g74
I5
ssg75
g3548
sg68
(lp3555
g61
(g70
g63
NtRp3556
(dp3557
g66
(dp3558
g74
I4
ssg75
Nsg68
(lp3559
sbasbasbasbag61
(g77
g63
NtRp3560
(dp3561
g66
(dp3562
sg75
g3270
sg68
(lp3563
g61
(g82
g63
NtRp3564
(dp3565
g66
(dp3566
g86
g87
ssg75
g3560
sg68
(lp3567
S'flash'
p3568
asbag61
(g82
g63
NtRp3569
(dp3570
g66
(dp3571
g93
g94
ssg75
g3560
sg68
(lp3572
S':'
asbag61
(g82
g63
NtRp3573
(dp3574
g66
(dp3575
sg75
g3560
sg68
(lp3576
g61
(g62
g63
NtRp3577
(dp3578
g66
(dp3579
g74
I5
ssg75
g3573
sg68
(lp3580
S''
asbasbasbag61
(g77
g63
NtRp3581
(dp3582
g66
(dp3583
sg75
g3270
sg68
(lp3584
g61
(g82
g63
NtRp3585
(dp3586
g66
(dp3587
g86
g87
ssg75
g3581
sg68
(lp3588
S'generic_patterns'
p3589
asbag61
(g82
g63
NtRp3590
(dp3591
g66
(dp3592
g93
g94
ssg75
g3581
sg68
(lp3593
S':'
asbag61
(g82
g63
NtRp3594
(dp3595
g66
(dp3596
sg75
g3581
sg68
(lp3597
g61
(g62
g63
NtRp3598
(dp3599
g66
(dp3600
g74
I5
ssg75
g3594
sg68
(lp3601
g61
(g70
g63
NtRp3602
(dp3603
g66
(dp3604
g74
I4
ssg75
Nsg68
(lp3605
sbasbasbasbag61
(g77
g63
NtRp3606
(dp3607
g66
(dp3608
sg75
g3270
sg68
(lp3609
g61
(g82
g63
NtRp3610
(dp3611
g66
(dp3612
g86
g87
ssg75
g3606
sg68
(lp3613
S'headers'
p3614
asbag61
(g82
g63
NtRp3615
(dp3616
g66
(dp3617
g93
g94
ssg75
g3606
sg68
(lp3618
S':'
asbag61
(g82
g63
NtRp3619
(dp3620
g66
(dp3621
sg75
g3606
sg68
(lp3622
g61
(g62
g63
NtRp3623
(dp3624
g66
(dp3625
g74
I5
ssg75
g3619
sg68
(lp3626
g61
(g70
g63
NtRp3627
(dp3628
g66
(dp3629
g74
I4
ssg75
Nsg68
(lp3630
g61
(g77
g63
NtRp3631
(dp3632
g66
(dp3633
sg75
g3627
sg68
(lp3634
g61
(g82
g63
NtRp3635
(dp3636
g66
(dp3637
g86
g87
ssg75
g3631
sg68
(lp3638
S'Cache-Control'
p3639
asbag61
(g82
g63
NtRp3640
(dp3641
g66
(dp3642
g93
g94
ssg75
g3631
sg68
(lp3643
S':'
asbag61
(g82
g63
NtRp3644
(dp3645
g66
(dp3646
sg75
g3631
sg68
(lp3647
g61
(g62
g63
NtRp3648
(dp3649
g66
(dp3650
g74
I4
ssg75
g3644
sg68
(lp3651
S'no-store, no-cache, must-revalidate, post-check=0, pre-check=0'
p3652
asbasbasbag61
(g77
g63
NtRp3653
(dp3654
g66
(dp3655
sg75
g3627
sg68
(lp3656
g61
(g82
g63
NtRp3657
(dp3658
g66
(dp3659
g86
g87
ssg75
g3653
sg68
(lp3660
S'Content-Type'
p3661
asbag61
(g82
g63
NtRp3662
(dp3663
g66
(dp3664
g93
g94
ssg75
g3653
sg68
(lp3665
S':'
asbag61
(g82
g63
NtRp3666
(dp3667
g66
(dp3668
sg75
g3653
sg68
(lp3669
g61
(g62
g63
NtRp3670
(dp3671
g66
(dp3672
g74
I4
ssg75
g3666
sg68
(lp3673
S'text/html; charset=utf-8'
p3674
asbasbasbag61
(g77
g63
NtRp3675
(dp3676
g66
(dp3677
sg75
g3627
sg68
(lp3678
g61
(g82
g63
NtRp3679
(dp3680
g66
(dp3681
g86
g87
ssg75
g3675
sg68
(lp3682
S'Expires'
p3683
asbag61
(g82
g63
NtRp3684
(dp3685
g66
(dp3686
g93
g94
ssg75
g3675
sg68
(lp3687
S':'
asbag61
(g82
g63
NtRp3688
(dp3689
g66
(dp3690
sg75
g3675
sg68
(lp3691
g61
(g62
g63
NtRp3692
(dp3693
g66
(dp3694
g74
I4
ssg75
g3688
sg68
(lp3695
S'Mon, 30 Jul 2012 05:09:05 GMT'
p3696
asbasbasbag61
(g77
g63
NtRp3697
(dp3698
g66
(dp3699
sg75
g3627
sg68
(lp3700
g61
(g82
g63
NtRp3701
(dp3702
g66
(dp3703
g86
g87
ssg75
g3697
sg68
(lp3704
S'Pragma'
p3705
asbag61
(g82
g63
NtRp3706
(dp3707
g66
(dp3708
g93
g94
ssg75
g3697
sg68
(lp3709
S':'
asbag61
(g82
g63
NtRp3710
(dp3711
g66
(dp3712
sg75
g3697
sg68
(lp3713
g61
(g62
g63
NtRp3714
(dp3715
g66
(dp3716
g74
I4
ssg75
g3710
sg68
(lp3717
S'no-cache'
p3718
asbasbasbag61
(g77
g63
NtRp3719
(dp3720
g66
(dp3721
sg75
g3627
sg68
(lp3722
g61
(g82
g63
NtRp3723
(dp3724
g66
(dp3725
g86
g87
ssg75
g3719
sg68
(lp3726
S'X-Powered-By'
p3727
asbag61
(g82
g63
NtRp3728
(dp3729
g66
(dp3730
g93
g94
ssg75
g3719
sg68
(lp3731
S':'
asbag61
(g82
g63
NtRp3732
(dp3733
g66
(dp3734
sg75
g3719
sg68
(lp3735
g61
(g62
g63
NtRp3736
(dp3737
g66
(dp3738
g74
I4
ssg75
g3732
sg68
(lp3739
S'web2py'
p3740
asbasbasbasbasbasbasbag61
(g77
g63
NtRp3741
(dp3742
g66
(dp3743
sg75
g3270
sg68
(lp3744
g61
(g82
g63
NtRp3745
(dp3746
g66
(dp3747
g86
g87
ssg75
g3741
sg68
(lp3748
S'menu'
p3749
asbag61
(g82
g63
NtRp3750
(dp3751
g66
(dp3752
g93
g94
ssg75
g3741
sg68
(lp3753
S':'
asbag61
(g82
g63
NtRp3754
(dp3755
g66
(dp3756
sg75
g3741
sg68
(lp3757
g61
(g62
g63
NtRp3758
(dp3759
g66
(dp3760
g74
I5
ssg75
g3754
sg68
(lp3761
g61
(g70
g63
NtRp3762
(dp3763
g66
(dp3764
g74
I4
ssg75
Nsg68
(lp3765
g61
(g77
g63
NtRp3766
(dp3767
g66
(dp3768
sg75
g3762
sg68
(lp3769
g61
(g82
g63
NtRp3770
(dp3771
g66
(dp3772
sg75
g3766
sg68
(lp3773
g61
(g62
g63
NtRp3774
(dp3775
g66
(dp3776
g74
I4
ssg75
g3770
sg68
(lp3777
g61
(g70
g63
NtRp3778
(dp3779
g66
(dp3780
g74
I3
ssg75
Nsg68
(lp3781
g61
(g77
g63
NtRp3782
(dp3783
g66
(dp3784
sg75
g3778
sg68
(lp3785
g61
(g82
g63
NtRp3786
(dp3787
g66
(dp3788
sg75
g3782
sg68
(lp3789
g61
(g62
g63
NtRp3790
(dp3791
g66
(dp3792
g74
I3
ssg75
g3786
sg68
(lp3793
cgluon.languages
lazyT_unpickle
p3794
(S't\x04\x00\x00\x00Home'
tRp3795
asbasbasbag61
(g77
g63
NtRp3796
(dp3797
g66
(dp3798
sg75
g3778
sg68
(lp3799
g61
(g82
g63
NtRp3800
(dp3801
g66
(dp3802
sg75
g3796
sg68
(lp3803
g61
(g62
g63
NtRp3804
(dp3805
g66
(dp3806
g74
I3
ssg75
g3800
sg68
(lp3807
g104
asbasbasbag61
(g77
g63
NtRp3808
(dp3809
g66
(dp3810
sg75
g3778
sg68
(lp3811
g61
(g82
g63
NtRp3812
(dp3813
g66
(dp3814
sg75
g3808
sg68
(lp3815
g61
(g62
g63
NtRp3816
(dp3817
g66
(dp3818
g74
I3
ssg75
g3812
sg68
(lp3819
S'/unioeste_code/default/index'
p3820
asbasbasbag61
(g77
g63
NtRp3821
(dp3822
g66
(dp3823
sg75
g3778
sg68
(lp3824
g61
(g82
g63
NtRp3825
(dp3826
g66
(dp3827
sg75
g3821
sg68
(lp3828
g61
(g62
g63
NtRp3829
(dp3830
g66
(dp3831
g74
I3
ssg75
g3825
sg68
(lp3832
g61
(g70
g63
NtRp3833
(dp3834
g66
(dp3835
g74
I2
ssg75
Nsg68
(lp3836
sbasbasbasbasbasbasbasbag61
(g77
g63
NtRp3837
(dp3838
g66
(dp3839
sg75
g3762
sg68
(lp3840
g61
(g82
g63
NtRp3841
(dp3842
g66
(dp3843
sg75
g3837
sg68
(lp3844
g61
(g62
g63
NtRp3845
(dp3846
g66
(dp3847
g74
I4
ssg75
g3841
sg68
(lp3848
g61
(g70
g63
NtRp3849
(dp3850
g66
(dp3851
g74
I3
ssg75
Nsg68
(lp3852
g61
(g77
g63
NtRp3853
(dp3854
g66
(dp3855
sg75
g3849
sg68
(lp3856
g61
(g82
g63
NtRp3857
(dp3858
g66
(dp3859
sg75
g3853
sg68
(lp3860
g61
(g62
g63
NtRp3861
(dp3862
g66
(dp3863
g74
I3
ssg75
g3857
sg68
(lp3864
g61
(cgluon.html
SPAN
p3865
g63
NtRp3866
(dp3867
g66
(dp3868
g86
S'color:yellow'
p3869
ssg75
Nsg68
(lp3870
g3740
asbasbasbasbag61
(g77
g63
NtRp3871
(dp3872
g66
(dp3873
sg75
g3849
sg68
(lp3874
g61
(g82
g63
NtRp3875
(dp3876
g66
(dp3877
sg75
g3871
sg68
(lp3878
g61
(g62
g63
NtRp3879
(dp3880
g66
(dp3881
g74
I3
ssg75
g3875
sg68
(lp3882
g104
asbasbasbag61
(g77
g63
NtRp3883
(dp3884
g66
(dp3885
sg75
g3849
sg68
(lp3886
g61
(g82
g63
NtRp3887
(dp3888
g66
(dp3889
sg75
g3883
sg68
(lp3890
g61
(g62
g63
NtRp3891
(dp3892
g66
(dp3893
g74
I3
ssg75
g3887
sg68
(lp3894
S'None'
p3895
asbasbasbag61
(g77
g63
NtRp3896
(dp3897
g66
(dp3898
sg75
g3849
sg68
(lp3899
g61
(g82
g63
NtRp3900
(dp3901
g66
(dp3902
sg75
g3896
sg68
(lp3903
g61
(g62
g63
NtRp3904
(dp3905
g66
(dp3906
g74
I3
ssg75
g3900
sg68
(lp3907
g61
(g70
g63
NtRp3908
(dp3909
g66
(dp3910
g74
I2
ssg75
Nsg68
(lp3911
g61
(g77
g63
NtRp3912
(dp3913
g66
(dp3914
sg75
g3908
sg68
(lp3915
g61
(g82
g63
NtRp3916
(dp3917
g66
(dp3918
sg75
g3912
sg68
(lp3919
g61
(g62
g63
NtRp3920
(dp3921
g66
(dp3922
g74
I2
ssg75
g3916
sg68
(lp3923
g61
(g70
g63
NtRp3924
(dp3925
g66
(dp3926
g74
I1
ssg75
Nsg68
(lp3927
g61
(g77
g63
NtRp3928
(dp3929
g66
(dp3930
sg75
g3924
sg68
(lp3931
g61
(g82
g63
NtRp3932
(dp3933
g66
(dp3934
sg75
g3928
sg68
(lp3935
g61
(g62
g63
NtRp3936
(dp3937
g66
(dp3938
g74
I1
ssg75
g3932
sg68
(lp3939
g3794
(S's\x08\x00\x00\x00My Sites'
tRp3940
asbasbasbag61
(g77
g63
NtRp3941
(dp3942
g66
(dp3943
sg75
g3924
sg68
(lp3944
g61
(g82
g63
NtRp3945
(dp3946
g66
(dp3947
sg75
g3941
sg68
(lp3948
g61
(g62
g63
NtRp3949
(dp3950
g66
(dp3951
g74
I1
ssg75
g3945
sg68
(lp3952
I00
asbasbasbag61
(g77
g63
NtRp3953
(dp3954
g66
(dp3955
sg75
g3924
sg68
(lp3956
g61
(g82
g63
NtRp3957
(dp3958
g66
(dp3959
sg75
g3953
sg68
(lp3960
g61
(g62
g63
NtRp3961
(dp3962
g66
(dp3963
g74
I1
ssg75
g3957
sg68
(lp3964
S'/admin/default/site'
p3965
asbasbasbasbasbasbasbag61
(g77
g63
NtRp3966
(dp3967
g66
(dp3968
sg75
g3908
sg68
(lp3969
g61
(g82
g63
NtRp3970
(dp3971
g66
(dp3972
sg75
g3966
sg68
(lp3973
g61
(g62
g63
NtRp3974
(dp3975
g66
(dp3976
g74
I2
ssg75
g3970
sg68
(lp3977
g61
(g70
g63
NtRp3978
(dp3979
g66
(dp3980
g74
I1
ssg75
Nsg68
(lp3981
g61
(g77
g63
NtRp3982
(dp3983
g66
(dp3984
sg75
g3978
sg68
(lp3985
g61
(g82
g63
NtRp3986
(dp3987
g66
(dp3988
sg75
g3982
sg68
(lp3989
g61
(g62
g63
NtRp3990
(dp3991
g66
(dp3992
g74
I1
ssg75
g3986
sg68
(lp3993
g3794
(S's\x08\x00\x00\x00This App'
tRp3994
asbasbasbag61
(g77
g63
NtRp3995
(dp3996
g66
(dp3997
sg75
g3978
sg68
(lp3998
g61
(g82
g63
NtRp3999
(dp4000
g66
(dp4001
sg75
g3995
sg68
(lp4002
g61
(g62
g63
NtRp4003
(dp4004
g66
(dp4005
g74
I1
ssg75
g3999
sg68
(lp4006
I00
asbasbasbag61
(g77
g63
NtRp4007
(dp4008
g66
(dp4009
sg75
g3978
sg68
(lp4010
g61
(g82
g63
NtRp4011
(dp4012
g66
(dp4013
sg75
g4007
sg68
(lp4014
g61
(g62
g63
NtRp4015
(dp4016
g66
(dp4017
g74
I1
ssg75
g4011
sg68
(lp4018
S'/admin/default/design/unioeste_code'
p4019
asbasbasbag61
(g77
g63
NtRp4020
(dp4021
g66
(dp4022
sg75
g3978
sg68
(lp4023
g61
(g82
g63
NtRp4024
(dp4025
g66
(dp4026
sg75
g4020
sg68
(lp4027
g61
(g62
g63
NtRp4028
(dp4029
g66
(dp4030
g74
I1
ssg75
g4024
sg68
(lp4031
(lp4032
(g3794
(S't\x0b\x00\x00\x00Controlador'
tRp4033
I00
S'/admin/default/edit/unioeste_code/controllers/default.py'
tp4034
a(g3794
(S's\x0e\x00\x00\x00Visualiza\xc3\xa7\xc3\xa3o'
tRp4035
I00
S'/admin/default/edit/unioeste_code/views/default/Code.html'
tp4036
a(g3794
(S't\x06\x00\x00\x00Layout'
tRp4037
I00
S'/admin/default/edit/unioeste_code/views/layout.html'
tp4038
a(g3794
(S't\n\x00\x00\x00Stylesheet'
tRp4039
I00
S'/admin/default/edit/unioeste_code/static/css/web2py.css'
tp4040
a(g3794
(S's\t\x00\x00\x00Modelo BD'
tRp4041
I00
S'/admin/default/edit/unioeste_code/models/db.py'
tp4042
a(g3794
(S's\x0e\x00\x00\x00Modelo de Menu'
tRp4043
I00
S'/admin/default/edit/unioeste_code/models/menu.py'
tp4044
a(g3794
(S's\x0e\x00\x00\x00Banco de dados'
tRp4045
I00
S'/unioeste_code/appadmin/index'
tp4046
a(g3794
(S't\x06\x00\x00\x00Errors'
tRp4047
I00
S'/admin/default/errors/unioeste_code'
tp4048
a(g3794
(S't\x05\x00\x00\x00About'
tRp4049
I00
S'/admin/default/about/unioeste_code'
tp4050
aasbasbasbasbasbasbasbag61
(g77
g63
NtRp4051
(dp4052
g66
(dp4053
sg75
g3908
sg68
(lp4054
g61
(g82
g63
NtRp4055
(dp4056
g66
(dp4057
sg75
g4051
sg68
(lp4058
g61
(g62
g63
NtRp4059
(dp4060
g66
(dp4061
g74
I2
ssg75
g4055
sg68
(lp4062
g61
(g70
g63
NtRp4063
(dp4064
g66
(dp4065
g74
I1
ssg75
Nsg68
(lp4066
g61
(g77
g63
NtRp4067
(dp4068
g66
(dp4069
sg75
g4063
sg68
(lp4070
g61
(g82
g63
NtRp4071
(dp4072
g66
(dp4073
sg75
g4067
sg68
(lp4074
g61
(g62
g63
NtRp4075
(dp4076
g66
(dp4077
g74
I1
ssg75
g4071
sg68
(lp4078
S'web2py.com'
p4079
asbasbasbag61
(g77
g63
NtRp4080
(dp4081
g66
(dp4082
sg75
g4063
sg68
(lp4083
g61
(g82
g63
NtRp4084
(dp4085
g66
(dp4086
sg75
g4080
sg68
(lp4087
g61
(g62
g63
NtRp4088
(dp4089
g66
(dp4090
g74
I1
ssg75
g4084
sg68
(lp4091
I00
asbasbasbag61
(g77
g63
NtRp4092
(dp4093
g66
(dp4094
sg75
g4063
sg68
(lp4095
g61
(g82
g63
NtRp4096
(dp4097
g66
(dp4098
sg75
g4092
sg68
(lp4099
g61
(g62
g63
NtRp4100
(dp4101
g66
(dp4102
g74
I1
ssg75
g4096
sg68
(lp4103
S'http://www.web2py.com'
p4104
asbasbasbag61
(g77
g63
NtRp4105
(dp4106
g66
(dp4107
sg75
g4063
sg68
(lp4108
g61
(g82
g63
NtRp4109
(dp4110
g66
(dp4111
sg75
g4105
sg68
(lp4112
g61
(g62
g63
NtRp4113
(dp4114
g66
(dp4115
g74
I1
ssg75
g4109
sg68
(lp4116
(lp4117
(g3794
(S't\x08\x00\x00\x00Download'
tRp4118
I00
S'http://www.web2py.com/examples/default/download'
p4119
tp4120
a(g3794
(S't\x07\x00\x00\x00Support'
tRp4121
I00
S'http://www.web2py.com/examples/default/support'
p4122
tp4123
a(g3794
(S't\x04\x00\x00\x00Demo'
tRp4124
I00
S'http://web2py.com/demo_admin'
p4125
tp4126
a(g3794
(S's\x0e\x00\x00\x00Quick Examples'
tRp4127
I00
S'http://web2py.com/examples/default/examples'
p4128
tp4129
a(g3794
(S't\x03\x00\x00\x00FAQ'
tRp4130
I00
S'http://web2py.com/AlterEgo'
p4131
tp4132
a(g3794
(S't\x06\x00\x00\x00Videos'
tRp4133
I00
S'http://www.web2py.com/examples/default/videos/'
p4134
tp4135
a(g3794
(S's\x11\x00\x00\x00Free Applications'
tRp4136
I00
S'http://web2py.com/appliances'
p4137
tp4138
a(g3794
(S't\x07\x00\x00\x00Plugins'
tRp4139
I00
S'http://web2py.com/plugins'
p4140
tp4141
a(g3794
(S't\x07\x00\x00\x00Layouts'
tRp4142
I00
S'http://web2py.com/layouts'
p4143
tp4144
a(g3794
(S't\x07\x00\x00\x00Recipes'
tRp4145
I00
S'http://web2pyslices.com/'
p4146
tp4147
a(g3794
(S't\x08\x00\x00\x00Semantic'
tRp4148
I00
S'http://web2py.com/semantic'
p4149
tp4150
aasbasbasbasbasbasbasbag61
(g77
g63
NtRp4151
(dp4152
g66
(dp4153
sg75
g3908
sg68
(lp4154
g61
(g82
g63
NtRp4155
(dp4156
g66
(dp4157
sg75
g4151
sg68
(lp4158
g61
(g62
g63
NtRp4159
(dp4160
g66
(dp4161
g74
I2
ssg75
g4155
sg68
(lp4162
g61
(g70
g63
NtRp4163
(dp4164
g66
(dp4165
g74
I1
ssg75
Nsg68
(lp4166
g61
(g77
g63
NtRp4167
(dp4168
g66
(dp4169
sg75
g4163
sg68
(lp4170
g61
(g82
g63
NtRp4171
(dp4172
g66
(dp4173
sg75
g4167
sg68
(lp4174
g61
(g62
g63
NtRp4175
(dp4176
g66
(dp4177
g74
I1
ssg75
g4171
sg68
(lp4178
g3794
(S't\r\x00\x00\x00Documentation'
tRp4179
asbasbasbag61
(g77
g63
NtRp4180
(dp4181
g66
(dp4182
sg75
g4163
sg68
(lp4183
g61
(g82
g63
NtRp4184
(dp4185
g66
(dp4186
sg75
g4180
sg68
(lp4187
g61
(g62
g63
NtRp4188
(dp4189
g66
(dp4190
g74
I1
ssg75
g4184
sg68
(lp4191
I00
asbasbasbag61
(g77
g63
NtRp4192
(dp4193
g66
(dp4194
sg75
g4163
sg68
(lp4195
g61
(g82
g63
NtRp4196
(dp4197
g66
(dp4198
sg75
g4192
sg68
(lp4199
g61
(g62
g63
NtRp4200
(dp4201
g66
(dp4202
g74
I1
ssg75
g4196
sg68
(lp4203
S'http://www.web2py.com/book'
p4204
asbasbasbag61
(g77
g63
NtRp4205
(dp4206
g66
(dp4207
sg75
g4163
sg68
(lp4208
g61
(g82
g63
NtRp4209
(dp4210
g66
(dp4211
sg75
g4205
sg68
(lp4212
g61
(g62
g63
NtRp4213
(dp4214
g66
(dp4215
g74
I1
ssg75
g4209
sg68
(lp4216
(lp4217
(g3794
(S't\x07\x00\x00\x00Preface'
tRp4218
I00
S'http://www.web2py.com/book/default/chapter/00'
p4219
tp4220
a(g3794
(S't\x0c\x00\x00\x00Introduction'
tRp4221
I00
S'http://www.web2py.com/book/default/chapter/01'
p4222
tp4223
a(g3794
(S't\x06\x00\x00\x00Python'
tRp4224
I00
S'http://www.web2py.com/book/default/chapter/02'
p4225
tp4226
a(g3794
(S't\x08\x00\x00\x00Overview'
tRp4227
I00
S'http://www.web2py.com/book/default/chapter/03'
p4228
tp4229
a(g3794
(S's\x08\x00\x00\x00The Core'
tRp4230
I00
S'http://www.web2py.com/book/default/chapter/04'
p4231
tp4232
a(g3794
(S's\t\x00\x00\x00The Views'
tRp4233
I00
S'http://www.web2py.com/book/default/chapter/05'
p4234
tp4235
a(g3794
(S's\x0e\x00\x00\x00Banco de dados'
tRp4236
I00
S'http://www.web2py.com/book/default/chapter/06'
p4237
tp4238
a(g3794
(S's\x14\x00\x00\x00Forms and Validators'
tRp4239
I00
S'http://www.web2py.com/book/default/chapter/07'
p4240
tp4241
a(g3794
(S's\r\x00\x00\x00Email and SMS'
tRp4242
I00
S'http://www.web2py.com/book/default/chapter/08'
p4243
tp4244
a(g3794
(S's\x0e\x00\x00\x00Access Control'
tRp4245
I00
S'http://www.web2py.com/book/default/chapter/09'
p4246
tp4247
a(g3794
(S't\x08\x00\x00\x00Services'
tRp4248
I00
S'http://www.web2py.com/book/default/chapter/10'
p4249
tp4250
a(g3794
(S's\x0c\x00\x00\x00Ajax Recipes'
tRp4251
I00
S'http://www.web2py.com/book/default/chapter/11'
p4252
tp4253
a(g3794
(S's\x16\x00\x00\x00Components and Plugins'
tRp4254
I00
S'http://www.web2py.com/book/default/chapter/12'
p4255
tp4256
a(g3794
(S's\x12\x00\x00\x00Deployment Recipes'
tRp4257
I00
S'http://www.web2py.com/book/default/chapter/13'
p4258
tp4259
a(g3794
(S's\r\x00\x00\x00Other Recipes'
tRp4260
I00
S'http://www.web2py.com/book/default/chapter/14'
p4261
tp4262
a(g3794
(S's\r\x00\x00\x00Buy this book'
tRp4263
I00
S'http://stores.lulu.com/web2py'
p4264
tp4265
aasbasbasbasbasbasbasbag61
(g77
g63
NtRp4266
(dp4267
g66
(dp4268
sg75
g3908
sg68
(lp4269
g61
(g82
g63
NtRp4270
(dp4271
g66
(dp4272
sg75
g4266
sg68
(lp4273
g61
(g62
g63
NtRp4274
(dp4275
g66
(dp4276
g74
I2
ssg75
g4270
sg68
(lp4277
g61
(g70
g63
NtRp4278
(dp4279
g66
(dp4280
g74
I1
ssg75
Nsg68
(lp4281
g61
(g77
g63
NtRp4282
(dp4283
g66
(dp4284
sg75
g4278
sg68
(lp4285
g61
(g82
g63
NtRp4286
(dp4287
g66
(dp4288
sg75
g4282
sg68
(lp4289
g61
(g62
g63
NtRp4290
(dp4291
g66
(dp4292
g74
I1
ssg75
g4286
sg68
(lp4293
g3794
(S't\t\x00\x00\x00Community'
tRp4294
asbasbasbag61
(g77
g63
NtRp4295
(dp4296
g66
(dp4297
sg75
g4278
sg68
(lp4298
g61
(g82
g63
NtRp4299
(dp4300
g66
(dp4301
sg75
g4295
sg68
(lp4302
g61
(g62
g63
NtRp4303
(dp4304
g66
(dp4305
g74
I1
ssg75
g4299
sg68
(lp4306
I00
asbasbasbag61
(g77
g63
NtRp4307
(dp4308
g66
(dp4309
sg75
g4278
sg68
(lp4310
g61
(g82
g63
NtRp4311
(dp4312
g66
(dp4313
sg75
g4307
sg68
(lp4314
g61
(g62
g63
NtRp4315
(dp4316
g66
(dp4317
g74
I1
ssg75
g4311
sg68
(lp4318
Nasbasbasbag61
(g77
g63
NtRp4319
(dp4320
g66
(dp4321
sg75
g4278
sg68
(lp4322
g61
(g82
g63
NtRp4323
(dp4324
g66
(dp4325
sg75
g4319
sg68
(lp4326
g61
(g62
g63
NtRp4327
(dp4328
g66
(dp4329
g74
I1
ssg75
g4323
sg68
(lp4330
(lp4331
(g3794
(S't\x06\x00\x00\x00Groups'
tRp4332
I00
S'http://www.web2py.com/examples/default/usergroups'
p4333
tp4334
a(g3794
(S't\x07\x00\x00\x00Twitter'
tRp4335
I00
S'http://twitter.com/web2py'
p4336
tp4337
a(g3794
(S's\t\x00\x00\x00Live Chat'
tRp4338
I00
S'http://webchat.freenode.net/?channels=web2py'
p4339
tp4340
aasbasbasbasbasbasbasbag61
(g77
g63
NtRp4341
(dp4342
g66
(dp4343
sg75
g3908
sg68
(lp4344
g61
(g82
g63
NtRp4345
(dp4346
g66
(dp4347
sg75
g4341
sg68
(lp4348
g61
(g62
g63
NtRp4349
(dp4350
g66
(dp4351
g74
I2
ssg75
g4345
sg68
(lp4352
g61
(g70
g63
NtRp4353
(dp4354
g66
(dp4355
g74
I1
ssg75
Nsg68
(lp4356
g61
(g77
g63
NtRp4357
(dp4358
g66
(dp4359
sg75
g4353
sg68
(lp4360
g61
(g82
g63
NtRp4361
(dp4362
g66
(dp4363
sg75
g4357
sg68
(lp4364
g61
(g62
g63
NtRp4365
(dp4366
g66
(dp4367
g74
I1
ssg75
g4361
sg68
(lp4368
g3794
(S't\x07\x00\x00\x00Plugins'
tRp4369
asbasbasbag61
(g77
g63
NtRp4370
(dp4371
g66
(dp4372
sg75
g4353
sg68
(lp4373
g61
(g82
g63
NtRp4374
(dp4375
g66
(dp4376
sg75
g4370
sg68
(lp4377
g61
(g62
g63
NtRp4378
(dp4379
g66
(dp4380
g74
I1
ssg75
g4374
sg68
(lp4381
I00
asbasbasbag61
(g77
g63
NtRp4382
(dp4383
g66
(dp4384
sg75
g4353
sg68
(lp4385
g61
(g82
g63
NtRp4386
(dp4387
g66
(dp4388
sg75
g4382
sg68
(lp4389
g61
(g62
g63
NtRp4390
(dp4391
g66
(dp4392
g74
I1
ssg75
g4386
sg68
(lp4393
Nasbasbasbag61
(g77
g63
NtRp4394
(dp4395
g66
(dp4396
sg75
g4353
sg68
(lp4397
g61
(g82
g63
NtRp4398
(dp4399
g66
(dp4400
sg75
g4394
sg68
(lp4401
g61
(g62
g63
NtRp4402
(dp4403
g66
(dp4404
g74
I1
ssg75
g4398
sg68
(lp4405
(lp4406
(S'plugin_wiki'
p4407
I00
S'http://web2py.com/examples/default/download'
p4408
tp4409
a(g3794
(S's\r\x00\x00\x00Other Plugins'
tRp4410
I00
g4140
tp4411
a(g3794
(S's\x0e\x00\x00\x00Layout Plugins'
tRp4412
I00
g4143
tp4413
aasbasbasbasbasbasbasbasbasbasbasbasbasbasbasbasbasbasbasbag61
(g77
g63
NtRp4414
(dp4415
g66
(dp4416
sg75
g3270
sg68
(lp4417
g61
(g82
g63
NtRp4418
(dp4419
g66
(dp4420
g86
g87
ssg75
g4414
sg68
(lp4421
S'meta'
p4422
asbag61
(g82
g63
NtRp4423
(dp4424
g66
(dp4425
g93
g94
ssg75
g4414
sg68
(lp4426
S':'
asbag61
(g82
g63
NtRp4427
(dp4428
g66
(dp4429
sg75
g4414
sg68
(lp4430
g61
(g62
g63
NtRp4431
(dp4432
g66
(dp4433
g74
I5
ssg75
g4427
sg68
(lp4434
g61
(g70
g63
NtRp4435
(dp4436
g66
(dp4437
g74
I4
ssg75
Nsg68
(lp4438
g61
(g77
g63
NtRp4439
(dp4440
g66
(dp4441
sg75
g4435
sg68
(lp4442
g61
(g82
g63
NtRp4443
(dp4444
g66
(dp4445
g86
g87
ssg75
g4439
sg68
(lp4446
S'author'
p4447
asbag61
(g82
g63
NtRp4448
(dp4449
g66
(dp4450
g93
g94
ssg75
g4439
sg68
(lp4451
S':'
asbag61
(g82
g63
NtRp4452
(dp4453
g66
(dp4454
sg75
g4439
sg68
(lp4455
g61
(g62
g63
NtRp4456
(dp4457
g66
(dp4458
g74
I4
ssg75
g4452
sg68
(lp4459
S'Your Name <you@example.com>'
p4460
asbasbasbag61
(g77
g63
NtRp4461
(dp4462
g66
(dp4463
sg75
g4435
sg68
(lp4464
g61
(g82
g63
NtRp4465
(dp4466
g66
(dp4467
g86
g87
ssg75
g4461
sg68
(lp4468
S'copyright'
p4469
asbag61
(g82
g63
NtRp4470
(dp4471
g66
(dp4472
g93
g94
ssg75
g4461
sg68
(lp4473
S':'
asbag61
(g82
g63
NtRp4474
(dp4475
g66
(dp4476
sg75
g4461
sg68
(lp4477
g61
(g62
g63
NtRp4478
(dp4479
g66
(dp4480
g74
I4
ssg75
g4474
sg68
(lp4481
S'Copyright 2011'
p4482
asbasbasbag61
(g77
g63
NtRp4483
(dp4484
g66
(dp4485
sg75
g4435
sg68
(lp4486
g61
(g82
g63
NtRp4487
(dp4488
g66
(dp4489
g86
g87
ssg75
g4483
sg68
(lp4490
S'description'
p4491
asbag61
(g82
g63
NtRp4492
(dp4493
g66
(dp4494
g93
g94
ssg75
g4483
sg68
(lp4495
S':'
asbag61
(g82
g63
NtRp4496
(dp4497
g66
(dp4498
sg75
g4483
sg68
(lp4499
g61
(g62
g63
NtRp4500
(dp4501
g66
(dp4502
g74
I4
ssg75
g4496
sg68
(lp4503
S'a cool new app'
p4504
asbasbasbag61
(g77
g63
NtRp4505
(dp4506
g66
(dp4507
sg75
g4435
sg68
(lp4508
g61
(g82
g63
NtRp4509
(dp4510
g66
(dp4511
g86
g87
ssg75
g4505
sg68
(lp4512
S'generator'
p4513
asbag61
(g82
g63
NtRp4514
(dp4515
g66
(dp4516
g93
g94
ssg75
g4505
sg68
(lp4517
S':'
asbag61
(g82
g63
NtRp4518
(dp4519
g66
(dp4520
sg75
g4505
sg68
(lp4521
g61
(g62
g63
NtRp4522
(dp4523
g66
(dp4524
g74
I4
ssg75
g4518
sg68
(lp4525
S'Web2py Web Framework'
p4526
asbasbasbag61
(g77
g63
NtRp4527
(dp4528
g66
(dp4529
sg75
g4435
sg68
(lp4530
g61
(g82
g63
NtRp4531
(dp4532
g66
(dp4533
g86
g87
ssg75
g4527
sg68
(lp4534
S'keywords'
p4535
asbag61
(g82
g63
NtRp4536
(dp4537
g66
(dp4538
g93
g94
ssg75
g4527
sg68
(lp4539
S':'
asbag61
(g82
g63
NtRp4540
(dp4541
g66
(dp4542
sg75
g4527
sg68
(lp4543
g61
(g62
g63
NtRp4544
(dp4545
g66
(dp4546
g74
I4
ssg75
g4540
sg68
(lp4547
S'web2py, python, framework'
p4548
asbasbasbasbasbasbasbag61
(g77
g63
NtRp4549
(dp4550
g66
(dp4551
sg75
g3270
sg68
(lp4552
g61
(g82
g63
NtRp4553
(dp4554
g66
(dp4555
g86
g87
ssg75
g4549
sg68
(lp4556
S'postprocessing'
p4557
asbag61
(g82
g63
NtRp4558
(dp4559
g66
(dp4560
g93
g94
ssg75
g4549
sg68
(lp4561
S':'
asbag61
(g82
g63
NtRp4562
(dp4563
g66
(dp4564
sg75
g4549
sg68
(lp4565
g61
(g62
g63
NtRp4566
(dp4567
g66
(dp4568
g74
I5
ssg75
g4562
sg68
(lp4569
g61
(g70
g63
NtRp4570
(dp4571
g66
(dp4572
g74
I4
ssg75
Nsg68
(lp4573
sbasbasbasbag61
(g77
g63
NtRp4574
(dp4575
g66
(dp4576
sg75
g3270
sg68
(lp4577
g61
(g82
g63
NtRp4578
(dp4579
g66
(dp4580
g86
g87
ssg75
g4574
sg68
(lp4581
S'session_file'
p4582
asbag61
(g82
g63
NtRp4583
(dp4584
g66
(dp4585
g93
g94
ssg75
g4574
sg68
(lp4586
S':'
asbag61
(g82
g63
NtRp4587
(dp4588
g66
(dp4589
sg75
g4574
sg68
(lp4590
g61
(g62
g63
NtRp4591
(dp4592
g66
(dp4593
g74
I5
ssg75
g4587
sg68
(lp4594
S"<open file 'C:\\web2py\\applications\\unioeste_code\\sessions\\127.0.0.1-ac0e57bf-2a61-4ff7-b75a-c2e830b4787a', mode 'rb+' at 0x061B4F08>"
p4595
asbasbasbag61
(g77
g63
NtRp4596
(dp4597
g66
(dp4598
sg75
g3270
sg68
(lp4599
g61
(g82
g63
NtRp4600
(dp4601
g66
(dp4602
g86
g87
ssg75
g4596
sg68
(lp4603
S'session_filename'
p4604
asbag61
(g82
g63
NtRp4605
(dp4606
g66
(dp4607
g93
g94
ssg75
g4596
sg68
(lp4608
S':'
asbag61
(g82
g63
NtRp4609
(dp4610
g66
(dp4611
sg75
g4596
sg68
(lp4612
g61
(g62
g63
NtRp4613
(dp4614
g66
(dp4615
g74
I5
ssg75
g4609
sg68
(lp4616
S'C:\\web2py\\applications\\unioeste_code\\sessions\\127.0.0.1-ac0e57bf-2a61-4ff7-b75a-c2e830b4787a'
p4617
asbasbasbag61
(g77
g63
NtRp4618
(dp4619
g66
(dp4620
sg75
g3270
sg68
(lp4621
g61
(g82
g63
NtRp4622
(dp4623
g66
(dp4624
g86
g87
ssg75
g4618
sg68
(lp4625
S'session_id'
p4626
asbag61
(g82
g63
NtRp4627
(dp4628
g66
(dp4629
g93
g94
ssg75
g4618
sg68
(lp4630
S':'
asbag61
(g82
g63
NtRp4631
(dp4632
g66
(dp4633
sg75
g4618
sg68
(lp4634
g61
(g62
g63
NtRp4635
(dp4636
g66
(dp4637
g74
I5
ssg75
g4631
sg68
(lp4638
S'127.0.0.1-ac0e57bf-2a61-4ff7-b75a-c2e830b4787a'
p4639
asbasbasbag61
(g77
g63
NtRp4640
(dp4641
g66
(dp4642
sg75
g3270
sg68
(lp4643
g61
(g82
g63
NtRp4644
(dp4645
g66
(dp4646
g86
g87
ssg75
g4640
sg68
(lp4647
S'session_id_name'
p4648
asbag61
(g82
g63
NtRp4649
(dp4650
g66
(dp4651
g93
g94
ssg75
g4640
sg68
(lp4652
S':'
asbag61
(g82
g63
NtRp4653
(dp4654
g66
(dp4655
sg75
g4640
sg68
(lp4656
g61
(g62
g63
NtRp4657
(dp4658
g66
(dp4659
g74
I5
ssg75
g4653
sg68
(lp4660
g3327
asbasbasbag61
(g77
g63
NtRp4661
(dp4662
g66
(dp4663
sg75
g3270
sg68
(lp4664
g61
(g82
g63
NtRp4665
(dp4666
g66
(dp4667
g86
g87
ssg75
g4661
sg68
(lp4668
S'session_locked'
p4669
asbag61
(g82
g63
NtRp4670
(dp4671
g66
(dp4672
g93
g94
ssg75
g4661
sg68
(lp4673
S':'
asbag61
(g82
g63
NtRp4674
(dp4675
g66
(dp4676
sg75
g4661
sg68
(lp4677
g61
(g62
g63
NtRp4678
(dp4679
g66
(dp4680
g74
I5
ssg75
g4674
sg68
(lp4681
g1489
asbasbasbag61
(g77
g63
NtRp4682
(dp4683
g66
(dp4684
sg75
g3270
sg68
(lp4685
g61
(g82
g63
NtRp4686
(dp4687
g66
(dp4688
g86
g87
ssg75
g4682
sg68
(lp4689
S'session_new'
p4690
asbag61
(g82
g63
NtRp4691
(dp4692
g66
(dp4693
g93
g94
ssg75
g4682
sg68
(lp4694
S':'
asbag61
(g82
g63
NtRp4695
(dp4696
g66
(dp4697
sg75
g4682
sg68
(lp4698
g61
(g62
g63
NtRp4699
(dp4700
g66
(dp4701
g74
I5
ssg75
g4695
sg68
(lp4702
g104
asbasbasbag61
(g77
g63
NtRp4703
(dp4704
g66
(dp4705
sg75
g3270
sg68
(lp4706
g61
(g82
g63
NtRp4707
(dp4708
g66
(dp4709
g86
g87
ssg75
g4703
sg68
(lp4710
S'status'
p4711
asbag61
(g82
g63
NtRp4712
(dp4713
g66
(dp4714
g93
g94
ssg75
g4703
sg68
(lp4715
S':'
asbag61
(g82
g63
NtRp4716
(dp4717
g66
(dp4718
sg75
g4703
sg68
(lp4719
g61
(g62
g63
NtRp4720
(dp4721
g66
(dp4722
g74
I5
ssg75
g4716
sg68
(lp4723
S'200'
p4724
asbasbasbag61
(g77
g63
NtRp4725
(dp4726
g66
(dp4727
sg75
g3270
sg68
(lp4728
g61
(g82
g63
NtRp4729
(dp4730
g66
(dp4731
g86
g87
ssg75
g4725
sg68
(lp4732
S'subtitle'
p4733
asbag61
(g82
g63
NtRp4734
(dp4735
g66
(dp4736
g93
g94
ssg75
g4725
sg68
(lp4737
S':'
asbag61
(g82
g63
NtRp4738
(dp4739
g66
(dp4740
sg75
g4725
sg68
(lp4741
g61
(g62
g63
NtRp4742
(dp4743
g66
(dp4744
g74
I5
ssg75
g4738
sg68
(lp4745
g3794
(S's\x0f\x00\x00\x00Personalize-me!'
tRp4746
asbasbasbag61
(g77
g63
NtRp4747
(dp4748
g66
(dp4749
sg75
g3270
sg68
(lp4750
g61
(g82
g63
NtRp4751
(dp4752
g66
(dp4753
g86
g87
ssg75
g4747
sg68
(lp4754
S'title'
p4755
asbag61
(g82
g63
NtRp4756
(dp4757
g66
(dp4758
g93
g94
ssg75
g4747
sg68
(lp4759
S':'
asbag61
(g82
g63
NtRp4760
(dp4761
g66
(dp4762
sg75
g4747
sg68
(lp4763
g61
(g62
g63
NtRp4764
(dp4765
g66
(dp4766
g74
I5
ssg75
g4760
sg68
(lp4767
S'Unioeste Code'
p4768
asbasbasbag61
(g77
g63
NtRp4769
(dp4770
g66
(dp4771
sg75
g3270
sg68
(lp4772
g61
(g82
g63
NtRp4773
(dp4774
g66
(dp4775
g86
g87
ssg75
g4769
sg68
(lp4776
g2174
asbag61
(g82
g63
NtRp4777
(dp4778
g66
(dp4779
g93
g94
ssg75
g4769
sg68
(lp4780
S':'
asbag61
(g82
g63
NtRp4781
(dp4782
g66
(dp4783
sg75
g4769
sg68
(lp4784
g61
(g62
g63
NtRp4785
(dp4786
g66
(dp4787
g74
I5
ssg75
g4781
sg68
(lp4788
g2187
asbasbasbag61
(g77
g63
NtRp4789
(dp4790
g66
(dp4791
sg75
g3270
sg68
(lp4792
g61
(g82
g63
NtRp4793
(dp4794
g66
(dp4795
g86
g87
ssg75
g4789
sg68
(lp4796
S'view'
p4797
asbag61
(g82
g63
NtRp4798
(dp4799
g66
(dp4800
g93
g94
ssg75
g4789
sg68
(lp4801
S':'
asbag61
(g82
g63
NtRp4802
(dp4803
g66
(dp4804
sg75
g4789
sg68
(lp4805
g61
(g62
g63
NtRp4806
(dp4807
g66
(dp4808
g74
I5
ssg75
g4802
sg68
(lp4809
S'default/Code.html'
p4810
asbasbasbasbasbsS'locals'
p4811
(dp4812
g4
S"r'C:\\web2py\\applications\\unioeste_code\\views\\default/Code.html'"
p4813
sg6
S'"response.write(\' \', escape=False)\\nresponse.write...ponse.write(\'\\\\n</body>\\\\n</html>\\\\n\', escape=False)"'
p4814
sssS'traceback'
p4815
S'Traceback (most recent call last):\n  File "gluon/restricted.py", line 204, in restricted\n  File "gluon/restricted.py", line 189, in compile2\n  File "C:\\web2py\\applications\\unioeste_code\\views\\default/Code.html", line 89\n    response.write(H1(T("Solution by ") {{=shortify(author))\n                                        ^\nSyntaxError: invalid syntax\n'
p4816
s.