(dp1
S'output'
p2
S"<type 'exceptions.ImportError'> No module named __init__"
p3
sS'layer'
p4
S'C:\\web2py\\applications\\unioeste_code\\views\\default/Code.html'
p5
sS'code'
p6
S'response.write(\' \', escape=False)\nresponse.write(\'<!DOCTYPE html>\\n<!-- paulirish.com/2008/conditional-stylesheets-vs-css-hacks-answer-neither/ -->\\n<!--[if lt IE 7]><html class="ie ie6 ie-lte9 ie-lte8 ie-lte7 no-js" lang="\', escape=False)\nresponse.write(T.accepted_language or \'en\')\nresponse.write(\'"> <![endif]-->\\n<!--[if IE 7]><html class="ie ie7 ie-lte9 ie-lte8 ie-lte7 no-js" lang="\', escape=False)\nresponse.write(T.accepted_language or \'en\')\nresponse.write(\'"> <![endif]-->\\n<!--[if IE 8]><html class="ie ie8 ie-lte9 ie-lte8 no-js" lang="\', escape=False)\nresponse.write(T.accepted_language or \'en\')\nresponse.write(\'"> <![endif]-->\\n<!--[if IE 9]><html class="ie9 ie-lte9 no-js" lang="\', escape=False)\nresponse.write(T.accepted_language or \'en\')\nresponse.write(\'"> <![endif]-->\\n<!--[if (gt IE 9)|!(IE)]><!--> <html class="no-js" lang="\', escape=False)\nresponse.write(T.accepted_language or \'en\')\nresponse.write(\'"> <!--<![endif]-->\\n<head>\\n  <meta charset="utf-8" />\\n  <!-- www.phpied.com/conditional-comments-block-downloads/ -->\\n  <!-- Always force latest IE rendering engine\\n\\t   (even in intranet) & Chrome Frame\\n\\t   Remove this if you use the .htaccess -->\\n  <!--[if IE]>\\n    <meta http-equiv="X-UA-Compatible" content="IE=edge\', escape=False)\nresponse.write(not request.is_local and \',chrome=1\' or \'\')\nresponse.write(\'">\\n  <![endif]-->\\n  \\n  <title>\', escape=False)\nresponse.write(response.title or request.application)\nresponse.write(\'</title>\\n  \\n  <!-- http://dev.w3.org/html5/markup/meta.name.html -->\\n  <meta name="application-name" content="\', escape=False)\nresponse.write(request.application)\nresponse.write(\'" />\\n  \\n  <!-- Speaking of Google, don\\\'t forget to set your site up:\\n\\t   http://google.com/webmasters -->\\n  <meta name="google-site-verification" content="" />\\n\\n  <!--  Mobile Viewport Fix\\n\\t  j.mp/mobileviewport & davidbcalhoun.com/2010/viewport-metatag\\n\\t  device-width: Occupy full width of the screen in its current orientation\\n\\t  initial-scale = 1.0 retains dimensions instead of zooming out if page height > device height\\n\\t  user-scalable = yes allows the user to zoom in -->\\n  <meta name="viewport" content="width=device-width, initial-scale=1.0, user-scalable=yes">\\n  \\n  <!-- Place favicon.ico and apple-touch-icon.png in the root of your domain and delete these references -->\\n  <link rel="shortcut icon" href="\', escape=False)\nresponse.write(URL(\'static\',\'favicon.ico\'))\nresponse.write(\'" type="image/x-icon">\\n  <link rel="apple-touch-icon" href="\', escape=False)\nresponse.write(URL(\'static\',\'favicon.png\'))\nresponse.write(\'">\\n\\n  <!-- All JavaScript at the bottom, except for Modernizr which enables \\n\\t   HTML5 elements & feature detects -->\\n  <script src="\', escape=False)\nresponse.write(URL(\'static\',\'js/modernizr.custom.js\'))\nresponse.write(\'"></script>  \\n\\n  <!-- include stylesheets -->\\n  \', escape=False)\nresponse.files.append(URL(\'static\',\'css/skeleton.css\'))\nresponse.files.append(URL(\'static\',\'css/web2py.css\'))\nif response.menu:\n    response.files.append(URL(\'static\',\'css/superfish.css\'))\n    response.files.append(URL(\'static\',\'js/superfish.js\'))\n    pass\nresponse.write(\'\\n\\n  \', escape=False)\nresponse.write(\'<script type="text/javascript"><!--\\n    // These variables are used by the web2py_ajax_init function in web2py_ajax.js (which is loaded below).\\n    var w2p_ajax_confirm_message = "\', escape=False)\nresponse.write(T(\'Are you sure you want to delete this object?\'))\nresponse.write(\'";\\n    var w2p_ajax_date_format = "\', escape=False)\nresponse.write(T(\'%Y-%m-%d\'))\nresponse.write(\'";\\n    var w2p_ajax_datetime_format = "\', escape=False)\nresponse.write(T(\'%Y-%m-%d %H:%M:%S\'))\nresponse.write(\'";\\n    //--></script>\\n\', escape=False)\nresponse.files.insert(0,URL(\'static\',\'js/jquery.js\'))\nresponse.files.insert(1,URL(\'static\',\'css/calendar.css\'))\nresponse.files.insert(2,URL(\'static\',\'js/calendar.js\'))\nresponse.files.insert(3,URL(\'static\',\'js/web2py.js\'))\nresponse.include_meta()\nresponse.include_files()\nresponse.write(\'\\n\', escape=False)\nresponse.write(\'\\n\\n  \', escape=False)\nif response.menu:\n    response.write(\'\\n  <script type="text/javascript">\\n    jQuery(function(){ jQuery(\\\'ul.sf-menu\\\').supersubs({minWidth:12,maxWidth:30,extraWidth:3}).superfish(); });\\n  </script>\\n  \', escape=False)\n    pass\nresponse.write(\'\\n\\n  \', escape=False)\n# using sidebars need to know what sidebar you want to use\nleft_sidebar_enabled = globals().get(\'left_sidebar_enabled\',False)\nright_sidebar_enabled = globals().get(\'right_sidebar_enabled\',False)\nmiddle_columns = {0:\'sixteen\',1:\'twelve\',2:\'eight\'}[\n(left_sidebar_enabled and 1 or 0)+(right_sidebar_enabled and 1 or 0)]\nresponse.write(\'\\n\\n  <!-- uncomment here to load jquery-ui\\n  <link rel="stylesheet" href="http://ajax.googleapis.com/ajax/libs/jqueryui/1.8.16/themes/base/jquery-ui.css" type="text/css" media="all" />\\n  <script src="http://ajax.googleapis.com/ajax/libs/jqueryui/1.8.16/jquery-ui.min.js" type="text/javascript"></script>\\n  uncomment to load jquery-ui //-->\\n</head>\\n<body>\\n  <div class="wrapper"><!-- for sticky footer -->\\n  \\n    <div class="topbar">\\n      <div class="container">    \\n        <div class="sixteen columns">\\n          <div id="navbar">\', escape=False)\nresponse.write(\'auth\' in globals() and auth.navbar(separators=(\' \',\' | \',\'\')))\nresponse.write(\'</div>\\n          \', escape=False)\nis_mobile=request.user_agent().is_mobile\nresponse.write(\'\\n\\t  \', escape=False)\nif response.menu:\n    response.write(\'\\n          <div id="menu">\\n             \', escape=False)\n    response.write(MENU(response.menu, _class=\'mobile-menu\' if is_mobile else \'sf-menu\',mobile=is_mobile))\n    response.write(\'\\n          </div>\\n          \', escape=False)\n    pass\nresponse.write(\'\\n        </div>\\n      </div>\\n    </div><!-- topbar -->\\n    \\n    <div class="flash">\', escape=False)\nresponse.write(response.flash or \'\')\nresponse.write(\'</div>\\n    \\n    <div class="header">\\n      <div class="container">         \\n        <div class="sixteen columns">\\n          <h1 class="remove-bottom" style="margin-top: .5em;">\\n          \', escape=False)\nresponse.write(response.title or request.application)\nresponse.write(\'\\n          </h1>\\n          <h5>\', escape=False)\nresponse.write(response.subtitle or \'\')\nresponse.write(\'</h5>\\n        </div>\\n        <div class="sixteen columns">\\n          <div class="statusbar clearfix">\\n            \', escape=False)\nresponse.write(\'\\n            <div class="breadcrumbs">\', escape=False)\nresponse.write(request.function.replace(\'_\', \' \').title())\nresponse.write(\'</div>\\n            \', escape=False)\nresponse.write(\'\\n            <!-- AddToAny BEGIN -->\\n            <div style="float:right; padding-top: .25em;" class="a2a_kit a2a_default_style">\\n            <a class="a2a_dd" href="http://www.addtoany.com/share_save">Share</a></div>\\n            <script type="text/javascript" src="http://static.addtoany.com/menu/page.js"></script>\\n            <!-- AddToAny END -->\\n          </div>\\n        </div>\\n      </div>\\n    </div>\\n\\n    <div class="main">\\n      <div class="container">                 \\n        \', escape=False)\nif left_sidebar_enabled:\n    response.write(\'\\n        <div class="four columns left-sidebar">\\n          \', escape=False)\n    response.write(\'\\n          <h3>Left Sidebar</h3>\\n          <p></p>\\n          \', escape=False)\n    response.write(\'\\n        </div>\\n        \', escape=False)\n    pass\nresponse.write(\'\\n        \\n        <div class="\', escape=False)\nresponse.write(middle_columns)\nresponse.write(\' columns center">\\n          \', escape=False)\nresponse.write(\'\\n          \', escape=False)\nresponse.write(\'\\r\\n\\r\\n <head>\\r\\n <script src="../../static/lib/codemirror.js"></script>\\r\\n <link rel="stylesheet" href="../../static/lib/codemirror.css">\\r\\n <script src="../../static/mode/clike.js"></script>\\r\\n <style>.CodeMirror {border: 3px solid #cccccc;}</style>\\r\\n</head>\\r\\n\\r\\n\\r\\n\', escape=False)\nimport __init__\nresponse.write(\'\\r\\n\', escape=False)\nresponse.write(H1(T("Solution by")))\nresponse.write(\'\\r\\n\', escape=False)\nresponse.write(hey())\nresponse.write(\'\\r\\n\\r\\n\\r\\n<textarea id="code_body">\\r\\n\', escape=False)\nresponse.write(code.body)\nresponse.write(\'\\r\\n</textarea>\\r\\n\\r\\n\', escape=False)\nresponse.write(H3(T("Comments"), _style="color:green"))\nresponse.write(\'\\r\\n\\r\\n\', escape=False)\nfor comment in comments:\n    response.write(\'\\r\\n\', escape=False)\n    user = db(db.auth_user.id==comment.created_by).select().first()\n    response.write(\'\\r\\n\', escape=False)\n    s = user.first_name + " " + user.last_name + " - (" + user.email + ")"\n    response.write(\'\\r\\n<div class="statusbar">\\r\\n\\t<p>\', escape=False)\n    response.write(s)\n    response.write(prettydate(code.created_on))\n    response.write(\'</p>\\r\\n\\t\', escape=False)\n    response.write(comment.body)\n    response.write(\'\\r\\n</div>\\r\\n\', escape=False)\n    pass\nresponse.write(\'\\r\\n\\r\\n\\r\\n\', escape=False)\nresponse.write(H2(T("Post your comment!")))\nresponse.write(\'\\r\\n\', escape=False)\nresponse.write(form)\nresponse.write(\'\\r\\n\\r\\n\\r\\n\\r\\n\\r\\n<script type="text/javascript">\\r\\n      var editor = CodeMirror.fromTextArea(document.getElementById("code_body"), {\\r\\n        lineNumbers: true,\\r\\n        matchBrackets: true,\\r\\n        mode: "text/x-c++src",\\r\\n        reardOnly: true\\r\\n      });\\r\\n</script>\\r\\n\\r\\n\', escape=False)\nresponse.write(\'\\n          \', escape=False)\nresponse.write(\'\\n        </div>\\n        \\n        \', escape=False)\nif right_sidebar_enabled:\n    response.write(\'\\n        <div class="four columns">\\n          \', escape=False)\n    response.write(\'\\n          <h3>Right Sidebar</h3>\\n          <p></p>\\n          \', escape=False)\n    response.write(\'\\n        </div>    \\n        \', escape=False)\n    pass\nresponse.write(\'\\n        \\n      </div><!-- container -->\\n    </div><!-- main -->\\n    \\n    <div class="push"></div>\\n  </div><!-- wrapper -->\\n\\n  <div class="footer">\\n    <div class="container">    \\n      <div class="sixteen columns">\\n        \', escape=False)\nresponse.write(\' <!-- this is default footer -->\\n        <div class="footer-content clearfix">\\n          <div class="copyright">\', escape=False)\nresponse.write(T(\'Copyright\'))\nresponse.write(\' &#169; 2011</div>\\n          <div style="float: right;">\\n            <a href="http://www.web2py.com/">\\n            <img style="padding-bottom: 0;" src="\', escape=False)\nresponse.write(URL(\'static\',\'images/poweredby.png\'))\nresponse.write(\'"/>\\n            </a>\\n          </div>\\n        </div>\\n        \', escape=False)\nresponse.write(\'\\t\\n      </div>\\n    </div><!-- container -->\\n  </div><!-- footer -->\\n  \\n  <!--[if lt IE 7 ]>\\n\\t<script src="\', escape=False)\nresponse.write(URL(\'static\',\'js/dd_belatedpng.js\'))\nresponse.write(\'"></script>\\n\\t<script> DD_belatedPNG.fix(\\\'img, .png_bg\\\'); //fix any <img> or .png_bg background-images </script>\\n\\t<![endif]-->\\n  \', escape=False)\nif response.google_analytics_id:\n    response.write(\'<script type="text/javascript"> var _gaq = _gaq || []; _gaq.push([\\\'_setAccount\\\', \\\'\', escape=False)\n    response.write(response.google_analytics_id)\n    response.write("\']); _gaq.push([\'_trackPageview\']); (function() { var ga = document.createElement(\'script\'); ga.type = \'text/javascript\'; ga.async = true; ga.src = (\'https:\' == document.location.protocol ? \'https://ssl\' : \'http://www\') + \'.google-analytics.com/ga.js\'; var s = document.getElementsByTagName(\'script\')[0]; s.parentNode.insertBefore(ga, s); })(); </script> ", escape=False)\n    pass\nresponse.write(\'\\n</body>\\n</html>\\n\', escape=False)'
p7
sS'snapshot'
p8
(dp9
S'exception'
p10
(dp11
S'__hash__'
p12
S"<method-wrapper '__hash__' of exceptions.ImportError object at 0x0692D260>"
p13
sS'__setattr__'
p14
S"<method-wrapper '__setattr__' of exceptions.ImportError object at 0x0692D260>"
p15
sS'__reduce_ex__'
p16
S'<built-in method __reduce_ex__ of exceptions.ImportError object at 0x0692D260>'
p17
sS'__getslice__'
p18
S"<method-wrapper '__getslice__' of exceptions.ImportError object at 0x0692D260>"
p19
sS'__getitem__'
p20
S"<method-wrapper '__getitem__' of exceptions.ImportError object at 0x0692D260>"
p21
sS'__setstate__'
p22
S'<built-in method __setstate__ of exceptions.ImportError object at 0x0692D260>'
p23
sS'__reduce__'
p24
S'<built-in method __reduce__ of exceptions.ImportError object at 0x0692D260>'
p25
sS'__str__'
p26
S"<method-wrapper '__str__' of exceptions.ImportError object at 0x0692D260>"
p27
sS'args'
p28
S"('No module named __init__',)"
p29
sS'__getattribute__'
p30
S"<method-wrapper '__getattribute__' of exceptions.ImportError object at 0x0692D260>"
p31
sS'__class__'
p32
S"<type 'exceptions.ImportError'>"
p33
sS'__delattr__'
p34
S"<method-wrapper '__delattr__' of exceptions.ImportError object at 0x0692D260>"
p35
sS'__repr__'
p36
S"<method-wrapper '__repr__' of exceptions.ImportError object at 0x0692D260>"
p37
sS'__dict__'
p38
S'{}'
p39
sS'__doc__'
p40
S'"Import can\'t find module, or can\'t find name in module."'
p41
sS'__init__'
p42
S"<method-wrapper '__init__' of exceptions.ImportError object at 0x0692D260>"
p43
sS'__new__'
p44
S'<built-in method __new__ of type object at 0x1E1CD198>'
p45
ssS'evalue'
p46
S'No module named __init__'
p47
sS'request'
p48
ccopy_reg
_reconstructor
p49
(cgluon.html
BEAUTIFY
p50
c__builtin__
object
p51
NtRp52
(dp53
S'attributes'
p54
(dp55
sS'components'
p56
(lp57
g49
(cgluon.html
TABLE
p58
g51
NtRp59
(dp60
g54
(dp61
S'level'
p62
I5
ssS'parent'
p63
Nsg56
(lp64
g49
(cgluon.html
TR
p65
g51
NtRp66
(dp67
g54
(dp68
sg63
g59
sg56
(lp69
g49
(cgluon.html
TD
p70
g51
NtRp71
(dp72
g54
(dp73
S'_style'
p74
S'font-weight:bold;vertical-align:top'
p75
ssg63
g66
sg56
(lp76
S'ajax'
p77
asbag49
(g70
g51
NtRp78
(dp79
g54
(dp80
S'_valign'
p81
S'top'
p82
ssg63
g66
sg56
(lp83
S':'
asbag49
(g70
g51
NtRp84
(dp85
g54
(dp86
sg63
g66
sg56
(lp87
g49
(g50
g51
NtRp88
(dp89
g54
(dp90
g62
I5
ssg63
g84
sg56
(lp91
S'False'
p92
asbasbasbag49
(g65
g51
NtRp93
(dp94
g54
(dp95
sg63
g59
sg56
(lp96
g49
(g70
g51
NtRp97
(dp98
g54
(dp99
g74
g75
ssg63
g93
sg56
(lp100
S'application'
p101
asbag49
(g70
g51
NtRp102
(dp103
g54
(dp104
g81
g82
ssg63
g93
sg56
(lp105
S':'
asbag49
(g70
g51
NtRp106
(dp107
g54
(dp108
sg63
g93
sg56
(lp109
g49
(g50
g51
NtRp110
(dp111
g54
(dp112
g62
I5
ssg63
g106
sg56
(lp113
S'unioeste_code'
p114
asbasbasbag49
(g65
g51
NtRp115
(dp116
g54
(dp117
sg63
g59
sg56
(lp118
g49
(g70
g51
NtRp119
(dp120
g54
(dp121
g74
g75
ssg63
g115
sg56
(lp122
g28
asbag49
(g70
g51
NtRp123
(dp124
g54
(dp125
g81
g82
ssg63
g115
sg56
(lp126
S':'
asbag49
(g70
g51
NtRp127
(dp128
g54
(dp129
sg63
g115
sg56
(lp130
g49
(g50
g51
NtRp131
(dp132
g54
(dp133
g62
I5
ssg63
g127
sg56
(lp134
g49
(g58
g51
NtRp135
(dp136
g54
(dp137
g62
I4
ssg63
Nsg56
(lp138
g49
(g65
g51
NtRp139
(dp140
g54
(dp141
sg63
g135
sg56
(lp142
g49
(g70
g51
NtRp143
(dp144
g54
(dp145
sg63
g139
sg56
(lp146
g49
(g50
g51
NtRp147
(dp148
g54
(dp149
g62
I4
ssg63
g143
sg56
(lp150
S'2'
asbasbasbasbasbasbasbag49
(g65
g51
NtRp151
(dp152
g54
(dp153
sg63
g59
sg56
(lp154
g49
(g70
g51
NtRp155
(dp156
g54
(dp157
g74
g75
ssg63
g151
sg56
(lp158
S'body'
p159
asbag49
(g70
g51
NtRp160
(dp161
g54
(dp162
g81
g82
ssg63
g151
sg56
(lp163
S':'
asbag49
(g70
g51
NtRp164
(dp165
g54
(dp166
sg63
g151
sg56
(lp167
g49
(g50
g51
NtRp168
(dp169
g54
(dp170
g62
I5
ssg63
g164
sg56
(lp171
S'<cStringIO.StringO object at 0x0685B840>'
p172
asbasbasbag49
(g65
g51
NtRp173
(dp174
g54
(dp175
sg63
g59
sg56
(lp176
g49
(g70
g51
NtRp177
(dp178
g54
(dp179
g74
g75
ssg63
g173
sg56
(lp180
S'client'
p181
asbag49
(g70
g51
NtRp182
(dp183
g54
(dp184
g81
g82
ssg63
g173
sg56
(lp185
S':'
asbag49
(g70
g51
NtRp186
(dp187
g54
(dp188
sg63
g173
sg56
(lp189
g49
(g50
g51
NtRp190
(dp191
g54
(dp192
g62
I5
ssg63
g186
sg56
(lp193
S'127.0.0.1'
p194
asbasbasbag49
(g65
g51
NtRp195
(dp196
g54
(dp197
sg63
g59
sg56
(lp198
g49
(g70
g51
NtRp199
(dp200
g54
(dp201
g74
g75
ssg63
g195
sg56
(lp202
S'controller'
p203
asbag49
(g70
g51
NtRp204
(dp205
g54
(dp206
g81
g82
ssg63
g195
sg56
(lp207
S':'
asbag49
(g70
g51
NtRp208
(dp209
g54
(dp210
sg63
g195
sg56
(lp211
g49
(g50
g51
NtRp212
(dp213
g54
(dp214
g62
I5
ssg63
g208
sg56
(lp215
S'default'
p216
asbasbasbag49
(g65
g51
NtRp217
(dp218
g54
(dp219
sg63
g59
sg56
(lp220
g49
(g70
g51
NtRp221
(dp222
g54
(dp223
g74
g75
ssg63
g217
sg56
(lp224
S'cookies'
p225
asbag49
(g70
g51
NtRp226
(dp227
g54
(dp228
g81
g82
ssg63
g217
sg56
(lp229
S':'
asbag49
(g70
g51
NtRp230
(dp231
g54
(dp232
sg63
g217
sg56
(lp233
g49
(g50
g51
NtRp234
(dp235
g54
(dp236
g62
I5
ssg63
g230
sg56
(lp237
g49
(g58
g51
NtRp238
(dp239
g54
(dp240
g62
I4
ssg63
Nsg56
(lp241
g49
(g65
g51
NtRp242
(dp243
g54
(dp244
sg63
g238
sg56
(lp245
g49
(g70
g51
NtRp246
(dp247
g54
(dp248
g74
g75
ssg63
g242
sg56
(lp249
S'session_id_admin'
p250
asbag49
(g70
g51
NtRp251
(dp252
g54
(dp253
g81
g82
ssg63
g242
sg56
(lp254
S':'
asbag49
(g70
g51
NtRp255
(dp256
g54
(dp257
sg63
g242
sg56
(lp258
g49
(g50
g51
NtRp259
(dp260
g54
(dp261
g62
I4
ssg63
g255
sg56
(lp262
g49
(g58
g51
NtRp263
(dp264
g54
(dp265
g62
I3
ssg63
Nsg56
(lp266
g49
(g65
g51
NtRp267
(dp268
g54
(dp269
sg63
g263
sg56
(lp270
g49
(g70
g51
NtRp271
(dp272
g54
(dp273
g74
g75
ssg63
g267
sg56
(lp274
S'comment'
p275
asbag49
(g70
g51
NtRp276
(dp277
g54
(dp278
g81
g82
ssg63
g267
sg56
(lp279
S':'
asbag49
(g70
g51
NtRp280
(dp281
g54
(dp282
sg63
g267
sg56
(lp283
g49
(g50
g51
NtRp284
(dp285
g54
(dp286
g62
I3
ssg63
g280
sg56
(lp287
S''
asbasbasbag49
(g65
g51
NtRp288
(dp289
g54
(dp290
sg63
g263
sg56
(lp291
g49
(g70
g51
NtRp292
(dp293
g54
(dp294
g74
g75
ssg63
g288
sg56
(lp295
S'domain'
p296
asbag49
(g70
g51
NtRp297
(dp298
g54
(dp299
g81
g82
ssg63
g288
sg56
(lp300
S':'
asbag49
(g70
g51
NtRp301
(dp302
g54
(dp303
sg63
g288
sg56
(lp304
g49
(g50
g51
NtRp305
(dp306
g54
(dp307
g62
I3
ssg63
g301
sg56
(lp308
S''
asbasbasbag49
(g65
g51
NtRp309
(dp310
g54
(dp311
sg63
g263
sg56
(lp312
g49
(g70
g51
NtRp313
(dp314
g54
(dp315
g74
g75
ssg63
g309
sg56
(lp316
S'expires'
p317
asbag49
(g70
g51
NtRp318
(dp319
g54
(dp320
g81
g82
ssg63
g309
sg56
(lp321
S':'
asbag49
(g70
g51
NtRp322
(dp323
g54
(dp324
sg63
g309
sg56
(lp325
g49
(g50
g51
NtRp326
(dp327
g54
(dp328
g62
I3
ssg63
g322
sg56
(lp329
S''
asbasbasbag49
(g65
g51
NtRp330
(dp331
g54
(dp332
sg63
g263
sg56
(lp333
g49
(g70
g51
NtRp334
(dp335
g54
(dp336
g74
g75
ssg63
g330
sg56
(lp337
S'max-age'
p338
asbag49
(g70
g51
NtRp339
(dp340
g54
(dp341
g81
g82
ssg63
g330
sg56
(lp342
S':'
asbag49
(g70
g51
NtRp343
(dp344
g54
(dp345
sg63
g330
sg56
(lp346
g49
(g50
g51
NtRp347
(dp348
g54
(dp349
g62
I3
ssg63
g343
sg56
(lp350
S''
asbasbasbag49
(g65
g51
NtRp351
(dp352
g54
(dp353
sg63
g263
sg56
(lp354
g49
(g70
g51
NtRp355
(dp356
g54
(dp357
g74
g75
ssg63
g351
sg56
(lp358
S'path'
p359
asbag49
(g70
g51
NtRp360
(dp361
g54
(dp362
g81
g82
ssg63
g351
sg56
(lp363
S':'
asbag49
(g70
g51
NtRp364
(dp365
g54
(dp366
sg63
g351
sg56
(lp367
g49
(g50
g51
NtRp368
(dp369
g54
(dp370
g62
I3
ssg63
g364
sg56
(lp371
S''
asbasbasbag49
(g65
g51
NtRp372
(dp373
g54
(dp374
sg63
g263
sg56
(lp375
g49
(g70
g51
NtRp376
(dp377
g54
(dp378
g74
g75
ssg63
g372
sg56
(lp379
S'secure'
p380
asbag49
(g70
g51
NtRp381
(dp382
g54
(dp383
g81
g82
ssg63
g372
sg56
(lp384
S':'
asbag49
(g70
g51
NtRp385
(dp386
g54
(dp387
sg63
g372
sg56
(lp388
g49
(g50
g51
NtRp389
(dp390
g54
(dp391
g62
I3
ssg63
g385
sg56
(lp392
S''
asbasbasbag49
(g65
g51
NtRp393
(dp394
g54
(dp395
sg63
g263
sg56
(lp396
g49
(g70
g51
NtRp397
(dp398
g54
(dp399
g74
g75
ssg63
g393
sg56
(lp400
S'version'
p401
asbag49
(g70
g51
NtRp402
(dp403
g54
(dp404
g81
g82
ssg63
g393
sg56
(lp405
S':'
asbag49
(g70
g51
NtRp406
(dp407
g54
(dp408
sg63
g393
sg56
(lp409
g49
(g50
g51
NtRp410
(dp411
g54
(dp412
g62
I3
ssg63
g406
sg56
(lp413
S''
asbasbasbasbasbasbasbag49
(g65
g51
NtRp414
(dp415
g54
(dp416
sg63
g238
sg56
(lp417
g49
(g70
g51
NtRp418
(dp419
g54
(dp420
g74
g75
ssg63
g414
sg56
(lp421
S'session_id_unioeste_code'
p422
asbag49
(g70
g51
NtRp423
(dp424
g54
(dp425
g81
g82
ssg63
g414
sg56
(lp426
S':'
asbag49
(g70
g51
NtRp427
(dp428
g54
(dp429
sg63
g414
sg56
(lp430
g49
(g50
g51
NtRp431
(dp432
g54
(dp433
g62
I4
ssg63
g427
sg56
(lp434
g49
(g58
g51
NtRp435
(dp436
g54
(dp437
g62
I3
ssg63
Nsg56
(lp438
g49
(g65
g51
NtRp439
(dp440
g54
(dp441
sg63
g435
sg56
(lp442
g49
(g70
g51
NtRp443
(dp444
g54
(dp445
g74
g75
ssg63
g439
sg56
(lp446
g275
asbag49
(g70
g51
NtRp447
(dp448
g54
(dp449
g81
g82
ssg63
g439
sg56
(lp450
S':'
asbag49
(g70
g51
NtRp451
(dp452
g54
(dp453
sg63
g439
sg56
(lp454
g49
(g50
g51
NtRp455
(dp456
g54
(dp457
g62
I3
ssg63
g451
sg56
(lp458
S''
asbasbasbag49
(g65
g51
NtRp459
(dp460
g54
(dp461
sg63
g435
sg56
(lp462
g49
(g70
g51
NtRp463
(dp464
g54
(dp465
g74
g75
ssg63
g459
sg56
(lp466
g296
asbag49
(g70
g51
NtRp467
(dp468
g54
(dp469
g81
g82
ssg63
g459
sg56
(lp470
S':'
asbag49
(g70
g51
NtRp471
(dp472
g54
(dp473
sg63
g459
sg56
(lp474
g49
(g50
g51
NtRp475
(dp476
g54
(dp477
g62
I3
ssg63
g471
sg56
(lp478
S''
asbasbasbag49
(g65
g51
NtRp479
(dp480
g54
(dp481
sg63
g435
sg56
(lp482
g49
(g70
g51
NtRp483
(dp484
g54
(dp485
g74
g75
ssg63
g479
sg56
(lp486
g317
asbag49
(g70
g51
NtRp487
(dp488
g54
(dp489
g81
g82
ssg63
g479
sg56
(lp490
S':'
asbag49
(g70
g51
NtRp491
(dp492
g54
(dp493
sg63
g479
sg56
(lp494
g49
(g50
g51
NtRp495
(dp496
g54
(dp497
g62
I3
ssg63
g491
sg56
(lp498
S''
asbasbasbag49
(g65
g51
NtRp499
(dp500
g54
(dp501
sg63
g435
sg56
(lp502
g49
(g70
g51
NtRp503
(dp504
g54
(dp505
g74
g75
ssg63
g499
sg56
(lp506
g338
asbag49
(g70
g51
NtRp507
(dp508
g54
(dp509
g81
g82
ssg63
g499
sg56
(lp510
S':'
asbag49
(g70
g51
NtRp511
(dp512
g54
(dp513
sg63
g499
sg56
(lp514
g49
(g50
g51
NtRp515
(dp516
g54
(dp517
g62
I3
ssg63
g511
sg56
(lp518
S''
asbasbasbag49
(g65
g51
NtRp519
(dp520
g54
(dp521
sg63
g435
sg56
(lp522
g49
(g70
g51
NtRp523
(dp524
g54
(dp525
g74
g75
ssg63
g519
sg56
(lp526
g359
asbag49
(g70
g51
NtRp527
(dp528
g54
(dp529
g81
g82
ssg63
g519
sg56
(lp530
S':'
asbag49
(g70
g51
NtRp531
(dp532
g54
(dp533
sg63
g519
sg56
(lp534
g49
(g50
g51
NtRp535
(dp536
g54
(dp537
g62
I3
ssg63
g531
sg56
(lp538
S''
asbasbasbag49
(g65
g51
NtRp539
(dp540
g54
(dp541
sg63
g435
sg56
(lp542
g49
(g70
g51
NtRp543
(dp544
g54
(dp545
g74
g75
ssg63
g539
sg56
(lp546
g380
asbag49
(g70
g51
NtRp547
(dp548
g54
(dp549
g81
g82
ssg63
g539
sg56
(lp550
S':'
asbag49
(g70
g51
NtRp551
(dp552
g54
(dp553
sg63
g539
sg56
(lp554
g49
(g50
g51
NtRp555
(dp556
g54
(dp557
g62
I3
ssg63
g551
sg56
(lp558
S''
asbasbasbag49
(g65
g51
NtRp559
(dp560
g54
(dp561
sg63
g435
sg56
(lp562
g49
(g70
g51
NtRp563
(dp564
g54
(dp565
g74
g75
ssg63
g559
sg56
(lp566
g401
asbag49
(g70
g51
NtRp567
(dp568
g54
(dp569
g81
g82
ssg63
g559
sg56
(lp570
S':'
asbag49
(g70
g51
NtRp571
(dp572
g54
(dp573
sg63
g559
sg56
(lp574
g49
(g50
g51
NtRp575
(dp576
g54
(dp577
g62
I3
ssg63
g571
sg56
(lp578
S''
asbasbasbasbasbasbasbasbasbasbasbag49
(g65
g51
NtRp579
(dp580
g54
(dp581
sg63
g59
sg56
(lp582
g49
(g70
g51
NtRp583
(dp584
g54
(dp585
g74
g75
ssg63
g579
sg56
(lp586
S'env'
p587
asbag49
(g70
g51
NtRp588
(dp589
g54
(dp590
g81
g82
ssg63
g579
sg56
(lp591
S':'
asbag49
(g70
g51
NtRp592
(dp593
g54
(dp594
sg63
g579
sg56
(lp595
g49
(g50
g51
NtRp596
(dp597
g54
(dp598
g62
I5
ssg63
g592
sg56
(lp599
g49
(g58
g51
NtRp600
(dp601
g54
(dp602
g62
I4
ssg63
Nsg56
(lp603
g49
(g65
g51
NtRp604
(dp605
g54
(dp606
sg63
g600
sg56
(lp607
g49
(g70
g51
NtRp608
(dp609
g54
(dp610
g74
g75
ssg63
g604
sg56
(lp611
S'app_folders'
p612
asbag49
(g70
g51
NtRp613
(dp614
g54
(dp615
g81
g82
ssg63
g604
sg56
(lp616
S':'
asbag49
(g70
g51
NtRp617
(dp618
g54
(dp619
sg63
g604
sg56
(lp620
g49
(g50
g51
NtRp621
(dp622
g54
(dp623
g62
I4
ssg63
g617
sg56
(lp624
S"set(['C:\\\\web2py\\\\applications\\\\admin\\\\', 'C:\\\\web2py\\\\applications\\\\welcome\\\\', 'C:\\\\web2py\\\\applications\\\\unioeste_code\\\\'])"
p625
asbasbasbag49
(g65
g51
NtRp626
(dp627
g54
(dp628
sg63
g600
sg56
(lp629
g49
(g70
g51
NtRp630
(dp631
g54
(dp632
g74
g75
ssg63
g626
sg56
(lp633
S'applications_parent'
p634
asbag49
(g70
g51
NtRp635
(dp636
g54
(dp637
g81
g82
ssg63
g626
sg56
(lp638
S':'
asbag49
(g70
g51
NtRp639
(dp640
g54
(dp641
sg63
g626
sg56
(lp642
g49
(g50
g51
NtRp643
(dp644
g54
(dp645
g62
I4
ssg63
g639
sg56
(lp646
S'C:\\web2py'
p647
asbasbasbag49
(g65
g51
NtRp648
(dp649
g54
(dp650
sg63
g600
sg56
(lp651
g49
(g70
g51
NtRp652
(dp653
g54
(dp654
g74
g75
ssg63
g648
sg56
(lp655
S'cmd_args'
p656
asbag49
(g70
g51
NtRp657
(dp658
g54
(dp659
g81
g82
ssg63
g648
sg56
(lp660
S':'
asbag49
(g70
g51
NtRp661
(dp662
g54
(dp663
sg63
g648
sg56
(lp664
g49
(g50
g51
NtRp665
(dp666
g54
(dp667
g62
I4
ssg63
g661
sg56
(lp668
g49
(g58
g51
NtRp669
(dp670
g54
(dp671
g62
I3
ssg63
Nsg56
(lp672
sbasbasbasbag49
(g65
g51
NtRp673
(dp674
g54
(dp675
sg63
g600
sg56
(lp676
g49
(g70
g51
NtRp677
(dp678
g54
(dp679
g74
g75
ssg63
g673
sg56
(lp680
S'cmd_options'
p681
asbag49
(g70
g51
NtRp682
(dp683
g54
(dp684
g81
g82
ssg63
g673
sg56
(lp685
S':'
asbag49
(g70
g51
NtRp686
(dp687
g54
(dp688
sg63
g673
sg56
(lp689
g49
(g50
g51
NtRp690
(dp691
g54
(dp692
g62
I4
ssg63
g686
sg56
(lp693
S"<Values at 0x309c300: {'verbose': False, 'ip': '127.0.0.1', 'shutdown_timeout': 5, 'taskbar': False, 'nocron': False, 'pid_filename': 'httpserver.pid', 'maxthreads': None, 'softcron': False, 'server_name': 'Pedro-PC', 'bpython': False, 'nogui': False, 'port': 8000, 'extcron': False, 'debuglevel': 30, 'test': None, 'folder': 'C:\\\\web2py', 'config': '', 'import_models': False, 'winservice': '', 'shell': None, 'run': '', 'log_filename': 'httpserver.log', 'args': [''], 'socket_timeout': 5, 'ssl_ca_certificate': None, 'scheduler': None, 'profiler_filename': None, 'ssl_private_key': '', 'password': '<ask>', 'request_queue_size': 5, 'ssl_certificate': '', 'cronjob': False, 'numthreads': None, 'quiet': False, 'interfaces': None, 'minthreads': None, 'timeout': 10, 'plain': False, 'nobanner': False}>"
p694
asbasbasbag49
(g65
g51
NtRp695
(dp696
g54
(dp697
sg63
g600
sg56
(lp698
g49
(g70
g51
NtRp699
(dp700
g54
(dp701
g74
g75
ssg63
g695
sg56
(lp702
S'db_sessions'
p703
asbag49
(g70
g51
NtRp704
(dp705
g54
(dp706
g81
g82
ssg63
g695
sg56
(lp707
S':'
asbag49
(g70
g51
NtRp708
(dp709
g54
(dp710
sg63
g695
sg56
(lp711
g49
(g50
g51
NtRp712
(dp713
g54
(dp714
g62
I4
ssg63
g708
sg56
(lp715
S'set([])'
p716
asbasbasbag49
(g65
g51
NtRp717
(dp718
g54
(dp719
sg63
g600
sg56
(lp720
g49
(g70
g51
NtRp721
(dp722
g54
(dp723
g74
g75
ssg63
g717
sg56
(lp724
S'debugging'
p725
asbag49
(g70
g51
NtRp726
(dp727
g54
(dp728
g81
g82
ssg63
g717
sg56
(lp729
S':'
asbag49
(g70
g51
NtRp730
(dp731
g54
(dp732
sg63
g717
sg56
(lp733
g49
(g50
g51
NtRp734
(dp735
g54
(dp736
g62
I4
ssg63
g730
sg56
(lp737
g92
asbasbasbag49
(g65
g51
NtRp738
(dp739
g54
(dp740
sg63
g600
sg56
(lp741
g49
(g70
g51
NtRp742
(dp743
g54
(dp744
g74
g75
ssg63
g738
sg56
(lp745
S'gluon_parent'
p746
asbag49
(g70
g51
NtRp747
(dp748
g54
(dp749
g81
g82
ssg63
g738
sg56
(lp750
S':'
asbag49
(g70
g51
NtRp751
(dp752
g54
(dp753
sg63
g738
sg56
(lp754
g49
(g50
g51
NtRp755
(dp756
g54
(dp757
g62
I4
ssg63
g751
sg56
(lp758
S'C:\\web2py'
p759
asbasbasbag49
(g65
g51
NtRp760
(dp761
g54
(dp762
sg63
g600
sg56
(lp763
g49
(g70
g51
NtRp764
(dp765
g54
(dp766
g74
g75
ssg63
g760
sg56
(lp767
S'http_accept'
p768
asbag49
(g70
g51
NtRp769
(dp770
g54
(dp771
g81
g82
ssg63
g760
sg56
(lp772
S':'
asbag49
(g70
g51
NtRp773
(dp774
g54
(dp775
sg63
g760
sg56
(lp776
g49
(g50
g51
NtRp777
(dp778
g54
(dp779
g62
I4
ssg63
g773
sg56
(lp780
S'text/html,application/xhtml+xml,application/xml;q=0.9,*/*;q=0.8'
p781
asbasbasbag49
(g65
g51
NtRp782
(dp783
g54
(dp784
sg63
g600
sg56
(lp785
g49
(g70
g51
NtRp786
(dp787
g54
(dp788
g74
g75
ssg63
g782
sg56
(lp789
S'http_accept_charset'
p790
asbag49
(g70
g51
NtRp791
(dp792
g54
(dp793
g81
g82
ssg63
g782
sg56
(lp794
S':'
asbag49
(g70
g51
NtRp795
(dp796
g54
(dp797
sg63
g782
sg56
(lp798
g49
(g50
g51
NtRp799
(dp800
g54
(dp801
g62
I4
ssg63
g795
sg56
(lp802
S'ISO-8859-1,utf-8;q=0.7,*;q=0.3'
p803
asbasbasbag49
(g65
g51
NtRp804
(dp805
g54
(dp806
sg63
g600
sg56
(lp807
g49
(g70
g51
NtRp808
(dp809
g54
(dp810
g74
g75
ssg63
g804
sg56
(lp811
S'http_accept_encoding'
p812
asbag49
(g70
g51
NtRp813
(dp814
g54
(dp815
g81
g82
ssg63
g804
sg56
(lp816
S':'
asbag49
(g70
g51
NtRp817
(dp818
g54
(dp819
sg63
g804
sg56
(lp820
g49
(g50
g51
NtRp821
(dp822
g54
(dp823
g62
I4
ssg63
g817
sg56
(lp824
S'gzip,deflate,sdch'
p825
asbasbasbag49
(g65
g51
NtRp826
(dp827
g54
(dp828
sg63
g600
sg56
(lp829
g49
(g70
g51
NtRp830
(dp831
g54
(dp832
g74
g75
ssg63
g826
sg56
(lp833
S'http_accept_language'
p834
asbag49
(g70
g51
NtRp835
(dp836
g54
(dp837
g81
g82
ssg63
g826
sg56
(lp838
S':'
asbag49
(g70
g51
NtRp839
(dp840
g54
(dp841
sg63
g826
sg56
(lp842
g49
(g50
g51
NtRp843
(dp844
g54
(dp845
g62
I4
ssg63
g839
sg56
(lp846
S'pt-BR,pt;q=0.8,en-US;q=0.6,en;q=0.4'
p847
asbasbasbag49
(g65
g51
NtRp848
(dp849
g54
(dp850
sg63
g600
sg56
(lp851
g49
(g70
g51
NtRp852
(dp853
g54
(dp854
g74
g75
ssg63
g848
sg56
(lp855
S'http_cache_control'
p856
asbag49
(g70
g51
NtRp857
(dp858
g54
(dp859
g81
g82
ssg63
g848
sg56
(lp860
S':'
asbag49
(g70
g51
NtRp861
(dp862
g54
(dp863
sg63
g848
sg56
(lp864
g49
(g50
g51
NtRp865
(dp866
g54
(dp867
g62
I4
ssg63
g861
sg56
(lp868
S'max-age=0'
p869
asbasbasbag49
(g65
g51
NtRp870
(dp871
g54
(dp872
sg63
g600
sg56
(lp873
g49
(g70
g51
NtRp874
(dp875
g54
(dp876
g74
g75
ssg63
g870
sg56
(lp877
S'http_connection'
p878
asbag49
(g70
g51
NtRp879
(dp880
g54
(dp881
g81
g82
ssg63
g870
sg56
(lp882
S':'
asbag49
(g70
g51
NtRp883
(dp884
g54
(dp885
sg63
g870
sg56
(lp886
g49
(g50
g51
NtRp887
(dp888
g54
(dp889
g62
I4
ssg63
g883
sg56
(lp890
S'keep-alive'
p891
asbasbasbag49
(g65
g51
NtRp892
(dp893
g54
(dp894
sg63
g600
sg56
(lp895
g49
(g70
g51
NtRp896
(dp897
g54
(dp898
g74
g75
ssg63
g892
sg56
(lp899
S'http_cookie'
p900
asbag49
(g70
g51
NtRp901
(dp902
g54
(dp903
g81
g82
ssg63
g892
sg56
(lp904
S':'
asbag49
(g70
g51
NtRp905
(dp906
g54
(dp907
sg63
g892
sg56
(lp908
g49
(g50
g51
NtRp909
(dp910
g54
(dp911
g62
I4
ssg63
g905
sg56
(lp912
S'session_id_admin=127.0.0.1-5b5708ff-f236-440a-9e31-904908de9b24; session_id_unioeste_code=127.0.0.1-ac0e57bf-2a61-4ff7-b75a-c2e830b4787a'
p913
asbasbasbag49
(g65
g51
NtRp914
(dp915
g54
(dp916
sg63
g600
sg56
(lp917
g49
(g70
g51
NtRp918
(dp919
g54
(dp920
g74
g75
ssg63
g914
sg56
(lp921
S'http_dnt'
p922
asbag49
(g70
g51
NtRp923
(dp924
g54
(dp925
g81
g82
ssg63
g914
sg56
(lp926
S':'
asbag49
(g70
g51
NtRp927
(dp928
g54
(dp929
sg63
g914
sg56
(lp930
g49
(g50
g51
NtRp931
(dp932
g54
(dp933
g62
I4
ssg63
g927
sg56
(lp934
S'1'
asbasbasbag49
(g65
g51
NtRp935
(dp936
g54
(dp937
sg63
g600
sg56
(lp938
g49
(g70
g51
NtRp939
(dp940
g54
(dp941
g74
g75
ssg63
g935
sg56
(lp942
S'http_host'
p943
asbag49
(g70
g51
NtRp944
(dp945
g54
(dp946
g81
g82
ssg63
g935
sg56
(lp947
S':'
asbag49
(g70
g51
NtRp948
(dp949
g54
(dp950
sg63
g935
sg56
(lp951
g49
(g50
g51
NtRp952
(dp953
g54
(dp954
g62
I4
ssg63
g948
sg56
(lp955
S'localhost:8000'
p956
asbasbasbag49
(g65
g51
NtRp957
(dp958
g54
(dp959
sg63
g600
sg56
(lp960
g49
(g70
g51
NtRp961
(dp962
g54
(dp963
g74
g75
ssg63
g957
sg56
(lp964
S'http_user_agent'
p965
asbag49
(g70
g51
NtRp966
(dp967
g54
(dp968
g81
g82
ssg63
g957
sg56
(lp969
S':'
asbag49
(g70
g51
NtRp970
(dp971
g54
(dp972
sg63
g957
sg56
(lp973
g49
(g50
g51
NtRp974
(dp975
g54
(dp976
g62
I4
ssg63
g970
sg56
(lp977
S'Mozilla/5.0 (Windows NT 6.1; WOW64) AppleWebKit/536.11 (KHTML, like Gecko) Chrome/20.0.1132.57 Safari/536.11'
p978
asbasbasbag49
(g65
g51
NtRp979
(dp980
g54
(dp981
sg63
g600
sg56
(lp982
g49
(g70
g51
NtRp983
(dp984
g54
(dp985
g74
g75
ssg63
g979
sg56
(lp986
S'is_jython'
p987
asbag49
(g70
g51
NtRp988
(dp989
g54
(dp990
g81
g82
ssg63
g979
sg56
(lp991
S':'
asbag49
(g70
g51
NtRp992
(dp993
g54
(dp994
sg63
g979
sg56
(lp995
g49
(g50
g51
NtRp996
(dp997
g54
(dp998
g62
I4
ssg63
g992
sg56
(lp999
g92
asbasbasbag49
(g65
g51
NtRp1000
(dp1001
g54
(dp1002
sg63
g600
sg56
(lp1003
g49
(g70
g51
NtRp1004
(dp1005
g54
(dp1006
g74
g75
ssg63
g1000
sg56
(lp1007
S'is_pypy'
p1008
asbag49
(g70
g51
NtRp1009
(dp1010
g54
(dp1011
g81
g82
ssg63
g1000
sg56
(lp1012
S':'
asbag49
(g70
g51
NtRp1013
(dp1014
g54
(dp1015
sg63
g1000
sg56
(lp1016
g49
(g50
g51
NtRp1017
(dp1018
g54
(dp1019
g62
I4
ssg63
g1013
sg56
(lp1020
g92
asbasbasbag49
(g65
g51
NtRp1021
(dp1022
g54
(dp1023
sg63
g600
sg56
(lp1024
g49
(g70
g51
NtRp1025
(dp1026
g54
(dp1027
g74
g75
ssg63
g1021
sg56
(lp1028
S'path_info'
p1029
asbag49
(g70
g51
NtRp1030
(dp1031
g54
(dp1032
g81
g82
ssg63
g1021
sg56
(lp1033
S':'
asbag49
(g70
g51
NtRp1034
(dp1035
g54
(dp1036
sg63
g1021
sg56
(lp1037
g49
(g50
g51
NtRp1038
(dp1039
g54
(dp1040
g62
I4
ssg63
g1034
sg56
(lp1041
S'/unioeste_code/default/Code/2'
p1042
asbasbasbag49
(g65
g51
NtRp1043
(dp1044
g54
(dp1045
sg63
g600
sg56
(lp1046
g49
(g70
g51
NtRp1047
(dp1048
g54
(dp1049
g74
g75
ssg63
g1043
sg56
(lp1050
S'query_string'
p1051
asbag49
(g70
g51
NtRp1052
(dp1053
g54
(dp1054
g81
g82
ssg63
g1043
sg56
(lp1055
S':'
asbag49
(g70
g51
NtRp1056
(dp1057
g54
(dp1058
sg63
g1043
sg56
(lp1059
g49
(g50
g51
NtRp1060
(dp1061
g54
(dp1062
g62
I4
ssg63
g1056
sg56
(lp1063
S''
asbasbasbag49
(g65
g51
NtRp1064
(dp1065
g54
(dp1066
sg63
g600
sg56
(lp1067
g49
(g70
g51
NtRp1068
(dp1069
g54
(dp1070
g74
g75
ssg63
g1064
sg56
(lp1071
S'remote_addr'
p1072
asbag49
(g70
g51
NtRp1073
(dp1074
g54
(dp1075
g81
g82
ssg63
g1064
sg56
(lp1076
S':'
asbag49
(g70
g51
NtRp1077
(dp1078
g54
(dp1079
sg63
g1064
sg56
(lp1080
g49
(g50
g51
NtRp1081
(dp1082
g54
(dp1083
g62
I4
ssg63
g1077
sg56
(lp1084
g194
asbasbasbag49
(g65
g51
NtRp1085
(dp1086
g54
(dp1087
sg63
g600
sg56
(lp1088
g49
(g70
g51
NtRp1089
(dp1090
g54
(dp1091
g74
g75
ssg63
g1085
sg56
(lp1092
S'remote_port'
p1093
asbag49
(g70
g51
NtRp1094
(dp1095
g54
(dp1096
g81
g82
ssg63
g1085
sg56
(lp1097
S':'
asbag49
(g70
g51
NtRp1098
(dp1099
g54
(dp1100
sg63
g1085
sg56
(lp1101
g49
(g50
g51
NtRp1102
(dp1103
g54
(dp1104
g62
I4
ssg63
g1098
sg56
(lp1105
S'7218'
p1106
asbasbasbag49
(g65
g51
NtRp1107
(dp1108
g54
(dp1109
sg63
g600
sg56
(lp1110
g49
(g70
g51
NtRp1111
(dp1112
g54
(dp1113
g74
g75
ssg63
g1107
sg56
(lp1114
S'request_method'
p1115
asbag49
(g70
g51
NtRp1116
(dp1117
g54
(dp1118
g81
g82
ssg63
g1107
sg56
(lp1119
S':'
asbag49
(g70
g51
NtRp1120
(dp1121
g54
(dp1122
sg63
g1107
sg56
(lp1123
g49
(g50
g51
NtRp1124
(dp1125
g54
(dp1126
g62
I4
ssg63
g1120
sg56
(lp1127
S'GET'
p1128
asbasbasbag49
(g65
g51
NtRp1129
(dp1130
g54
(dp1131
sg63
g600
sg56
(lp1132
g49
(g70
g51
NtRp1133
(dp1134
g54
(dp1135
g74
g75
ssg63
g1129
sg56
(lp1136
S'script_name'
p1137
asbag49
(g70
g51
NtRp1138
(dp1139
g54
(dp1140
g81
g82
ssg63
g1129
sg56
(lp1141
S':'
asbag49
(g70
g51
NtRp1142
(dp1143
g54
(dp1144
sg63
g1129
sg56
(lp1145
g49
(g50
g51
NtRp1146
(dp1147
g54
(dp1148
g62
I4
ssg63
g1142
sg56
(lp1149
S''
asbasbasbag49
(g65
g51
NtRp1150
(dp1151
g54
(dp1152
sg63
g600
sg56
(lp1153
g49
(g70
g51
NtRp1154
(dp1155
g54
(dp1156
g74
g75
ssg63
g1150
sg56
(lp1157
S'server_name'
p1158
asbag49
(g70
g51
NtRp1159
(dp1160
g54
(dp1161
g81
g82
ssg63
g1150
sg56
(lp1162
S':'
asbag49
(g70
g51
NtRp1163
(dp1164
g54
(dp1165
sg63
g1150
sg56
(lp1166
g49
(g50
g51
NtRp1167
(dp1168
g54
(dp1169
g62
I4
ssg63
g1163
sg56
(lp1170
S'Pedro-PC'
p1171
asbasbasbag49
(g65
g51
NtRp1172
(dp1173
g54
(dp1174
sg63
g600
sg56
(lp1175
g49
(g70
g51
NtRp1176
(dp1177
g54
(dp1178
g74
g75
ssg63
g1172
sg56
(lp1179
S'server_port'
p1180
asbag49
(g70
g51
NtRp1181
(dp1182
g54
(dp1183
g81
g82
ssg63
g1172
sg56
(lp1184
S':'
asbag49
(g70
g51
NtRp1185
(dp1186
g54
(dp1187
sg63
g1172
sg56
(lp1188
g49
(g50
g51
NtRp1189
(dp1190
g54
(dp1191
g62
I4
ssg63
g1185
sg56
(lp1192
S'8000'
p1193
asbasbasbag49
(g65
g51
NtRp1194
(dp1195
g54
(dp1196
sg63
g600
sg56
(lp1197
g49
(g70
g51
NtRp1198
(dp1199
g54
(dp1200
g74
g75
ssg63
g1194
sg56
(lp1201
S'server_protocol'
p1202
asbag49
(g70
g51
NtRp1203
(dp1204
g54
(dp1205
g81
g82
ssg63
g1194
sg56
(lp1206
S':'
asbag49
(g70
g51
NtRp1207
(dp1208
g54
(dp1209
sg63
g1194
sg56
(lp1210
g49
(g50
g51
NtRp1211
(dp1212
g54
(dp1213
g62
I4
ssg63
g1207
sg56
(lp1214
S'HTTP/1.1'
p1215
asbasbasbag49
(g65
g51
NtRp1216
(dp1217
g54
(dp1218
sg63
g600
sg56
(lp1219
g49
(g70
g51
NtRp1220
(dp1221
g54
(dp1222
g74
g75
ssg63
g1216
sg56
(lp1223
S'server_software'
p1224
asbag49
(g70
g51
NtRp1225
(dp1226
g54
(dp1227
g81
g82
ssg63
g1216
sg56
(lp1228
S':'
asbag49
(g70
g51
NtRp1229
(dp1230
g54
(dp1231
sg63
g1216
sg56
(lp1232
g49
(g50
g51
NtRp1233
(dp1234
g54
(dp1235
g62
I4
ssg63
g1229
sg56
(lp1236
S'Rocket 1.2.4'
p1237
asbasbasbag49
(g65
g51
NtRp1238
(dp1239
g54
(dp1240
sg63
g600
sg56
(lp1241
g49
(g70
g51
NtRp1242
(dp1243
g54
(dp1244
g74
g75
ssg63
g1238
sg56
(lp1245
S'web2py_crontype'
p1246
asbag49
(g70
g51
NtRp1247
(dp1248
g54
(dp1249
g81
g82
ssg63
g1238
sg56
(lp1250
S':'
asbag49
(g70
g51
NtRp1251
(dp1252
g54
(dp1253
sg63
g1238
sg56
(lp1254
g49
(g50
g51
NtRp1255
(dp1256
g54
(dp1257
g62
I4
ssg63
g1251
sg56
(lp1258
S'hard'
p1259
asbasbasbag49
(g65
g51
NtRp1260
(dp1261
g54
(dp1262
sg63
g600
sg56
(lp1263
g49
(g70
g51
NtRp1264
(dp1265
g54
(dp1266
g74
g75
ssg63
g1260
sg56
(lp1267
S'web2py_path'
p1268
asbag49
(g70
g51
NtRp1269
(dp1270
g54
(dp1271
g81
g82
ssg63
g1260
sg56
(lp1272
S':'
asbag49
(g70
g51
NtRp1273
(dp1274
g54
(dp1275
sg63
g1260
sg56
(lp1276
g49
(g50
g51
NtRp1277
(dp1278
g54
(dp1279
g62
I4
ssg63
g1273
sg56
(lp1280
g647
asbasbasbag49
(g65
g51
NtRp1281
(dp1282
g54
(dp1283
sg63
g600
sg56
(lp1284
g49
(g70
g51
NtRp1285
(dp1286
g54
(dp1287
g74
g75
ssg63
g1281
sg56
(lp1288
S'web2py_version'
p1289
asbag49
(g70
g51
NtRp1290
(dp1291
g54
(dp1292
g81
g82
ssg63
g1281
sg56
(lp1293
S':'
asbag49
(g70
g51
NtRp1294
(dp1295
g54
(dp1296
sg63
g1281
sg56
(lp1297
g49
(g50
g51
NtRp1298
(dp1299
g54
(dp1300
g62
I4
ssg63
g1294
sg56
(lp1301
g49
(g58
g51
NtRp1302
(dp1303
g54
(dp1304
g62
I3
ssg63
Nsg56
(lp1305
g49
(g65
g51
NtRp1306
(dp1307
g54
(dp1308
sg63
g1302
sg56
(lp1309
g49
(g70
g51
NtRp1310
(dp1311
g54
(dp1312
sg63
g1306
sg56
(lp1313
g49
(g50
g51
NtRp1314
(dp1315
g54
(dp1316
g62
I3
ssg63
g1310
sg56
(lp1317
S'1'
asbasbasbag49
(g65
g51
NtRp1318
(dp1319
g54
(dp1320
sg63
g1302
sg56
(lp1321
g49
(g70
g51
NtRp1322
(dp1323
g54
(dp1324
sg63
g1318
sg56
(lp1325
g49
(g50
g51
NtRp1326
(dp1327
g54
(dp1328
g62
I3
ssg63
g1322
sg56
(lp1329
S'99'
p1330
asbasbasbag49
(g65
g51
NtRp1331
(dp1332
g54
(dp1333
sg63
g1302
sg56
(lp1334
g49
(g70
g51
NtRp1335
(dp1336
g54
(dp1337
sg63
g1331
sg56
(lp1338
g49
(g50
g51
NtRp1339
(dp1340
g54
(dp1341
g62
I3
ssg63
g1335
sg56
(lp1342
S'7'
asbasbasbag49
(g65
g51
NtRp1343
(dp1344
g54
(dp1345
sg63
g1302
sg56
(lp1346
g49
(g70
g51
NtRp1347
(dp1348
g54
(dp1349
sg63
g1343
sg56
(lp1350
g49
(g50
g51
NtRp1351
(dp1352
g54
(dp1353
g62
I3
ssg63
g1347
sg56
(lp1354
S'datetime.datetime(2012, 3, 4, 22, 12, 8)'
p1355
asbasbasbag49
(g65
g51
NtRp1356
(dp1357
g54
(dp1358
sg63
g1302
sg56
(lp1359
g49
(g70
g51
NtRp1360
(dp1361
g54
(dp1362
sg63
g1356
sg56
(lp1363
g49
(g50
g51
NtRp1364
(dp1365
g54
(dp1366
g62
I3
ssg63
g1360
sg56
(lp1367
S'stable'
p1368
asbasbasbasbasbasbasbag49
(g65
g51
NtRp1369
(dp1370
g54
(dp1371
sg63
g600
sg56
(lp1372
g49
(g70
g51
NtRp1373
(dp1374
g54
(dp1375
g74
g75
ssg63
g1369
sg56
(lp1376
S'wsgi_errors'
p1377
asbag49
(g70
g51
NtRp1378
(dp1379
g54
(dp1380
g81
g82
ssg63
g1369
sg56
(lp1381
S':'
asbag49
(g70
g51
NtRp1382
(dp1383
g54
(dp1384
sg63
g1369
sg56
(lp1385
g49
(g50
g51
NtRp1386
(dp1387
g54
(dp1388
g62
I4
ssg63
g1382
sg56
(lp1389
S'<__main__.Stderr object at 0x00486670>'
p1390
asbasbasbag49
(g65
g51
NtRp1391
(dp1392
g54
(dp1393
sg63
g600
sg56
(lp1394
g49
(g70
g51
NtRp1395
(dp1396
g54
(dp1397
g74
g75
ssg63
g1391
sg56
(lp1398
S'wsgi_file_wrapper'
p1399
asbag49
(g70
g51
NtRp1400
(dp1401
g54
(dp1402
g81
g82
ssg63
g1391
sg56
(lp1403
S':'
asbag49
(g70
g51
NtRp1404
(dp1405
g54
(dp1406
sg63
g1391
sg56
(lp1407
g49
(g50
g51
NtRp1408
(dp1409
g54
(dp1410
g62
I4
ssg63
g1404
sg56
(lp1411
S'<class wsgiref.util.FileWrapper at 0x02E8DE10>'
p1412
asbasbasbag49
(g65
g51
NtRp1413
(dp1414
g54
(dp1415
sg63
g600
sg56
(lp1416
g49
(g70
g51
NtRp1417
(dp1418
g54
(dp1419
g74
g75
ssg63
g1413
sg56
(lp1420
S'wsgi_input'
p1421
asbag49
(g70
g51
NtRp1422
(dp1423
g54
(dp1424
g81
g82
ssg63
g1413
sg56
(lp1425
S':'
asbag49
(g70
g51
NtRp1426
(dp1427
g54
(dp1428
sg63
g1413
sg56
(lp1429
g49
(g50
g51
NtRp1430
(dp1431
g54
(dp1432
g62
I4
ssg63
g1426
sg56
(lp1433
S'<socket._fileobject object at 0x065AC1B0>'
p1434
asbasbasbag49
(g65
g51
NtRp1435
(dp1436
g54
(dp1437
sg63
g600
sg56
(lp1438
g49
(g70
g51
NtRp1439
(dp1440
g54
(dp1441
g74
g75
ssg63
g1435
sg56
(lp1442
S'wsgi_multiprocess'
p1443
asbag49
(g70
g51
NtRp1444
(dp1445
g54
(dp1446
g81
g82
ssg63
g1435
sg56
(lp1447
S':'
asbag49
(g70
g51
NtRp1448
(dp1449
g54
(dp1450
sg63
g1435
sg56
(lp1451
g49
(g50
g51
NtRp1452
(dp1453
g54
(dp1454
g62
I4
ssg63
g1448
sg56
(lp1455
g92
asbasbasbag49
(g65
g51
NtRp1456
(dp1457
g54
(dp1458
sg63
g600
sg56
(lp1459
g49
(g70
g51
NtRp1460
(dp1461
g54
(dp1462
g74
g75
ssg63
g1456
sg56
(lp1463
S'wsgi_multithread'
p1464
asbag49
(g70
g51
NtRp1465
(dp1466
g54
(dp1467
g81
g82
ssg63
g1456
sg56
(lp1468
S':'
asbag49
(g70
g51
NtRp1469
(dp1470
g54
(dp1471
sg63
g1456
sg56
(lp1472
g49
(g50
g51
NtRp1473
(dp1474
g54
(dp1475
g62
I4
ssg63
g1469
sg56
(lp1476
S'True'
p1477
asbasbasbag49
(g65
g51
NtRp1478
(dp1479
g54
(dp1480
sg63
g600
sg56
(lp1481
g49
(g70
g51
NtRp1482
(dp1483
g54
(dp1484
g74
g75
ssg63
g1478
sg56
(lp1485
S'wsgi_run_once'
p1486
asbag49
(g70
g51
NtRp1487
(dp1488
g54
(dp1489
g81
g82
ssg63
g1478
sg56
(lp1490
S':'
asbag49
(g70
g51
NtRp1491
(dp1492
g54
(dp1493
sg63
g1478
sg56
(lp1494
g49
(g50
g51
NtRp1495
(dp1496
g54
(dp1497
g62
I4
ssg63
g1491
sg56
(lp1498
g92
asbasbasbag49
(g65
g51
NtRp1499
(dp1500
g54
(dp1501
sg63
g600
sg56
(lp1502
g49
(g70
g51
NtRp1503
(dp1504
g54
(dp1505
g74
g75
ssg63
g1499
sg56
(lp1506
S'wsgi_url_scheme'
p1507
asbag49
(g70
g51
NtRp1508
(dp1509
g54
(dp1510
g81
g82
ssg63
g1499
sg56
(lp1511
S':'
asbag49
(g70
g51
NtRp1512
(dp1513
g54
(dp1514
sg63
g1499
sg56
(lp1515
g49
(g50
g51
NtRp1516
(dp1517
g54
(dp1518
g62
I4
ssg63
g1512
sg56
(lp1519
S'http'
p1520
asbasbasbag49
(g65
g51
NtRp1521
(dp1522
g54
(dp1523
sg63
g600
sg56
(lp1524
g49
(g70
g51
NtRp1525
(dp1526
g54
(dp1527
g74
g75
ssg63
g1521
sg56
(lp1528
S'wsgi_version'
p1529
asbag49
(g70
g51
NtRp1530
(dp1531
g54
(dp1532
g81
g82
ssg63
g1521
sg56
(lp1533
S':'
asbag49
(g70
g51
NtRp1534
(dp1535
g54
(dp1536
sg63
g1521
sg56
(lp1537
g49
(g50
g51
NtRp1538
(dp1539
g54
(dp1540
g62
I4
ssg63
g1534
sg56
(lp1541
g49
(g58
g51
NtRp1542
(dp1543
g54
(dp1544
g62
I3
ssg63
Nsg56
(lp1545
g49
(g65
g51
NtRp1546
(dp1547
g54
(dp1548
sg63
g1542
sg56
(lp1549
g49
(g70
g51
NtRp1550
(dp1551
g54
(dp1552
sg63
g1546
sg56
(lp1553
g49
(g50
g51
NtRp1554
(dp1555
g54
(dp1556
g62
I3
ssg63
g1550
sg56
(lp1557
S'1'
asbasbasbag49
(g65
g51
NtRp1558
(dp1559
g54
(dp1560
sg63
g1542
sg56
(lp1561
g49
(g70
g51
NtRp1562
(dp1563
g54
(dp1564
sg63
g1558
sg56
(lp1565
g49
(g50
g51
NtRp1566
(dp1567
g54
(dp1568
g62
I3
ssg63
g1562
sg56
(lp1569
S'0'
asbasbasbasbasbasbasbasbasbasbasbag49
(g65
g51
NtRp1570
(dp1571
g54
(dp1572
sg63
g59
sg56
(lp1573
g49
(g70
g51
NtRp1574
(dp1575
g54
(dp1576
g74
g75
ssg63
g1570
sg56
(lp1577
S'extension'
p1578
asbag49
(g70
g51
NtRp1579
(dp1580
g54
(dp1581
g81
g82
ssg63
g1570
sg56
(lp1582
S':'
asbag49
(g70
g51
NtRp1583
(dp1584
g54
(dp1585
sg63
g1570
sg56
(lp1586
g49
(g50
g51
NtRp1587
(dp1588
g54
(dp1589
g62
I5
ssg63
g1583
sg56
(lp1590
S'html'
p1591
asbasbasbag49
(g65
g51
NtRp1592
(dp1593
g54
(dp1594
sg63
g59
sg56
(lp1595
g49
(g70
g51
NtRp1596
(dp1597
g54
(dp1598
g74
g75
ssg63
g1592
sg56
(lp1599
S'folder'
p1600
asbag49
(g70
g51
NtRp1601
(dp1602
g54
(dp1603
g81
g82
ssg63
g1592
sg56
(lp1604
S':'
asbag49
(g70
g51
NtRp1605
(dp1606
g54
(dp1607
sg63
g1592
sg56
(lp1608
g49
(g50
g51
NtRp1609
(dp1610
g54
(dp1611
g62
I5
ssg63
g1605
sg56
(lp1612
S'C:\\web2py\\applications\\unioeste_code\\'
p1613
asbasbasbag49
(g65
g51
NtRp1614
(dp1615
g54
(dp1616
sg63
g59
sg56
(lp1617
g49
(g70
g51
NtRp1618
(dp1619
g54
(dp1620
g74
g75
ssg63
g1614
sg56
(lp1621
S'function'
p1622
asbag49
(g70
g51
NtRp1623
(dp1624
g54
(dp1625
g81
g82
ssg63
g1614
sg56
(lp1626
S':'
asbag49
(g70
g51
NtRp1627
(dp1628
g54
(dp1629
sg63
g1614
sg56
(lp1630
g49
(g50
g51
NtRp1631
(dp1632
g54
(dp1633
g62
I5
ssg63
g1627
sg56
(lp1634
S'Code'
p1635
asbasbasbag49
(g65
g51
NtRp1636
(dp1637
g54
(dp1638
sg63
g59
sg56
(lp1639
g49
(g70
g51
NtRp1640
(dp1641
g54
(dp1642
g74
g75
ssg63
g1636
sg56
(lp1643
S'get_vars'
p1644
asbag49
(g70
g51
NtRp1645
(dp1646
g54
(dp1647
g81
g82
ssg63
g1636
sg56
(lp1648
S':'
asbag49
(g70
g51
NtRp1649
(dp1650
g54
(dp1651
sg63
g1636
sg56
(lp1652
g49
(g50
g51
NtRp1653
(dp1654
g54
(dp1655
g62
I5
ssg63
g1649
sg56
(lp1656
g49
(g58
g51
NtRp1657
(dp1658
g54
(dp1659
g62
I4
ssg63
Nsg56
(lp1660
sbasbasbasbag49
(g65
g51
NtRp1661
(dp1662
g54
(dp1663
sg63
g59
sg56
(lp1664
g49
(g70
g51
NtRp1665
(dp1666
g54
(dp1667
g74
g75
ssg63
g1661
sg56
(lp1668
S'global_settings'
p1669
asbag49
(g70
g51
NtRp1670
(dp1671
g54
(dp1672
g81
g82
ssg63
g1661
sg56
(lp1673
S':'
asbag49
(g70
g51
NtRp1674
(dp1675
g54
(dp1676
sg63
g1661
sg56
(lp1677
g49
(g50
g51
NtRp1678
(dp1679
g54
(dp1680
g62
I5
ssg63
g1674
sg56
(lp1681
g49
(g58
g51
NtRp1682
(dp1683
g54
(dp1684
g62
I4
ssg63
Nsg56
(lp1685
g49
(g65
g51
NtRp1686
(dp1687
g54
(dp1688
sg63
g1682
sg56
(lp1689
g49
(g70
g51
NtRp1690
(dp1691
g54
(dp1692
g74
g75
ssg63
g1686
sg56
(lp1693
g612
asbag49
(g70
g51
NtRp1694
(dp1695
g54
(dp1696
g81
g82
ssg63
g1686
sg56
(lp1697
S':'
asbag49
(g70
g51
NtRp1698
(dp1699
g54
(dp1700
sg63
g1686
sg56
(lp1701
g49
(g50
g51
NtRp1702
(dp1703
g54
(dp1704
g62
I4
ssg63
g1698
sg56
(lp1705
S"set(['C:\\\\web2py\\\\applications\\\\admin\\\\', 'C:\\\\web2py\\\\applications\\\\welcome\\\\', 'C:\\\\web2py\\\\applications\\\\unioeste_code\\\\'])"
p1706
asbasbasbag49
(g65
g51
NtRp1707
(dp1708
g54
(dp1709
sg63
g1682
sg56
(lp1710
g49
(g70
g51
NtRp1711
(dp1712
g54
(dp1713
g74
g75
ssg63
g1707
sg56
(lp1714
g634
asbag49
(g70
g51
NtRp1715
(dp1716
g54
(dp1717
g81
g82
ssg63
g1707
sg56
(lp1718
S':'
asbag49
(g70
g51
NtRp1719
(dp1720
g54
(dp1721
sg63
g1707
sg56
(lp1722
g49
(g50
g51
NtRp1723
(dp1724
g54
(dp1725
g62
I4
ssg63
g1719
sg56
(lp1726
g647
asbasbasbag49
(g65
g51
NtRp1727
(dp1728
g54
(dp1729
sg63
g1682
sg56
(lp1730
g49
(g70
g51
NtRp1731
(dp1732
g54
(dp1733
g74
g75
ssg63
g1727
sg56
(lp1734
g656
asbag49
(g70
g51
NtRp1735
(dp1736
g54
(dp1737
g81
g82
ssg63
g1727
sg56
(lp1738
S':'
asbag49
(g70
g51
NtRp1739
(dp1740
g54
(dp1741
sg63
g1727
sg56
(lp1742
g49
(g50
g51
NtRp1743
(dp1744
g54
(dp1745
g62
I4
ssg63
g1739
sg56
(lp1746
g49
(g58
g51
NtRp1747
(dp1748
g54
(dp1749
g62
I3
ssg63
Nsg56
(lp1750
sbasbasbasbag49
(g65
g51
NtRp1751
(dp1752
g54
(dp1753
sg63
g1682
sg56
(lp1754
g49
(g70
g51
NtRp1755
(dp1756
g54
(dp1757
g74
g75
ssg63
g1751
sg56
(lp1758
g681
asbag49
(g70
g51
NtRp1759
(dp1760
g54
(dp1761
g81
g82
ssg63
g1751
sg56
(lp1762
S':'
asbag49
(g70
g51
NtRp1763
(dp1764
g54
(dp1765
sg63
g1751
sg56
(lp1766
g49
(g50
g51
NtRp1767
(dp1768
g54
(dp1769
g62
I4
ssg63
g1763
sg56
(lp1770
S"<Values at 0x309c300: {'verbose': False, 'ip': '127.0.0.1', 'shutdown_timeout': 5, 'taskbar': False, 'nocron': False, 'pid_filename': 'httpserver.pid', 'maxthreads': None, 'softcron': False, 'server_name': 'Pedro-PC', 'bpython': False, 'nogui': False, 'port': 8000, 'extcron': False, 'debuglevel': 30, 'test': None, 'folder': 'C:\\\\web2py', 'config': '', 'import_models': False, 'winservice': '', 'shell': None, 'run': '', 'log_filename': 'httpserver.log', 'args': [''], 'socket_timeout': 5, 'ssl_ca_certificate': None, 'scheduler': None, 'profiler_filename': None, 'ssl_private_key': '', 'password': '<ask>', 'request_queue_size': 5, 'ssl_certificate': '', 'cronjob': False, 'numthreads': None, 'quiet': False, 'interfaces': None, 'minthreads': None, 'timeout': 10, 'plain': False, 'nobanner': False}>"
p1771
asbasbasbag49
(g65
g51
NtRp1772
(dp1773
g54
(dp1774
sg63
g1682
sg56
(lp1775
g49
(g70
g51
NtRp1776
(dp1777
g54
(dp1778
g74
g75
ssg63
g1772
sg56
(lp1779
g703
asbag49
(g70
g51
NtRp1780
(dp1781
g54
(dp1782
g81
g82
ssg63
g1772
sg56
(lp1783
S':'
asbag49
(g70
g51
NtRp1784
(dp1785
g54
(dp1786
sg63
g1772
sg56
(lp1787
g49
(g50
g51
NtRp1788
(dp1789
g54
(dp1790
g62
I4
ssg63
g1784
sg56
(lp1791
S'set([])'
p1792
asbasbasbag49
(g65
g51
NtRp1793
(dp1794
g54
(dp1795
sg63
g1682
sg56
(lp1796
g49
(g70
g51
NtRp1797
(dp1798
g54
(dp1799
g74
g75
ssg63
g1793
sg56
(lp1800
g725
asbag49
(g70
g51
NtRp1801
(dp1802
g54
(dp1803
g81
g82
ssg63
g1793
sg56
(lp1804
S':'
asbag49
(g70
g51
NtRp1805
(dp1806
g54
(dp1807
sg63
g1793
sg56
(lp1808
g49
(g50
g51
NtRp1809
(dp1810
g54
(dp1811
g62
I4
ssg63
g1805
sg56
(lp1812
g92
asbasbasbag49
(g65
g51
NtRp1813
(dp1814
g54
(dp1815
sg63
g1682
sg56
(lp1816
g49
(g70
g51
NtRp1817
(dp1818
g54
(dp1819
g74
g75
ssg63
g1813
sg56
(lp1820
g746
asbag49
(g70
g51
NtRp1821
(dp1822
g54
(dp1823
g81
g82
ssg63
g1813
sg56
(lp1824
S':'
asbag49
(g70
g51
NtRp1825
(dp1826
g54
(dp1827
sg63
g1813
sg56
(lp1828
g49
(g50
g51
NtRp1829
(dp1830
g54
(dp1831
g62
I4
ssg63
g1825
sg56
(lp1832
g759
asbasbasbag49
(g65
g51
NtRp1833
(dp1834
g54
(dp1835
sg63
g1682
sg56
(lp1836
g49
(g70
g51
NtRp1837
(dp1838
g54
(dp1839
g74
g75
ssg63
g1833
sg56
(lp1840
g987
asbag49
(g70
g51
NtRp1841
(dp1842
g54
(dp1843
g81
g82
ssg63
g1833
sg56
(lp1844
S':'
asbag49
(g70
g51
NtRp1845
(dp1846
g54
(dp1847
sg63
g1833
sg56
(lp1848
g49
(g50
g51
NtRp1849
(dp1850
g54
(dp1851
g62
I4
ssg63
g1845
sg56
(lp1852
g92
asbasbasbag49
(g65
g51
NtRp1853
(dp1854
g54
(dp1855
sg63
g1682
sg56
(lp1856
g49
(g70
g51
NtRp1857
(dp1858
g54
(dp1859
g74
g75
ssg63
g1853
sg56
(lp1860
g1008
asbag49
(g70
g51
NtRp1861
(dp1862
g54
(dp1863
g81
g82
ssg63
g1853
sg56
(lp1864
S':'
asbag49
(g70
g51
NtRp1865
(dp1866
g54
(dp1867
sg63
g1853
sg56
(lp1868
g49
(g50
g51
NtRp1869
(dp1870
g54
(dp1871
g62
I4
ssg63
g1865
sg56
(lp1872
g92
asbasbasbag49
(g65
g51
NtRp1873
(dp1874
g54
(dp1875
sg63
g1682
sg56
(lp1876
g49
(g70
g51
NtRp1877
(dp1878
g54
(dp1879
g74
g75
ssg63
g1873
sg56
(lp1880
g1246
asbag49
(g70
g51
NtRp1881
(dp1882
g54
(dp1883
g81
g82
ssg63
g1873
sg56
(lp1884
S':'
asbag49
(g70
g51
NtRp1885
(dp1886
g54
(dp1887
sg63
g1873
sg56
(lp1888
g49
(g50
g51
NtRp1889
(dp1890
g54
(dp1891
g62
I4
ssg63
g1885
sg56
(lp1892
g1259
asbasbasbag49
(g65
g51
NtRp1893
(dp1894
g54
(dp1895
sg63
g1682
sg56
(lp1896
g49
(g70
g51
NtRp1897
(dp1898
g54
(dp1899
g74
g75
ssg63
g1893
sg56
(lp1900
g1289
asbag49
(g70
g51
NtRp1901
(dp1902
g54
(dp1903
g81
g82
ssg63
g1893
sg56
(lp1904
S':'
asbag49
(g70
g51
NtRp1905
(dp1906
g54
(dp1907
sg63
g1893
sg56
(lp1908
g49
(g50
g51
NtRp1909
(dp1910
g54
(dp1911
g62
I4
ssg63
g1905
sg56
(lp1912
g49
(g58
g51
NtRp1913
(dp1914
g54
(dp1915
g62
I3
ssg63
Nsg56
(lp1916
g49
(g65
g51
NtRp1917
(dp1918
g54
(dp1919
sg63
g1913
sg56
(lp1920
g49
(g70
g51
NtRp1921
(dp1922
g54
(dp1923
sg63
g1917
sg56
(lp1924
g49
(g50
g51
NtRp1925
(dp1926
g54
(dp1927
g62
I3
ssg63
g1921
sg56
(lp1928
S'1'
asbasbasbag49
(g65
g51
NtRp1929
(dp1930
g54
(dp1931
sg63
g1913
sg56
(lp1932
g49
(g70
g51
NtRp1933
(dp1934
g54
(dp1935
sg63
g1929
sg56
(lp1936
g49
(g50
g51
NtRp1937
(dp1938
g54
(dp1939
g62
I3
ssg63
g1933
sg56
(lp1940
S'99'
p1941
asbasbasbag49
(g65
g51
NtRp1942
(dp1943
g54
(dp1944
sg63
g1913
sg56
(lp1945
g49
(g70
g51
NtRp1946
(dp1947
g54
(dp1948
sg63
g1942
sg56
(lp1949
g49
(g50
g51
NtRp1950
(dp1951
g54
(dp1952
g62
I3
ssg63
g1946
sg56
(lp1953
S'7'
asbasbasbag49
(g65
g51
NtRp1954
(dp1955
g54
(dp1956
sg63
g1913
sg56
(lp1957
g49
(g70
g51
NtRp1958
(dp1959
g54
(dp1960
sg63
g1954
sg56
(lp1961
g49
(g50
g51
NtRp1962
(dp1963
g54
(dp1964
g62
I3
ssg63
g1958
sg56
(lp1965
S'datetime.datetime(2012, 3, 4, 22, 12, 8)'
p1966
asbasbasbag49
(g65
g51
NtRp1967
(dp1968
g54
(dp1969
sg63
g1913
sg56
(lp1970
g49
(g70
g51
NtRp1971
(dp1972
g54
(dp1973
sg63
g1967
sg56
(lp1974
g49
(g50
g51
NtRp1975
(dp1976
g54
(dp1977
g62
I3
ssg63
g1971
sg56
(lp1978
g1368
asbasbasbasbasbasbasbasbasbasbasbag49
(g65
g51
NtRp1979
(dp1980
g54
(dp1981
sg63
g59
sg56
(lp1982
g49
(g70
g51
NtRp1983
(dp1984
g54
(dp1985
g74
g75
ssg63
g1979
sg56
(lp1986
S'is_https'
p1987
asbag49
(g70
g51
NtRp1988
(dp1989
g54
(dp1990
g81
g82
ssg63
g1979
sg56
(lp1991
S':'
asbag49
(g70
g51
NtRp1992
(dp1993
g54
(dp1994
sg63
g1979
sg56
(lp1995
g49
(g50
g51
NtRp1996
(dp1997
g54
(dp1998
g62
I5
ssg63
g1992
sg56
(lp1999
g92
asbasbasbag49
(g65
g51
NtRp2000
(dp2001
g54
(dp2002
sg63
g59
sg56
(lp2003
g49
(g70
g51
NtRp2004
(dp2005
g54
(dp2006
g74
g75
ssg63
g2000
sg56
(lp2007
S'is_local'
p2008
asbag49
(g70
g51
NtRp2009
(dp2010
g54
(dp2011
g81
g82
ssg63
g2000
sg56
(lp2012
S':'
asbag49
(g70
g51
NtRp2013
(dp2014
g54
(dp2015
sg63
g2000
sg56
(lp2016
g49
(g50
g51
NtRp2017
(dp2018
g54
(dp2019
g62
I5
ssg63
g2013
sg56
(lp2020
g1477
asbasbasbag49
(g65
g51
NtRp2021
(dp2022
g54
(dp2023
sg63
g59
sg56
(lp2024
g49
(g70
g51
NtRp2025
(dp2026
g54
(dp2027
g74
g75
ssg63
g2021
sg56
(lp2028
S'is_restful'
p2029
asbag49
(g70
g51
NtRp2030
(dp2031
g54
(dp2032
g81
g82
ssg63
g2021
sg56
(lp2033
S':'
asbag49
(g70
g51
NtRp2034
(dp2035
g54
(dp2036
sg63
g2021
sg56
(lp2037
g49
(g50
g51
NtRp2038
(dp2039
g54
(dp2040
g62
I5
ssg63
g2034
sg56
(lp2041
g92
asbasbasbag49
(g65
g51
NtRp2042
(dp2043
g54
(dp2044
sg63
g59
sg56
(lp2045
g49
(g70
g51
NtRp2046
(dp2047
g54
(dp2048
g74
g75
ssg63
g2042
sg56
(lp2049
S'now'
p2050
asbag49
(g70
g51
NtRp2051
(dp2052
g54
(dp2053
g81
g82
ssg63
g2042
sg56
(lp2054
S':'
asbag49
(g70
g51
NtRp2055
(dp2056
g54
(dp2057
sg63
g2042
sg56
(lp2058
g49
(g50
g51
NtRp2059
(dp2060
g54
(dp2061
g62
I5
ssg63
g2055
sg56
(lp2062
S'datetime.datetime(2012, 7, 30, 1, 54, 9, 468000)'
p2063
asbasbasbag49
(g65
g51
NtRp2064
(dp2065
g54
(dp2066
sg63
g59
sg56
(lp2067
g49
(g70
g51
NtRp2068
(dp2069
g54
(dp2070
g74
g75
ssg63
g2064
sg56
(lp2071
S'post_vars'
p2072
asbag49
(g70
g51
NtRp2073
(dp2074
g54
(dp2075
g81
g82
ssg63
g2064
sg56
(lp2076
S':'
asbag49
(g70
g51
NtRp2077
(dp2078
g54
(dp2079
sg63
g2064
sg56
(lp2080
g49
(g50
g51
NtRp2081
(dp2082
g54
(dp2083
g62
I5
ssg63
g2077
sg56
(lp2084
g49
(g58
g51
NtRp2085
(dp2086
g54
(dp2087
g62
I4
ssg63
Nsg56
(lp2088
sbasbasbasbag49
(g65
g51
NtRp2089
(dp2090
g54
(dp2091
sg63
g59
sg56
(lp2092
g49
(g70
g51
NtRp2093
(dp2094
g54
(dp2095
g74
g75
ssg63
g2089
sg56
(lp2096
S'raw_args'
p2097
asbag49
(g70
g51
NtRp2098
(dp2099
g54
(dp2100
g81
g82
ssg63
g2089
sg56
(lp2101
S':'
asbag49
(g70
g51
NtRp2102
(dp2103
g54
(dp2104
sg63
g2089
sg56
(lp2105
g49
(g50
g51
NtRp2106
(dp2107
g54
(dp2108
g62
I5
ssg63
g2102
sg56
(lp2109
S'2'
asbasbasbag49
(g65
g51
NtRp2110
(dp2111
g54
(dp2112
sg63
g59
sg56
(lp2113
g49
(g70
g51
NtRp2114
(dp2115
g54
(dp2116
g74
g75
ssg63
g2110
sg56
(lp2117
S'url'
p2118
asbag49
(g70
g51
NtRp2119
(dp2120
g54
(dp2121
g81
g82
ssg63
g2110
sg56
(lp2122
S':'
asbag49
(g70
g51
NtRp2123
(dp2124
g54
(dp2125
sg63
g2110
sg56
(lp2126
g49
(g50
g51
NtRp2127
(dp2128
g54
(dp2129
g62
I5
ssg63
g2123
sg56
(lp2130
S'/unioeste_code/default/Code/2'
p2131
asbasbasbag49
(g65
g51
NtRp2132
(dp2133
g54
(dp2134
sg63
g59
sg56
(lp2135
g49
(g70
g51
NtRp2136
(dp2137
g54
(dp2138
g74
g75
ssg63
g2132
sg56
(lp2139
S'utcnow'
p2140
asbag49
(g70
g51
NtRp2141
(dp2142
g54
(dp2143
g81
g82
ssg63
g2132
sg56
(lp2144
S':'
asbag49
(g70
g51
NtRp2145
(dp2146
g54
(dp2147
sg63
g2132
sg56
(lp2148
g49
(g50
g51
NtRp2149
(dp2150
g54
(dp2151
g62
I5
ssg63
g2145
sg56
(lp2152
S'datetime.datetime(2012, 7, 30, 4, 54, 9, 468000)'
p2153
asbasbasbag49
(g65
g51
NtRp2154
(dp2155
g54
(dp2156
sg63
g59
sg56
(lp2157
g49
(g70
g51
NtRp2158
(dp2159
g54
(dp2160
g74
g75
ssg63
g2154
sg56
(lp2161
S'uuid'
p2162
asbag49
(g70
g51
NtRp2163
(dp2164
g54
(dp2165
g81
g82
ssg63
g2154
sg56
(lp2166
S':'
asbag49
(g70
g51
NtRp2167
(dp2168
g54
(dp2169
sg63
g2154
sg56
(lp2170
g49
(g50
g51
NtRp2171
(dp2172
g54
(dp2173
g62
I5
ssg63
g2167
sg56
(lp2174
S'unioeste_code/127.0.0.1.2012-07-30.01-54-09.443d8cfc-4f0d-4bf3-8bf1-01fa8e5405bc'
p2175
asbasbasbag49
(g65
g51
NtRp2176
(dp2177
g54
(dp2178
sg63
g59
sg56
(lp2179
g49
(g70
g51
NtRp2180
(dp2181
g54
(dp2182
g74
g75
ssg63
g2176
sg56
(lp2183
S'vars'
p2184
asbag49
(g70
g51
NtRp2185
(dp2186
g54
(dp2187
g81
g82
ssg63
g2176
sg56
(lp2188
S':'
asbag49
(g70
g51
NtRp2189
(dp2190
g54
(dp2191
sg63
g2176
sg56
(lp2192
g49
(g50
g51
NtRp2193
(dp2194
g54
(dp2195
g62
I5
ssg63
g2189
sg56
(lp2196
g49
(g58
g51
NtRp2197
(dp2198
g54
(dp2199
g62
I4
ssg63
Nsg56
(lp2200
sbasbasbasbag49
(g65
g51
NtRp2201
(dp2202
g54
(dp2203
sg63
g59
sg56
(lp2204
g49
(g70
g51
NtRp2205
(dp2206
g54
(dp2207
g74
g75
ssg63
g2201
sg56
(lp2208
S'wsgi'
p2209
asbag49
(g70
g51
NtRp2210
(dp2211
g54
(dp2212
g81
g82
ssg63
g2201
sg56
(lp2213
S':'
asbag49
(g70
g51
NtRp2214
(dp2215
g54
(dp2216
sg63
g2201
sg56
(lp2217
g49
(g50
g51
NtRp2218
(dp2219
g54
(dp2220
g62
I5
ssg63
g2214
sg56
(lp2221
g49
(g58
g51
NtRp2222
(dp2223
g54
(dp2224
g62
I4
ssg63
Nsg56
(lp2225
g49
(g65
g51
NtRp2226
(dp2227
g54
(dp2228
sg63
g2222
sg56
(lp2229
g49
(g70
g51
NtRp2230
(dp2231
g54
(dp2232
g74
g75
ssg63
g2226
sg56
(lp2233
S'environ'
p2234
asbag49
(g70
g51
NtRp2235
(dp2236
g54
(dp2237
g81
g82
ssg63
g2226
sg56
(lp2238
S':'
asbag49
(g70
g51
NtRp2239
(dp2240
g54
(dp2241
sg63
g2226
sg56
(lp2242
g49
(g50
g51
NtRp2243
(dp2244
g54
(dp2245
g62
I4
ssg63
g2239
sg56
(lp2246
g49
(g58
g51
NtRp2247
(dp2248
g54
(dp2249
g62
I3
ssg63
Nsg56
(lp2250
g49
(g65
g51
NtRp2251
(dp2252
g54
(dp2253
sg63
g2247
sg56
(lp2254
g49
(g70
g51
NtRp2255
(dp2256
g54
(dp2257
g74
g75
ssg63
g2251
sg56
(lp2258
S'HTTP_ACCEPT'
p2259
asbag49
(g70
g51
NtRp2260
(dp2261
g54
(dp2262
g81
g82
ssg63
g2251
sg56
(lp2263
S':'
asbag49
(g70
g51
NtRp2264
(dp2265
g54
(dp2266
sg63
g2251
sg56
(lp2267
g49
(g50
g51
NtRp2268
(dp2269
g54
(dp2270
g62
I3
ssg63
g2264
sg56
(lp2271
g781
asbasbasbag49
(g65
g51
NtRp2272
(dp2273
g54
(dp2274
sg63
g2247
sg56
(lp2275
g49
(g70
g51
NtRp2276
(dp2277
g54
(dp2278
g74
g75
ssg63
g2272
sg56
(lp2279
S'HTTP_ACCEPT_CHARSET'
p2280
asbag49
(g70
g51
NtRp2281
(dp2282
g54
(dp2283
g81
g82
ssg63
g2272
sg56
(lp2284
S':'
asbag49
(g70
g51
NtRp2285
(dp2286
g54
(dp2287
sg63
g2272
sg56
(lp2288
g49
(g50
g51
NtRp2289
(dp2290
g54
(dp2291
g62
I3
ssg63
g2285
sg56
(lp2292
g803
asbasbasbag49
(g65
g51
NtRp2293
(dp2294
g54
(dp2295
sg63
g2247
sg56
(lp2296
g49
(g70
g51
NtRp2297
(dp2298
g54
(dp2299
g74
g75
ssg63
g2293
sg56
(lp2300
S'HTTP_ACCEPT_ENCODING'
p2301
asbag49
(g70
g51
NtRp2302
(dp2303
g54
(dp2304
g81
g82
ssg63
g2293
sg56
(lp2305
S':'
asbag49
(g70
g51
NtRp2306
(dp2307
g54
(dp2308
sg63
g2293
sg56
(lp2309
g49
(g50
g51
NtRp2310
(dp2311
g54
(dp2312
g62
I3
ssg63
g2306
sg56
(lp2313
g825
asbasbasbag49
(g65
g51
NtRp2314
(dp2315
g54
(dp2316
sg63
g2247
sg56
(lp2317
g49
(g70
g51
NtRp2318
(dp2319
g54
(dp2320
g74
g75
ssg63
g2314
sg56
(lp2321
S'HTTP_ACCEPT_LANGUAGE'
p2322
asbag49
(g70
g51
NtRp2323
(dp2324
g54
(dp2325
g81
g82
ssg63
g2314
sg56
(lp2326
S':'
asbag49
(g70
g51
NtRp2327
(dp2328
g54
(dp2329
sg63
g2314
sg56
(lp2330
g49
(g50
g51
NtRp2331
(dp2332
g54
(dp2333
g62
I3
ssg63
g2327
sg56
(lp2334
g847
asbasbasbag49
(g65
g51
NtRp2335
(dp2336
g54
(dp2337
sg63
g2247
sg56
(lp2338
g49
(g70
g51
NtRp2339
(dp2340
g54
(dp2341
g74
g75
ssg63
g2335
sg56
(lp2342
S'HTTP_CACHE_CONTROL'
p2343
asbag49
(g70
g51
NtRp2344
(dp2345
g54
(dp2346
g81
g82
ssg63
g2335
sg56
(lp2347
S':'
asbag49
(g70
g51
NtRp2348
(dp2349
g54
(dp2350
sg63
g2335
sg56
(lp2351
g49
(g50
g51
NtRp2352
(dp2353
g54
(dp2354
g62
I3
ssg63
g2348
sg56
(lp2355
g869
asbasbasbag49
(g65
g51
NtRp2356
(dp2357
g54
(dp2358
sg63
g2247
sg56
(lp2359
g49
(g70
g51
NtRp2360
(dp2361
g54
(dp2362
g74
g75
ssg63
g2356
sg56
(lp2363
S'HTTP_CONNECTION'
p2364
asbag49
(g70
g51
NtRp2365
(dp2366
g54
(dp2367
g81
g82
ssg63
g2356
sg56
(lp2368
S':'
asbag49
(g70
g51
NtRp2369
(dp2370
g54
(dp2371
sg63
g2356
sg56
(lp2372
g49
(g50
g51
NtRp2373
(dp2374
g54
(dp2375
g62
I3
ssg63
g2369
sg56
(lp2376
g891
asbasbasbag49
(g65
g51
NtRp2377
(dp2378
g54
(dp2379
sg63
g2247
sg56
(lp2380
g49
(g70
g51
NtRp2381
(dp2382
g54
(dp2383
g74
g75
ssg63
g2377
sg56
(lp2384
S'HTTP_COOKIE'
p2385
asbag49
(g70
g51
NtRp2386
(dp2387
g54
(dp2388
g81
g82
ssg63
g2377
sg56
(lp2389
S':'
asbag49
(g70
g51
NtRp2390
(dp2391
g54
(dp2392
sg63
g2377
sg56
(lp2393
g49
(g50
g51
NtRp2394
(dp2395
g54
(dp2396
g62
I3
ssg63
g2390
sg56
(lp2397
g913
asbasbasbag49
(g65
g51
NtRp2398
(dp2399
g54
(dp2400
sg63
g2247
sg56
(lp2401
g49
(g70
g51
NtRp2402
(dp2403
g54
(dp2404
g74
g75
ssg63
g2398
sg56
(lp2405
S'HTTP_DNT'
p2406
asbag49
(g70
g51
NtRp2407
(dp2408
g54
(dp2409
g81
g82
ssg63
g2398
sg56
(lp2410
S':'
asbag49
(g70
g51
NtRp2411
(dp2412
g54
(dp2413
sg63
g2398
sg56
(lp2414
g49
(g50
g51
NtRp2415
(dp2416
g54
(dp2417
g62
I3
ssg63
g2411
sg56
(lp2418
S'1'
asbasbasbag49
(g65
g51
NtRp2419
(dp2420
g54
(dp2421
sg63
g2247
sg56
(lp2422
g49
(g70
g51
NtRp2423
(dp2424
g54
(dp2425
g74
g75
ssg63
g2419
sg56
(lp2426
S'HTTP_HOST'
p2427
asbag49
(g70
g51
NtRp2428
(dp2429
g54
(dp2430
g81
g82
ssg63
g2419
sg56
(lp2431
S':'
asbag49
(g70
g51
NtRp2432
(dp2433
g54
(dp2434
sg63
g2419
sg56
(lp2435
g49
(g50
g51
NtRp2436
(dp2437
g54
(dp2438
g62
I3
ssg63
g2432
sg56
(lp2439
g956
asbasbasbag49
(g65
g51
NtRp2440
(dp2441
g54
(dp2442
sg63
g2247
sg56
(lp2443
g49
(g70
g51
NtRp2444
(dp2445
g54
(dp2446
g74
g75
ssg63
g2440
sg56
(lp2447
S'HTTP_USER_AGENT'
p2448
asbag49
(g70
g51
NtRp2449
(dp2450
g54
(dp2451
g81
g82
ssg63
g2440
sg56
(lp2452
S':'
asbag49
(g70
g51
NtRp2453
(dp2454
g54
(dp2455
sg63
g2440
sg56
(lp2456
g49
(g50
g51
NtRp2457
(dp2458
g54
(dp2459
g62
I3
ssg63
g2453
sg56
(lp2460
g978
asbasbasbag49
(g65
g51
NtRp2461
(dp2462
g54
(dp2463
sg63
g2247
sg56
(lp2464
g49
(g70
g51
NtRp2465
(dp2466
g54
(dp2467
g74
g75
ssg63
g2461
sg56
(lp2468
S'PATH_INFO'
p2469
asbag49
(g70
g51
NtRp2470
(dp2471
g54
(dp2472
g81
g82
ssg63
g2461
sg56
(lp2473
S':'
asbag49
(g70
g51
NtRp2474
(dp2475
g54
(dp2476
sg63
g2461
sg56
(lp2477
g49
(g50
g51
NtRp2478
(dp2479
g54
(dp2480
g62
I3
ssg63
g2474
sg56
(lp2481
g1042
asbasbasbag49
(g65
g51
NtRp2482
(dp2483
g54
(dp2484
sg63
g2247
sg56
(lp2485
g49
(g70
g51
NtRp2486
(dp2487
g54
(dp2488
g74
g75
ssg63
g2482
sg56
(lp2489
S'QUERY_STRING'
p2490
asbag49
(g70
g51
NtRp2491
(dp2492
g54
(dp2493
g81
g82
ssg63
g2482
sg56
(lp2494
S':'
asbag49
(g70
g51
NtRp2495
(dp2496
g54
(dp2497
sg63
g2482
sg56
(lp2498
g49
(g50
g51
NtRp2499
(dp2500
g54
(dp2501
g62
I3
ssg63
g2495
sg56
(lp2502
S''
asbasbasbag49
(g65
g51
NtRp2503
(dp2504
g54
(dp2505
sg63
g2247
sg56
(lp2506
g49
(g70
g51
NtRp2507
(dp2508
g54
(dp2509
g74
g75
ssg63
g2503
sg56
(lp2510
S'REMOTE_ADDR'
p2511
asbag49
(g70
g51
NtRp2512
(dp2513
g54
(dp2514
g81
g82
ssg63
g2503
sg56
(lp2515
S':'
asbag49
(g70
g51
NtRp2516
(dp2517
g54
(dp2518
sg63
g2503
sg56
(lp2519
g49
(g50
g51
NtRp2520
(dp2521
g54
(dp2522
g62
I3
ssg63
g2516
sg56
(lp2523
g194
asbasbasbag49
(g65
g51
NtRp2524
(dp2525
g54
(dp2526
sg63
g2247
sg56
(lp2527
g49
(g70
g51
NtRp2528
(dp2529
g54
(dp2530
g74
g75
ssg63
g2524
sg56
(lp2531
S'REMOTE_PORT'
p2532
asbag49
(g70
g51
NtRp2533
(dp2534
g54
(dp2535
g81
g82
ssg63
g2524
sg56
(lp2536
S':'
asbag49
(g70
g51
NtRp2537
(dp2538
g54
(dp2539
sg63
g2524
sg56
(lp2540
g49
(g50
g51
NtRp2541
(dp2542
g54
(dp2543
g62
I3
ssg63
g2537
sg56
(lp2544
g1106
asbasbasbag49
(g65
g51
NtRp2545
(dp2546
g54
(dp2547
sg63
g2247
sg56
(lp2548
g49
(g70
g51
NtRp2549
(dp2550
g54
(dp2551
g74
g75
ssg63
g2545
sg56
(lp2552
S'REQUEST_METHOD'
p2553
asbag49
(g70
g51
NtRp2554
(dp2555
g54
(dp2556
g81
g82
ssg63
g2545
sg56
(lp2557
S':'
asbag49
(g70
g51
NtRp2558
(dp2559
g54
(dp2560
sg63
g2545
sg56
(lp2561
g49
(g50
g51
NtRp2562
(dp2563
g54
(dp2564
g62
I3
ssg63
g2558
sg56
(lp2565
g1128
asbasbasbag49
(g65
g51
NtRp2566
(dp2567
g54
(dp2568
sg63
g2247
sg56
(lp2569
g49
(g70
g51
NtRp2570
(dp2571
g54
(dp2572
g74
g75
ssg63
g2566
sg56
(lp2573
S'SCRIPT_NAME'
p2574
asbag49
(g70
g51
NtRp2575
(dp2576
g54
(dp2577
g81
g82
ssg63
g2566
sg56
(lp2578
S':'
asbag49
(g70
g51
NtRp2579
(dp2580
g54
(dp2581
sg63
g2566
sg56
(lp2582
g49
(g50
g51
NtRp2583
(dp2584
g54
(dp2585
g62
I3
ssg63
g2579
sg56
(lp2586
S''
asbasbasbag49
(g65
g51
NtRp2587
(dp2588
g54
(dp2589
sg63
g2247
sg56
(lp2590
g49
(g70
g51
NtRp2591
(dp2592
g54
(dp2593
g74
g75
ssg63
g2587
sg56
(lp2594
S'SERVER_NAME'
p2595
asbag49
(g70
g51
NtRp2596
(dp2597
g54
(dp2598
g81
g82
ssg63
g2587
sg56
(lp2599
S':'
asbag49
(g70
g51
NtRp2600
(dp2601
g54
(dp2602
sg63
g2587
sg56
(lp2603
g49
(g50
g51
NtRp2604
(dp2605
g54
(dp2606
g62
I3
ssg63
g2600
sg56
(lp2607
g1171
asbasbasbag49
(g65
g51
NtRp2608
(dp2609
g54
(dp2610
sg63
g2247
sg56
(lp2611
g49
(g70
g51
NtRp2612
(dp2613
g54
(dp2614
g74
g75
ssg63
g2608
sg56
(lp2615
S'SERVER_PORT'
p2616
asbag49
(g70
g51
NtRp2617
(dp2618
g54
(dp2619
g81
g82
ssg63
g2608
sg56
(lp2620
S':'
asbag49
(g70
g51
NtRp2621
(dp2622
g54
(dp2623
sg63
g2608
sg56
(lp2624
g49
(g50
g51
NtRp2625
(dp2626
g54
(dp2627
g62
I3
ssg63
g2621
sg56
(lp2628
g1193
asbasbasbag49
(g65
g51
NtRp2629
(dp2630
g54
(dp2631
sg63
g2247
sg56
(lp2632
g49
(g70
g51
NtRp2633
(dp2634
g54
(dp2635
g74
g75
ssg63
g2629
sg56
(lp2636
S'SERVER_PROTOCOL'
p2637
asbag49
(g70
g51
NtRp2638
(dp2639
g54
(dp2640
g81
g82
ssg63
g2629
sg56
(lp2641
S':'
asbag49
(g70
g51
NtRp2642
(dp2643
g54
(dp2644
sg63
g2629
sg56
(lp2645
g49
(g50
g51
NtRp2646
(dp2647
g54
(dp2648
g62
I3
ssg63
g2642
sg56
(lp2649
g1215
asbasbasbag49
(g65
g51
NtRp2650
(dp2651
g54
(dp2652
sg63
g2247
sg56
(lp2653
g49
(g70
g51
NtRp2654
(dp2655
g54
(dp2656
g74
g75
ssg63
g2650
sg56
(lp2657
S'SERVER_SOFTWARE'
p2658
asbag49
(g70
g51
NtRp2659
(dp2660
g54
(dp2661
g81
g82
ssg63
g2650
sg56
(lp2662
S':'
asbag49
(g70
g51
NtRp2663
(dp2664
g54
(dp2665
sg63
g2650
sg56
(lp2666
g49
(g50
g51
NtRp2667
(dp2668
g54
(dp2669
g62
I3
ssg63
g2663
sg56
(lp2670
g1237
asbasbasbag49
(g65
g51
NtRp2671
(dp2672
g54
(dp2673
sg63
g2247
sg56
(lp2674
g49
(g70
g51
NtRp2675
(dp2676
g54
(dp2677
g74
g75
ssg63
g2671
sg56
(lp2678
S'wsgi.errors'
p2679
asbag49
(g70
g51
NtRp2680
(dp2681
g54
(dp2682
g81
g82
ssg63
g2671
sg56
(lp2683
S':'
asbag49
(g70
g51
NtRp2684
(dp2685
g54
(dp2686
sg63
g2671
sg56
(lp2687
g49
(g50
g51
NtRp2688
(dp2689
g54
(dp2690
g62
I3
ssg63
g2684
sg56
(lp2691
S'<__main__.Stderr object at 0x00486670>'
p2692
asbasbasbag49
(g65
g51
NtRp2693
(dp2694
g54
(dp2695
sg63
g2247
sg56
(lp2696
g49
(g70
g51
NtRp2697
(dp2698
g54
(dp2699
g74
g75
ssg63
g2693
sg56
(lp2700
S'wsgi.file_wrapper'
p2701
asbag49
(g70
g51
NtRp2702
(dp2703
g54
(dp2704
g81
g82
ssg63
g2693
sg56
(lp2705
S':'
asbag49
(g70
g51
NtRp2706
(dp2707
g54
(dp2708
sg63
g2693
sg56
(lp2709
g49
(g50
g51
NtRp2710
(dp2711
g54
(dp2712
g62
I3
ssg63
g2706
sg56
(lp2713
S'<class wsgiref.util.FileWrapper at 0x02E8DE10>'
p2714
asbasbasbag49
(g65
g51
NtRp2715
(dp2716
g54
(dp2717
sg63
g2247
sg56
(lp2718
g49
(g70
g51
NtRp2719
(dp2720
g54
(dp2721
g74
g75
ssg63
g2715
sg56
(lp2722
S'wsgi.input'
p2723
asbag49
(g70
g51
NtRp2724
(dp2725
g54
(dp2726
g81
g82
ssg63
g2715
sg56
(lp2727
S':'
asbag49
(g70
g51
NtRp2728
(dp2729
g54
(dp2730
sg63
g2715
sg56
(lp2731
g49
(g50
g51
NtRp2732
(dp2733
g54
(dp2734
g62
I3
ssg63
g2728
sg56
(lp2735
S'<cStringIO.StringO object at 0x0685B840>'
p2736
asbasbasbag49
(g65
g51
NtRp2737
(dp2738
g54
(dp2739
sg63
g2247
sg56
(lp2740
g49
(g70
g51
NtRp2741
(dp2742
g54
(dp2743
g74
g75
ssg63
g2737
sg56
(lp2744
S'wsgi.multiprocess'
p2745
asbag49
(g70
g51
NtRp2746
(dp2747
g54
(dp2748
g81
g82
ssg63
g2737
sg56
(lp2749
S':'
asbag49
(g70
g51
NtRp2750
(dp2751
g54
(dp2752
sg63
g2737
sg56
(lp2753
g49
(g50
g51
NtRp2754
(dp2755
g54
(dp2756
g62
I3
ssg63
g2750
sg56
(lp2757
g92
asbasbasbag49
(g65
g51
NtRp2758
(dp2759
g54
(dp2760
sg63
g2247
sg56
(lp2761
g49
(g70
g51
NtRp2762
(dp2763
g54
(dp2764
g74
g75
ssg63
g2758
sg56
(lp2765
S'wsgi.multithread'
p2766
asbag49
(g70
g51
NtRp2767
(dp2768
g54
(dp2769
g81
g82
ssg63
g2758
sg56
(lp2770
S':'
asbag49
(g70
g51
NtRp2771
(dp2772
g54
(dp2773
sg63
g2758
sg56
(lp2774
g49
(g50
g51
NtRp2775
(dp2776
g54
(dp2777
g62
I3
ssg63
g2771
sg56
(lp2778
g1477
asbasbasbag49
(g65
g51
NtRp2779
(dp2780
g54
(dp2781
sg63
g2247
sg56
(lp2782
g49
(g70
g51
NtRp2783
(dp2784
g54
(dp2785
g74
g75
ssg63
g2779
sg56
(lp2786
S'wsgi.run_once'
p2787
asbag49
(g70
g51
NtRp2788
(dp2789
g54
(dp2790
g81
g82
ssg63
g2779
sg56
(lp2791
S':'
asbag49
(g70
g51
NtRp2792
(dp2793
g54
(dp2794
sg63
g2779
sg56
(lp2795
g49
(g50
g51
NtRp2796
(dp2797
g54
(dp2798
g62
I3
ssg63
g2792
sg56
(lp2799
g92
asbasbasbag49
(g65
g51
NtRp2800
(dp2801
g54
(dp2802
sg63
g2247
sg56
(lp2803
g49
(g70
g51
NtRp2804
(dp2805
g54
(dp2806
g74
g75
ssg63
g2800
sg56
(lp2807
S'wsgi.url_scheme'
p2808
asbag49
(g70
g51
NtRp2809
(dp2810
g54
(dp2811
g81
g82
ssg63
g2800
sg56
(lp2812
S':'
asbag49
(g70
g51
NtRp2813
(dp2814
g54
(dp2815
sg63
g2800
sg56
(lp2816
g49
(g50
g51
NtRp2817
(dp2818
g54
(dp2819
g62
I3
ssg63
g2813
sg56
(lp2820
g1520
asbasbasbag49
(g65
g51
NtRp2821
(dp2822
g54
(dp2823
sg63
g2247
sg56
(lp2824
g49
(g70
g51
NtRp2825
(dp2826
g54
(dp2827
g74
g75
ssg63
g2821
sg56
(lp2828
S'wsgi.version'
p2829
asbag49
(g70
g51
NtRp2830
(dp2831
g54
(dp2832
g81
g82
ssg63
g2821
sg56
(lp2833
S':'
asbag49
(g70
g51
NtRp2834
(dp2835
g54
(dp2836
sg63
g2821
sg56
(lp2837
g49
(g50
g51
NtRp2838
(dp2839
g54
(dp2840
g62
I3
ssg63
g2834
sg56
(lp2841
S'1'
asbasbasbasbasbasbasbasbasbasbasbasbasbsS'frames'
p2842
(lp2843
(dp2844
S'file'
p2845
S'C:\\web2py\\gluon\\restricted.py'
p2846
sS'dump'
p2847
(dp2848
sS'lnum'
p2849
I205
sS'lines'
p2850
(dp2851
sS'call'
p2852
S'(code="response.write(\' \', escape=False)\\nresponse.write...ponse.write(\'\\\\n</body>\\\\n</html>\\\\n\', escape=False)", environment={\'A\': <class \'gluon.html.A\'>, \'Auth\': <class \'gluon.tools.Auth\'>, \'B\': <class \'gluon.html.B\'>, \'BEAUTIFY\': <class \'gluon.html.BEAUTIFY\'>, \'BODY\': <class \'gluon.html.BODY\'>, \'BR\': <class \'gluon.html.BR\'>, \'BUTTON\': <class \'gluon.html.BUTTON\'>, \'CAT\': <class \'gluon.html.CAT\'>, \'CENTER\': <class \'gluon.html.CENTER\'>, \'CLEANUP\': <class \'gluon.validators.CLEANUP\'>, ...}, layer=r\'C:\\web2py\\applications\\unioeste_code\\views\\default/Code.html\')'
p2853
sS'func'
p2854
S'restricted'
p2855
sa(dp2856
g2845
S'C:\\web2py\\applications\\unioeste_code\\views\\default\\Code.html'
p2857
sg2847
(dp2858
sg2849
I87
sg2850
(dp2859
I96
S"response.write('\\r\\n\\r\\n', escape=False)"
p2860
sI97
S'for comment in comments:'
p2861
sI78
S'    response.write(\'\\n        <div class="four columns left-sidebar">\\n          \', escape=False)'
p2862
sI79
S"    response.write('\\n          <h3>Left Sidebar</h3>\\n          <p></p>\\n          ', escape=False)"
p2863
sI80
S"    response.write('\\n        </div>\\n        ', escape=False)"
p2864
sI81
S'    pass'
p2865
sI82
S'response.write(\'\\n        \\n        <div class="\', escape=False)'
p2866
sI83
S'response.write(middle_columns)'
p2867
sI84
S'response.write(\' columns center">\\n          \', escape=False)'
p2868
sI85
S"response.write('\\n          ', escape=False)"
p2869
sI86
S'response.write(\'\\r\\n\\r\\n <head>\\r\\n <script src="../../static/lib/codemirror.js"></script>\\r\\n <link rel="stylesheet" href="../../static/lib/codemirror.css">\\r\\n <script src="../../static/mode/clike.js"></script>\\r\\n <style>.CodeMirror {border: 3px solid #cccccc;}</style>\\r\\n</head>\\r\\n\\r\\n\\r\\n\', escape=False)'
p2870
sI87
S'import __init__'
p2871
sI88
S"response.write('\\r\\n', escape=False)"
p2872
sI89
S'response.write(H1(T("Solution by")))'
p2873
sI90
S"response.write('\\r\\n', escape=False)"
p2874
sI91
S'response.write(hey())'
p2875
sI92
S'response.write(\'\\r\\n\\r\\n\\r\\n<textarea id="code_body">\\r\\n\', escape=False)'
p2876
sI93
S'response.write(code.body)'
p2877
sI94
S"response.write('\\r\\n</textarea>\\r\\n\\r\\n', escape=False)"
p2878
sI95
S'response.write(H3(T("Comments"), _style="color:green"))'
p2879
ssg2852
S'()'
p2880
sg2854
S'<module>'
p2881
sa(dp2882
g2845
S'C:\\web2py\\gluon\\custom_import.py'
p2883
sg2847
(dp2884
sg2849
I293
sg2850
(dp2885
sg2852
S"(self=<gluon.custom_import._Web2pyImporter object at 0x02F213B0>, name='__init__', globals={'A': <class 'gluon.html.A'>, 'Auth': <class 'gluon.tools.Auth'>, 'B': <class 'gluon.html.B'>, 'BEAUTIFY': <class 'gluon.html.BEAUTIFY'>, 'BODY': <class 'gluon.html.BODY'>, 'BR': <class 'gluon.html.BR'>, 'BUTTON': <class 'gluon.html.BUTTON'>, 'CAT': <class 'gluon.html.CAT'>, 'CENTER': <class 'gluon.html.CENTER'>, 'CLEANUP': <class 'gluon.validators.CLEANUP'>, ...}, locals={'A': <class 'gluon.html.A'>, 'Auth': <class 'gluon.tools.Auth'>, 'B': <class 'gluon.html.B'>, 'BEAUTIFY': <class 'gluon.html.BEAUTIFY'>, 'BODY': <class 'gluon.html.BODY'>, 'BR': <class 'gluon.html.BR'>, 'BUTTON': <class 'gluon.html.BUTTON'>, 'CAT': <class 'gluon.html.CAT'>, 'CENTER': <class 'gluon.html.CENTER'>, 'CLEANUP': <class 'gluon.validators.CLEANUP'>, ...}, fromlist=[], level=-1)"
p2886
sg2854
S'__call__'
p2887
sa(dp2888
g2845
S'C:\\web2py\\gluon\\custom_import.py'
p2889
sg2847
(dp2890
sg2849
I78
sg2850
(dp2891
sg2852
S"(self=<gluon.custom_import._Web2pyImporter object at 0x02F213B0>, name='__init__', globals={'A': <class 'gluon.html.A'>, 'Auth': <class 'gluon.tools.Auth'>, 'B': <class 'gluon.html.B'>, 'BEAUTIFY': <class 'gluon.html.BEAUTIFY'>, 'BODY': <class 'gluon.html.BODY'>, 'BR': <class 'gluon.html.BR'>, 'BUTTON': <class 'gluon.html.BUTTON'>, 'CAT': <class 'gluon.html.CAT'>, 'CENTER': <class 'gluon.html.CENTER'>, 'CLEANUP': <class 'gluon.validators.CLEANUP'>, ...}, locals={'A': <class 'gluon.html.A'>, 'Auth': <class 'gluon.tools.Auth'>, 'B': <class 'gluon.html.B'>, 'BEAUTIFY': <class 'gluon.html.BEAUTIFY'>, 'BODY': <class 'gluon.html.BODY'>, 'BR': <class 'gluon.html.BR'>, 'BUTTON': <class 'gluon.html.BUTTON'>, 'CAT': <class 'gluon.html.CAT'>, 'CENTER': <class 'gluon.html.CENTER'>, 'CLEANUP': <class 'gluon.validators.CLEANUP'>, ...}, fromlist=[], level=-1)"
p2892
sg2854
g2887
sasS'pyver'
p2893
S'Python 2.5.4: C:\\web2py\\web2py_no_console.exe'
p2894
sS'session'
p2895
g49
(g50
g51
NtRp2896
(dp2897
g54
(dp2898
sg56
(lp2899
g49
(g58
g51
NtRp2900
(dp2901
g54
(dp2902
g62
I5
ssg63
Nsg56
(lp2903
g49
(g65
g51
NtRp2904
(dp2905
g54
(dp2906
sg63
g2900
sg56
(lp2907
g49
(g70
g51
NtRp2908
(dp2909
g54
(dp2910
g74
g75
ssg63
g2904
sg56
(lp2911
S'auth'
p2912
asbag49
(g70
g51
NtRp2913
(dp2914
g54
(dp2915
g81
g82
ssg63
g2904
sg56
(lp2916
S':'
asbag49
(g70
g51
NtRp2917
(dp2918
g54
(dp2919
sg63
g2904
sg56
(lp2920
g49
(g50
g51
NtRp2921
(dp2922
g54
(dp2923
g62
I5
ssg63
g2917
sg56
(lp2924
g49
(g58
g51
NtRp2925
(dp2926
g54
(dp2927
g62
I4
ssg63
Nsg56
(lp2928
g49
(g65
g51
NtRp2929
(dp2930
g54
(dp2931
sg63
g2925
sg56
(lp2932
g49
(g70
g51
NtRp2933
(dp2934
g54
(dp2935
g74
g75
ssg63
g2929
sg56
(lp2936
S'expiration'
p2937
asbag49
(g70
g51
NtRp2938
(dp2939
g54
(dp2940
g81
g82
ssg63
g2929
sg56
(lp2941
S':'
asbag49
(g70
g51
NtRp2942
(dp2943
g54
(dp2944
sg63
g2929
sg56
(lp2945
g49
(g50
g51
NtRp2946
(dp2947
g54
(dp2948
g62
I4
ssg63
g2942
sg56
(lp2949
S'3600'
p2950
asbasbasbag49
(g65
g51
NtRp2951
(dp2952
g54
(dp2953
sg63
g2925
sg56
(lp2954
g49
(g70
g51
NtRp2955
(dp2956
g54
(dp2957
g74
g75
ssg63
g2951
sg56
(lp2958
S'hmac_key'
p2959
asbag49
(g70
g51
NtRp2960
(dp2961
g54
(dp2962
g81
g82
ssg63
g2951
sg56
(lp2963
S':'
asbag49
(g70
g51
NtRp2964
(dp2965
g54
(dp2966
sg63
g2951
sg56
(lp2967
g49
(g50
g51
NtRp2968
(dp2969
g54
(dp2970
g62
I4
ssg63
g2964
sg56
(lp2971
S'995a0c66-3f99-485b-9dcd-26805f1668c1'
p2972
asbasbasbag49
(g65
g51
NtRp2973
(dp2974
g54
(dp2975
sg63
g2925
sg56
(lp2976
g49
(g70
g51
NtRp2977
(dp2978
g54
(dp2979
g74
g75
ssg63
g2973
sg56
(lp2980
S'last_visit'
p2981
asbag49
(g70
g51
NtRp2982
(dp2983
g54
(dp2984
g81
g82
ssg63
g2973
sg56
(lp2985
S':'
asbag49
(g70
g51
NtRp2986
(dp2987
g54
(dp2988
sg63
g2973
sg56
(lp2989
g49
(g50
g51
NtRp2990
(dp2991
g54
(dp2992
g62
I4
ssg63
g2986
sg56
(lp2993
S'datetime.datetime(2012, 7, 30, 1, 54, 9, 468000)'
p2994
asbasbasbag49
(g65
g51
NtRp2995
(dp2996
g54
(dp2997
sg63
g2925
sg56
(lp2998
g49
(g70
g51
NtRp2999
(dp3000
g54
(dp3001
g74
g75
ssg63
g2995
sg56
(lp3002
S'remember'
p3003
asbag49
(g70
g51
NtRp3004
(dp3005
g54
(dp3006
g81
g82
ssg63
g2995
sg56
(lp3007
S':'
asbag49
(g70
g51
NtRp3008
(dp3009
g54
(dp3010
sg63
g2995
sg56
(lp3011
g49
(g50
g51
NtRp3012
(dp3013
g54
(dp3014
g62
I4
ssg63
g3008
sg56
(lp3015
g92
asbasbasbag49
(g65
g51
NtRp3016
(dp3017
g54
(dp3018
sg63
g2925
sg56
(lp3019
g49
(g70
g51
NtRp3020
(dp3021
g54
(dp3022
g74
g75
ssg63
g3016
sg56
(lp3023
S'user'
p3024
asbag49
(g70
g51
NtRp3025
(dp3026
g54
(dp3027
g81
g82
ssg63
g3016
sg56
(lp3028
S':'
asbag49
(g70
g51
NtRp3029
(dp3030
g54
(dp3031
sg63
g3016
sg56
(lp3032
g49
(g50
g51
NtRp3033
(dp3034
g54
(dp3035
g62
I4
ssg63
g3029
sg56
(lp3036
g49
(g58
g51
NtRp3037
(dp3038
g54
(dp3039
g62
I3
ssg63
Nsg56
(lp3040
g49
(g65
g51
NtRp3041
(dp3042
g54
(dp3043
sg63
g3037
sg56
(lp3044
g49
(g70
g51
NtRp3045
(dp3046
g54
(dp3047
g74
g75
ssg63
g3041
sg56
(lp3048
S'email'
p3049
asbag49
(g70
g51
NtRp3050
(dp3051
g54
(dp3052
g81
g82
ssg63
g3041
sg56
(lp3053
S':'
asbag49
(g70
g51
NtRp3054
(dp3055
g54
(dp3056
sg63
g3041
sg56
(lp3057
g49
(g50
g51
NtRp3058
(dp3059
g54
(dp3060
g62
I3
ssg63
g3054
sg56
(lp3061
S'scmirror1@gmail.com'
p3062
asbasbasbag49
(g65
g51
NtRp3063
(dp3064
g54
(dp3065
sg63
g3037
sg56
(lp3066
g49
(g70
g51
NtRp3067
(dp3068
g54
(dp3069
g74
g75
ssg63
g3063
sg56
(lp3070
S'first_name'
p3071
asbag49
(g70
g51
NtRp3072
(dp3073
g54
(dp3074
g81
g82
ssg63
g3063
sg56
(lp3075
S':'
asbag49
(g70
g51
NtRp3076
(dp3077
g54
(dp3078
sg63
g3063
sg56
(lp3079
g49
(g50
g51
NtRp3080
(dp3081
g54
(dp3082
g62
I3
ssg63
g3076
sg56
(lp3083
S'Pedro'
p3084
asbasbasbag49
(g65
g51
NtRp3085
(dp3086
g54
(dp3087
sg63
g3037
sg56
(lp3088
g49
(g70
g51
NtRp3089
(dp3090
g54
(dp3091
g74
g75
ssg63
g3085
sg56
(lp3092
S'id'
p3093
asbag49
(g70
g51
NtRp3094
(dp3095
g54
(dp3096
g81
g82
ssg63
g3085
sg56
(lp3097
S':'
asbag49
(g70
g51
NtRp3098
(dp3099
g54
(dp3100
sg63
g3085
sg56
(lp3101
g49
(g50
g51
NtRp3102
(dp3103
g54
(dp3104
g62
I3
ssg63
g3098
sg56
(lp3105
S'1'
asbasbasbag49
(g65
g51
NtRp3106
(dp3107
g54
(dp3108
sg63
g3037
sg56
(lp3109
g49
(g70
g51
NtRp3110
(dp3111
g54
(dp3112
g74
g75
ssg63
g3106
sg56
(lp3113
S'last_name'
p3114
asbag49
(g70
g51
NtRp3115
(dp3116
g54
(dp3117
g81
g82
ssg63
g3106
sg56
(lp3118
S':'
asbag49
(g70
g51
NtRp3119
(dp3120
g54
(dp3121
sg63
g3106
sg56
(lp3122
g49
(g50
g51
NtRp3123
(dp3124
g54
(dp3125
g62
I3
ssg63
g3119
sg56
(lp3126
S'Lacerda'
p3127
asbasbasbag49
(g65
g51
NtRp3128
(dp3129
g54
(dp3130
sg63
g3037
sg56
(lp3131
g49
(g70
g51
NtRp3132
(dp3133
g54
(dp3134
g74
g75
ssg63
g3128
sg56
(lp3135
S'password'
p3136
asbag49
(g70
g51
NtRp3137
(dp3138
g54
(dp3139
g81
g82
ssg63
g3128
sg56
(lp3140
S':'
asbag49
(g70
g51
NtRp3141
(dp3142
g54
(dp3143
sg63
g3128
sg56
(lp3144
g49
(g50
g51
NtRp3145
(dp3146
g54
(dp3147
g62
I3
ssg63
g3141
sg56
(lp3148
S'4297f44b13955235245b2497399d7a93'
p3149
asbasbasbag49
(g65
g51
NtRp3150
(dp3151
g54
(dp3152
sg63
g3037
sg56
(lp3153
g49
(g70
g51
NtRp3154
(dp3155
g54
(dp3156
g74
g75
ssg63
g3150
sg56
(lp3157
S'registration_id'
p3158
asbag49
(g70
g51
NtRp3159
(dp3160
g54
(dp3161
g81
g82
ssg63
g3150
sg56
(lp3162
S':'
asbag49
(g70
g51
NtRp3163
(dp3164
g54
(dp3165
sg63
g3150
sg56
(lp3166
g49
(g50
g51
NtRp3167
(dp3168
g54
(dp3169
g62
I3
ssg63
g3163
sg56
(lp3170
S''
asbasbasbag49
(g65
g51
NtRp3171
(dp3172
g54
(dp3173
sg63
g3037
sg56
(lp3174
g49
(g70
g51
NtRp3175
(dp3176
g54
(dp3177
g74
g75
ssg63
g3171
sg56
(lp3178
S'registration_key'
p3179
asbag49
(g70
g51
NtRp3180
(dp3181
g54
(dp3182
g81
g82
ssg63
g3171
sg56
(lp3183
S':'
asbag49
(g70
g51
NtRp3184
(dp3185
g54
(dp3186
sg63
g3171
sg56
(lp3187
g49
(g50
g51
NtRp3188
(dp3189
g54
(dp3190
g62
I3
ssg63
g3184
sg56
(lp3191
S''
asbasbasbag49
(g65
g51
NtRp3192
(dp3193
g54
(dp3194
sg63
g3037
sg56
(lp3195
g49
(g70
g51
NtRp3196
(dp3197
g54
(dp3198
g74
g75
ssg63
g3192
sg56
(lp3199
S'reset_password_key'
p3200
asbag49
(g70
g51
NtRp3201
(dp3202
g54
(dp3203
g81
g82
ssg63
g3192
sg56
(lp3204
S':'
asbag49
(g70
g51
NtRp3205
(dp3206
g54
(dp3207
sg63
g3192
sg56
(lp3208
g49
(g50
g51
NtRp3209
(dp3210
g54
(dp3211
g62
I3
ssg63
g3205
sg56
(lp3212
S''
asbasbasbasbasbasbasbag49
(g65
g51
NtRp3213
(dp3214
g54
(dp3215
sg63
g2925
sg56
(lp3216
g49
(g70
g51
NtRp3217
(dp3218
g54
(dp3219
g74
g75
ssg63
g3213
sg56
(lp3220
S'user_groups'
p3221
asbag49
(g70
g51
NtRp3222
(dp3223
g54
(dp3224
g81
g82
ssg63
g3213
sg56
(lp3225
S':'
asbag49
(g70
g51
NtRp3226
(dp3227
g54
(dp3228
sg63
g3213
sg56
(lp3229
g49
(g50
g51
NtRp3230
(dp3231
g54
(dp3232
g62
I4
ssg63
g3226
sg56
(lp3233
g49
(g58
g51
NtRp3234
(dp3235
g54
(dp3236
g62
I3
ssg63
Nsg56
(lp3237
g49
(g65
g51
NtRp3238
(dp3239
g54
(dp3240
sg63
g3234
sg56
(lp3241
g49
(g70
g51
NtRp3242
(dp3243
g54
(dp3244
g74
g75
ssg63
g3238
sg56
(lp3245
S'1'
asbag49
(g70
g51
NtRp3246
(dp3247
g54
(dp3248
g81
g82
ssg63
g3238
sg56
(lp3249
S':'
asbag49
(g70
g51
NtRp3250
(dp3251
g54
(dp3252
sg63
g3238
sg56
(lp3253
g49
(g50
g51
NtRp3254
(dp3255
g54
(dp3256
g62
I3
ssg63
g3250
sg56
(lp3257
S'user_1'
p3258
asbasbasbag49
(g65
g51
NtRp3259
(dp3260
g54
(dp3261
sg63
g3234
sg56
(lp3262
g49
(g70
g51
NtRp3263
(dp3264
g54
(dp3265
g74
g75
ssg63
g3259
sg56
(lp3266
S'2'
asbag49
(g70
g51
NtRp3267
(dp3268
g54
(dp3269
g81
g82
ssg63
g3259
sg56
(lp3270
S':'
asbag49
(g70
g51
NtRp3271
(dp3272
g54
(dp3273
sg63
g3259
sg56
(lp3274
g49
(g50
g51
NtRp3275
(dp3276
g54
(dp3277
g62
I3
ssg63
g3271
sg56
(lp3278
S'manager'
p3279
asbasbasbasbasbasbasbasbasbasbasbasbasbsS'etype'
p3280
S"<type 'exceptions.ImportError'>"
p3281
sS'date'
p3282
S'Mon Jul 30 01:54:09 2012'
p3283
sS'response'
p3284
g49
(g50
g51
NtRp3285
(dp3286
g54
(dp3287
sg56
(lp3288
g49
(g58
g51
NtRp3289
(dp3290
g54
(dp3291
g62
I5
ssg63
Nsg56
(lp3292
g49
(g65
g51
NtRp3293
(dp3294
g54
(dp3295
sg63
g3289
sg56
(lp3296
g49
(g70
g51
NtRp3297
(dp3298
g54
(dp3299
g74
g75
ssg63
g3293
sg56
(lp3300
g159
asbag49
(g70
g51
NtRp3301
(dp3302
g54
(dp3303
g81
g82
ssg63
g3293
sg56
(lp3304
S':'
asbag49
(g70
g51
NtRp3305
(dp3306
g54
(dp3307
sg63
g3293
sg56
(lp3308
g49
(g50
g51
NtRp3309
(dp3310
g54
(dp3311
g62
I5
ssg63
g3305
sg56
(lp3312
S'<cStringIO.StringO object at 0x0611EC40>'
p3313
asbasbasbag49
(g65
g51
NtRp3314
(dp3315
g54
(dp3316
sg63
g3289
sg56
(lp3317
g49
(g70
g51
NtRp3318
(dp3319
g54
(dp3320
g74
g75
ssg63
g3314
sg56
(lp3321
g225
asbag49
(g70
g51
NtRp3322
(dp3323
g54
(dp3324
g81
g82
ssg63
g3314
sg56
(lp3325
S':'
asbag49
(g70
g51
NtRp3326
(dp3327
g54
(dp3328
sg63
g3314
sg56
(lp3329
g49
(g50
g51
NtRp3330
(dp3331
g54
(dp3332
g62
I5
ssg63
g3326
sg56
(lp3333
g49
(g58
g51
NtRp3334
(dp3335
g54
(dp3336
g62
I4
ssg63
Nsg56
(lp3337
g49
(g65
g51
NtRp3338
(dp3339
g54
(dp3340
sg63
g3334
sg56
(lp3341
g49
(g70
g51
NtRp3342
(dp3343
g54
(dp3344
g74
g75
ssg63
g3338
sg56
(lp3345
S'session_id_unioeste_code'
p3346
asbag49
(g70
g51
NtRp3347
(dp3348
g54
(dp3349
g81
g82
ssg63
g3338
sg56
(lp3350
S':'
asbag49
(g70
g51
NtRp3351
(dp3352
g54
(dp3353
sg63
g3338
sg56
(lp3354
g49
(g50
g51
NtRp3355
(dp3356
g54
(dp3357
g62
I4
ssg63
g3351
sg56
(lp3358
g49
(g58
g51
NtRp3359
(dp3360
g54
(dp3361
g62
I3
ssg63
Nsg56
(lp3362
g49
(g65
g51
NtRp3363
(dp3364
g54
(dp3365
sg63
g3359
sg56
(lp3366
g49
(g70
g51
NtRp3367
(dp3368
g54
(dp3369
g74
g75
ssg63
g3363
sg56
(lp3370
g275
asbag49
(g70
g51
NtRp3371
(dp3372
g54
(dp3373
g81
g82
ssg63
g3363
sg56
(lp3374
S':'
asbag49
(g70
g51
NtRp3375
(dp3376
g54
(dp3377
sg63
g3363
sg56
(lp3378
g49
(g50
g51
NtRp3379
(dp3380
g54
(dp3381
g62
I3
ssg63
g3375
sg56
(lp3382
S''
asbasbasbag49
(g65
g51
NtRp3383
(dp3384
g54
(dp3385
sg63
g3359
sg56
(lp3386
g49
(g70
g51
NtRp3387
(dp3388
g54
(dp3389
g74
g75
ssg63
g3383
sg56
(lp3390
g296
asbag49
(g70
g51
NtRp3391
(dp3392
g54
(dp3393
g81
g82
ssg63
g3383
sg56
(lp3394
S':'
asbag49
(g70
g51
NtRp3395
(dp3396
g54
(dp3397
sg63
g3383
sg56
(lp3398
g49
(g50
g51
NtRp3399
(dp3400
g54
(dp3401
g62
I3
ssg63
g3395
sg56
(lp3402
S''
asbasbasbag49
(g65
g51
NtRp3403
(dp3404
g54
(dp3405
sg63
g3359
sg56
(lp3406
g49
(g70
g51
NtRp3407
(dp3408
g54
(dp3409
g74
g75
ssg63
g3403
sg56
(lp3410
g317
asbag49
(g70
g51
NtRp3411
(dp3412
g54
(dp3413
g81
g82
ssg63
g3403
sg56
(lp3414
S':'
asbag49
(g70
g51
NtRp3415
(dp3416
g54
(dp3417
sg63
g3403
sg56
(lp3418
g49
(g50
g51
NtRp3419
(dp3420
g54
(dp3421
g62
I3
ssg63
g3415
sg56
(lp3422
S''
asbasbasbag49
(g65
g51
NtRp3423
(dp3424
g54
(dp3425
sg63
g3359
sg56
(lp3426
g49
(g70
g51
NtRp3427
(dp3428
g54
(dp3429
g74
g75
ssg63
g3423
sg56
(lp3430
g338
asbag49
(g70
g51
NtRp3431
(dp3432
g54
(dp3433
g81
g82
ssg63
g3423
sg56
(lp3434
S':'
asbag49
(g70
g51
NtRp3435
(dp3436
g54
(dp3437
sg63
g3423
sg56
(lp3438
g49
(g50
g51
NtRp3439
(dp3440
g54
(dp3441
g62
I3
ssg63
g3435
sg56
(lp3442
S''
asbasbasbag49
(g65
g51
NtRp3443
(dp3444
g54
(dp3445
sg63
g3359
sg56
(lp3446
g49
(g70
g51
NtRp3447
(dp3448
g54
(dp3449
g74
g75
ssg63
g3443
sg56
(lp3450
g359
asbag49
(g70
g51
NtRp3451
(dp3452
g54
(dp3453
g81
g82
ssg63
g3443
sg56
(lp3454
S':'
asbag49
(g70
g51
NtRp3455
(dp3456
g54
(dp3457
sg63
g3443
sg56
(lp3458
g49
(g50
g51
NtRp3459
(dp3460
g54
(dp3461
g62
I3
ssg63
g3455
sg56
(lp3462
S'/'
asbasbasbag49
(g65
g51
NtRp3463
(dp3464
g54
(dp3465
sg63
g3359
sg56
(lp3466
g49
(g70
g51
NtRp3467
(dp3468
g54
(dp3469
g74
g75
ssg63
g3463
sg56
(lp3470
g380
asbag49
(g70
g51
NtRp3471
(dp3472
g54
(dp3473
g81
g82
ssg63
g3463
sg56
(lp3474
S':'
asbag49
(g70
g51
NtRp3475
(dp3476
g54
(dp3477
sg63
g3463
sg56
(lp3478
g49
(g50
g51
NtRp3479
(dp3480
g54
(dp3481
g62
I3
ssg63
g3475
sg56
(lp3482
S''
asbasbasbag49
(g65
g51
NtRp3483
(dp3484
g54
(dp3485
sg63
g3359
sg56
(lp3486
g49
(g70
g51
NtRp3487
(dp3488
g54
(dp3489
g74
g75
ssg63
g3483
sg56
(lp3490
g401
asbag49
(g70
g51
NtRp3491
(dp3492
g54
(dp3493
g81
g82
ssg63
g3483
sg56
(lp3494
S':'
asbag49
(g70
g51
NtRp3495
(dp3496
g54
(dp3497
sg63
g3483
sg56
(lp3498
g49
(g50
g51
NtRp3499
(dp3500
g54
(dp3501
g62
I3
ssg63
g3495
sg56
(lp3502
S''
asbasbasbasbasbasbasbasbasbasbasbag49
(g65
g51
NtRp3503
(dp3504
g54
(dp3505
sg63
g3289
sg56
(lp3506
g49
(g70
g51
NtRp3507
(dp3508
g54
(dp3509
g74
g75
ssg63
g3503
sg56
(lp3510
S'delimiters'
p3511
asbag49
(g70
g51
NtRp3512
(dp3513
g54
(dp3514
g81
g82
ssg63
g3503
sg56
(lp3515
S':'
asbag49
(g70
g51
NtRp3516
(dp3517
g54
(dp3518
sg63
g3503
sg56
(lp3519
g49
(g50
g51
NtRp3520
(dp3521
g54
(dp3522
g62
I5
ssg63
g3516
sg56
(lp3523
g49
(g58
g51
NtRp3524
(dp3525
g54
(dp3526
g62
I4
ssg63
Nsg56
(lp3527
g49
(g65
g51
NtRp3528
(dp3529
g54
(dp3530
sg63
g3524
sg56
(lp3531
g49
(g70
g51
NtRp3532
(dp3533
g54
(dp3534
sg63
g3528
sg56
(lp3535
g49
(g50
g51
NtRp3536
(dp3537
g54
(dp3538
g62
I4
ssg63
g3532
sg56
(lp3539
S'{{'
p3540
asbasbasbag49
(g65
g51
NtRp3541
(dp3542
g54
(dp3543
sg63
g3524
sg56
(lp3544
g49
(g70
g51
NtRp3545
(dp3546
g54
(dp3547
sg63
g3541
sg56
(lp3548
g49
(g50
g51
NtRp3549
(dp3550
g54
(dp3551
g62
I4
ssg63
g3545
sg56
(lp3552
S'}}'
p3553
asbasbasbasbasbasbasbag49
(g65
g51
NtRp3554
(dp3555
g54
(dp3556
sg63
g3289
sg56
(lp3557
g49
(g70
g51
NtRp3558
(dp3559
g54
(dp3560
g74
g75
ssg63
g3554
sg56
(lp3561
S'files'
p3562
asbag49
(g70
g51
NtRp3563
(dp3564
g54
(dp3565
g81
g82
ssg63
g3554
sg56
(lp3566
S':'
asbag49
(g70
g51
NtRp3567
(dp3568
g54
(dp3569
sg63
g3554
sg56
(lp3570
g49
(g50
g51
NtRp3571
(dp3572
g54
(dp3573
g62
I5
ssg63
g3567
sg56
(lp3574
g49
(g58
g51
NtRp3575
(dp3576
g54
(dp3577
g62
I4
ssg63
Nsg56
(lp3578
g49
(g65
g51
NtRp3579
(dp3580
g54
(dp3581
sg63
g3575
sg56
(lp3582
g49
(g70
g51
NtRp3583
(dp3584
g54
(dp3585
sg63
g3579
sg56
(lp3586
g49
(g50
g51
NtRp3587
(dp3588
g54
(dp3589
g62
I4
ssg63
g3583
sg56
(lp3590
S'/unioeste_code/static/js/jquery.js'
p3591
asbasbasbag49
(g65
g51
NtRp3592
(dp3593
g54
(dp3594
sg63
g3575
sg56
(lp3595
g49
(g70
g51
NtRp3596
(dp3597
g54
(dp3598
sg63
g3592
sg56
(lp3599
g49
(g50
g51
NtRp3600
(dp3601
g54
(dp3602
g62
I4
ssg63
g3596
sg56
(lp3603
S'/unioeste_code/static/css/calendar.css'
p3604
asbasbasbag49
(g65
g51
NtRp3605
(dp3606
g54
(dp3607
sg63
g3575
sg56
(lp3608
g49
(g70
g51
NtRp3609
(dp3610
g54
(dp3611
sg63
g3605
sg56
(lp3612
g49
(g50
g51
NtRp3613
(dp3614
g54
(dp3615
g62
I4
ssg63
g3609
sg56
(lp3616
S'/unioeste_code/static/js/calendar.js'
p3617
asbasbasbag49
(g65
g51
NtRp3618
(dp3619
g54
(dp3620
sg63
g3575
sg56
(lp3621
g49
(g70
g51
NtRp3622
(dp3623
g54
(dp3624
sg63
g3618
sg56
(lp3625
g49
(g50
g51
NtRp3626
(dp3627
g54
(dp3628
g62
I4
ssg63
g3622
sg56
(lp3629
S'/unioeste_code/static/js/web2py.js'
p3630
asbasbasbag49
(g65
g51
NtRp3631
(dp3632
g54
(dp3633
sg63
g3575
sg56
(lp3634
g49
(g70
g51
NtRp3635
(dp3636
g54
(dp3637
sg63
g3631
sg56
(lp3638
g49
(g50
g51
NtRp3639
(dp3640
g54
(dp3641
g62
I4
ssg63
g3635
sg56
(lp3642
S'/unioeste_code/static/css/skeleton.css'
p3643
asbasbasbag49
(g65
g51
NtRp3644
(dp3645
g54
(dp3646
sg63
g3575
sg56
(lp3647
g49
(g70
g51
NtRp3648
(dp3649
g54
(dp3650
sg63
g3644
sg56
(lp3651
g49
(g50
g51
NtRp3652
(dp3653
g54
(dp3654
g62
I4
ssg63
g3648
sg56
(lp3655
S'/unioeste_code/static/css/web2py.css'
p3656
asbasbasbag49
(g65
g51
NtRp3657
(dp3658
g54
(dp3659
sg63
g3575
sg56
(lp3660
g49
(g70
g51
NtRp3661
(dp3662
g54
(dp3663
sg63
g3657
sg56
(lp3664
g49
(g50
g51
NtRp3665
(dp3666
g54
(dp3667
g62
I4
ssg63
g3661
sg56
(lp3668
S'/unioeste_code/static/css/superfish.css'
p3669
asbasbasbag49
(g65
g51
NtRp3670
(dp3671
g54
(dp3672
sg63
g3575
sg56
(lp3673
g49
(g70
g51
NtRp3674
(dp3675
g54
(dp3676
sg63
g3670
sg56
(lp3677
g49
(g50
g51
NtRp3678
(dp3679
g54
(dp3680
g62
I4
ssg63
g3674
sg56
(lp3681
S'/unioeste_code/static/js/superfish.js'
p3682
asbasbasbasbasbasbasbag49
(g65
g51
NtRp3683
(dp3684
g54
(dp3685
sg63
g3289
sg56
(lp3686
g49
(g70
g51
NtRp3687
(dp3688
g54
(dp3689
g74
g75
ssg63
g3683
sg56
(lp3690
S'flash'
p3691
asbag49
(g70
g51
NtRp3692
(dp3693
g54
(dp3694
g81
g82
ssg63
g3683
sg56
(lp3695
S':'
asbag49
(g70
g51
NtRp3696
(dp3697
g54
(dp3698
sg63
g3683
sg56
(lp3699
g49
(g50
g51
NtRp3700
(dp3701
g54
(dp3702
g62
I5
ssg63
g3696
sg56
(lp3703
S''
asbasbasbag49
(g65
g51
NtRp3704
(dp3705
g54
(dp3706
sg63
g3289
sg56
(lp3707
g49
(g70
g51
NtRp3708
(dp3709
g54
(dp3710
g74
g75
ssg63
g3704
sg56
(lp3711
S'generic_patterns'
p3712
asbag49
(g70
g51
NtRp3713
(dp3714
g54
(dp3715
g81
g82
ssg63
g3704
sg56
(lp3716
S':'
asbag49
(g70
g51
NtRp3717
(dp3718
g54
(dp3719
sg63
g3704
sg56
(lp3720
g49
(g50
g51
NtRp3721
(dp3722
g54
(dp3723
g62
I5
ssg63
g3717
sg56
(lp3724
g49
(g58
g51
NtRp3725
(dp3726
g54
(dp3727
g62
I4
ssg63
Nsg56
(lp3728
sbasbasbasbag49
(g65
g51
NtRp3729
(dp3730
g54
(dp3731
sg63
g3289
sg56
(lp3732
g49
(g70
g51
NtRp3733
(dp3734
g54
(dp3735
g74
g75
ssg63
g3729
sg56
(lp3736
S'headers'
p3737
asbag49
(g70
g51
NtRp3738
(dp3739
g54
(dp3740
g81
g82
ssg63
g3729
sg56
(lp3741
S':'
asbag49
(g70
g51
NtRp3742
(dp3743
g54
(dp3744
sg63
g3729
sg56
(lp3745
g49
(g50
g51
NtRp3746
(dp3747
g54
(dp3748
g62
I5
ssg63
g3742
sg56
(lp3749
g49
(g58
g51
NtRp3750
(dp3751
g54
(dp3752
g62
I4
ssg63
Nsg56
(lp3753
g49
(g65
g51
NtRp3754
(dp3755
g54
(dp3756
sg63
g3750
sg56
(lp3757
g49
(g70
g51
NtRp3758
(dp3759
g54
(dp3760
g74
g75
ssg63
g3754
sg56
(lp3761
S'Cache-Control'
p3762
asbag49
(g70
g51
NtRp3763
(dp3764
g54
(dp3765
g81
g82
ssg63
g3754
sg56
(lp3766
S':'
asbag49
(g70
g51
NtRp3767
(dp3768
g54
(dp3769
sg63
g3754
sg56
(lp3770
g49
(g50
g51
NtRp3771
(dp3772
g54
(dp3773
g62
I4
ssg63
g3767
sg56
(lp3774
S'no-store, no-cache, must-revalidate, post-check=0, pre-check=0'
p3775
asbasbasbag49
(g65
g51
NtRp3776
(dp3777
g54
(dp3778
sg63
g3750
sg56
(lp3779
g49
(g70
g51
NtRp3780
(dp3781
g54
(dp3782
g74
g75
ssg63
g3776
sg56
(lp3783
S'Content-Type'
p3784
asbag49
(g70
g51
NtRp3785
(dp3786
g54
(dp3787
g81
g82
ssg63
g3776
sg56
(lp3788
S':'
asbag49
(g70
g51
NtRp3789
(dp3790
g54
(dp3791
sg63
g3776
sg56
(lp3792
g49
(g50
g51
NtRp3793
(dp3794
g54
(dp3795
g62
I4
ssg63
g3789
sg56
(lp3796
S'text/html; charset=utf-8'
p3797
asbasbasbag49
(g65
g51
NtRp3798
(dp3799
g54
(dp3800
sg63
g3750
sg56
(lp3801
g49
(g70
g51
NtRp3802
(dp3803
g54
(dp3804
g74
g75
ssg63
g3798
sg56
(lp3805
S'Expires'
p3806
asbag49
(g70
g51
NtRp3807
(dp3808
g54
(dp3809
g81
g82
ssg63
g3798
sg56
(lp3810
S':'
asbag49
(g70
g51
NtRp3811
(dp3812
g54
(dp3813
sg63
g3798
sg56
(lp3814
g49
(g50
g51
NtRp3815
(dp3816
g54
(dp3817
g62
I4
ssg63
g3811
sg56
(lp3818
S'Mon, 30 Jul 2012 04:54:09 GMT'
p3819
asbasbasbag49
(g65
g51
NtRp3820
(dp3821
g54
(dp3822
sg63
g3750
sg56
(lp3823
g49
(g70
g51
NtRp3824
(dp3825
g54
(dp3826
g74
g75
ssg63
g3820
sg56
(lp3827
S'Pragma'
p3828
asbag49
(g70
g51
NtRp3829
(dp3830
g54
(dp3831
g81
g82
ssg63
g3820
sg56
(lp3832
S':'
asbag49
(g70
g51
NtRp3833
(dp3834
g54
(dp3835
sg63
g3820
sg56
(lp3836
g49
(g50
g51
NtRp3837
(dp3838
g54
(dp3839
g62
I4
ssg63
g3833
sg56
(lp3840
S'no-cache'
p3841
asbasbasbag49
(g65
g51
NtRp3842
(dp3843
g54
(dp3844
sg63
g3750
sg56
(lp3845
g49
(g70
g51
NtRp3846
(dp3847
g54
(dp3848
g74
g75
ssg63
g3842
sg56
(lp3849
S'X-Powered-By'
p3850
asbag49
(g70
g51
NtRp3851
(dp3852
g54
(dp3853
g81
g82
ssg63
g3842
sg56
(lp3854
S':'
asbag49
(g70
g51
NtRp3855
(dp3856
g54
(dp3857
sg63
g3842
sg56
(lp3858
g49
(g50
g51
NtRp3859
(dp3860
g54
(dp3861
g62
I4
ssg63
g3855
sg56
(lp3862
S'web2py'
p3863
asbasbasbasbasbasbasbag49
(g65
g51
NtRp3864
(dp3865
g54
(dp3866
sg63
g3289
sg56
(lp3867
g49
(g70
g51
NtRp3868
(dp3869
g54
(dp3870
g74
g75
ssg63
g3864
sg56
(lp3871
S'menu'
p3872
asbag49
(g70
g51
NtRp3873
(dp3874
g54
(dp3875
g81
g82
ssg63
g3864
sg56
(lp3876
S':'
asbag49
(g70
g51
NtRp3877
(dp3878
g54
(dp3879
sg63
g3864
sg56
(lp3880
g49
(g50
g51
NtRp3881
(dp3882
g54
(dp3883
g62
I5
ssg63
g3877
sg56
(lp3884
g49
(g58
g51
NtRp3885
(dp3886
g54
(dp3887
g62
I4
ssg63
Nsg56
(lp3888
g49
(g65
g51
NtRp3889
(dp3890
g54
(dp3891
sg63
g3885
sg56
(lp3892
g49
(g70
g51
NtRp3893
(dp3894
g54
(dp3895
sg63
g3889
sg56
(lp3896
g49
(g50
g51
NtRp3897
(dp3898
g54
(dp3899
g62
I4
ssg63
g3893
sg56
(lp3900
g49
(g58
g51
NtRp3901
(dp3902
g54
(dp3903
g62
I3
ssg63
Nsg56
(lp3904
g49
(g65
g51
NtRp3905
(dp3906
g54
(dp3907
sg63
g3901
sg56
(lp3908
g49
(g70
g51
NtRp3909
(dp3910
g54
(dp3911
sg63
g3905
sg56
(lp3912
g49
(g50
g51
NtRp3913
(dp3914
g54
(dp3915
g62
I3
ssg63
g3909
sg56
(lp3916
cgluon.languages
lazyT_unpickle
p3917
(S't\x04\x00\x00\x00Home'
tRp3918
asbasbasbag49
(g65
g51
NtRp3919
(dp3920
g54
(dp3921
sg63
g3901
sg56
(lp3922
g49
(g70
g51
NtRp3923
(dp3924
g54
(dp3925
sg63
g3919
sg56
(lp3926
g49
(g50
g51
NtRp3927
(dp3928
g54
(dp3929
g62
I3
ssg63
g3923
sg56
(lp3930
g92
asbasbasbag49
(g65
g51
NtRp3931
(dp3932
g54
(dp3933
sg63
g3901
sg56
(lp3934
g49
(g70
g51
NtRp3935
(dp3936
g54
(dp3937
sg63
g3931
sg56
(lp3938
g49
(g50
g51
NtRp3939
(dp3940
g54
(dp3941
g62
I3
ssg63
g3935
sg56
(lp3942
S'/unioeste_code/default/index'
p3943
asbasbasbag49
(g65
g51
NtRp3944
(dp3945
g54
(dp3946
sg63
g3901
sg56
(lp3947
g49
(g70
g51
NtRp3948
(dp3949
g54
(dp3950
sg63
g3944
sg56
(lp3951
g49
(g50
g51
NtRp3952
(dp3953
g54
(dp3954
g62
I3
ssg63
g3948
sg56
(lp3955
g49
(g58
g51
NtRp3956
(dp3957
g54
(dp3958
g62
I2
ssg63
Nsg56
(lp3959
sbasbasbasbasbasbasbasbag49
(g65
g51
NtRp3960
(dp3961
g54
(dp3962
sg63
g3885
sg56
(lp3963
g49
(g70
g51
NtRp3964
(dp3965
g54
(dp3966
sg63
g3960
sg56
(lp3967
g49
(g50
g51
NtRp3968
(dp3969
g54
(dp3970
g62
I4
ssg63
g3964
sg56
(lp3971
g49
(g58
g51
NtRp3972
(dp3973
g54
(dp3974
g62
I3
ssg63
Nsg56
(lp3975
g49
(g65
g51
NtRp3976
(dp3977
g54
(dp3978
sg63
g3972
sg56
(lp3979
g49
(g70
g51
NtRp3980
(dp3981
g54
(dp3982
sg63
g3976
sg56
(lp3983
g49
(g50
g51
NtRp3984
(dp3985
g54
(dp3986
g62
I3
ssg63
g3980
sg56
(lp3987
g49
(cgluon.html
SPAN
p3988
g51
NtRp3989
(dp3990
g54
(dp3991
g74
S'color:yellow'
p3992
ssg63
g49
(cgluon.html
A
p3993
g51
NtRp3994
(dp3995
g54
(dp3996
S'_onclick'
p3997
S'javascript:void(0);return false;'
p3998
sS'_href'
p3999
S'#'
ssg63
g49
(cgluon.html
LI
p4000
g51
NtRp4001
(dp4002
g54
(dp4003
S'_class'
p4004
S'web2py-menu-expand'
p4005
ssg63
g49
(cgluon.html
UL
p4006
g51
NtRp4007
(dp4008
g54
(dp4009
S'mobile'
p4010
I00
sS'li_class'
p4011
g4005
sg4004
S'sf-menu'
p4012
sS'ul_class'
p4013
S'web2py-menu-vertical'
p4014
sS'li_active'
p4015
S'web2py-menu-active'
p4016
ssg63
Nsg56
(lp4017
g49
(g4000
g51
NtRp4018
(dp4019
g54
(dp4020
sg63
g4007
sg56
(lp4021
g49
(g3993
g51
NtRp4022
(dp4023
g54
(dp4024
g3999
g3943
ssg63
g4018
sg56
(lp4025
g3918
asbasbag4001
asbsg56
(lp4026
g3994
ag49
(g4006
g51
NtRp4027
(dp4028
g54
(dp4029
g4004
g4014
ssg63
g4001
sg56
(lp4030
g49
(g4000
g51
NtRp4031
(dp4032
g54
(dp4033
sg63
g4027
sg56
(lp4034
g49
(g3993
g51
NtRp4035
(dp4036
g54
(dp4037
g3999
S'/admin/default/site'
p4038
ssg63
g4031
sg56
(lp4039
g3917
(S's\x08\x00\x00\x00My Sites'
tRp4040
asbasbag49
(g4000
g51
NtRp4041
(dp4042
g54
(dp4043
g4004
g4005
ssg63
g4027
sg56
(lp4044
g49
(g3993
g51
NtRp4045
(dp4046
g54
(dp4047
g3999
S'/admin/default/design/unioeste_code'
p4048
ssg63
g4041
sg56
(lp4049
g3917
(S's\x08\x00\x00\x00This App'
tRp4050
asbag49
(g4006
g51
NtRp4051
(dp4052
g54
(dp4053
g4004
g4014
ssg63
g4041
sg56
(lp4054
g49
(g4000
g51
NtRp4055
(dp4056
g54
(dp4057
sg63
g4051
sg56
(lp4058
g49
(g3993
g51
NtRp4059
(dp4060
g54
(dp4061
g3999
S'/admin/default/edit/unioeste_code/controllers/default.py'
p4062
ssg63
g4055
sg56
(lp4063
g3917
(S't\x0b\x00\x00\x00Controlador'
tRp4064
asbasbag49
(g4000
g51
NtRp4065
(dp4066
g54
(dp4067
sg63
g4051
sg56
(lp4068
g49
(g3993
g51
NtRp4069
(dp4070
g54
(dp4071
g3999
S'/admin/default/edit/unioeste_code/views/default/Code.html'
p4072
ssg63
g4065
sg56
(lp4073
g3917
(S's\x0e\x00\x00\x00Visualiza\xc3\xa7\xc3\xa3o'
tRp4074
asbasbag49
(g4000
g51
NtRp4075
(dp4076
g54
(dp4077
sg63
g4051
sg56
(lp4078
g49
(g3993
g51
NtRp4079
(dp4080
g54
(dp4081
g3999
S'/admin/default/edit/unioeste_code/views/layout.html'
p4082
ssg63
g4075
sg56
(lp4083
g3917
(S't\x06\x00\x00\x00Layout'
tRp4084
asbasbag49
(g4000
g51
NtRp4085
(dp4086
g54
(dp4087
sg63
g4051
sg56
(lp4088
g49
(g3993
g51
NtRp4089
(dp4090
g54
(dp4091
g3999
S'/admin/default/edit/unioeste_code/static/css/web2py.css'
p4092
ssg63
g4085
sg56
(lp4093
g3917
(S't\n\x00\x00\x00Stylesheet'
tRp4094
asbasbag49
(g4000
g51
NtRp4095
(dp4096
g54
(dp4097
sg63
g4051
sg56
(lp4098
g49
(g3993
g51
NtRp4099
(dp4100
g54
(dp4101
g3999
S'/admin/default/edit/unioeste_code/models/db.py'
p4102
ssg63
g4095
sg56
(lp4103
g3917
(S's\t\x00\x00\x00Modelo BD'
tRp4104
asbasbag49
(g4000
g51
NtRp4105
(dp4106
g54
(dp4107
sg63
g4051
sg56
(lp4108
g49
(g3993
g51
NtRp4109
(dp4110
g54
(dp4111
g3999
S'/admin/default/edit/unioeste_code/models/menu.py'
p4112
ssg63
g4105
sg56
(lp4113
g3917
(S's\x0e\x00\x00\x00Modelo de Menu'
tRp4114
asbasbag49
(g4000
g51
NtRp4115
(dp4116
g54
(dp4117
sg63
g4051
sg56
(lp4118
g49
(g3993
g51
NtRp4119
(dp4120
g54
(dp4121
g3999
S'/unioeste_code/appadmin/index'
p4122
ssg63
g4115
sg56
(lp4123
g3917
(S's\x0e\x00\x00\x00Banco de dados'
tRp4124
asbasbag49
(g4000
g51
NtRp4125
(dp4126
g54
(dp4127
sg63
g4051
sg56
(lp4128
g49
(g3993
g51
NtRp4129
(dp4130
g54
(dp4131
g3999
S'/admin/default/errors/unioeste_code'
p4132
ssg63
g4125
sg56
(lp4133
g3917
(S't\x06\x00\x00\x00Errors'
tRp4134
asbasbag49
(g4000
g51
NtRp4135
(dp4136
g54
(dp4137
sg63
g4051
sg56
(lp4138
g49
(g3993
g51
NtRp4139
(dp4140
g54
(dp4141
g3999
S'/admin/default/about/unioeste_code'
p4142
ssg63
g4135
sg56
(lp4143
g3917
(S't\x05\x00\x00\x00About'
tRp4144
asbasbasbasbag49
(g4000
g51
NtRp4145
(dp4146
g54
(dp4147
g4004
g4005
ssg63
g4027
sg56
(lp4148
g49
(g3993
g51
NtRp4149
(dp4150
g54
(dp4151
g3999
S'http://www.web2py.com'
p4152
ssg63
g4145
sg56
(lp4153
S'web2py.com'
p4154
asbag49
(g4006
g51
NtRp4155
(dp4156
g54
(dp4157
g4004
g4014
ssg63
g4145
sg56
(lp4158
g49
(g4000
g51
NtRp4159
(dp4160
g54
(dp4161
sg63
g4155
sg56
(lp4162
g49
(g3993
g51
NtRp4163
(dp4164
g54
(dp4165
g3999
S'http://www.web2py.com/examples/default/download'
p4166
ssg63
g4159
sg56
(lp4167
g3917
(S't\x08\x00\x00\x00Download'
tRp4168
asbasbag49
(g4000
g51
NtRp4169
(dp4170
g54
(dp4171
sg63
g4155
sg56
(lp4172
g49
(g3993
g51
NtRp4173
(dp4174
g54
(dp4175
g3999
S'http://www.web2py.com/examples/default/support'
p4176
ssg63
g4169
sg56
(lp4177
g3917
(S't\x07\x00\x00\x00Support'
tRp4178
asbasbag49
(g4000
g51
NtRp4179
(dp4180
g54
(dp4181
sg63
g4155
sg56
(lp4182
g49
(g3993
g51
NtRp4183
(dp4184
g54
(dp4185
g3999
S'http://web2py.com/demo_admin'
p4186
ssg63
g4179
sg56
(lp4187
g3917
(S't\x04\x00\x00\x00Demo'
tRp4188
asbasbag49
(g4000
g51
NtRp4189
(dp4190
g54
(dp4191
sg63
g4155
sg56
(lp4192
g49
(g3993
g51
NtRp4193
(dp4194
g54
(dp4195
g3999
S'http://web2py.com/examples/default/examples'
p4196
ssg63
g4189
sg56
(lp4197
g3917
(S's\x0e\x00\x00\x00Quick Examples'
tRp4198
asbasbag49
(g4000
g51
NtRp4199
(dp4200
g54
(dp4201
sg63
g4155
sg56
(lp4202
g49
(g3993
g51
NtRp4203
(dp4204
g54
(dp4205
g3999
S'http://web2py.com/AlterEgo'
p4206
ssg63
g4199
sg56
(lp4207
g3917
(S't\x03\x00\x00\x00FAQ'
tRp4208
asbasbag49
(g4000
g51
NtRp4209
(dp4210
g54
(dp4211
sg63
g4155
sg56
(lp4212
g49
(g3993
g51
NtRp4213
(dp4214
g54
(dp4215
g3999
S'http://www.web2py.com/examples/default/videos/'
p4216
ssg63
g4209
sg56
(lp4217
g3917
(S't\x06\x00\x00\x00Videos'
tRp4218
asbasbag49
(g4000
g51
NtRp4219
(dp4220
g54
(dp4221
sg63
g4155
sg56
(lp4222
g49
(g3993
g51
NtRp4223
(dp4224
g54
(dp4225
g3999
S'http://web2py.com/appliances'
p4226
ssg63
g4219
sg56
(lp4227
g3917
(S's\x11\x00\x00\x00Free Applications'
tRp4228
asbasbag49
(g4000
g51
NtRp4229
(dp4230
g54
(dp4231
sg63
g4155
sg56
(lp4232
g49
(g3993
g51
NtRp4233
(dp4234
g54
(dp4235
g3999
S'http://web2py.com/plugins'
p4236
ssg63
g4229
sg56
(lp4237
g3917
(S't\x07\x00\x00\x00Plugins'
tRp4238
asbasbag49
(g4000
g51
NtRp4239
(dp4240
g54
(dp4241
sg63
g4155
sg56
(lp4242
g49
(g3993
g51
NtRp4243
(dp4244
g54
(dp4245
g3999
S'http://web2py.com/layouts'
p4246
ssg63
g4239
sg56
(lp4247
g3917
(S't\x07\x00\x00\x00Layouts'
tRp4248
asbasbag49
(g4000
g51
NtRp4249
(dp4250
g54
(dp4251
sg63
g4155
sg56
(lp4252
g49
(g3993
g51
NtRp4253
(dp4254
g54
(dp4255
g3999
S'http://web2pyslices.com/'
p4256
ssg63
g4249
sg56
(lp4257
g3917
(S't\x07\x00\x00\x00Recipes'
tRp4258
asbasbag49
(g4000
g51
NtRp4259
(dp4260
g54
(dp4261
sg63
g4155
sg56
(lp4262
g49
(g3993
g51
NtRp4263
(dp4264
g54
(dp4265
g3999
S'http://web2py.com/semantic'
p4266
ssg63
g4259
sg56
(lp4267
g3917
(S't\x08\x00\x00\x00Semantic'
tRp4268
asbasbasbasbag49
(g4000
g51
NtRp4269
(dp4270
g54
(dp4271
g4004
g4005
ssg63
g4027
sg56
(lp4272
g49
(g3993
g51
NtRp4273
(dp4274
g54
(dp4275
g3999
S'http://www.web2py.com/book'
p4276
ssg63
g4269
sg56
(lp4277
g3917
(S't\r\x00\x00\x00Documentation'
tRp4278
asbag49
(g4006
g51
NtRp4279
(dp4280
g54
(dp4281
g4004
g4014
ssg63
g4269
sg56
(lp4282
g49
(g4000
g51
NtRp4283
(dp4284
g54
(dp4285
sg63
g4279
sg56
(lp4286
g49
(g3993
g51
NtRp4287
(dp4288
g54
(dp4289
g3999
S'http://www.web2py.com/book/default/chapter/00'
p4290
ssg63
g4283
sg56
(lp4291
g3917
(S't\x07\x00\x00\x00Preface'
tRp4292
asbasbag49
(g4000
g51
NtRp4293
(dp4294
g54
(dp4295
sg63
g4279
sg56
(lp4296
g49
(g3993
g51
NtRp4297
(dp4298
g54
(dp4299
g3999
S'http://www.web2py.com/book/default/chapter/01'
p4300
ssg63
g4293
sg56
(lp4301
g3917
(S't\x0c\x00\x00\x00Introduction'
tRp4302
asbasbag49
(g4000
g51
NtRp4303
(dp4304
g54
(dp4305
sg63
g4279
sg56
(lp4306
g49
(g3993
g51
NtRp4307
(dp4308
g54
(dp4309
g3999
S'http://www.web2py.com/book/default/chapter/02'
p4310
ssg63
g4303
sg56
(lp4311
g3917
(S't\x06\x00\x00\x00Python'
tRp4312
asbasbag49
(g4000
g51
NtRp4313
(dp4314
g54
(dp4315
sg63
g4279
sg56
(lp4316
g49
(g3993
g51
NtRp4317
(dp4318
g54
(dp4319
g3999
S'http://www.web2py.com/book/default/chapter/03'
p4320
ssg63
g4313
sg56
(lp4321
g3917
(S't\x08\x00\x00\x00Overview'
tRp4322
asbasbag49
(g4000
g51
NtRp4323
(dp4324
g54
(dp4325
sg63
g4279
sg56
(lp4326
g49
(g3993
g51
NtRp4327
(dp4328
g54
(dp4329
g3999
S'http://www.web2py.com/book/default/chapter/04'
p4330
ssg63
g4323
sg56
(lp4331
g3917
(S's\x08\x00\x00\x00The Core'
tRp4332
asbasbag49
(g4000
g51
NtRp4333
(dp4334
g54
(dp4335
sg63
g4279
sg56
(lp4336
g49
(g3993
g51
NtRp4337
(dp4338
g54
(dp4339
g3999
S'http://www.web2py.com/book/default/chapter/05'
p4340
ssg63
g4333
sg56
(lp4341
g3917
(S's\t\x00\x00\x00The Views'
tRp4342
asbasbag49
(g4000
g51
NtRp4343
(dp4344
g54
(dp4345
sg63
g4279
sg56
(lp4346
g49
(g3993
g51
NtRp4347
(dp4348
g54
(dp4349
g3999
S'http://www.web2py.com/book/default/chapter/06'
p4350
ssg63
g4343
sg56
(lp4351
g3917
(S's\x0e\x00\x00\x00Banco de dados'
tRp4352
asbasbag49
(g4000
g51
NtRp4353
(dp4354
g54
(dp4355
sg63
g4279
sg56
(lp4356
g49
(g3993
g51
NtRp4357
(dp4358
g54
(dp4359
g3999
S'http://www.web2py.com/book/default/chapter/07'
p4360
ssg63
g4353
sg56
(lp4361
g3917
(S's\x14\x00\x00\x00Forms and Validators'
tRp4362
asbasbag49
(g4000
g51
NtRp4363
(dp4364
g54
(dp4365
sg63
g4279
sg56
(lp4366
g49
(g3993
g51
NtRp4367
(dp4368
g54
(dp4369
g3999
S'http://www.web2py.com/book/default/chapter/08'
p4370
ssg63
g4363
sg56
(lp4371
g3917
(S's\r\x00\x00\x00Email and SMS'
tRp4372
asbasbag49
(g4000
g51
NtRp4373
(dp4374
g54
(dp4375
sg63
g4279
sg56
(lp4376
g49
(g3993
g51
NtRp4377
(dp4378
g54
(dp4379
g3999
S'http://www.web2py.com/book/default/chapter/09'
p4380
ssg63
g4373
sg56
(lp4381
g3917
(S's\x0e\x00\x00\x00Access Control'
tRp4382
asbasbag49
(g4000
g51
NtRp4383
(dp4384
g54
(dp4385
sg63
g4279
sg56
(lp4386
g49
(g3993
g51
NtRp4387
(dp4388
g54
(dp4389
g3999
S'http://www.web2py.com/book/default/chapter/10'
p4390
ssg63
g4383
sg56
(lp4391
g3917
(S't\x08\x00\x00\x00Services'
tRp4392
asbasbag49
(g4000
g51
NtRp4393
(dp4394
g54
(dp4395
sg63
g4279
sg56
(lp4396
g49
(g3993
g51
NtRp4397
(dp4398
g54
(dp4399
g3999
S'http://www.web2py.com/book/default/chapter/11'
p4400
ssg63
g4393
sg56
(lp4401
g3917
(S's\x0c\x00\x00\x00Ajax Recipes'
tRp4402
asbasbag49
(g4000
g51
NtRp4403
(dp4404
g54
(dp4405
sg63
g4279
sg56
(lp4406
g49
(g3993
g51
NtRp4407
(dp4408
g54
(dp4409
g3999
S'http://www.web2py.com/book/default/chapter/12'
p4410
ssg63
g4403
sg56
(lp4411
g3917
(S's\x16\x00\x00\x00Components and Plugins'
tRp4412
asbasbag49
(g4000
g51
NtRp4413
(dp4414
g54
(dp4415
sg63
g4279
sg56
(lp4416
g49
(g3993
g51
NtRp4417
(dp4418
g54
(dp4419
g3999
S'http://www.web2py.com/book/default/chapter/13'
p4420
ssg63
g4413
sg56
(lp4421
g3917
(S's\x12\x00\x00\x00Deployment Recipes'
tRp4422
asbasbag49
(g4000
g51
NtRp4423
(dp4424
g54
(dp4425
sg63
g4279
sg56
(lp4426
g49
(g3993
g51
NtRp4427
(dp4428
g54
(dp4429
g3999
S'http://www.web2py.com/book/default/chapter/14'
p4430
ssg63
g4423
sg56
(lp4431
g3917
(S's\r\x00\x00\x00Other Recipes'
tRp4432
asbasbag49
(g4000
g51
NtRp4433
(dp4434
g54
(dp4435
sg63
g4279
sg56
(lp4436
g49
(g3993
g51
NtRp4437
(dp4438
g54
(dp4439
g3999
S'http://stores.lulu.com/web2py'
p4440
ssg63
g4433
sg56
(lp4441
g3917
(S's\r\x00\x00\x00Buy this book'
tRp4442
asbasbasbasbag49
(g4000
g51
NtRp4443
(dp4444
g54
(dp4445
g4004
g4005
ssg63
g4027
sg56
(lp4446
g49
(g3993
g51
NtRp4447
(dp4448
g54
(dp4449
g3997
g3998
sg3999
S'#'
ssg63
g4443
sg56
(lp4450
g3917
(S't\t\x00\x00\x00Community'
tRp4451
asbag49
(g4006
g51
NtRp4452
(dp4453
g54
(dp4454
g4004
g4014
ssg63
g4443
sg56
(lp4455
g49
(g4000
g51
NtRp4456
(dp4457
g54
(dp4458
sg63
g4452
sg56
(lp4459
g49
(g3993
g51
NtRp4460
(dp4461
g54
(dp4462
g3999
S'http://www.web2py.com/examples/default/usergroups'
p4463
ssg63
g4456
sg56
(lp4464
g3917
(S't\x06\x00\x00\x00Groups'
tRp4465
asbasbag49
(g4000
g51
NtRp4466
(dp4467
g54
(dp4468
sg63
g4452
sg56
(lp4469
g49
(g3993
g51
NtRp4470
(dp4471
g54
(dp4472
g3999
S'http://twitter.com/web2py'
p4473
ssg63
g4466
sg56
(lp4474
g3917
(S't\x07\x00\x00\x00Twitter'
tRp4475
asbasbag49
(g4000
g51
NtRp4476
(dp4477
g54
(dp4478
sg63
g4452
sg56
(lp4479
g49
(g3993
g51
NtRp4480
(dp4481
g54
(dp4482
g3999
S'http://webchat.freenode.net/?channels=web2py'
p4483
ssg63
g4476
sg56
(lp4484
g3917
(S's\t\x00\x00\x00Live Chat'
tRp4485
asbasbasbasbag49
(g4000
g51
NtRp4486
(dp4487
g54
(dp4488
g4004
g4005
ssg63
g4027
sg56
(lp4489
g49
(g3993
g51
NtRp4490
(dp4491
g54
(dp4492
g3997
g3998
sg3999
S'#'
ssg63
g4486
sg56
(lp4493
g3917
(S't\x07\x00\x00\x00Plugins'
tRp4494
asbag49
(g4006
g51
NtRp4495
(dp4496
g54
(dp4497
g4004
g4014
ssg63
g4486
sg56
(lp4498
g49
(g4000
g51
NtRp4499
(dp4500
g54
(dp4501
sg63
g4495
sg56
(lp4502
g49
(g3993
g51
NtRp4503
(dp4504
g54
(dp4505
g3999
S'http://web2py.com/examples/default/download'
p4506
ssg63
g4499
sg56
(lp4507
S'plugin_wiki'
p4508
asbasbag49
(g4000
g51
NtRp4509
(dp4510
g54
(dp4511
sg63
g4495
sg56
(lp4512
g49
(g3993
g51
NtRp4513
(dp4514
g54
(dp4515
g3999
g4236
ssg63
g4509
sg56
(lp4516
g3917
(S's\r\x00\x00\x00Other Plugins'
tRp4517
asbasbag49
(g4000
g51
NtRp4518
(dp4519
g54
(dp4520
sg63
g4495
sg56
(lp4521
g49
(g3993
g51
NtRp4522
(dp4523
g54
(dp4524
g3999
g4246
ssg63
g4518
sg56
(lp4525
g3917
(S's\x0e\x00\x00\x00Layout Plugins'
tRp4526
asbasbasbasbasbasbsg56
(lp4527
g3989
asbsg56
(lp4528
g3863
asbasbasbasbag49
(g65
g51
NtRp4529
(dp4530
g54
(dp4531
sg63
g3972
sg56
(lp4532
g49
(g70
g51
NtRp4533
(dp4534
g54
(dp4535
sg63
g4529
sg56
(lp4536
g49
(g50
g51
NtRp4537
(dp4538
g54
(dp4539
g62
I3
ssg63
g4533
sg56
(lp4540
g92
asbasbasbag49
(g65
g51
NtRp4541
(dp4542
g54
(dp4543
sg63
g3972
sg56
(lp4544
g49
(g70
g51
NtRp4545
(dp4546
g54
(dp4547
sg63
g4541
sg56
(lp4548
g49
(g50
g51
NtRp4549
(dp4550
g54
(dp4551
g62
I3
ssg63
g4545
sg56
(lp4552
S'None'
p4553
asbasbasbag49
(g65
g51
NtRp4554
(dp4555
g54
(dp4556
sg63
g3972
sg56
(lp4557
g49
(g70
g51
NtRp4558
(dp4559
g54
(dp4560
sg63
g4554
sg56
(lp4561
g49
(g50
g51
NtRp4562
(dp4563
g54
(dp4564
g62
I3
ssg63
g4558
sg56
(lp4565
g49
(g58
g51
NtRp4566
(dp4567
g54
(dp4568
g62
I2
ssg63
Nsg56
(lp4569
g49
(g65
g51
NtRp4570
(dp4571
g54
(dp4572
sg63
g4566
sg56
(lp4573
g49
(g70
g51
NtRp4574
(dp4575
g54
(dp4576
sg63
g4570
sg56
(lp4577
g49
(g50
g51
NtRp4578
(dp4579
g54
(dp4580
g62
I2
ssg63
g4574
sg56
(lp4581
g49
(g58
g51
NtRp4582
(dp4583
g54
(dp4584
g62
I1
ssg63
Nsg56
(lp4585
g49
(g65
g51
NtRp4586
(dp4587
g54
(dp4588
sg63
g4582
sg56
(lp4589
g49
(g70
g51
NtRp4590
(dp4591
g54
(dp4592
sg63
g4586
sg56
(lp4593
g49
(g50
g51
NtRp4594
(dp4595
g54
(dp4596
g62
I1
ssg63
g4590
sg56
(lp4597
g4040
asbasbasbag49
(g65
g51
NtRp4598
(dp4599
g54
(dp4600
sg63
g4582
sg56
(lp4601
g49
(g70
g51
NtRp4602
(dp4603
g54
(dp4604
sg63
g4598
sg56
(lp4605
g49
(g50
g51
NtRp4606
(dp4607
g54
(dp4608
g62
I1
ssg63
g4602
sg56
(lp4609
I00
asbasbasbag49
(g65
g51
NtRp4610
(dp4611
g54
(dp4612
sg63
g4582
sg56
(lp4613
g49
(g70
g51
NtRp4614
(dp4615
g54
(dp4616
sg63
g4610
sg56
(lp4617
g49
(g50
g51
NtRp4618
(dp4619
g54
(dp4620
g62
I1
ssg63
g4614
sg56
(lp4621
g4038
asbasbasbasbasbasbasbag49
(g65
g51
NtRp4622
(dp4623
g54
(dp4624
sg63
g4566
sg56
(lp4625
g49
(g70
g51
NtRp4626
(dp4627
g54
(dp4628
sg63
g4622
sg56
(lp4629
g49
(g50
g51
NtRp4630
(dp4631
g54
(dp4632
g62
I2
ssg63
g4626
sg56
(lp4633
g49
(g58
g51
NtRp4634
(dp4635
g54
(dp4636
g62
I1
ssg63
Nsg56
(lp4637
g49
(g65
g51
NtRp4638
(dp4639
g54
(dp4640
sg63
g4634
sg56
(lp4641
g49
(g70
g51
NtRp4642
(dp4643
g54
(dp4644
sg63
g4638
sg56
(lp4645
g49
(g50
g51
NtRp4646
(dp4647
g54
(dp4648
g62
I1
ssg63
g4642
sg56
(lp4649
g4050
asbasbasbag49
(g65
g51
NtRp4650
(dp4651
g54
(dp4652
sg63
g4634
sg56
(lp4653
g49
(g70
g51
NtRp4654
(dp4655
g54
(dp4656
sg63
g4650
sg56
(lp4657
g49
(g50
g51
NtRp4658
(dp4659
g54
(dp4660
g62
I1
ssg63
g4654
sg56
(lp4661
I00
asbasbasbag49
(g65
g51
NtRp4662
(dp4663
g54
(dp4664
sg63
g4634
sg56
(lp4665
g49
(g70
g51
NtRp4666
(dp4667
g54
(dp4668
sg63
g4662
sg56
(lp4669
g49
(g50
g51
NtRp4670
(dp4671
g54
(dp4672
g62
I1
ssg63
g4666
sg56
(lp4673
g4048
asbasbasbag49
(g65
g51
NtRp4674
(dp4675
g54
(dp4676
sg63
g4634
sg56
(lp4677
g49
(g70
g51
NtRp4678
(dp4679
g54
(dp4680
sg63
g4674
sg56
(lp4681
g49
(g50
g51
NtRp4682
(dp4683
g54
(dp4684
g62
I1
ssg63
g4678
sg56
(lp4685
(lp4686
(g4064
I00
g4062
tp4687
a(g4074
I00
g4072
tp4688
a(g4084
I00
g4082
tp4689
a(g4094
I00
g4092
tp4690
a(g4104
I00
g4102
tp4691
a(g4114
I00
g4112
tp4692
a(g4124
I00
g4122
tp4693
a(g4134
I00
g4132
tp4694
a(g4144
I00
g4142
tp4695
aasbasbasbasbasbasbasbag49
(g65
g51
NtRp4696
(dp4697
g54
(dp4698
sg63
g4566
sg56
(lp4699
g49
(g70
g51
NtRp4700
(dp4701
g54
(dp4702
sg63
g4696
sg56
(lp4703
g49
(g50
g51
NtRp4704
(dp4705
g54
(dp4706
g62
I2
ssg63
g4700
sg56
(lp4707
g49
(g58
g51
NtRp4708
(dp4709
g54
(dp4710
g62
I1
ssg63
Nsg56
(lp4711
g49
(g65
g51
NtRp4712
(dp4713
g54
(dp4714
sg63
g4708
sg56
(lp4715
g49
(g70
g51
NtRp4716
(dp4717
g54
(dp4718
sg63
g4712
sg56
(lp4719
g49
(g50
g51
NtRp4720
(dp4721
g54
(dp4722
g62
I1
ssg63
g4716
sg56
(lp4723
g4154
asbasbasbag49
(g65
g51
NtRp4724
(dp4725
g54
(dp4726
sg63
g4708
sg56
(lp4727
g49
(g70
g51
NtRp4728
(dp4729
g54
(dp4730
sg63
g4724
sg56
(lp4731
g49
(g50
g51
NtRp4732
(dp4733
g54
(dp4734
g62
I1
ssg63
g4728
sg56
(lp4735
I00
asbasbasbag49
(g65
g51
NtRp4736
(dp4737
g54
(dp4738
sg63
g4708
sg56
(lp4739
g49
(g70
g51
NtRp4740
(dp4741
g54
(dp4742
sg63
g4736
sg56
(lp4743
g49
(g50
g51
NtRp4744
(dp4745
g54
(dp4746
g62
I1
ssg63
g4740
sg56
(lp4747
g4152
asbasbasbag49
(g65
g51
NtRp4748
(dp4749
g54
(dp4750
sg63
g4708
sg56
(lp4751
g49
(g70
g51
NtRp4752
(dp4753
g54
(dp4754
sg63
g4748
sg56
(lp4755
g49
(g50
g51
NtRp4756
(dp4757
g54
(dp4758
g62
I1
ssg63
g4752
sg56
(lp4759
(lp4760
(g4168
I00
g4166
tp4761
a(g4178
I00
g4176
tp4762
a(g4188
I00
g4186
tp4763
a(g4198
I00
g4196
tp4764
a(g4208
I00
g4206
tp4765
a(g4218
I00
g4216
tp4766
a(g4228
I00
g4226
tp4767
a(g4238
I00
g4236
tp4768
a(g4248
I00
g4246
tp4769
a(g4258
I00
g4256
tp4770
a(g4268
I00
g4266
tp4771
aasbasbasbasbasbasbasbag49
(g65
g51
NtRp4772
(dp4773
g54
(dp4774
sg63
g4566
sg56
(lp4775
g49
(g70
g51
NtRp4776
(dp4777
g54
(dp4778
sg63
g4772
sg56
(lp4779
g49
(g50
g51
NtRp4780
(dp4781
g54
(dp4782
g62
I2
ssg63
g4776
sg56
(lp4783
g49
(g58
g51
NtRp4784
(dp4785
g54
(dp4786
g62
I1
ssg63
Nsg56
(lp4787
g49
(g65
g51
NtRp4788
(dp4789
g54
(dp4790
sg63
g4784
sg56
(lp4791
g49
(g70
g51
NtRp4792
(dp4793
g54
(dp4794
sg63
g4788
sg56
(lp4795
g49
(g50
g51
NtRp4796
(dp4797
g54
(dp4798
g62
I1
ssg63
g4792
sg56
(lp4799
g4278
asbasbasbag49
(g65
g51
NtRp4800
(dp4801
g54
(dp4802
sg63
g4784
sg56
(lp4803
g49
(g70
g51
NtRp4804
(dp4805
g54
(dp4806
sg63
g4800
sg56
(lp4807
g49
(g50
g51
NtRp4808
(dp4809
g54
(dp4810
g62
I1
ssg63
g4804
sg56
(lp4811
I00
asbasbasbag49
(g65
g51
NtRp4812
(dp4813
g54
(dp4814
sg63
g4784
sg56
(lp4815
g49
(g70
g51
NtRp4816
(dp4817
g54
(dp4818
sg63
g4812
sg56
(lp4819
g49
(g50
g51
NtRp4820
(dp4821
g54
(dp4822
g62
I1
ssg63
g4816
sg56
(lp4823
g4276
asbasbasbag49
(g65
g51
NtRp4824
(dp4825
g54
(dp4826
sg63
g4784
sg56
(lp4827
g49
(g70
g51
NtRp4828
(dp4829
g54
(dp4830
sg63
g4824
sg56
(lp4831
g49
(g50
g51
NtRp4832
(dp4833
g54
(dp4834
g62
I1
ssg63
g4828
sg56
(lp4835
(lp4836
(g4292
I00
g4290
tp4837
a(g4302
I00
g4300
tp4838
a(g4312
I00
g4310
tp4839
a(g4322
I00
g4320
tp4840
a(g4332
I00
g4330
tp4841
a(g4342
I00
g4340
tp4842
a(g4352
I00
g4350
tp4843
a(g4362
I00
g4360
tp4844
a(g4372
I00
g4370
tp4845
a(g4382
I00
g4380
tp4846
a(g4392
I00
g4390
tp4847
a(g4402
I00
g4400
tp4848
a(g4412
I00
g4410
tp4849
a(g4422
I00
g4420
tp4850
a(g4432
I00
g4430
tp4851
a(g4442
I00
g4440
tp4852
aasbasbasbasbasbasbasbag49
(g65
g51
NtRp4853
(dp4854
g54
(dp4855
sg63
g4566
sg56
(lp4856
g49
(g70
g51
NtRp4857
(dp4858
g54
(dp4859
sg63
g4853
sg56
(lp4860
g49
(g50
g51
NtRp4861
(dp4862
g54
(dp4863
g62
I2
ssg63
g4857
sg56
(lp4864
g49
(g58
g51
NtRp4865
(dp4866
g54
(dp4867
g62
I1
ssg63
Nsg56
(lp4868
g49
(g65
g51
NtRp4869
(dp4870
g54
(dp4871
sg63
g4865
sg56
(lp4872
g49
(g70
g51
NtRp4873
(dp4874
g54
(dp4875
sg63
g4869
sg56
(lp4876
g49
(g50
g51
NtRp4877
(dp4878
g54
(dp4879
g62
I1
ssg63
g4873
sg56
(lp4880
g4451
asbasbasbag49
(g65
g51
NtRp4881
(dp4882
g54
(dp4883
sg63
g4865
sg56
(lp4884
g49
(g70
g51
NtRp4885
(dp4886
g54
(dp4887
sg63
g4881
sg56
(lp4888
g49
(g50
g51
NtRp4889
(dp4890
g54
(dp4891
g62
I1
ssg63
g4885
sg56
(lp4892
I00
asbasbasbag49
(g65
g51
NtRp4893
(dp4894
g54
(dp4895
sg63
g4865
sg56
(lp4896
g49
(g70
g51
NtRp4897
(dp4898
g54
(dp4899
sg63
g4893
sg56
(lp4900
g49
(g50
g51
NtRp4901
(dp4902
g54
(dp4903
g62
I1
ssg63
g4897
sg56
(lp4904
Nasbasbasbag49
(g65
g51
NtRp4905
(dp4906
g54
(dp4907
sg63
g4865
sg56
(lp4908
g49
(g70
g51
NtRp4909
(dp4910
g54
(dp4911
sg63
g4905
sg56
(lp4912
g49
(g50
g51
NtRp4913
(dp4914
g54
(dp4915
g62
I1
ssg63
g4909
sg56
(lp4916
(lp4917
(g4465
I00
g4463
tp4918
a(g4475
I00
g4473
tp4919
a(g4485
I00
g4483
tp4920
aasbasbasbasbasbasbasbag49
(g65
g51
NtRp4921
(dp4922
g54
(dp4923
sg63
g4566
sg56
(lp4924
g49
(g70
g51
NtRp4925
(dp4926
g54
(dp4927
sg63
g4921
sg56
(lp4928
g49
(g50
g51
NtRp4929
(dp4930
g54
(dp4931
g62
I2
ssg63
g4925
sg56
(lp4932
g49
(g58
g51
NtRp4933
(dp4934
g54
(dp4935
g62
I1
ssg63
Nsg56
(lp4936
g49
(g65
g51
NtRp4937
(dp4938
g54
(dp4939
sg63
g4933
sg56
(lp4940
g49
(g70
g51
NtRp4941
(dp4942
g54
(dp4943
sg63
g4937
sg56
(lp4944
g49
(g50
g51
NtRp4945
(dp4946
g54
(dp4947
g62
I1
ssg63
g4941
sg56
(lp4948
g4494
asbasbasbag49
(g65
g51
NtRp4949
(dp4950
g54
(dp4951
sg63
g4933
sg56
(lp4952
g49
(g70
g51
NtRp4953
(dp4954
g54
(dp4955
sg63
g4949
sg56
(lp4956
g49
(g50
g51
NtRp4957
(dp4958
g54
(dp4959
g62
I1
ssg63
g4953
sg56
(lp4960
I00
asbasbasbag49
(g65
g51
NtRp4961
(dp4962
g54
(dp4963
sg63
g4933
sg56
(lp4964
g49
(g70
g51
NtRp4965
(dp4966
g54
(dp4967
sg63
g4961
sg56
(lp4968
g49
(g50
g51
NtRp4969
(dp4970
g54
(dp4971
g62
I1
ssg63
g4965
sg56
(lp4972
Nasbasbasbag49
(g65
g51
NtRp4973
(dp4974
g54
(dp4975
sg63
g4933
sg56
(lp4976
g49
(g70
g51
NtRp4977
(dp4978
g54
(dp4979
sg63
g4973
sg56
(lp4980
g49
(g50
g51
NtRp4981
(dp4982
g54
(dp4983
g62
I1
ssg63
g4977
sg56
(lp4984
(lp4985
(g4508
I00
g4506
tp4986
a(g4517
I00
g4236
tp4987
a(g4526
I00
g4246
tp4988
aasbasbasbasbasbasbasbasbasbasbasbasbasbasbasbasbasbasbasbag49
(g65
g51
NtRp4989
(dp4990
g54
(dp4991
sg63
g3289
sg56
(lp4992
g49
(g70
g51
NtRp4993
(dp4994
g54
(dp4995
g74
g75
ssg63
g4989
sg56
(lp4996
S'meta'
p4997
asbag49
(g70
g51
NtRp4998
(dp4999
g54
(dp5000
g81
g82
ssg63
g4989
sg56
(lp5001
S':'
asbag49
(g70
g51
NtRp5002
(dp5003
g54
(dp5004
sg63
g4989
sg56
(lp5005
g49
(g50
g51
NtRp5006
(dp5007
g54
(dp5008
g62
I5
ssg63
g5002
sg56
(lp5009
g49
(g58
g51
NtRp5010
(dp5011
g54
(dp5012
g62
I4
ssg63
Nsg56
(lp5013
g49
(g65
g51
NtRp5014
(dp5015
g54
(dp5016
sg63
g5010
sg56
(lp5017
g49
(g70
g51
NtRp5018
(dp5019
g54
(dp5020
g74
g75
ssg63
g5014
sg56
(lp5021
S'author'
p5022
asbag49
(g70
g51
NtRp5023
(dp5024
g54
(dp5025
g81
g82
ssg63
g5014
sg56
(lp5026
S':'
asbag49
(g70
g51
NtRp5027
(dp5028
g54
(dp5029
sg63
g5014
sg56
(lp5030
g49
(g50
g51
NtRp5031
(dp5032
g54
(dp5033
g62
I4
ssg63
g5027
sg56
(lp5034
S'Your Name <you@example.com>'
p5035
asbasbasbag49
(g65
g51
NtRp5036
(dp5037
g54
(dp5038
sg63
g5010
sg56
(lp5039
g49
(g70
g51
NtRp5040
(dp5041
g54
(dp5042
g74
g75
ssg63
g5036
sg56
(lp5043
S'copyright'
p5044
asbag49
(g70
g51
NtRp5045
(dp5046
g54
(dp5047
g81
g82
ssg63
g5036
sg56
(lp5048
S':'
asbag49
(g70
g51
NtRp5049
(dp5050
g54
(dp5051
sg63
g5036
sg56
(lp5052
g49
(g50
g51
NtRp5053
(dp5054
g54
(dp5055
g62
I4
ssg63
g5049
sg56
(lp5056
S'Copyright 2011'
p5057
asbasbasbag49
(g65
g51
NtRp5058
(dp5059
g54
(dp5060
sg63
g5010
sg56
(lp5061
g49
(g70
g51
NtRp5062
(dp5063
g54
(dp5064
g74
g75
ssg63
g5058
sg56
(lp5065
S'description'
p5066
asbag49
(g70
g51
NtRp5067
(dp5068
g54
(dp5069
g81
g82
ssg63
g5058
sg56
(lp5070
S':'
asbag49
(g70
g51
NtRp5071
(dp5072
g54
(dp5073
sg63
g5058
sg56
(lp5074
g49
(g50
g51
NtRp5075
(dp5076
g54
(dp5077
g62
I4
ssg63
g5071
sg56
(lp5078
S'a cool new app'
p5079
asbasbasbag49
(g65
g51
NtRp5080
(dp5081
g54
(dp5082
sg63
g5010
sg56
(lp5083
g49
(g70
g51
NtRp5084
(dp5085
g54
(dp5086
g74
g75
ssg63
g5080
sg56
(lp5087
S'generator'
p5088
asbag49
(g70
g51
NtRp5089
(dp5090
g54
(dp5091
g81
g82
ssg63
g5080
sg56
(lp5092
S':'
asbag49
(g70
g51
NtRp5093
(dp5094
g54
(dp5095
sg63
g5080
sg56
(lp5096
g49
(g50
g51
NtRp5097
(dp5098
g54
(dp5099
g62
I4
ssg63
g5093
sg56
(lp5100
S'Web2py Web Framework'
p5101
asbasbasbag49
(g65
g51
NtRp5102
(dp5103
g54
(dp5104
sg63
g5010
sg56
(lp5105
g49
(g70
g51
NtRp5106
(dp5107
g54
(dp5108
g74
g75
ssg63
g5102
sg56
(lp5109
S'keywords'
p5110
asbag49
(g70
g51
NtRp5111
(dp5112
g54
(dp5113
g81
g82
ssg63
g5102
sg56
(lp5114
S':'
asbag49
(g70
g51
NtRp5115
(dp5116
g54
(dp5117
sg63
g5102
sg56
(lp5118
g49
(g50
g51
NtRp5119
(dp5120
g54
(dp5121
g62
I4
ssg63
g5115
sg56
(lp5122
S'web2py, python, framework'
p5123
asbasbasbasbasbasbasbag49
(g65
g51
NtRp5124
(dp5125
g54
(dp5126
sg63
g3289
sg56
(lp5127
g49
(g70
g51
NtRp5128
(dp5129
g54
(dp5130
g74
g75
ssg63
g5124
sg56
(lp5131
S'postprocessing'
p5132
asbag49
(g70
g51
NtRp5133
(dp5134
g54
(dp5135
g81
g82
ssg63
g5124
sg56
(lp5136
S':'
asbag49
(g70
g51
NtRp5137
(dp5138
g54
(dp5139
sg63
g5124
sg56
(lp5140
g49
(g50
g51
NtRp5141
(dp5142
g54
(dp5143
g62
I5
ssg63
g5137
sg56
(lp5144
g49
(g58
g51
NtRp5145
(dp5146
g54
(dp5147
g62
I4
ssg63
Nsg56
(lp5148
sbasbasbasbag49
(g65
g51
NtRp5149
(dp5150
g54
(dp5151
sg63
g3289
sg56
(lp5152
g49
(g70
g51
NtRp5153
(dp5154
g54
(dp5155
g74
g75
ssg63
g5149
sg56
(lp5156
S'session_file'
p5157
asbag49
(g70
g51
NtRp5158
(dp5159
g54
(dp5160
g81
g82
ssg63
g5149
sg56
(lp5161
S':'
asbag49
(g70
g51
NtRp5162
(dp5163
g54
(dp5164
sg63
g5149
sg56
(lp5165
g49
(g50
g51
NtRp5166
(dp5167
g54
(dp5168
g62
I5
ssg63
g5162
sg56
(lp5169
S"<open file 'C:\\web2py\\applications\\unioeste_code\\sessions\\127.0.0.1-ac0e57bf-2a61-4ff7-b75a-c2e830b4787a', mode 'rb+' at 0x065FAD10>"
p5170
asbasbasbag49
(g65
g51
NtRp5171
(dp5172
g54
(dp5173
sg63
g3289
sg56
(lp5174
g49
(g70
g51
NtRp5175
(dp5176
g54
(dp5177
g74
g75
ssg63
g5171
sg56
(lp5178
S'session_filename'
p5179
asbag49
(g70
g51
NtRp5180
(dp5181
g54
(dp5182
g81
g82
ssg63
g5171
sg56
(lp5183
S':'
asbag49
(g70
g51
NtRp5184
(dp5185
g54
(dp5186
sg63
g5171
sg56
(lp5187
g49
(g50
g51
NtRp5188
(dp5189
g54
(dp5190
g62
I5
ssg63
g5184
sg56
(lp5191
S'C:\\web2py\\applications\\unioeste_code\\sessions\\127.0.0.1-ac0e57bf-2a61-4ff7-b75a-c2e830b4787a'
p5192
asbasbasbag49
(g65
g51
NtRp5193
(dp5194
g54
(dp5195
sg63
g3289
sg56
(lp5196
g49
(g70
g51
NtRp5197
(dp5198
g54
(dp5199
g74
g75
ssg63
g5193
sg56
(lp5200
S'session_id'
p5201
asbag49
(g70
g51
NtRp5202
(dp5203
g54
(dp5204
g81
g82
ssg63
g5193
sg56
(lp5205
S':'
asbag49
(g70
g51
NtRp5206
(dp5207
g54
(dp5208
sg63
g5193
sg56
(lp5209
g49
(g50
g51
NtRp5210
(dp5211
g54
(dp5212
g62
I5
ssg63
g5206
sg56
(lp5213
S'127.0.0.1-ac0e57bf-2a61-4ff7-b75a-c2e830b4787a'
p5214
asbasbasbag49
(g65
g51
NtRp5215
(dp5216
g54
(dp5217
sg63
g3289
sg56
(lp5218
g49
(g70
g51
NtRp5219
(dp5220
g54
(dp5221
g74
g75
ssg63
g5215
sg56
(lp5222
S'session_id_name'
p5223
asbag49
(g70
g51
NtRp5224
(dp5225
g54
(dp5226
g81
g82
ssg63
g5215
sg56
(lp5227
S':'
asbag49
(g70
g51
NtRp5228
(dp5229
g54
(dp5230
sg63
g5215
sg56
(lp5231
g49
(g50
g51
NtRp5232
(dp5233
g54
(dp5234
g62
I5
ssg63
g5228
sg56
(lp5235
g3346
asbasbasbag49
(g65
g51
NtRp5236
(dp5237
g54
(dp5238
sg63
g3289
sg56
(lp5239
g49
(g70
g51
NtRp5240
(dp5241
g54
(dp5242
g74
g75
ssg63
g5236
sg56
(lp5243
S'session_locked'
p5244
asbag49
(g70
g51
NtRp5245
(dp5246
g54
(dp5247
g81
g82
ssg63
g5236
sg56
(lp5248
S':'
asbag49
(g70
g51
NtRp5249
(dp5250
g54
(dp5251
sg63
g5236
sg56
(lp5252
g49
(g50
g51
NtRp5253
(dp5254
g54
(dp5255
g62
I5
ssg63
g5249
sg56
(lp5256
g1477
asbasbasbag49
(g65
g51
NtRp5257
(dp5258
g54
(dp5259
sg63
g3289
sg56
(lp5260
g49
(g70
g51
NtRp5261
(dp5262
g54
(dp5263
g74
g75
ssg63
g5257
sg56
(lp5264
S'session_new'
p5265
asbag49
(g70
g51
NtRp5266
(dp5267
g54
(dp5268
g81
g82
ssg63
g5257
sg56
(lp5269
S':'
asbag49
(g70
g51
NtRp5270
(dp5271
g54
(dp5272
sg63
g5257
sg56
(lp5273
g49
(g50
g51
NtRp5274
(dp5275
g54
(dp5276
g62
I5
ssg63
g5270
sg56
(lp5277
g92
asbasbasbag49
(g65
g51
NtRp5278
(dp5279
g54
(dp5280
sg63
g3289
sg56
(lp5281
g49
(g70
g51
NtRp5282
(dp5283
g54
(dp5284
g74
g75
ssg63
g5278
sg56
(lp5285
S'status'
p5286
asbag49
(g70
g51
NtRp5287
(dp5288
g54
(dp5289
g81
g82
ssg63
g5278
sg56
(lp5290
S':'
asbag49
(g70
g51
NtRp5291
(dp5292
g54
(dp5293
sg63
g5278
sg56
(lp5294
g49
(g50
g51
NtRp5295
(dp5296
g54
(dp5297
g62
I5
ssg63
g5291
sg56
(lp5298
S'200'
p5299
asbasbasbag49
(g65
g51
NtRp5300
(dp5301
g54
(dp5302
sg63
g3289
sg56
(lp5303
g49
(g70
g51
NtRp5304
(dp5305
g54
(dp5306
g74
g75
ssg63
g5300
sg56
(lp5307
S'subtitle'
p5308
asbag49
(g70
g51
NtRp5309
(dp5310
g54
(dp5311
g81
g82
ssg63
g5300
sg56
(lp5312
S':'
asbag49
(g70
g51
NtRp5313
(dp5314
g54
(dp5315
sg63
g5300
sg56
(lp5316
g49
(g50
g51
NtRp5317
(dp5318
g54
(dp5319
g62
I5
ssg63
g5313
sg56
(lp5320
g3917
(S's\x0f\x00\x00\x00Personalize-me!'
tRp5321
asbasbasbag49
(g65
g51
NtRp5322
(dp5323
g54
(dp5324
sg63
g3289
sg56
(lp5325
g49
(g70
g51
NtRp5326
(dp5327
g54
(dp5328
g74
g75
ssg63
g5322
sg56
(lp5329
S'title'
p5330
asbag49
(g70
g51
NtRp5331
(dp5332
g54
(dp5333
g81
g82
ssg63
g5322
sg56
(lp5334
S':'
asbag49
(g70
g51
NtRp5335
(dp5336
g54
(dp5337
sg63
g5322
sg56
(lp5338
g49
(g50
g51
NtRp5339
(dp5340
g54
(dp5341
g62
I5
ssg63
g5335
sg56
(lp5342
S'Unioeste Code'
p5343
asbasbasbag49
(g65
g51
NtRp5344
(dp5345
g54
(dp5346
sg63
g3289
sg56
(lp5347
g49
(g70
g51
NtRp5348
(dp5349
g54
(dp5350
g74
g75
ssg63
g5344
sg56
(lp5351
g2162
asbag49
(g70
g51
NtRp5352
(dp5353
g54
(dp5354
g81
g82
ssg63
g5344
sg56
(lp5355
S':'
asbag49
(g70
g51
NtRp5356
(dp5357
g54
(dp5358
sg63
g5344
sg56
(lp5359
g49
(g50
g51
NtRp5360
(dp5361
g54
(dp5362
g62
I5
ssg63
g5356
sg56
(lp5363
g2175
asbasbasbag49
(g65
g51
NtRp5364
(dp5365
g54
(dp5366
sg63
g3289
sg56
(lp5367
g49
(g70
g51
NtRp5368
(dp5369
g54
(dp5370
g74
g75
ssg63
g5364
sg56
(lp5371
S'view'
p5372
asbag49
(g70
g51
NtRp5373
(dp5374
g54
(dp5375
g81
g82
ssg63
g5364
sg56
(lp5376
S':'
asbag49
(g70
g51
NtRp5377
(dp5378
g54
(dp5379
sg63
g5364
sg56
(lp5380
g49
(g50
g51
NtRp5381
(dp5382
g54
(dp5383
g62
I5
ssg63
g5377
sg56
(lp5384
S'default/Code.html'
p5385
asbasbasbasbasbsS'locals'
p5386
(dp5387
S'fromlist'
p5388
S'[]'
p5389
sS'name'
p5390
S"'__init__'"
p5391
sg62
S'-1'
p5392
sS'self'
p5393
S'<gluon.custom_import._Web2pyImporter object at 0x02F213B0>'
p5394
sS'globals'
p5395
S"{'A': <class 'gluon.html.A'>, 'Auth': <class 'gluon.tools.Auth'>, 'B': <class 'gluon.html.B'>, 'BEAUTIFY': <class 'gluon.html.BEAUTIFY'>, 'BODY': <class 'gluon.html.BODY'>, 'BR': <class 'gluon.html.BR'>, 'BUTTON': <class 'gluon.html.BUTTON'>, 'CAT': <class 'gluon.html.CAT'>, 'CENTER': <class 'gluon.html.CENTER'>, 'CLEANUP': <class 'gluon.validators.CLEANUP'>, ...}"
p5396
sg5386
S"{'A': <class 'gluon.html.A'>, 'Auth': <class 'gluon.tools.Auth'>, 'B': <class 'gluon.html.B'>, 'BEAUTIFY': <class 'gluon.html.BEAUTIFY'>, 'BODY': <class 'gluon.html.BODY'>, 'BR': <class 'gluon.html.BR'>, 'BUTTON': <class 'gluon.html.BUTTON'>, 'CAT': <class 'gluon.html.CAT'>, 'CENTER': <class 'gluon.html.CENTER'>, 'CLEANUP': <class 'gluon.validators.CLEANUP'>, ...}"
p5397
sssS'traceback'
p5398
S'Traceback (most recent call last):\n  File "gluon/restricted.py", line 205, in restricted\n  File "C:\\web2py\\applications\\unioeste_code\\views\\default/Code.html", line 87, in <module>\n  File "gluon/custom_import.py", line 293, in __call__\n  File "gluon/custom_import.py", line 78, in __call__\nImportError: No module named __init__\n'
p5399
s.