(dp1
S'output'
p2
S"<type 'exceptions.ImportError'> No module named pyGravatar"
p3
sS'layer'
p4
S'C:\\web2py\\applications\\unioeste_code\\views\\default/index.html'
p5
sS'code'
p6
S'response.write(\'<!DOCTYPE html>\\n<!-- paulirish.com/2008/conditional-stylesheets-vs-css-hacks-answer-neither/ -->\\n<!--[if lt IE 7]><html class="ie ie6 ie-lte9 ie-lte8 ie-lte7 no-js" lang="\', escape=False)\nresponse.write(T.accepted_language or \'en\')\nresponse.write(\'"> <![endif]-->\\n<!--[if IE 7]><html class="ie ie7 ie-lte9 ie-lte8 ie-lte7 no-js" lang="\', escape=False)\nresponse.write(T.accepted_language or \'en\')\nresponse.write(\'"> <![endif]-->\\n<!--[if IE 8]><html class="ie ie8 ie-lte9 ie-lte8 no-js" lang="\', escape=False)\nresponse.write(T.accepted_language or \'en\')\nresponse.write(\'"> <![endif]-->\\n<!--[if IE 9]><html class="ie9 ie-lte9 no-js" lang="\', escape=False)\nresponse.write(T.accepted_language or \'en\')\nresponse.write(\'"> <![endif]-->\\n<!--[if (gt IE 9)|!(IE)]><!--> <html class="no-js" lang="\', escape=False)\nresponse.write(T.accepted_language or \'en\')\nresponse.write(\'"> <!--<![endif]-->\\n<head>\\n  <meta charset="utf-8" />\\n  <!-- www.phpied.com/conditional-comments-block-downloads/ -->\\n  <!-- Always force latest IE rendering engine\\n\\t   (even in intranet) & Chrome Frame\\n\\t   Remove this if you use the .htaccess -->\\n  <!--[if IE]>\\n    <meta http-equiv="X-UA-Compatible" content="IE=edge\', escape=False)\nresponse.write(not request.is_local and \',chrome=1\' or \'\')\nresponse.write(\'">\\n  <![endif]-->\\n  \\n  <title>\', escape=False)\nresponse.write(response.title or request.application)\nresponse.write(\'</title>\\n  \\n  <!-- http://dev.w3.org/html5/markup/meta.name.html -->\\n  <meta name="application-name" content="\', escape=False)\nresponse.write(request.application)\nresponse.write(\'" />\\n  \\n  <!-- Speaking of Google, don\\\'t forget to set your site up:\\n\\t   http://google.com/webmasters -->\\n  <meta name="google-site-verification" content="" />\\n\\n  <!--  Mobile Viewport Fix\\n\\t  j.mp/mobileviewport & davidbcalhoun.com/2010/viewport-metatag\\n\\t  device-width: Occupy full width of the screen in its current orientation\\n\\t  initial-scale = 1.0 retains dimensions instead of zooming out if page height > device height\\n\\t  user-scalable = yes allows the user to zoom in -->\\n  <meta name="viewport" content="width=device-width, initial-scale=1.0, user-scalable=yes">\\n  \\n  <!-- Place favicon.ico and apple-touch-icon.png in the root of your domain and delete these references -->\\n  <link rel="shortcut icon" href="\', escape=False)\nresponse.write(URL(\'static\',\'favicon.ico\'))\nresponse.write(\'" type="image/x-icon">\\n  <link rel="apple-touch-icon" href="\', escape=False)\nresponse.write(URL(\'static\',\'favicon.png\'))\nresponse.write(\'">\\n\\n  <!-- All JavaScript at the bottom, except for Modernizr which enables \\n\\t   HTML5 elements & feature detects -->\\n  <script src="\', escape=False)\nresponse.write(URL(\'static\',\'js/modernizr.custom.js\'))\nresponse.write(\'"></script>  \\n\\n  <!-- include stylesheets -->\\n  \', escape=False)\nresponse.files.append(URL(\'static\',\'css/skeleton.css\'))\nresponse.files.append(URL(\'static\',\'css/web2py.css\'))\nif response.menu:\n    response.files.append(URL(\'static\',\'css/superfish.css\'))\n    response.files.append(URL(\'static\',\'js/superfish.js\'))\n    pass\nresponse.write(\'\\n\\n  \', escape=False)\nresponse.write(\'<script type="text/javascript"><!--\\n    // These variables are used by the web2py_ajax_init function in web2py_ajax.js (which is loaded below).\\n    var w2p_ajax_confirm_message = "\', escape=False)\nresponse.write(T(\'Are you sure you want to delete this object?\'))\nresponse.write(\'";\\n    var w2p_ajax_date_format = "\', escape=False)\nresponse.write(T(\'%Y-%m-%d\'))\nresponse.write(\'";\\n    var w2p_ajax_datetime_format = "\', escape=False)\nresponse.write(T(\'%Y-%m-%d %H:%M:%S\'))\nresponse.write(\'";\\n    //--></script>\\n\', escape=False)\nresponse.files.insert(0,URL(\'static\',\'js/jquery.js\'))\nresponse.files.insert(1,URL(\'static\',\'css/calendar.css\'))\nresponse.files.insert(2,URL(\'static\',\'js/calendar.js\'))\nresponse.files.insert(3,URL(\'static\',\'js/web2py.js\'))\nresponse.include_meta()\nresponse.include_files()\nresponse.write(\'\\n\', escape=False)\nresponse.write(\'\\n\\n  \', escape=False)\nif response.menu:\n    response.write(\'\\n  <script type="text/javascript">\\n    jQuery(function(){ jQuery(\\\'ul.sf-menu\\\').supersubs({minWidth:12,maxWidth:30,extraWidth:3}).superfish(); });\\n  </script>\\n  \', escape=False)\n    pass\nresponse.write(\'\\n\\n  \', escape=False)\n# using sidebars need to know what sidebar you want to use\nleft_sidebar_enabled = globals().get(\'left_sidebar_enabled\',False)\nright_sidebar_enabled = globals().get(\'right_sidebar_enabled\',False)\nmiddle_columns = {0:\'sixteen\',1:\'twelve\',2:\'eight\'}[\n(left_sidebar_enabled and 1 or 0)+(right_sidebar_enabled and 1 or 0)]\nresponse.write(\'\\n\\n  <!-- uncomment here to load jquery-ui\\n  <link rel="stylesheet" href="http://ajax.googleapis.com/ajax/libs/jqueryui/1.8.16/themes/base/jquery-ui.css" type="text/css" media="all" />\\n  <script src="http://ajax.googleapis.com/ajax/libs/jqueryui/1.8.16/jquery-ui.min.js" type="text/javascript"></script>\\n  uncomment to load jquery-ui //-->\\n</head>\\n<body>\\n  <div class="wrapper"><!-- for sticky footer -->\\n  \\n    <div class="topbar">\\n      <div class="container">    \\n        <div class="sixteen columns">\\n          <div id="navbar">\', escape=False)\nresponse.write(\'auth\' in globals() and auth.navbar(separators=(\' \',\' | \',\'\')))\nresponse.write(\'</div>\\n          \', escape=False)\nis_mobile=request.user_agent().is_mobile\nresponse.write(\'\\n\\t  \', escape=False)\nif response.menu:\n    response.write(\'\\n          <div id="menu">\\n             \', escape=False)\n    response.write(MENU(response.menu, _class=\'mobile-menu\' if is_mobile else \'sf-menu\',mobile=is_mobile))\n    response.write(\'\\n          </div>\\n          \', escape=False)\n    pass\nresponse.write(\'\\n        </div>\\n      </div>\\n    </div><!-- topbar -->\\n    \\n    <div class="flash">\', escape=False)\nresponse.write(response.flash or \'\')\nresponse.write(\'</div>\\n    \\n    <div class="header">\\n      <div class="container">         \\n        <div class="sixteen columns">\\n          <img src="\', escape=False)\nresponse.write(URL(\'static\',\'images/logo-code.png\'))\nresponse.write(\'" class="remove-bottom" style="margin-top: .5em;" />\\n          <!-- H5 subtitle-->\\n        </div>\\n        <div class="sixteen columns">\\n          <div style="border: 1px solid #000000; ">\\n            <div style="float:right; padding-top: .25em;" class="a2a_kit a2a_default_style">\\n            <a class="a2a_dd" href="http://www.addtoany.com/share_save">Share</a></div>\\n            <script type="text/javascript" src="http://static.addtoany.com/menu/page.js"></script>\\n          </div>\\n        </div>\\n      </div>\\n    </div>\\n\\n    <div class="main">\\n      <div class="container">                 \\n        \', escape=False)\nif left_sidebar_enabled:\n    response.write(\'\\n        <div class="four columns left-sidebar">\\n          \', escape=False)\n    response.write(\'\\n          <h3>Left Sidebar</h3>\\n          <p></p>\\n          \', escape=False)\n    response.write(\'\\n        </div>\\n        \', escape=False)\n    pass\nresponse.write(\'\\n        \\n        <div class="\', escape=False)\nresponse.write(middle_columns)\nresponse.write(\' columns center">\\n          \', escape=False)\nresponse.write(\'\\n          \', escape=False)\nresponse.write(\'\\n\\n\\n\', escape=False)\nresponse.write(H1(T("Current Problems")))\nresponse.write(\'\\n<ul>\\n\', escape=False)\nfor problem in problems:\n    response.write(\'\\n\', escape=False)\n    user = db(db.auth_user.id==problem.created_by).select().first()\n    response.write(\'\\n\', escape=False)\n    response.write(LI(A(problem.title, _style="font-weight:bold;",_href=URL("Problem", args=problem.id)), " by " + user.first_name + " " + user.last_name + " ", SPAN(prettydate(problem.created_on), _style="color:green;font-weight:bold;")))\n    response.write(\'\\n\', escape=False)\n    pass\nresponse.write(\'\\n\\n\\n\', escape=False)\nfrom pyGravatar import Gravatar\nresponse.write(\'\\n\', escape=False)\nIMG(_src=Gravatar(auth.user.email).thumb())\nresponse.write(\'\\n\\n\\n</ul>\\n\\n\', escape=False)\nresponse.write(\'\\n          \', escape=False)\nresponse.write(\'\\n        </div>\\n        \\n        \', escape=False)\nif right_sidebar_enabled:\n    response.write(\'\\n        <div class="four columns">\\n          \', escape=False)\n    response.write(\'\\n          <h3>Right Sidebar</h3>\\n          <p></p>\\n          \', escape=False)\n    response.write(\'\\n        </div>    \\n        \', escape=False)\n    pass\nresponse.write(\'\\n        \\n      </div><!-- container -->\\n    </div><!-- main -->\\n    \\n    <div class="push"></div>\\n  </div><!-- wrapper -->\\n\\n  <div class="footer">\\n    <div class="container">    \\n      <div class="sixteen columns">\\n        \', escape=False)\nresponse.write(\' <!-- this is default footer -->\\n        <div class="footer-content clearfix">\\n            <div style="float: left;">\\n            <a href="https://developers.google.com//"> \\n            <img style="padding-left: 8em; padding-bottom:1em; " src="https://developers.google.com/appengine/images/appengine-noborder-120x30.gif" alt="Powered by Google App Engine"/>\\n            </a>\\n          </div>\\n          <div class="footer-content clearfix">\\n            <div style="float: left;   ">\\n            <a href="http://www.python.org/"> \\n            <img style="" src="http://www.python.org/community/logos/python-powered-w-70x28.png" alt="Powered by Python"/>\\n            </a>\\n          </div>\\n          <div style="padding-left: 19.5em; padding-top: 0.25em;">\\n            <a href="http://www.web2py.com/">\\n            <img style="" src="\', escape=False)\nresponse.write(URL(\'static\',\'images/poweredby.png\'))\nresponse.write(\'"/>\\n            </a>\\n          </div>\\n        </div>\\n        \', escape=False)\nresponse.write(\'\\t\\n      </div>\\n    </div><!-- container -->\\n  </div><!-- footer -->\\n  \\n  <!--[if lt IE 7 ]>\\n\\t<script src="\', escape=False)\nresponse.write(URL(\'static\',\'js/dd_belatedpng.js\'))\nresponse.write(\'"></script>\\n\\t<script> DD_belatedPNG.fix(\\\'img, .png_bg\\\'); //fix any <img> or .png_bg background-images </script>\\n\\t<![endif]-->\\n  \', escape=False)\nif response.google_analytics_id:\n    response.write(\'<script type="text/javascript"> var _gaq = _gaq || []; _gaq.push([\\\'_setAccount\\\', \\\'\', escape=False)\n    response.write(response.google_analytics_id)\n    response.write("\']); _gaq.push([\'_trackPageview\']); (function() { var ga = document.createElement(\'script\'); ga.type = \'text/javascript\'; ga.async = true; ga.src = (\'https:\' == document.location.protocol ? \'https://ssl\' : \'http://www\') + \'.google-analytics.com/ga.js\'; var s = document.getElementsByTagName(\'script\')[0]; s.parentNode.insertBefore(ga, s); })(); </script> ", escape=False)\n    pass\nresponse.write(\'\\n</body>\\n</html>\\n\', escape=False)'
p7
sS'snapshot'
p8
(dp9
S'exception'
p10
(dp11
S'__hash__'
p12
S"<method-wrapper '__hash__' of exceptions.ImportError object at 0x0329F3A0>"
p13
sS'__setattr__'
p14
S"<method-wrapper '__setattr__' of exceptions.ImportError object at 0x0329F3A0>"
p15
sS'__reduce_ex__'
p16
S'<built-in method __reduce_ex__ of exceptions.ImportError object at 0x0329F3A0>'
p17
sS'__getslice__'
p18
S"<method-wrapper '__getslice__' of exceptions.ImportError object at 0x0329F3A0>"
p19
sS'__getitem__'
p20
S"<method-wrapper '__getitem__' of exceptions.ImportError object at 0x0329F3A0>"
p21
sS'__setstate__'
p22
S'<built-in method __setstate__ of exceptions.ImportError object at 0x0329F3A0>'
p23
sS'__reduce__'
p24
S'<built-in method __reduce__ of exceptions.ImportError object at 0x0329F3A0>'
p25
sS'__str__'
p26
S"<method-wrapper '__str__' of exceptions.ImportError object at 0x0329F3A0>"
p27
sS'args'
p28
S"('No module named pyGravatar',)"
p29
sS'__getattribute__'
p30
S"<method-wrapper '__getattribute__' of exceptions.ImportError object at 0x0329F3A0>"
p31
sS'__class__'
p32
S"<type 'exceptions.ImportError'>"
p33
sS'__delattr__'
p34
S"<method-wrapper '__delattr__' of exceptions.ImportError object at 0x0329F3A0>"
p35
sS'__repr__'
p36
S"<method-wrapper '__repr__' of exceptions.ImportError object at 0x0329F3A0>"
p37
sS'__dict__'
p38
S'{}'
p39
sS'__doc__'
p40
S'"Import can\'t find module, or can\'t find name in module."'
p41
sS'__init__'
p42
S"<method-wrapper '__init__' of exceptions.ImportError object at 0x0329F3A0>"
p43
sS'__new__'
p44
S'<built-in method __new__ of type object at 0x1E1CD198>'
p45
ssS'evalue'
p46
S'No module named pyGravatar'
p47
sS'request'
p48
ccopy_reg
_reconstructor
p49
(cgluon.html
BEAUTIFY
p50
c__builtin__
object
p51
NtRp52
(dp53
S'attributes'
p54
(dp55
sS'components'
p56
(lp57
g49
(cgluon.html
TABLE
p58
g51
NtRp59
(dp60
g54
(dp61
S'level'
p62
I5
ssS'parent'
p63
Nsg56
(lp64
g49
(cgluon.html
TR
p65
g51
NtRp66
(dp67
g54
(dp68
sg63
g59
sg56
(lp69
g49
(cgluon.html
TD
p70
g51
NtRp71
(dp72
g54
(dp73
S'_style'
p74
S'font-weight:bold;vertical-align:top'
p75
ssg63
g66
sg56
(lp76
S'ajax'
p77
asbag49
(g70
g51
NtRp78
(dp79
g54
(dp80
S'_valign'
p81
S'top'
p82
ssg63
g66
sg56
(lp83
S':'
asbag49
(g70
g51
NtRp84
(dp85
g54
(dp86
sg63
g66
sg56
(lp87
g49
(g50
g51
NtRp88
(dp89
g54
(dp90
g62
I5
ssg63
g84
sg56
(lp91
S'False'
p92
asbasbasbag49
(g65
g51
NtRp93
(dp94
g54
(dp95
sg63
g59
sg56
(lp96
g49
(g70
g51
NtRp97
(dp98
g54
(dp99
g74
g75
ssg63
g93
sg56
(lp100
S'application'
p101
asbag49
(g70
g51
NtRp102
(dp103
g54
(dp104
g81
g82
ssg63
g93
sg56
(lp105
S':'
asbag49
(g70
g51
NtRp106
(dp107
g54
(dp108
sg63
g93
sg56
(lp109
g49
(g50
g51
NtRp110
(dp111
g54
(dp112
g62
I5
ssg63
g106
sg56
(lp113
S'unioeste_code'
p114
asbasbasbag49
(g65
g51
NtRp115
(dp116
g54
(dp117
sg63
g59
sg56
(lp118
g49
(g70
g51
NtRp119
(dp120
g54
(dp121
g74
g75
ssg63
g115
sg56
(lp122
g28
asbag49
(g70
g51
NtRp123
(dp124
g54
(dp125
g81
g82
ssg63
g115
sg56
(lp126
S':'
asbag49
(g70
g51
NtRp127
(dp128
g54
(dp129
sg63
g115
sg56
(lp130
g49
(g50
g51
NtRp131
(dp132
g54
(dp133
g62
I5
ssg63
g127
sg56
(lp134
g49
(g58
g51
NtRp135
(dp136
g54
(dp137
g62
I4
ssg63
Nsg56
(lp138
sbasbasbasbag49
(g65
g51
NtRp139
(dp140
g54
(dp141
sg63
g59
sg56
(lp142
g49
(g70
g51
NtRp143
(dp144
g54
(dp145
g74
g75
ssg63
g139
sg56
(lp146
S'body'
p147
asbag49
(g70
g51
NtRp148
(dp149
g54
(dp150
g81
g82
ssg63
g139
sg56
(lp151
S':'
asbag49
(g70
g51
NtRp152
(dp153
g54
(dp154
sg63
g139
sg56
(lp155
g49
(g50
g51
NtRp156
(dp157
g54
(dp158
g62
I5
ssg63
g152
sg56
(lp159
S'<cStringIO.StringO object at 0x0329C260>'
p160
asbasbasbag49
(g65
g51
NtRp161
(dp162
g54
(dp163
sg63
g59
sg56
(lp164
g49
(g70
g51
NtRp165
(dp166
g54
(dp167
g74
g75
ssg63
g161
sg56
(lp168
S'client'
p169
asbag49
(g70
g51
NtRp170
(dp171
g54
(dp172
g81
g82
ssg63
g161
sg56
(lp173
S':'
asbag49
(g70
g51
NtRp174
(dp175
g54
(dp176
sg63
g161
sg56
(lp177
g49
(g50
g51
NtRp178
(dp179
g54
(dp180
g62
I5
ssg63
g174
sg56
(lp181
S'127.0.0.1'
p182
asbasbasbag49
(g65
g51
NtRp183
(dp184
g54
(dp185
sg63
g59
sg56
(lp186
g49
(g70
g51
NtRp187
(dp188
g54
(dp189
g74
g75
ssg63
g183
sg56
(lp190
S'controller'
p191
asbag49
(g70
g51
NtRp192
(dp193
g54
(dp194
g81
g82
ssg63
g183
sg56
(lp195
S':'
asbag49
(g70
g51
NtRp196
(dp197
g54
(dp198
sg63
g183
sg56
(lp199
g49
(g50
g51
NtRp200
(dp201
g54
(dp202
g62
I5
ssg63
g196
sg56
(lp203
S'default'
p204
asbasbasbag49
(g65
g51
NtRp205
(dp206
g54
(dp207
sg63
g59
sg56
(lp208
g49
(g70
g51
NtRp209
(dp210
g54
(dp211
g74
g75
ssg63
g205
sg56
(lp212
S'cookies'
p213
asbag49
(g70
g51
NtRp214
(dp215
g54
(dp216
g81
g82
ssg63
g205
sg56
(lp217
S':'
asbag49
(g70
g51
NtRp218
(dp219
g54
(dp220
sg63
g205
sg56
(lp221
g49
(g50
g51
NtRp222
(dp223
g54
(dp224
g62
I5
ssg63
g218
sg56
(lp225
g49
(g58
g51
NtRp226
(dp227
g54
(dp228
g62
I4
ssg63
Nsg56
(lp229
g49
(g65
g51
NtRp230
(dp231
g54
(dp232
sg63
g226
sg56
(lp233
g49
(g70
g51
NtRp234
(dp235
g54
(dp236
g74
g75
ssg63
g230
sg56
(lp237
S'session_id_welcome'
p238
asbag49
(g70
g51
NtRp239
(dp240
g54
(dp241
g81
g82
ssg63
g230
sg56
(lp242
S':'
asbag49
(g70
g51
NtRp243
(dp244
g54
(dp245
sg63
g230
sg56
(lp246
g49
(g50
g51
NtRp247
(dp248
g54
(dp249
g62
I4
ssg63
g243
sg56
(lp250
g49
(g58
g51
NtRp251
(dp252
g54
(dp253
g62
I3
ssg63
Nsg56
(lp254
g49
(g65
g51
NtRp255
(dp256
g54
(dp257
sg63
g251
sg56
(lp258
g49
(g70
g51
NtRp259
(dp260
g54
(dp261
g74
g75
ssg63
g255
sg56
(lp262
S'comment'
p263
asbag49
(g70
g51
NtRp264
(dp265
g54
(dp266
g81
g82
ssg63
g255
sg56
(lp267
S':'
asbag49
(g70
g51
NtRp268
(dp269
g54
(dp270
sg63
g255
sg56
(lp271
g49
(g50
g51
NtRp272
(dp273
g54
(dp274
g62
I3
ssg63
g268
sg56
(lp275
S''
asbasbasbag49
(g65
g51
NtRp276
(dp277
g54
(dp278
sg63
g251
sg56
(lp279
g49
(g70
g51
NtRp280
(dp281
g54
(dp282
g74
g75
ssg63
g276
sg56
(lp283
S'domain'
p284
asbag49
(g70
g51
NtRp285
(dp286
g54
(dp287
g81
g82
ssg63
g276
sg56
(lp288
S':'
asbag49
(g70
g51
NtRp289
(dp290
g54
(dp291
sg63
g276
sg56
(lp292
g49
(g50
g51
NtRp293
(dp294
g54
(dp295
g62
I3
ssg63
g289
sg56
(lp296
S''
asbasbasbag49
(g65
g51
NtRp297
(dp298
g54
(dp299
sg63
g251
sg56
(lp300
g49
(g70
g51
NtRp301
(dp302
g54
(dp303
g74
g75
ssg63
g297
sg56
(lp304
S'expires'
p305
asbag49
(g70
g51
NtRp306
(dp307
g54
(dp308
g81
g82
ssg63
g297
sg56
(lp309
S':'
asbag49
(g70
g51
NtRp310
(dp311
g54
(dp312
sg63
g297
sg56
(lp313
g49
(g50
g51
NtRp314
(dp315
g54
(dp316
g62
I3
ssg63
g310
sg56
(lp317
S''
asbasbasbag49
(g65
g51
NtRp318
(dp319
g54
(dp320
sg63
g251
sg56
(lp321
g49
(g70
g51
NtRp322
(dp323
g54
(dp324
g74
g75
ssg63
g318
sg56
(lp325
S'max-age'
p326
asbag49
(g70
g51
NtRp327
(dp328
g54
(dp329
g81
g82
ssg63
g318
sg56
(lp330
S':'
asbag49
(g70
g51
NtRp331
(dp332
g54
(dp333
sg63
g318
sg56
(lp334
g49
(g50
g51
NtRp335
(dp336
g54
(dp337
g62
I3
ssg63
g331
sg56
(lp338
S''
asbasbasbag49
(g65
g51
NtRp339
(dp340
g54
(dp341
sg63
g251
sg56
(lp342
g49
(g70
g51
NtRp343
(dp344
g54
(dp345
g74
g75
ssg63
g339
sg56
(lp346
S'path'
p347
asbag49
(g70
g51
NtRp348
(dp349
g54
(dp350
g81
g82
ssg63
g339
sg56
(lp351
S':'
asbag49
(g70
g51
NtRp352
(dp353
g54
(dp354
sg63
g339
sg56
(lp355
g49
(g50
g51
NtRp356
(dp357
g54
(dp358
g62
I3
ssg63
g352
sg56
(lp359
S''
asbasbasbag49
(g65
g51
NtRp360
(dp361
g54
(dp362
sg63
g251
sg56
(lp363
g49
(g70
g51
NtRp364
(dp365
g54
(dp366
g74
g75
ssg63
g360
sg56
(lp367
S'secure'
p368
asbag49
(g70
g51
NtRp369
(dp370
g54
(dp371
g81
g82
ssg63
g360
sg56
(lp372
S':'
asbag49
(g70
g51
NtRp373
(dp374
g54
(dp375
sg63
g360
sg56
(lp376
g49
(g50
g51
NtRp377
(dp378
g54
(dp379
g62
I3
ssg63
g373
sg56
(lp380
S''
asbasbasbag49
(g65
g51
NtRp381
(dp382
g54
(dp383
sg63
g251
sg56
(lp384
g49
(g70
g51
NtRp385
(dp386
g54
(dp387
g74
g75
ssg63
g381
sg56
(lp388
S'version'
p389
asbag49
(g70
g51
NtRp390
(dp391
g54
(dp392
g81
g82
ssg63
g381
sg56
(lp393
S':'
asbag49
(g70
g51
NtRp394
(dp395
g54
(dp396
sg63
g381
sg56
(lp397
g49
(g50
g51
NtRp398
(dp399
g54
(dp400
g62
I3
ssg63
g394
sg56
(lp401
S''
asbasbasbasbasbasbasbasbasbasbasbag49
(g65
g51
NtRp402
(dp403
g54
(dp404
sg63
g59
sg56
(lp405
g49
(g70
g51
NtRp406
(dp407
g54
(dp408
g74
g75
ssg63
g402
sg56
(lp409
S'env'
p410
asbag49
(g70
g51
NtRp411
(dp412
g54
(dp413
g81
g82
ssg63
g402
sg56
(lp414
S':'
asbag49
(g70
g51
NtRp415
(dp416
g54
(dp417
sg63
g402
sg56
(lp418
g49
(g50
g51
NtRp419
(dp420
g54
(dp421
g62
I5
ssg63
g415
sg56
(lp422
g49
(g58
g51
NtRp423
(dp424
g54
(dp425
g62
I4
ssg63
Nsg56
(lp426
g49
(g65
g51
NtRp427
(dp428
g54
(dp429
sg63
g423
sg56
(lp430
g49
(g70
g51
NtRp431
(dp432
g54
(dp433
g74
g75
ssg63
g427
sg56
(lp434
S'app_folders'
p435
asbag49
(g70
g51
NtRp436
(dp437
g54
(dp438
g81
g82
ssg63
g427
sg56
(lp439
S':'
asbag49
(g70
g51
NtRp440
(dp441
g54
(dp442
sg63
g427
sg56
(lp443
g49
(g50
g51
NtRp444
(dp445
g54
(dp446
g62
I4
ssg63
g440
sg56
(lp447
S"set(['C:\\\\web2py\\\\applications\\\\welcome\\\\', 'C:\\\\web2py\\\\applications\\\\unioeste_code\\\\'])"
p448
asbasbasbag49
(g65
g51
NtRp449
(dp450
g54
(dp451
sg63
g423
sg56
(lp452
g49
(g70
g51
NtRp453
(dp454
g54
(dp455
g74
g75
ssg63
g449
sg56
(lp456
S'applications_parent'
p457
asbag49
(g70
g51
NtRp458
(dp459
g54
(dp460
g81
g82
ssg63
g449
sg56
(lp461
S':'
asbag49
(g70
g51
NtRp462
(dp463
g54
(dp464
sg63
g449
sg56
(lp465
g49
(g50
g51
NtRp466
(dp467
g54
(dp468
g62
I4
ssg63
g462
sg56
(lp469
S'C:\\web2py'
p470
asbasbasbag49
(g65
g51
NtRp471
(dp472
g54
(dp473
sg63
g423
sg56
(lp474
g49
(g70
g51
NtRp475
(dp476
g54
(dp477
g74
g75
ssg63
g471
sg56
(lp478
S'cmd_args'
p479
asbag49
(g70
g51
NtRp480
(dp481
g54
(dp482
g81
g82
ssg63
g471
sg56
(lp483
S':'
asbag49
(g70
g51
NtRp484
(dp485
g54
(dp486
sg63
g471
sg56
(lp487
g49
(g50
g51
NtRp488
(dp489
g54
(dp490
g62
I4
ssg63
g484
sg56
(lp491
g49
(g58
g51
NtRp492
(dp493
g54
(dp494
g62
I3
ssg63
Nsg56
(lp495
sbasbasbasbag49
(g65
g51
NtRp496
(dp497
g54
(dp498
sg63
g423
sg56
(lp499
g49
(g70
g51
NtRp500
(dp501
g54
(dp502
g74
g75
ssg63
g496
sg56
(lp503
S'cmd_options'
p504
asbag49
(g70
g51
NtRp505
(dp506
g54
(dp507
g81
g82
ssg63
g496
sg56
(lp508
S':'
asbag49
(g70
g51
NtRp509
(dp510
g54
(dp511
sg63
g496
sg56
(lp512
g49
(g50
g51
NtRp513
(dp514
g54
(dp515
g62
I4
ssg63
g509
sg56
(lp516
S"<Values at 0x30ec300: {'verbose': False, 'ip': '127.0.0.1', 'shutdown_timeout': 5, 'taskbar': False, 'nocron': False, 'pid_filename': 'httpserver.pid', 'maxthreads': None, 'softcron': False, 'server_name': 'Pedro-PC', 'bpython': False, 'nogui': False, 'port': 8000, 'extcron': False, 'debuglevel': 30, 'test': None, 'folder': 'C:\\\\web2py', 'config': '', 'import_models': False, 'winservice': '', 'shell': None, 'run': '', 'log_filename': 'httpserver.log', 'args': [''], 'socket_timeout': 5, 'ssl_ca_certificate': None, 'scheduler': None, 'profiler_filename': None, 'ssl_private_key': '', 'password': '<ask>', 'request_queue_size': 5, 'ssl_certificate': '', 'cronjob': False, 'numthreads': None, 'quiet': False, 'interfaces': None, 'minthreads': None, 'timeout': 10, 'plain': False, 'nobanner': False}>"
p517
asbasbasbag49
(g65
g51
NtRp518
(dp519
g54
(dp520
sg63
g423
sg56
(lp521
g49
(g70
g51
NtRp522
(dp523
g54
(dp524
g74
g75
ssg63
g518
sg56
(lp525
S'db_sessions'
p526
asbag49
(g70
g51
NtRp527
(dp528
g54
(dp529
g81
g82
ssg63
g518
sg56
(lp530
S':'
asbag49
(g70
g51
NtRp531
(dp532
g54
(dp533
sg63
g518
sg56
(lp534
g49
(g50
g51
NtRp535
(dp536
g54
(dp537
g62
I4
ssg63
g531
sg56
(lp538
S'set([])'
p539
asbasbasbag49
(g65
g51
NtRp540
(dp541
g54
(dp542
sg63
g423
sg56
(lp543
g49
(g70
g51
NtRp544
(dp545
g54
(dp546
g74
g75
ssg63
g540
sg56
(lp547
S'debugging'
p548
asbag49
(g70
g51
NtRp549
(dp550
g54
(dp551
g81
g82
ssg63
g540
sg56
(lp552
S':'
asbag49
(g70
g51
NtRp553
(dp554
g54
(dp555
sg63
g540
sg56
(lp556
g49
(g50
g51
NtRp557
(dp558
g54
(dp559
g62
I4
ssg63
g553
sg56
(lp560
g92
asbasbasbag49
(g65
g51
NtRp561
(dp562
g54
(dp563
sg63
g423
sg56
(lp564
g49
(g70
g51
NtRp565
(dp566
g54
(dp567
g74
g75
ssg63
g561
sg56
(lp568
S'gluon_parent'
p569
asbag49
(g70
g51
NtRp570
(dp571
g54
(dp572
g81
g82
ssg63
g561
sg56
(lp573
S':'
asbag49
(g70
g51
NtRp574
(dp575
g54
(dp576
sg63
g561
sg56
(lp577
g49
(g50
g51
NtRp578
(dp579
g54
(dp580
g62
I4
ssg63
g574
sg56
(lp581
S'C:\\web2py'
p582
asbasbasbag49
(g65
g51
NtRp583
(dp584
g54
(dp585
sg63
g423
sg56
(lp586
g49
(g70
g51
NtRp587
(dp588
g54
(dp589
g74
g75
ssg63
g583
sg56
(lp590
S'http_accept'
p591
asbag49
(g70
g51
NtRp592
(dp593
g54
(dp594
g81
g82
ssg63
g583
sg56
(lp595
S':'
asbag49
(g70
g51
NtRp596
(dp597
g54
(dp598
sg63
g583
sg56
(lp599
g49
(g50
g51
NtRp600
(dp601
g54
(dp602
g62
I4
ssg63
g596
sg56
(lp603
S'text/html,application/xhtml+xml,application/xml;q=0.9,*/*;q=0.8'
p604
asbasbasbag49
(g65
g51
NtRp605
(dp606
g54
(dp607
sg63
g423
sg56
(lp608
g49
(g70
g51
NtRp609
(dp610
g54
(dp611
g74
g75
ssg63
g605
sg56
(lp612
S'http_accept_charset'
p613
asbag49
(g70
g51
NtRp614
(dp615
g54
(dp616
g81
g82
ssg63
g605
sg56
(lp617
S':'
asbag49
(g70
g51
NtRp618
(dp619
g54
(dp620
sg63
g605
sg56
(lp621
g49
(g50
g51
NtRp622
(dp623
g54
(dp624
g62
I4
ssg63
g618
sg56
(lp625
S'ISO-8859-1,utf-8;q=0.7,*;q=0.3'
p626
asbasbasbag49
(g65
g51
NtRp627
(dp628
g54
(dp629
sg63
g423
sg56
(lp630
g49
(g70
g51
NtRp631
(dp632
g54
(dp633
g74
g75
ssg63
g627
sg56
(lp634
S'http_accept_encoding'
p635
asbag49
(g70
g51
NtRp636
(dp637
g54
(dp638
g81
g82
ssg63
g627
sg56
(lp639
S':'
asbag49
(g70
g51
NtRp640
(dp641
g54
(dp642
sg63
g627
sg56
(lp643
g49
(g50
g51
NtRp644
(dp645
g54
(dp646
g62
I4
ssg63
g640
sg56
(lp647
S'gzip,deflate,sdch'
p648
asbasbasbag49
(g65
g51
NtRp649
(dp650
g54
(dp651
sg63
g423
sg56
(lp652
g49
(g70
g51
NtRp653
(dp654
g54
(dp655
g74
g75
ssg63
g649
sg56
(lp656
S'http_accept_language'
p657
asbag49
(g70
g51
NtRp658
(dp659
g54
(dp660
g81
g82
ssg63
g649
sg56
(lp661
S':'
asbag49
(g70
g51
NtRp662
(dp663
g54
(dp664
sg63
g649
sg56
(lp665
g49
(g50
g51
NtRp666
(dp667
g54
(dp668
g62
I4
ssg63
g662
sg56
(lp669
S'pt-BR,pt;q=0.8,en-US;q=0.6,en;q=0.4'
p670
asbasbasbag49
(g65
g51
NtRp671
(dp672
g54
(dp673
sg63
g423
sg56
(lp674
g49
(g70
g51
NtRp675
(dp676
g54
(dp677
g74
g75
ssg63
g671
sg56
(lp678
S'http_connection'
p679
asbag49
(g70
g51
NtRp680
(dp681
g54
(dp682
g81
g82
ssg63
g671
sg56
(lp683
S':'
asbag49
(g70
g51
NtRp684
(dp685
g54
(dp686
sg63
g671
sg56
(lp687
g49
(g50
g51
NtRp688
(dp689
g54
(dp690
g62
I4
ssg63
g684
sg56
(lp691
S'keep-alive'
p692
asbasbasbag49
(g65
g51
NtRp693
(dp694
g54
(dp695
sg63
g423
sg56
(lp696
g49
(g70
g51
NtRp697
(dp698
g54
(dp699
g74
g75
ssg63
g693
sg56
(lp700
S'http_cookie'
p701
asbag49
(g70
g51
NtRp702
(dp703
g54
(dp704
g81
g82
ssg63
g693
sg56
(lp705
S':'
asbag49
(g70
g51
NtRp706
(dp707
g54
(dp708
sg63
g693
sg56
(lp709
g49
(g50
g51
NtRp710
(dp711
g54
(dp712
g62
I4
ssg63
g706
sg56
(lp713
S'session_id_welcome=127.0.0.1-2c819932-5dd0-49d7-b2ce-8ed172bca8c2'
p714
asbasbasbag49
(g65
g51
NtRp715
(dp716
g54
(dp717
sg63
g423
sg56
(lp718
g49
(g70
g51
NtRp719
(dp720
g54
(dp721
g74
g75
ssg63
g715
sg56
(lp722
S'http_dnt'
p723
asbag49
(g70
g51
NtRp724
(dp725
g54
(dp726
g81
g82
ssg63
g715
sg56
(lp727
S':'
asbag49
(g70
g51
NtRp728
(dp729
g54
(dp730
sg63
g715
sg56
(lp731
g49
(g50
g51
NtRp732
(dp733
g54
(dp734
g62
I4
ssg63
g728
sg56
(lp735
S'1'
asbasbasbag49
(g65
g51
NtRp736
(dp737
g54
(dp738
sg63
g423
sg56
(lp739
g49
(g70
g51
NtRp740
(dp741
g54
(dp742
g74
g75
ssg63
g736
sg56
(lp743
S'http_host'
p744
asbag49
(g70
g51
NtRp745
(dp746
g54
(dp747
g81
g82
ssg63
g736
sg56
(lp748
S':'
asbag49
(g70
g51
NtRp749
(dp750
g54
(dp751
sg63
g736
sg56
(lp752
g49
(g50
g51
NtRp753
(dp754
g54
(dp755
g62
I4
ssg63
g749
sg56
(lp756
S'127.0.0.1:8000'
p757
asbasbasbag49
(g65
g51
NtRp758
(dp759
g54
(dp760
sg63
g423
sg56
(lp761
g49
(g70
g51
NtRp762
(dp763
g54
(dp764
g74
g75
ssg63
g758
sg56
(lp765
S'http_user_agent'
p766
asbag49
(g70
g51
NtRp767
(dp768
g54
(dp769
g81
g82
ssg63
g758
sg56
(lp770
S':'
asbag49
(g70
g51
NtRp771
(dp772
g54
(dp773
sg63
g758
sg56
(lp774
g49
(g50
g51
NtRp775
(dp776
g54
(dp777
g62
I4
ssg63
g771
sg56
(lp778
S'Mozilla/5.0 (Windows NT 6.1; WOW64) AppleWebKit/536.11 (KHTML, like Gecko) Chrome/20.0.1132.57 Safari/536.11'
p779
asbasbasbag49
(g65
g51
NtRp780
(dp781
g54
(dp782
sg63
g423
sg56
(lp783
g49
(g70
g51
NtRp784
(dp785
g54
(dp786
g74
g75
ssg63
g780
sg56
(lp787
S'is_jython'
p788
asbag49
(g70
g51
NtRp789
(dp790
g54
(dp791
g81
g82
ssg63
g780
sg56
(lp792
S':'
asbag49
(g70
g51
NtRp793
(dp794
g54
(dp795
sg63
g780
sg56
(lp796
g49
(g50
g51
NtRp797
(dp798
g54
(dp799
g62
I4
ssg63
g793
sg56
(lp800
g92
asbasbasbag49
(g65
g51
NtRp801
(dp802
g54
(dp803
sg63
g423
sg56
(lp804
g49
(g70
g51
NtRp805
(dp806
g54
(dp807
g74
g75
ssg63
g801
sg56
(lp808
S'is_pypy'
p809
asbag49
(g70
g51
NtRp810
(dp811
g54
(dp812
g81
g82
ssg63
g801
sg56
(lp813
S':'
asbag49
(g70
g51
NtRp814
(dp815
g54
(dp816
sg63
g801
sg56
(lp817
g49
(g50
g51
NtRp818
(dp819
g54
(dp820
g62
I4
ssg63
g814
sg56
(lp821
g92
asbasbasbag49
(g65
g51
NtRp822
(dp823
g54
(dp824
sg63
g423
sg56
(lp825
g49
(g70
g51
NtRp826
(dp827
g54
(dp828
g74
g75
ssg63
g822
sg56
(lp829
S'path_info'
p830
asbag49
(g70
g51
NtRp831
(dp832
g54
(dp833
g81
g82
ssg63
g822
sg56
(lp834
S':'
asbag49
(g70
g51
NtRp835
(dp836
g54
(dp837
sg63
g822
sg56
(lp838
g49
(g50
g51
NtRp839
(dp840
g54
(dp841
g62
I4
ssg63
g835
sg56
(lp842
S'/unioeste_code/'
p843
asbasbasbag49
(g65
g51
NtRp844
(dp845
g54
(dp846
sg63
g423
sg56
(lp847
g49
(g70
g51
NtRp848
(dp849
g54
(dp850
g74
g75
ssg63
g844
sg56
(lp851
S'query_string'
p852
asbag49
(g70
g51
NtRp853
(dp854
g54
(dp855
g81
g82
ssg63
g844
sg56
(lp856
S':'
asbag49
(g70
g51
NtRp857
(dp858
g54
(dp859
sg63
g844
sg56
(lp860
g49
(g50
g51
NtRp861
(dp862
g54
(dp863
g62
I4
ssg63
g857
sg56
(lp864
S''
asbasbasbag49
(g65
g51
NtRp865
(dp866
g54
(dp867
sg63
g423
sg56
(lp868
g49
(g70
g51
NtRp869
(dp870
g54
(dp871
g74
g75
ssg63
g865
sg56
(lp872
S'remote_addr'
p873
asbag49
(g70
g51
NtRp874
(dp875
g54
(dp876
g81
g82
ssg63
g865
sg56
(lp877
S':'
asbag49
(g70
g51
NtRp878
(dp879
g54
(dp880
sg63
g865
sg56
(lp881
g49
(g50
g51
NtRp882
(dp883
g54
(dp884
g62
I4
ssg63
g878
sg56
(lp885
g182
asbasbasbag49
(g65
g51
NtRp886
(dp887
g54
(dp888
sg63
g423
sg56
(lp889
g49
(g70
g51
NtRp890
(dp891
g54
(dp892
g74
g75
ssg63
g886
sg56
(lp893
S'remote_port'
p894
asbag49
(g70
g51
NtRp895
(dp896
g54
(dp897
g81
g82
ssg63
g886
sg56
(lp898
S':'
asbag49
(g70
g51
NtRp899
(dp900
g54
(dp901
sg63
g886
sg56
(lp902
g49
(g50
g51
NtRp903
(dp904
g54
(dp905
g62
I4
ssg63
g899
sg56
(lp906
S'2069'
p907
asbasbasbag49
(g65
g51
NtRp908
(dp909
g54
(dp910
sg63
g423
sg56
(lp911
g49
(g70
g51
NtRp912
(dp913
g54
(dp914
g74
g75
ssg63
g908
sg56
(lp915
S'request_method'
p916
asbag49
(g70
g51
NtRp917
(dp918
g54
(dp919
g81
g82
ssg63
g908
sg56
(lp920
S':'
asbag49
(g70
g51
NtRp921
(dp922
g54
(dp923
sg63
g908
sg56
(lp924
g49
(g50
g51
NtRp925
(dp926
g54
(dp927
g62
I4
ssg63
g921
sg56
(lp928
S'GET'
p929
asbasbasbag49
(g65
g51
NtRp930
(dp931
g54
(dp932
sg63
g423
sg56
(lp933
g49
(g70
g51
NtRp934
(dp935
g54
(dp936
g74
g75
ssg63
g930
sg56
(lp937
S'script_name'
p938
asbag49
(g70
g51
NtRp939
(dp940
g54
(dp941
g81
g82
ssg63
g930
sg56
(lp942
S':'
asbag49
(g70
g51
NtRp943
(dp944
g54
(dp945
sg63
g930
sg56
(lp946
g49
(g50
g51
NtRp947
(dp948
g54
(dp949
g62
I4
ssg63
g943
sg56
(lp950
S''
asbasbasbag49
(g65
g51
NtRp951
(dp952
g54
(dp953
sg63
g423
sg56
(lp954
g49
(g70
g51
NtRp955
(dp956
g54
(dp957
g74
g75
ssg63
g951
sg56
(lp958
S'server_name'
p959
asbag49
(g70
g51
NtRp960
(dp961
g54
(dp962
g81
g82
ssg63
g951
sg56
(lp963
S':'
asbag49
(g70
g51
NtRp964
(dp965
g54
(dp966
sg63
g951
sg56
(lp967
g49
(g50
g51
NtRp968
(dp969
g54
(dp970
g62
I4
ssg63
g964
sg56
(lp971
S'Pedro-PC'
p972
asbasbasbag49
(g65
g51
NtRp973
(dp974
g54
(dp975
sg63
g423
sg56
(lp976
g49
(g70
g51
NtRp977
(dp978
g54
(dp979
g74
g75
ssg63
g973
sg56
(lp980
S'server_port'
p981
asbag49
(g70
g51
NtRp982
(dp983
g54
(dp984
g81
g82
ssg63
g973
sg56
(lp985
S':'
asbag49
(g70
g51
NtRp986
(dp987
g54
(dp988
sg63
g973
sg56
(lp989
g49
(g50
g51
NtRp990
(dp991
g54
(dp992
g62
I4
ssg63
g986
sg56
(lp993
S'8000'
p994
asbasbasbag49
(g65
g51
NtRp995
(dp996
g54
(dp997
sg63
g423
sg56
(lp998
g49
(g70
g51
NtRp999
(dp1000
g54
(dp1001
g74
g75
ssg63
g995
sg56
(lp1002
S'server_protocol'
p1003
asbag49
(g70
g51
NtRp1004
(dp1005
g54
(dp1006
g81
g82
ssg63
g995
sg56
(lp1007
S':'
asbag49
(g70
g51
NtRp1008
(dp1009
g54
(dp1010
sg63
g995
sg56
(lp1011
g49
(g50
g51
NtRp1012
(dp1013
g54
(dp1014
g62
I4
ssg63
g1008
sg56
(lp1015
S'HTTP/1.1'
p1016
asbasbasbag49
(g65
g51
NtRp1017
(dp1018
g54
(dp1019
sg63
g423
sg56
(lp1020
g49
(g70
g51
NtRp1021
(dp1022
g54
(dp1023
g74
g75
ssg63
g1017
sg56
(lp1024
S'server_software'
p1025
asbag49
(g70
g51
NtRp1026
(dp1027
g54
(dp1028
g81
g82
ssg63
g1017
sg56
(lp1029
S':'
asbag49
(g70
g51
NtRp1030
(dp1031
g54
(dp1032
sg63
g1017
sg56
(lp1033
g49
(g50
g51
NtRp1034
(dp1035
g54
(dp1036
g62
I4
ssg63
g1030
sg56
(lp1037
S'Rocket 1.2.4'
p1038
asbasbasbag49
(g65
g51
NtRp1039
(dp1040
g54
(dp1041
sg63
g423
sg56
(lp1042
g49
(g70
g51
NtRp1043
(dp1044
g54
(dp1045
g74
g75
ssg63
g1039
sg56
(lp1046
S'web2py_crontype'
p1047
asbag49
(g70
g51
NtRp1048
(dp1049
g54
(dp1050
g81
g82
ssg63
g1039
sg56
(lp1051
S':'
asbag49
(g70
g51
NtRp1052
(dp1053
g54
(dp1054
sg63
g1039
sg56
(lp1055
g49
(g50
g51
NtRp1056
(dp1057
g54
(dp1058
g62
I4
ssg63
g1052
sg56
(lp1059
S'hard'
p1060
asbasbasbag49
(g65
g51
NtRp1061
(dp1062
g54
(dp1063
sg63
g423
sg56
(lp1064
g49
(g70
g51
NtRp1065
(dp1066
g54
(dp1067
g74
g75
ssg63
g1061
sg56
(lp1068
S'web2py_path'
p1069
asbag49
(g70
g51
NtRp1070
(dp1071
g54
(dp1072
g81
g82
ssg63
g1061
sg56
(lp1073
S':'
asbag49
(g70
g51
NtRp1074
(dp1075
g54
(dp1076
sg63
g1061
sg56
(lp1077
g49
(g50
g51
NtRp1078
(dp1079
g54
(dp1080
g62
I4
ssg63
g1074
sg56
(lp1081
g470
asbasbasbag49
(g65
g51
NtRp1082
(dp1083
g54
(dp1084
sg63
g423
sg56
(lp1085
g49
(g70
g51
NtRp1086
(dp1087
g54
(dp1088
g74
g75
ssg63
g1082
sg56
(lp1089
S'web2py_version'
p1090
asbag49
(g70
g51
NtRp1091
(dp1092
g54
(dp1093
g81
g82
ssg63
g1082
sg56
(lp1094
S':'
asbag49
(g70
g51
NtRp1095
(dp1096
g54
(dp1097
sg63
g1082
sg56
(lp1098
g49
(g50
g51
NtRp1099
(dp1100
g54
(dp1101
g62
I4
ssg63
g1095
sg56
(lp1102
g49
(g58
g51
NtRp1103
(dp1104
g54
(dp1105
g62
I3
ssg63
Nsg56
(lp1106
g49
(g65
g51
NtRp1107
(dp1108
g54
(dp1109
sg63
g1103
sg56
(lp1110
g49
(g70
g51
NtRp1111
(dp1112
g54
(dp1113
sg63
g1107
sg56
(lp1114
g49
(g50
g51
NtRp1115
(dp1116
g54
(dp1117
g62
I3
ssg63
g1111
sg56
(lp1118
S'1'
asbasbasbag49
(g65
g51
NtRp1119
(dp1120
g54
(dp1121
sg63
g1103
sg56
(lp1122
g49
(g70
g51
NtRp1123
(dp1124
g54
(dp1125
sg63
g1119
sg56
(lp1126
g49
(g50
g51
NtRp1127
(dp1128
g54
(dp1129
g62
I3
ssg63
g1123
sg56
(lp1130
S'99'
p1131
asbasbasbag49
(g65
g51
NtRp1132
(dp1133
g54
(dp1134
sg63
g1103
sg56
(lp1135
g49
(g70
g51
NtRp1136
(dp1137
g54
(dp1138
sg63
g1132
sg56
(lp1139
g49
(g50
g51
NtRp1140
(dp1141
g54
(dp1142
g62
I3
ssg63
g1136
sg56
(lp1143
S'7'
asbasbasbag49
(g65
g51
NtRp1144
(dp1145
g54
(dp1146
sg63
g1103
sg56
(lp1147
g49
(g70
g51
NtRp1148
(dp1149
g54
(dp1150
sg63
g1144
sg56
(lp1151
g49
(g50
g51
NtRp1152
(dp1153
g54
(dp1154
g62
I3
ssg63
g1148
sg56
(lp1155
S'datetime.datetime(2012, 3, 4, 22, 12, 8)'
p1156
asbasbasbag49
(g65
g51
NtRp1157
(dp1158
g54
(dp1159
sg63
g1103
sg56
(lp1160
g49
(g70
g51
NtRp1161
(dp1162
g54
(dp1163
sg63
g1157
sg56
(lp1164
g49
(g50
g51
NtRp1165
(dp1166
g54
(dp1167
g62
I3
ssg63
g1161
sg56
(lp1168
S'stable'
p1169
asbasbasbasbasbasbasbag49
(g65
g51
NtRp1170
(dp1171
g54
(dp1172
sg63
g423
sg56
(lp1173
g49
(g70
g51
NtRp1174
(dp1175
g54
(dp1176
g74
g75
ssg63
g1170
sg56
(lp1177
S'wsgi_errors'
p1178
asbag49
(g70
g51
NtRp1179
(dp1180
g54
(dp1181
g81
g82
ssg63
g1170
sg56
(lp1182
S':'
asbag49
(g70
g51
NtRp1183
(dp1184
g54
(dp1185
sg63
g1170
sg56
(lp1186
g49
(g50
g51
NtRp1187
(dp1188
g54
(dp1189
g62
I4
ssg63
g1183
sg56
(lp1190
S'<__main__.Stderr object at 0x01FA6670>'
p1191
asbasbasbag49
(g65
g51
NtRp1192
(dp1193
g54
(dp1194
sg63
g423
sg56
(lp1195
g49
(g70
g51
NtRp1196
(dp1197
g54
(dp1198
g74
g75
ssg63
g1192
sg56
(lp1199
S'wsgi_file_wrapper'
p1200
asbag49
(g70
g51
NtRp1201
(dp1202
g54
(dp1203
g81
g82
ssg63
g1192
sg56
(lp1204
S':'
asbag49
(g70
g51
NtRp1205
(dp1206
g54
(dp1207
sg63
g1192
sg56
(lp1208
g49
(g50
g51
NtRp1209
(dp1210
g54
(dp1211
g62
I4
ssg63
g1205
sg56
(lp1212
S'<class wsgiref.util.FileWrapper at 0x02EDDE10>'
p1213
asbasbasbag49
(g65
g51
NtRp1214
(dp1215
g54
(dp1216
sg63
g423
sg56
(lp1217
g49
(g70
g51
NtRp1218
(dp1219
g54
(dp1220
g74
g75
ssg63
g1214
sg56
(lp1221
S'wsgi_input'
p1222
asbag49
(g70
g51
NtRp1223
(dp1224
g54
(dp1225
g81
g82
ssg63
g1214
sg56
(lp1226
S':'
asbag49
(g70
g51
NtRp1227
(dp1228
g54
(dp1229
sg63
g1214
sg56
(lp1230
g49
(g50
g51
NtRp1231
(dp1232
g54
(dp1233
g62
I4
ssg63
g1227
sg56
(lp1234
S'<socket._fileobject object at 0x03241030>'
p1235
asbasbasbag49
(g65
g51
NtRp1236
(dp1237
g54
(dp1238
sg63
g423
sg56
(lp1239
g49
(g70
g51
NtRp1240
(dp1241
g54
(dp1242
g74
g75
ssg63
g1236
sg56
(lp1243
S'wsgi_multiprocess'
p1244
asbag49
(g70
g51
NtRp1245
(dp1246
g54
(dp1247
g81
g82
ssg63
g1236
sg56
(lp1248
S':'
asbag49
(g70
g51
NtRp1249
(dp1250
g54
(dp1251
sg63
g1236
sg56
(lp1252
g49
(g50
g51
NtRp1253
(dp1254
g54
(dp1255
g62
I4
ssg63
g1249
sg56
(lp1256
g92
asbasbasbag49
(g65
g51
NtRp1257
(dp1258
g54
(dp1259
sg63
g423
sg56
(lp1260
g49
(g70
g51
NtRp1261
(dp1262
g54
(dp1263
g74
g75
ssg63
g1257
sg56
(lp1264
S'wsgi_multithread'
p1265
asbag49
(g70
g51
NtRp1266
(dp1267
g54
(dp1268
g81
g82
ssg63
g1257
sg56
(lp1269
S':'
asbag49
(g70
g51
NtRp1270
(dp1271
g54
(dp1272
sg63
g1257
sg56
(lp1273
g49
(g50
g51
NtRp1274
(dp1275
g54
(dp1276
g62
I4
ssg63
g1270
sg56
(lp1277
S'True'
p1278
asbasbasbag49
(g65
g51
NtRp1279
(dp1280
g54
(dp1281
sg63
g423
sg56
(lp1282
g49
(g70
g51
NtRp1283
(dp1284
g54
(dp1285
g74
g75
ssg63
g1279
sg56
(lp1286
S'wsgi_run_once'
p1287
asbag49
(g70
g51
NtRp1288
(dp1289
g54
(dp1290
g81
g82
ssg63
g1279
sg56
(lp1291
S':'
asbag49
(g70
g51
NtRp1292
(dp1293
g54
(dp1294
sg63
g1279
sg56
(lp1295
g49
(g50
g51
NtRp1296
(dp1297
g54
(dp1298
g62
I4
ssg63
g1292
sg56
(lp1299
g92
asbasbasbag49
(g65
g51
NtRp1300
(dp1301
g54
(dp1302
sg63
g423
sg56
(lp1303
g49
(g70
g51
NtRp1304
(dp1305
g54
(dp1306
g74
g75
ssg63
g1300
sg56
(lp1307
S'wsgi_url_scheme'
p1308
asbag49
(g70
g51
NtRp1309
(dp1310
g54
(dp1311
g81
g82
ssg63
g1300
sg56
(lp1312
S':'
asbag49
(g70
g51
NtRp1313
(dp1314
g54
(dp1315
sg63
g1300
sg56
(lp1316
g49
(g50
g51
NtRp1317
(dp1318
g54
(dp1319
g62
I4
ssg63
g1313
sg56
(lp1320
S'http'
p1321
asbasbasbag49
(g65
g51
NtRp1322
(dp1323
g54
(dp1324
sg63
g423
sg56
(lp1325
g49
(g70
g51
NtRp1326
(dp1327
g54
(dp1328
g74
g75
ssg63
g1322
sg56
(lp1329
S'wsgi_version'
p1330
asbag49
(g70
g51
NtRp1331
(dp1332
g54
(dp1333
g81
g82
ssg63
g1322
sg56
(lp1334
S':'
asbag49
(g70
g51
NtRp1335
(dp1336
g54
(dp1337
sg63
g1322
sg56
(lp1338
g49
(g50
g51
NtRp1339
(dp1340
g54
(dp1341
g62
I4
ssg63
g1335
sg56
(lp1342
g49
(g58
g51
NtRp1343
(dp1344
g54
(dp1345
g62
I3
ssg63
Nsg56
(lp1346
g49
(g65
g51
NtRp1347
(dp1348
g54
(dp1349
sg63
g1343
sg56
(lp1350
g49
(g70
g51
NtRp1351
(dp1352
g54
(dp1353
sg63
g1347
sg56
(lp1354
g49
(g50
g51
NtRp1355
(dp1356
g54
(dp1357
g62
I3
ssg63
g1351
sg56
(lp1358
S'1'
asbasbasbag49
(g65
g51
NtRp1359
(dp1360
g54
(dp1361
sg63
g1343
sg56
(lp1362
g49
(g70
g51
NtRp1363
(dp1364
g54
(dp1365
sg63
g1359
sg56
(lp1366
g49
(g50
g51
NtRp1367
(dp1368
g54
(dp1369
g62
I3
ssg63
g1363
sg56
(lp1370
S'0'
asbasbasbasbasbasbasbasbasbasbasbag49
(g65
g51
NtRp1371
(dp1372
g54
(dp1373
sg63
g59
sg56
(lp1374
g49
(g70
g51
NtRp1375
(dp1376
g54
(dp1377
g74
g75
ssg63
g1371
sg56
(lp1378
S'extension'
p1379
asbag49
(g70
g51
NtRp1380
(dp1381
g54
(dp1382
g81
g82
ssg63
g1371
sg56
(lp1383
S':'
asbag49
(g70
g51
NtRp1384
(dp1385
g54
(dp1386
sg63
g1371
sg56
(lp1387
g49
(g50
g51
NtRp1388
(dp1389
g54
(dp1390
g62
I5
ssg63
g1384
sg56
(lp1391
S'html'
p1392
asbasbasbag49
(g65
g51
NtRp1393
(dp1394
g54
(dp1395
sg63
g59
sg56
(lp1396
g49
(g70
g51
NtRp1397
(dp1398
g54
(dp1399
g74
g75
ssg63
g1393
sg56
(lp1400
S'folder'
p1401
asbag49
(g70
g51
NtRp1402
(dp1403
g54
(dp1404
g81
g82
ssg63
g1393
sg56
(lp1405
S':'
asbag49
(g70
g51
NtRp1406
(dp1407
g54
(dp1408
sg63
g1393
sg56
(lp1409
g49
(g50
g51
NtRp1410
(dp1411
g54
(dp1412
g62
I5
ssg63
g1406
sg56
(lp1413
S'C:\\web2py\\applications\\unioeste_code\\'
p1414
asbasbasbag49
(g65
g51
NtRp1415
(dp1416
g54
(dp1417
sg63
g59
sg56
(lp1418
g49
(g70
g51
NtRp1419
(dp1420
g54
(dp1421
g74
g75
ssg63
g1415
sg56
(lp1422
S'function'
p1423
asbag49
(g70
g51
NtRp1424
(dp1425
g54
(dp1426
g81
g82
ssg63
g1415
sg56
(lp1427
S':'
asbag49
(g70
g51
NtRp1428
(dp1429
g54
(dp1430
sg63
g1415
sg56
(lp1431
g49
(g50
g51
NtRp1432
(dp1433
g54
(dp1434
g62
I5
ssg63
g1428
sg56
(lp1435
S'index'
p1436
asbasbasbag49
(g65
g51
NtRp1437
(dp1438
g54
(dp1439
sg63
g59
sg56
(lp1440
g49
(g70
g51
NtRp1441
(dp1442
g54
(dp1443
g74
g75
ssg63
g1437
sg56
(lp1444
S'get_vars'
p1445
asbag49
(g70
g51
NtRp1446
(dp1447
g54
(dp1448
g81
g82
ssg63
g1437
sg56
(lp1449
S':'
asbag49
(g70
g51
NtRp1450
(dp1451
g54
(dp1452
sg63
g1437
sg56
(lp1453
g49
(g50
g51
NtRp1454
(dp1455
g54
(dp1456
g62
I5
ssg63
g1450
sg56
(lp1457
g49
(g58
g51
NtRp1458
(dp1459
g54
(dp1460
g62
I4
ssg63
Nsg56
(lp1461
sbasbasbasbag49
(g65
g51
NtRp1462
(dp1463
g54
(dp1464
sg63
g59
sg56
(lp1465
g49
(g70
g51
NtRp1466
(dp1467
g54
(dp1468
g74
g75
ssg63
g1462
sg56
(lp1469
S'global_settings'
p1470
asbag49
(g70
g51
NtRp1471
(dp1472
g54
(dp1473
g81
g82
ssg63
g1462
sg56
(lp1474
S':'
asbag49
(g70
g51
NtRp1475
(dp1476
g54
(dp1477
sg63
g1462
sg56
(lp1478
g49
(g50
g51
NtRp1479
(dp1480
g54
(dp1481
g62
I5
ssg63
g1475
sg56
(lp1482
g49
(g58
g51
NtRp1483
(dp1484
g54
(dp1485
g62
I4
ssg63
Nsg56
(lp1486
g49
(g65
g51
NtRp1487
(dp1488
g54
(dp1489
sg63
g1483
sg56
(lp1490
g49
(g70
g51
NtRp1491
(dp1492
g54
(dp1493
g74
g75
ssg63
g1487
sg56
(lp1494
g435
asbag49
(g70
g51
NtRp1495
(dp1496
g54
(dp1497
g81
g82
ssg63
g1487
sg56
(lp1498
S':'
asbag49
(g70
g51
NtRp1499
(dp1500
g54
(dp1501
sg63
g1487
sg56
(lp1502
g49
(g50
g51
NtRp1503
(dp1504
g54
(dp1505
g62
I4
ssg63
g1499
sg56
(lp1506
S"set(['C:\\\\web2py\\\\applications\\\\welcome\\\\', 'C:\\\\web2py\\\\applications\\\\unioeste_code\\\\'])"
p1507
asbasbasbag49
(g65
g51
NtRp1508
(dp1509
g54
(dp1510
sg63
g1483
sg56
(lp1511
g49
(g70
g51
NtRp1512
(dp1513
g54
(dp1514
g74
g75
ssg63
g1508
sg56
(lp1515
g457
asbag49
(g70
g51
NtRp1516
(dp1517
g54
(dp1518
g81
g82
ssg63
g1508
sg56
(lp1519
S':'
asbag49
(g70
g51
NtRp1520
(dp1521
g54
(dp1522
sg63
g1508
sg56
(lp1523
g49
(g50
g51
NtRp1524
(dp1525
g54
(dp1526
g62
I4
ssg63
g1520
sg56
(lp1527
g470
asbasbasbag49
(g65
g51
NtRp1528
(dp1529
g54
(dp1530
sg63
g1483
sg56
(lp1531
g49
(g70
g51
NtRp1532
(dp1533
g54
(dp1534
g74
g75
ssg63
g1528
sg56
(lp1535
g479
asbag49
(g70
g51
NtRp1536
(dp1537
g54
(dp1538
g81
g82
ssg63
g1528
sg56
(lp1539
S':'
asbag49
(g70
g51
NtRp1540
(dp1541
g54
(dp1542
sg63
g1528
sg56
(lp1543
g49
(g50
g51
NtRp1544
(dp1545
g54
(dp1546
g62
I4
ssg63
g1540
sg56
(lp1547
g49
(g58
g51
NtRp1548
(dp1549
g54
(dp1550
g62
I3
ssg63
Nsg56
(lp1551
sbasbasbasbag49
(g65
g51
NtRp1552
(dp1553
g54
(dp1554
sg63
g1483
sg56
(lp1555
g49
(g70
g51
NtRp1556
(dp1557
g54
(dp1558
g74
g75
ssg63
g1552
sg56
(lp1559
g504
asbag49
(g70
g51
NtRp1560
(dp1561
g54
(dp1562
g81
g82
ssg63
g1552
sg56
(lp1563
S':'
asbag49
(g70
g51
NtRp1564
(dp1565
g54
(dp1566
sg63
g1552
sg56
(lp1567
g49
(g50
g51
NtRp1568
(dp1569
g54
(dp1570
g62
I4
ssg63
g1564
sg56
(lp1571
S"<Values at 0x30ec300: {'verbose': False, 'ip': '127.0.0.1', 'shutdown_timeout': 5, 'taskbar': False, 'nocron': False, 'pid_filename': 'httpserver.pid', 'maxthreads': None, 'softcron': False, 'server_name': 'Pedro-PC', 'bpython': False, 'nogui': False, 'port': 8000, 'extcron': False, 'debuglevel': 30, 'test': None, 'folder': 'C:\\\\web2py', 'config': '', 'import_models': False, 'winservice': '', 'shell': None, 'run': '', 'log_filename': 'httpserver.log', 'args': [''], 'socket_timeout': 5, 'ssl_ca_certificate': None, 'scheduler': None, 'profiler_filename': None, 'ssl_private_key': '', 'password': '<ask>', 'request_queue_size': 5, 'ssl_certificate': '', 'cronjob': False, 'numthreads': None, 'quiet': False, 'interfaces': None, 'minthreads': None, 'timeout': 10, 'plain': False, 'nobanner': False}>"
p1572
asbasbasbag49
(g65
g51
NtRp1573
(dp1574
g54
(dp1575
sg63
g1483
sg56
(lp1576
g49
(g70
g51
NtRp1577
(dp1578
g54
(dp1579
g74
g75
ssg63
g1573
sg56
(lp1580
g526
asbag49
(g70
g51
NtRp1581
(dp1582
g54
(dp1583
g81
g82
ssg63
g1573
sg56
(lp1584
S':'
asbag49
(g70
g51
NtRp1585
(dp1586
g54
(dp1587
sg63
g1573
sg56
(lp1588
g49
(g50
g51
NtRp1589
(dp1590
g54
(dp1591
g62
I4
ssg63
g1585
sg56
(lp1592
S'set([])'
p1593
asbasbasbag49
(g65
g51
NtRp1594
(dp1595
g54
(dp1596
sg63
g1483
sg56
(lp1597
g49
(g70
g51
NtRp1598
(dp1599
g54
(dp1600
g74
g75
ssg63
g1594
sg56
(lp1601
g548
asbag49
(g70
g51
NtRp1602
(dp1603
g54
(dp1604
g81
g82
ssg63
g1594
sg56
(lp1605
S':'
asbag49
(g70
g51
NtRp1606
(dp1607
g54
(dp1608
sg63
g1594
sg56
(lp1609
g49
(g50
g51
NtRp1610
(dp1611
g54
(dp1612
g62
I4
ssg63
g1606
sg56
(lp1613
g92
asbasbasbag49
(g65
g51
NtRp1614
(dp1615
g54
(dp1616
sg63
g1483
sg56
(lp1617
g49
(g70
g51
NtRp1618
(dp1619
g54
(dp1620
g74
g75
ssg63
g1614
sg56
(lp1621
g569
asbag49
(g70
g51
NtRp1622
(dp1623
g54
(dp1624
g81
g82
ssg63
g1614
sg56
(lp1625
S':'
asbag49
(g70
g51
NtRp1626
(dp1627
g54
(dp1628
sg63
g1614
sg56
(lp1629
g49
(g50
g51
NtRp1630
(dp1631
g54
(dp1632
g62
I4
ssg63
g1626
sg56
(lp1633
g582
asbasbasbag49
(g65
g51
NtRp1634
(dp1635
g54
(dp1636
sg63
g1483
sg56
(lp1637
g49
(g70
g51
NtRp1638
(dp1639
g54
(dp1640
g74
g75
ssg63
g1634
sg56
(lp1641
g788
asbag49
(g70
g51
NtRp1642
(dp1643
g54
(dp1644
g81
g82
ssg63
g1634
sg56
(lp1645
S':'
asbag49
(g70
g51
NtRp1646
(dp1647
g54
(dp1648
sg63
g1634
sg56
(lp1649
g49
(g50
g51
NtRp1650
(dp1651
g54
(dp1652
g62
I4
ssg63
g1646
sg56
(lp1653
g92
asbasbasbag49
(g65
g51
NtRp1654
(dp1655
g54
(dp1656
sg63
g1483
sg56
(lp1657
g49
(g70
g51
NtRp1658
(dp1659
g54
(dp1660
g74
g75
ssg63
g1654
sg56
(lp1661
g809
asbag49
(g70
g51
NtRp1662
(dp1663
g54
(dp1664
g81
g82
ssg63
g1654
sg56
(lp1665
S':'
asbag49
(g70
g51
NtRp1666
(dp1667
g54
(dp1668
sg63
g1654
sg56
(lp1669
g49
(g50
g51
NtRp1670
(dp1671
g54
(dp1672
g62
I4
ssg63
g1666
sg56
(lp1673
g92
asbasbasbag49
(g65
g51
NtRp1674
(dp1675
g54
(dp1676
sg63
g1483
sg56
(lp1677
g49
(g70
g51
NtRp1678
(dp1679
g54
(dp1680
g74
g75
ssg63
g1674
sg56
(lp1681
g1047
asbag49
(g70
g51
NtRp1682
(dp1683
g54
(dp1684
g81
g82
ssg63
g1674
sg56
(lp1685
S':'
asbag49
(g70
g51
NtRp1686
(dp1687
g54
(dp1688
sg63
g1674
sg56
(lp1689
g49
(g50
g51
NtRp1690
(dp1691
g54
(dp1692
g62
I4
ssg63
g1686
sg56
(lp1693
g1060
asbasbasbag49
(g65
g51
NtRp1694
(dp1695
g54
(dp1696
sg63
g1483
sg56
(lp1697
g49
(g70
g51
NtRp1698
(dp1699
g54
(dp1700
g74
g75
ssg63
g1694
sg56
(lp1701
g1090
asbag49
(g70
g51
NtRp1702
(dp1703
g54
(dp1704
g81
g82
ssg63
g1694
sg56
(lp1705
S':'
asbag49
(g70
g51
NtRp1706
(dp1707
g54
(dp1708
sg63
g1694
sg56
(lp1709
g49
(g50
g51
NtRp1710
(dp1711
g54
(dp1712
g62
I4
ssg63
g1706
sg56
(lp1713
g49
(g58
g51
NtRp1714
(dp1715
g54
(dp1716
g62
I3
ssg63
Nsg56
(lp1717
g49
(g65
g51
NtRp1718
(dp1719
g54
(dp1720
sg63
g1714
sg56
(lp1721
g49
(g70
g51
NtRp1722
(dp1723
g54
(dp1724
sg63
g1718
sg56
(lp1725
g49
(g50
g51
NtRp1726
(dp1727
g54
(dp1728
g62
I3
ssg63
g1722
sg56
(lp1729
S'1'
asbasbasbag49
(g65
g51
NtRp1730
(dp1731
g54
(dp1732
sg63
g1714
sg56
(lp1733
g49
(g70
g51
NtRp1734
(dp1735
g54
(dp1736
sg63
g1730
sg56
(lp1737
g49
(g50
g51
NtRp1738
(dp1739
g54
(dp1740
g62
I3
ssg63
g1734
sg56
(lp1741
S'99'
p1742
asbasbasbag49
(g65
g51
NtRp1743
(dp1744
g54
(dp1745
sg63
g1714
sg56
(lp1746
g49
(g70
g51
NtRp1747
(dp1748
g54
(dp1749
sg63
g1743
sg56
(lp1750
g49
(g50
g51
NtRp1751
(dp1752
g54
(dp1753
g62
I3
ssg63
g1747
sg56
(lp1754
S'7'
asbasbasbag49
(g65
g51
NtRp1755
(dp1756
g54
(dp1757
sg63
g1714
sg56
(lp1758
g49
(g70
g51
NtRp1759
(dp1760
g54
(dp1761
sg63
g1755
sg56
(lp1762
g49
(g50
g51
NtRp1763
(dp1764
g54
(dp1765
g62
I3
ssg63
g1759
sg56
(lp1766
S'datetime.datetime(2012, 3, 4, 22, 12, 8)'
p1767
asbasbasbag49
(g65
g51
NtRp1768
(dp1769
g54
(dp1770
sg63
g1714
sg56
(lp1771
g49
(g70
g51
NtRp1772
(dp1773
g54
(dp1774
sg63
g1768
sg56
(lp1775
g49
(g50
g51
NtRp1776
(dp1777
g54
(dp1778
g62
I3
ssg63
g1772
sg56
(lp1779
g1169
asbasbasbasbasbasbasbasbasbasbasbag49
(g65
g51
NtRp1780
(dp1781
g54
(dp1782
sg63
g59
sg56
(lp1783
g49
(g70
g51
NtRp1784
(dp1785
g54
(dp1786
g74
g75
ssg63
g1780
sg56
(lp1787
S'is_https'
p1788
asbag49
(g70
g51
NtRp1789
(dp1790
g54
(dp1791
g81
g82
ssg63
g1780
sg56
(lp1792
S':'
asbag49
(g70
g51
NtRp1793
(dp1794
g54
(dp1795
sg63
g1780
sg56
(lp1796
g49
(g50
g51
NtRp1797
(dp1798
g54
(dp1799
g62
I5
ssg63
g1793
sg56
(lp1800
g92
asbasbasbag49
(g65
g51
NtRp1801
(dp1802
g54
(dp1803
sg63
g59
sg56
(lp1804
g49
(g70
g51
NtRp1805
(dp1806
g54
(dp1807
g74
g75
ssg63
g1801
sg56
(lp1808
S'is_local'
p1809
asbag49
(g70
g51
NtRp1810
(dp1811
g54
(dp1812
g81
g82
ssg63
g1801
sg56
(lp1813
S':'
asbag49
(g70
g51
NtRp1814
(dp1815
g54
(dp1816
sg63
g1801
sg56
(lp1817
g49
(g50
g51
NtRp1818
(dp1819
g54
(dp1820
g62
I5
ssg63
g1814
sg56
(lp1821
g1278
asbasbasbag49
(g65
g51
NtRp1822
(dp1823
g54
(dp1824
sg63
g59
sg56
(lp1825
g49
(g70
g51
NtRp1826
(dp1827
g54
(dp1828
g74
g75
ssg63
g1822
sg56
(lp1829
S'is_restful'
p1830
asbag49
(g70
g51
NtRp1831
(dp1832
g54
(dp1833
g81
g82
ssg63
g1822
sg56
(lp1834
S':'
asbag49
(g70
g51
NtRp1835
(dp1836
g54
(dp1837
sg63
g1822
sg56
(lp1838
g49
(g50
g51
NtRp1839
(dp1840
g54
(dp1841
g62
I5
ssg63
g1835
sg56
(lp1842
g92
asbasbasbag49
(g65
g51
NtRp1843
(dp1844
g54
(dp1845
sg63
g59
sg56
(lp1846
g49
(g70
g51
NtRp1847
(dp1848
g54
(dp1849
g74
g75
ssg63
g1843
sg56
(lp1850
S'now'
p1851
asbag49
(g70
g51
NtRp1852
(dp1853
g54
(dp1854
g81
g82
ssg63
g1843
sg56
(lp1855
S':'
asbag49
(g70
g51
NtRp1856
(dp1857
g54
(dp1858
sg63
g1843
sg56
(lp1859
g49
(g50
g51
NtRp1860
(dp1861
g54
(dp1862
g62
I5
ssg63
g1856
sg56
(lp1863
S'datetime.datetime(2012, 7, 31, 14, 58, 11, 706000)'
p1864
asbasbasbag49
(g65
g51
NtRp1865
(dp1866
g54
(dp1867
sg63
g59
sg56
(lp1868
g49
(g70
g51
NtRp1869
(dp1870
g54
(dp1871
g74
g75
ssg63
g1865
sg56
(lp1872
S'post_vars'
p1873
asbag49
(g70
g51
NtRp1874
(dp1875
g54
(dp1876
g81
g82
ssg63
g1865
sg56
(lp1877
S':'
asbag49
(g70
g51
NtRp1878
(dp1879
g54
(dp1880
sg63
g1865
sg56
(lp1881
g49
(g50
g51
NtRp1882
(dp1883
g54
(dp1884
g62
I5
ssg63
g1878
sg56
(lp1885
g49
(g58
g51
NtRp1886
(dp1887
g54
(dp1888
g62
I4
ssg63
Nsg56
(lp1889
sbasbasbasbag49
(g65
g51
NtRp1890
(dp1891
g54
(dp1892
sg63
g59
sg56
(lp1893
g49
(g70
g51
NtRp1894
(dp1895
g54
(dp1896
g74
g75
ssg63
g1890
sg56
(lp1897
S'url'
p1898
asbag49
(g70
g51
NtRp1899
(dp1900
g54
(dp1901
g81
g82
ssg63
g1890
sg56
(lp1902
S':'
asbag49
(g70
g51
NtRp1903
(dp1904
g54
(dp1905
sg63
g1890
sg56
(lp1906
g49
(g50
g51
NtRp1907
(dp1908
g54
(dp1909
g62
I5
ssg63
g1903
sg56
(lp1910
S'/unioeste_code/default/index'
p1911
asbasbasbag49
(g65
g51
NtRp1912
(dp1913
g54
(dp1914
sg63
g59
sg56
(lp1915
g49
(g70
g51
NtRp1916
(dp1917
g54
(dp1918
g74
g75
ssg63
g1912
sg56
(lp1919
S'utcnow'
p1920
asbag49
(g70
g51
NtRp1921
(dp1922
g54
(dp1923
g81
g82
ssg63
g1912
sg56
(lp1924
S':'
asbag49
(g70
g51
NtRp1925
(dp1926
g54
(dp1927
sg63
g1912
sg56
(lp1928
g49
(g50
g51
NtRp1929
(dp1930
g54
(dp1931
g62
I5
ssg63
g1925
sg56
(lp1932
S'datetime.datetime(2012, 7, 31, 17, 58, 11, 706000)'
p1933
asbasbasbag49
(g65
g51
NtRp1934
(dp1935
g54
(dp1936
sg63
g59
sg56
(lp1937
g49
(g70
g51
NtRp1938
(dp1939
g54
(dp1940
g74
g75
ssg63
g1934
sg56
(lp1941
S'uuid'
p1942
asbag49
(g70
g51
NtRp1943
(dp1944
g54
(dp1945
g81
g82
ssg63
g1934
sg56
(lp1946
S':'
asbag49
(g70
g51
NtRp1947
(dp1948
g54
(dp1949
sg63
g1934
sg56
(lp1950
g49
(g50
g51
NtRp1951
(dp1952
g54
(dp1953
g62
I5
ssg63
g1947
sg56
(lp1954
S'unioeste_code/127.0.0.1.2012-07-31.14-58-11.68037d35-f34e-4b61-8882-8b51fcffbbf9'
p1955
asbasbasbag49
(g65
g51
NtRp1956
(dp1957
g54
(dp1958
sg63
g59
sg56
(lp1959
g49
(g70
g51
NtRp1960
(dp1961
g54
(dp1962
g74
g75
ssg63
g1956
sg56
(lp1963
S'vars'
p1964
asbag49
(g70
g51
NtRp1965
(dp1966
g54
(dp1967
g81
g82
ssg63
g1956
sg56
(lp1968
S':'
asbag49
(g70
g51
NtRp1969
(dp1970
g54
(dp1971
sg63
g1956
sg56
(lp1972
g49
(g50
g51
NtRp1973
(dp1974
g54
(dp1975
g62
I5
ssg63
g1969
sg56
(lp1976
g49
(g58
g51
NtRp1977
(dp1978
g54
(dp1979
g62
I4
ssg63
Nsg56
(lp1980
sbasbasbasbag49
(g65
g51
NtRp1981
(dp1982
g54
(dp1983
sg63
g59
sg56
(lp1984
g49
(g70
g51
NtRp1985
(dp1986
g54
(dp1987
g74
g75
ssg63
g1981
sg56
(lp1988
S'wsgi'
p1989
asbag49
(g70
g51
NtRp1990
(dp1991
g54
(dp1992
g81
g82
ssg63
g1981
sg56
(lp1993
S':'
asbag49
(g70
g51
NtRp1994
(dp1995
g54
(dp1996
sg63
g1981
sg56
(lp1997
g49
(g50
g51
NtRp1998
(dp1999
g54
(dp2000
g62
I5
ssg63
g1994
sg56
(lp2001
g49
(g58
g51
NtRp2002
(dp2003
g54
(dp2004
g62
I4
ssg63
Nsg56
(lp2005
g49
(g65
g51
NtRp2006
(dp2007
g54
(dp2008
sg63
g2002
sg56
(lp2009
g49
(g70
g51
NtRp2010
(dp2011
g54
(dp2012
g74
g75
ssg63
g2006
sg56
(lp2013
S'environ'
p2014
asbag49
(g70
g51
NtRp2015
(dp2016
g54
(dp2017
g81
g82
ssg63
g2006
sg56
(lp2018
S':'
asbag49
(g70
g51
NtRp2019
(dp2020
g54
(dp2021
sg63
g2006
sg56
(lp2022
g49
(g50
g51
NtRp2023
(dp2024
g54
(dp2025
g62
I4
ssg63
g2019
sg56
(lp2026
g49
(g58
g51
NtRp2027
(dp2028
g54
(dp2029
g62
I3
ssg63
Nsg56
(lp2030
g49
(g65
g51
NtRp2031
(dp2032
g54
(dp2033
sg63
g2027
sg56
(lp2034
g49
(g70
g51
NtRp2035
(dp2036
g54
(dp2037
g74
g75
ssg63
g2031
sg56
(lp2038
S'HTTP_ACCEPT'
p2039
asbag49
(g70
g51
NtRp2040
(dp2041
g54
(dp2042
g81
g82
ssg63
g2031
sg56
(lp2043
S':'
asbag49
(g70
g51
NtRp2044
(dp2045
g54
(dp2046
sg63
g2031
sg56
(lp2047
g49
(g50
g51
NtRp2048
(dp2049
g54
(dp2050
g62
I3
ssg63
g2044
sg56
(lp2051
g604
asbasbasbag49
(g65
g51
NtRp2052
(dp2053
g54
(dp2054
sg63
g2027
sg56
(lp2055
g49
(g70
g51
NtRp2056
(dp2057
g54
(dp2058
g74
g75
ssg63
g2052
sg56
(lp2059
S'HTTP_ACCEPT_CHARSET'
p2060
asbag49
(g70
g51
NtRp2061
(dp2062
g54
(dp2063
g81
g82
ssg63
g2052
sg56
(lp2064
S':'
asbag49
(g70
g51
NtRp2065
(dp2066
g54
(dp2067
sg63
g2052
sg56
(lp2068
g49
(g50
g51
NtRp2069
(dp2070
g54
(dp2071
g62
I3
ssg63
g2065
sg56
(lp2072
g626
asbasbasbag49
(g65
g51
NtRp2073
(dp2074
g54
(dp2075
sg63
g2027
sg56
(lp2076
g49
(g70
g51
NtRp2077
(dp2078
g54
(dp2079
g74
g75
ssg63
g2073
sg56
(lp2080
S'HTTP_ACCEPT_ENCODING'
p2081
asbag49
(g70
g51
NtRp2082
(dp2083
g54
(dp2084
g81
g82
ssg63
g2073
sg56
(lp2085
S':'
asbag49
(g70
g51
NtRp2086
(dp2087
g54
(dp2088
sg63
g2073
sg56
(lp2089
g49
(g50
g51
NtRp2090
(dp2091
g54
(dp2092
g62
I3
ssg63
g2086
sg56
(lp2093
g648
asbasbasbag49
(g65
g51
NtRp2094
(dp2095
g54
(dp2096
sg63
g2027
sg56
(lp2097
g49
(g70
g51
NtRp2098
(dp2099
g54
(dp2100
g74
g75
ssg63
g2094
sg56
(lp2101
S'HTTP_ACCEPT_LANGUAGE'
p2102
asbag49
(g70
g51
NtRp2103
(dp2104
g54
(dp2105
g81
g82
ssg63
g2094
sg56
(lp2106
S':'
asbag49
(g70
g51
NtRp2107
(dp2108
g54
(dp2109
sg63
g2094
sg56
(lp2110
g49
(g50
g51
NtRp2111
(dp2112
g54
(dp2113
g62
I3
ssg63
g2107
sg56
(lp2114
g670
asbasbasbag49
(g65
g51
NtRp2115
(dp2116
g54
(dp2117
sg63
g2027
sg56
(lp2118
g49
(g70
g51
NtRp2119
(dp2120
g54
(dp2121
g74
g75
ssg63
g2115
sg56
(lp2122
S'HTTP_CONNECTION'
p2123
asbag49
(g70
g51
NtRp2124
(dp2125
g54
(dp2126
g81
g82
ssg63
g2115
sg56
(lp2127
S':'
asbag49
(g70
g51
NtRp2128
(dp2129
g54
(dp2130
sg63
g2115
sg56
(lp2131
g49
(g50
g51
NtRp2132
(dp2133
g54
(dp2134
g62
I3
ssg63
g2128
sg56
(lp2135
g692
asbasbasbag49
(g65
g51
NtRp2136
(dp2137
g54
(dp2138
sg63
g2027
sg56
(lp2139
g49
(g70
g51
NtRp2140
(dp2141
g54
(dp2142
g74
g75
ssg63
g2136
sg56
(lp2143
S'HTTP_COOKIE'
p2144
asbag49
(g70
g51
NtRp2145
(dp2146
g54
(dp2147
g81
g82
ssg63
g2136
sg56
(lp2148
S':'
asbag49
(g70
g51
NtRp2149
(dp2150
g54
(dp2151
sg63
g2136
sg56
(lp2152
g49
(g50
g51
NtRp2153
(dp2154
g54
(dp2155
g62
I3
ssg63
g2149
sg56
(lp2156
g714
asbasbasbag49
(g65
g51
NtRp2157
(dp2158
g54
(dp2159
sg63
g2027
sg56
(lp2160
g49
(g70
g51
NtRp2161
(dp2162
g54
(dp2163
g74
g75
ssg63
g2157
sg56
(lp2164
S'HTTP_DNT'
p2165
asbag49
(g70
g51
NtRp2166
(dp2167
g54
(dp2168
g81
g82
ssg63
g2157
sg56
(lp2169
S':'
asbag49
(g70
g51
NtRp2170
(dp2171
g54
(dp2172
sg63
g2157
sg56
(lp2173
g49
(g50
g51
NtRp2174
(dp2175
g54
(dp2176
g62
I3
ssg63
g2170
sg56
(lp2177
S'1'
asbasbasbag49
(g65
g51
NtRp2178
(dp2179
g54
(dp2180
sg63
g2027
sg56
(lp2181
g49
(g70
g51
NtRp2182
(dp2183
g54
(dp2184
g74
g75
ssg63
g2178
sg56
(lp2185
S'HTTP_HOST'
p2186
asbag49
(g70
g51
NtRp2187
(dp2188
g54
(dp2189
g81
g82
ssg63
g2178
sg56
(lp2190
S':'
asbag49
(g70
g51
NtRp2191
(dp2192
g54
(dp2193
sg63
g2178
sg56
(lp2194
g49
(g50
g51
NtRp2195
(dp2196
g54
(dp2197
g62
I3
ssg63
g2191
sg56
(lp2198
g757
asbasbasbag49
(g65
g51
NtRp2199
(dp2200
g54
(dp2201
sg63
g2027
sg56
(lp2202
g49
(g70
g51
NtRp2203
(dp2204
g54
(dp2205
g74
g75
ssg63
g2199
sg56
(lp2206
S'HTTP_USER_AGENT'
p2207
asbag49
(g70
g51
NtRp2208
(dp2209
g54
(dp2210
g81
g82
ssg63
g2199
sg56
(lp2211
S':'
asbag49
(g70
g51
NtRp2212
(dp2213
g54
(dp2214
sg63
g2199
sg56
(lp2215
g49
(g50
g51
NtRp2216
(dp2217
g54
(dp2218
g62
I3
ssg63
g2212
sg56
(lp2219
g779
asbasbasbag49
(g65
g51
NtRp2220
(dp2221
g54
(dp2222
sg63
g2027
sg56
(lp2223
g49
(g70
g51
NtRp2224
(dp2225
g54
(dp2226
g74
g75
ssg63
g2220
sg56
(lp2227
S'PATH_INFO'
p2228
asbag49
(g70
g51
NtRp2229
(dp2230
g54
(dp2231
g81
g82
ssg63
g2220
sg56
(lp2232
S':'
asbag49
(g70
g51
NtRp2233
(dp2234
g54
(dp2235
sg63
g2220
sg56
(lp2236
g49
(g50
g51
NtRp2237
(dp2238
g54
(dp2239
g62
I3
ssg63
g2233
sg56
(lp2240
g843
asbasbasbag49
(g65
g51
NtRp2241
(dp2242
g54
(dp2243
sg63
g2027
sg56
(lp2244
g49
(g70
g51
NtRp2245
(dp2246
g54
(dp2247
g74
g75
ssg63
g2241
sg56
(lp2248
S'QUERY_STRING'
p2249
asbag49
(g70
g51
NtRp2250
(dp2251
g54
(dp2252
g81
g82
ssg63
g2241
sg56
(lp2253
S':'
asbag49
(g70
g51
NtRp2254
(dp2255
g54
(dp2256
sg63
g2241
sg56
(lp2257
g49
(g50
g51
NtRp2258
(dp2259
g54
(dp2260
g62
I3
ssg63
g2254
sg56
(lp2261
S''
asbasbasbag49
(g65
g51
NtRp2262
(dp2263
g54
(dp2264
sg63
g2027
sg56
(lp2265
g49
(g70
g51
NtRp2266
(dp2267
g54
(dp2268
g74
g75
ssg63
g2262
sg56
(lp2269
S'REMOTE_ADDR'
p2270
asbag49
(g70
g51
NtRp2271
(dp2272
g54
(dp2273
g81
g82
ssg63
g2262
sg56
(lp2274
S':'
asbag49
(g70
g51
NtRp2275
(dp2276
g54
(dp2277
sg63
g2262
sg56
(lp2278
g49
(g50
g51
NtRp2279
(dp2280
g54
(dp2281
g62
I3
ssg63
g2275
sg56
(lp2282
g182
asbasbasbag49
(g65
g51
NtRp2283
(dp2284
g54
(dp2285
sg63
g2027
sg56
(lp2286
g49
(g70
g51
NtRp2287
(dp2288
g54
(dp2289
g74
g75
ssg63
g2283
sg56
(lp2290
S'REMOTE_PORT'
p2291
asbag49
(g70
g51
NtRp2292
(dp2293
g54
(dp2294
g81
g82
ssg63
g2283
sg56
(lp2295
S':'
asbag49
(g70
g51
NtRp2296
(dp2297
g54
(dp2298
sg63
g2283
sg56
(lp2299
g49
(g50
g51
NtRp2300
(dp2301
g54
(dp2302
g62
I3
ssg63
g2296
sg56
(lp2303
g907
asbasbasbag49
(g65
g51
NtRp2304
(dp2305
g54
(dp2306
sg63
g2027
sg56
(lp2307
g49
(g70
g51
NtRp2308
(dp2309
g54
(dp2310
g74
g75
ssg63
g2304
sg56
(lp2311
S'REQUEST_METHOD'
p2312
asbag49
(g70
g51
NtRp2313
(dp2314
g54
(dp2315
g81
g82
ssg63
g2304
sg56
(lp2316
S':'
asbag49
(g70
g51
NtRp2317
(dp2318
g54
(dp2319
sg63
g2304
sg56
(lp2320
g49
(g50
g51
NtRp2321
(dp2322
g54
(dp2323
g62
I3
ssg63
g2317
sg56
(lp2324
g929
asbasbasbag49
(g65
g51
NtRp2325
(dp2326
g54
(dp2327
sg63
g2027
sg56
(lp2328
g49
(g70
g51
NtRp2329
(dp2330
g54
(dp2331
g74
g75
ssg63
g2325
sg56
(lp2332
S'SCRIPT_NAME'
p2333
asbag49
(g70
g51
NtRp2334
(dp2335
g54
(dp2336
g81
g82
ssg63
g2325
sg56
(lp2337
S':'
asbag49
(g70
g51
NtRp2338
(dp2339
g54
(dp2340
sg63
g2325
sg56
(lp2341
g49
(g50
g51
NtRp2342
(dp2343
g54
(dp2344
g62
I3
ssg63
g2338
sg56
(lp2345
S''
asbasbasbag49
(g65
g51
NtRp2346
(dp2347
g54
(dp2348
sg63
g2027
sg56
(lp2349
g49
(g70
g51
NtRp2350
(dp2351
g54
(dp2352
g74
g75
ssg63
g2346
sg56
(lp2353
S'SERVER_NAME'
p2354
asbag49
(g70
g51
NtRp2355
(dp2356
g54
(dp2357
g81
g82
ssg63
g2346
sg56
(lp2358
S':'
asbag49
(g70
g51
NtRp2359
(dp2360
g54
(dp2361
sg63
g2346
sg56
(lp2362
g49
(g50
g51
NtRp2363
(dp2364
g54
(dp2365
g62
I3
ssg63
g2359
sg56
(lp2366
g972
asbasbasbag49
(g65
g51
NtRp2367
(dp2368
g54
(dp2369
sg63
g2027
sg56
(lp2370
g49
(g70
g51
NtRp2371
(dp2372
g54
(dp2373
g74
g75
ssg63
g2367
sg56
(lp2374
S'SERVER_PORT'
p2375
asbag49
(g70
g51
NtRp2376
(dp2377
g54
(dp2378
g81
g82
ssg63
g2367
sg56
(lp2379
S':'
asbag49
(g70
g51
NtRp2380
(dp2381
g54
(dp2382
sg63
g2367
sg56
(lp2383
g49
(g50
g51
NtRp2384
(dp2385
g54
(dp2386
g62
I3
ssg63
g2380
sg56
(lp2387
g994
asbasbasbag49
(g65
g51
NtRp2388
(dp2389
g54
(dp2390
sg63
g2027
sg56
(lp2391
g49
(g70
g51
NtRp2392
(dp2393
g54
(dp2394
g74
g75
ssg63
g2388
sg56
(lp2395
S'SERVER_PROTOCOL'
p2396
asbag49
(g70
g51
NtRp2397
(dp2398
g54
(dp2399
g81
g82
ssg63
g2388
sg56
(lp2400
S':'
asbag49
(g70
g51
NtRp2401
(dp2402
g54
(dp2403
sg63
g2388
sg56
(lp2404
g49
(g50
g51
NtRp2405
(dp2406
g54
(dp2407
g62
I3
ssg63
g2401
sg56
(lp2408
g1016
asbasbasbag49
(g65
g51
NtRp2409
(dp2410
g54
(dp2411
sg63
g2027
sg56
(lp2412
g49
(g70
g51
NtRp2413
(dp2414
g54
(dp2415
g74
g75
ssg63
g2409
sg56
(lp2416
S'SERVER_SOFTWARE'
p2417
asbag49
(g70
g51
NtRp2418
(dp2419
g54
(dp2420
g81
g82
ssg63
g2409
sg56
(lp2421
S':'
asbag49
(g70
g51
NtRp2422
(dp2423
g54
(dp2424
sg63
g2409
sg56
(lp2425
g49
(g50
g51
NtRp2426
(dp2427
g54
(dp2428
g62
I3
ssg63
g2422
sg56
(lp2429
g1038
asbasbasbag49
(g65
g51
NtRp2430
(dp2431
g54
(dp2432
sg63
g2027
sg56
(lp2433
g49
(g70
g51
NtRp2434
(dp2435
g54
(dp2436
g74
g75
ssg63
g2430
sg56
(lp2437
S'wsgi.errors'
p2438
asbag49
(g70
g51
NtRp2439
(dp2440
g54
(dp2441
g81
g82
ssg63
g2430
sg56
(lp2442
S':'
asbag49
(g70
g51
NtRp2443
(dp2444
g54
(dp2445
sg63
g2430
sg56
(lp2446
g49
(g50
g51
NtRp2447
(dp2448
g54
(dp2449
g62
I3
ssg63
g2443
sg56
(lp2450
S'<__main__.Stderr object at 0x01FA6670>'
p2451
asbasbasbag49
(g65
g51
NtRp2452
(dp2453
g54
(dp2454
sg63
g2027
sg56
(lp2455
g49
(g70
g51
NtRp2456
(dp2457
g54
(dp2458
g74
g75
ssg63
g2452
sg56
(lp2459
S'wsgi.file_wrapper'
p2460
asbag49
(g70
g51
NtRp2461
(dp2462
g54
(dp2463
g81
g82
ssg63
g2452
sg56
(lp2464
S':'
asbag49
(g70
g51
NtRp2465
(dp2466
g54
(dp2467
sg63
g2452
sg56
(lp2468
g49
(g50
g51
NtRp2469
(dp2470
g54
(dp2471
g62
I3
ssg63
g2465
sg56
(lp2472
S'<class wsgiref.util.FileWrapper at 0x02EDDE10>'
p2473
asbasbasbag49
(g65
g51
NtRp2474
(dp2475
g54
(dp2476
sg63
g2027
sg56
(lp2477
g49
(g70
g51
NtRp2478
(dp2479
g54
(dp2480
g74
g75
ssg63
g2474
sg56
(lp2481
S'wsgi.input'
p2482
asbag49
(g70
g51
NtRp2483
(dp2484
g54
(dp2485
g81
g82
ssg63
g2474
sg56
(lp2486
S':'
asbag49
(g70
g51
NtRp2487
(dp2488
g54
(dp2489
sg63
g2474
sg56
(lp2490
g49
(g50
g51
NtRp2491
(dp2492
g54
(dp2493
g62
I3
ssg63
g2487
sg56
(lp2494
S'<cStringIO.StringO object at 0x0329C260>'
p2495
asbasbasbag49
(g65
g51
NtRp2496
(dp2497
g54
(dp2498
sg63
g2027
sg56
(lp2499
g49
(g70
g51
NtRp2500
(dp2501
g54
(dp2502
g74
g75
ssg63
g2496
sg56
(lp2503
S'wsgi.multiprocess'
p2504
asbag49
(g70
g51
NtRp2505
(dp2506
g54
(dp2507
g81
g82
ssg63
g2496
sg56
(lp2508
S':'
asbag49
(g70
g51
NtRp2509
(dp2510
g54
(dp2511
sg63
g2496
sg56
(lp2512
g49
(g50
g51
NtRp2513
(dp2514
g54
(dp2515
g62
I3
ssg63
g2509
sg56
(lp2516
g92
asbasbasbag49
(g65
g51
NtRp2517
(dp2518
g54
(dp2519
sg63
g2027
sg56
(lp2520
g49
(g70
g51
NtRp2521
(dp2522
g54
(dp2523
g74
g75
ssg63
g2517
sg56
(lp2524
S'wsgi.multithread'
p2525
asbag49
(g70
g51
NtRp2526
(dp2527
g54
(dp2528
g81
g82
ssg63
g2517
sg56
(lp2529
S':'
asbag49
(g70
g51
NtRp2530
(dp2531
g54
(dp2532
sg63
g2517
sg56
(lp2533
g49
(g50
g51
NtRp2534
(dp2535
g54
(dp2536
g62
I3
ssg63
g2530
sg56
(lp2537
g1278
asbasbasbag49
(g65
g51
NtRp2538
(dp2539
g54
(dp2540
sg63
g2027
sg56
(lp2541
g49
(g70
g51
NtRp2542
(dp2543
g54
(dp2544
g74
g75
ssg63
g2538
sg56
(lp2545
S'wsgi.run_once'
p2546
asbag49
(g70
g51
NtRp2547
(dp2548
g54
(dp2549
g81
g82
ssg63
g2538
sg56
(lp2550
S':'
asbag49
(g70
g51
NtRp2551
(dp2552
g54
(dp2553
sg63
g2538
sg56
(lp2554
g49
(g50
g51
NtRp2555
(dp2556
g54
(dp2557
g62
I3
ssg63
g2551
sg56
(lp2558
g92
asbasbasbag49
(g65
g51
NtRp2559
(dp2560
g54
(dp2561
sg63
g2027
sg56
(lp2562
g49
(g70
g51
NtRp2563
(dp2564
g54
(dp2565
g74
g75
ssg63
g2559
sg56
(lp2566
S'wsgi.url_scheme'
p2567
asbag49
(g70
g51
NtRp2568
(dp2569
g54
(dp2570
g81
g82
ssg63
g2559
sg56
(lp2571
S':'
asbag49
(g70
g51
NtRp2572
(dp2573
g54
(dp2574
sg63
g2559
sg56
(lp2575
g49
(g50
g51
NtRp2576
(dp2577
g54
(dp2578
g62
I3
ssg63
g2572
sg56
(lp2579
g1321
asbasbasbag49
(g65
g51
NtRp2580
(dp2581
g54
(dp2582
sg63
g2027
sg56
(lp2583
g49
(g70
g51
NtRp2584
(dp2585
g54
(dp2586
g74
g75
ssg63
g2580
sg56
(lp2587
S'wsgi.version'
p2588
asbag49
(g70
g51
NtRp2589
(dp2590
g54
(dp2591
g81
g82
ssg63
g2580
sg56
(lp2592
S':'
asbag49
(g70
g51
NtRp2593
(dp2594
g54
(dp2595
sg63
g2580
sg56
(lp2596
g49
(g50
g51
NtRp2597
(dp2598
g54
(dp2599
g62
I3
ssg63
g2593
sg56
(lp2600
S'1'
asbasbasbasbasbasbasbasbasbasbasbasbasbsS'frames'
p2601
(lp2602
(dp2603
S'file'
p2604
S'C:\\web2py\\gluon\\restricted.py'
p2605
sS'dump'
p2606
(dp2607
sS'lnum'
p2608
I205
sS'lines'
p2609
(dp2610
sS'call'
p2611
S'(code=r"response.write(\'<!DOCTYPE html>\\n<!-- paulirish....ponse.write(\'\\n</body>\\n</html>\\n\', escape=False)", environment={\'A\': <class \'gluon.html.A\'>, \'Auth\': <class \'gluon.tools.Auth\'>, \'B\': <class \'gluon.html.B\'>, \'BEAUTIFY\': <class \'gluon.html.BEAUTIFY\'>, \'BODY\': <class \'gluon.html.BODY\'>, \'BR\': <class \'gluon.html.BR\'>, \'BUTTON\': <class \'gluon.html.BUTTON\'>, \'CAT\': <class \'gluon.html.CAT\'>, \'CENTER\': <class \'gluon.html.CENTER\'>, \'CLEANUP\': <class \'gluon.validators.CLEANUP\'>, ...}, layer=r\'C:\\web2py\\applications\\unioeste_code\\views\\default/index.html\')'
p2612
sS'func'
p2613
S'restricted'
p2614
sa(dp2615
g2604
S'C:\\web2py\\applications\\unioeste_code\\views\\default\\index.html'
p2616
sg2606
(dp2617
sg2608
I90
sg2609
(dp2618
I96
S'if right_sidebar_enabled:'
p2619
sI97
S'    response.write(\'\\n        <div class="four columns">\\n          \', escape=False)'
p2620
sI98
S"    response.write('\\n          <h3>Right Sidebar</h3>\\n          <p></p>\\n          ', escape=False)"
p2621
sI99
S"    response.write('\\n        </div>    \\n        ', escape=False)"
p2622
sI100
S'    pass'
p2623
sI81
S"response.write('\\n<ul>\\n', escape=False)"
p2624
sI82
S'for problem in problems:'
p2625
sI83
S"    response.write('\\n', escape=False)"
p2626
sI84
S'    user = db(db.auth_user.id==problem.created_by).select().first()'
p2627
sI85
S"    response.write('\\n', escape=False)"
p2628
sI86
S'    response.write(LI(A(problem.title, _style="font-weight:bold;",_href=URL("Problem", args=problem.id)), " by " + user.first_name + " " + user.last_name + " ", SPAN(prettydate(problem.created_on), _style="color:green;font-weight:bold;")))'
p2629
sI87
S"    response.write('\\n', escape=False)"
p2630
sI88
S'    pass'
p2631
sI89
S"response.write('\\n\\n\\n', escape=False)"
p2632
sI90
S'from pyGravatar import Gravatar'
p2633
sI91
S"response.write('\\n', escape=False)"
p2634
sI92
S'IMG(_src=Gravatar(auth.user.email).thumb())'
p2635
sI93
S"response.write('\\n\\n\\n</ul>\\n\\n', escape=False)"
p2636
sI94
S"response.write('\\n          ', escape=False)"
p2637
sI95
S"response.write('\\n        </div>\\n        \\n        ', escape=False)"
p2638
ssg2611
S'()'
p2639
sg2613
S'<module>'
p2640
sa(dp2641
g2604
S'C:\\web2py\\gluon\\custom_import.py'
p2642
sg2606
(dp2643
sg2608
I293
sg2609
(dp2644
sg2611
S"(self=<gluon.custom_import._Web2pyImporter object at 0x02F713B0>, name='pyGravatar', globals={'A': <class 'gluon.html.A'>, 'Auth': <class 'gluon.tools.Auth'>, 'B': <class 'gluon.html.B'>, 'BEAUTIFY': <class 'gluon.html.BEAUTIFY'>, 'BODY': <class 'gluon.html.BODY'>, 'BR': <class 'gluon.html.BR'>, 'BUTTON': <class 'gluon.html.BUTTON'>, 'CAT': <class 'gluon.html.CAT'>, 'CENTER': <class 'gluon.html.CENTER'>, 'CLEANUP': <class 'gluon.validators.CLEANUP'>, ...}, locals={'A': <class 'gluon.html.A'>, 'Auth': <class 'gluon.tools.Auth'>, 'B': <class 'gluon.html.B'>, 'BEAUTIFY': <class 'gluon.html.BEAUTIFY'>, 'BODY': <class 'gluon.html.BODY'>, 'BR': <class 'gluon.html.BR'>, 'BUTTON': <class 'gluon.html.BUTTON'>, 'CAT': <class 'gluon.html.CAT'>, 'CENTER': <class 'gluon.html.CENTER'>, 'CLEANUP': <class 'gluon.validators.CLEANUP'>, ...}, fromlist=('Gravatar',), level=-1)"
p2645
sg2613
S'__call__'
p2646
sa(dp2647
g2604
S'C:\\web2py\\gluon\\custom_import.py'
p2648
sg2606
(dp2649
sg2608
I78
sg2609
(dp2650
sg2611
S"(self=<gluon.custom_import._Web2pyImporter object at 0x02F713B0>, name='pyGravatar', globals={'A': <class 'gluon.html.A'>, 'Auth': <class 'gluon.tools.Auth'>, 'B': <class 'gluon.html.B'>, 'BEAUTIFY': <class 'gluon.html.BEAUTIFY'>, 'BODY': <class 'gluon.html.BODY'>, 'BR': <class 'gluon.html.BR'>, 'BUTTON': <class 'gluon.html.BUTTON'>, 'CAT': <class 'gluon.html.CAT'>, 'CENTER': <class 'gluon.html.CENTER'>, 'CLEANUP': <class 'gluon.validators.CLEANUP'>, ...}, locals={'A': <class 'gluon.html.A'>, 'Auth': <class 'gluon.tools.Auth'>, 'B': <class 'gluon.html.B'>, 'BEAUTIFY': <class 'gluon.html.BEAUTIFY'>, 'BODY': <class 'gluon.html.BODY'>, 'BR': <class 'gluon.html.BR'>, 'BUTTON': <class 'gluon.html.BUTTON'>, 'CAT': <class 'gluon.html.CAT'>, 'CENTER': <class 'gluon.html.CENTER'>, 'CLEANUP': <class 'gluon.validators.CLEANUP'>, ...}, fromlist=('Gravatar',), level=-1)"
p2651
sg2613
g2646
sasS'pyver'
p2652
S'Python 2.5.4: C:\\web2py\\web2py_no_console.exe'
p2653
sS'session'
p2654
g49
(g50
g51
NtRp2655
(dp2656
g54
(dp2657
sg56
(lp2658
g49
(g58
g51
NtRp2659
(dp2660
g54
(dp2661
g62
I5
ssg63
Nsg56
(lp2662
sbasbsS'etype'
p2663
S"<type 'exceptions.ImportError'>"
p2664
sS'date'
p2665
S'Tue Jul 31 14:58:11 2012'
p2666
sS'response'
p2667
g49
(g50
g51
NtRp2668
(dp2669
g54
(dp2670
sg56
(lp2671
g49
(g58
g51
NtRp2672
(dp2673
g54
(dp2674
g62
I5
ssg63
Nsg56
(lp2675
g49
(g65
g51
NtRp2676
(dp2677
g54
(dp2678
sg63
g2672
sg56
(lp2679
g49
(g70
g51
NtRp2680
(dp2681
g54
(dp2682
g74
g75
ssg63
g2676
sg56
(lp2683
g147
asbag49
(g70
g51
NtRp2684
(dp2685
g54
(dp2686
g81
g82
ssg63
g2676
sg56
(lp2687
S':'
asbag49
(g70
g51
NtRp2688
(dp2689
g54
(dp2690
sg63
g2676
sg56
(lp2691
g49
(g50
g51
NtRp2692
(dp2693
g54
(dp2694
g62
I5
ssg63
g2688
sg56
(lp2695
S'<cStringIO.StringO object at 0x0329C700>'
p2696
asbasbasbag49
(g65
g51
NtRp2697
(dp2698
g54
(dp2699
sg63
g2672
sg56
(lp2700
g49
(g70
g51
NtRp2701
(dp2702
g54
(dp2703
g74
g75
ssg63
g2697
sg56
(lp2704
g213
asbag49
(g70
g51
NtRp2705
(dp2706
g54
(dp2707
g81
g82
ssg63
g2697
sg56
(lp2708
S':'
asbag49
(g70
g51
NtRp2709
(dp2710
g54
(dp2711
sg63
g2697
sg56
(lp2712
g49
(g50
g51
NtRp2713
(dp2714
g54
(dp2715
g62
I5
ssg63
g2709
sg56
(lp2716
g49
(g58
g51
NtRp2717
(dp2718
g54
(dp2719
g62
I4
ssg63
Nsg56
(lp2720
g49
(g65
g51
NtRp2721
(dp2722
g54
(dp2723
sg63
g2717
sg56
(lp2724
g49
(g70
g51
NtRp2725
(dp2726
g54
(dp2727
g74
g75
ssg63
g2721
sg56
(lp2728
S'session_id_unioeste_code'
p2729
asbag49
(g70
g51
NtRp2730
(dp2731
g54
(dp2732
g81
g82
ssg63
g2721
sg56
(lp2733
S':'
asbag49
(g70
g51
NtRp2734
(dp2735
g54
(dp2736
sg63
g2721
sg56
(lp2737
g49
(g50
g51
NtRp2738
(dp2739
g54
(dp2740
g62
I4
ssg63
g2734
sg56
(lp2741
g49
(g58
g51
NtRp2742
(dp2743
g54
(dp2744
g62
I3
ssg63
Nsg56
(lp2745
g49
(g65
g51
NtRp2746
(dp2747
g54
(dp2748
sg63
g2742
sg56
(lp2749
g49
(g70
g51
NtRp2750
(dp2751
g54
(dp2752
g74
g75
ssg63
g2746
sg56
(lp2753
g263
asbag49
(g70
g51
NtRp2754
(dp2755
g54
(dp2756
g81
g82
ssg63
g2746
sg56
(lp2757
S':'
asbag49
(g70
g51
NtRp2758
(dp2759
g54
(dp2760
sg63
g2746
sg56
(lp2761
g49
(g50
g51
NtRp2762
(dp2763
g54
(dp2764
g62
I3
ssg63
g2758
sg56
(lp2765
S''
asbasbasbag49
(g65
g51
NtRp2766
(dp2767
g54
(dp2768
sg63
g2742
sg56
(lp2769
g49
(g70
g51
NtRp2770
(dp2771
g54
(dp2772
g74
g75
ssg63
g2766
sg56
(lp2773
g284
asbag49
(g70
g51
NtRp2774
(dp2775
g54
(dp2776
g81
g82
ssg63
g2766
sg56
(lp2777
S':'
asbag49
(g70
g51
NtRp2778
(dp2779
g54
(dp2780
sg63
g2766
sg56
(lp2781
g49
(g50
g51
NtRp2782
(dp2783
g54
(dp2784
g62
I3
ssg63
g2778
sg56
(lp2785
S''
asbasbasbag49
(g65
g51
NtRp2786
(dp2787
g54
(dp2788
sg63
g2742
sg56
(lp2789
g49
(g70
g51
NtRp2790
(dp2791
g54
(dp2792
g74
g75
ssg63
g2786
sg56
(lp2793
g305
asbag49
(g70
g51
NtRp2794
(dp2795
g54
(dp2796
g81
g82
ssg63
g2786
sg56
(lp2797
S':'
asbag49
(g70
g51
NtRp2798
(dp2799
g54
(dp2800
sg63
g2786
sg56
(lp2801
g49
(g50
g51
NtRp2802
(dp2803
g54
(dp2804
g62
I3
ssg63
g2798
sg56
(lp2805
S''
asbasbasbag49
(g65
g51
NtRp2806
(dp2807
g54
(dp2808
sg63
g2742
sg56
(lp2809
g49
(g70
g51
NtRp2810
(dp2811
g54
(dp2812
g74
g75
ssg63
g2806
sg56
(lp2813
g326
asbag49
(g70
g51
NtRp2814
(dp2815
g54
(dp2816
g81
g82
ssg63
g2806
sg56
(lp2817
S':'
asbag49
(g70
g51
NtRp2818
(dp2819
g54
(dp2820
sg63
g2806
sg56
(lp2821
g49
(g50
g51
NtRp2822
(dp2823
g54
(dp2824
g62
I3
ssg63
g2818
sg56
(lp2825
S''
asbasbasbag49
(g65
g51
NtRp2826
(dp2827
g54
(dp2828
sg63
g2742
sg56
(lp2829
g49
(g70
g51
NtRp2830
(dp2831
g54
(dp2832
g74
g75
ssg63
g2826
sg56
(lp2833
g347
asbag49
(g70
g51
NtRp2834
(dp2835
g54
(dp2836
g81
g82
ssg63
g2826
sg56
(lp2837
S':'
asbag49
(g70
g51
NtRp2838
(dp2839
g54
(dp2840
sg63
g2826
sg56
(lp2841
g49
(g50
g51
NtRp2842
(dp2843
g54
(dp2844
g62
I3
ssg63
g2838
sg56
(lp2845
S'/'
asbasbasbag49
(g65
g51
NtRp2846
(dp2847
g54
(dp2848
sg63
g2742
sg56
(lp2849
g49
(g70
g51
NtRp2850
(dp2851
g54
(dp2852
g74
g75
ssg63
g2846
sg56
(lp2853
g368
asbag49
(g70
g51
NtRp2854
(dp2855
g54
(dp2856
g81
g82
ssg63
g2846
sg56
(lp2857
S':'
asbag49
(g70
g51
NtRp2858
(dp2859
g54
(dp2860
sg63
g2846
sg56
(lp2861
g49
(g50
g51
NtRp2862
(dp2863
g54
(dp2864
g62
I3
ssg63
g2858
sg56
(lp2865
S''
asbasbasbag49
(g65
g51
NtRp2866
(dp2867
g54
(dp2868
sg63
g2742
sg56
(lp2869
g49
(g70
g51
NtRp2870
(dp2871
g54
(dp2872
g74
g75
ssg63
g2866
sg56
(lp2873
g389
asbag49
(g70
g51
NtRp2874
(dp2875
g54
(dp2876
g81
g82
ssg63
g2866
sg56
(lp2877
S':'
asbag49
(g70
g51
NtRp2878
(dp2879
g54
(dp2880
sg63
g2866
sg56
(lp2881
g49
(g50
g51
NtRp2882
(dp2883
g54
(dp2884
g62
I3
ssg63
g2878
sg56
(lp2885
S''
asbasbasbasbasbasbasbasbasbasbasbag49
(g65
g51
NtRp2886
(dp2887
g54
(dp2888
sg63
g2672
sg56
(lp2889
g49
(g70
g51
NtRp2890
(dp2891
g54
(dp2892
g74
g75
ssg63
g2886
sg56
(lp2893
S'delimiters'
p2894
asbag49
(g70
g51
NtRp2895
(dp2896
g54
(dp2897
g81
g82
ssg63
g2886
sg56
(lp2898
S':'
asbag49
(g70
g51
NtRp2899
(dp2900
g54
(dp2901
sg63
g2886
sg56
(lp2902
g49
(g50
g51
NtRp2903
(dp2904
g54
(dp2905
g62
I5
ssg63
g2899
sg56
(lp2906
g49
(g58
g51
NtRp2907
(dp2908
g54
(dp2909
g62
I4
ssg63
Nsg56
(lp2910
g49
(g65
g51
NtRp2911
(dp2912
g54
(dp2913
sg63
g2907
sg56
(lp2914
g49
(g70
g51
NtRp2915
(dp2916
g54
(dp2917
sg63
g2911
sg56
(lp2918
g49
(g50
g51
NtRp2919
(dp2920
g54
(dp2921
g62
I4
ssg63
g2915
sg56
(lp2922
S'{{'
p2923
asbasbasbag49
(g65
g51
NtRp2924
(dp2925
g54
(dp2926
sg63
g2907
sg56
(lp2927
g49
(g70
g51
NtRp2928
(dp2929
g54
(dp2930
sg63
g2924
sg56
(lp2931
g49
(g50
g51
NtRp2932
(dp2933
g54
(dp2934
g62
I4
ssg63
g2928
sg56
(lp2935
S'}}'
p2936
asbasbasbasbasbasbasbag49
(g65
g51
NtRp2937
(dp2938
g54
(dp2939
sg63
g2672
sg56
(lp2940
g49
(g70
g51
NtRp2941
(dp2942
g54
(dp2943
g74
g75
ssg63
g2937
sg56
(lp2944
S'files'
p2945
asbag49
(g70
g51
NtRp2946
(dp2947
g54
(dp2948
g81
g82
ssg63
g2937
sg56
(lp2949
S':'
asbag49
(g70
g51
NtRp2950
(dp2951
g54
(dp2952
sg63
g2937
sg56
(lp2953
g49
(g50
g51
NtRp2954
(dp2955
g54
(dp2956
g62
I5
ssg63
g2950
sg56
(lp2957
g49
(g58
g51
NtRp2958
(dp2959
g54
(dp2960
g62
I4
ssg63
Nsg56
(lp2961
g49
(g65
g51
NtRp2962
(dp2963
g54
(dp2964
sg63
g2958
sg56
(lp2965
g49
(g70
g51
NtRp2966
(dp2967
g54
(dp2968
sg63
g2962
sg56
(lp2969
g49
(g50
g51
NtRp2970
(dp2971
g54
(dp2972
g62
I4
ssg63
g2966
sg56
(lp2973
S'/unioeste_code/static/js/jquery.js'
p2974
asbasbasbag49
(g65
g51
NtRp2975
(dp2976
g54
(dp2977
sg63
g2958
sg56
(lp2978
g49
(g70
g51
NtRp2979
(dp2980
g54
(dp2981
sg63
g2975
sg56
(lp2982
g49
(g50
g51
NtRp2983
(dp2984
g54
(dp2985
g62
I4
ssg63
g2979
sg56
(lp2986
S'/unioeste_code/static/css/calendar.css'
p2987
asbasbasbag49
(g65
g51
NtRp2988
(dp2989
g54
(dp2990
sg63
g2958
sg56
(lp2991
g49
(g70
g51
NtRp2992
(dp2993
g54
(dp2994
sg63
g2988
sg56
(lp2995
g49
(g50
g51
NtRp2996
(dp2997
g54
(dp2998
g62
I4
ssg63
g2992
sg56
(lp2999
S'/unioeste_code/static/js/calendar.js'
p3000
asbasbasbag49
(g65
g51
NtRp3001
(dp3002
g54
(dp3003
sg63
g2958
sg56
(lp3004
g49
(g70
g51
NtRp3005
(dp3006
g54
(dp3007
sg63
g3001
sg56
(lp3008
g49
(g50
g51
NtRp3009
(dp3010
g54
(dp3011
g62
I4
ssg63
g3005
sg56
(lp3012
S'/unioeste_code/static/js/web2py.js'
p3013
asbasbasbag49
(g65
g51
NtRp3014
(dp3015
g54
(dp3016
sg63
g2958
sg56
(lp3017
g49
(g70
g51
NtRp3018
(dp3019
g54
(dp3020
sg63
g3014
sg56
(lp3021
g49
(g50
g51
NtRp3022
(dp3023
g54
(dp3024
g62
I4
ssg63
g3018
sg56
(lp3025
S'/unioeste_code/static/css/skeleton.css'
p3026
asbasbasbag49
(g65
g51
NtRp3027
(dp3028
g54
(dp3029
sg63
g2958
sg56
(lp3030
g49
(g70
g51
NtRp3031
(dp3032
g54
(dp3033
sg63
g3027
sg56
(lp3034
g49
(g50
g51
NtRp3035
(dp3036
g54
(dp3037
g62
I4
ssg63
g3031
sg56
(lp3038
S'/unioeste_code/static/css/web2py.css'
p3039
asbasbasbag49
(g65
g51
NtRp3040
(dp3041
g54
(dp3042
sg63
g2958
sg56
(lp3043
g49
(g70
g51
NtRp3044
(dp3045
g54
(dp3046
sg63
g3040
sg56
(lp3047
g49
(g50
g51
NtRp3048
(dp3049
g54
(dp3050
g62
I4
ssg63
g3044
sg56
(lp3051
S'/unioeste_code/static/css/superfish.css'
p3052
asbasbasbag49
(g65
g51
NtRp3053
(dp3054
g54
(dp3055
sg63
g2958
sg56
(lp3056
g49
(g70
g51
NtRp3057
(dp3058
g54
(dp3059
sg63
g3053
sg56
(lp3060
g49
(g50
g51
NtRp3061
(dp3062
g54
(dp3063
g62
I4
ssg63
g3057
sg56
(lp3064
S'/unioeste_code/static/js/superfish.js'
p3065
asbasbasbasbasbasbasbag49
(g65
g51
NtRp3066
(dp3067
g54
(dp3068
sg63
g2672
sg56
(lp3069
g49
(g70
g51
NtRp3070
(dp3071
g54
(dp3072
g74
g75
ssg63
g3066
sg56
(lp3073
S'flash'
p3074
asbag49
(g70
g51
NtRp3075
(dp3076
g54
(dp3077
g81
g82
ssg63
g3066
sg56
(lp3078
S':'
asbag49
(g70
g51
NtRp3079
(dp3080
g54
(dp3081
sg63
g3066
sg56
(lp3082
g49
(g50
g51
NtRp3083
(dp3084
g54
(dp3085
g62
I5
ssg63
g3079
sg56
(lp3086
S''
asbasbasbag49
(g65
g51
NtRp3087
(dp3088
g54
(dp3089
sg63
g2672
sg56
(lp3090
g49
(g70
g51
NtRp3091
(dp3092
g54
(dp3093
g74
g75
ssg63
g3087
sg56
(lp3094
S'generic_patterns'
p3095
asbag49
(g70
g51
NtRp3096
(dp3097
g54
(dp3098
g81
g82
ssg63
g3087
sg56
(lp3099
S':'
asbag49
(g70
g51
NtRp3100
(dp3101
g54
(dp3102
sg63
g3087
sg56
(lp3103
g49
(g50
g51
NtRp3104
(dp3105
g54
(dp3106
g62
I5
ssg63
g3100
sg56
(lp3107
g49
(g58
g51
NtRp3108
(dp3109
g54
(dp3110
g62
I4
ssg63
Nsg56
(lp3111
sbasbasbasbag49
(g65
g51
NtRp3112
(dp3113
g54
(dp3114
sg63
g2672
sg56
(lp3115
g49
(g70
g51
NtRp3116
(dp3117
g54
(dp3118
g74
g75
ssg63
g3112
sg56
(lp3119
S'headers'
p3120
asbag49
(g70
g51
NtRp3121
(dp3122
g54
(dp3123
g81
g82
ssg63
g3112
sg56
(lp3124
S':'
asbag49
(g70
g51
NtRp3125
(dp3126
g54
(dp3127
sg63
g3112
sg56
(lp3128
g49
(g50
g51
NtRp3129
(dp3130
g54
(dp3131
g62
I5
ssg63
g3125
sg56
(lp3132
g49
(g58
g51
NtRp3133
(dp3134
g54
(dp3135
g62
I4
ssg63
Nsg56
(lp3136
g49
(g65
g51
NtRp3137
(dp3138
g54
(dp3139
sg63
g3133
sg56
(lp3140
g49
(g70
g51
NtRp3141
(dp3142
g54
(dp3143
g74
g75
ssg63
g3137
sg56
(lp3144
S'Cache-Control'
p3145
asbag49
(g70
g51
NtRp3146
(dp3147
g54
(dp3148
g81
g82
ssg63
g3137
sg56
(lp3149
S':'
asbag49
(g70
g51
NtRp3150
(dp3151
g54
(dp3152
sg63
g3137
sg56
(lp3153
g49
(g50
g51
NtRp3154
(dp3155
g54
(dp3156
g62
I4
ssg63
g3150
sg56
(lp3157
S'no-store, no-cache, must-revalidate, post-check=0, pre-check=0'
p3158
asbasbasbag49
(g65
g51
NtRp3159
(dp3160
g54
(dp3161
sg63
g3133
sg56
(lp3162
g49
(g70
g51
NtRp3163
(dp3164
g54
(dp3165
g74
g75
ssg63
g3159
sg56
(lp3166
S'Content-Type'
p3167
asbag49
(g70
g51
NtRp3168
(dp3169
g54
(dp3170
g81
g82
ssg63
g3159
sg56
(lp3171
S':'
asbag49
(g70
g51
NtRp3172
(dp3173
g54
(dp3174
sg63
g3159
sg56
(lp3175
g49
(g50
g51
NtRp3176
(dp3177
g54
(dp3178
g62
I4
ssg63
g3172
sg56
(lp3179
S'text/html; charset=utf-8'
p3180
asbasbasbag49
(g65
g51
NtRp3181
(dp3182
g54
(dp3183
sg63
g3133
sg56
(lp3184
g49
(g70
g51
NtRp3185
(dp3186
g54
(dp3187
g74
g75
ssg63
g3181
sg56
(lp3188
S'Expires'
p3189
asbag49
(g70
g51
NtRp3190
(dp3191
g54
(dp3192
g81
g82
ssg63
g3181
sg56
(lp3193
S':'
asbag49
(g70
g51
NtRp3194
(dp3195
g54
(dp3196
sg63
g3181
sg56
(lp3197
g49
(g50
g51
NtRp3198
(dp3199
g54
(dp3200
g62
I4
ssg63
g3194
sg56
(lp3201
S'Tue, 31 Jul 2012 17:58:11 GMT'
p3202
asbasbasbag49
(g65
g51
NtRp3203
(dp3204
g54
(dp3205
sg63
g3133
sg56
(lp3206
g49
(g70
g51
NtRp3207
(dp3208
g54
(dp3209
g74
g75
ssg63
g3203
sg56
(lp3210
S'Pragma'
p3211
asbag49
(g70
g51
NtRp3212
(dp3213
g54
(dp3214
g81
g82
ssg63
g3203
sg56
(lp3215
S':'
asbag49
(g70
g51
NtRp3216
(dp3217
g54
(dp3218
sg63
g3203
sg56
(lp3219
g49
(g50
g51
NtRp3220
(dp3221
g54
(dp3222
g62
I4
ssg63
g3216
sg56
(lp3223
S'no-cache'
p3224
asbasbasbag49
(g65
g51
NtRp3225
(dp3226
g54
(dp3227
sg63
g3133
sg56
(lp3228
g49
(g70
g51
NtRp3229
(dp3230
g54
(dp3231
g74
g75
ssg63
g3225
sg56
(lp3232
S'X-Powered-By'
p3233
asbag49
(g70
g51
NtRp3234
(dp3235
g54
(dp3236
g81
g82
ssg63
g3225
sg56
(lp3237
S':'
asbag49
(g70
g51
NtRp3238
(dp3239
g54
(dp3240
sg63
g3225
sg56
(lp3241
g49
(g50
g51
NtRp3242
(dp3243
g54
(dp3244
g62
I4
ssg63
g3238
sg56
(lp3245
S'web2py'
p3246
asbasbasbasbasbasbasbag49
(g65
g51
NtRp3247
(dp3248
g54
(dp3249
sg63
g2672
sg56
(lp3250
g49
(g70
g51
NtRp3251
(dp3252
g54
(dp3253
g74
g75
ssg63
g3247
sg56
(lp3254
S'menu'
p3255
asbag49
(g70
g51
NtRp3256
(dp3257
g54
(dp3258
g81
g82
ssg63
g3247
sg56
(lp3259
S':'
asbag49
(g70
g51
NtRp3260
(dp3261
g54
(dp3262
sg63
g3247
sg56
(lp3263
g49
(g50
g51
NtRp3264
(dp3265
g54
(dp3266
g62
I5
ssg63
g3260
sg56
(lp3267
g49
(g58
g51
NtRp3268
(dp3269
g54
(dp3270
g62
I4
ssg63
Nsg56
(lp3271
g49
(g65
g51
NtRp3272
(dp3273
g54
(dp3274
sg63
g3268
sg56
(lp3275
g49
(g70
g51
NtRp3276
(dp3277
g54
(dp3278
sg63
g3272
sg56
(lp3279
g49
(g50
g51
NtRp3280
(dp3281
g54
(dp3282
g62
I4
ssg63
g3276
sg56
(lp3283
g49
(g58
g51
NtRp3284
(dp3285
g54
(dp3286
g62
I3
ssg63
Nsg56
(lp3287
g49
(g65
g51
NtRp3288
(dp3289
g54
(dp3290
sg63
g3284
sg56
(lp3291
g49
(g70
g51
NtRp3292
(dp3293
g54
(dp3294
sg63
g3288
sg56
(lp3295
g49
(g50
g51
NtRp3296
(dp3297
g54
(dp3298
g62
I3
ssg63
g3292
sg56
(lp3299
cgluon.languages
lazyT_unpickle
p3300
(S't\x04\x00\x00\x00Home'
tRp3301
asbasbasbag49
(g65
g51
NtRp3302
(dp3303
g54
(dp3304
sg63
g3284
sg56
(lp3305
g49
(g70
g51
NtRp3306
(dp3307
g54
(dp3308
sg63
g3302
sg56
(lp3309
g49
(g50
g51
NtRp3310
(dp3311
g54
(dp3312
g62
I3
ssg63
g3306
sg56
(lp3313
g92
asbasbasbag49
(g65
g51
NtRp3314
(dp3315
g54
(dp3316
sg63
g3284
sg56
(lp3317
g49
(g70
g51
NtRp3318
(dp3319
g54
(dp3320
sg63
g3314
sg56
(lp3321
g49
(g50
g51
NtRp3322
(dp3323
g54
(dp3324
g62
I3
ssg63
g3318
sg56
(lp3325
S'/unioeste_code/default/index'
p3326
asbasbasbag49
(g65
g51
NtRp3327
(dp3328
g54
(dp3329
sg63
g3284
sg56
(lp3330
g49
(g70
g51
NtRp3331
(dp3332
g54
(dp3333
sg63
g3327
sg56
(lp3334
g49
(g50
g51
NtRp3335
(dp3336
g54
(dp3337
g62
I3
ssg63
g3331
sg56
(lp3338
g49
(g58
g51
NtRp3339
(dp3340
g54
(dp3341
g62
I2
ssg63
Nsg56
(lp3342
sbasbasbasbasbasbasbasbag49
(g65
g51
NtRp3343
(dp3344
g54
(dp3345
sg63
g3268
sg56
(lp3346
g49
(g70
g51
NtRp3347
(dp3348
g54
(dp3349
sg63
g3343
sg56
(lp3350
g49
(g50
g51
NtRp3351
(dp3352
g54
(dp3353
g62
I4
ssg63
g3347
sg56
(lp3354
g49
(g58
g51
NtRp3355
(dp3356
g54
(dp3357
g62
I3
ssg63
Nsg56
(lp3358
g49
(g65
g51
NtRp3359
(dp3360
g54
(dp3361
sg63
g3355
sg56
(lp3362
g49
(g70
g51
NtRp3363
(dp3364
g54
(dp3365
sg63
g3359
sg56
(lp3366
g49
(g50
g51
NtRp3367
(dp3368
g54
(dp3369
g62
I3
ssg63
g3363
sg56
(lp3370
g49
(cgluon.html
SPAN
p3371
g51
NtRp3372
(dp3373
g54
(dp3374
g74
S'color:yellow'
p3375
ssg63
g49
(cgluon.html
A
p3376
g51
NtRp3377
(dp3378
g54
(dp3379
S'_onclick'
p3380
S'javascript:void(0);return false;'
p3381
sS'_href'
p3382
S'#'
ssg63
g49
(cgluon.html
LI
p3383
g51
NtRp3384
(dp3385
g54
(dp3386
S'_class'
p3387
S'web2py-menu-expand'
p3388
ssg63
g49
(cgluon.html
UL
p3389
g51
NtRp3390
(dp3391
g54
(dp3392
S'mobile'
p3393
I00
sS'li_class'
p3394
g3388
sg3387
S'sf-menu'
p3395
sS'ul_class'
p3396
S'web2py-menu-vertical'
p3397
sS'li_active'
p3398
S'web2py-menu-active'
p3399
ssg63
Nsg56
(lp3400
g49
(g3383
g51
NtRp3401
(dp3402
g54
(dp3403
sg63
g3390
sg56
(lp3404
g49
(g3376
g51
NtRp3405
(dp3406
g54
(dp3407
g3382
g3326
ssg63
g3401
sg56
(lp3408
g3301
asbasbag3384
asbsg56
(lp3409
g3377
ag49
(g3389
g51
NtRp3410
(dp3411
g54
(dp3412
g3387
g3397
ssg63
g3384
sg56
(lp3413
g49
(g3383
g51
NtRp3414
(dp3415
g54
(dp3416
sg63
g3410
sg56
(lp3417
g49
(g3376
g51
NtRp3418
(dp3419
g54
(dp3420
g3382
S'/admin/default/site'
p3421
ssg63
g3414
sg56
(lp3422
g3300
(S's\x08\x00\x00\x00My Sites'
tRp3423
asbasbag49
(g3383
g51
NtRp3424
(dp3425
g54
(dp3426
g3387
g3388
ssg63
g3410
sg56
(lp3427
g49
(g3376
g51
NtRp3428
(dp3429
g54
(dp3430
g3382
S'/admin/default/design/unioeste_code'
p3431
ssg63
g3424
sg56
(lp3432
g3300
(S's\x08\x00\x00\x00This App'
tRp3433
asbag49
(g3389
g51
NtRp3434
(dp3435
g54
(dp3436
g3387
g3397
ssg63
g3424
sg56
(lp3437
g49
(g3383
g51
NtRp3438
(dp3439
g54
(dp3440
sg63
g3434
sg56
(lp3441
g49
(g3376
g51
NtRp3442
(dp3443
g54
(dp3444
g3382
S'/admin/default/edit/unioeste_code/controllers/default.py'
p3445
ssg63
g3438
sg56
(lp3446
g3300
(S't\x0b\x00\x00\x00Controlador'
tRp3447
asbasbag49
(g3383
g51
NtRp3448
(dp3449
g54
(dp3450
sg63
g3434
sg56
(lp3451
g49
(g3376
g51
NtRp3452
(dp3453
g54
(dp3454
g3382
S'/admin/default/edit/unioeste_code/views/default/index.html'
p3455
ssg63
g3448
sg56
(lp3456
g3300
(S's\x0e\x00\x00\x00Visualiza\xc3\xa7\xc3\xa3o'
tRp3457
asbasbag49
(g3383
g51
NtRp3458
(dp3459
g54
(dp3460
sg63
g3434
sg56
(lp3461
g49
(g3376
g51
NtRp3462
(dp3463
g54
(dp3464
g3382
S'/admin/default/edit/unioeste_code/views/layout.html'
p3465
ssg63
g3458
sg56
(lp3466
g3300
(S't\x06\x00\x00\x00Layout'
tRp3467
asbasbag49
(g3383
g51
NtRp3468
(dp3469
g54
(dp3470
sg63
g3434
sg56
(lp3471
g49
(g3376
g51
NtRp3472
(dp3473
g54
(dp3474
g3382
S'/admin/default/edit/unioeste_code/static/css/web2py.css'
p3475
ssg63
g3468
sg56
(lp3476
g3300
(S't\n\x00\x00\x00Stylesheet'
tRp3477
asbasbag49
(g3383
g51
NtRp3478
(dp3479
g54
(dp3480
sg63
g3434
sg56
(lp3481
g49
(g3376
g51
NtRp3482
(dp3483
g54
(dp3484
g3382
S'/admin/default/edit/unioeste_code/models/db.py'
p3485
ssg63
g3478
sg56
(lp3486
g3300
(S's\t\x00\x00\x00Modelo BD'
tRp3487
asbasbag49
(g3383
g51
NtRp3488
(dp3489
g54
(dp3490
sg63
g3434
sg56
(lp3491
g49
(g3376
g51
NtRp3492
(dp3493
g54
(dp3494
g3382
S'/admin/default/edit/unioeste_code/models/menu.py'
p3495
ssg63
g3488
sg56
(lp3496
g3300
(S's\x0e\x00\x00\x00Modelo de Menu'
tRp3497
asbasbag49
(g3383
g51
NtRp3498
(dp3499
g54
(dp3500
sg63
g3434
sg56
(lp3501
g49
(g3376
g51
NtRp3502
(dp3503
g54
(dp3504
g3382
S'/unioeste_code/appadmin/index'
p3505
ssg63
g3498
sg56
(lp3506
g3300
(S's\x0e\x00\x00\x00Banco de dados'
tRp3507
asbasbag49
(g3383
g51
NtRp3508
(dp3509
g54
(dp3510
sg63
g3434
sg56
(lp3511
g49
(g3376
g51
NtRp3512
(dp3513
g54
(dp3514
g3382
S'/admin/default/errors/unioeste_code'
p3515
ssg63
g3508
sg56
(lp3516
g3300
(S't\x06\x00\x00\x00Errors'
tRp3517
asbasbag49
(g3383
g51
NtRp3518
(dp3519
g54
(dp3520
sg63
g3434
sg56
(lp3521
g49
(g3376
g51
NtRp3522
(dp3523
g54
(dp3524
g3382
S'/admin/default/about/unioeste_code'
p3525
ssg63
g3518
sg56
(lp3526
g3300
(S't\x05\x00\x00\x00About'
tRp3527
asbasbasbasbag49
(g3383
g51
NtRp3528
(dp3529
g54
(dp3530
g3387
g3388
ssg63
g3410
sg56
(lp3531
g49
(g3376
g51
NtRp3532
(dp3533
g54
(dp3534
g3382
S'http://www.web2py.com'
p3535
ssg63
g3528
sg56
(lp3536
S'web2py.com'
p3537
asbag49
(g3389
g51
NtRp3538
(dp3539
g54
(dp3540
g3387
g3397
ssg63
g3528
sg56
(lp3541
g49
(g3383
g51
NtRp3542
(dp3543
g54
(dp3544
sg63
g3538
sg56
(lp3545
g49
(g3376
g51
NtRp3546
(dp3547
g54
(dp3548
g3382
S'http://www.web2py.com/examples/default/download'
p3549
ssg63
g3542
sg56
(lp3550
g3300
(S't\x08\x00\x00\x00Download'
tRp3551
asbasbag49
(g3383
g51
NtRp3552
(dp3553
g54
(dp3554
sg63
g3538
sg56
(lp3555
g49
(g3376
g51
NtRp3556
(dp3557
g54
(dp3558
g3382
S'http://www.web2py.com/examples/default/support'
p3559
ssg63
g3552
sg56
(lp3560
g3300
(S't\x07\x00\x00\x00Support'
tRp3561
asbasbag49
(g3383
g51
NtRp3562
(dp3563
g54
(dp3564
sg63
g3538
sg56
(lp3565
g49
(g3376
g51
NtRp3566
(dp3567
g54
(dp3568
g3382
S'http://web2py.com/demo_admin'
p3569
ssg63
g3562
sg56
(lp3570
g3300
(S't\x04\x00\x00\x00Demo'
tRp3571
asbasbag49
(g3383
g51
NtRp3572
(dp3573
g54
(dp3574
sg63
g3538
sg56
(lp3575
g49
(g3376
g51
NtRp3576
(dp3577
g54
(dp3578
g3382
S'http://web2py.com/examples/default/examples'
p3579
ssg63
g3572
sg56
(lp3580
g3300
(S's\x0e\x00\x00\x00Quick Examples'
tRp3581
asbasbag49
(g3383
g51
NtRp3582
(dp3583
g54
(dp3584
sg63
g3538
sg56
(lp3585
g49
(g3376
g51
NtRp3586
(dp3587
g54
(dp3588
g3382
S'http://web2py.com/AlterEgo'
p3589
ssg63
g3582
sg56
(lp3590
g3300
(S't\x03\x00\x00\x00FAQ'
tRp3591
asbasbag49
(g3383
g51
NtRp3592
(dp3593
g54
(dp3594
sg63
g3538
sg56
(lp3595
g49
(g3376
g51
NtRp3596
(dp3597
g54
(dp3598
g3382
S'http://www.web2py.com/examples/default/videos/'
p3599
ssg63
g3592
sg56
(lp3600
g3300
(S't\x06\x00\x00\x00Videos'
tRp3601
asbasbag49
(g3383
g51
NtRp3602
(dp3603
g54
(dp3604
sg63
g3538
sg56
(lp3605
g49
(g3376
g51
NtRp3606
(dp3607
g54
(dp3608
g3382
S'http://web2py.com/appliances'
p3609
ssg63
g3602
sg56
(lp3610
g3300
(S's\x11\x00\x00\x00Free Applications'
tRp3611
asbasbag49
(g3383
g51
NtRp3612
(dp3613
g54
(dp3614
sg63
g3538
sg56
(lp3615
g49
(g3376
g51
NtRp3616
(dp3617
g54
(dp3618
g3382
S'http://web2py.com/plugins'
p3619
ssg63
g3612
sg56
(lp3620
g3300
(S't\x07\x00\x00\x00Plugins'
tRp3621
asbasbag49
(g3383
g51
NtRp3622
(dp3623
g54
(dp3624
sg63
g3538
sg56
(lp3625
g49
(g3376
g51
NtRp3626
(dp3627
g54
(dp3628
g3382
S'http://web2py.com/layouts'
p3629
ssg63
g3622
sg56
(lp3630
g3300
(S't\x07\x00\x00\x00Layouts'
tRp3631
asbasbag49
(g3383
g51
NtRp3632
(dp3633
g54
(dp3634
sg63
g3538
sg56
(lp3635
g49
(g3376
g51
NtRp3636
(dp3637
g54
(dp3638
g3382
S'http://web2pyslices.com/'
p3639
ssg63
g3632
sg56
(lp3640
g3300
(S't\x07\x00\x00\x00Recipes'
tRp3641
asbasbag49
(g3383
g51
NtRp3642
(dp3643
g54
(dp3644
sg63
g3538
sg56
(lp3645
g49
(g3376
g51
NtRp3646
(dp3647
g54
(dp3648
g3382
S'http://web2py.com/semantic'
p3649
ssg63
g3642
sg56
(lp3650
g3300
(S't\x08\x00\x00\x00Semantic'
tRp3651
asbasbasbasbag49
(g3383
g51
NtRp3652
(dp3653
g54
(dp3654
g3387
g3388
ssg63
g3410
sg56
(lp3655
g49
(g3376
g51
NtRp3656
(dp3657
g54
(dp3658
g3382
S'http://www.web2py.com/book'
p3659
ssg63
g3652
sg56
(lp3660
g3300
(S't\r\x00\x00\x00Documentation'
tRp3661
asbag49
(g3389
g51
NtRp3662
(dp3663
g54
(dp3664
g3387
g3397
ssg63
g3652
sg56
(lp3665
g49
(g3383
g51
NtRp3666
(dp3667
g54
(dp3668
sg63
g3662
sg56
(lp3669
g49
(g3376
g51
NtRp3670
(dp3671
g54
(dp3672
g3382
S'http://www.web2py.com/book/default/chapter/00'
p3673
ssg63
g3666
sg56
(lp3674
g3300
(S't\x07\x00\x00\x00Preface'
tRp3675
asbasbag49
(g3383
g51
NtRp3676
(dp3677
g54
(dp3678
sg63
g3662
sg56
(lp3679
g49
(g3376
g51
NtRp3680
(dp3681
g54
(dp3682
g3382
S'http://www.web2py.com/book/default/chapter/01'
p3683
ssg63
g3676
sg56
(lp3684
g3300
(S't\x0c\x00\x00\x00Introduction'
tRp3685
asbasbag49
(g3383
g51
NtRp3686
(dp3687
g54
(dp3688
sg63
g3662
sg56
(lp3689
g49
(g3376
g51
NtRp3690
(dp3691
g54
(dp3692
g3382
S'http://www.web2py.com/book/default/chapter/02'
p3693
ssg63
g3686
sg56
(lp3694
g3300
(S't\x06\x00\x00\x00Python'
tRp3695
asbasbag49
(g3383
g51
NtRp3696
(dp3697
g54
(dp3698
sg63
g3662
sg56
(lp3699
g49
(g3376
g51
NtRp3700
(dp3701
g54
(dp3702
g3382
S'http://www.web2py.com/book/default/chapter/03'
p3703
ssg63
g3696
sg56
(lp3704
g3300
(S't\x08\x00\x00\x00Overview'
tRp3705
asbasbag49
(g3383
g51
NtRp3706
(dp3707
g54
(dp3708
sg63
g3662
sg56
(lp3709
g49
(g3376
g51
NtRp3710
(dp3711
g54
(dp3712
g3382
S'http://www.web2py.com/book/default/chapter/04'
p3713
ssg63
g3706
sg56
(lp3714
g3300
(S's\x08\x00\x00\x00The Core'
tRp3715
asbasbag49
(g3383
g51
NtRp3716
(dp3717
g54
(dp3718
sg63
g3662
sg56
(lp3719
g49
(g3376
g51
NtRp3720
(dp3721
g54
(dp3722
g3382
S'http://www.web2py.com/book/default/chapter/05'
p3723
ssg63
g3716
sg56
(lp3724
g3300
(S's\t\x00\x00\x00The Views'
tRp3725
asbasbag49
(g3383
g51
NtRp3726
(dp3727
g54
(dp3728
sg63
g3662
sg56
(lp3729
g49
(g3376
g51
NtRp3730
(dp3731
g54
(dp3732
g3382
S'http://www.web2py.com/book/default/chapter/06'
p3733
ssg63
g3726
sg56
(lp3734
g3300
(S's\x0e\x00\x00\x00Banco de dados'
tRp3735
asbasbag49
(g3383
g51
NtRp3736
(dp3737
g54
(dp3738
sg63
g3662
sg56
(lp3739
g49
(g3376
g51
NtRp3740
(dp3741
g54
(dp3742
g3382
S'http://www.web2py.com/book/default/chapter/07'
p3743
ssg63
g3736
sg56
(lp3744
g3300
(S's\x14\x00\x00\x00Forms and Validators'
tRp3745
asbasbag49
(g3383
g51
NtRp3746
(dp3747
g54
(dp3748
sg63
g3662
sg56
(lp3749
g49
(g3376
g51
NtRp3750
(dp3751
g54
(dp3752
g3382
S'http://www.web2py.com/book/default/chapter/08'
p3753
ssg63
g3746
sg56
(lp3754
g3300
(S's\r\x00\x00\x00Email and SMS'
tRp3755
asbasbag49
(g3383
g51
NtRp3756
(dp3757
g54
(dp3758
sg63
g3662
sg56
(lp3759
g49
(g3376
g51
NtRp3760
(dp3761
g54
(dp3762
g3382
S'http://www.web2py.com/book/default/chapter/09'
p3763
ssg63
g3756
sg56
(lp3764
g3300
(S's\x0e\x00\x00\x00Access Control'
tRp3765
asbasbag49
(g3383
g51
NtRp3766
(dp3767
g54
(dp3768
sg63
g3662
sg56
(lp3769
g49
(g3376
g51
NtRp3770
(dp3771
g54
(dp3772
g3382
S'http://www.web2py.com/book/default/chapter/10'
p3773
ssg63
g3766
sg56
(lp3774
g3300
(S't\x08\x00\x00\x00Services'
tRp3775
asbasbag49
(g3383
g51
NtRp3776
(dp3777
g54
(dp3778
sg63
g3662
sg56
(lp3779
g49
(g3376
g51
NtRp3780
(dp3781
g54
(dp3782
g3382
S'http://www.web2py.com/book/default/chapter/11'
p3783
ssg63
g3776
sg56
(lp3784
g3300
(S's\x0c\x00\x00\x00Ajax Recipes'
tRp3785
asbasbag49
(g3383
g51
NtRp3786
(dp3787
g54
(dp3788
sg63
g3662
sg56
(lp3789
g49
(g3376
g51
NtRp3790
(dp3791
g54
(dp3792
g3382
S'http://www.web2py.com/book/default/chapter/12'
p3793
ssg63
g3786
sg56
(lp3794
g3300
(S's\x16\x00\x00\x00Components and Plugins'
tRp3795
asbasbag49
(g3383
g51
NtRp3796
(dp3797
g54
(dp3798
sg63
g3662
sg56
(lp3799
g49
(g3376
g51
NtRp3800
(dp3801
g54
(dp3802
g3382
S'http://www.web2py.com/book/default/chapter/13'
p3803
ssg63
g3796
sg56
(lp3804
g3300
(S's\x12\x00\x00\x00Deployment Recipes'
tRp3805
asbasbag49
(g3383
g51
NtRp3806
(dp3807
g54
(dp3808
sg63
g3662
sg56
(lp3809
g49
(g3376
g51
NtRp3810
(dp3811
g54
(dp3812
g3382
S'http://www.web2py.com/book/default/chapter/14'
p3813
ssg63
g3806
sg56
(lp3814
g3300
(S's\r\x00\x00\x00Other Recipes'
tRp3815
asbasbag49
(g3383
g51
NtRp3816
(dp3817
g54
(dp3818
sg63
g3662
sg56
(lp3819
g49
(g3376
g51
NtRp3820
(dp3821
g54
(dp3822
g3382
S'http://stores.lulu.com/web2py'
p3823
ssg63
g3816
sg56
(lp3824
g3300
(S's\r\x00\x00\x00Buy this book'
tRp3825
asbasbasbasbag49
(g3383
g51
NtRp3826
(dp3827
g54
(dp3828
g3387
g3388
ssg63
g3410
sg56
(lp3829
g49
(g3376
g51
NtRp3830
(dp3831
g54
(dp3832
g3380
g3381
sg3382
S'#'
ssg63
g3826
sg56
(lp3833
g3300
(S't\t\x00\x00\x00Community'
tRp3834
asbag49
(g3389
g51
NtRp3835
(dp3836
g54
(dp3837
g3387
g3397
ssg63
g3826
sg56
(lp3838
g49
(g3383
g51
NtRp3839
(dp3840
g54
(dp3841
sg63
g3835
sg56
(lp3842
g49
(g3376
g51
NtRp3843
(dp3844
g54
(dp3845
g3382
S'http://www.web2py.com/examples/default/usergroups'
p3846
ssg63
g3839
sg56
(lp3847
g3300
(S't\x06\x00\x00\x00Groups'
tRp3848
asbasbag49
(g3383
g51
NtRp3849
(dp3850
g54
(dp3851
sg63
g3835
sg56
(lp3852
g49
(g3376
g51
NtRp3853
(dp3854
g54
(dp3855
g3382
S'http://twitter.com/web2py'
p3856
ssg63
g3849
sg56
(lp3857
g3300
(S't\x07\x00\x00\x00Twitter'
tRp3858
asbasbag49
(g3383
g51
NtRp3859
(dp3860
g54
(dp3861
sg63
g3835
sg56
(lp3862
g49
(g3376
g51
NtRp3863
(dp3864
g54
(dp3865
g3382
S'http://webchat.freenode.net/?channels=web2py'
p3866
ssg63
g3859
sg56
(lp3867
g3300
(S's\t\x00\x00\x00Live Chat'
tRp3868
asbasbasbasbag49
(g3383
g51
NtRp3869
(dp3870
g54
(dp3871
g3387
g3388
ssg63
g3410
sg56
(lp3872
g49
(g3376
g51
NtRp3873
(dp3874
g54
(dp3875
g3380
g3381
sg3382
S'#'
ssg63
g3869
sg56
(lp3876
g3300
(S't\x07\x00\x00\x00Plugins'
tRp3877
asbag49
(g3389
g51
NtRp3878
(dp3879
g54
(dp3880
g3387
g3397
ssg63
g3869
sg56
(lp3881
g49
(g3383
g51
NtRp3882
(dp3883
g54
(dp3884
sg63
g3878
sg56
(lp3885
g49
(g3376
g51
NtRp3886
(dp3887
g54
(dp3888
g3382
S'http://web2py.com/examples/default/download'
p3889
ssg63
g3882
sg56
(lp3890
S'plugin_wiki'
p3891
asbasbag49
(g3383
g51
NtRp3892
(dp3893
g54
(dp3894
sg63
g3878
sg56
(lp3895
g49
(g3376
g51
NtRp3896
(dp3897
g54
(dp3898
g3382
g3619
ssg63
g3892
sg56
(lp3899
g3300
(S's\r\x00\x00\x00Other Plugins'
tRp3900
asbasbag49
(g3383
g51
NtRp3901
(dp3902
g54
(dp3903
sg63
g3878
sg56
(lp3904
g49
(g3376
g51
NtRp3905
(dp3906
g54
(dp3907
g3382
g3629
ssg63
g3901
sg56
(lp3908
g3300
(S's\x0e\x00\x00\x00Layout Plugins'
tRp3909
asbasbasbasbasbasbsg56
(lp3910
g3372
asbsg56
(lp3911
g3246
asbasbasbasbag49
(g65
g51
NtRp3912
(dp3913
g54
(dp3914
sg63
g3355
sg56
(lp3915
g49
(g70
g51
NtRp3916
(dp3917
g54
(dp3918
sg63
g3912
sg56
(lp3919
g49
(g50
g51
NtRp3920
(dp3921
g54
(dp3922
g62
I3
ssg63
g3916
sg56
(lp3923
g92
asbasbasbag49
(g65
g51
NtRp3924
(dp3925
g54
(dp3926
sg63
g3355
sg56
(lp3927
g49
(g70
g51
NtRp3928
(dp3929
g54
(dp3930
sg63
g3924
sg56
(lp3931
g49
(g50
g51
NtRp3932
(dp3933
g54
(dp3934
g62
I3
ssg63
g3928
sg56
(lp3935
S'None'
p3936
asbasbasbag49
(g65
g51
NtRp3937
(dp3938
g54
(dp3939
sg63
g3355
sg56
(lp3940
g49
(g70
g51
NtRp3941
(dp3942
g54
(dp3943
sg63
g3937
sg56
(lp3944
g49
(g50
g51
NtRp3945
(dp3946
g54
(dp3947
g62
I3
ssg63
g3941
sg56
(lp3948
g49
(g58
g51
NtRp3949
(dp3950
g54
(dp3951
g62
I2
ssg63
Nsg56
(lp3952
g49
(g65
g51
NtRp3953
(dp3954
g54
(dp3955
sg63
g3949
sg56
(lp3956
g49
(g70
g51
NtRp3957
(dp3958
g54
(dp3959
sg63
g3953
sg56
(lp3960
g49
(g50
g51
NtRp3961
(dp3962
g54
(dp3963
g62
I2
ssg63
g3957
sg56
(lp3964
g49
(g58
g51
NtRp3965
(dp3966
g54
(dp3967
g62
I1
ssg63
Nsg56
(lp3968
g49
(g65
g51
NtRp3969
(dp3970
g54
(dp3971
sg63
g3965
sg56
(lp3972
g49
(g70
g51
NtRp3973
(dp3974
g54
(dp3975
sg63
g3969
sg56
(lp3976
g49
(g50
g51
NtRp3977
(dp3978
g54
(dp3979
g62
I1
ssg63
g3973
sg56
(lp3980
g3423
asbasbasbag49
(g65
g51
NtRp3981
(dp3982
g54
(dp3983
sg63
g3965
sg56
(lp3984
g49
(g70
g51
NtRp3985
(dp3986
g54
(dp3987
sg63
g3981
sg56
(lp3988
g49
(g50
g51
NtRp3989
(dp3990
g54
(dp3991
g62
I1
ssg63
g3985
sg56
(lp3992
I00
asbasbasbag49
(g65
g51
NtRp3993
(dp3994
g54
(dp3995
sg63
g3965
sg56
(lp3996
g49
(g70
g51
NtRp3997
(dp3998
g54
(dp3999
sg63
g3993
sg56
(lp4000
g49
(g50
g51
NtRp4001
(dp4002
g54
(dp4003
g62
I1
ssg63
g3997
sg56
(lp4004
g3421
asbasbasbasbasbasbasbag49
(g65
g51
NtRp4005
(dp4006
g54
(dp4007
sg63
g3949
sg56
(lp4008
g49
(g70
g51
NtRp4009
(dp4010
g54
(dp4011
sg63
g4005
sg56
(lp4012
g49
(g50
g51
NtRp4013
(dp4014
g54
(dp4015
g62
I2
ssg63
g4009
sg56
(lp4016
g49
(g58
g51
NtRp4017
(dp4018
g54
(dp4019
g62
I1
ssg63
Nsg56
(lp4020
g49
(g65
g51
NtRp4021
(dp4022
g54
(dp4023
sg63
g4017
sg56
(lp4024
g49
(g70
g51
NtRp4025
(dp4026
g54
(dp4027
sg63
g4021
sg56
(lp4028
g49
(g50
g51
NtRp4029
(dp4030
g54
(dp4031
g62
I1
ssg63
g4025
sg56
(lp4032
g3433
asbasbasbag49
(g65
g51
NtRp4033
(dp4034
g54
(dp4035
sg63
g4017
sg56
(lp4036
g49
(g70
g51
NtRp4037
(dp4038
g54
(dp4039
sg63
g4033
sg56
(lp4040
g49
(g50
g51
NtRp4041
(dp4042
g54
(dp4043
g62
I1
ssg63
g4037
sg56
(lp4044
I00
asbasbasbag49
(g65
g51
NtRp4045
(dp4046
g54
(dp4047
sg63
g4017
sg56
(lp4048
g49
(g70
g51
NtRp4049
(dp4050
g54
(dp4051
sg63
g4045
sg56
(lp4052
g49
(g50
g51
NtRp4053
(dp4054
g54
(dp4055
g62
I1
ssg63
g4049
sg56
(lp4056
g3431
asbasbasbag49
(g65
g51
NtRp4057
(dp4058
g54
(dp4059
sg63
g4017
sg56
(lp4060
g49
(g70
g51
NtRp4061
(dp4062
g54
(dp4063
sg63
g4057
sg56
(lp4064
g49
(g50
g51
NtRp4065
(dp4066
g54
(dp4067
g62
I1
ssg63
g4061
sg56
(lp4068
(lp4069
(g3447
I00
g3445
tp4070
a(g3457
I00
g3455
tp4071
a(g3467
I00
g3465
tp4072
a(g3477
I00
g3475
tp4073
a(g3487
I00
g3485
tp4074
a(g3497
I00
g3495
tp4075
a(g3507
I00
g3505
tp4076
a(g3517
I00
g3515
tp4077
a(g3527
I00
g3525
tp4078
aasbasbasbasbasbasbasbag49
(g65
g51
NtRp4079
(dp4080
g54
(dp4081
sg63
g3949
sg56
(lp4082
g49
(g70
g51
NtRp4083
(dp4084
g54
(dp4085
sg63
g4079
sg56
(lp4086
g49
(g50
g51
NtRp4087
(dp4088
g54
(dp4089
g62
I2
ssg63
g4083
sg56
(lp4090
g49
(g58
g51
NtRp4091
(dp4092
g54
(dp4093
g62
I1
ssg63
Nsg56
(lp4094
g49
(g65
g51
NtRp4095
(dp4096
g54
(dp4097
sg63
g4091
sg56
(lp4098
g49
(g70
g51
NtRp4099
(dp4100
g54
(dp4101
sg63
g4095
sg56
(lp4102
g49
(g50
g51
NtRp4103
(dp4104
g54
(dp4105
g62
I1
ssg63
g4099
sg56
(lp4106
g3537
asbasbasbag49
(g65
g51
NtRp4107
(dp4108
g54
(dp4109
sg63
g4091
sg56
(lp4110
g49
(g70
g51
NtRp4111
(dp4112
g54
(dp4113
sg63
g4107
sg56
(lp4114
g49
(g50
g51
NtRp4115
(dp4116
g54
(dp4117
g62
I1
ssg63
g4111
sg56
(lp4118
I00
asbasbasbag49
(g65
g51
NtRp4119
(dp4120
g54
(dp4121
sg63
g4091
sg56
(lp4122
g49
(g70
g51
NtRp4123
(dp4124
g54
(dp4125
sg63
g4119
sg56
(lp4126
g49
(g50
g51
NtRp4127
(dp4128
g54
(dp4129
g62
I1
ssg63
g4123
sg56
(lp4130
g3535
asbasbasbag49
(g65
g51
NtRp4131
(dp4132
g54
(dp4133
sg63
g4091
sg56
(lp4134
g49
(g70
g51
NtRp4135
(dp4136
g54
(dp4137
sg63
g4131
sg56
(lp4138
g49
(g50
g51
NtRp4139
(dp4140
g54
(dp4141
g62
I1
ssg63
g4135
sg56
(lp4142
(lp4143
(g3551
I00
g3549
tp4144
a(g3561
I00
g3559
tp4145
a(g3571
I00
g3569
tp4146
a(g3581
I00
g3579
tp4147
a(g3591
I00
g3589
tp4148
a(g3601
I00
g3599
tp4149
a(g3611
I00
g3609
tp4150
a(g3621
I00
g3619
tp4151
a(g3631
I00
g3629
tp4152
a(g3641
I00
g3639
tp4153
a(g3651
I00
g3649
tp4154
aasbasbasbasbasbasbasbag49
(g65
g51
NtRp4155
(dp4156
g54
(dp4157
sg63
g3949
sg56
(lp4158
g49
(g70
g51
NtRp4159
(dp4160
g54
(dp4161
sg63
g4155
sg56
(lp4162
g49
(g50
g51
NtRp4163
(dp4164
g54
(dp4165
g62
I2
ssg63
g4159
sg56
(lp4166
g49
(g58
g51
NtRp4167
(dp4168
g54
(dp4169
g62
I1
ssg63
Nsg56
(lp4170
g49
(g65
g51
NtRp4171
(dp4172
g54
(dp4173
sg63
g4167
sg56
(lp4174
g49
(g70
g51
NtRp4175
(dp4176
g54
(dp4177
sg63
g4171
sg56
(lp4178
g49
(g50
g51
NtRp4179
(dp4180
g54
(dp4181
g62
I1
ssg63
g4175
sg56
(lp4182
g3661
asbasbasbag49
(g65
g51
NtRp4183
(dp4184
g54
(dp4185
sg63
g4167
sg56
(lp4186
g49
(g70
g51
NtRp4187
(dp4188
g54
(dp4189
sg63
g4183
sg56
(lp4190
g49
(g50
g51
NtRp4191
(dp4192
g54
(dp4193
g62
I1
ssg63
g4187
sg56
(lp4194
I00
asbasbasbag49
(g65
g51
NtRp4195
(dp4196
g54
(dp4197
sg63
g4167
sg56
(lp4198
g49
(g70
g51
NtRp4199
(dp4200
g54
(dp4201
sg63
g4195
sg56
(lp4202
g49
(g50
g51
NtRp4203
(dp4204
g54
(dp4205
g62
I1
ssg63
g4199
sg56
(lp4206
g3659
asbasbasbag49
(g65
g51
NtRp4207
(dp4208
g54
(dp4209
sg63
g4167
sg56
(lp4210
g49
(g70
g51
NtRp4211
(dp4212
g54
(dp4213
sg63
g4207
sg56
(lp4214
g49
(g50
g51
NtRp4215
(dp4216
g54
(dp4217
g62
I1
ssg63
g4211
sg56
(lp4218
(lp4219
(g3675
I00
g3673
tp4220
a(g3685
I00
g3683
tp4221
a(g3695
I00
g3693
tp4222
a(g3705
I00
g3703
tp4223
a(g3715
I00
g3713
tp4224
a(g3725
I00
g3723
tp4225
a(g3735
I00
g3733
tp4226
a(g3745
I00
g3743
tp4227
a(g3755
I00
g3753
tp4228
a(g3765
I00
g3763
tp4229
a(g3775
I00
g3773
tp4230
a(g3785
I00
g3783
tp4231
a(g3795
I00
g3793
tp4232
a(g3805
I00
g3803
tp4233
a(g3815
I00
g3813
tp4234
a(g3825
I00
g3823
tp4235
aasbasbasbasbasbasbasbag49
(g65
g51
NtRp4236
(dp4237
g54
(dp4238
sg63
g3949
sg56
(lp4239
g49
(g70
g51
NtRp4240
(dp4241
g54
(dp4242
sg63
g4236
sg56
(lp4243
g49
(g50
g51
NtRp4244
(dp4245
g54
(dp4246
g62
I2
ssg63
g4240
sg56
(lp4247
g49
(g58
g51
NtRp4248
(dp4249
g54
(dp4250
g62
I1
ssg63
Nsg56
(lp4251
g49
(g65
g51
NtRp4252
(dp4253
g54
(dp4254
sg63
g4248
sg56
(lp4255
g49
(g70
g51
NtRp4256
(dp4257
g54
(dp4258
sg63
g4252
sg56
(lp4259
g49
(g50
g51
NtRp4260
(dp4261
g54
(dp4262
g62
I1
ssg63
g4256
sg56
(lp4263
g3834
asbasbasbag49
(g65
g51
NtRp4264
(dp4265
g54
(dp4266
sg63
g4248
sg56
(lp4267
g49
(g70
g51
NtRp4268
(dp4269
g54
(dp4270
sg63
g4264
sg56
(lp4271
g49
(g50
g51
NtRp4272
(dp4273
g54
(dp4274
g62
I1
ssg63
g4268
sg56
(lp4275
I00
asbasbasbag49
(g65
g51
NtRp4276
(dp4277
g54
(dp4278
sg63
g4248
sg56
(lp4279
g49
(g70
g51
NtRp4280
(dp4281
g54
(dp4282
sg63
g4276
sg56
(lp4283
g49
(g50
g51
NtRp4284
(dp4285
g54
(dp4286
g62
I1
ssg63
g4280
sg56
(lp4287
Nasbasbasbag49
(g65
g51
NtRp4288
(dp4289
g54
(dp4290
sg63
g4248
sg56
(lp4291
g49
(g70
g51
NtRp4292
(dp4293
g54
(dp4294
sg63
g4288
sg56
(lp4295
g49
(g50
g51
NtRp4296
(dp4297
g54
(dp4298
g62
I1
ssg63
g4292
sg56
(lp4299
(lp4300
(g3848
I00
g3846
tp4301
a(g3858
I00
g3856
tp4302
a(g3868
I00
g3866
tp4303
aasbasbasbasbasbasbasbag49
(g65
g51
NtRp4304
(dp4305
g54
(dp4306
sg63
g3949
sg56
(lp4307
g49
(g70
g51
NtRp4308
(dp4309
g54
(dp4310
sg63
g4304
sg56
(lp4311
g49
(g50
g51
NtRp4312
(dp4313
g54
(dp4314
g62
I2
ssg63
g4308
sg56
(lp4315
g49
(g58
g51
NtRp4316
(dp4317
g54
(dp4318
g62
I1
ssg63
Nsg56
(lp4319
g49
(g65
g51
NtRp4320
(dp4321
g54
(dp4322
sg63
g4316
sg56
(lp4323
g49
(g70
g51
NtRp4324
(dp4325
g54
(dp4326
sg63
g4320
sg56
(lp4327
g49
(g50
g51
NtRp4328
(dp4329
g54
(dp4330
g62
I1
ssg63
g4324
sg56
(lp4331
g3877
asbasbasbag49
(g65
g51
NtRp4332
(dp4333
g54
(dp4334
sg63
g4316
sg56
(lp4335
g49
(g70
g51
NtRp4336
(dp4337
g54
(dp4338
sg63
g4332
sg56
(lp4339
g49
(g50
g51
NtRp4340
(dp4341
g54
(dp4342
g62
I1
ssg63
g4336
sg56
(lp4343
I00
asbasbasbag49
(g65
g51
NtRp4344
(dp4345
g54
(dp4346
sg63
g4316
sg56
(lp4347
g49
(g70
g51
NtRp4348
(dp4349
g54
(dp4350
sg63
g4344
sg56
(lp4351
g49
(g50
g51
NtRp4352
(dp4353
g54
(dp4354
g62
I1
ssg63
g4348
sg56
(lp4355
Nasbasbasbag49
(g65
g51
NtRp4356
(dp4357
g54
(dp4358
sg63
g4316
sg56
(lp4359
g49
(g70
g51
NtRp4360
(dp4361
g54
(dp4362
sg63
g4356
sg56
(lp4363
g49
(g50
g51
NtRp4364
(dp4365
g54
(dp4366
g62
I1
ssg63
g4360
sg56
(lp4367
(lp4368
(g3891
I00
g3889
tp4369
a(g3900
I00
g3619
tp4370
a(g3909
I00
g3629
tp4371
aasbasbasbasbasbasbasbasbasbasbasbasbasbasbasbasbasbasbasbag49
(g65
g51
NtRp4372
(dp4373
g54
(dp4374
sg63
g2672
sg56
(lp4375
g49
(g70
g51
NtRp4376
(dp4377
g54
(dp4378
g74
g75
ssg63
g4372
sg56
(lp4379
S'meta'
p4380
asbag49
(g70
g51
NtRp4381
(dp4382
g54
(dp4383
g81
g82
ssg63
g4372
sg56
(lp4384
S':'
asbag49
(g70
g51
NtRp4385
(dp4386
g54
(dp4387
sg63
g4372
sg56
(lp4388
g49
(g50
g51
NtRp4389
(dp4390
g54
(dp4391
g62
I5
ssg63
g4385
sg56
(lp4392
g49
(g58
g51
NtRp4393
(dp4394
g54
(dp4395
g62
I4
ssg63
Nsg56
(lp4396
g49
(g65
g51
NtRp4397
(dp4398
g54
(dp4399
sg63
g4393
sg56
(lp4400
g49
(g70
g51
NtRp4401
(dp4402
g54
(dp4403
g74
g75
ssg63
g4397
sg56
(lp4404
S'author'
p4405
asbag49
(g70
g51
NtRp4406
(dp4407
g54
(dp4408
g81
g82
ssg63
g4397
sg56
(lp4409
S':'
asbag49
(g70
g51
NtRp4410
(dp4411
g54
(dp4412
sg63
g4397
sg56
(lp4413
g49
(g50
g51
NtRp4414
(dp4415
g54
(dp4416
g62
I4
ssg63
g4410
sg56
(lp4417
S'Your Name <you@example.com>'
p4418
asbasbasbag49
(g65
g51
NtRp4419
(dp4420
g54
(dp4421
sg63
g4393
sg56
(lp4422
g49
(g70
g51
NtRp4423
(dp4424
g54
(dp4425
g74
g75
ssg63
g4419
sg56
(lp4426
S'copyright'
p4427
asbag49
(g70
g51
NtRp4428
(dp4429
g54
(dp4430
g81
g82
ssg63
g4419
sg56
(lp4431
S':'
asbag49
(g70
g51
NtRp4432
(dp4433
g54
(dp4434
sg63
g4419
sg56
(lp4435
g49
(g50
g51
NtRp4436
(dp4437
g54
(dp4438
g62
I4
ssg63
g4432
sg56
(lp4439
S'Copyright 2011'
p4440
asbasbasbag49
(g65
g51
NtRp4441
(dp4442
g54
(dp4443
sg63
g4393
sg56
(lp4444
g49
(g70
g51
NtRp4445
(dp4446
g54
(dp4447
g74
g75
ssg63
g4441
sg56
(lp4448
S'description'
p4449
asbag49
(g70
g51
NtRp4450
(dp4451
g54
(dp4452
g81
g82
ssg63
g4441
sg56
(lp4453
S':'
asbag49
(g70
g51
NtRp4454
(dp4455
g54
(dp4456
sg63
g4441
sg56
(lp4457
g49
(g50
g51
NtRp4458
(dp4459
g54
(dp4460
g62
I4
ssg63
g4454
sg56
(lp4461
S'a cool new app'
p4462
asbasbasbag49
(g65
g51
NtRp4463
(dp4464
g54
(dp4465
sg63
g4393
sg56
(lp4466
g49
(g70
g51
NtRp4467
(dp4468
g54
(dp4469
g74
g75
ssg63
g4463
sg56
(lp4470
S'generator'
p4471
asbag49
(g70
g51
NtRp4472
(dp4473
g54
(dp4474
g81
g82
ssg63
g4463
sg56
(lp4475
S':'
asbag49
(g70
g51
NtRp4476
(dp4477
g54
(dp4478
sg63
g4463
sg56
(lp4479
g49
(g50
g51
NtRp4480
(dp4481
g54
(dp4482
g62
I4
ssg63
g4476
sg56
(lp4483
S'Web2py Web Framework'
p4484
asbasbasbag49
(g65
g51
NtRp4485
(dp4486
g54
(dp4487
sg63
g4393
sg56
(lp4488
g49
(g70
g51
NtRp4489
(dp4490
g54
(dp4491
g74
g75
ssg63
g4485
sg56
(lp4492
S'keywords'
p4493
asbag49
(g70
g51
NtRp4494
(dp4495
g54
(dp4496
g81
g82
ssg63
g4485
sg56
(lp4497
S':'
asbag49
(g70
g51
NtRp4498
(dp4499
g54
(dp4500
sg63
g4485
sg56
(lp4501
g49
(g50
g51
NtRp4502
(dp4503
g54
(dp4504
g62
I4
ssg63
g4498
sg56
(lp4505
S'web2py, python, framework'
p4506
asbasbasbasbasbasbasbag49
(g65
g51
NtRp4507
(dp4508
g54
(dp4509
sg63
g2672
sg56
(lp4510
g49
(g70
g51
NtRp4511
(dp4512
g54
(dp4513
g74
g75
ssg63
g4507
sg56
(lp4514
S'postprocessing'
p4515
asbag49
(g70
g51
NtRp4516
(dp4517
g54
(dp4518
g81
g82
ssg63
g4507
sg56
(lp4519
S':'
asbag49
(g70
g51
NtRp4520
(dp4521
g54
(dp4522
sg63
g4507
sg56
(lp4523
g49
(g50
g51
NtRp4524
(dp4525
g54
(dp4526
g62
I5
ssg63
g4520
sg56
(lp4527
g49
(g58
g51
NtRp4528
(dp4529
g54
(dp4530
g62
I4
ssg63
Nsg56
(lp4531
sbasbasbasbag49
(g65
g51
NtRp4532
(dp4533
g54
(dp4534
sg63
g2672
sg56
(lp4535
g49
(g70
g51
NtRp4536
(dp4537
g54
(dp4538
g74
g75
ssg63
g4532
sg56
(lp4539
S'session_filename'
p4540
asbag49
(g70
g51
NtRp4541
(dp4542
g54
(dp4543
g81
g82
ssg63
g4532
sg56
(lp4544
S':'
asbag49
(g70
g51
NtRp4545
(dp4546
g54
(dp4547
sg63
g4532
sg56
(lp4548
g49
(g50
g51
NtRp4549
(dp4550
g54
(dp4551
g62
I5
ssg63
g4545
sg56
(lp4552
S'C:\\web2py\\applications\\unioeste_code\\sessions\\127.0.0.1-d84b9c00-7a5d-46ac-84e6-cb4111962820'
p4553
asbasbasbag49
(g65
g51
NtRp4554
(dp4555
g54
(dp4556
sg63
g2672
sg56
(lp4557
g49
(g70
g51
NtRp4558
(dp4559
g54
(dp4560
g74
g75
ssg63
g4554
sg56
(lp4561
S'session_id'
p4562
asbag49
(g70
g51
NtRp4563
(dp4564
g54
(dp4565
g81
g82
ssg63
g4554
sg56
(lp4566
S':'
asbag49
(g70
g51
NtRp4567
(dp4568
g54
(dp4569
sg63
g4554
sg56
(lp4570
g49
(g50
g51
NtRp4571
(dp4572
g54
(dp4573
g62
I5
ssg63
g4567
sg56
(lp4574
S'127.0.0.1-d84b9c00-7a5d-46ac-84e6-cb4111962820'
p4575
asbasbasbag49
(g65
g51
NtRp4576
(dp4577
g54
(dp4578
sg63
g2672
sg56
(lp4579
g49
(g70
g51
NtRp4580
(dp4581
g54
(dp4582
g74
g75
ssg63
g4576
sg56
(lp4583
S'session_id_name'
p4584
asbag49
(g70
g51
NtRp4585
(dp4586
g54
(dp4587
g81
g82
ssg63
g4576
sg56
(lp4588
S':'
asbag49
(g70
g51
NtRp4589
(dp4590
g54
(dp4591
sg63
g4576
sg56
(lp4592
g49
(g50
g51
NtRp4593
(dp4594
g54
(dp4595
g62
I5
ssg63
g4589
sg56
(lp4596
g2729
asbasbasbag49
(g65
g51
NtRp4597
(dp4598
g54
(dp4599
sg63
g2672
sg56
(lp4600
g49
(g70
g51
NtRp4601
(dp4602
g54
(dp4603
g74
g75
ssg63
g4597
sg56
(lp4604
S'session_new'
p4605
asbag49
(g70
g51
NtRp4606
(dp4607
g54
(dp4608
g81
g82
ssg63
g4597
sg56
(lp4609
S':'
asbag49
(g70
g51
NtRp4610
(dp4611
g54
(dp4612
sg63
g4597
sg56
(lp4613
g49
(g50
g51
NtRp4614
(dp4615
g54
(dp4616
g62
I5
ssg63
g4610
sg56
(lp4617
g1278
asbasbasbag49
(g65
g51
NtRp4618
(dp4619
g54
(dp4620
sg63
g2672
sg56
(lp4621
g49
(g70
g51
NtRp4622
(dp4623
g54
(dp4624
g74
g75
ssg63
g4618
sg56
(lp4625
S'status'
p4626
asbag49
(g70
g51
NtRp4627
(dp4628
g54
(dp4629
g81
g82
ssg63
g4618
sg56
(lp4630
S':'
asbag49
(g70
g51
NtRp4631
(dp4632
g54
(dp4633
sg63
g4618
sg56
(lp4634
g49
(g50
g51
NtRp4635
(dp4636
g54
(dp4637
g62
I5
ssg63
g4631
sg56
(lp4638
S'200'
p4639
asbasbasbag49
(g65
g51
NtRp4640
(dp4641
g54
(dp4642
sg63
g2672
sg56
(lp4643
g49
(g70
g51
NtRp4644
(dp4645
g54
(dp4646
g74
g75
ssg63
g4640
sg56
(lp4647
S'subtitle'
p4648
asbag49
(g70
g51
NtRp4649
(dp4650
g54
(dp4651
g81
g82
ssg63
g4640
sg56
(lp4652
S':'
asbag49
(g70
g51
NtRp4653
(dp4654
g54
(dp4655
sg63
g4640
sg56
(lp4656
g49
(g50
g51
NtRp4657
(dp4658
g54
(dp4659
g62
I5
ssg63
g4653
sg56
(lp4660
g3300
(S's\x0f\x00\x00\x00Personalize-me!'
tRp4661
asbasbasbag49
(g65
g51
NtRp4662
(dp4663
g54
(dp4664
sg63
g2672
sg56
(lp4665
g49
(g70
g51
NtRp4666
(dp4667
g54
(dp4668
g74
g75
ssg63
g4662
sg56
(lp4669
S'title'
p4670
asbag49
(g70
g51
NtRp4671
(dp4672
g54
(dp4673
g81
g82
ssg63
g4662
sg56
(lp4674
S':'
asbag49
(g70
g51
NtRp4675
(dp4676
g54
(dp4677
sg63
g4662
sg56
(lp4678
g49
(g50
g51
NtRp4679
(dp4680
g54
(dp4681
g62
I5
ssg63
g4675
sg56
(lp4682
S'Unioeste Code'
p4683
asbasbasbag49
(g65
g51
NtRp4684
(dp4685
g54
(dp4686
sg63
g2672
sg56
(lp4687
g49
(g70
g51
NtRp4688
(dp4689
g54
(dp4690
g74
g75
ssg63
g4684
sg56
(lp4691
g1942
asbag49
(g70
g51
NtRp4692
(dp4693
g54
(dp4694
g81
g82
ssg63
g4684
sg56
(lp4695
S':'
asbag49
(g70
g51
NtRp4696
(dp4697
g54
(dp4698
sg63
g4684
sg56
(lp4699
g49
(g50
g51
NtRp4700
(dp4701
g54
(dp4702
g62
I5
ssg63
g4696
sg56
(lp4703
g1955
asbasbasbag49
(g65
g51
NtRp4704
(dp4705
g54
(dp4706
sg63
g2672
sg56
(lp4707
g49
(g70
g51
NtRp4708
(dp4709
g54
(dp4710
g74
g75
ssg63
g4704
sg56
(lp4711
S'view'
p4712
asbag49
(g70
g51
NtRp4713
(dp4714
g54
(dp4715
g81
g82
ssg63
g4704
sg56
(lp4716
S':'
asbag49
(g70
g51
NtRp4717
(dp4718
g54
(dp4719
sg63
g4704
sg56
(lp4720
g49
(g50
g51
NtRp4721
(dp4722
g54
(dp4723
g62
I5
ssg63
g4717
sg56
(lp4724
S'default/index.html'
p4725
asbasbasbasbasbsS'locals'
p4726
(dp4727
S'fromlist'
p4728
S"('Gravatar',)"
p4729
sS'name'
p4730
S"'pyGravatar'"
p4731
sg62
S'-1'
p4732
sS'self'
p4733
S'<gluon.custom_import._Web2pyImporter object at 0x02F713B0>'
p4734
sS'globals'
p4735
S"{'A': <class 'gluon.html.A'>, 'Auth': <class 'gluon.tools.Auth'>, 'B': <class 'gluon.html.B'>, 'BEAUTIFY': <class 'gluon.html.BEAUTIFY'>, 'BODY': <class 'gluon.html.BODY'>, 'BR': <class 'gluon.html.BR'>, 'BUTTON': <class 'gluon.html.BUTTON'>, 'CAT': <class 'gluon.html.CAT'>, 'CENTER': <class 'gluon.html.CENTER'>, 'CLEANUP': <class 'gluon.validators.CLEANUP'>, ...}"
p4736
sg4726
S"{'A': <class 'gluon.html.A'>, 'Auth': <class 'gluon.tools.Auth'>, 'B': <class 'gluon.html.B'>, 'BEAUTIFY': <class 'gluon.html.BEAUTIFY'>, 'BODY': <class 'gluon.html.BODY'>, 'BR': <class 'gluon.html.BR'>, 'BUTTON': <class 'gluon.html.BUTTON'>, 'CAT': <class 'gluon.html.CAT'>, 'CENTER': <class 'gluon.html.CENTER'>, 'CLEANUP': <class 'gluon.validators.CLEANUP'>, ...}"
p4737
sssS'traceback'
p4738
S'Traceback (most recent call last):\n  File "gluon/restricted.py", line 205, in restricted\n  File "C:\\web2py\\applications\\unioeste_code\\views\\default/index.html", line 90, in <module>\n  File "gluon/custom_import.py", line 293, in __call__\n  File "gluon/custom_import.py", line 78, in __call__\nImportError: No module named pyGravatar\n'
p4739
s.