(dp1
S'output'
p2
S"<type 'exceptions.TypeError'> write() takes at most 3 arguments (4 given)"
p3
sS'layer'
p4
S'C:\\web2py\\applications\\unioeste_code\\views\\default/index.html'
p5
sS'code'
p6
S'response.write(\'<!DOCTYPE html>\\r\\n<html lang="en">\\r\\n  <head>\\r\\n    <meta charset="utf-8">\\r\\n    <title>\', escape=False)\nresponse.write(response.title or request.application)\nresponse.write(\'</title>\\r\\n    <meta name="viewport" content="width=device-width, initial-scale=1.0">\\r\\n    <meta name="description" content="">\\r\\n    <meta name="author" content="">\\r\\n\\r\\n    <!-- Le HTML5 shim, for IE6-8 support of HTML5 elements -->\\r\\n    <!--[if lt IE 9]>\\r\\n      <script src="http://html5shim.googlecode.com/svn/trunk/html5.js"></script>\\r\\n    <![endif]-->\\r\\n\\r\\n    <!-- Le fav and touch icons -->\\r\\n    <link rel="shortcut icon" href="../assets/ico/favicon.ico">\\r\\n    <link rel="apple-touch-icon-precomposed" sizes="144x144" href="../assets/ico/apple-touch-icon-144-precomposed.png">\\r\\n    <link rel="apple-touch-icon-precomposed" sizes="114x114" href="../assets/ico/apple-touch-icon-114-precomposed.png">\\r\\n    <link rel="apple-touch-icon-precomposed" sizes="72x72" href="../assets/ico/apple-touch-icon-72-precomposed.png">\\r\\n    <link rel="apple-touch-icon-precomposed" href="../assets/ico/apple-touch-icon-57-precomposed.png">\\r\\n\\r\\n    <!-- include stylesheets -->\\r\\n\\r\\n    <link href="/unioeste_code/static/css/bootstrap.css" rel="stylesheet">\\r\\n    <link href="/unioeste_code/static/css/bootstrap-responsive.css" rel="stylesheet">\\r\\n    <script src="/unioeste_code/static/js/jquery.js" type="text/javascript"></script>\\r\\n    <script src="/unioeste_code/static/js/bootstrap.js" type="text/javascript"></script>\\r\\n\\r\\n    <!-- Distancia do topo pro layout-->\\r\\n      <style>\\r\\n      body {\\r\\n        padding-top: 60px; /* 60px to make the container go all the way to the bottom of the topbar */\\r\\n      }\\r\\n      </style>\\r\\n\\r\\n      <!-- Le CSS customizado, font e tals-->\\r\\n      <link href="/unioeste_code/static/css/font_style.css" rel="stylesheet">\\r\\n\\r\\n  </head>\\r\\n\\r\\n  <body>\\r\\n\\r\\n    <div class="navbar navbar-fixed-top">\\r\\n      <div class="navbar-inner">\\r\\n        <div class="container">\\r\\n          <a class="btn btn-navbar" data-toggle="collapse" data-target=".nav-collapse">\\r\\n            <span class="icon-bar"></span>\\r\\n            <span class="icon-bar"></span>\\r\\n            <span class="icon-bar"></span>\\r\\n          </a>\\r\\n          <a class="brand" href="\', escape=False)\nresponse.write(URL(\'index\'))\nresponse.write(\'">\', escape=False)\nresponse.write(response.title or request.application)\nresponse.write(\'</a>\\r\\n          <div class="nav-collapse">\\r\\n          <ul class="nav pull-right">\\r\\n            <li class="divider-vertical"></li>\\r\\n            <li class="uc_topbar"><a href="#">Sobre</a></li>\\r\\n            <li class="divider-vertical"></li>\\r\\n            <li class="uc_topbar"><a href="#">Login!</a></li>\\r\\n            <li class="divider-vertical"></li>\\r\\n\\r\\n<!-- Drop Down Login\\r\\n            <li class="dropdown">\\r\\n              <a href="#" class="dropdown-toggle" data-toggle="dropdown">Dropdown <b class="caret"></b></a>\\r\\n              <ul class="dropdown-menu">\\r\\n                <li><a href="#">Action</a></li>\\r\\n                <li><a href="#">Another action</a></li>\\r\\n                <li><a href="#">Something else here</a></li>\\r\\n                <li class="divider"></li>\\r\\n                <li><a href="#">Separated link</a></li>\\r\\n              </ul>\\r\\n            </li>\\r\\n          </ul>\\r\\n-->\\r\\n          </div><!--/.nav-collapse -->\\r\\n        </div>\\r\\n      </div>\\r\\n    </div>\\r\\n\\r\\n<!-- Corpo principal da p\\xc3\\xa1gina! -->\\r\\n\\r\\n    <div class="container">\\r\\n      \', escape=False)\nresponse.write(\'\\r\\n      \', escape=False)\nresponse.write(\'\\n\\n\\n\', escape=False)\nresponse.write(H1(T("Current Problems")))\nresponse.write(\'\\n\\n\', escape=False)\nfor problem in problems:\n    response.write(\'\\n<ul>\\n\', escape=False)\n    user = db(db.auth_user.id==problem.created_by).select().first()\n    response.write(\'\\n\', escape=False)\n    response.write(A(problem.title, _style="font-weight:bold;",_href=URL("Problem", args=problem.id)), " (" + user.first_name + " " + user.last_name + ") ", SPAN(prettydate(problem.created_on)))\n    response.write(\'\\n\\n\\n</ul>\\n\', escape=False)\n    pass\nresponse.write(\'\\n\\n\\n\\n\\n\', escape=False)\nresponse.write(\'\\r\\n      \', escape=False)\nresponse.write(\'\\r\\n\\r\\n    </div> <!-- /container -->\\r\\n\\r\\n  </body>\\r\\n</html>\\r\\n\\r\\n\', escape=False)'
p7
sS'snapshot'
p8
(dp9
S'exception'
p10
(dp11
S'__hash__'
p12
S"<method-wrapper '__hash__' of exceptions.TypeError object at 0x071B5288>"
p13
sS'__setattr__'
p14
S"<method-wrapper '__setattr__' of exceptions.TypeError object at 0x071B5288>"
p15
sS'__reduce_ex__'
p16
S'<built-in method __reduce_ex__ of exceptions.TypeError object at 0x071B5288>'
p17
sS'__getslice__'
p18
S"<method-wrapper '__getslice__' of exceptions.TypeError object at 0x071B5288>"
p19
sS'__getitem__'
p20
S"<method-wrapper '__getitem__' of exceptions.TypeError object at 0x071B5288>"
p21
sS'__setstate__'
p22
S'<built-in method __setstate__ of exceptions.TypeError object at 0x071B5288>'
p23
sS'__reduce__'
p24
S'<built-in method __reduce__ of exceptions.TypeError object at 0x071B5288>'
p25
sS'__str__'
p26
S"<method-wrapper '__str__' of exceptions.TypeError object at 0x071B5288>"
p27
sS'args'
p28
S"('write() takes at most 3 arguments (4 given)',)"
p29
sS'__getattribute__'
p30
S"<method-wrapper '__getattribute__' of exceptions.TypeError object at 0x071B5288>"
p31
sS'__class__'
p32
S"<type 'exceptions.TypeError'>"
p33
sS'__delattr__'
p34
S"<method-wrapper '__delattr__' of exceptions.TypeError object at 0x071B5288>"
p35
sS'__repr__'
p36
S"<method-wrapper '__repr__' of exceptions.TypeError object at 0x071B5288>"
p37
sS'__dict__'
p38
S'{}'
p39
sS'__doc__'
p40
S"'Inappropriate argument type.'"
p41
sS'__init__'
p42
S"<method-wrapper '__init__' of exceptions.TypeError object at 0x071B5288>"
p43
sS'__new__'
p44
S'<built-in method __new__ of type object at 0x1E1CCD78>'
p45
ssS'evalue'
p46
S'write() takes at most 3 arguments (4 given)'
p47
sS'request'
p48
ccopy_reg
_reconstructor
p49
(cgluon.html
BEAUTIFY
p50
c__builtin__
object
p51
NtRp52
(dp53
S'attributes'
p54
(dp55
sS'components'
p56
(lp57
g49
(cgluon.html
TABLE
p58
g51
NtRp59
(dp60
g54
(dp61
S'level'
p62
I5
ssS'parent'
p63
Nsg56
(lp64
g49
(cgluon.html
TR
p65
g51
NtRp66
(dp67
g54
(dp68
sg63
g59
sg56
(lp69
g49
(cgluon.html
TD
p70
g51
NtRp71
(dp72
g54
(dp73
S'_style'
p74
S'font-weight:bold;vertical-align:top'
p75
ssg63
g66
sg56
(lp76
S'ajax'
p77
asbag49
(g70
g51
NtRp78
(dp79
g54
(dp80
S'_valign'
p81
S'top'
p82
ssg63
g66
sg56
(lp83
S':'
asbag49
(g70
g51
NtRp84
(dp85
g54
(dp86
sg63
g66
sg56
(lp87
g49
(g50
g51
NtRp88
(dp89
g54
(dp90
g62
I5
ssg63
g84
sg56
(lp91
S'False'
p92
asbasbasbag49
(g65
g51
NtRp93
(dp94
g54
(dp95
sg63
g59
sg56
(lp96
g49
(g70
g51
NtRp97
(dp98
g54
(dp99
g74
g75
ssg63
g93
sg56
(lp100
S'application'
p101
asbag49
(g70
g51
NtRp102
(dp103
g54
(dp104
g81
g82
ssg63
g93
sg56
(lp105
S':'
asbag49
(g70
g51
NtRp106
(dp107
g54
(dp108
sg63
g93
sg56
(lp109
g49
(g50
g51
NtRp110
(dp111
g54
(dp112
g62
I5
ssg63
g106
sg56
(lp113
S'unioeste_code'
p114
asbasbasbag49
(g65
g51
NtRp115
(dp116
g54
(dp117
sg63
g59
sg56
(lp118
g49
(g70
g51
NtRp119
(dp120
g54
(dp121
g74
g75
ssg63
g115
sg56
(lp122
g28
asbag49
(g70
g51
NtRp123
(dp124
g54
(dp125
g81
g82
ssg63
g115
sg56
(lp126
S':'
asbag49
(g70
g51
NtRp127
(dp128
g54
(dp129
sg63
g115
sg56
(lp130
g49
(g50
g51
NtRp131
(dp132
g54
(dp133
g62
I5
ssg63
g127
sg56
(lp134
g49
(g58
g51
NtRp135
(dp136
g54
(dp137
g62
I4
ssg63
Nsg56
(lp138
sbasbasbasbag49
(g65
g51
NtRp139
(dp140
g54
(dp141
sg63
g59
sg56
(lp142
g49
(g70
g51
NtRp143
(dp144
g54
(dp145
g74
g75
ssg63
g139
sg56
(lp146
S'body'
p147
asbag49
(g70
g51
NtRp148
(dp149
g54
(dp150
g81
g82
ssg63
g139
sg56
(lp151
S':'
asbag49
(g70
g51
NtRp152
(dp153
g54
(dp154
sg63
g139
sg56
(lp155
g49
(g50
g51
NtRp156
(dp157
g54
(dp158
g62
I5
ssg63
g152
sg56
(lp159
S'<cStringIO.StringO object at 0x077C2EC0>'
p160
asbasbasbag49
(g65
g51
NtRp161
(dp162
g54
(dp163
sg63
g59
sg56
(lp164
g49
(g70
g51
NtRp165
(dp166
g54
(dp167
g74
g75
ssg63
g161
sg56
(lp168
S'client'
p169
asbag49
(g70
g51
NtRp170
(dp171
g54
(dp172
g81
g82
ssg63
g161
sg56
(lp173
S':'
asbag49
(g70
g51
NtRp174
(dp175
g54
(dp176
sg63
g161
sg56
(lp177
g49
(g50
g51
NtRp178
(dp179
g54
(dp180
g62
I5
ssg63
g174
sg56
(lp181
S'127.0.0.1'
p182
asbasbasbag49
(g65
g51
NtRp183
(dp184
g54
(dp185
sg63
g59
sg56
(lp186
g49
(g70
g51
NtRp187
(dp188
g54
(dp189
g74
g75
ssg63
g183
sg56
(lp190
S'controller'
p191
asbag49
(g70
g51
NtRp192
(dp193
g54
(dp194
g81
g82
ssg63
g183
sg56
(lp195
S':'
asbag49
(g70
g51
NtRp196
(dp197
g54
(dp198
sg63
g183
sg56
(lp199
g49
(g50
g51
NtRp200
(dp201
g54
(dp202
g62
I5
ssg63
g196
sg56
(lp203
S'default'
p204
asbasbasbag49
(g65
g51
NtRp205
(dp206
g54
(dp207
sg63
g59
sg56
(lp208
g49
(g70
g51
NtRp209
(dp210
g54
(dp211
g74
g75
ssg63
g205
sg56
(lp212
S'cookies'
p213
asbag49
(g70
g51
NtRp214
(dp215
g54
(dp216
g81
g82
ssg63
g205
sg56
(lp217
S':'
asbag49
(g70
g51
NtRp218
(dp219
g54
(dp220
sg63
g205
sg56
(lp221
g49
(g50
g51
NtRp222
(dp223
g54
(dp224
g62
I5
ssg63
g218
sg56
(lp225
g49
(g58
g51
NtRp226
(dp227
g54
(dp228
g62
I4
ssg63
Nsg56
(lp229
g49
(g65
g51
NtRp230
(dp231
g54
(dp232
sg63
g226
sg56
(lp233
g49
(g70
g51
NtRp234
(dp235
g54
(dp236
g74
g75
ssg63
g230
sg56
(lp237
S'session_id_admin'
p238
asbag49
(g70
g51
NtRp239
(dp240
g54
(dp241
g81
g82
ssg63
g230
sg56
(lp242
S':'
asbag49
(g70
g51
NtRp243
(dp244
g54
(dp245
sg63
g230
sg56
(lp246
g49
(g50
g51
NtRp247
(dp248
g54
(dp249
g62
I4
ssg63
g243
sg56
(lp250
g49
(g58
g51
NtRp251
(dp252
g54
(dp253
g62
I3
ssg63
Nsg56
(lp254
g49
(g65
g51
NtRp255
(dp256
g54
(dp257
sg63
g251
sg56
(lp258
g49
(g70
g51
NtRp259
(dp260
g54
(dp261
g74
g75
ssg63
g255
sg56
(lp262
S'comment'
p263
asbag49
(g70
g51
NtRp264
(dp265
g54
(dp266
g81
g82
ssg63
g255
sg56
(lp267
S':'
asbag49
(g70
g51
NtRp268
(dp269
g54
(dp270
sg63
g255
sg56
(lp271
g49
(g50
g51
NtRp272
(dp273
g54
(dp274
g62
I3
ssg63
g268
sg56
(lp275
S''
asbasbasbag49
(g65
g51
NtRp276
(dp277
g54
(dp278
sg63
g251
sg56
(lp279
g49
(g70
g51
NtRp280
(dp281
g54
(dp282
g74
g75
ssg63
g276
sg56
(lp283
S'domain'
p284
asbag49
(g70
g51
NtRp285
(dp286
g54
(dp287
g81
g82
ssg63
g276
sg56
(lp288
S':'
asbag49
(g70
g51
NtRp289
(dp290
g54
(dp291
sg63
g276
sg56
(lp292
g49
(g50
g51
NtRp293
(dp294
g54
(dp295
g62
I3
ssg63
g289
sg56
(lp296
S''
asbasbasbag49
(g65
g51
NtRp297
(dp298
g54
(dp299
sg63
g251
sg56
(lp300
g49
(g70
g51
NtRp301
(dp302
g54
(dp303
g74
g75
ssg63
g297
sg56
(lp304
S'expires'
p305
asbag49
(g70
g51
NtRp306
(dp307
g54
(dp308
g81
g82
ssg63
g297
sg56
(lp309
S':'
asbag49
(g70
g51
NtRp310
(dp311
g54
(dp312
sg63
g297
sg56
(lp313
g49
(g50
g51
NtRp314
(dp315
g54
(dp316
g62
I3
ssg63
g310
sg56
(lp317
S''
asbasbasbag49
(g65
g51
NtRp318
(dp319
g54
(dp320
sg63
g251
sg56
(lp321
g49
(g70
g51
NtRp322
(dp323
g54
(dp324
g74
g75
ssg63
g318
sg56
(lp325
S'max-age'
p326
asbag49
(g70
g51
NtRp327
(dp328
g54
(dp329
g81
g82
ssg63
g318
sg56
(lp330
S':'
asbag49
(g70
g51
NtRp331
(dp332
g54
(dp333
sg63
g318
sg56
(lp334
g49
(g50
g51
NtRp335
(dp336
g54
(dp337
g62
I3
ssg63
g331
sg56
(lp338
S''
asbasbasbag49
(g65
g51
NtRp339
(dp340
g54
(dp341
sg63
g251
sg56
(lp342
g49
(g70
g51
NtRp343
(dp344
g54
(dp345
g74
g75
ssg63
g339
sg56
(lp346
S'path'
p347
asbag49
(g70
g51
NtRp348
(dp349
g54
(dp350
g81
g82
ssg63
g339
sg56
(lp351
S':'
asbag49
(g70
g51
NtRp352
(dp353
g54
(dp354
sg63
g339
sg56
(lp355
g49
(g50
g51
NtRp356
(dp357
g54
(dp358
g62
I3
ssg63
g352
sg56
(lp359
S''
asbasbasbag49
(g65
g51
NtRp360
(dp361
g54
(dp362
sg63
g251
sg56
(lp363
g49
(g70
g51
NtRp364
(dp365
g54
(dp366
g74
g75
ssg63
g360
sg56
(lp367
S'secure'
p368
asbag49
(g70
g51
NtRp369
(dp370
g54
(dp371
g81
g82
ssg63
g360
sg56
(lp372
S':'
asbag49
(g70
g51
NtRp373
(dp374
g54
(dp375
sg63
g360
sg56
(lp376
g49
(g50
g51
NtRp377
(dp378
g54
(dp379
g62
I3
ssg63
g373
sg56
(lp380
S''
asbasbasbag49
(g65
g51
NtRp381
(dp382
g54
(dp383
sg63
g251
sg56
(lp384
g49
(g70
g51
NtRp385
(dp386
g54
(dp387
g74
g75
ssg63
g381
sg56
(lp388
S'version'
p389
asbag49
(g70
g51
NtRp390
(dp391
g54
(dp392
g81
g82
ssg63
g381
sg56
(lp393
S':'
asbag49
(g70
g51
NtRp394
(dp395
g54
(dp396
sg63
g381
sg56
(lp397
g49
(g50
g51
NtRp398
(dp399
g54
(dp400
g62
I3
ssg63
g394
sg56
(lp401
S''
asbasbasbasbasbasbasbag49
(g65
g51
NtRp402
(dp403
g54
(dp404
sg63
g226
sg56
(lp405
g49
(g70
g51
NtRp406
(dp407
g54
(dp408
g74
g75
ssg63
g402
sg56
(lp409
S'session_id_unioeste_code'
p410
asbag49
(g70
g51
NtRp411
(dp412
g54
(dp413
g81
g82
ssg63
g402
sg56
(lp414
S':'
asbag49
(g70
g51
NtRp415
(dp416
g54
(dp417
sg63
g402
sg56
(lp418
g49
(g50
g51
NtRp419
(dp420
g54
(dp421
g62
I4
ssg63
g415
sg56
(lp422
g49
(g58
g51
NtRp423
(dp424
g54
(dp425
g62
I3
ssg63
Nsg56
(lp426
g49
(g65
g51
NtRp427
(dp428
g54
(dp429
sg63
g423
sg56
(lp430
g49
(g70
g51
NtRp431
(dp432
g54
(dp433
g74
g75
ssg63
g427
sg56
(lp434
g263
asbag49
(g70
g51
NtRp435
(dp436
g54
(dp437
g81
g82
ssg63
g427
sg56
(lp438
S':'
asbag49
(g70
g51
NtRp439
(dp440
g54
(dp441
sg63
g427
sg56
(lp442
g49
(g50
g51
NtRp443
(dp444
g54
(dp445
g62
I3
ssg63
g439
sg56
(lp446
S''
asbasbasbag49
(g65
g51
NtRp447
(dp448
g54
(dp449
sg63
g423
sg56
(lp450
g49
(g70
g51
NtRp451
(dp452
g54
(dp453
g74
g75
ssg63
g447
sg56
(lp454
g284
asbag49
(g70
g51
NtRp455
(dp456
g54
(dp457
g81
g82
ssg63
g447
sg56
(lp458
S':'
asbag49
(g70
g51
NtRp459
(dp460
g54
(dp461
sg63
g447
sg56
(lp462
g49
(g50
g51
NtRp463
(dp464
g54
(dp465
g62
I3
ssg63
g459
sg56
(lp466
S''
asbasbasbag49
(g65
g51
NtRp467
(dp468
g54
(dp469
sg63
g423
sg56
(lp470
g49
(g70
g51
NtRp471
(dp472
g54
(dp473
g74
g75
ssg63
g467
sg56
(lp474
g305
asbag49
(g70
g51
NtRp475
(dp476
g54
(dp477
g81
g82
ssg63
g467
sg56
(lp478
S':'
asbag49
(g70
g51
NtRp479
(dp480
g54
(dp481
sg63
g467
sg56
(lp482
g49
(g50
g51
NtRp483
(dp484
g54
(dp485
g62
I3
ssg63
g479
sg56
(lp486
S''
asbasbasbag49
(g65
g51
NtRp487
(dp488
g54
(dp489
sg63
g423
sg56
(lp490
g49
(g70
g51
NtRp491
(dp492
g54
(dp493
g74
g75
ssg63
g487
sg56
(lp494
g326
asbag49
(g70
g51
NtRp495
(dp496
g54
(dp497
g81
g82
ssg63
g487
sg56
(lp498
S':'
asbag49
(g70
g51
NtRp499
(dp500
g54
(dp501
sg63
g487
sg56
(lp502
g49
(g50
g51
NtRp503
(dp504
g54
(dp505
g62
I3
ssg63
g499
sg56
(lp506
S''
asbasbasbag49
(g65
g51
NtRp507
(dp508
g54
(dp509
sg63
g423
sg56
(lp510
g49
(g70
g51
NtRp511
(dp512
g54
(dp513
g74
g75
ssg63
g507
sg56
(lp514
g347
asbag49
(g70
g51
NtRp515
(dp516
g54
(dp517
g81
g82
ssg63
g507
sg56
(lp518
S':'
asbag49
(g70
g51
NtRp519
(dp520
g54
(dp521
sg63
g507
sg56
(lp522
g49
(g50
g51
NtRp523
(dp524
g54
(dp525
g62
I3
ssg63
g519
sg56
(lp526
S''
asbasbasbag49
(g65
g51
NtRp527
(dp528
g54
(dp529
sg63
g423
sg56
(lp530
g49
(g70
g51
NtRp531
(dp532
g54
(dp533
g74
g75
ssg63
g527
sg56
(lp534
g368
asbag49
(g70
g51
NtRp535
(dp536
g54
(dp537
g81
g82
ssg63
g527
sg56
(lp538
S':'
asbag49
(g70
g51
NtRp539
(dp540
g54
(dp541
sg63
g527
sg56
(lp542
g49
(g50
g51
NtRp543
(dp544
g54
(dp545
g62
I3
ssg63
g539
sg56
(lp546
S''
asbasbasbag49
(g65
g51
NtRp547
(dp548
g54
(dp549
sg63
g423
sg56
(lp550
g49
(g70
g51
NtRp551
(dp552
g54
(dp553
g74
g75
ssg63
g547
sg56
(lp554
g389
asbag49
(g70
g51
NtRp555
(dp556
g54
(dp557
g81
g82
ssg63
g547
sg56
(lp558
S':'
asbag49
(g70
g51
NtRp559
(dp560
g54
(dp561
sg63
g547
sg56
(lp562
g49
(g50
g51
NtRp563
(dp564
g54
(dp565
g62
I3
ssg63
g559
sg56
(lp566
S''
asbasbasbasbasbasbasbag49
(g65
g51
NtRp567
(dp568
g54
(dp569
sg63
g226
sg56
(lp570
g49
(g70
g51
NtRp571
(dp572
g54
(dp573
g74
g75
ssg63
g567
sg56
(lp574
S'session_id_welcome'
p575
asbag49
(g70
g51
NtRp576
(dp577
g54
(dp578
g81
g82
ssg63
g567
sg56
(lp579
S':'
asbag49
(g70
g51
NtRp580
(dp581
g54
(dp582
sg63
g567
sg56
(lp583
g49
(g50
g51
NtRp584
(dp585
g54
(dp586
g62
I4
ssg63
g580
sg56
(lp587
g49
(g58
g51
NtRp588
(dp589
g54
(dp590
g62
I3
ssg63
Nsg56
(lp591
g49
(g65
g51
NtRp592
(dp593
g54
(dp594
sg63
g588
sg56
(lp595
g49
(g70
g51
NtRp596
(dp597
g54
(dp598
g74
g75
ssg63
g592
sg56
(lp599
g263
asbag49
(g70
g51
NtRp600
(dp601
g54
(dp602
g81
g82
ssg63
g592
sg56
(lp603
S':'
asbag49
(g70
g51
NtRp604
(dp605
g54
(dp606
sg63
g592
sg56
(lp607
g49
(g50
g51
NtRp608
(dp609
g54
(dp610
g62
I3
ssg63
g604
sg56
(lp611
S''
asbasbasbag49
(g65
g51
NtRp612
(dp613
g54
(dp614
sg63
g588
sg56
(lp615
g49
(g70
g51
NtRp616
(dp617
g54
(dp618
g74
g75
ssg63
g612
sg56
(lp619
g284
asbag49
(g70
g51
NtRp620
(dp621
g54
(dp622
g81
g82
ssg63
g612
sg56
(lp623
S':'
asbag49
(g70
g51
NtRp624
(dp625
g54
(dp626
sg63
g612
sg56
(lp627
g49
(g50
g51
NtRp628
(dp629
g54
(dp630
g62
I3
ssg63
g624
sg56
(lp631
S''
asbasbasbag49
(g65
g51
NtRp632
(dp633
g54
(dp634
sg63
g588
sg56
(lp635
g49
(g70
g51
NtRp636
(dp637
g54
(dp638
g74
g75
ssg63
g632
sg56
(lp639
g305
asbag49
(g70
g51
NtRp640
(dp641
g54
(dp642
g81
g82
ssg63
g632
sg56
(lp643
S':'
asbag49
(g70
g51
NtRp644
(dp645
g54
(dp646
sg63
g632
sg56
(lp647
g49
(g50
g51
NtRp648
(dp649
g54
(dp650
g62
I3
ssg63
g644
sg56
(lp651
S''
asbasbasbag49
(g65
g51
NtRp652
(dp653
g54
(dp654
sg63
g588
sg56
(lp655
g49
(g70
g51
NtRp656
(dp657
g54
(dp658
g74
g75
ssg63
g652
sg56
(lp659
g326
asbag49
(g70
g51
NtRp660
(dp661
g54
(dp662
g81
g82
ssg63
g652
sg56
(lp663
S':'
asbag49
(g70
g51
NtRp664
(dp665
g54
(dp666
sg63
g652
sg56
(lp667
g49
(g50
g51
NtRp668
(dp669
g54
(dp670
g62
I3
ssg63
g664
sg56
(lp671
S''
asbasbasbag49
(g65
g51
NtRp672
(dp673
g54
(dp674
sg63
g588
sg56
(lp675
g49
(g70
g51
NtRp676
(dp677
g54
(dp678
g74
g75
ssg63
g672
sg56
(lp679
g347
asbag49
(g70
g51
NtRp680
(dp681
g54
(dp682
g81
g82
ssg63
g672
sg56
(lp683
S':'
asbag49
(g70
g51
NtRp684
(dp685
g54
(dp686
sg63
g672
sg56
(lp687
g49
(g50
g51
NtRp688
(dp689
g54
(dp690
g62
I3
ssg63
g684
sg56
(lp691
S''
asbasbasbag49
(g65
g51
NtRp692
(dp693
g54
(dp694
sg63
g588
sg56
(lp695
g49
(g70
g51
NtRp696
(dp697
g54
(dp698
g74
g75
ssg63
g692
sg56
(lp699
g368
asbag49
(g70
g51
NtRp700
(dp701
g54
(dp702
g81
g82
ssg63
g692
sg56
(lp703
S':'
asbag49
(g70
g51
NtRp704
(dp705
g54
(dp706
sg63
g692
sg56
(lp707
g49
(g50
g51
NtRp708
(dp709
g54
(dp710
g62
I3
ssg63
g704
sg56
(lp711
S''
asbasbasbag49
(g65
g51
NtRp712
(dp713
g54
(dp714
sg63
g588
sg56
(lp715
g49
(g70
g51
NtRp716
(dp717
g54
(dp718
g74
g75
ssg63
g712
sg56
(lp719
g389
asbag49
(g70
g51
NtRp720
(dp721
g54
(dp722
g81
g82
ssg63
g712
sg56
(lp723
S':'
asbag49
(g70
g51
NtRp724
(dp725
g54
(dp726
sg63
g712
sg56
(lp727
g49
(g50
g51
NtRp728
(dp729
g54
(dp730
g62
I3
ssg63
g724
sg56
(lp731
S''
asbasbasbasbasbasbasbasbasbasbasbag49
(g65
g51
NtRp732
(dp733
g54
(dp734
sg63
g59
sg56
(lp735
g49
(g70
g51
NtRp736
(dp737
g54
(dp738
g74
g75
ssg63
g732
sg56
(lp739
S'env'
p740
asbag49
(g70
g51
NtRp741
(dp742
g54
(dp743
g81
g82
ssg63
g732
sg56
(lp744
S':'
asbag49
(g70
g51
NtRp745
(dp746
g54
(dp747
sg63
g732
sg56
(lp748
g49
(g50
g51
NtRp749
(dp750
g54
(dp751
g62
I5
ssg63
g745
sg56
(lp752
g49
(g58
g51
NtRp753
(dp754
g54
(dp755
g62
I4
ssg63
Nsg56
(lp756
g49
(g65
g51
NtRp757
(dp758
g54
(dp759
sg63
g753
sg56
(lp760
g49
(g70
g51
NtRp761
(dp762
g54
(dp763
g74
g75
ssg63
g757
sg56
(lp764
S'app_folders'
p765
asbag49
(g70
g51
NtRp766
(dp767
g54
(dp768
g81
g82
ssg63
g757
sg56
(lp769
S':'
asbag49
(g70
g51
NtRp770
(dp771
g54
(dp772
sg63
g757
sg56
(lp773
g49
(g50
g51
NtRp774
(dp775
g54
(dp776
g62
I4
ssg63
g770
sg56
(lp777
S"set(['C:\\\\web2py\\\\applications\\\\admin\\\\', 'C:\\\\web2py\\\\applications\\\\welcome\\\\', 'C:\\\\web2py\\\\applications\\\\unioeste_code\\\\'])"
p778
asbasbasbag49
(g65
g51
NtRp779
(dp780
g54
(dp781
sg63
g753
sg56
(lp782
g49
(g70
g51
NtRp783
(dp784
g54
(dp785
g74
g75
ssg63
g779
sg56
(lp786
S'applications_parent'
p787
asbag49
(g70
g51
NtRp788
(dp789
g54
(dp790
g81
g82
ssg63
g779
sg56
(lp791
S':'
asbag49
(g70
g51
NtRp792
(dp793
g54
(dp794
sg63
g779
sg56
(lp795
g49
(g50
g51
NtRp796
(dp797
g54
(dp798
g62
I4
ssg63
g792
sg56
(lp799
S'C:\\web2py'
p800
asbasbasbag49
(g65
g51
NtRp801
(dp802
g54
(dp803
sg63
g753
sg56
(lp804
g49
(g70
g51
NtRp805
(dp806
g54
(dp807
g74
g75
ssg63
g801
sg56
(lp808
S'cmd_args'
p809
asbag49
(g70
g51
NtRp810
(dp811
g54
(dp812
g81
g82
ssg63
g801
sg56
(lp813
S':'
asbag49
(g70
g51
NtRp814
(dp815
g54
(dp816
sg63
g801
sg56
(lp817
g49
(g50
g51
NtRp818
(dp819
g54
(dp820
g62
I4
ssg63
g814
sg56
(lp821
g49
(g58
g51
NtRp822
(dp823
g54
(dp824
g62
I3
ssg63
Nsg56
(lp825
sbasbasbasbag49
(g65
g51
NtRp826
(dp827
g54
(dp828
sg63
g753
sg56
(lp829
g49
(g70
g51
NtRp830
(dp831
g54
(dp832
g74
g75
ssg63
g826
sg56
(lp833
S'cmd_options'
p834
asbag49
(g70
g51
NtRp835
(dp836
g54
(dp837
g81
g82
ssg63
g826
sg56
(lp838
S':'
asbag49
(g70
g51
NtRp839
(dp840
g54
(dp841
sg63
g826
sg56
(lp842
g49
(g50
g51
NtRp843
(dp844
g54
(dp845
g62
I4
ssg63
g839
sg56
(lp846
S"<Values at 0x325c300: {'verbose': False, 'ip': '127.0.0.1', 'shutdown_timeout': 5, 'taskbar': False, 'nocron': False, 'pid_filename': 'httpserver.pid', 'maxthreads': None, 'softcron': False, 'server_name': 'Pedro-PC', 'bpython': False, 'nogui': False, 'port': 8000, 'extcron': False, 'debuglevel': 30, 'test': None, 'folder': 'C:\\\\web2py', 'config': '', 'import_models': False, 'winservice': '', 'shell': None, 'run': '', 'log_filename': 'httpserver.log', 'args': [''], 'socket_timeout': 5, 'ssl_ca_certificate': None, 'scheduler': None, 'profiler_filename': None, 'ssl_private_key': '', 'password': '<ask>', 'request_queue_size': 5, 'ssl_certificate': '', 'cronjob': False, 'numthreads': None, 'quiet': False, 'interfaces': None, 'minthreads': None, 'timeout': 10, 'plain': False, 'nobanner': False}>"
p847
asbasbasbag49
(g65
g51
NtRp848
(dp849
g54
(dp850
sg63
g753
sg56
(lp851
g49
(g70
g51
NtRp852
(dp853
g54
(dp854
g74
g75
ssg63
g848
sg56
(lp855
S'db_sessions'
p856
asbag49
(g70
g51
NtRp857
(dp858
g54
(dp859
g81
g82
ssg63
g848
sg56
(lp860
S':'
asbag49
(g70
g51
NtRp861
(dp862
g54
(dp863
sg63
g848
sg56
(lp864
g49
(g50
g51
NtRp865
(dp866
g54
(dp867
g62
I4
ssg63
g861
sg56
(lp868
S'set([])'
p869
asbasbasbag49
(g65
g51
NtRp870
(dp871
g54
(dp872
sg63
g753
sg56
(lp873
g49
(g70
g51
NtRp874
(dp875
g54
(dp876
g74
g75
ssg63
g870
sg56
(lp877
S'debugging'
p878
asbag49
(g70
g51
NtRp879
(dp880
g54
(dp881
g81
g82
ssg63
g870
sg56
(lp882
S':'
asbag49
(g70
g51
NtRp883
(dp884
g54
(dp885
sg63
g870
sg56
(lp886
g49
(g50
g51
NtRp887
(dp888
g54
(dp889
g62
I4
ssg63
g883
sg56
(lp890
g92
asbasbasbag49
(g65
g51
NtRp891
(dp892
g54
(dp893
sg63
g753
sg56
(lp894
g49
(g70
g51
NtRp895
(dp896
g54
(dp897
g74
g75
ssg63
g891
sg56
(lp898
S'gluon_parent'
p899
asbag49
(g70
g51
NtRp900
(dp901
g54
(dp902
g81
g82
ssg63
g891
sg56
(lp903
S':'
asbag49
(g70
g51
NtRp904
(dp905
g54
(dp906
sg63
g891
sg56
(lp907
g49
(g50
g51
NtRp908
(dp909
g54
(dp910
g62
I4
ssg63
g904
sg56
(lp911
S'C:\\web2py'
p912
asbasbasbag49
(g65
g51
NtRp913
(dp914
g54
(dp915
sg63
g753
sg56
(lp916
g49
(g70
g51
NtRp917
(dp918
g54
(dp919
g74
g75
ssg63
g913
sg56
(lp920
S'http_accept'
p921
asbag49
(g70
g51
NtRp922
(dp923
g54
(dp924
g81
g82
ssg63
g913
sg56
(lp925
S':'
asbag49
(g70
g51
NtRp926
(dp927
g54
(dp928
sg63
g913
sg56
(lp929
g49
(g50
g51
NtRp930
(dp931
g54
(dp932
g62
I4
ssg63
g926
sg56
(lp933
S'text/html,application/xhtml+xml,application/xml;q=0.9,*/*;q=0.8'
p934
asbasbasbag49
(g65
g51
NtRp935
(dp936
g54
(dp937
sg63
g753
sg56
(lp938
g49
(g70
g51
NtRp939
(dp940
g54
(dp941
g74
g75
ssg63
g935
sg56
(lp942
S'http_accept_charset'
p943
asbag49
(g70
g51
NtRp944
(dp945
g54
(dp946
g81
g82
ssg63
g935
sg56
(lp947
S':'
asbag49
(g70
g51
NtRp948
(dp949
g54
(dp950
sg63
g935
sg56
(lp951
g49
(g50
g51
NtRp952
(dp953
g54
(dp954
g62
I4
ssg63
g948
sg56
(lp955
S'ISO-8859-1,utf-8;q=0.7,*;q=0.3'
p956
asbasbasbag49
(g65
g51
NtRp957
(dp958
g54
(dp959
sg63
g753
sg56
(lp960
g49
(g70
g51
NtRp961
(dp962
g54
(dp963
g74
g75
ssg63
g957
sg56
(lp964
S'http_accept_encoding'
p965
asbag49
(g70
g51
NtRp966
(dp967
g54
(dp968
g81
g82
ssg63
g957
sg56
(lp969
S':'
asbag49
(g70
g51
NtRp970
(dp971
g54
(dp972
sg63
g957
sg56
(lp973
g49
(g50
g51
NtRp974
(dp975
g54
(dp976
g62
I4
ssg63
g970
sg56
(lp977
S'gzip,deflate,sdch'
p978
asbasbasbag49
(g65
g51
NtRp979
(dp980
g54
(dp981
sg63
g753
sg56
(lp982
g49
(g70
g51
NtRp983
(dp984
g54
(dp985
g74
g75
ssg63
g979
sg56
(lp986
S'http_accept_language'
p987
asbag49
(g70
g51
NtRp988
(dp989
g54
(dp990
g81
g82
ssg63
g979
sg56
(lp991
S':'
asbag49
(g70
g51
NtRp992
(dp993
g54
(dp994
sg63
g979
sg56
(lp995
g49
(g50
g51
NtRp996
(dp997
g54
(dp998
g62
I4
ssg63
g992
sg56
(lp999
S'pt-BR,pt;q=0.8,en-US;q=0.6,en;q=0.4'
p1000
asbasbasbag49
(g65
g51
NtRp1001
(dp1002
g54
(dp1003
sg63
g753
sg56
(lp1004
g49
(g70
g51
NtRp1005
(dp1006
g54
(dp1007
g74
g75
ssg63
g1001
sg56
(lp1008
S'http_cache_control'
p1009
asbag49
(g70
g51
NtRp1010
(dp1011
g54
(dp1012
g81
g82
ssg63
g1001
sg56
(lp1013
S':'
asbag49
(g70
g51
NtRp1014
(dp1015
g54
(dp1016
sg63
g1001
sg56
(lp1017
g49
(g50
g51
NtRp1018
(dp1019
g54
(dp1020
g62
I4
ssg63
g1014
sg56
(lp1021
S'max-age=0'
p1022
asbasbasbag49
(g65
g51
NtRp1023
(dp1024
g54
(dp1025
sg63
g753
sg56
(lp1026
g49
(g70
g51
NtRp1027
(dp1028
g54
(dp1029
g74
g75
ssg63
g1023
sg56
(lp1030
S'http_connection'
p1031
asbag49
(g70
g51
NtRp1032
(dp1033
g54
(dp1034
g81
g82
ssg63
g1023
sg56
(lp1035
S':'
asbag49
(g70
g51
NtRp1036
(dp1037
g54
(dp1038
sg63
g1023
sg56
(lp1039
g49
(g50
g51
NtRp1040
(dp1041
g54
(dp1042
g62
I4
ssg63
g1036
sg56
(lp1043
S'keep-alive'
p1044
asbasbasbag49
(g65
g51
NtRp1045
(dp1046
g54
(dp1047
sg63
g753
sg56
(lp1048
g49
(g70
g51
NtRp1049
(dp1050
g54
(dp1051
g74
g75
ssg63
g1045
sg56
(lp1052
S'http_cookie'
p1053
asbag49
(g70
g51
NtRp1054
(dp1055
g54
(dp1056
g81
g82
ssg63
g1045
sg56
(lp1057
S':'
asbag49
(g70
g51
NtRp1058
(dp1059
g54
(dp1060
sg63
g1045
sg56
(lp1061
g49
(g50
g51
NtRp1062
(dp1063
g54
(dp1064
g62
I4
ssg63
g1058
sg56
(lp1065
S'session_id_welcome=127.0.0.1-c2af5b44-a172-4105-aab0-657c8bcc3912; session_id_unioeste_code=127.0.0.1-d63b25dc-54ab-4837-86c6-738372b4cce3; session_id_admin=127.0.0.1-769ea8f8-1436-42b9-b141-df8ea05cf10f'
p1066
asbasbasbag49
(g65
g51
NtRp1067
(dp1068
g54
(dp1069
sg63
g753
sg56
(lp1070
g49
(g70
g51
NtRp1071
(dp1072
g54
(dp1073
g74
g75
ssg63
g1067
sg56
(lp1074
S'http_dnt'
p1075
asbag49
(g70
g51
NtRp1076
(dp1077
g54
(dp1078
g81
g82
ssg63
g1067
sg56
(lp1079
S':'
asbag49
(g70
g51
NtRp1080
(dp1081
g54
(dp1082
sg63
g1067
sg56
(lp1083
g49
(g50
g51
NtRp1084
(dp1085
g54
(dp1086
g62
I4
ssg63
g1080
sg56
(lp1087
S'1'
asbasbasbag49
(g65
g51
NtRp1088
(dp1089
g54
(dp1090
sg63
g753
sg56
(lp1091
g49
(g70
g51
NtRp1092
(dp1093
g54
(dp1094
g74
g75
ssg63
g1088
sg56
(lp1095
S'http_host'
p1096
asbag49
(g70
g51
NtRp1097
(dp1098
g54
(dp1099
g81
g82
ssg63
g1088
sg56
(lp1100
S':'
asbag49
(g70
g51
NtRp1101
(dp1102
g54
(dp1103
sg63
g1088
sg56
(lp1104
g49
(g50
g51
NtRp1105
(dp1106
g54
(dp1107
g62
I4
ssg63
g1101
sg56
(lp1108
S'127.0.0.1:8000'
p1109
asbasbasbag49
(g65
g51
NtRp1110
(dp1111
g54
(dp1112
sg63
g753
sg56
(lp1113
g49
(g70
g51
NtRp1114
(dp1115
g54
(dp1116
g74
g75
ssg63
g1110
sg56
(lp1117
S'http_user_agent'
p1118
asbag49
(g70
g51
NtRp1119
(dp1120
g54
(dp1121
g81
g82
ssg63
g1110
sg56
(lp1122
S':'
asbag49
(g70
g51
NtRp1123
(dp1124
g54
(dp1125
sg63
g1110
sg56
(lp1126
g49
(g50
g51
NtRp1127
(dp1128
g54
(dp1129
g62
I4
ssg63
g1123
sg56
(lp1130
S'Mozilla/5.0 (Windows NT 6.1; WOW64) AppleWebKit/536.11 (KHTML, like Gecko) Chrome/20.0.1132.57 Safari/536.11'
p1131
asbasbasbag49
(g65
g51
NtRp1132
(dp1133
g54
(dp1134
sg63
g753
sg56
(lp1135
g49
(g70
g51
NtRp1136
(dp1137
g54
(dp1138
g74
g75
ssg63
g1132
sg56
(lp1139
S'is_jython'
p1140
asbag49
(g70
g51
NtRp1141
(dp1142
g54
(dp1143
g81
g82
ssg63
g1132
sg56
(lp1144
S':'
asbag49
(g70
g51
NtRp1145
(dp1146
g54
(dp1147
sg63
g1132
sg56
(lp1148
g49
(g50
g51
NtRp1149
(dp1150
g54
(dp1151
g62
I4
ssg63
g1145
sg56
(lp1152
g92
asbasbasbag49
(g65
g51
NtRp1153
(dp1154
g54
(dp1155
sg63
g753
sg56
(lp1156
g49
(g70
g51
NtRp1157
(dp1158
g54
(dp1159
g74
g75
ssg63
g1153
sg56
(lp1160
S'is_pypy'
p1161
asbag49
(g70
g51
NtRp1162
(dp1163
g54
(dp1164
g81
g82
ssg63
g1153
sg56
(lp1165
S':'
asbag49
(g70
g51
NtRp1166
(dp1167
g54
(dp1168
sg63
g1153
sg56
(lp1169
g49
(g50
g51
NtRp1170
(dp1171
g54
(dp1172
g62
I4
ssg63
g1166
sg56
(lp1173
g92
asbasbasbag49
(g65
g51
NtRp1174
(dp1175
g54
(dp1176
sg63
g753
sg56
(lp1177
g49
(g70
g51
NtRp1178
(dp1179
g54
(dp1180
g74
g75
ssg63
g1174
sg56
(lp1181
S'path_info'
p1182
asbag49
(g70
g51
NtRp1183
(dp1184
g54
(dp1185
g81
g82
ssg63
g1174
sg56
(lp1186
S':'
asbag49
(g70
g51
NtRp1187
(dp1188
g54
(dp1189
sg63
g1174
sg56
(lp1190
g49
(g50
g51
NtRp1191
(dp1192
g54
(dp1193
g62
I4
ssg63
g1187
sg56
(lp1194
S'/unioeste_code/'
p1195
asbasbasbag49
(g65
g51
NtRp1196
(dp1197
g54
(dp1198
sg63
g753
sg56
(lp1199
g49
(g70
g51
NtRp1200
(dp1201
g54
(dp1202
g74
g75
ssg63
g1196
sg56
(lp1203
S'query_string'
p1204
asbag49
(g70
g51
NtRp1205
(dp1206
g54
(dp1207
g81
g82
ssg63
g1196
sg56
(lp1208
S':'
asbag49
(g70
g51
NtRp1209
(dp1210
g54
(dp1211
sg63
g1196
sg56
(lp1212
g49
(g50
g51
NtRp1213
(dp1214
g54
(dp1215
g62
I4
ssg63
g1209
sg56
(lp1216
S''
asbasbasbag49
(g65
g51
NtRp1217
(dp1218
g54
(dp1219
sg63
g753
sg56
(lp1220
g49
(g70
g51
NtRp1221
(dp1222
g54
(dp1223
g74
g75
ssg63
g1217
sg56
(lp1224
S'remote_addr'
p1225
asbag49
(g70
g51
NtRp1226
(dp1227
g54
(dp1228
g81
g82
ssg63
g1217
sg56
(lp1229
S':'
asbag49
(g70
g51
NtRp1230
(dp1231
g54
(dp1232
sg63
g1217
sg56
(lp1233
g49
(g50
g51
NtRp1234
(dp1235
g54
(dp1236
g62
I4
ssg63
g1230
sg56
(lp1237
g182
asbasbasbag49
(g65
g51
NtRp1238
(dp1239
g54
(dp1240
sg63
g753
sg56
(lp1241
g49
(g70
g51
NtRp1242
(dp1243
g54
(dp1244
g74
g75
ssg63
g1238
sg56
(lp1245
S'remote_port'
p1246
asbag49
(g70
g51
NtRp1247
(dp1248
g54
(dp1249
g81
g82
ssg63
g1238
sg56
(lp1250
S':'
asbag49
(g70
g51
NtRp1251
(dp1252
g54
(dp1253
sg63
g1238
sg56
(lp1254
g49
(g50
g51
NtRp1255
(dp1256
g54
(dp1257
g62
I4
ssg63
g1251
sg56
(lp1258
S'4692'
p1259
asbasbasbag49
(g65
g51
NtRp1260
(dp1261
g54
(dp1262
sg63
g753
sg56
(lp1263
g49
(g70
g51
NtRp1264
(dp1265
g54
(dp1266
g74
g75
ssg63
g1260
sg56
(lp1267
S'request_method'
p1268
asbag49
(g70
g51
NtRp1269
(dp1270
g54
(dp1271
g81
g82
ssg63
g1260
sg56
(lp1272
S':'
asbag49
(g70
g51
NtRp1273
(dp1274
g54
(dp1275
sg63
g1260
sg56
(lp1276
g49
(g50
g51
NtRp1277
(dp1278
g54
(dp1279
g62
I4
ssg63
g1273
sg56
(lp1280
S'GET'
p1281
asbasbasbag49
(g65
g51
NtRp1282
(dp1283
g54
(dp1284
sg63
g753
sg56
(lp1285
g49
(g70
g51
NtRp1286
(dp1287
g54
(dp1288
g74
g75
ssg63
g1282
sg56
(lp1289
S'script_name'
p1290
asbag49
(g70
g51
NtRp1291
(dp1292
g54
(dp1293
g81
g82
ssg63
g1282
sg56
(lp1294
S':'
asbag49
(g70
g51
NtRp1295
(dp1296
g54
(dp1297
sg63
g1282
sg56
(lp1298
g49
(g50
g51
NtRp1299
(dp1300
g54
(dp1301
g62
I4
ssg63
g1295
sg56
(lp1302
S''
asbasbasbag49
(g65
g51
NtRp1303
(dp1304
g54
(dp1305
sg63
g753
sg56
(lp1306
g49
(g70
g51
NtRp1307
(dp1308
g54
(dp1309
g74
g75
ssg63
g1303
sg56
(lp1310
S'server_name'
p1311
asbag49
(g70
g51
NtRp1312
(dp1313
g54
(dp1314
g81
g82
ssg63
g1303
sg56
(lp1315
S':'
asbag49
(g70
g51
NtRp1316
(dp1317
g54
(dp1318
sg63
g1303
sg56
(lp1319
g49
(g50
g51
NtRp1320
(dp1321
g54
(dp1322
g62
I4
ssg63
g1316
sg56
(lp1323
S'Pedro-PC'
p1324
asbasbasbag49
(g65
g51
NtRp1325
(dp1326
g54
(dp1327
sg63
g753
sg56
(lp1328
g49
(g70
g51
NtRp1329
(dp1330
g54
(dp1331
g74
g75
ssg63
g1325
sg56
(lp1332
S'server_port'
p1333
asbag49
(g70
g51
NtRp1334
(dp1335
g54
(dp1336
g81
g82
ssg63
g1325
sg56
(lp1337
S':'
asbag49
(g70
g51
NtRp1338
(dp1339
g54
(dp1340
sg63
g1325
sg56
(lp1341
g49
(g50
g51
NtRp1342
(dp1343
g54
(dp1344
g62
I4
ssg63
g1338
sg56
(lp1345
S'8000'
p1346
asbasbasbag49
(g65
g51
NtRp1347
(dp1348
g54
(dp1349
sg63
g753
sg56
(lp1350
g49
(g70
g51
NtRp1351
(dp1352
g54
(dp1353
g74
g75
ssg63
g1347
sg56
(lp1354
S'server_protocol'
p1355
asbag49
(g70
g51
NtRp1356
(dp1357
g54
(dp1358
g81
g82
ssg63
g1347
sg56
(lp1359
S':'
asbag49
(g70
g51
NtRp1360
(dp1361
g54
(dp1362
sg63
g1347
sg56
(lp1363
g49
(g50
g51
NtRp1364
(dp1365
g54
(dp1366
g62
I4
ssg63
g1360
sg56
(lp1367
S'HTTP/1.1'
p1368
asbasbasbag49
(g65
g51
NtRp1369
(dp1370
g54
(dp1371
sg63
g753
sg56
(lp1372
g49
(g70
g51
NtRp1373
(dp1374
g54
(dp1375
g74
g75
ssg63
g1369
sg56
(lp1376
S'server_software'
p1377
asbag49
(g70
g51
NtRp1378
(dp1379
g54
(dp1380
g81
g82
ssg63
g1369
sg56
(lp1381
S':'
asbag49
(g70
g51
NtRp1382
(dp1383
g54
(dp1384
sg63
g1369
sg56
(lp1385
g49
(g50
g51
NtRp1386
(dp1387
g54
(dp1388
g62
I4
ssg63
g1382
sg56
(lp1389
S'Rocket 1.2.4'
p1390
asbasbasbag49
(g65
g51
NtRp1391
(dp1392
g54
(dp1393
sg63
g753
sg56
(lp1394
g49
(g70
g51
NtRp1395
(dp1396
g54
(dp1397
g74
g75
ssg63
g1391
sg56
(lp1398
S'web2py_crontype'
p1399
asbag49
(g70
g51
NtRp1400
(dp1401
g54
(dp1402
g81
g82
ssg63
g1391
sg56
(lp1403
S':'
asbag49
(g70
g51
NtRp1404
(dp1405
g54
(dp1406
sg63
g1391
sg56
(lp1407
g49
(g50
g51
NtRp1408
(dp1409
g54
(dp1410
g62
I4
ssg63
g1404
sg56
(lp1411
S'hard'
p1412
asbasbasbag49
(g65
g51
NtRp1413
(dp1414
g54
(dp1415
sg63
g753
sg56
(lp1416
g49
(g70
g51
NtRp1417
(dp1418
g54
(dp1419
g74
g75
ssg63
g1413
sg56
(lp1420
S'web2py_path'
p1421
asbag49
(g70
g51
NtRp1422
(dp1423
g54
(dp1424
g81
g82
ssg63
g1413
sg56
(lp1425
S':'
asbag49
(g70
g51
NtRp1426
(dp1427
g54
(dp1428
sg63
g1413
sg56
(lp1429
g49
(g50
g51
NtRp1430
(dp1431
g54
(dp1432
g62
I4
ssg63
g1426
sg56
(lp1433
g800
asbasbasbag49
(g65
g51
NtRp1434
(dp1435
g54
(dp1436
sg63
g753
sg56
(lp1437
g49
(g70
g51
NtRp1438
(dp1439
g54
(dp1440
g74
g75
ssg63
g1434
sg56
(lp1441
S'web2py_version'
p1442
asbag49
(g70
g51
NtRp1443
(dp1444
g54
(dp1445
g81
g82
ssg63
g1434
sg56
(lp1446
S':'
asbag49
(g70
g51
NtRp1447
(dp1448
g54
(dp1449
sg63
g1434
sg56
(lp1450
g49
(g50
g51
NtRp1451
(dp1452
g54
(dp1453
g62
I4
ssg63
g1447
sg56
(lp1454
g49
(g58
g51
NtRp1455
(dp1456
g54
(dp1457
g62
I3
ssg63
Nsg56
(lp1458
g49
(g65
g51
NtRp1459
(dp1460
g54
(dp1461
sg63
g1455
sg56
(lp1462
g49
(g70
g51
NtRp1463
(dp1464
g54
(dp1465
sg63
g1459
sg56
(lp1466
g49
(g50
g51
NtRp1467
(dp1468
g54
(dp1469
g62
I3
ssg63
g1463
sg56
(lp1470
S'1'
asbasbasbag49
(g65
g51
NtRp1471
(dp1472
g54
(dp1473
sg63
g1455
sg56
(lp1474
g49
(g70
g51
NtRp1475
(dp1476
g54
(dp1477
sg63
g1471
sg56
(lp1478
g49
(g50
g51
NtRp1479
(dp1480
g54
(dp1481
g62
I3
ssg63
g1475
sg56
(lp1482
S'99'
p1483
asbasbasbag49
(g65
g51
NtRp1484
(dp1485
g54
(dp1486
sg63
g1455
sg56
(lp1487
g49
(g70
g51
NtRp1488
(dp1489
g54
(dp1490
sg63
g1484
sg56
(lp1491
g49
(g50
g51
NtRp1492
(dp1493
g54
(dp1494
g62
I3
ssg63
g1488
sg56
(lp1495
S'7'
asbasbasbag49
(g65
g51
NtRp1496
(dp1497
g54
(dp1498
sg63
g1455
sg56
(lp1499
g49
(g70
g51
NtRp1500
(dp1501
g54
(dp1502
sg63
g1496
sg56
(lp1503
g49
(g50
g51
NtRp1504
(dp1505
g54
(dp1506
g62
I3
ssg63
g1500
sg56
(lp1507
S'datetime.datetime(2012, 3, 4, 22, 12, 8)'
p1508
asbasbasbag49
(g65
g51
NtRp1509
(dp1510
g54
(dp1511
sg63
g1455
sg56
(lp1512
g49
(g70
g51
NtRp1513
(dp1514
g54
(dp1515
sg63
g1509
sg56
(lp1516
g49
(g50
g51
NtRp1517
(dp1518
g54
(dp1519
g62
I3
ssg63
g1513
sg56
(lp1520
S'stable'
p1521
asbasbasbasbasbasbasbag49
(g65
g51
NtRp1522
(dp1523
g54
(dp1524
sg63
g753
sg56
(lp1525
g49
(g70
g51
NtRp1526
(dp1527
g54
(dp1528
g74
g75
ssg63
g1522
sg56
(lp1529
S'wsgi_errors'
p1530
asbag49
(g70
g51
NtRp1531
(dp1532
g54
(dp1533
g81
g82
ssg63
g1522
sg56
(lp1534
S':'
asbag49
(g70
g51
NtRp1535
(dp1536
g54
(dp1537
sg63
g1522
sg56
(lp1538
g49
(g50
g51
NtRp1539
(dp1540
g54
(dp1541
g62
I4
ssg63
g1535
sg56
(lp1542
S'<__main__.Stderr object at 0x01D96670>'
p1543
asbasbasbag49
(g65
g51
NtRp1544
(dp1545
g54
(dp1546
sg63
g753
sg56
(lp1547
g49
(g70
g51
NtRp1548
(dp1549
g54
(dp1550
g74
g75
ssg63
g1544
sg56
(lp1551
S'wsgi_file_wrapper'
p1552
asbag49
(g70
g51
NtRp1553
(dp1554
g54
(dp1555
g81
g82
ssg63
g1544
sg56
(lp1556
S':'
asbag49
(g70
g51
NtRp1557
(dp1558
g54
(dp1559
sg63
g1544
sg56
(lp1560
g49
(g50
g51
NtRp1561
(dp1562
g54
(dp1563
g62
I4
ssg63
g1557
sg56
(lp1564
S'<class wsgiref.util.FileWrapper at 0x0304DE10>'
p1565
asbasbasbag49
(g65
g51
NtRp1566
(dp1567
g54
(dp1568
sg63
g753
sg56
(lp1569
g49
(g70
g51
NtRp1570
(dp1571
g54
(dp1572
g74
g75
ssg63
g1566
sg56
(lp1573
S'wsgi_input'
p1574
asbag49
(g70
g51
NtRp1575
(dp1576
g54
(dp1577
g81
g82
ssg63
g1566
sg56
(lp1578
S':'
asbag49
(g70
g51
NtRp1579
(dp1580
g54
(dp1581
sg63
g1566
sg56
(lp1582
g49
(g50
g51
NtRp1583
(dp1584
g54
(dp1585
g62
I4
ssg63
g1579
sg56
(lp1586
S'<socket._fileobject object at 0x0724EE30>'
p1587
asbasbasbag49
(g65
g51
NtRp1588
(dp1589
g54
(dp1590
sg63
g753
sg56
(lp1591
g49
(g70
g51
NtRp1592
(dp1593
g54
(dp1594
g74
g75
ssg63
g1588
sg56
(lp1595
S'wsgi_multiprocess'
p1596
asbag49
(g70
g51
NtRp1597
(dp1598
g54
(dp1599
g81
g82
ssg63
g1588
sg56
(lp1600
S':'
asbag49
(g70
g51
NtRp1601
(dp1602
g54
(dp1603
sg63
g1588
sg56
(lp1604
g49
(g50
g51
NtRp1605
(dp1606
g54
(dp1607
g62
I4
ssg63
g1601
sg56
(lp1608
g92
asbasbasbag49
(g65
g51
NtRp1609
(dp1610
g54
(dp1611
sg63
g753
sg56
(lp1612
g49
(g70
g51
NtRp1613
(dp1614
g54
(dp1615
g74
g75
ssg63
g1609
sg56
(lp1616
S'wsgi_multithread'
p1617
asbag49
(g70
g51
NtRp1618
(dp1619
g54
(dp1620
g81
g82
ssg63
g1609
sg56
(lp1621
S':'
asbag49
(g70
g51
NtRp1622
(dp1623
g54
(dp1624
sg63
g1609
sg56
(lp1625
g49
(g50
g51
NtRp1626
(dp1627
g54
(dp1628
g62
I4
ssg63
g1622
sg56
(lp1629
S'True'
p1630
asbasbasbag49
(g65
g51
NtRp1631
(dp1632
g54
(dp1633
sg63
g753
sg56
(lp1634
g49
(g70
g51
NtRp1635
(dp1636
g54
(dp1637
g74
g75
ssg63
g1631
sg56
(lp1638
S'wsgi_run_once'
p1639
asbag49
(g70
g51
NtRp1640
(dp1641
g54
(dp1642
g81
g82
ssg63
g1631
sg56
(lp1643
S':'
asbag49
(g70
g51
NtRp1644
(dp1645
g54
(dp1646
sg63
g1631
sg56
(lp1647
g49
(g50
g51
NtRp1648
(dp1649
g54
(dp1650
g62
I4
ssg63
g1644
sg56
(lp1651
g92
asbasbasbag49
(g65
g51
NtRp1652
(dp1653
g54
(dp1654
sg63
g753
sg56
(lp1655
g49
(g70
g51
NtRp1656
(dp1657
g54
(dp1658
g74
g75
ssg63
g1652
sg56
(lp1659
S'wsgi_url_scheme'
p1660
asbag49
(g70
g51
NtRp1661
(dp1662
g54
(dp1663
g81
g82
ssg63
g1652
sg56
(lp1664
S':'
asbag49
(g70
g51
NtRp1665
(dp1666
g54
(dp1667
sg63
g1652
sg56
(lp1668
g49
(g50
g51
NtRp1669
(dp1670
g54
(dp1671
g62
I4
ssg63
g1665
sg56
(lp1672
S'http'
p1673
asbasbasbag49
(g65
g51
NtRp1674
(dp1675
g54
(dp1676
sg63
g753
sg56
(lp1677
g49
(g70
g51
NtRp1678
(dp1679
g54
(dp1680
g74
g75
ssg63
g1674
sg56
(lp1681
S'wsgi_version'
p1682
asbag49
(g70
g51
NtRp1683
(dp1684
g54
(dp1685
g81
g82
ssg63
g1674
sg56
(lp1686
S':'
asbag49
(g70
g51
NtRp1687
(dp1688
g54
(dp1689
sg63
g1674
sg56
(lp1690
g49
(g50
g51
NtRp1691
(dp1692
g54
(dp1693
g62
I4
ssg63
g1687
sg56
(lp1694
g49
(g58
g51
NtRp1695
(dp1696
g54
(dp1697
g62
I3
ssg63
Nsg56
(lp1698
g49
(g65
g51
NtRp1699
(dp1700
g54
(dp1701
sg63
g1695
sg56
(lp1702
g49
(g70
g51
NtRp1703
(dp1704
g54
(dp1705
sg63
g1699
sg56
(lp1706
g49
(g50
g51
NtRp1707
(dp1708
g54
(dp1709
g62
I3
ssg63
g1703
sg56
(lp1710
S'1'
asbasbasbag49
(g65
g51
NtRp1711
(dp1712
g54
(dp1713
sg63
g1695
sg56
(lp1714
g49
(g70
g51
NtRp1715
(dp1716
g54
(dp1717
sg63
g1711
sg56
(lp1718
g49
(g50
g51
NtRp1719
(dp1720
g54
(dp1721
g62
I3
ssg63
g1715
sg56
(lp1722
S'0'
asbasbasbasbasbasbasbasbasbasbasbag49
(g65
g51
NtRp1723
(dp1724
g54
(dp1725
sg63
g59
sg56
(lp1726
g49
(g70
g51
NtRp1727
(dp1728
g54
(dp1729
g74
g75
ssg63
g1723
sg56
(lp1730
S'extension'
p1731
asbag49
(g70
g51
NtRp1732
(dp1733
g54
(dp1734
g81
g82
ssg63
g1723
sg56
(lp1735
S':'
asbag49
(g70
g51
NtRp1736
(dp1737
g54
(dp1738
sg63
g1723
sg56
(lp1739
g49
(g50
g51
NtRp1740
(dp1741
g54
(dp1742
g62
I5
ssg63
g1736
sg56
(lp1743
S'html'
p1744
asbasbasbag49
(g65
g51
NtRp1745
(dp1746
g54
(dp1747
sg63
g59
sg56
(lp1748
g49
(g70
g51
NtRp1749
(dp1750
g54
(dp1751
g74
g75
ssg63
g1745
sg56
(lp1752
S'folder'
p1753
asbag49
(g70
g51
NtRp1754
(dp1755
g54
(dp1756
g81
g82
ssg63
g1745
sg56
(lp1757
S':'
asbag49
(g70
g51
NtRp1758
(dp1759
g54
(dp1760
sg63
g1745
sg56
(lp1761
g49
(g50
g51
NtRp1762
(dp1763
g54
(dp1764
g62
I5
ssg63
g1758
sg56
(lp1765
S'C:\\web2py\\applications\\unioeste_code\\'
p1766
asbasbasbag49
(g65
g51
NtRp1767
(dp1768
g54
(dp1769
sg63
g59
sg56
(lp1770
g49
(g70
g51
NtRp1771
(dp1772
g54
(dp1773
g74
g75
ssg63
g1767
sg56
(lp1774
S'function'
p1775
asbag49
(g70
g51
NtRp1776
(dp1777
g54
(dp1778
g81
g82
ssg63
g1767
sg56
(lp1779
S':'
asbag49
(g70
g51
NtRp1780
(dp1781
g54
(dp1782
sg63
g1767
sg56
(lp1783
g49
(g50
g51
NtRp1784
(dp1785
g54
(dp1786
g62
I5
ssg63
g1780
sg56
(lp1787
S'index'
p1788
asbasbasbag49
(g65
g51
NtRp1789
(dp1790
g54
(dp1791
sg63
g59
sg56
(lp1792
g49
(g70
g51
NtRp1793
(dp1794
g54
(dp1795
g74
g75
ssg63
g1789
sg56
(lp1796
S'get_vars'
p1797
asbag49
(g70
g51
NtRp1798
(dp1799
g54
(dp1800
g81
g82
ssg63
g1789
sg56
(lp1801
S':'
asbag49
(g70
g51
NtRp1802
(dp1803
g54
(dp1804
sg63
g1789
sg56
(lp1805
g49
(g50
g51
NtRp1806
(dp1807
g54
(dp1808
g62
I5
ssg63
g1802
sg56
(lp1809
g49
(g58
g51
NtRp1810
(dp1811
g54
(dp1812
g62
I4
ssg63
Nsg56
(lp1813
sbasbasbasbag49
(g65
g51
NtRp1814
(dp1815
g54
(dp1816
sg63
g59
sg56
(lp1817
g49
(g70
g51
NtRp1818
(dp1819
g54
(dp1820
g74
g75
ssg63
g1814
sg56
(lp1821
S'global_settings'
p1822
asbag49
(g70
g51
NtRp1823
(dp1824
g54
(dp1825
g81
g82
ssg63
g1814
sg56
(lp1826
S':'
asbag49
(g70
g51
NtRp1827
(dp1828
g54
(dp1829
sg63
g1814
sg56
(lp1830
g49
(g50
g51
NtRp1831
(dp1832
g54
(dp1833
g62
I5
ssg63
g1827
sg56
(lp1834
g49
(g58
g51
NtRp1835
(dp1836
g54
(dp1837
g62
I4
ssg63
Nsg56
(lp1838
g49
(g65
g51
NtRp1839
(dp1840
g54
(dp1841
sg63
g1835
sg56
(lp1842
g49
(g70
g51
NtRp1843
(dp1844
g54
(dp1845
g74
g75
ssg63
g1839
sg56
(lp1846
g765
asbag49
(g70
g51
NtRp1847
(dp1848
g54
(dp1849
g81
g82
ssg63
g1839
sg56
(lp1850
S':'
asbag49
(g70
g51
NtRp1851
(dp1852
g54
(dp1853
sg63
g1839
sg56
(lp1854
g49
(g50
g51
NtRp1855
(dp1856
g54
(dp1857
g62
I4
ssg63
g1851
sg56
(lp1858
S"set(['C:\\\\web2py\\\\applications\\\\admin\\\\', 'C:\\\\web2py\\\\applications\\\\welcome\\\\', 'C:\\\\web2py\\\\applications\\\\unioeste_code\\\\'])"
p1859
asbasbasbag49
(g65
g51
NtRp1860
(dp1861
g54
(dp1862
sg63
g1835
sg56
(lp1863
g49
(g70
g51
NtRp1864
(dp1865
g54
(dp1866
g74
g75
ssg63
g1860
sg56
(lp1867
g787
asbag49
(g70
g51
NtRp1868
(dp1869
g54
(dp1870
g81
g82
ssg63
g1860
sg56
(lp1871
S':'
asbag49
(g70
g51
NtRp1872
(dp1873
g54
(dp1874
sg63
g1860
sg56
(lp1875
g49
(g50
g51
NtRp1876
(dp1877
g54
(dp1878
g62
I4
ssg63
g1872
sg56
(lp1879
g800
asbasbasbag49
(g65
g51
NtRp1880
(dp1881
g54
(dp1882
sg63
g1835
sg56
(lp1883
g49
(g70
g51
NtRp1884
(dp1885
g54
(dp1886
g74
g75
ssg63
g1880
sg56
(lp1887
g809
asbag49
(g70
g51
NtRp1888
(dp1889
g54
(dp1890
g81
g82
ssg63
g1880
sg56
(lp1891
S':'
asbag49
(g70
g51
NtRp1892
(dp1893
g54
(dp1894
sg63
g1880
sg56
(lp1895
g49
(g50
g51
NtRp1896
(dp1897
g54
(dp1898
g62
I4
ssg63
g1892
sg56
(lp1899
g49
(g58
g51
NtRp1900
(dp1901
g54
(dp1902
g62
I3
ssg63
Nsg56
(lp1903
sbasbasbasbag49
(g65
g51
NtRp1904
(dp1905
g54
(dp1906
sg63
g1835
sg56
(lp1907
g49
(g70
g51
NtRp1908
(dp1909
g54
(dp1910
g74
g75
ssg63
g1904
sg56
(lp1911
g834
asbag49
(g70
g51
NtRp1912
(dp1913
g54
(dp1914
g81
g82
ssg63
g1904
sg56
(lp1915
S':'
asbag49
(g70
g51
NtRp1916
(dp1917
g54
(dp1918
sg63
g1904
sg56
(lp1919
g49
(g50
g51
NtRp1920
(dp1921
g54
(dp1922
g62
I4
ssg63
g1916
sg56
(lp1923
S"<Values at 0x325c300: {'verbose': False, 'ip': '127.0.0.1', 'shutdown_timeout': 5, 'taskbar': False, 'nocron': False, 'pid_filename': 'httpserver.pid', 'maxthreads': None, 'softcron': False, 'server_name': 'Pedro-PC', 'bpython': False, 'nogui': False, 'port': 8000, 'extcron': False, 'debuglevel': 30, 'test': None, 'folder': 'C:\\\\web2py', 'config': '', 'import_models': False, 'winservice': '', 'shell': None, 'run': '', 'log_filename': 'httpserver.log', 'args': [''], 'socket_timeout': 5, 'ssl_ca_certificate': None, 'scheduler': None, 'profiler_filename': None, 'ssl_private_key': '', 'password': '<ask>', 'request_queue_size': 5, 'ssl_certificate': '', 'cronjob': False, 'numthreads': None, 'quiet': False, 'interfaces': None, 'minthreads': None, 'timeout': 10, 'plain': False, 'nobanner': False}>"
p1924
asbasbasbag49
(g65
g51
NtRp1925
(dp1926
g54
(dp1927
sg63
g1835
sg56
(lp1928
g49
(g70
g51
NtRp1929
(dp1930
g54
(dp1931
g74
g75
ssg63
g1925
sg56
(lp1932
g856
asbag49
(g70
g51
NtRp1933
(dp1934
g54
(dp1935
g81
g82
ssg63
g1925
sg56
(lp1936
S':'
asbag49
(g70
g51
NtRp1937
(dp1938
g54
(dp1939
sg63
g1925
sg56
(lp1940
g49
(g50
g51
NtRp1941
(dp1942
g54
(dp1943
g62
I4
ssg63
g1937
sg56
(lp1944
S'set([])'
p1945
asbasbasbag49
(g65
g51
NtRp1946
(dp1947
g54
(dp1948
sg63
g1835
sg56
(lp1949
g49
(g70
g51
NtRp1950
(dp1951
g54
(dp1952
g74
g75
ssg63
g1946
sg56
(lp1953
g878
asbag49
(g70
g51
NtRp1954
(dp1955
g54
(dp1956
g81
g82
ssg63
g1946
sg56
(lp1957
S':'
asbag49
(g70
g51
NtRp1958
(dp1959
g54
(dp1960
sg63
g1946
sg56
(lp1961
g49
(g50
g51
NtRp1962
(dp1963
g54
(dp1964
g62
I4
ssg63
g1958
sg56
(lp1965
g92
asbasbasbag49
(g65
g51
NtRp1966
(dp1967
g54
(dp1968
sg63
g1835
sg56
(lp1969
g49
(g70
g51
NtRp1970
(dp1971
g54
(dp1972
g74
g75
ssg63
g1966
sg56
(lp1973
g899
asbag49
(g70
g51
NtRp1974
(dp1975
g54
(dp1976
g81
g82
ssg63
g1966
sg56
(lp1977
S':'
asbag49
(g70
g51
NtRp1978
(dp1979
g54
(dp1980
sg63
g1966
sg56
(lp1981
g49
(g50
g51
NtRp1982
(dp1983
g54
(dp1984
g62
I4
ssg63
g1978
sg56
(lp1985
g912
asbasbasbag49
(g65
g51
NtRp1986
(dp1987
g54
(dp1988
sg63
g1835
sg56
(lp1989
g49
(g70
g51
NtRp1990
(dp1991
g54
(dp1992
g74
g75
ssg63
g1986
sg56
(lp1993
g1140
asbag49
(g70
g51
NtRp1994
(dp1995
g54
(dp1996
g81
g82
ssg63
g1986
sg56
(lp1997
S':'
asbag49
(g70
g51
NtRp1998
(dp1999
g54
(dp2000
sg63
g1986
sg56
(lp2001
g49
(g50
g51
NtRp2002
(dp2003
g54
(dp2004
g62
I4
ssg63
g1998
sg56
(lp2005
g92
asbasbasbag49
(g65
g51
NtRp2006
(dp2007
g54
(dp2008
sg63
g1835
sg56
(lp2009
g49
(g70
g51
NtRp2010
(dp2011
g54
(dp2012
g74
g75
ssg63
g2006
sg56
(lp2013
g1161
asbag49
(g70
g51
NtRp2014
(dp2015
g54
(dp2016
g81
g82
ssg63
g2006
sg56
(lp2017
S':'
asbag49
(g70
g51
NtRp2018
(dp2019
g54
(dp2020
sg63
g2006
sg56
(lp2021
g49
(g50
g51
NtRp2022
(dp2023
g54
(dp2024
g62
I4
ssg63
g2018
sg56
(lp2025
g92
asbasbasbag49
(g65
g51
NtRp2026
(dp2027
g54
(dp2028
sg63
g1835
sg56
(lp2029
g49
(g70
g51
NtRp2030
(dp2031
g54
(dp2032
g74
g75
ssg63
g2026
sg56
(lp2033
g1399
asbag49
(g70
g51
NtRp2034
(dp2035
g54
(dp2036
g81
g82
ssg63
g2026
sg56
(lp2037
S':'
asbag49
(g70
g51
NtRp2038
(dp2039
g54
(dp2040
sg63
g2026
sg56
(lp2041
g49
(g50
g51
NtRp2042
(dp2043
g54
(dp2044
g62
I4
ssg63
g2038
sg56
(lp2045
g1412
asbasbasbag49
(g65
g51
NtRp2046
(dp2047
g54
(dp2048
sg63
g1835
sg56
(lp2049
g49
(g70
g51
NtRp2050
(dp2051
g54
(dp2052
g74
g75
ssg63
g2046
sg56
(lp2053
g1442
asbag49
(g70
g51
NtRp2054
(dp2055
g54
(dp2056
g81
g82
ssg63
g2046
sg56
(lp2057
S':'
asbag49
(g70
g51
NtRp2058
(dp2059
g54
(dp2060
sg63
g2046
sg56
(lp2061
g49
(g50
g51
NtRp2062
(dp2063
g54
(dp2064
g62
I4
ssg63
g2058
sg56
(lp2065
g49
(g58
g51
NtRp2066
(dp2067
g54
(dp2068
g62
I3
ssg63
Nsg56
(lp2069
g49
(g65
g51
NtRp2070
(dp2071
g54
(dp2072
sg63
g2066
sg56
(lp2073
g49
(g70
g51
NtRp2074
(dp2075
g54
(dp2076
sg63
g2070
sg56
(lp2077
g49
(g50
g51
NtRp2078
(dp2079
g54
(dp2080
g62
I3
ssg63
g2074
sg56
(lp2081
S'1'
asbasbasbag49
(g65
g51
NtRp2082
(dp2083
g54
(dp2084
sg63
g2066
sg56
(lp2085
g49
(g70
g51
NtRp2086
(dp2087
g54
(dp2088
sg63
g2082
sg56
(lp2089
g49
(g50
g51
NtRp2090
(dp2091
g54
(dp2092
g62
I3
ssg63
g2086
sg56
(lp2093
S'99'
p2094
asbasbasbag49
(g65
g51
NtRp2095
(dp2096
g54
(dp2097
sg63
g2066
sg56
(lp2098
g49
(g70
g51
NtRp2099
(dp2100
g54
(dp2101
sg63
g2095
sg56
(lp2102
g49
(g50
g51
NtRp2103
(dp2104
g54
(dp2105
g62
I3
ssg63
g2099
sg56
(lp2106
S'7'
asbasbasbag49
(g65
g51
NtRp2107
(dp2108
g54
(dp2109
sg63
g2066
sg56
(lp2110
g49
(g70
g51
NtRp2111
(dp2112
g54
(dp2113
sg63
g2107
sg56
(lp2114
g49
(g50
g51
NtRp2115
(dp2116
g54
(dp2117
g62
I3
ssg63
g2111
sg56
(lp2118
S'datetime.datetime(2012, 3, 4, 22, 12, 8)'
p2119
asbasbasbag49
(g65
g51
NtRp2120
(dp2121
g54
(dp2122
sg63
g2066
sg56
(lp2123
g49
(g70
g51
NtRp2124
(dp2125
g54
(dp2126
sg63
g2120
sg56
(lp2127
g49
(g50
g51
NtRp2128
(dp2129
g54
(dp2130
g62
I3
ssg63
g2124
sg56
(lp2131
g1521
asbasbasbasbasbasbasbasbasbasbasbag49
(g65
g51
NtRp2132
(dp2133
g54
(dp2134
sg63
g59
sg56
(lp2135
g49
(g70
g51
NtRp2136
(dp2137
g54
(dp2138
g74
g75
ssg63
g2132
sg56
(lp2139
S'is_https'
p2140
asbag49
(g70
g51
NtRp2141
(dp2142
g54
(dp2143
g81
g82
ssg63
g2132
sg56
(lp2144
S':'
asbag49
(g70
g51
NtRp2145
(dp2146
g54
(dp2147
sg63
g2132
sg56
(lp2148
g49
(g50
g51
NtRp2149
(dp2150
g54
(dp2151
g62
I5
ssg63
g2145
sg56
(lp2152
g92
asbasbasbag49
(g65
g51
NtRp2153
(dp2154
g54
(dp2155
sg63
g59
sg56
(lp2156
g49
(g70
g51
NtRp2157
(dp2158
g54
(dp2159
g74
g75
ssg63
g2153
sg56
(lp2160
S'is_local'
p2161
asbag49
(g70
g51
NtRp2162
(dp2163
g54
(dp2164
g81
g82
ssg63
g2153
sg56
(lp2165
S':'
asbag49
(g70
g51
NtRp2166
(dp2167
g54
(dp2168
sg63
g2153
sg56
(lp2169
g49
(g50
g51
NtRp2170
(dp2171
g54
(dp2172
g62
I5
ssg63
g2166
sg56
(lp2173
g1630
asbasbasbag49
(g65
g51
NtRp2174
(dp2175
g54
(dp2176
sg63
g59
sg56
(lp2177
g49
(g70
g51
NtRp2178
(dp2179
g54
(dp2180
g74
g75
ssg63
g2174
sg56
(lp2181
S'is_restful'
p2182
asbag49
(g70
g51
NtRp2183
(dp2184
g54
(dp2185
g81
g82
ssg63
g2174
sg56
(lp2186
S':'
asbag49
(g70
g51
NtRp2187
(dp2188
g54
(dp2189
sg63
g2174
sg56
(lp2190
g49
(g50
g51
NtRp2191
(dp2192
g54
(dp2193
g62
I5
ssg63
g2187
sg56
(lp2194
g92
asbasbasbag49
(g65
g51
NtRp2195
(dp2196
g54
(dp2197
sg63
g59
sg56
(lp2198
g49
(g70
g51
NtRp2199
(dp2200
g54
(dp2201
g74
g75
ssg63
g2195
sg56
(lp2202
S'now'
p2203
asbag49
(g70
g51
NtRp2204
(dp2205
g54
(dp2206
g81
g82
ssg63
g2195
sg56
(lp2207
S':'
asbag49
(g70
g51
NtRp2208
(dp2209
g54
(dp2210
sg63
g2195
sg56
(lp2211
g49
(g50
g51
NtRp2212
(dp2213
g54
(dp2214
g62
I5
ssg63
g2208
sg56
(lp2215
S'datetime.datetime(2012, 8, 1, 16, 55, 59, 401000)'
p2216
asbasbasbag49
(g65
g51
NtRp2217
(dp2218
g54
(dp2219
sg63
g59
sg56
(lp2220
g49
(g70
g51
NtRp2221
(dp2222
g54
(dp2223
g74
g75
ssg63
g2217
sg56
(lp2224
S'post_vars'
p2225
asbag49
(g70
g51
NtRp2226
(dp2227
g54
(dp2228
g81
g82
ssg63
g2217
sg56
(lp2229
S':'
asbag49
(g70
g51
NtRp2230
(dp2231
g54
(dp2232
sg63
g2217
sg56
(lp2233
g49
(g50
g51
NtRp2234
(dp2235
g54
(dp2236
g62
I5
ssg63
g2230
sg56
(lp2237
g49
(g58
g51
NtRp2238
(dp2239
g54
(dp2240
g62
I4
ssg63
Nsg56
(lp2241
sbasbasbasbag49
(g65
g51
NtRp2242
(dp2243
g54
(dp2244
sg63
g59
sg56
(lp2245
g49
(g70
g51
NtRp2246
(dp2247
g54
(dp2248
g74
g75
ssg63
g2242
sg56
(lp2249
S'url'
p2250
asbag49
(g70
g51
NtRp2251
(dp2252
g54
(dp2253
g81
g82
ssg63
g2242
sg56
(lp2254
S':'
asbag49
(g70
g51
NtRp2255
(dp2256
g54
(dp2257
sg63
g2242
sg56
(lp2258
g49
(g50
g51
NtRp2259
(dp2260
g54
(dp2261
g62
I5
ssg63
g2255
sg56
(lp2262
S'/unioeste_code/default/index'
p2263
asbasbasbag49
(g65
g51
NtRp2264
(dp2265
g54
(dp2266
sg63
g59
sg56
(lp2267
g49
(g70
g51
NtRp2268
(dp2269
g54
(dp2270
g74
g75
ssg63
g2264
sg56
(lp2271
S'utcnow'
p2272
asbag49
(g70
g51
NtRp2273
(dp2274
g54
(dp2275
g81
g82
ssg63
g2264
sg56
(lp2276
S':'
asbag49
(g70
g51
NtRp2277
(dp2278
g54
(dp2279
sg63
g2264
sg56
(lp2280
g49
(g50
g51
NtRp2281
(dp2282
g54
(dp2283
g62
I5
ssg63
g2277
sg56
(lp2284
S'datetime.datetime(2012, 8, 1, 19, 55, 59, 401000)'
p2285
asbasbasbag49
(g65
g51
NtRp2286
(dp2287
g54
(dp2288
sg63
g59
sg56
(lp2289
g49
(g70
g51
NtRp2290
(dp2291
g54
(dp2292
g74
g75
ssg63
g2286
sg56
(lp2293
S'uuid'
p2294
asbag49
(g70
g51
NtRp2295
(dp2296
g54
(dp2297
g81
g82
ssg63
g2286
sg56
(lp2298
S':'
asbag49
(g70
g51
NtRp2299
(dp2300
g54
(dp2301
sg63
g2286
sg56
(lp2302
g49
(g50
g51
NtRp2303
(dp2304
g54
(dp2305
g62
I5
ssg63
g2299
sg56
(lp2306
S'unioeste_code/127.0.0.1.2012-08-01.16-55-59.a1785db1-31be-44f3-b279-d700687a8701'
p2307
asbasbasbag49
(g65
g51
NtRp2308
(dp2309
g54
(dp2310
sg63
g59
sg56
(lp2311
g49
(g70
g51
NtRp2312
(dp2313
g54
(dp2314
g74
g75
ssg63
g2308
sg56
(lp2315
S'vars'
p2316
asbag49
(g70
g51
NtRp2317
(dp2318
g54
(dp2319
g81
g82
ssg63
g2308
sg56
(lp2320
S':'
asbag49
(g70
g51
NtRp2321
(dp2322
g54
(dp2323
sg63
g2308
sg56
(lp2324
g49
(g50
g51
NtRp2325
(dp2326
g54
(dp2327
g62
I5
ssg63
g2321
sg56
(lp2328
g49
(g58
g51
NtRp2329
(dp2330
g54
(dp2331
g62
I4
ssg63
Nsg56
(lp2332
sbasbasbasbag49
(g65
g51
NtRp2333
(dp2334
g54
(dp2335
sg63
g59
sg56
(lp2336
g49
(g70
g51
NtRp2337
(dp2338
g54
(dp2339
g74
g75
ssg63
g2333
sg56
(lp2340
S'wsgi'
p2341
asbag49
(g70
g51
NtRp2342
(dp2343
g54
(dp2344
g81
g82
ssg63
g2333
sg56
(lp2345
S':'
asbag49
(g70
g51
NtRp2346
(dp2347
g54
(dp2348
sg63
g2333
sg56
(lp2349
g49
(g50
g51
NtRp2350
(dp2351
g54
(dp2352
g62
I5
ssg63
g2346
sg56
(lp2353
g49
(g58
g51
NtRp2354
(dp2355
g54
(dp2356
g62
I4
ssg63
Nsg56
(lp2357
g49
(g65
g51
NtRp2358
(dp2359
g54
(dp2360
sg63
g2354
sg56
(lp2361
g49
(g70
g51
NtRp2362
(dp2363
g54
(dp2364
g74
g75
ssg63
g2358
sg56
(lp2365
S'environ'
p2366
asbag49
(g70
g51
NtRp2367
(dp2368
g54
(dp2369
g81
g82
ssg63
g2358
sg56
(lp2370
S':'
asbag49
(g70
g51
NtRp2371
(dp2372
g54
(dp2373
sg63
g2358
sg56
(lp2374
g49
(g50
g51
NtRp2375
(dp2376
g54
(dp2377
g62
I4
ssg63
g2371
sg56
(lp2378
g49
(g58
g51
NtRp2379
(dp2380
g54
(dp2381
g62
I3
ssg63
Nsg56
(lp2382
g49
(g65
g51
NtRp2383
(dp2384
g54
(dp2385
sg63
g2379
sg56
(lp2386
g49
(g70
g51
NtRp2387
(dp2388
g54
(dp2389
g74
g75
ssg63
g2383
sg56
(lp2390
S'HTTP_ACCEPT'
p2391
asbag49
(g70
g51
NtRp2392
(dp2393
g54
(dp2394
g81
g82
ssg63
g2383
sg56
(lp2395
S':'
asbag49
(g70
g51
NtRp2396
(dp2397
g54
(dp2398
sg63
g2383
sg56
(lp2399
g49
(g50
g51
NtRp2400
(dp2401
g54
(dp2402
g62
I3
ssg63
g2396
sg56
(lp2403
g934
asbasbasbag49
(g65
g51
NtRp2404
(dp2405
g54
(dp2406
sg63
g2379
sg56
(lp2407
g49
(g70
g51
NtRp2408
(dp2409
g54
(dp2410
g74
g75
ssg63
g2404
sg56
(lp2411
S'HTTP_ACCEPT_CHARSET'
p2412
asbag49
(g70
g51
NtRp2413
(dp2414
g54
(dp2415
g81
g82
ssg63
g2404
sg56
(lp2416
S':'
asbag49
(g70
g51
NtRp2417
(dp2418
g54
(dp2419
sg63
g2404
sg56
(lp2420
g49
(g50
g51
NtRp2421
(dp2422
g54
(dp2423
g62
I3
ssg63
g2417
sg56
(lp2424
g956
asbasbasbag49
(g65
g51
NtRp2425
(dp2426
g54
(dp2427
sg63
g2379
sg56
(lp2428
g49
(g70
g51
NtRp2429
(dp2430
g54
(dp2431
g74
g75
ssg63
g2425
sg56
(lp2432
S'HTTP_ACCEPT_ENCODING'
p2433
asbag49
(g70
g51
NtRp2434
(dp2435
g54
(dp2436
g81
g82
ssg63
g2425
sg56
(lp2437
S':'
asbag49
(g70
g51
NtRp2438
(dp2439
g54
(dp2440
sg63
g2425
sg56
(lp2441
g49
(g50
g51
NtRp2442
(dp2443
g54
(dp2444
g62
I3
ssg63
g2438
sg56
(lp2445
g978
asbasbasbag49
(g65
g51
NtRp2446
(dp2447
g54
(dp2448
sg63
g2379
sg56
(lp2449
g49
(g70
g51
NtRp2450
(dp2451
g54
(dp2452
g74
g75
ssg63
g2446
sg56
(lp2453
S'HTTP_ACCEPT_LANGUAGE'
p2454
asbag49
(g70
g51
NtRp2455
(dp2456
g54
(dp2457
g81
g82
ssg63
g2446
sg56
(lp2458
S':'
asbag49
(g70
g51
NtRp2459
(dp2460
g54
(dp2461
sg63
g2446
sg56
(lp2462
g49
(g50
g51
NtRp2463
(dp2464
g54
(dp2465
g62
I3
ssg63
g2459
sg56
(lp2466
g1000
asbasbasbag49
(g65
g51
NtRp2467
(dp2468
g54
(dp2469
sg63
g2379
sg56
(lp2470
g49
(g70
g51
NtRp2471
(dp2472
g54
(dp2473
g74
g75
ssg63
g2467
sg56
(lp2474
S'HTTP_CACHE_CONTROL'
p2475
asbag49
(g70
g51
NtRp2476
(dp2477
g54
(dp2478
g81
g82
ssg63
g2467
sg56
(lp2479
S':'
asbag49
(g70
g51
NtRp2480
(dp2481
g54
(dp2482
sg63
g2467
sg56
(lp2483
g49
(g50
g51
NtRp2484
(dp2485
g54
(dp2486
g62
I3
ssg63
g2480
sg56
(lp2487
g1022
asbasbasbag49
(g65
g51
NtRp2488
(dp2489
g54
(dp2490
sg63
g2379
sg56
(lp2491
g49
(g70
g51
NtRp2492
(dp2493
g54
(dp2494
g74
g75
ssg63
g2488
sg56
(lp2495
S'HTTP_CONNECTION'
p2496
asbag49
(g70
g51
NtRp2497
(dp2498
g54
(dp2499
g81
g82
ssg63
g2488
sg56
(lp2500
S':'
asbag49
(g70
g51
NtRp2501
(dp2502
g54
(dp2503
sg63
g2488
sg56
(lp2504
g49
(g50
g51
NtRp2505
(dp2506
g54
(dp2507
g62
I3
ssg63
g2501
sg56
(lp2508
g1044
asbasbasbag49
(g65
g51
NtRp2509
(dp2510
g54
(dp2511
sg63
g2379
sg56
(lp2512
g49
(g70
g51
NtRp2513
(dp2514
g54
(dp2515
g74
g75
ssg63
g2509
sg56
(lp2516
S'HTTP_COOKIE'
p2517
asbag49
(g70
g51
NtRp2518
(dp2519
g54
(dp2520
g81
g82
ssg63
g2509
sg56
(lp2521
S':'
asbag49
(g70
g51
NtRp2522
(dp2523
g54
(dp2524
sg63
g2509
sg56
(lp2525
g49
(g50
g51
NtRp2526
(dp2527
g54
(dp2528
g62
I3
ssg63
g2522
sg56
(lp2529
g1066
asbasbasbag49
(g65
g51
NtRp2530
(dp2531
g54
(dp2532
sg63
g2379
sg56
(lp2533
g49
(g70
g51
NtRp2534
(dp2535
g54
(dp2536
g74
g75
ssg63
g2530
sg56
(lp2537
S'HTTP_DNT'
p2538
asbag49
(g70
g51
NtRp2539
(dp2540
g54
(dp2541
g81
g82
ssg63
g2530
sg56
(lp2542
S':'
asbag49
(g70
g51
NtRp2543
(dp2544
g54
(dp2545
sg63
g2530
sg56
(lp2546
g49
(g50
g51
NtRp2547
(dp2548
g54
(dp2549
g62
I3
ssg63
g2543
sg56
(lp2550
S'1'
asbasbasbag49
(g65
g51
NtRp2551
(dp2552
g54
(dp2553
sg63
g2379
sg56
(lp2554
g49
(g70
g51
NtRp2555
(dp2556
g54
(dp2557
g74
g75
ssg63
g2551
sg56
(lp2558
S'HTTP_HOST'
p2559
asbag49
(g70
g51
NtRp2560
(dp2561
g54
(dp2562
g81
g82
ssg63
g2551
sg56
(lp2563
S':'
asbag49
(g70
g51
NtRp2564
(dp2565
g54
(dp2566
sg63
g2551
sg56
(lp2567
g49
(g50
g51
NtRp2568
(dp2569
g54
(dp2570
g62
I3
ssg63
g2564
sg56
(lp2571
g1109
asbasbasbag49
(g65
g51
NtRp2572
(dp2573
g54
(dp2574
sg63
g2379
sg56
(lp2575
g49
(g70
g51
NtRp2576
(dp2577
g54
(dp2578
g74
g75
ssg63
g2572
sg56
(lp2579
S'HTTP_USER_AGENT'
p2580
asbag49
(g70
g51
NtRp2581
(dp2582
g54
(dp2583
g81
g82
ssg63
g2572
sg56
(lp2584
S':'
asbag49
(g70
g51
NtRp2585
(dp2586
g54
(dp2587
sg63
g2572
sg56
(lp2588
g49
(g50
g51
NtRp2589
(dp2590
g54
(dp2591
g62
I3
ssg63
g2585
sg56
(lp2592
g1131
asbasbasbag49
(g65
g51
NtRp2593
(dp2594
g54
(dp2595
sg63
g2379
sg56
(lp2596
g49
(g70
g51
NtRp2597
(dp2598
g54
(dp2599
g74
g75
ssg63
g2593
sg56
(lp2600
S'PATH_INFO'
p2601
asbag49
(g70
g51
NtRp2602
(dp2603
g54
(dp2604
g81
g82
ssg63
g2593
sg56
(lp2605
S':'
asbag49
(g70
g51
NtRp2606
(dp2607
g54
(dp2608
sg63
g2593
sg56
(lp2609
g49
(g50
g51
NtRp2610
(dp2611
g54
(dp2612
g62
I3
ssg63
g2606
sg56
(lp2613
g1195
asbasbasbag49
(g65
g51
NtRp2614
(dp2615
g54
(dp2616
sg63
g2379
sg56
(lp2617
g49
(g70
g51
NtRp2618
(dp2619
g54
(dp2620
g74
g75
ssg63
g2614
sg56
(lp2621
S'QUERY_STRING'
p2622
asbag49
(g70
g51
NtRp2623
(dp2624
g54
(dp2625
g81
g82
ssg63
g2614
sg56
(lp2626
S':'
asbag49
(g70
g51
NtRp2627
(dp2628
g54
(dp2629
sg63
g2614
sg56
(lp2630
g49
(g50
g51
NtRp2631
(dp2632
g54
(dp2633
g62
I3
ssg63
g2627
sg56
(lp2634
S''
asbasbasbag49
(g65
g51
NtRp2635
(dp2636
g54
(dp2637
sg63
g2379
sg56
(lp2638
g49
(g70
g51
NtRp2639
(dp2640
g54
(dp2641
g74
g75
ssg63
g2635
sg56
(lp2642
S'REMOTE_ADDR'
p2643
asbag49
(g70
g51
NtRp2644
(dp2645
g54
(dp2646
g81
g82
ssg63
g2635
sg56
(lp2647
S':'
asbag49
(g70
g51
NtRp2648
(dp2649
g54
(dp2650
sg63
g2635
sg56
(lp2651
g49
(g50
g51
NtRp2652
(dp2653
g54
(dp2654
g62
I3
ssg63
g2648
sg56
(lp2655
g182
asbasbasbag49
(g65
g51
NtRp2656
(dp2657
g54
(dp2658
sg63
g2379
sg56
(lp2659
g49
(g70
g51
NtRp2660
(dp2661
g54
(dp2662
g74
g75
ssg63
g2656
sg56
(lp2663
S'REMOTE_PORT'
p2664
asbag49
(g70
g51
NtRp2665
(dp2666
g54
(dp2667
g81
g82
ssg63
g2656
sg56
(lp2668
S':'
asbag49
(g70
g51
NtRp2669
(dp2670
g54
(dp2671
sg63
g2656
sg56
(lp2672
g49
(g50
g51
NtRp2673
(dp2674
g54
(dp2675
g62
I3
ssg63
g2669
sg56
(lp2676
g1259
asbasbasbag49
(g65
g51
NtRp2677
(dp2678
g54
(dp2679
sg63
g2379
sg56
(lp2680
g49
(g70
g51
NtRp2681
(dp2682
g54
(dp2683
g74
g75
ssg63
g2677
sg56
(lp2684
S'REQUEST_METHOD'
p2685
asbag49
(g70
g51
NtRp2686
(dp2687
g54
(dp2688
g81
g82
ssg63
g2677
sg56
(lp2689
S':'
asbag49
(g70
g51
NtRp2690
(dp2691
g54
(dp2692
sg63
g2677
sg56
(lp2693
g49
(g50
g51
NtRp2694
(dp2695
g54
(dp2696
g62
I3
ssg63
g2690
sg56
(lp2697
g1281
asbasbasbag49
(g65
g51
NtRp2698
(dp2699
g54
(dp2700
sg63
g2379
sg56
(lp2701
g49
(g70
g51
NtRp2702
(dp2703
g54
(dp2704
g74
g75
ssg63
g2698
sg56
(lp2705
S'SCRIPT_NAME'
p2706
asbag49
(g70
g51
NtRp2707
(dp2708
g54
(dp2709
g81
g82
ssg63
g2698
sg56
(lp2710
S':'
asbag49
(g70
g51
NtRp2711
(dp2712
g54
(dp2713
sg63
g2698
sg56
(lp2714
g49
(g50
g51
NtRp2715
(dp2716
g54
(dp2717
g62
I3
ssg63
g2711
sg56
(lp2718
S''
asbasbasbag49
(g65
g51
NtRp2719
(dp2720
g54
(dp2721
sg63
g2379
sg56
(lp2722
g49
(g70
g51
NtRp2723
(dp2724
g54
(dp2725
g74
g75
ssg63
g2719
sg56
(lp2726
S'SERVER_NAME'
p2727
asbag49
(g70
g51
NtRp2728
(dp2729
g54
(dp2730
g81
g82
ssg63
g2719
sg56
(lp2731
S':'
asbag49
(g70
g51
NtRp2732
(dp2733
g54
(dp2734
sg63
g2719
sg56
(lp2735
g49
(g50
g51
NtRp2736
(dp2737
g54
(dp2738
g62
I3
ssg63
g2732
sg56
(lp2739
g1324
asbasbasbag49
(g65
g51
NtRp2740
(dp2741
g54
(dp2742
sg63
g2379
sg56
(lp2743
g49
(g70
g51
NtRp2744
(dp2745
g54
(dp2746
g74
g75
ssg63
g2740
sg56
(lp2747
S'SERVER_PORT'
p2748
asbag49
(g70
g51
NtRp2749
(dp2750
g54
(dp2751
g81
g82
ssg63
g2740
sg56
(lp2752
S':'
asbag49
(g70
g51
NtRp2753
(dp2754
g54
(dp2755
sg63
g2740
sg56
(lp2756
g49
(g50
g51
NtRp2757
(dp2758
g54
(dp2759
g62
I3
ssg63
g2753
sg56
(lp2760
g1346
asbasbasbag49
(g65
g51
NtRp2761
(dp2762
g54
(dp2763
sg63
g2379
sg56
(lp2764
g49
(g70
g51
NtRp2765
(dp2766
g54
(dp2767
g74
g75
ssg63
g2761
sg56
(lp2768
S'SERVER_PROTOCOL'
p2769
asbag49
(g70
g51
NtRp2770
(dp2771
g54
(dp2772
g81
g82
ssg63
g2761
sg56
(lp2773
S':'
asbag49
(g70
g51
NtRp2774
(dp2775
g54
(dp2776
sg63
g2761
sg56
(lp2777
g49
(g50
g51
NtRp2778
(dp2779
g54
(dp2780
g62
I3
ssg63
g2774
sg56
(lp2781
g1368
asbasbasbag49
(g65
g51
NtRp2782
(dp2783
g54
(dp2784
sg63
g2379
sg56
(lp2785
g49
(g70
g51
NtRp2786
(dp2787
g54
(dp2788
g74
g75
ssg63
g2782
sg56
(lp2789
S'SERVER_SOFTWARE'
p2790
asbag49
(g70
g51
NtRp2791
(dp2792
g54
(dp2793
g81
g82
ssg63
g2782
sg56
(lp2794
S':'
asbag49
(g70
g51
NtRp2795
(dp2796
g54
(dp2797
sg63
g2782
sg56
(lp2798
g49
(g50
g51
NtRp2799
(dp2800
g54
(dp2801
g62
I3
ssg63
g2795
sg56
(lp2802
g1390
asbasbasbag49
(g65
g51
NtRp2803
(dp2804
g54
(dp2805
sg63
g2379
sg56
(lp2806
g49
(g70
g51
NtRp2807
(dp2808
g54
(dp2809
g74
g75
ssg63
g2803
sg56
(lp2810
S'wsgi.errors'
p2811
asbag49
(g70
g51
NtRp2812
(dp2813
g54
(dp2814
g81
g82
ssg63
g2803
sg56
(lp2815
S':'
asbag49
(g70
g51
NtRp2816
(dp2817
g54
(dp2818
sg63
g2803
sg56
(lp2819
g49
(g50
g51
NtRp2820
(dp2821
g54
(dp2822
g62
I3
ssg63
g2816
sg56
(lp2823
S'<__main__.Stderr object at 0x01D96670>'
p2824
asbasbasbag49
(g65
g51
NtRp2825
(dp2826
g54
(dp2827
sg63
g2379
sg56
(lp2828
g49
(g70
g51
NtRp2829
(dp2830
g54
(dp2831
g74
g75
ssg63
g2825
sg56
(lp2832
S'wsgi.file_wrapper'
p2833
asbag49
(g70
g51
NtRp2834
(dp2835
g54
(dp2836
g81
g82
ssg63
g2825
sg56
(lp2837
S':'
asbag49
(g70
g51
NtRp2838
(dp2839
g54
(dp2840
sg63
g2825
sg56
(lp2841
g49
(g50
g51
NtRp2842
(dp2843
g54
(dp2844
g62
I3
ssg63
g2838
sg56
(lp2845
S'<class wsgiref.util.FileWrapper at 0x0304DE10>'
p2846
asbasbasbag49
(g65
g51
NtRp2847
(dp2848
g54
(dp2849
sg63
g2379
sg56
(lp2850
g49
(g70
g51
NtRp2851
(dp2852
g54
(dp2853
g74
g75
ssg63
g2847
sg56
(lp2854
S'wsgi.input'
p2855
asbag49
(g70
g51
NtRp2856
(dp2857
g54
(dp2858
g81
g82
ssg63
g2847
sg56
(lp2859
S':'
asbag49
(g70
g51
NtRp2860
(dp2861
g54
(dp2862
sg63
g2847
sg56
(lp2863
g49
(g50
g51
NtRp2864
(dp2865
g54
(dp2866
g62
I3
ssg63
g2860
sg56
(lp2867
S'<cStringIO.StringO object at 0x077C2EC0>'
p2868
asbasbasbag49
(g65
g51
NtRp2869
(dp2870
g54
(dp2871
sg63
g2379
sg56
(lp2872
g49
(g70
g51
NtRp2873
(dp2874
g54
(dp2875
g74
g75
ssg63
g2869
sg56
(lp2876
S'wsgi.multiprocess'
p2877
asbag49
(g70
g51
NtRp2878
(dp2879
g54
(dp2880
g81
g82
ssg63
g2869
sg56
(lp2881
S':'
asbag49
(g70
g51
NtRp2882
(dp2883
g54
(dp2884
sg63
g2869
sg56
(lp2885
g49
(g50
g51
NtRp2886
(dp2887
g54
(dp2888
g62
I3
ssg63
g2882
sg56
(lp2889
g92
asbasbasbag49
(g65
g51
NtRp2890
(dp2891
g54
(dp2892
sg63
g2379
sg56
(lp2893
g49
(g70
g51
NtRp2894
(dp2895
g54
(dp2896
g74
g75
ssg63
g2890
sg56
(lp2897
S'wsgi.multithread'
p2898
asbag49
(g70
g51
NtRp2899
(dp2900
g54
(dp2901
g81
g82
ssg63
g2890
sg56
(lp2902
S':'
asbag49
(g70
g51
NtRp2903
(dp2904
g54
(dp2905
sg63
g2890
sg56
(lp2906
g49
(g50
g51
NtRp2907
(dp2908
g54
(dp2909
g62
I3
ssg63
g2903
sg56
(lp2910
g1630
asbasbasbag49
(g65
g51
NtRp2911
(dp2912
g54
(dp2913
sg63
g2379
sg56
(lp2914
g49
(g70
g51
NtRp2915
(dp2916
g54
(dp2917
g74
g75
ssg63
g2911
sg56
(lp2918
S'wsgi.run_once'
p2919
asbag49
(g70
g51
NtRp2920
(dp2921
g54
(dp2922
g81
g82
ssg63
g2911
sg56
(lp2923
S':'
asbag49
(g70
g51
NtRp2924
(dp2925
g54
(dp2926
sg63
g2911
sg56
(lp2927
g49
(g50
g51
NtRp2928
(dp2929
g54
(dp2930
g62
I3
ssg63
g2924
sg56
(lp2931
g92
asbasbasbag49
(g65
g51
NtRp2932
(dp2933
g54
(dp2934
sg63
g2379
sg56
(lp2935
g49
(g70
g51
NtRp2936
(dp2937
g54
(dp2938
g74
g75
ssg63
g2932
sg56
(lp2939
S'wsgi.url_scheme'
p2940
asbag49
(g70
g51
NtRp2941
(dp2942
g54
(dp2943
g81
g82
ssg63
g2932
sg56
(lp2944
S':'
asbag49
(g70
g51
NtRp2945
(dp2946
g54
(dp2947
sg63
g2932
sg56
(lp2948
g49
(g50
g51
NtRp2949
(dp2950
g54
(dp2951
g62
I3
ssg63
g2945
sg56
(lp2952
g1673
asbasbasbag49
(g65
g51
NtRp2953
(dp2954
g54
(dp2955
sg63
g2379
sg56
(lp2956
g49
(g70
g51
NtRp2957
(dp2958
g54
(dp2959
g74
g75
ssg63
g2953
sg56
(lp2960
S'wsgi.version'
p2961
asbag49
(g70
g51
NtRp2962
(dp2963
g54
(dp2964
g81
g82
ssg63
g2953
sg56
(lp2965
S':'
asbag49
(g70
g51
NtRp2966
(dp2967
g54
(dp2968
sg63
g2953
sg56
(lp2969
g49
(g50
g51
NtRp2970
(dp2971
g54
(dp2972
g62
I3
ssg63
g2966
sg56
(lp2973
S'1'
asbasbasbasbasbasbasbasbasbasbasbasbasbsS'frames'
p2974
(lp2975
(dp2976
S'file'
p2977
S'C:\\web2py\\gluon\\restricted.py'
p2978
sS'dump'
p2979
(dp2980
sS'lnum'
p2981
I205
sS'lines'
p2982
(dp2983
sS'call'
p2984
S'(code=\'response.write(\\\'<!DOCTYPE html>\\\\r\\\\n<html lang="e...n\\\\r\\\\n  </body>\\\\r\\\\n</html>\\\\r\\\\n\\\\r\\\\n\\\', escape=False)\', environment={\'A\': <class \'gluon.html.A\'>, \'Auth\': <class \'gluon.tools.Auth\'>, \'B\': <class \'gluon.html.B\'>, \'BEAUTIFY\': <class \'gluon.html.BEAUTIFY\'>, \'BODY\': <class \'gluon.html.BODY\'>, \'BR\': <class \'gluon.html.BR\'>, \'BUTTON\': <class \'gluon.html.BUTTON\'>, \'CAT\': <class \'gluon.html.CAT\'>, \'CENTER\': <class \'gluon.html.CENTER\'>, \'CLEANUP\': <class \'gluon.validators.CLEANUP\'>, ...}, layer=r\'C:\\web2py\\applications\\unioeste_code\\views\\default/index.html\')'
p2985
sS'func'
p2986
S'restricted'
p2987
sa(dp2988
g2977
S'C:\\web2py\\applications\\unioeste_code\\views\\default\\index.html'
p2989
sg2979
(dp2990
sg2981
I16
sg2982
(dp2991
I7
S'response.write(\'</a>\\r\\n          <div class="nav-collapse">\\r\\n          <ul class="nav pull-right">\\r\\n            <li class="divider-vertical"></li>\\r\\n            <li class="uc_topbar"><a href="#">Sobre</a></li>\\r\\n            <li class="divider-vertical"></li>\\r\\n            <li class="uc_topbar"><a href="#">Login!</a></li>\\r\\n            <li class="divider-vertical"></li>\\r\\n\\r\\n<!-- Drop Down Login\\r\\n            <li class="dropdown">\\r\\n              <a href="#" class="dropdown-toggle" data-toggle="dropdown">Dropdown <b class="caret"></b></a>\\r\\n              <ul class="dropdown-menu">\\r\\n                <li><a href="#">Action</a></li>\\r\\n                <li><a href="#">Another action</a></li>\\r\\n                <li><a href="#">Something else here</a></li>\\r\\n                <li class="divider"></li>\\r\\n                <li><a href="#">Separated link</a></li>\\r\\n              </ul>\\r\\n            </li>\\r\\n          </ul>\\r\\n-->\\r\\n          </div><!--/.nav-collapse -->\\r\\n        </div>\\r\\n      </div>\\r\\n    </div>\\r\\n\\r\\n<!-- Corpo principal da p\\xc3\\xa1gina! -->\\r\\n\\r\\n    <div class="container">\\r\\n      \', escape=False)'
p2992
sI8
S"response.write('\\r\\n      ', escape=False)"
p2993
sI9
S"response.write('\\n\\n\\n', escape=False)"
p2994
sI10
S'response.write(H1(T("Current Problems")))'
p2995
sI11
S"response.write('\\n\\n', escape=False)"
p2996
sI12
S'for problem in problems:'
p2997
sI13
S"    response.write('\\n<ul>\\n', escape=False)"
p2998
sI14
S'    user = db(db.auth_user.id==problem.created_by).select().first()'
p2999
sI15
S"    response.write('\\n', escape=False)"
p3000
sI16
S'    response.write(A(problem.title, _style="font-weight:bold;",_href=URL("Problem", args=problem.id)), " (" + user.first_name + " " + user.last_name + ") ", SPAN(prettydate(problem.created_on)))'
p3001
sI17
S"    response.write('\\n\\n\\n</ul>\\n', escape=False)"
p3002
sI18
S'    pass'
p3003
sI19
S"response.write('\\n\\n\\n\\n\\n', escape=False)"
p3004
sI20
S"response.write('\\r\\n      ', escape=False)"
p3005
sI21
S"response.write('\\r\\n\\r\\n    </div> <!-- /container -->\\r\\n\\r\\n  </body>\\r\\n</html>\\r\\n\\r\\n', escape=False)"
p3006
ssg2984
S'()'
p3007
sg2986
S'<module>'
p3008
sasS'pyver'
p3009
S'Python 2.5.4: C:\\web2py\\web2py_no_console.exe'
p3010
sS'session'
p3011
g49
(g50
g51
NtRp3012
(dp3013
g54
(dp3014
sg56
(lp3015
g49
(g58
g51
NtRp3016
(dp3017
g54
(dp3018
g62
I5
ssg63
Nsg56
(lp3019
g49
(g65
g51
NtRp3020
(dp3021
g54
(dp3022
sg63
g3016
sg56
(lp3023
g49
(g70
g51
NtRp3024
(dp3025
g54
(dp3026
g74
g75
ssg63
g3020
sg56
(lp3027
S'auth'
p3028
asbag49
(g70
g51
NtRp3029
(dp3030
g54
(dp3031
g81
g82
ssg63
g3020
sg56
(lp3032
S':'
asbag49
(g70
g51
NtRp3033
(dp3034
g54
(dp3035
sg63
g3020
sg56
(lp3036
g49
(g50
g51
NtRp3037
(dp3038
g54
(dp3039
g62
I5
ssg63
g3033
sg56
(lp3040
g49
(g58
g51
NtRp3041
(dp3042
g54
(dp3043
g62
I4
ssg63
Nsg56
(lp3044
g49
(g65
g51
NtRp3045
(dp3046
g54
(dp3047
sg63
g3041
sg56
(lp3048
g49
(g70
g51
NtRp3049
(dp3050
g54
(dp3051
g74
g75
ssg63
g3045
sg56
(lp3052
S'expiration'
p3053
asbag49
(g70
g51
NtRp3054
(dp3055
g54
(dp3056
g81
g82
ssg63
g3045
sg56
(lp3057
S':'
asbag49
(g70
g51
NtRp3058
(dp3059
g54
(dp3060
sg63
g3045
sg56
(lp3061
g49
(g50
g51
NtRp3062
(dp3063
g54
(dp3064
g62
I4
ssg63
g3058
sg56
(lp3065
S'3600'
p3066
asbasbasbag49
(g65
g51
NtRp3067
(dp3068
g54
(dp3069
sg63
g3041
sg56
(lp3070
g49
(g70
g51
NtRp3071
(dp3072
g54
(dp3073
g74
g75
ssg63
g3067
sg56
(lp3074
S'hmac_key'
p3075
asbag49
(g70
g51
NtRp3076
(dp3077
g54
(dp3078
g81
g82
ssg63
g3067
sg56
(lp3079
S':'
asbag49
(g70
g51
NtRp3080
(dp3081
g54
(dp3082
sg63
g3067
sg56
(lp3083
g49
(g50
g51
NtRp3084
(dp3085
g54
(dp3086
g62
I4
ssg63
g3080
sg56
(lp3087
S'a50b3653-d4b0-4d12-a281-09bd5b59ddea'
p3088
asbasbasbag49
(g65
g51
NtRp3089
(dp3090
g54
(dp3091
sg63
g3041
sg56
(lp3092
g49
(g70
g51
NtRp3093
(dp3094
g54
(dp3095
g74
g75
ssg63
g3089
sg56
(lp3096
S'last_visit'
p3097
asbag49
(g70
g51
NtRp3098
(dp3099
g54
(dp3100
g81
g82
ssg63
g3089
sg56
(lp3101
S':'
asbag49
(g70
g51
NtRp3102
(dp3103
g54
(dp3104
sg63
g3089
sg56
(lp3105
g49
(g50
g51
NtRp3106
(dp3107
g54
(dp3108
g62
I4
ssg63
g3102
sg56
(lp3109
S'datetime.datetime(2012, 8, 1, 16, 55, 59, 401000)'
p3110
asbasbasbag49
(g65
g51
NtRp3111
(dp3112
g54
(dp3113
sg63
g3041
sg56
(lp3114
g49
(g70
g51
NtRp3115
(dp3116
g54
(dp3117
g74
g75
ssg63
g3111
sg56
(lp3118
S'remember'
p3119
asbag49
(g70
g51
NtRp3120
(dp3121
g54
(dp3122
g81
g82
ssg63
g3111
sg56
(lp3123
S':'
asbag49
(g70
g51
NtRp3124
(dp3125
g54
(dp3126
sg63
g3111
sg56
(lp3127
g49
(g50
g51
NtRp3128
(dp3129
g54
(dp3130
g62
I4
ssg63
g3124
sg56
(lp3131
g92
asbasbasbag49
(g65
g51
NtRp3132
(dp3133
g54
(dp3134
sg63
g3041
sg56
(lp3135
g49
(g70
g51
NtRp3136
(dp3137
g54
(dp3138
g74
g75
ssg63
g3132
sg56
(lp3139
S'user'
p3140
asbag49
(g70
g51
NtRp3141
(dp3142
g54
(dp3143
g81
g82
ssg63
g3132
sg56
(lp3144
S':'
asbag49
(g70
g51
NtRp3145
(dp3146
g54
(dp3147
sg63
g3132
sg56
(lp3148
g49
(g50
g51
NtRp3149
(dp3150
g54
(dp3151
g62
I4
ssg63
g3145
sg56
(lp3152
g49
(g58
g51
NtRp3153
(dp3154
g54
(dp3155
g62
I3
ssg63
Nsg56
(lp3156
g49
(g65
g51
NtRp3157
(dp3158
g54
(dp3159
sg63
g3153
sg56
(lp3160
g49
(g70
g51
NtRp3161
(dp3162
g54
(dp3163
g74
g75
ssg63
g3157
sg56
(lp3164
S'email'
p3165
asbag49
(g70
g51
NtRp3166
(dp3167
g54
(dp3168
g81
g82
ssg63
g3157
sg56
(lp3169
S':'
asbag49
(g70
g51
NtRp3170
(dp3171
g54
(dp3172
sg63
g3157
sg56
(lp3173
g49
(g50
g51
NtRp3174
(dp3175
g54
(dp3176
g62
I3
ssg63
g3170
sg56
(lp3177
S'scmirror1@gmail.com'
p3178
asbasbasbag49
(g65
g51
NtRp3179
(dp3180
g54
(dp3181
sg63
g3153
sg56
(lp3182
g49
(g70
g51
NtRp3183
(dp3184
g54
(dp3185
g74
g75
ssg63
g3179
sg56
(lp3186
S'first_name'
p3187
asbag49
(g70
g51
NtRp3188
(dp3189
g54
(dp3190
g81
g82
ssg63
g3179
sg56
(lp3191
S':'
asbag49
(g70
g51
NtRp3192
(dp3193
g54
(dp3194
sg63
g3179
sg56
(lp3195
g49
(g50
g51
NtRp3196
(dp3197
g54
(dp3198
g62
I3
ssg63
g3192
sg56
(lp3199
S'Pedro'
p3200
asbasbasbag49
(g65
g51
NtRp3201
(dp3202
g54
(dp3203
sg63
g3153
sg56
(lp3204
g49
(g70
g51
NtRp3205
(dp3206
g54
(dp3207
g74
g75
ssg63
g3201
sg56
(lp3208
S'id'
p3209
asbag49
(g70
g51
NtRp3210
(dp3211
g54
(dp3212
g81
g82
ssg63
g3201
sg56
(lp3213
S':'
asbag49
(g70
g51
NtRp3214
(dp3215
g54
(dp3216
sg63
g3201
sg56
(lp3217
g49
(g50
g51
NtRp3218
(dp3219
g54
(dp3220
g62
I3
ssg63
g3214
sg56
(lp3221
S'1'
asbasbasbag49
(g65
g51
NtRp3222
(dp3223
g54
(dp3224
sg63
g3153
sg56
(lp3225
g49
(g70
g51
NtRp3226
(dp3227
g54
(dp3228
g74
g75
ssg63
g3222
sg56
(lp3229
S'last_name'
p3230
asbag49
(g70
g51
NtRp3231
(dp3232
g54
(dp3233
g81
g82
ssg63
g3222
sg56
(lp3234
S':'
asbag49
(g70
g51
NtRp3235
(dp3236
g54
(dp3237
sg63
g3222
sg56
(lp3238
g49
(g50
g51
NtRp3239
(dp3240
g54
(dp3241
g62
I3
ssg63
g3235
sg56
(lp3242
S'Lacerda'
p3243
asbasbasbag49
(g65
g51
NtRp3244
(dp3245
g54
(dp3246
sg63
g3153
sg56
(lp3247
g49
(g70
g51
NtRp3248
(dp3249
g54
(dp3250
g74
g75
ssg63
g3244
sg56
(lp3251
S'password'
p3252
asbag49
(g70
g51
NtRp3253
(dp3254
g54
(dp3255
g81
g82
ssg63
g3244
sg56
(lp3256
S':'
asbag49
(g70
g51
NtRp3257
(dp3258
g54
(dp3259
sg63
g3244
sg56
(lp3260
g49
(g50
g51
NtRp3261
(dp3262
g54
(dp3263
g62
I3
ssg63
g3257
sg56
(lp3264
S'4297f44b13955235245b2497399d7a93'
p3265
asbasbasbag49
(g65
g51
NtRp3266
(dp3267
g54
(dp3268
sg63
g3153
sg56
(lp3269
g49
(g70
g51
NtRp3270
(dp3271
g54
(dp3272
g74
g75
ssg63
g3266
sg56
(lp3273
S'registration_id'
p3274
asbag49
(g70
g51
NtRp3275
(dp3276
g54
(dp3277
g81
g82
ssg63
g3266
sg56
(lp3278
S':'
asbag49
(g70
g51
NtRp3279
(dp3280
g54
(dp3281
sg63
g3266
sg56
(lp3282
g49
(g50
g51
NtRp3283
(dp3284
g54
(dp3285
g62
I3
ssg63
g3279
sg56
(lp3286
S''
asbasbasbag49
(g65
g51
NtRp3287
(dp3288
g54
(dp3289
sg63
g3153
sg56
(lp3290
g49
(g70
g51
NtRp3291
(dp3292
g54
(dp3293
g74
g75
ssg63
g3287
sg56
(lp3294
S'registration_key'
p3295
asbag49
(g70
g51
NtRp3296
(dp3297
g54
(dp3298
g81
g82
ssg63
g3287
sg56
(lp3299
S':'
asbag49
(g70
g51
NtRp3300
(dp3301
g54
(dp3302
sg63
g3287
sg56
(lp3303
g49
(g50
g51
NtRp3304
(dp3305
g54
(dp3306
g62
I3
ssg63
g3300
sg56
(lp3307
S''
asbasbasbag49
(g65
g51
NtRp3308
(dp3309
g54
(dp3310
sg63
g3153
sg56
(lp3311
g49
(g70
g51
NtRp3312
(dp3313
g54
(dp3314
g74
g75
ssg63
g3308
sg56
(lp3315
S'reset_password_key'
p3316
asbag49
(g70
g51
NtRp3317
(dp3318
g54
(dp3319
g81
g82
ssg63
g3308
sg56
(lp3320
S':'
asbag49
(g70
g51
NtRp3321
(dp3322
g54
(dp3323
sg63
g3308
sg56
(lp3324
g49
(g50
g51
NtRp3325
(dp3326
g54
(dp3327
g62
I3
ssg63
g3321
sg56
(lp3328
S''
asbasbasbasbasbasbasbag49
(g65
g51
NtRp3329
(dp3330
g54
(dp3331
sg63
g3041
sg56
(lp3332
g49
(g70
g51
NtRp3333
(dp3334
g54
(dp3335
g74
g75
ssg63
g3329
sg56
(lp3336
S'user_groups'
p3337
asbag49
(g70
g51
NtRp3338
(dp3339
g54
(dp3340
g81
g82
ssg63
g3329
sg56
(lp3341
S':'
asbag49
(g70
g51
NtRp3342
(dp3343
g54
(dp3344
sg63
g3329
sg56
(lp3345
g49
(g50
g51
NtRp3346
(dp3347
g54
(dp3348
g62
I4
ssg63
g3342
sg56
(lp3349
g49
(g58
g51
NtRp3350
(dp3351
g54
(dp3352
g62
I3
ssg63
Nsg56
(lp3353
g49
(g65
g51
NtRp3354
(dp3355
g54
(dp3356
sg63
g3350
sg56
(lp3357
g49
(g70
g51
NtRp3358
(dp3359
g54
(dp3360
g74
g75
ssg63
g3354
sg56
(lp3361
S'1'
asbag49
(g70
g51
NtRp3362
(dp3363
g54
(dp3364
g81
g82
ssg63
g3354
sg56
(lp3365
S':'
asbag49
(g70
g51
NtRp3366
(dp3367
g54
(dp3368
sg63
g3354
sg56
(lp3369
g49
(g50
g51
NtRp3370
(dp3371
g54
(dp3372
g62
I3
ssg63
g3366
sg56
(lp3373
S'user_1'
p3374
asbasbasbag49
(g65
g51
NtRp3375
(dp3376
g54
(dp3377
sg63
g3350
sg56
(lp3378
g49
(g70
g51
NtRp3379
(dp3380
g54
(dp3381
g74
g75
ssg63
g3375
sg56
(lp3382
S'2'
asbag49
(g70
g51
NtRp3383
(dp3384
g54
(dp3385
g81
g82
ssg63
g3375
sg56
(lp3386
S':'
asbag49
(g70
g51
NtRp3387
(dp3388
g54
(dp3389
sg63
g3375
sg56
(lp3390
g49
(g50
g51
NtRp3391
(dp3392
g54
(dp3393
g62
I3
ssg63
g3387
sg56
(lp3394
S'manager'
p3395
asbasbasbasbasbasbasbasbasbasbasbasbasbsS'etype'
p3396
S"<type 'exceptions.TypeError'>"
p3397
sS'date'
p3398
S'Wed Aug 01 16:55:59 2012'
p3399
sS'response'
p3400
g49
(g50
g51
NtRp3401
(dp3402
g54
(dp3403
sg56
(lp3404
g49
(g58
g51
NtRp3405
(dp3406
g54
(dp3407
g62
I5
ssg63
Nsg56
(lp3408
g49
(g65
g51
NtRp3409
(dp3410
g54
(dp3411
sg63
g3405
sg56
(lp3412
g49
(g70
g51
NtRp3413
(dp3414
g54
(dp3415
g74
g75
ssg63
g3409
sg56
(lp3416
g147
asbag49
(g70
g51
NtRp3417
(dp3418
g54
(dp3419
g81
g82
ssg63
g3409
sg56
(lp3420
S':'
asbag49
(g70
g51
NtRp3421
(dp3422
g54
(dp3423
sg63
g3409
sg56
(lp3424
g49
(g50
g51
NtRp3425
(dp3426
g54
(dp3427
g62
I5
ssg63
g3421
sg56
(lp3428
S'<cStringIO.StringO object at 0x077C21E0>'
p3429
asbasbasbag49
(g65
g51
NtRp3430
(dp3431
g54
(dp3432
sg63
g3405
sg56
(lp3433
g49
(g70
g51
NtRp3434
(dp3435
g54
(dp3436
g74
g75
ssg63
g3430
sg56
(lp3437
g213
asbag49
(g70
g51
NtRp3438
(dp3439
g54
(dp3440
g81
g82
ssg63
g3430
sg56
(lp3441
S':'
asbag49
(g70
g51
NtRp3442
(dp3443
g54
(dp3444
sg63
g3430
sg56
(lp3445
g49
(g50
g51
NtRp3446
(dp3447
g54
(dp3448
g62
I5
ssg63
g3442
sg56
(lp3449
g49
(g58
g51
NtRp3450
(dp3451
g54
(dp3452
g62
I4
ssg63
Nsg56
(lp3453
g49
(g65
g51
NtRp3454
(dp3455
g54
(dp3456
sg63
g3450
sg56
(lp3457
g49
(g70
g51
NtRp3458
(dp3459
g54
(dp3460
g74
g75
ssg63
g3454
sg56
(lp3461
S'session_id_unioeste_code'
p3462
asbag49
(g70
g51
NtRp3463
(dp3464
g54
(dp3465
g81
g82
ssg63
g3454
sg56
(lp3466
S':'
asbag49
(g70
g51
NtRp3467
(dp3468
g54
(dp3469
sg63
g3454
sg56
(lp3470
g49
(g50
g51
NtRp3471
(dp3472
g54
(dp3473
g62
I4
ssg63
g3467
sg56
(lp3474
g49
(g58
g51
NtRp3475
(dp3476
g54
(dp3477
g62
I3
ssg63
Nsg56
(lp3478
g49
(g65
g51
NtRp3479
(dp3480
g54
(dp3481
sg63
g3475
sg56
(lp3482
g49
(g70
g51
NtRp3483
(dp3484
g54
(dp3485
g74
g75
ssg63
g3479
sg56
(lp3486
g263
asbag49
(g70
g51
NtRp3487
(dp3488
g54
(dp3489
g81
g82
ssg63
g3479
sg56
(lp3490
S':'
asbag49
(g70
g51
NtRp3491
(dp3492
g54
(dp3493
sg63
g3479
sg56
(lp3494
g49
(g50
g51
NtRp3495
(dp3496
g54
(dp3497
g62
I3
ssg63
g3491
sg56
(lp3498
S''
asbasbasbag49
(g65
g51
NtRp3499
(dp3500
g54
(dp3501
sg63
g3475
sg56
(lp3502
g49
(g70
g51
NtRp3503
(dp3504
g54
(dp3505
g74
g75
ssg63
g3499
sg56
(lp3506
g284
asbag49
(g70
g51
NtRp3507
(dp3508
g54
(dp3509
g81
g82
ssg63
g3499
sg56
(lp3510
S':'
asbag49
(g70
g51
NtRp3511
(dp3512
g54
(dp3513
sg63
g3499
sg56
(lp3514
g49
(g50
g51
NtRp3515
(dp3516
g54
(dp3517
g62
I3
ssg63
g3511
sg56
(lp3518
S''
asbasbasbag49
(g65
g51
NtRp3519
(dp3520
g54
(dp3521
sg63
g3475
sg56
(lp3522
g49
(g70
g51
NtRp3523
(dp3524
g54
(dp3525
g74
g75
ssg63
g3519
sg56
(lp3526
g305
asbag49
(g70
g51
NtRp3527
(dp3528
g54
(dp3529
g81
g82
ssg63
g3519
sg56
(lp3530
S':'
asbag49
(g70
g51
NtRp3531
(dp3532
g54
(dp3533
sg63
g3519
sg56
(lp3534
g49
(g50
g51
NtRp3535
(dp3536
g54
(dp3537
g62
I3
ssg63
g3531
sg56
(lp3538
S''
asbasbasbag49
(g65
g51
NtRp3539
(dp3540
g54
(dp3541
sg63
g3475
sg56
(lp3542
g49
(g70
g51
NtRp3543
(dp3544
g54
(dp3545
g74
g75
ssg63
g3539
sg56
(lp3546
g326
asbag49
(g70
g51
NtRp3547
(dp3548
g54
(dp3549
g81
g82
ssg63
g3539
sg56
(lp3550
S':'
asbag49
(g70
g51
NtRp3551
(dp3552
g54
(dp3553
sg63
g3539
sg56
(lp3554
g49
(g50
g51
NtRp3555
(dp3556
g54
(dp3557
g62
I3
ssg63
g3551
sg56
(lp3558
S''
asbasbasbag49
(g65
g51
NtRp3559
(dp3560
g54
(dp3561
sg63
g3475
sg56
(lp3562
g49
(g70
g51
NtRp3563
(dp3564
g54
(dp3565
g74
g75
ssg63
g3559
sg56
(lp3566
g347
asbag49
(g70
g51
NtRp3567
(dp3568
g54
(dp3569
g81
g82
ssg63
g3559
sg56
(lp3570
S':'
asbag49
(g70
g51
NtRp3571
(dp3572
g54
(dp3573
sg63
g3559
sg56
(lp3574
g49
(g50
g51
NtRp3575
(dp3576
g54
(dp3577
g62
I3
ssg63
g3571
sg56
(lp3578
S'/'
asbasbasbag49
(g65
g51
NtRp3579
(dp3580
g54
(dp3581
sg63
g3475
sg56
(lp3582
g49
(g70
g51
NtRp3583
(dp3584
g54
(dp3585
g74
g75
ssg63
g3579
sg56
(lp3586
g368
asbag49
(g70
g51
NtRp3587
(dp3588
g54
(dp3589
g81
g82
ssg63
g3579
sg56
(lp3590
S':'
asbag49
(g70
g51
NtRp3591
(dp3592
g54
(dp3593
sg63
g3579
sg56
(lp3594
g49
(g50
g51
NtRp3595
(dp3596
g54
(dp3597
g62
I3
ssg63
g3591
sg56
(lp3598
S''
asbasbasbag49
(g65
g51
NtRp3599
(dp3600
g54
(dp3601
sg63
g3475
sg56
(lp3602
g49
(g70
g51
NtRp3603
(dp3604
g54
(dp3605
g74
g75
ssg63
g3599
sg56
(lp3606
g389
asbag49
(g70
g51
NtRp3607
(dp3608
g54
(dp3609
g81
g82
ssg63
g3599
sg56
(lp3610
S':'
asbag49
(g70
g51
NtRp3611
(dp3612
g54
(dp3613
sg63
g3599
sg56
(lp3614
g49
(g50
g51
NtRp3615
(dp3616
g54
(dp3617
g62
I3
ssg63
g3611
sg56
(lp3618
S''
asbasbasbasbasbasbasbasbasbasbasbag49
(g65
g51
NtRp3619
(dp3620
g54
(dp3621
sg63
g3405
sg56
(lp3622
g49
(g70
g51
NtRp3623
(dp3624
g54
(dp3625
g74
g75
ssg63
g3619
sg56
(lp3626
S'delimiters'
p3627
asbag49
(g70
g51
NtRp3628
(dp3629
g54
(dp3630
g81
g82
ssg63
g3619
sg56
(lp3631
S':'
asbag49
(g70
g51
NtRp3632
(dp3633
g54
(dp3634
sg63
g3619
sg56
(lp3635
g49
(g50
g51
NtRp3636
(dp3637
g54
(dp3638
g62
I5
ssg63
g3632
sg56
(lp3639
g49
(g58
g51
NtRp3640
(dp3641
g54
(dp3642
g62
I4
ssg63
Nsg56
(lp3643
g49
(g65
g51
NtRp3644
(dp3645
g54
(dp3646
sg63
g3640
sg56
(lp3647
g49
(g70
g51
NtRp3648
(dp3649
g54
(dp3650
sg63
g3644
sg56
(lp3651
g49
(g50
g51
NtRp3652
(dp3653
g54
(dp3654
g62
I4
ssg63
g3648
sg56
(lp3655
S'{{'
p3656
asbasbasbag49
(g65
g51
NtRp3657
(dp3658
g54
(dp3659
sg63
g3640
sg56
(lp3660
g49
(g70
g51
NtRp3661
(dp3662
g54
(dp3663
sg63
g3657
sg56
(lp3664
g49
(g50
g51
NtRp3665
(dp3666
g54
(dp3667
g62
I4
ssg63
g3661
sg56
(lp3668
S'}}'
p3669
asbasbasbasbasbasbasbag49
(g65
g51
NtRp3670
(dp3671
g54
(dp3672
sg63
g3405
sg56
(lp3673
g49
(g70
g51
NtRp3674
(dp3675
g54
(dp3676
g74
g75
ssg63
g3670
sg56
(lp3677
S'files'
p3678
asbag49
(g70
g51
NtRp3679
(dp3680
g54
(dp3681
g81
g82
ssg63
g3670
sg56
(lp3682
S':'
asbag49
(g70
g51
NtRp3683
(dp3684
g54
(dp3685
sg63
g3670
sg56
(lp3686
g49
(g50
g51
NtRp3687
(dp3688
g54
(dp3689
g62
I5
ssg63
g3683
sg56
(lp3690
g49
(g58
g51
NtRp3691
(dp3692
g54
(dp3693
g62
I4
ssg63
Nsg56
(lp3694
sbasbasbasbag49
(g65
g51
NtRp3695
(dp3696
g54
(dp3697
sg63
g3405
sg56
(lp3698
g49
(g70
g51
NtRp3699
(dp3700
g54
(dp3701
g74
g75
ssg63
g3695
sg56
(lp3702
S'flash'
p3703
asbag49
(g70
g51
NtRp3704
(dp3705
g54
(dp3706
g81
g82
ssg63
g3695
sg56
(lp3707
S':'
asbag49
(g70
g51
NtRp3708
(dp3709
g54
(dp3710
sg63
g3695
sg56
(lp3711
g49
(g50
g51
NtRp3712
(dp3713
g54
(dp3714
g62
I5
ssg63
g3708
sg56
(lp3715
S''
asbasbasbag49
(g65
g51
NtRp3716
(dp3717
g54
(dp3718
sg63
g3405
sg56
(lp3719
g49
(g70
g51
NtRp3720
(dp3721
g54
(dp3722
g74
g75
ssg63
g3716
sg56
(lp3723
S'generic_patterns'
p3724
asbag49
(g70
g51
NtRp3725
(dp3726
g54
(dp3727
g81
g82
ssg63
g3716
sg56
(lp3728
S':'
asbag49
(g70
g51
NtRp3729
(dp3730
g54
(dp3731
sg63
g3716
sg56
(lp3732
g49
(g50
g51
NtRp3733
(dp3734
g54
(dp3735
g62
I5
ssg63
g3729
sg56
(lp3736
g49
(g58
g51
NtRp3737
(dp3738
g54
(dp3739
g62
I4
ssg63
Nsg56
(lp3740
sbasbasbasbag49
(g65
g51
NtRp3741
(dp3742
g54
(dp3743
sg63
g3405
sg56
(lp3744
g49
(g70
g51
NtRp3745
(dp3746
g54
(dp3747
g74
g75
ssg63
g3741
sg56
(lp3748
S'headers'
p3749
asbag49
(g70
g51
NtRp3750
(dp3751
g54
(dp3752
g81
g82
ssg63
g3741
sg56
(lp3753
S':'
asbag49
(g70
g51
NtRp3754
(dp3755
g54
(dp3756
sg63
g3741
sg56
(lp3757
g49
(g50
g51
NtRp3758
(dp3759
g54
(dp3760
g62
I5
ssg63
g3754
sg56
(lp3761
g49
(g58
g51
NtRp3762
(dp3763
g54
(dp3764
g62
I4
ssg63
Nsg56
(lp3765
g49
(g65
g51
NtRp3766
(dp3767
g54
(dp3768
sg63
g3762
sg56
(lp3769
g49
(g70
g51
NtRp3770
(dp3771
g54
(dp3772
g74
g75
ssg63
g3766
sg56
(lp3773
S'Cache-Control'
p3774
asbag49
(g70
g51
NtRp3775
(dp3776
g54
(dp3777
g81
g82
ssg63
g3766
sg56
(lp3778
S':'
asbag49
(g70
g51
NtRp3779
(dp3780
g54
(dp3781
sg63
g3766
sg56
(lp3782
g49
(g50
g51
NtRp3783
(dp3784
g54
(dp3785
g62
I4
ssg63
g3779
sg56
(lp3786
S'no-store, no-cache, must-revalidate, post-check=0, pre-check=0'
p3787
asbasbasbag49
(g65
g51
NtRp3788
(dp3789
g54
(dp3790
sg63
g3762
sg56
(lp3791
g49
(g70
g51
NtRp3792
(dp3793
g54
(dp3794
g74
g75
ssg63
g3788
sg56
(lp3795
S'Content-Type'
p3796
asbag49
(g70
g51
NtRp3797
(dp3798
g54
(dp3799
g81
g82
ssg63
g3788
sg56
(lp3800
S':'
asbag49
(g70
g51
NtRp3801
(dp3802
g54
(dp3803
sg63
g3788
sg56
(lp3804
g49
(g50
g51
NtRp3805
(dp3806
g54
(dp3807
g62
I4
ssg63
g3801
sg56
(lp3808
S'text/html; charset=utf-8'
p3809
asbasbasbag49
(g65
g51
NtRp3810
(dp3811
g54
(dp3812
sg63
g3762
sg56
(lp3813
g49
(g70
g51
NtRp3814
(dp3815
g54
(dp3816
g74
g75
ssg63
g3810
sg56
(lp3817
S'Expires'
p3818
asbag49
(g70
g51
NtRp3819
(dp3820
g54
(dp3821
g81
g82
ssg63
g3810
sg56
(lp3822
S':'
asbag49
(g70
g51
NtRp3823
(dp3824
g54
(dp3825
sg63
g3810
sg56
(lp3826
g49
(g50
g51
NtRp3827
(dp3828
g54
(dp3829
g62
I4
ssg63
g3823
sg56
(lp3830
S'Wed, 01 Aug 2012 19:55:59 GMT'
p3831
asbasbasbag49
(g65
g51
NtRp3832
(dp3833
g54
(dp3834
sg63
g3762
sg56
(lp3835
g49
(g70
g51
NtRp3836
(dp3837
g54
(dp3838
g74
g75
ssg63
g3832
sg56
(lp3839
S'Pragma'
p3840
asbag49
(g70
g51
NtRp3841
(dp3842
g54
(dp3843
g81
g82
ssg63
g3832
sg56
(lp3844
S':'
asbag49
(g70
g51
NtRp3845
(dp3846
g54
(dp3847
sg63
g3832
sg56
(lp3848
g49
(g50
g51
NtRp3849
(dp3850
g54
(dp3851
g62
I4
ssg63
g3845
sg56
(lp3852
S'no-cache'
p3853
asbasbasbag49
(g65
g51
NtRp3854
(dp3855
g54
(dp3856
sg63
g3762
sg56
(lp3857
g49
(g70
g51
NtRp3858
(dp3859
g54
(dp3860
g74
g75
ssg63
g3854
sg56
(lp3861
S'X-Powered-By'
p3862
asbag49
(g70
g51
NtRp3863
(dp3864
g54
(dp3865
g81
g82
ssg63
g3854
sg56
(lp3866
S':'
asbag49
(g70
g51
NtRp3867
(dp3868
g54
(dp3869
sg63
g3854
sg56
(lp3870
g49
(g50
g51
NtRp3871
(dp3872
g54
(dp3873
g62
I4
ssg63
g3867
sg56
(lp3874
S'web2py'
p3875
asbasbasbasbasbasbasbag49
(g65
g51
NtRp3876
(dp3877
g54
(dp3878
sg63
g3405
sg56
(lp3879
g49
(g70
g51
NtRp3880
(dp3881
g54
(dp3882
g74
g75
ssg63
g3876
sg56
(lp3883
S'menu'
p3884
asbag49
(g70
g51
NtRp3885
(dp3886
g54
(dp3887
g81
g82
ssg63
g3876
sg56
(lp3888
S':'
asbag49
(g70
g51
NtRp3889
(dp3890
g54
(dp3891
sg63
g3876
sg56
(lp3892
g49
(g50
g51
NtRp3893
(dp3894
g54
(dp3895
g62
I5
ssg63
g3889
sg56
(lp3896
g49
(g58
g51
NtRp3897
(dp3898
g54
(dp3899
g62
I4
ssg63
Nsg56
(lp3900
g49
(g65
g51
NtRp3901
(dp3902
g54
(dp3903
sg63
g3897
sg56
(lp3904
g49
(g70
g51
NtRp3905
(dp3906
g54
(dp3907
sg63
g3901
sg56
(lp3908
g49
(g50
g51
NtRp3909
(dp3910
g54
(dp3911
g62
I4
ssg63
g3905
sg56
(lp3912
g49
(g58
g51
NtRp3913
(dp3914
g54
(dp3915
g62
I3
ssg63
Nsg56
(lp3916
g49
(g65
g51
NtRp3917
(dp3918
g54
(dp3919
sg63
g3913
sg56
(lp3920
g49
(g70
g51
NtRp3921
(dp3922
g54
(dp3923
sg63
g3917
sg56
(lp3924
g49
(g50
g51
NtRp3925
(dp3926
g54
(dp3927
g62
I3
ssg63
g3921
sg56
(lp3928
cgluon.languages
lazyT_unpickle
p3929
(S't\x04\x00\x00\x00Home'
tRp3930
asbasbasbag49
(g65
g51
NtRp3931
(dp3932
g54
(dp3933
sg63
g3913
sg56
(lp3934
g49
(g70
g51
NtRp3935
(dp3936
g54
(dp3937
sg63
g3931
sg56
(lp3938
g49
(g50
g51
NtRp3939
(dp3940
g54
(dp3941
g62
I3
ssg63
g3935
sg56
(lp3942
g92
asbasbasbag49
(g65
g51
NtRp3943
(dp3944
g54
(dp3945
sg63
g3913
sg56
(lp3946
g49
(g70
g51
NtRp3947
(dp3948
g54
(dp3949
sg63
g3943
sg56
(lp3950
g49
(g50
g51
NtRp3951
(dp3952
g54
(dp3953
g62
I3
ssg63
g3947
sg56
(lp3954
S'/unioeste_code/default/index'
p3955
asbasbasbag49
(g65
g51
NtRp3956
(dp3957
g54
(dp3958
sg63
g3913
sg56
(lp3959
g49
(g70
g51
NtRp3960
(dp3961
g54
(dp3962
sg63
g3956
sg56
(lp3963
g49
(g50
g51
NtRp3964
(dp3965
g54
(dp3966
g62
I3
ssg63
g3960
sg56
(lp3967
g49
(g58
g51
NtRp3968
(dp3969
g54
(dp3970
g62
I2
ssg63
Nsg56
(lp3971
sbasbasbasbasbasbasbasbag49
(g65
g51
NtRp3972
(dp3973
g54
(dp3974
sg63
g3897
sg56
(lp3975
g49
(g70
g51
NtRp3976
(dp3977
g54
(dp3978
sg63
g3972
sg56
(lp3979
g49
(g50
g51
NtRp3980
(dp3981
g54
(dp3982
g62
I4
ssg63
g3976
sg56
(lp3983
g49
(g58
g51
NtRp3984
(dp3985
g54
(dp3986
g62
I3
ssg63
Nsg56
(lp3987
g49
(g65
g51
NtRp3988
(dp3989
g54
(dp3990
sg63
g3984
sg56
(lp3991
g49
(g70
g51
NtRp3992
(dp3993
g54
(dp3994
sg63
g3988
sg56
(lp3995
g49
(g50
g51
NtRp3996
(dp3997
g54
(dp3998
g62
I3
ssg63
g3992
sg56
(lp3999
g49
(cgluon.html
SPAN
p4000
g51
NtRp4001
(dp4002
g54
(dp4003
g74
S'color:yellow'
p4004
ssg63
Nsg56
(lp4005
g3875
asbasbasbasbag49
(g65
g51
NtRp4006
(dp4007
g54
(dp4008
sg63
g3984
sg56
(lp4009
g49
(g70
g51
NtRp4010
(dp4011
g54
(dp4012
sg63
g4006
sg56
(lp4013
g49
(g50
g51
NtRp4014
(dp4015
g54
(dp4016
g62
I3
ssg63
g4010
sg56
(lp4017
g92
asbasbasbag49
(g65
g51
NtRp4018
(dp4019
g54
(dp4020
sg63
g3984
sg56
(lp4021
g49
(g70
g51
NtRp4022
(dp4023
g54
(dp4024
sg63
g4018
sg56
(lp4025
g49
(g50
g51
NtRp4026
(dp4027
g54
(dp4028
g62
I3
ssg63
g4022
sg56
(lp4029
S'None'
p4030
asbasbasbag49
(g65
g51
NtRp4031
(dp4032
g54
(dp4033
sg63
g3984
sg56
(lp4034
g49
(g70
g51
NtRp4035
(dp4036
g54
(dp4037
sg63
g4031
sg56
(lp4038
g49
(g50
g51
NtRp4039
(dp4040
g54
(dp4041
g62
I3
ssg63
g4035
sg56
(lp4042
g49
(g58
g51
NtRp4043
(dp4044
g54
(dp4045
g62
I2
ssg63
Nsg56
(lp4046
g49
(g65
g51
NtRp4047
(dp4048
g54
(dp4049
sg63
g4043
sg56
(lp4050
g49
(g70
g51
NtRp4051
(dp4052
g54
(dp4053
sg63
g4047
sg56
(lp4054
g49
(g50
g51
NtRp4055
(dp4056
g54
(dp4057
g62
I2
ssg63
g4051
sg56
(lp4058
g49
(g58
g51
NtRp4059
(dp4060
g54
(dp4061
g62
I1
ssg63
Nsg56
(lp4062
g49
(g65
g51
NtRp4063
(dp4064
g54
(dp4065
sg63
g4059
sg56
(lp4066
g49
(g70
g51
NtRp4067
(dp4068
g54
(dp4069
sg63
g4063
sg56
(lp4070
g49
(g50
g51
NtRp4071
(dp4072
g54
(dp4073
g62
I1
ssg63
g4067
sg56
(lp4074
g3929
(S's\x08\x00\x00\x00My Sites'
tRp4075
asbasbasbag49
(g65
g51
NtRp4076
(dp4077
g54
(dp4078
sg63
g4059
sg56
(lp4079
g49
(g70
g51
NtRp4080
(dp4081
g54
(dp4082
sg63
g4076
sg56
(lp4083
g49
(g50
g51
NtRp4084
(dp4085
g54
(dp4086
g62
I1
ssg63
g4080
sg56
(lp4087
I00
asbasbasbag49
(g65
g51
NtRp4088
(dp4089
g54
(dp4090
sg63
g4059
sg56
(lp4091
g49
(g70
g51
NtRp4092
(dp4093
g54
(dp4094
sg63
g4088
sg56
(lp4095
g49
(g50
g51
NtRp4096
(dp4097
g54
(dp4098
g62
I1
ssg63
g4092
sg56
(lp4099
S'/admin/default/site'
p4100
asbasbasbasbasbasbasbag49
(g65
g51
NtRp4101
(dp4102
g54
(dp4103
sg63
g4043
sg56
(lp4104
g49
(g70
g51
NtRp4105
(dp4106
g54
(dp4107
sg63
g4101
sg56
(lp4108
g49
(g50
g51
NtRp4109
(dp4110
g54
(dp4111
g62
I2
ssg63
g4105
sg56
(lp4112
g49
(g58
g51
NtRp4113
(dp4114
g54
(dp4115
g62
I1
ssg63
Nsg56
(lp4116
g49
(g65
g51
NtRp4117
(dp4118
g54
(dp4119
sg63
g4113
sg56
(lp4120
g49
(g70
g51
NtRp4121
(dp4122
g54
(dp4123
sg63
g4117
sg56
(lp4124
g49
(g50
g51
NtRp4125
(dp4126
g54
(dp4127
g62
I1
ssg63
g4121
sg56
(lp4128
g3929
(S's\x08\x00\x00\x00This App'
tRp4129
asbasbasbag49
(g65
g51
NtRp4130
(dp4131
g54
(dp4132
sg63
g4113
sg56
(lp4133
g49
(g70
g51
NtRp4134
(dp4135
g54
(dp4136
sg63
g4130
sg56
(lp4137
g49
(g50
g51
NtRp4138
(dp4139
g54
(dp4140
g62
I1
ssg63
g4134
sg56
(lp4141
I00
asbasbasbag49
(g65
g51
NtRp4142
(dp4143
g54
(dp4144
sg63
g4113
sg56
(lp4145
g49
(g70
g51
NtRp4146
(dp4147
g54
(dp4148
sg63
g4142
sg56
(lp4149
g49
(g50
g51
NtRp4150
(dp4151
g54
(dp4152
g62
I1
ssg63
g4146
sg56
(lp4153
S'/admin/default/design/unioeste_code'
p4154
asbasbasbag49
(g65
g51
NtRp4155
(dp4156
g54
(dp4157
sg63
g4113
sg56
(lp4158
g49
(g70
g51
NtRp4159
(dp4160
g54
(dp4161
sg63
g4155
sg56
(lp4162
g49
(g50
g51
NtRp4163
(dp4164
g54
(dp4165
g62
I1
ssg63
g4159
sg56
(lp4166
(lp4167
(g3929
(S't\x0b\x00\x00\x00Controlador'
tRp4168
I00
S'/admin/default/edit/unioeste_code/controllers/default.py'
tp4169
a(g3929
(S's\x0e\x00\x00\x00Visualiza\xc3\xa7\xc3\xa3o'
tRp4170
I00
S'/admin/default/edit/unioeste_code/views/default/index.html'
tp4171
a(g3929
(S't\x06\x00\x00\x00Layout'
tRp4172
I00
S'/admin/default/edit/unioeste_code/views/layout.html'
tp4173
a(g3929
(S't\n\x00\x00\x00Stylesheet'
tRp4174
I00
S'/admin/default/edit/unioeste_code/static/css/web2py.css'
tp4175
a(g3929
(S's\t\x00\x00\x00Modelo BD'
tRp4176
I00
S'/admin/default/edit/unioeste_code/models/db.py'
tp4177
a(g3929
(S's\x0e\x00\x00\x00Modelo de Menu'
tRp4178
I00
S'/admin/default/edit/unioeste_code/models/menu.py'
tp4179
a(g3929
(S's\x0e\x00\x00\x00Banco de dados'
tRp4180
I00
S'/unioeste_code/appadmin/index'
tp4181
a(g3929
(S't\x06\x00\x00\x00Errors'
tRp4182
I00
S'/admin/default/errors/unioeste_code'
tp4183
a(g3929
(S't\x05\x00\x00\x00About'
tRp4184
I00
S'/admin/default/about/unioeste_code'
tp4185
aasbasbasbasbasbasbasbag49
(g65
g51
NtRp4186
(dp4187
g54
(dp4188
sg63
g4043
sg56
(lp4189
g49
(g70
g51
NtRp4190
(dp4191
g54
(dp4192
sg63
g4186
sg56
(lp4193
g49
(g50
g51
NtRp4194
(dp4195
g54
(dp4196
g62
I2
ssg63
g4190
sg56
(lp4197
g49
(g58
g51
NtRp4198
(dp4199
g54
(dp4200
g62
I1
ssg63
Nsg56
(lp4201
g49
(g65
g51
NtRp4202
(dp4203
g54
(dp4204
sg63
g4198
sg56
(lp4205
g49
(g70
g51
NtRp4206
(dp4207
g54
(dp4208
sg63
g4202
sg56
(lp4209
g49
(g50
g51
NtRp4210
(dp4211
g54
(dp4212
g62
I1
ssg63
g4206
sg56
(lp4213
S'web2py.com'
p4214
asbasbasbag49
(g65
g51
NtRp4215
(dp4216
g54
(dp4217
sg63
g4198
sg56
(lp4218
g49
(g70
g51
NtRp4219
(dp4220
g54
(dp4221
sg63
g4215
sg56
(lp4222
g49
(g50
g51
NtRp4223
(dp4224
g54
(dp4225
g62
I1
ssg63
g4219
sg56
(lp4226
I00
asbasbasbag49
(g65
g51
NtRp4227
(dp4228
g54
(dp4229
sg63
g4198
sg56
(lp4230
g49
(g70
g51
NtRp4231
(dp4232
g54
(dp4233
sg63
g4227
sg56
(lp4234
g49
(g50
g51
NtRp4235
(dp4236
g54
(dp4237
g62
I1
ssg63
g4231
sg56
(lp4238
S'http://www.web2py.com'
p4239
asbasbasbag49
(g65
g51
NtRp4240
(dp4241
g54
(dp4242
sg63
g4198
sg56
(lp4243
g49
(g70
g51
NtRp4244
(dp4245
g54
(dp4246
sg63
g4240
sg56
(lp4247
g49
(g50
g51
NtRp4248
(dp4249
g54
(dp4250
g62
I1
ssg63
g4244
sg56
(lp4251
(lp4252
(g3929
(S't\x08\x00\x00\x00Download'
tRp4253
I00
S'http://www.web2py.com/examples/default/download'
p4254
tp4255
a(g3929
(S't\x07\x00\x00\x00Support'
tRp4256
I00
S'http://www.web2py.com/examples/default/support'
p4257
tp4258
a(g3929
(S't\x04\x00\x00\x00Demo'
tRp4259
I00
S'http://web2py.com/demo_admin'
p4260
tp4261
a(g3929
(S's\x0e\x00\x00\x00Quick Examples'
tRp4262
I00
S'http://web2py.com/examples/default/examples'
p4263
tp4264
a(g3929
(S't\x03\x00\x00\x00FAQ'
tRp4265
I00
S'http://web2py.com/AlterEgo'
p4266
tp4267
a(g3929
(S't\x06\x00\x00\x00Videos'
tRp4268
I00
S'http://www.web2py.com/examples/default/videos/'
p4269
tp4270
a(g3929
(S's\x11\x00\x00\x00Free Applications'
tRp4271
I00
S'http://web2py.com/appliances'
p4272
tp4273
a(g3929
(S't\x07\x00\x00\x00Plugins'
tRp4274
I00
S'http://web2py.com/plugins'
p4275
tp4276
a(g3929
(S't\x07\x00\x00\x00Layouts'
tRp4277
I00
S'http://web2py.com/layouts'
p4278
tp4279
a(g3929
(S't\x07\x00\x00\x00Recipes'
tRp4280
I00
S'http://web2pyslices.com/'
p4281
tp4282
a(g3929
(S't\x08\x00\x00\x00Semantic'
tRp4283
I00
S'http://web2py.com/semantic'
p4284
tp4285
aasbasbasbasbasbasbasbag49
(g65
g51
NtRp4286
(dp4287
g54
(dp4288
sg63
g4043
sg56
(lp4289
g49
(g70
g51
NtRp4290
(dp4291
g54
(dp4292
sg63
g4286
sg56
(lp4293
g49
(g50
g51
NtRp4294
(dp4295
g54
(dp4296
g62
I2
ssg63
g4290
sg56
(lp4297
g49
(g58
g51
NtRp4298
(dp4299
g54
(dp4300
g62
I1
ssg63
Nsg56
(lp4301
g49
(g65
g51
NtRp4302
(dp4303
g54
(dp4304
sg63
g4298
sg56
(lp4305
g49
(g70
g51
NtRp4306
(dp4307
g54
(dp4308
sg63
g4302
sg56
(lp4309
g49
(g50
g51
NtRp4310
(dp4311
g54
(dp4312
g62
I1
ssg63
g4306
sg56
(lp4313
g3929
(S't\r\x00\x00\x00Documentation'
tRp4314
asbasbasbag49
(g65
g51
NtRp4315
(dp4316
g54
(dp4317
sg63
g4298
sg56
(lp4318
g49
(g70
g51
NtRp4319
(dp4320
g54
(dp4321
sg63
g4315
sg56
(lp4322
g49
(g50
g51
NtRp4323
(dp4324
g54
(dp4325
g62
I1
ssg63
g4319
sg56
(lp4326
I00
asbasbasbag49
(g65
g51
NtRp4327
(dp4328
g54
(dp4329
sg63
g4298
sg56
(lp4330
g49
(g70
g51
NtRp4331
(dp4332
g54
(dp4333
sg63
g4327
sg56
(lp4334
g49
(g50
g51
NtRp4335
(dp4336
g54
(dp4337
g62
I1
ssg63
g4331
sg56
(lp4338
S'http://www.web2py.com/book'
p4339
asbasbasbag49
(g65
g51
NtRp4340
(dp4341
g54
(dp4342
sg63
g4298
sg56
(lp4343
g49
(g70
g51
NtRp4344
(dp4345
g54
(dp4346
sg63
g4340
sg56
(lp4347
g49
(g50
g51
NtRp4348
(dp4349
g54
(dp4350
g62
I1
ssg63
g4344
sg56
(lp4351
(lp4352
(g3929
(S't\x07\x00\x00\x00Preface'
tRp4353
I00
S'http://www.web2py.com/book/default/chapter/00'
p4354
tp4355
a(g3929
(S't\x0c\x00\x00\x00Introduction'
tRp4356
I00
S'http://www.web2py.com/book/default/chapter/01'
p4357
tp4358
a(g3929
(S't\x06\x00\x00\x00Python'
tRp4359
I00
S'http://www.web2py.com/book/default/chapter/02'
p4360
tp4361
a(g3929
(S't\x08\x00\x00\x00Overview'
tRp4362
I00
S'http://www.web2py.com/book/default/chapter/03'
p4363
tp4364
a(g3929
(S's\x08\x00\x00\x00The Core'
tRp4365
I00
S'http://www.web2py.com/book/default/chapter/04'
p4366
tp4367
a(g3929
(S's\t\x00\x00\x00The Views'
tRp4368
I00
S'http://www.web2py.com/book/default/chapter/05'
p4369
tp4370
a(g3929
(S's\x0e\x00\x00\x00Banco de dados'
tRp4371
I00
S'http://www.web2py.com/book/default/chapter/06'
p4372
tp4373
a(g3929
(S's\x14\x00\x00\x00Forms and Validators'
tRp4374
I00
S'http://www.web2py.com/book/default/chapter/07'
p4375
tp4376
a(g3929
(S's\r\x00\x00\x00Email and SMS'
tRp4377
I00
S'http://www.web2py.com/book/default/chapter/08'
p4378
tp4379
a(g3929
(S's\x0e\x00\x00\x00Access Control'
tRp4380
I00
S'http://www.web2py.com/book/default/chapter/09'
p4381
tp4382
a(g3929
(S't\x08\x00\x00\x00Services'
tRp4383
I00
S'http://www.web2py.com/book/default/chapter/10'
p4384
tp4385
a(g3929
(S's\x0c\x00\x00\x00Ajax Recipes'
tRp4386
I00
S'http://www.web2py.com/book/default/chapter/11'
p4387
tp4388
a(g3929
(S's\x16\x00\x00\x00Components and Plugins'
tRp4389
I00
S'http://www.web2py.com/book/default/chapter/12'
p4390
tp4391
a(g3929
(S's\x12\x00\x00\x00Deployment Recipes'
tRp4392
I00
S'http://www.web2py.com/book/default/chapter/13'
p4393
tp4394
a(g3929
(S's\r\x00\x00\x00Other Recipes'
tRp4395
I00
S'http://www.web2py.com/book/default/chapter/14'
p4396
tp4397
a(g3929
(S's\r\x00\x00\x00Buy this book'
tRp4398
I00
S'http://stores.lulu.com/web2py'
p4399
tp4400
aasbasbasbasbasbasbasbag49
(g65
g51
NtRp4401
(dp4402
g54
(dp4403
sg63
g4043
sg56
(lp4404
g49
(g70
g51
NtRp4405
(dp4406
g54
(dp4407
sg63
g4401
sg56
(lp4408
g49
(g50
g51
NtRp4409
(dp4410
g54
(dp4411
g62
I2
ssg63
g4405
sg56
(lp4412
g49
(g58
g51
NtRp4413
(dp4414
g54
(dp4415
g62
I1
ssg63
Nsg56
(lp4416
g49
(g65
g51
NtRp4417
(dp4418
g54
(dp4419
sg63
g4413
sg56
(lp4420
g49
(g70
g51
NtRp4421
(dp4422
g54
(dp4423
sg63
g4417
sg56
(lp4424
g49
(g50
g51
NtRp4425
(dp4426
g54
(dp4427
g62
I1
ssg63
g4421
sg56
(lp4428
g3929
(S't\t\x00\x00\x00Community'
tRp4429
asbasbasbag49
(g65
g51
NtRp4430
(dp4431
g54
(dp4432
sg63
g4413
sg56
(lp4433
g49
(g70
g51
NtRp4434
(dp4435
g54
(dp4436
sg63
g4430
sg56
(lp4437
g49
(g50
g51
NtRp4438
(dp4439
g54
(dp4440
g62
I1
ssg63
g4434
sg56
(lp4441
I00
asbasbasbag49
(g65
g51
NtRp4442
(dp4443
g54
(dp4444
sg63
g4413
sg56
(lp4445
g49
(g70
g51
NtRp4446
(dp4447
g54
(dp4448
sg63
g4442
sg56
(lp4449
g49
(g50
g51
NtRp4450
(dp4451
g54
(dp4452
g62
I1
ssg63
g4446
sg56
(lp4453
Nasbasbasbag49
(g65
g51
NtRp4454
(dp4455
g54
(dp4456
sg63
g4413
sg56
(lp4457
g49
(g70
g51
NtRp4458
(dp4459
g54
(dp4460
sg63
g4454
sg56
(lp4461
g49
(g50
g51
NtRp4462
(dp4463
g54
(dp4464
g62
I1
ssg63
g4458
sg56
(lp4465
(lp4466
(g3929
(S't\x06\x00\x00\x00Groups'
tRp4467
I00
S'http://www.web2py.com/examples/default/usergroups'
p4468
tp4469
a(g3929
(S't\x07\x00\x00\x00Twitter'
tRp4470
I00
S'http://twitter.com/web2py'
p4471
tp4472
a(g3929
(S's\t\x00\x00\x00Live Chat'
tRp4473
I00
S'http://webchat.freenode.net/?channels=web2py'
p4474
tp4475
aasbasbasbasbasbasbasbag49
(g65
g51
NtRp4476
(dp4477
g54
(dp4478
sg63
g4043
sg56
(lp4479
g49
(g70
g51
NtRp4480
(dp4481
g54
(dp4482
sg63
g4476
sg56
(lp4483
g49
(g50
g51
NtRp4484
(dp4485
g54
(dp4486
g62
I2
ssg63
g4480
sg56
(lp4487
g49
(g58
g51
NtRp4488
(dp4489
g54
(dp4490
g62
I1
ssg63
Nsg56
(lp4491
g49
(g65
g51
NtRp4492
(dp4493
g54
(dp4494
sg63
g4488
sg56
(lp4495
g49
(g70
g51
NtRp4496
(dp4497
g54
(dp4498
sg63
g4492
sg56
(lp4499
g49
(g50
g51
NtRp4500
(dp4501
g54
(dp4502
g62
I1
ssg63
g4496
sg56
(lp4503
g3929
(S't\x07\x00\x00\x00Plugins'
tRp4504
asbasbasbag49
(g65
g51
NtRp4505
(dp4506
g54
(dp4507
sg63
g4488
sg56
(lp4508
g49
(g70
g51
NtRp4509
(dp4510
g54
(dp4511
sg63
g4505
sg56
(lp4512
g49
(g50
g51
NtRp4513
(dp4514
g54
(dp4515
g62
I1
ssg63
g4509
sg56
(lp4516
I00
asbasbasbag49
(g65
g51
NtRp4517
(dp4518
g54
(dp4519
sg63
g4488
sg56
(lp4520
g49
(g70
g51
NtRp4521
(dp4522
g54
(dp4523
sg63
g4517
sg56
(lp4524
g49
(g50
g51
NtRp4525
(dp4526
g54
(dp4527
g62
I1
ssg63
g4521
sg56
(lp4528
Nasbasbasbag49
(g65
g51
NtRp4529
(dp4530
g54
(dp4531
sg63
g4488
sg56
(lp4532
g49
(g70
g51
NtRp4533
(dp4534
g54
(dp4535
sg63
g4529
sg56
(lp4536
g49
(g50
g51
NtRp4537
(dp4538
g54
(dp4539
g62
I1
ssg63
g4533
sg56
(lp4540
(lp4541
(S'plugin_wiki'
p4542
I00
S'http://web2py.com/examples/default/download'
p4543
tp4544
a(g3929
(S's\r\x00\x00\x00Other Plugins'
tRp4545
I00
g4275
tp4546
a(g3929
(S's\x0e\x00\x00\x00Layout Plugins'
tRp4547
I00
g4278
tp4548
aasbasbasbasbasbasbasbasbasbasbasbasbasbasbasbasbasbasbasbag49
(g65
g51
NtRp4549
(dp4550
g54
(dp4551
sg63
g3405
sg56
(lp4552
g49
(g70
g51
NtRp4553
(dp4554
g54
(dp4555
g74
g75
ssg63
g4549
sg56
(lp4556
S'meta'
p4557
asbag49
(g70
g51
NtRp4558
(dp4559
g54
(dp4560
g81
g82
ssg63
g4549
sg56
(lp4561
S':'
asbag49
(g70
g51
NtRp4562
(dp4563
g54
(dp4564
sg63
g4549
sg56
(lp4565
g49
(g50
g51
NtRp4566
(dp4567
g54
(dp4568
g62
I5
ssg63
g4562
sg56
(lp4569
g49
(g58
g51
NtRp4570
(dp4571
g54
(dp4572
g62
I4
ssg63
Nsg56
(lp4573
g49
(g65
g51
NtRp4574
(dp4575
g54
(dp4576
sg63
g4570
sg56
(lp4577
g49
(g70
g51
NtRp4578
(dp4579
g54
(dp4580
g74
g75
ssg63
g4574
sg56
(lp4581
S'author'
p4582
asbag49
(g70
g51
NtRp4583
(dp4584
g54
(dp4585
g81
g82
ssg63
g4574
sg56
(lp4586
S':'
asbag49
(g70
g51
NtRp4587
(dp4588
g54
(dp4589
sg63
g4574
sg56
(lp4590
g49
(g50
g51
NtRp4591
(dp4592
g54
(dp4593
g62
I4
ssg63
g4587
sg56
(lp4594
S'Your Name <you@example.com>'
p4595
asbasbasbag49
(g65
g51
NtRp4596
(dp4597
g54
(dp4598
sg63
g4570
sg56
(lp4599
g49
(g70
g51
NtRp4600
(dp4601
g54
(dp4602
g74
g75
ssg63
g4596
sg56
(lp4603
S'copyright'
p4604
asbag49
(g70
g51
NtRp4605
(dp4606
g54
(dp4607
g81
g82
ssg63
g4596
sg56
(lp4608
S':'
asbag49
(g70
g51
NtRp4609
(dp4610
g54
(dp4611
sg63
g4596
sg56
(lp4612
g49
(g50
g51
NtRp4613
(dp4614
g54
(dp4615
g62
I4
ssg63
g4609
sg56
(lp4616
S'Copyright 2011'
p4617
asbasbasbag49
(g65
g51
NtRp4618
(dp4619
g54
(dp4620
sg63
g4570
sg56
(lp4621
g49
(g70
g51
NtRp4622
(dp4623
g54
(dp4624
g74
g75
ssg63
g4618
sg56
(lp4625
S'description'
p4626
asbag49
(g70
g51
NtRp4627
(dp4628
g54
(dp4629
g81
g82
ssg63
g4618
sg56
(lp4630
S':'
asbag49
(g70
g51
NtRp4631
(dp4632
g54
(dp4633
sg63
g4618
sg56
(lp4634
g49
(g50
g51
NtRp4635
(dp4636
g54
(dp4637
g62
I4
ssg63
g4631
sg56
(lp4638
S'a cool new app'
p4639
asbasbasbag49
(g65
g51
NtRp4640
(dp4641
g54
(dp4642
sg63
g4570
sg56
(lp4643
g49
(g70
g51
NtRp4644
(dp4645
g54
(dp4646
g74
g75
ssg63
g4640
sg56
(lp4647
S'generator'
p4648
asbag49
(g70
g51
NtRp4649
(dp4650
g54
(dp4651
g81
g82
ssg63
g4640
sg56
(lp4652
S':'
asbag49
(g70
g51
NtRp4653
(dp4654
g54
(dp4655
sg63
g4640
sg56
(lp4656
g49
(g50
g51
NtRp4657
(dp4658
g54
(dp4659
g62
I4
ssg63
g4653
sg56
(lp4660
S'Web2py Web Framework'
p4661
asbasbasbag49
(g65
g51
NtRp4662
(dp4663
g54
(dp4664
sg63
g4570
sg56
(lp4665
g49
(g70
g51
NtRp4666
(dp4667
g54
(dp4668
g74
g75
ssg63
g4662
sg56
(lp4669
S'keywords'
p4670
asbag49
(g70
g51
NtRp4671
(dp4672
g54
(dp4673
g81
g82
ssg63
g4662
sg56
(lp4674
S':'
asbag49
(g70
g51
NtRp4675
(dp4676
g54
(dp4677
sg63
g4662
sg56
(lp4678
g49
(g50
g51
NtRp4679
(dp4680
g54
(dp4681
g62
I4
ssg63
g4675
sg56
(lp4682
S'web2py, python, framework'
p4683
asbasbasbasbasbasbasbag49
(g65
g51
NtRp4684
(dp4685
g54
(dp4686
sg63
g3405
sg56
(lp4687
g49
(g70
g51
NtRp4688
(dp4689
g54
(dp4690
g74
g75
ssg63
g4684
sg56
(lp4691
S'postprocessing'
p4692
asbag49
(g70
g51
NtRp4693
(dp4694
g54
(dp4695
g81
g82
ssg63
g4684
sg56
(lp4696
S':'
asbag49
(g70
g51
NtRp4697
(dp4698
g54
(dp4699
sg63
g4684
sg56
(lp4700
g49
(g50
g51
NtRp4701
(dp4702
g54
(dp4703
g62
I5
ssg63
g4697
sg56
(lp4704
g49
(g58
g51
NtRp4705
(dp4706
g54
(dp4707
g62
I4
ssg63
Nsg56
(lp4708
sbasbasbasbag49
(g65
g51
NtRp4709
(dp4710
g54
(dp4711
sg63
g3405
sg56
(lp4712
g49
(g70
g51
NtRp4713
(dp4714
g54
(dp4715
g74
g75
ssg63
g4709
sg56
(lp4716
S'session_file'
p4717
asbag49
(g70
g51
NtRp4718
(dp4719
g54
(dp4720
g81
g82
ssg63
g4709
sg56
(lp4721
S':'
asbag49
(g70
g51
NtRp4722
(dp4723
g54
(dp4724
sg63
g4709
sg56
(lp4725
g49
(g50
g51
NtRp4726
(dp4727
g54
(dp4728
g62
I5
ssg63
g4722
sg56
(lp4729
S"<open file 'C:\\web2py\\applications\\unioeste_code\\sessions\\127.0.0.1-d63b25dc-54ab-4837-86c6-738372b4cce3', mode 'rb+' at 0x0751C140>"
p4730
asbasbasbag49
(g65
g51
NtRp4731
(dp4732
g54
(dp4733
sg63
g3405
sg56
(lp4734
g49
(g70
g51
NtRp4735
(dp4736
g54
(dp4737
g74
g75
ssg63
g4731
sg56
(lp4738
S'session_filename'
p4739
asbag49
(g70
g51
NtRp4740
(dp4741
g54
(dp4742
g81
g82
ssg63
g4731
sg56
(lp4743
S':'
asbag49
(g70
g51
NtRp4744
(dp4745
g54
(dp4746
sg63
g4731
sg56
(lp4747
g49
(g50
g51
NtRp4748
(dp4749
g54
(dp4750
g62
I5
ssg63
g4744
sg56
(lp4751
S'C:\\web2py\\applications\\unioeste_code\\sessions\\127.0.0.1-d63b25dc-54ab-4837-86c6-738372b4cce3'
p4752
asbasbasbag49
(g65
g51
NtRp4753
(dp4754
g54
(dp4755
sg63
g3405
sg56
(lp4756
g49
(g70
g51
NtRp4757
(dp4758
g54
(dp4759
g74
g75
ssg63
g4753
sg56
(lp4760
S'session_id'
p4761
asbag49
(g70
g51
NtRp4762
(dp4763
g54
(dp4764
g81
g82
ssg63
g4753
sg56
(lp4765
S':'
asbag49
(g70
g51
NtRp4766
(dp4767
g54
(dp4768
sg63
g4753
sg56
(lp4769
g49
(g50
g51
NtRp4770
(dp4771
g54
(dp4772
g62
I5
ssg63
g4766
sg56
(lp4773
S'127.0.0.1-d63b25dc-54ab-4837-86c6-738372b4cce3'
p4774
asbasbasbag49
(g65
g51
NtRp4775
(dp4776
g54
(dp4777
sg63
g3405
sg56
(lp4778
g49
(g70
g51
NtRp4779
(dp4780
g54
(dp4781
g74
g75
ssg63
g4775
sg56
(lp4782
S'session_id_name'
p4783
asbag49
(g70
g51
NtRp4784
(dp4785
g54
(dp4786
g81
g82
ssg63
g4775
sg56
(lp4787
S':'
asbag49
(g70
g51
NtRp4788
(dp4789
g54
(dp4790
sg63
g4775
sg56
(lp4791
g49
(g50
g51
NtRp4792
(dp4793
g54
(dp4794
g62
I5
ssg63
g4788
sg56
(lp4795
g3462
asbasbasbag49
(g65
g51
NtRp4796
(dp4797
g54
(dp4798
sg63
g3405
sg56
(lp4799
g49
(g70
g51
NtRp4800
(dp4801
g54
(dp4802
g74
g75
ssg63
g4796
sg56
(lp4803
S'session_locked'
p4804
asbag49
(g70
g51
NtRp4805
(dp4806
g54
(dp4807
g81
g82
ssg63
g4796
sg56
(lp4808
S':'
asbag49
(g70
g51
NtRp4809
(dp4810
g54
(dp4811
sg63
g4796
sg56
(lp4812
g49
(g50
g51
NtRp4813
(dp4814
g54
(dp4815
g62
I5
ssg63
g4809
sg56
(lp4816
g1630
asbasbasbag49
(g65
g51
NtRp4817
(dp4818
g54
(dp4819
sg63
g3405
sg56
(lp4820
g49
(g70
g51
NtRp4821
(dp4822
g54
(dp4823
g74
g75
ssg63
g4817
sg56
(lp4824
S'session_new'
p4825
asbag49
(g70
g51
NtRp4826
(dp4827
g54
(dp4828
g81
g82
ssg63
g4817
sg56
(lp4829
S':'
asbag49
(g70
g51
NtRp4830
(dp4831
g54
(dp4832
sg63
g4817
sg56
(lp4833
g49
(g50
g51
NtRp4834
(dp4835
g54
(dp4836
g62
I5
ssg63
g4830
sg56
(lp4837
g92
asbasbasbag49
(g65
g51
NtRp4838
(dp4839
g54
(dp4840
sg63
g3405
sg56
(lp4841
g49
(g70
g51
NtRp4842
(dp4843
g54
(dp4844
g74
g75
ssg63
g4838
sg56
(lp4845
S'status'
p4846
asbag49
(g70
g51
NtRp4847
(dp4848
g54
(dp4849
g81
g82
ssg63
g4838
sg56
(lp4850
S':'
asbag49
(g70
g51
NtRp4851
(dp4852
g54
(dp4853
sg63
g4838
sg56
(lp4854
g49
(g50
g51
NtRp4855
(dp4856
g54
(dp4857
g62
I5
ssg63
g4851
sg56
(lp4858
S'200'
p4859
asbasbasbag49
(g65
g51
NtRp4860
(dp4861
g54
(dp4862
sg63
g3405
sg56
(lp4863
g49
(g70
g51
NtRp4864
(dp4865
g54
(dp4866
g74
g75
ssg63
g4860
sg56
(lp4867
S'subtitle'
p4868
asbag49
(g70
g51
NtRp4869
(dp4870
g54
(dp4871
g81
g82
ssg63
g4860
sg56
(lp4872
S':'
asbag49
(g70
g51
NtRp4873
(dp4874
g54
(dp4875
sg63
g4860
sg56
(lp4876
g49
(g50
g51
NtRp4877
(dp4878
g54
(dp4879
g62
I5
ssg63
g4873
sg56
(lp4880
g3929
(S's\x0f\x00\x00\x00Personalize-me!'
tRp4881
asbasbasbag49
(g65
g51
NtRp4882
(dp4883
g54
(dp4884
sg63
g3405
sg56
(lp4885
g49
(g70
g51
NtRp4886
(dp4887
g54
(dp4888
g74
g75
ssg63
g4882
sg56
(lp4889
S'title'
p4890
asbag49
(g70
g51
NtRp4891
(dp4892
g54
(dp4893
g81
g82
ssg63
g4882
sg56
(lp4894
S':'
asbag49
(g70
g51
NtRp4895
(dp4896
g54
(dp4897
sg63
g4882
sg56
(lp4898
g49
(g50
g51
NtRp4899
(dp4900
g54
(dp4901
g62
I5
ssg63
g4895
sg56
(lp4902
S'Unioeste Code'
p4903
asbasbasbag49
(g65
g51
NtRp4904
(dp4905
g54
(dp4906
sg63
g3405
sg56
(lp4907
g49
(g70
g51
NtRp4908
(dp4909
g54
(dp4910
g74
g75
ssg63
g4904
sg56
(lp4911
g2294
asbag49
(g70
g51
NtRp4912
(dp4913
g54
(dp4914
g81
g82
ssg63
g4904
sg56
(lp4915
S':'
asbag49
(g70
g51
NtRp4916
(dp4917
g54
(dp4918
sg63
g4904
sg56
(lp4919
g49
(g50
g51
NtRp4920
(dp4921
g54
(dp4922
g62
I5
ssg63
g4916
sg56
(lp4923
g2307
asbasbasbag49
(g65
g51
NtRp4924
(dp4925
g54
(dp4926
sg63
g3405
sg56
(lp4927
g49
(g70
g51
NtRp4928
(dp4929
g54
(dp4930
g74
g75
ssg63
g4924
sg56
(lp4931
S'view'
p4932
asbag49
(g70
g51
NtRp4933
(dp4934
g54
(dp4935
g81
g82
ssg63
g4924
sg56
(lp4936
S':'
asbag49
(g70
g51
NtRp4937
(dp4938
g54
(dp4939
sg63
g4924
sg56
(lp4940
g49
(g50
g51
NtRp4941
(dp4942
g54
(dp4943
g62
I5
ssg63
g4937
sg56
(lp4944
S'default/index.html'
p4945
asbasbasbasbasbsS'locals'
p4946
(dp4947
S'Service'
p4948
S"<class 'gluon.tools.Service'>"
p4949
sS'OBJECT'
p4950
S"<class 'gluon.html.OBJECT'>"
p4951
sS'SQLDB'
p4952
S"<class 'gluon.dal.DAL'>"
p4953
sg3011
S"<Storage {'_formkey[comment/create]': '44abc801-..._hash': 'Ft\\x12\\x87:\\xbfj\\x9bs\\x08%\\x91[CI\\x19'}>"
p4954
sS'LINK'
p4955
S"<class 'gluon.html.LINK'>"
p4956
sS'BR'
p4957
S"<class 'gluon.html.BR'>"
p4958
sS'local_import'
p4959
S'<function <lambda> at 0x0724ED30>'
p4960
sS'OPTGROUP'
p4961
S"<class 'gluon.html.OPTGROUP'>"
p4962
sS'PRE'
p4963
S"<class 'gluon.html.PRE'>"
p4964
sS'IS_INT_IN_RANGE'
p4965
S"<class 'gluon.validators.IS_INT_IN_RANGE'>"
p4966
sS'IS_LOWER'
p4967
S"<class 'gluon.validators.IS_LOWER'>"
p4968
sS'IS_STRONG'
p4969
S"<class 'gluon.validators.IS_STRONG'>"
p4970
sS'Recaptcha'
p4971
S"<class 'gluon.tools.Recaptcha'>"
p4972
sS'cache'
p4973
S'<gluon.cache.Cache object at 0x077C20B0>'
p4974
sS'IS_IN_DB'
p4975
S"<class 'gluon.validators.IS_IN_DB'>"
p4976
sS'TAG'
p4977
S'<gluon.html.__TAG__ object at 0x0290BE30>'
p4978
sS'SQLField'
p4979
S"<class 'gluon.dal.Field'>"
p4980
sS'BODY'
p4981
S"<class 'gluon.html.BODY'>"
p4982
sS'IS_DATE_IN_RANGE'
p4983
S"<class 'gluon.validators.IS_DATE_IN_RANGE'>"
p4984
sS'TH'
p4985
S"<class 'gluon.html.TH'>"
p4986
sS'URL'
p4987
S'<function URL at 0x0296D8F0>'
p4988
sS'__file__'
p4989
S"r'C:\\web2py\\applications\\unioeste_code\\views\\default/index.html'"
p4990
sS'db'
p4991
S"<DAL {'comment': <Table {'body': <gluon.dal.Fiel...object at 0x073FF770>, '_singular': 'Problem'}>}>"
p4992
sS'auth'
p4993
S'<gluon.tools.Auth object at 0x077C2450>'
p4994
sS'P'
S"<class 'gluon.html.P'>"
p4995
sS'TFOOT'
p4996
S"<class 'gluon.html.TFOOT'>"
p4997
sS'XHTML'
p4998
S"<class 'gluon.html.XHTML'>"
p4999
sS'ON'
p5000
g1630
sS'OL'
p5001
S"<class 'gluon.html.OL'>"
p5002
sS'TEXTAREA'
p5003
S"<class 'gluon.html.TEXTAREA'>"
p5004
sS'MENU'
p5005
S"<class 'gluon.html.MENU'>"
p5006
sS'LOAD'
p5007
S'<function LOAD at 0x02BE54B0>'
p5008
sS'CODE'
p5009
S"<class 'gluon.html.CODE'>"
p5010
sS'HTTP'
p5011
S"<class 'gluon.http.HTTP'>"
p5012
sS'HR'
p5013
S"<class 'gluon.html.HR'>"
p5014
sS'IS_DATETIME'
p5015
S"<class 'gluon.validators.IS_DATETIME'>"
p5016
sS'HEAD'
p5017
S"<class 'gluon.html.HEAD'>"
p5018
sS'LABEL'
p5019
S"<class 'gluon.html.LABEL'>"
p5020
sS'CLEANUP'
p5021
S"<class 'gluon.validators.CLEANUP'>"
p5022
sS'SELECT'
p5023
S"<class 'gluon.html.SELECT'>"
p5024
sS'CENTER'
p5025
S"<class 'gluon.html.CENTER'>"
p5026
sS'prettydate'
p5027
S'<function prettydate at 0x033AEE30>'
p5028
sS'Crud'
p5029
S"<class 'gluon.tools.Crud'>"
p5030
sS'Auth'
p5031
S"<class 'gluon.tools.Auth'>"
p5032
sS'__builtins__'
p5033
S"{'ArithmeticError': <type 'exceptions.ArithmeticError'>, 'AssertionError': <type 'exceptions.AssertionError'>, 'AttributeError': <type 'exceptions.AttributeError'>, 'BaseException': <type 'exceptions.BaseException'>, 'DeprecationWarning': <type 'exceptions.DeprecationWarning'>, 'EOFError': <type 'exceptions.EOFError'>, 'Ellipsis': Ellipsis, 'EnvironmentError': <type 'exceptions.EnvironmentError'>, 'Exception': <type 'exceptions.Exception'>, 'False': False, ...}"
p5034
sS'HTML'
p5035
S"<class 'gluon.html.HTML'>"
p5036
sS'SQLFORM'
p5037
S"<class 'gluon.sqlhtml.SQLFORM'>"
p5038
sS'EM'
p5039
S"<class 'gluon.html.EM'>"
p5040
sS'redirect'
p5041
S'<function redirect at 0x025B8F70>'
p5042
sS'FIELDSET'
p5043
S"<class 'gluon.html.FIELDSET'>"
p5044
sS'IS_EQUAL_TO'
p5045
S"<class 'gluon.validators.IS_EQUAL_TO'>"
p5046
sS'embed64'
p5047
S'<function embed64 at 0x02971430>'
p5048
sS'IS_LIST_OF'
p5049
S"<class 'gluon.validators.IS_LIST_OF'>"
p5050
sS'__name__'
p5051
S"'__restricted__'"
p5052
sS'EMBED'
p5053
S"<class 'gluon.html.EMBED'>"
p5054
sS'_'
S'<function _ at 0x072CF870>'
p5055
sS'FORM'
p5056
S"<class 'gluon.html.FORM'>"
p5057
sS'H2'
p5058
S"<class 'gluon.html.H2'>"
p5059
sS'H3'
p5060
S"<class 'gluon.html.H3'>"
p5061
sS'BUTTON'
p5062
S"<class 'gluon.html.BUTTON'>"
p5063
sS'H1'
p5064
S"<class 'gluon.html.H1'>"
p5065
sS'H6'
p5066
S"<class 'gluon.html.H6'>"
p5067
sS'H4'
p5068
S"<class 'gluon.html.H4'>"
p5069
sS'H5'
p5070
S"<class 'gluon.html.H5'>"
p5071
sS'UL'
p5072
S"<class 'gluon.html.UL'>"
p5073
sS'IS_UPPER'
p5074
S"<class 'gluon.validators.IS_UPPER'>"
p5075
sS'xmlescape'
p5076
S'<function xmlescape at 0x0296D870>'
p5077
sS'IS_TIME'
p5078
S"<class 'gluon.validators.IS_TIME'>"
p5079
sS'OPTION'
p5080
S"<class 'gluon.html.OPTION'>"
p5081
sS'TITLE'
p5082
S"<class 'gluon.html.TITLE'>"
p5083
sS'CRYPT'
p5084
S"<class 'gluon.validators.CRYPT'>"
p5085
sS'IS_EMPTY_OR'
p5086
S"<class 'gluon.validators.IS_EMPTY_OR'>"
p5087
sS'MARKMIN'
p5088
S"<class 'gluon.html.MARKMIN'>"
p5089
sS'INPUT'
p5090
S"<class 'gluon.html.INPUT'>"
p5091
sS'COL'
p5092
S"<class 'gluon.html.COL'>"
p5093
sS'SCRIPT'
p5094
S"<class 'gluon.html.SCRIPT'>"
p5095
sS'geocode'
p5096
S'<function geocode at 0x033AE770>'
p5097
sS'TABLE'
p5098
S"<class 'gluon.html.TABLE'>"
p5099
sS'IS_IPV4'
p5100
S"<class 'gluon.validators.IS_IPV4'>"
p5101
sS'IS_LENGTH'
p5102
S"<class 'gluon.validators.IS_LENGTH'>"
p5103
sS'XML'
p5104
S"<class 'gluon.html.XML'>"
p5105
sS'B'
S"<class 'gluon.html.B'>"
p5106
sS'IMG'
p5107
S"<class 'gluon.html.IMG'>"
p5108
sS'SQLTABLE'
p5109
S"<class 'gluon.sqlhtml.SQLTABLE'>"
p5110
sS'IS_MATCH'
p5111
S"<class 'gluon.validators.IS_MATCH'>"
p5112
sS'IS_ALPHANUMERIC'
p5113
S"<class 'gluon.validators.IS_ALPHANUMERIC'>"
p5114
sS'SPAN'
p5115
S"<class 'gluon.html.SPAN'>"
p5116
sS'IS_SLUG'
p5117
S"<class 'gluon.validators.IS_SLUG'>"
p5118
sS'BEAUTIFY'
p5119
S"<class 'gluon.html.BEAUTIFY'>"
p5120
sS'META'
p5121
S"<class 'gluon.html.META'>"
p5122
sS'problem'
p5123
S"<Row {'body': 'Imprimir na tela os N primeiros n...lete_record': <function <lambda> at 0x072CFDB0>}>"
p5124
sS'fetch'
p5125
S'<function fetch at 0x033A95F0>'
p5126
sS'IS_DATE'
p5127
S"<class 'gluon.validators.IS_DATE'>"
p5128
sS'IS_EMAIL'
p5129
S"<class 'gluon.validators.IS_EMAIL'>"
p5130
sS'IS_NOT_EMPTY'
p5131
S"<class 'gluon.validators.IS_NOT_EMPTY'>"
p5132
sg48
S"<Storage {'body': <cStringIO.StringO object at 0..._vars': <Storage {}>, 'post_vars': <Storage {}>}>"
p5133
sS'TBODY'
p5134
S"<class 'gluon.html.TBODY'>"
p5135
sS'CAT'
p5136
S"<class 'gluon.html.CAT'>"
p5137
sS'Field'
p5138
S"<class 'gluon.dal.Field'>"
p5139
sS'Mail'
p5140
S"<class 'gluon.tools.Mail'>"
p5141
sS'DIV'
p5142
S"<class 'gluon.html.DIV'>"
p5143
sS'LEGEND'
p5144
S"<class 'gluon.html.LEGEND'>"
p5145
sS'COLGROUP'
p5146
S"<class 'gluon.html.COLGROUP'>"
p5147
sS'DAL'
p5148
S"<class 'gluon.dal.DAL'>"
p5149
sS'TT'
p5150
S"<class 'gluon.html.TT'>"
p5151
sS'TR'
p5152
S"<class 'gluon.html.TR'>"
p5153
sS'LI'
p5154
S"<class 'gluon.html.LI'>"
p5155
sS'IFRAME'
p5156
S"<class 'gluon.html.IFRAME'>"
p5157
sS'TD'
p5158
S"<class 'gluon.html.TD'>"
p5159
sS'PluginManager'
p5160
S"<class 'gluon.tools.PluginManager'>"
p5161
sS'IS_URL'
p5162
S"<class 'gluon.validators.IS_URL'>"
p5163
sS'A'
S"<class 'gluon.html.A'>"
p5164
sS'STYLE'
p5165
S"<class 'gluon.html.STYLE'>"
p5166
sS'IS_DATETIME_IN_RANGE'
p5167
S"<class 'gluon.validators.IS_DATETIME_IN_RANGE'>"
p5168
sS'IS_IMAGE'
p5169
S"<class 'gluon.validators.IS_IMAGE'>"
p5170
sS'I'
S"<class 'gluon.html.I'>"
p5171
sS'crud'
p5172
S'<gluon.tools.Crud object at 0x073FFE30>'
p5173
sS'problems'
p5174
S'<gluon.dal.Rows object at 0x0735DE50>'
p5175
sS'IS_NOT_IN_DB'
p5176
S"<class 'gluon.validators.IS_NOT_IN_DB'>"
p5177
sS'user'
p5178
S"<Row {'comment': <gluon.dal.Set object at 0x0737...lete_record': <function <lambda> at 0x072CFA30>}>"
p5179
sg3400
S"<Storage {'body': <cStringIO.StringO object at 0...a> at 0x0724E930>, 'view': 'default/index.html'}>"
p5180
sS'THEAD'
p5181
S"<class 'gluon.html.THEAD'>"
p5182
sS'IS_NULL_OR'
p5183
S"<class 'gluon.validators.IS_EMPTY_OR'>"
p5184
sS'IS_FLOAT_IN_RANGE'
p5185
S"<class 'gluon.validators.IS_FLOAT_IN_RANGE'>"
p5186
sS'IS_EXPR'
p5187
S"<class 'gluon.validators.IS_EXPR'>"
p5188
sS'T'
S'<gluon.languages.translator object at 0x077C2D50>'
p5189
sS'IS_IN_SET'
p5190
S"<class 'gluon.validators.IS_IN_SET'>"
p5191
sS'IS_UPLOAD_FILENAME'
p5192
S"<class 'gluon.validators.IS_UPLOAD_FILENAME'>"
p5193
sS'IS_DECIMAL_IN_RANGE'
p5194
S"<class 'gluon.validators.IS_DECIMAL_IN_RANGE'>"
p5195
sssS'traceback'
p5196
S'Traceback (most recent call last):\n  File "gluon/restricted.py", line 205, in restricted\n  File "C:\\web2py\\applications\\unioeste_code\\views\\default/index.html", line 16, in <module>\nTypeError: write() takes at most 3 arguments (4 given)\n'
p5197
s.