(dp1
S'output'
p2
S"<type 'exceptions.SyntaxError'> invalid syntax (db.py, line 28)"
p3
sS'layer'
p4
S'C:\\web2py\\applications\\unioeste_code\\models\\db.py'
p5
sS'code'
p6
S"\ndb = DAL('sqlite://storage.sqlite')\n\nfrom gluon.tools import *\n\nauth = Auth(db)\nauth.define_tables()\n\n\ndb.define_table('problem',\n    Field('title'),\n    Field('body','text'),\n    Field('created_on','datetime',default=request.now),\n    Field('created_by', db.auth_user, default=auth.user_id)\n    )\n\ndb.define_table('code',\n    Field('title'),\n    Field('body','text'),\n    Field('created_on', 'datetime', default=request.now),\n    Field('created_by', db.auth_user, default=auth.user_id)\n    )\n\ndb.define_table('comment',\n    Field('code_id', db.code),\n    Field('body', 'text'),\n    Field('created_on','datetime', default=request.now)\n    Field('created_by', db.auth_user, default=auth.user_id)\n    )\n\n"
p7
sS'snapshot'
p8
(dp9
S'exception'
p10
(dp11
S'__getslice__'
p12
S"<method-wrapper '__getslice__' of exceptions.SyntaxError object at 0x05F5F970>"
p13
sS'text'
p14
S'"    Field(\'created_by\', db.auth_user, default=auth.user_id)\\n"'
p15
sS'__str__'
p16
S"<method-wrapper '__str__' of exceptions.SyntaxError object at 0x05F5F970>"
p17
sS'__reduce__'
p18
S'<built-in method __reduce__ of exceptions.SyntaxError object at 0x05F5F970>'
p19
sS'__dict__'
p20
S'{}'
p21
sS'__init__'
p22
S"<method-wrapper '__init__' of exceptions.SyntaxError object at 0x05F5F970>"
p23
sS'__setattr__'
p24
S"<method-wrapper '__setattr__' of exceptions.SyntaxError object at 0x05F5F970>"
p25
sS'__reduce_ex__'
p26
S'<built-in method __reduce_ex__ of exceptions.SyntaxError object at 0x05F5F970>'
p27
sS'__new__'
p28
S'<built-in method __new__ of type object at 0x1E1CDBD0>'
p29
sS'__class__'
p30
S"<type 'exceptions.SyntaxError'>"
p31
sS'filename'
p32
S"r'C:\\web2py\\applications\\unioeste_code\\models\\db.py'"
p33
sS'lineno'
p34
S'28'
p35
sS'msg'
p36
S"'invalid syntax'"
p37
sS'__doc__'
p38
S"'Invalid syntax.'"
p39
sS'__getitem__'
p40
S"<method-wrapper '__getitem__' of exceptions.SyntaxError object at 0x05F5F970>"
p41
sS'__setstate__'
p42
S'<built-in method __setstate__ of exceptions.SyntaxError object at 0x05F5F970>'
p43
sS'__getattribute__'
p44
S"<method-wrapper '__getattribute__' of exceptions.SyntaxError object at 0x05F5F970>"
p45
sS'print_file_and_line'
p46
S'None'
p47
sS'args'
p48
S'(\'invalid syntax\', (r\'C:\\web2py\\applications\\unioeste_code\\models\\db.py\', 28, 9, "    Field(\'created_by\', db.auth_user, default=auth.user_id)\\n"))'
p49
sS'offset'
p50
S'9'
sS'__delattr__'
p51
S"<method-wrapper '__delattr__' of exceptions.SyntaxError object at 0x05F5F970>"
p52
sS'__repr__'
p53
S"<method-wrapper '__repr__' of exceptions.SyntaxError object at 0x05F5F970>"
p54
sS'__hash__'
p55
S"<method-wrapper '__hash__' of exceptions.SyntaxError object at 0x05F5F970>"
p56
ssS'evalue'
p57
S'invalid syntax (db.py, line 28)'
p58
sS'request'
p59
ccopy_reg
_reconstructor
p60
(cgluon.html
BEAUTIFY
p61
c__builtin__
object
p62
NtRp63
(dp64
S'attributes'
p65
(dp66
sS'components'
p67
(lp68
g60
(cgluon.html
TABLE
p69
g62
NtRp70
(dp71
g65
(dp72
S'level'
p73
I5
ssS'parent'
p74
Nsg67
(lp75
g60
(cgluon.html
TR
p76
g62
NtRp77
(dp78
g65
(dp79
sg74
g70
sg67
(lp80
g60
(cgluon.html
TD
p81
g62
NtRp82
(dp83
g65
(dp84
S'_style'
p85
S'font-weight:bold;vertical-align:top'
p86
ssg74
g77
sg67
(lp87
S'ajax'
p88
asbag60
(g81
g62
NtRp89
(dp90
g65
(dp91
S'_valign'
p92
S'top'
p93
ssg74
g77
sg67
(lp94
S':'
asbag60
(g81
g62
NtRp95
(dp96
g65
(dp97
sg74
g77
sg67
(lp98
g60
(g61
g62
NtRp99
(dp100
g65
(dp101
g73
I5
ssg74
g95
sg67
(lp102
S'False'
p103
asbasbasbag60
(g76
g62
NtRp104
(dp105
g65
(dp106
sg74
g70
sg67
(lp107
g60
(g81
g62
NtRp108
(dp109
g65
(dp110
g85
g86
ssg74
g104
sg67
(lp111
S'application'
p112
asbag60
(g81
g62
NtRp113
(dp114
g65
(dp115
g92
g93
ssg74
g104
sg67
(lp116
S':'
asbag60
(g81
g62
NtRp117
(dp118
g65
(dp119
sg74
g104
sg67
(lp120
g60
(g61
g62
NtRp121
(dp122
g65
(dp123
g73
I5
ssg74
g117
sg67
(lp124
S'unioeste_code'
p125
asbasbasbag60
(g76
g62
NtRp126
(dp127
g65
(dp128
sg74
g70
sg67
(lp129
g60
(g81
g62
NtRp130
(dp131
g65
(dp132
g85
g86
ssg74
g126
sg67
(lp133
g48
asbag60
(g81
g62
NtRp134
(dp135
g65
(dp136
g92
g93
ssg74
g126
sg67
(lp137
S':'
asbag60
(g81
g62
NtRp138
(dp139
g65
(dp140
sg74
g126
sg67
(lp141
g60
(g61
g62
NtRp142
(dp143
g65
(dp144
g73
I5
ssg74
g138
sg67
(lp145
g60
(g69
g62
NtRp146
(dp147
g65
(dp148
g73
I4
ssg74
Nsg67
(lp149
sbasbasbasbag60
(g76
g62
NtRp150
(dp151
g65
(dp152
sg74
g70
sg67
(lp153
g60
(g81
g62
NtRp154
(dp155
g65
(dp156
g85
g86
ssg74
g150
sg67
(lp157
S'body'
p158
asbag60
(g81
g62
NtRp159
(dp160
g65
(dp161
g92
g93
ssg74
g150
sg67
(lp162
S':'
asbag60
(g81
g62
NtRp163
(dp164
g65
(dp165
sg74
g150
sg67
(lp166
g60
(g61
g62
NtRp167
(dp168
g65
(dp169
g73
I5
ssg74
g163
sg67
(lp170
S'<cStringIO.StringO object at 0x05F6A560>'
p171
asbasbasbag60
(g76
g62
NtRp172
(dp173
g65
(dp174
sg74
g70
sg67
(lp175
g60
(g81
g62
NtRp176
(dp177
g65
(dp178
g85
g86
ssg74
g172
sg67
(lp179
S'client'
p180
asbag60
(g81
g62
NtRp181
(dp182
g65
(dp183
g92
g93
ssg74
g172
sg67
(lp184
S':'
asbag60
(g81
g62
NtRp185
(dp186
g65
(dp187
sg74
g172
sg67
(lp188
g60
(g61
g62
NtRp189
(dp190
g65
(dp191
g73
I5
ssg74
g185
sg67
(lp192
S'127.0.0.1'
p193
asbasbasbag60
(g76
g62
NtRp194
(dp195
g65
(dp196
sg74
g70
sg67
(lp197
g60
(g81
g62
NtRp198
(dp199
g65
(dp200
g85
g86
ssg74
g194
sg67
(lp201
S'controller'
p202
asbag60
(g81
g62
NtRp203
(dp204
g65
(dp205
g92
g93
ssg74
g194
sg67
(lp206
S':'
asbag60
(g81
g62
NtRp207
(dp208
g65
(dp209
sg74
g194
sg67
(lp210
g60
(g61
g62
NtRp211
(dp212
g65
(dp213
g73
I5
ssg74
g207
sg67
(lp214
S'appadmin'
p215
asbasbasbag60
(g76
g62
NtRp216
(dp217
g65
(dp218
sg74
g70
sg67
(lp219
g60
(g81
g62
NtRp220
(dp221
g65
(dp222
g85
g86
ssg74
g216
sg67
(lp223
S'cookies'
p224
asbag60
(g81
g62
NtRp225
(dp226
g65
(dp227
g92
g93
ssg74
g216
sg67
(lp228
S':'
asbag60
(g81
g62
NtRp229
(dp230
g65
(dp231
sg74
g216
sg67
(lp232
g60
(g61
g62
NtRp233
(dp234
g65
(dp235
g73
I5
ssg74
g229
sg67
(lp236
g60
(g69
g62
NtRp237
(dp238
g65
(dp239
g73
I4
ssg74
Nsg67
(lp240
g60
(g76
g62
NtRp241
(dp242
g65
(dp243
sg74
g237
sg67
(lp244
g60
(g81
g62
NtRp245
(dp246
g65
(dp247
g85
g86
ssg74
g241
sg67
(lp248
S'session_id_admin'
p249
asbag60
(g81
g62
NtRp250
(dp251
g65
(dp252
g92
g93
ssg74
g241
sg67
(lp253
S':'
asbag60
(g81
g62
NtRp254
(dp255
g65
(dp256
sg74
g241
sg67
(lp257
g60
(g61
g62
NtRp258
(dp259
g65
(dp260
g73
I4
ssg74
g254
sg67
(lp261
g60
(g69
g62
NtRp262
(dp263
g65
(dp264
g73
I3
ssg74
Nsg67
(lp265
g60
(g76
g62
NtRp266
(dp267
g65
(dp268
sg74
g262
sg67
(lp269
g60
(g81
g62
NtRp270
(dp271
g65
(dp272
g85
g86
ssg74
g266
sg67
(lp273
S'comment'
p274
asbag60
(g81
g62
NtRp275
(dp276
g65
(dp277
g92
g93
ssg74
g266
sg67
(lp278
S':'
asbag60
(g81
g62
NtRp279
(dp280
g65
(dp281
sg74
g266
sg67
(lp282
g60
(g61
g62
NtRp283
(dp284
g65
(dp285
g73
I3
ssg74
g279
sg67
(lp286
S''
asbasbasbag60
(g76
g62
NtRp287
(dp288
g65
(dp289
sg74
g262
sg67
(lp290
g60
(g81
g62
NtRp291
(dp292
g65
(dp293
g85
g86
ssg74
g287
sg67
(lp294
S'domain'
p295
asbag60
(g81
g62
NtRp296
(dp297
g65
(dp298
g92
g93
ssg74
g287
sg67
(lp299
S':'
asbag60
(g81
g62
NtRp300
(dp301
g65
(dp302
sg74
g287
sg67
(lp303
g60
(g61
g62
NtRp304
(dp305
g65
(dp306
g73
I3
ssg74
g300
sg67
(lp307
S''
asbasbasbag60
(g76
g62
NtRp308
(dp309
g65
(dp310
sg74
g262
sg67
(lp311
g60
(g81
g62
NtRp312
(dp313
g65
(dp314
g85
g86
ssg74
g308
sg67
(lp315
S'expires'
p316
asbag60
(g81
g62
NtRp317
(dp318
g65
(dp319
g92
g93
ssg74
g308
sg67
(lp320
S':'
asbag60
(g81
g62
NtRp321
(dp322
g65
(dp323
sg74
g308
sg67
(lp324
g60
(g61
g62
NtRp325
(dp326
g65
(dp327
g73
I3
ssg74
g321
sg67
(lp328
S''
asbasbasbag60
(g76
g62
NtRp329
(dp330
g65
(dp331
sg74
g262
sg67
(lp332
g60
(g81
g62
NtRp333
(dp334
g65
(dp335
g85
g86
ssg74
g329
sg67
(lp336
S'max-age'
p337
asbag60
(g81
g62
NtRp338
(dp339
g65
(dp340
g92
g93
ssg74
g329
sg67
(lp341
S':'
asbag60
(g81
g62
NtRp342
(dp343
g65
(dp344
sg74
g329
sg67
(lp345
g60
(g61
g62
NtRp346
(dp347
g65
(dp348
g73
I3
ssg74
g342
sg67
(lp349
S''
asbasbasbag60
(g76
g62
NtRp350
(dp351
g65
(dp352
sg74
g262
sg67
(lp353
g60
(g81
g62
NtRp354
(dp355
g65
(dp356
g85
g86
ssg74
g350
sg67
(lp357
S'path'
p358
asbag60
(g81
g62
NtRp359
(dp360
g65
(dp361
g92
g93
ssg74
g350
sg67
(lp362
S':'
asbag60
(g81
g62
NtRp363
(dp364
g65
(dp365
sg74
g350
sg67
(lp366
g60
(g61
g62
NtRp367
(dp368
g65
(dp369
g73
I3
ssg74
g363
sg67
(lp370
S''
asbasbasbag60
(g76
g62
NtRp371
(dp372
g65
(dp373
sg74
g262
sg67
(lp374
g60
(g81
g62
NtRp375
(dp376
g65
(dp377
g85
g86
ssg74
g371
sg67
(lp378
S'secure'
p379
asbag60
(g81
g62
NtRp380
(dp381
g65
(dp382
g92
g93
ssg74
g371
sg67
(lp383
S':'
asbag60
(g81
g62
NtRp384
(dp385
g65
(dp386
sg74
g371
sg67
(lp387
g60
(g61
g62
NtRp388
(dp389
g65
(dp390
g73
I3
ssg74
g384
sg67
(lp391
S''
asbasbasbag60
(g76
g62
NtRp392
(dp393
g65
(dp394
sg74
g262
sg67
(lp395
g60
(g81
g62
NtRp396
(dp397
g65
(dp398
g85
g86
ssg74
g392
sg67
(lp399
S'version'
p400
asbag60
(g81
g62
NtRp401
(dp402
g65
(dp403
g92
g93
ssg74
g392
sg67
(lp404
S':'
asbag60
(g81
g62
NtRp405
(dp406
g65
(dp407
sg74
g392
sg67
(lp408
g60
(g61
g62
NtRp409
(dp410
g65
(dp411
g73
I3
ssg74
g405
sg67
(lp412
S''
asbasbasbasbasbasbasbag60
(g76
g62
NtRp413
(dp414
g65
(dp415
sg74
g237
sg67
(lp416
g60
(g81
g62
NtRp417
(dp418
g65
(dp419
g85
g86
ssg74
g413
sg67
(lp420
S'session_id_welcome'
p421
asbag60
(g81
g62
NtRp422
(dp423
g65
(dp424
g92
g93
ssg74
g413
sg67
(lp425
S':'
asbag60
(g81
g62
NtRp426
(dp427
g65
(dp428
sg74
g413
sg67
(lp429
g60
(g61
g62
NtRp430
(dp431
g65
(dp432
g73
I4
ssg74
g426
sg67
(lp433
g60
(g69
g62
NtRp434
(dp435
g65
(dp436
g73
I3
ssg74
Nsg67
(lp437
g60
(g76
g62
NtRp438
(dp439
g65
(dp440
sg74
g434
sg67
(lp441
g60
(g81
g62
NtRp442
(dp443
g65
(dp444
g85
g86
ssg74
g438
sg67
(lp445
g274
asbag60
(g81
g62
NtRp446
(dp447
g65
(dp448
g92
g93
ssg74
g438
sg67
(lp449
S':'
asbag60
(g81
g62
NtRp450
(dp451
g65
(dp452
sg74
g438
sg67
(lp453
g60
(g61
g62
NtRp454
(dp455
g65
(dp456
g73
I3
ssg74
g450
sg67
(lp457
S''
asbasbasbag60
(g76
g62
NtRp458
(dp459
g65
(dp460
sg74
g434
sg67
(lp461
g60
(g81
g62
NtRp462
(dp463
g65
(dp464
g85
g86
ssg74
g458
sg67
(lp465
g295
asbag60
(g81
g62
NtRp466
(dp467
g65
(dp468
g92
g93
ssg74
g458
sg67
(lp469
S':'
asbag60
(g81
g62
NtRp470
(dp471
g65
(dp472
sg74
g458
sg67
(lp473
g60
(g61
g62
NtRp474
(dp475
g65
(dp476
g73
I3
ssg74
g470
sg67
(lp477
S''
asbasbasbag60
(g76
g62
NtRp478
(dp479
g65
(dp480
sg74
g434
sg67
(lp481
g60
(g81
g62
NtRp482
(dp483
g65
(dp484
g85
g86
ssg74
g478
sg67
(lp485
g316
asbag60
(g81
g62
NtRp486
(dp487
g65
(dp488
g92
g93
ssg74
g478
sg67
(lp489
S':'
asbag60
(g81
g62
NtRp490
(dp491
g65
(dp492
sg74
g478
sg67
(lp493
g60
(g61
g62
NtRp494
(dp495
g65
(dp496
g73
I3
ssg74
g490
sg67
(lp497
S''
asbasbasbag60
(g76
g62
NtRp498
(dp499
g65
(dp500
sg74
g434
sg67
(lp501
g60
(g81
g62
NtRp502
(dp503
g65
(dp504
g85
g86
ssg74
g498
sg67
(lp505
g337
asbag60
(g81
g62
NtRp506
(dp507
g65
(dp508
g92
g93
ssg74
g498
sg67
(lp509
S':'
asbag60
(g81
g62
NtRp510
(dp511
g65
(dp512
sg74
g498
sg67
(lp513
g60
(g61
g62
NtRp514
(dp515
g65
(dp516
g73
I3
ssg74
g510
sg67
(lp517
S''
asbasbasbag60
(g76
g62
NtRp518
(dp519
g65
(dp520
sg74
g434
sg67
(lp521
g60
(g81
g62
NtRp522
(dp523
g65
(dp524
g85
g86
ssg74
g518
sg67
(lp525
g358
asbag60
(g81
g62
NtRp526
(dp527
g65
(dp528
g92
g93
ssg74
g518
sg67
(lp529
S':'
asbag60
(g81
g62
NtRp530
(dp531
g65
(dp532
sg74
g518
sg67
(lp533
g60
(g61
g62
NtRp534
(dp535
g65
(dp536
g73
I3
ssg74
g530
sg67
(lp537
S''
asbasbasbag60
(g76
g62
NtRp538
(dp539
g65
(dp540
sg74
g434
sg67
(lp541
g60
(g81
g62
NtRp542
(dp543
g65
(dp544
g85
g86
ssg74
g538
sg67
(lp545
g379
asbag60
(g81
g62
NtRp546
(dp547
g65
(dp548
g92
g93
ssg74
g538
sg67
(lp549
S':'
asbag60
(g81
g62
NtRp550
(dp551
g65
(dp552
sg74
g538
sg67
(lp553
g60
(g61
g62
NtRp554
(dp555
g65
(dp556
g73
I3
ssg74
g550
sg67
(lp557
S''
asbasbasbag60
(g76
g62
NtRp558
(dp559
g65
(dp560
sg74
g434
sg67
(lp561
g60
(g81
g62
NtRp562
(dp563
g65
(dp564
g85
g86
ssg74
g558
sg67
(lp565
g400
asbag60
(g81
g62
NtRp566
(dp567
g65
(dp568
g92
g93
ssg74
g558
sg67
(lp569
S':'
asbag60
(g81
g62
NtRp570
(dp571
g65
(dp572
sg74
g558
sg67
(lp573
g60
(g61
g62
NtRp574
(dp575
g65
(dp576
g73
I3
ssg74
g570
sg67
(lp577
S''
asbasbasbasbasbasbasbasbasbasbasbag60
(g76
g62
NtRp578
(dp579
g65
(dp580
sg74
g70
sg67
(lp581
g60
(g81
g62
NtRp582
(dp583
g65
(dp584
g85
g86
ssg74
g578
sg67
(lp585
S'env'
p586
asbag60
(g81
g62
NtRp587
(dp588
g65
(dp589
g92
g93
ssg74
g578
sg67
(lp590
S':'
asbag60
(g81
g62
NtRp591
(dp592
g65
(dp593
sg74
g578
sg67
(lp594
g60
(g61
g62
NtRp595
(dp596
g65
(dp597
g73
I5
ssg74
g591
sg67
(lp598
g60
(g69
g62
NtRp599
(dp600
g65
(dp601
g73
I4
ssg74
Nsg67
(lp602
g60
(g76
g62
NtRp603
(dp604
g65
(dp605
sg74
g599
sg67
(lp606
g60
(g81
g62
NtRp607
(dp608
g65
(dp609
g85
g86
ssg74
g603
sg67
(lp610
S'app_folders'
p611
asbag60
(g81
g62
NtRp612
(dp613
g65
(dp614
g92
g93
ssg74
g603
sg67
(lp615
S':'
asbag60
(g81
g62
NtRp616
(dp617
g65
(dp618
sg74
g603
sg67
(lp619
g60
(g61
g62
NtRp620
(dp621
g65
(dp622
g73
I4
ssg74
g616
sg67
(lp623
S"set(['C:\\\\web2py\\\\applications\\\\admin\\\\', 'C:\\\\web2py\\\\applications\\\\welcome\\\\', 'C:\\\\web2py\\\\applications\\\\unioeste_code\\\\'])"
p624
asbasbasbag60
(g76
g62
NtRp625
(dp626
g65
(dp627
sg74
g599
sg67
(lp628
g60
(g81
g62
NtRp629
(dp630
g65
(dp631
g85
g86
ssg74
g625
sg67
(lp632
S'applications_parent'
p633
asbag60
(g81
g62
NtRp634
(dp635
g65
(dp636
g92
g93
ssg74
g625
sg67
(lp637
S':'
asbag60
(g81
g62
NtRp638
(dp639
g65
(dp640
sg74
g625
sg67
(lp641
g60
(g61
g62
NtRp642
(dp643
g65
(dp644
g73
I4
ssg74
g638
sg67
(lp645
S'C:\\web2py'
p646
asbasbasbag60
(g76
g62
NtRp647
(dp648
g65
(dp649
sg74
g599
sg67
(lp650
g60
(g81
g62
NtRp651
(dp652
g65
(dp653
g85
g86
ssg74
g647
sg67
(lp654
S'cmd_args'
p655
asbag60
(g81
g62
NtRp656
(dp657
g65
(dp658
g92
g93
ssg74
g647
sg67
(lp659
S':'
asbag60
(g81
g62
NtRp660
(dp661
g65
(dp662
sg74
g647
sg67
(lp663
g60
(g61
g62
NtRp664
(dp665
g65
(dp666
g73
I4
ssg74
g660
sg67
(lp667
g60
(g69
g62
NtRp668
(dp669
g65
(dp670
g73
I3
ssg74
Nsg67
(lp671
sbasbasbasbag60
(g76
g62
NtRp672
(dp673
g65
(dp674
sg74
g599
sg67
(lp675
g60
(g81
g62
NtRp676
(dp677
g65
(dp678
g85
g86
ssg74
g672
sg67
(lp679
S'cmd_options'
p680
asbag60
(g81
g62
NtRp681
(dp682
g65
(dp683
g92
g93
ssg74
g672
sg67
(lp684
S':'
asbag60
(g81
g62
NtRp685
(dp686
g65
(dp687
sg74
g672
sg67
(lp688
g60
(g61
g62
NtRp689
(dp690
g65
(dp691
g73
I4
ssg74
g685
sg67
(lp692
S"<Values at 0x309c300: {'verbose': False, 'ip': '127.0.0.1', 'shutdown_timeout': 5, 'taskbar': False, 'nocron': False, 'pid_filename': 'httpserver.pid', 'maxthreads': None, 'softcron': False, 'server_name': 'Pedro-PC', 'bpython': False, 'nogui': False, 'port': 8000, 'extcron': False, 'debuglevel': 30, 'test': None, 'folder': 'C:\\\\web2py', 'config': '', 'import_models': False, 'winservice': '', 'shell': None, 'run': '', 'log_filename': 'httpserver.log', 'args': [''], 'socket_timeout': 5, 'ssl_ca_certificate': None, 'scheduler': None, 'profiler_filename': None, 'ssl_private_key': '', 'password': '<ask>', 'request_queue_size': 5, 'ssl_certificate': '', 'cronjob': False, 'numthreads': None, 'quiet': False, 'interfaces': None, 'minthreads': None, 'timeout': 10, 'plain': False, 'nobanner': False}>"
p693
asbasbasbag60
(g76
g62
NtRp694
(dp695
g65
(dp696
sg74
g599
sg67
(lp697
g60
(g81
g62
NtRp698
(dp699
g65
(dp700
g85
g86
ssg74
g694
sg67
(lp701
S'db_sessions'
p702
asbag60
(g81
g62
NtRp703
(dp704
g65
(dp705
g92
g93
ssg74
g694
sg67
(lp706
S':'
asbag60
(g81
g62
NtRp707
(dp708
g65
(dp709
sg74
g694
sg67
(lp710
g60
(g61
g62
NtRp711
(dp712
g65
(dp713
g73
I4
ssg74
g707
sg67
(lp714
S'set([])'
p715
asbasbasbag60
(g76
g62
NtRp716
(dp717
g65
(dp718
sg74
g599
sg67
(lp719
g60
(g81
g62
NtRp720
(dp721
g65
(dp722
g85
g86
ssg74
g716
sg67
(lp723
S'debugging'
p724
asbag60
(g81
g62
NtRp725
(dp726
g65
(dp727
g92
g93
ssg74
g716
sg67
(lp728
S':'
asbag60
(g81
g62
NtRp729
(dp730
g65
(dp731
sg74
g716
sg67
(lp732
g60
(g61
g62
NtRp733
(dp734
g65
(dp735
g73
I4
ssg74
g729
sg67
(lp736
g103
asbasbasbag60
(g76
g62
NtRp737
(dp738
g65
(dp739
sg74
g599
sg67
(lp740
g60
(g81
g62
NtRp741
(dp742
g65
(dp743
g85
g86
ssg74
g737
sg67
(lp744
S'gluon_parent'
p745
asbag60
(g81
g62
NtRp746
(dp747
g65
(dp748
g92
g93
ssg74
g737
sg67
(lp749
S':'
asbag60
(g81
g62
NtRp750
(dp751
g65
(dp752
sg74
g737
sg67
(lp753
g60
(g61
g62
NtRp754
(dp755
g65
(dp756
g73
I4
ssg74
g750
sg67
(lp757
S'C:\\web2py'
p758
asbasbasbag60
(g76
g62
NtRp759
(dp760
g65
(dp761
sg74
g599
sg67
(lp762
g60
(g81
g62
NtRp763
(dp764
g65
(dp765
g85
g86
ssg74
g759
sg67
(lp766
S'http_accept'
p767
asbag60
(g81
g62
NtRp768
(dp769
g65
(dp770
g92
g93
ssg74
g759
sg67
(lp771
S':'
asbag60
(g81
g62
NtRp772
(dp773
g65
(dp774
sg74
g759
sg67
(lp775
g60
(g61
g62
NtRp776
(dp777
g65
(dp778
g73
I4
ssg74
g772
sg67
(lp779
S'text/html,application/xhtml+xml,application/xml;q=0.9,*/*;q=0.8'
p780
asbasbasbag60
(g76
g62
NtRp781
(dp782
g65
(dp783
sg74
g599
sg67
(lp784
g60
(g81
g62
NtRp785
(dp786
g65
(dp787
g85
g86
ssg74
g781
sg67
(lp788
S'http_accept_charset'
p789
asbag60
(g81
g62
NtRp790
(dp791
g65
(dp792
g92
g93
ssg74
g781
sg67
(lp793
S':'
asbag60
(g81
g62
NtRp794
(dp795
g65
(dp796
sg74
g781
sg67
(lp797
g60
(g61
g62
NtRp798
(dp799
g65
(dp800
g73
I4
ssg74
g794
sg67
(lp801
S'ISO-8859-1,utf-8;q=0.7,*;q=0.3'
p802
asbasbasbag60
(g76
g62
NtRp803
(dp804
g65
(dp805
sg74
g599
sg67
(lp806
g60
(g81
g62
NtRp807
(dp808
g65
(dp809
g85
g86
ssg74
g803
sg67
(lp810
S'http_accept_encoding'
p811
asbag60
(g81
g62
NtRp812
(dp813
g65
(dp814
g92
g93
ssg74
g803
sg67
(lp815
S':'
asbag60
(g81
g62
NtRp816
(dp817
g65
(dp818
sg74
g803
sg67
(lp819
g60
(g61
g62
NtRp820
(dp821
g65
(dp822
g73
I4
ssg74
g816
sg67
(lp823
S'gzip,deflate,sdch'
p824
asbasbasbag60
(g76
g62
NtRp825
(dp826
g65
(dp827
sg74
g599
sg67
(lp828
g60
(g81
g62
NtRp829
(dp830
g65
(dp831
g85
g86
ssg74
g825
sg67
(lp832
S'http_accept_language'
p833
asbag60
(g81
g62
NtRp834
(dp835
g65
(dp836
g92
g93
ssg74
g825
sg67
(lp837
S':'
asbag60
(g81
g62
NtRp838
(dp839
g65
(dp840
sg74
g825
sg67
(lp841
g60
(g61
g62
NtRp842
(dp843
g65
(dp844
g73
I4
ssg74
g838
sg67
(lp845
S'pt-BR,pt;q=0.8,en-US;q=0.6,en;q=0.4'
p846
asbasbasbag60
(g76
g62
NtRp847
(dp848
g65
(dp849
sg74
g599
sg67
(lp850
g60
(g81
g62
NtRp851
(dp852
g65
(dp853
g85
g86
ssg74
g847
sg67
(lp854
S'http_connection'
p855
asbag60
(g81
g62
NtRp856
(dp857
g65
(dp858
g92
g93
ssg74
g847
sg67
(lp859
S':'
asbag60
(g81
g62
NtRp860
(dp861
g65
(dp862
sg74
g847
sg67
(lp863
g60
(g61
g62
NtRp864
(dp865
g65
(dp866
g73
I4
ssg74
g860
sg67
(lp867
S'keep-alive'
p868
asbasbasbag60
(g76
g62
NtRp869
(dp870
g65
(dp871
sg74
g599
sg67
(lp872
g60
(g81
g62
NtRp873
(dp874
g65
(dp875
g85
g86
ssg74
g869
sg67
(lp876
S'http_cookie'
p877
asbag60
(g81
g62
NtRp878
(dp879
g65
(dp880
g92
g93
ssg74
g869
sg67
(lp881
S':'
asbag60
(g81
g62
NtRp882
(dp883
g65
(dp884
sg74
g869
sg67
(lp885
g60
(g61
g62
NtRp886
(dp887
g65
(dp888
g73
I4
ssg74
g882
sg67
(lp889
S'session_id_welcome=127.0.0.1-1a92f181-8ff8-45e5-a5ea-67695bf9cf4b; session_id_admin=127.0.0.1-74314c3a-3fdd-4faa-80a4-9a8219ae5070'
p890
asbasbasbag60
(g76
g62
NtRp891
(dp892
g65
(dp893
sg74
g599
sg67
(lp894
g60
(g81
g62
NtRp895
(dp896
g65
(dp897
g85
g86
ssg74
g891
sg67
(lp898
S'http_dnt'
p899
asbag60
(g81
g62
NtRp900
(dp901
g65
(dp902
g92
g93
ssg74
g891
sg67
(lp903
S':'
asbag60
(g81
g62
NtRp904
(dp905
g65
(dp906
sg74
g891
sg67
(lp907
g60
(g61
g62
NtRp908
(dp909
g65
(dp910
g73
I4
ssg74
g904
sg67
(lp911
S'1'
asbasbasbag60
(g76
g62
NtRp912
(dp913
g65
(dp914
sg74
g599
sg67
(lp915
g60
(g81
g62
NtRp916
(dp917
g65
(dp918
g85
g86
ssg74
g912
sg67
(lp919
S'http_host'
p920
asbag60
(g81
g62
NtRp921
(dp922
g65
(dp923
g92
g93
ssg74
g912
sg67
(lp924
S':'
asbag60
(g81
g62
NtRp925
(dp926
g65
(dp927
sg74
g912
sg67
(lp928
g60
(g61
g62
NtRp929
(dp930
g65
(dp931
g73
I4
ssg74
g925
sg67
(lp932
S'localhost:8000'
p933
asbasbasbag60
(g76
g62
NtRp934
(dp935
g65
(dp936
sg74
g599
sg67
(lp937
g60
(g81
g62
NtRp938
(dp939
g65
(dp940
g85
g86
ssg74
g934
sg67
(lp941
S'http_user_agent'
p942
asbag60
(g81
g62
NtRp943
(dp944
g65
(dp945
g92
g93
ssg74
g934
sg67
(lp946
S':'
asbag60
(g81
g62
NtRp947
(dp948
g65
(dp949
sg74
g934
sg67
(lp950
g60
(g61
g62
NtRp951
(dp952
g65
(dp953
g73
I4
ssg74
g947
sg67
(lp954
S'Mozilla/5.0 (Windows NT 6.1; WOW64) AppleWebKit/536.11 (KHTML, like Gecko) Chrome/20.0.1132.57 Safari/536.11'
p955
asbasbasbag60
(g76
g62
NtRp956
(dp957
g65
(dp958
sg74
g599
sg67
(lp959
g60
(g81
g62
NtRp960
(dp961
g65
(dp962
g85
g86
ssg74
g956
sg67
(lp963
S'is_jython'
p964
asbag60
(g81
g62
NtRp965
(dp966
g65
(dp967
g92
g93
ssg74
g956
sg67
(lp968
S':'
asbag60
(g81
g62
NtRp969
(dp970
g65
(dp971
sg74
g956
sg67
(lp972
g60
(g61
g62
NtRp973
(dp974
g65
(dp975
g73
I4
ssg74
g969
sg67
(lp976
g103
asbasbasbag60
(g76
g62
NtRp977
(dp978
g65
(dp979
sg74
g599
sg67
(lp980
g60
(g81
g62
NtRp981
(dp982
g65
(dp983
g85
g86
ssg74
g977
sg67
(lp984
S'is_pypy'
p985
asbag60
(g81
g62
NtRp986
(dp987
g65
(dp988
g92
g93
ssg74
g977
sg67
(lp989
S':'
asbag60
(g81
g62
NtRp990
(dp991
g65
(dp992
sg74
g977
sg67
(lp993
g60
(g61
g62
NtRp994
(dp995
g65
(dp996
g73
I4
ssg74
g990
sg67
(lp997
g103
asbasbasbag60
(g76
g62
NtRp998
(dp999
g65
(dp1000
sg74
g599
sg67
(lp1001
g60
(g81
g62
NtRp1002
(dp1003
g65
(dp1004
g85
g86
ssg74
g998
sg67
(lp1005
S'path_info'
p1006
asbag60
(g81
g62
NtRp1007
(dp1008
g65
(dp1009
g92
g93
ssg74
g998
sg67
(lp1010
S':'
asbag60
(g81
g62
NtRp1011
(dp1012
g65
(dp1013
sg74
g998
sg67
(lp1014
g60
(g61
g62
NtRp1015
(dp1016
g65
(dp1017
g73
I4
ssg74
g1011
sg67
(lp1018
S'/unioeste_code/appadmin'
p1019
asbasbasbag60
(g76
g62
NtRp1020
(dp1021
g65
(dp1022
sg74
g599
sg67
(lp1023
g60
(g81
g62
NtRp1024
(dp1025
g65
(dp1026
g85
g86
ssg74
g1020
sg67
(lp1027
S'query_string'
p1028
asbag60
(g81
g62
NtRp1029
(dp1030
g65
(dp1031
g92
g93
ssg74
g1020
sg67
(lp1032
S':'
asbag60
(g81
g62
NtRp1033
(dp1034
g65
(dp1035
sg74
g1020
sg67
(lp1036
g60
(g61
g62
NtRp1037
(dp1038
g65
(dp1039
g73
I4
ssg74
g1033
sg67
(lp1040
S''
asbasbasbag60
(g76
g62
NtRp1041
(dp1042
g65
(dp1043
sg74
g599
sg67
(lp1044
g60
(g81
g62
NtRp1045
(dp1046
g65
(dp1047
g85
g86
ssg74
g1041
sg67
(lp1048
S'remote_addr'
p1049
asbag60
(g81
g62
NtRp1050
(dp1051
g65
(dp1052
g92
g93
ssg74
g1041
sg67
(lp1053
S':'
asbag60
(g81
g62
NtRp1054
(dp1055
g65
(dp1056
sg74
g1041
sg67
(lp1057
g60
(g61
g62
NtRp1058
(dp1059
g65
(dp1060
g73
I4
ssg74
g1054
sg67
(lp1061
g193
asbasbasbag60
(g76
g62
NtRp1062
(dp1063
g65
(dp1064
sg74
g599
sg67
(lp1065
g60
(g81
g62
NtRp1066
(dp1067
g65
(dp1068
g85
g86
ssg74
g1062
sg67
(lp1069
S'remote_port'
p1070
asbag60
(g81
g62
NtRp1071
(dp1072
g65
(dp1073
g92
g93
ssg74
g1062
sg67
(lp1074
S':'
asbag60
(g81
g62
NtRp1075
(dp1076
g65
(dp1077
sg74
g1062
sg67
(lp1078
g60
(g61
g62
NtRp1079
(dp1080
g65
(dp1081
g73
I4
ssg74
g1075
sg67
(lp1082
S'2085'
p1083
asbasbasbag60
(g76
g62
NtRp1084
(dp1085
g65
(dp1086
sg74
g599
sg67
(lp1087
g60
(g81
g62
NtRp1088
(dp1089
g65
(dp1090
g85
g86
ssg74
g1084
sg67
(lp1091
S'request_method'
p1092
asbag60
(g81
g62
NtRp1093
(dp1094
g65
(dp1095
g92
g93
ssg74
g1084
sg67
(lp1096
S':'
asbag60
(g81
g62
NtRp1097
(dp1098
g65
(dp1099
sg74
g1084
sg67
(lp1100
g60
(g61
g62
NtRp1101
(dp1102
g65
(dp1103
g73
I4
ssg74
g1097
sg67
(lp1104
S'GET'
p1105
asbasbasbag60
(g76
g62
NtRp1106
(dp1107
g65
(dp1108
sg74
g599
sg67
(lp1109
g60
(g81
g62
NtRp1110
(dp1111
g65
(dp1112
g85
g86
ssg74
g1106
sg67
(lp1113
S'script_name'
p1114
asbag60
(g81
g62
NtRp1115
(dp1116
g65
(dp1117
g92
g93
ssg74
g1106
sg67
(lp1118
S':'
asbag60
(g81
g62
NtRp1119
(dp1120
g65
(dp1121
sg74
g1106
sg67
(lp1122
g60
(g61
g62
NtRp1123
(dp1124
g65
(dp1125
g73
I4
ssg74
g1119
sg67
(lp1126
S''
asbasbasbag60
(g76
g62
NtRp1127
(dp1128
g65
(dp1129
sg74
g599
sg67
(lp1130
g60
(g81
g62
NtRp1131
(dp1132
g65
(dp1133
g85
g86
ssg74
g1127
sg67
(lp1134
S'server_name'
p1135
asbag60
(g81
g62
NtRp1136
(dp1137
g65
(dp1138
g92
g93
ssg74
g1127
sg67
(lp1139
S':'
asbag60
(g81
g62
NtRp1140
(dp1141
g65
(dp1142
sg74
g1127
sg67
(lp1143
g60
(g61
g62
NtRp1144
(dp1145
g65
(dp1146
g73
I4
ssg74
g1140
sg67
(lp1147
S'Pedro-PC'
p1148
asbasbasbag60
(g76
g62
NtRp1149
(dp1150
g65
(dp1151
sg74
g599
sg67
(lp1152
g60
(g81
g62
NtRp1153
(dp1154
g65
(dp1155
g85
g86
ssg74
g1149
sg67
(lp1156
S'server_port'
p1157
asbag60
(g81
g62
NtRp1158
(dp1159
g65
(dp1160
g92
g93
ssg74
g1149
sg67
(lp1161
S':'
asbag60
(g81
g62
NtRp1162
(dp1163
g65
(dp1164
sg74
g1149
sg67
(lp1165
g60
(g61
g62
NtRp1166
(dp1167
g65
(dp1168
g73
I4
ssg74
g1162
sg67
(lp1169
S'8000'
p1170
asbasbasbag60
(g76
g62
NtRp1171
(dp1172
g65
(dp1173
sg74
g599
sg67
(lp1174
g60
(g81
g62
NtRp1175
(dp1176
g65
(dp1177
g85
g86
ssg74
g1171
sg67
(lp1178
S'server_protocol'
p1179
asbag60
(g81
g62
NtRp1180
(dp1181
g65
(dp1182
g92
g93
ssg74
g1171
sg67
(lp1183
S':'
asbag60
(g81
g62
NtRp1184
(dp1185
g65
(dp1186
sg74
g1171
sg67
(lp1187
g60
(g61
g62
NtRp1188
(dp1189
g65
(dp1190
g73
I4
ssg74
g1184
sg67
(lp1191
S'HTTP/1.1'
p1192
asbasbasbag60
(g76
g62
NtRp1193
(dp1194
g65
(dp1195
sg74
g599
sg67
(lp1196
g60
(g81
g62
NtRp1197
(dp1198
g65
(dp1199
g85
g86
ssg74
g1193
sg67
(lp1200
S'server_software'
p1201
asbag60
(g81
g62
NtRp1202
(dp1203
g65
(dp1204
g92
g93
ssg74
g1193
sg67
(lp1205
S':'
asbag60
(g81
g62
NtRp1206
(dp1207
g65
(dp1208
sg74
g1193
sg67
(lp1209
g60
(g61
g62
NtRp1210
(dp1211
g65
(dp1212
g73
I4
ssg74
g1206
sg67
(lp1213
S'Rocket 1.2.4'
p1214
asbasbasbag60
(g76
g62
NtRp1215
(dp1216
g65
(dp1217
sg74
g599
sg67
(lp1218
g60
(g81
g62
NtRp1219
(dp1220
g65
(dp1221
g85
g86
ssg74
g1215
sg67
(lp1222
S'web2py_crontype'
p1223
asbag60
(g81
g62
NtRp1224
(dp1225
g65
(dp1226
g92
g93
ssg74
g1215
sg67
(lp1227
S':'
asbag60
(g81
g62
NtRp1228
(dp1229
g65
(dp1230
sg74
g1215
sg67
(lp1231
g60
(g61
g62
NtRp1232
(dp1233
g65
(dp1234
g73
I4
ssg74
g1228
sg67
(lp1235
S'hard'
p1236
asbasbasbag60
(g76
g62
NtRp1237
(dp1238
g65
(dp1239
sg74
g599
sg67
(lp1240
g60
(g81
g62
NtRp1241
(dp1242
g65
(dp1243
g85
g86
ssg74
g1237
sg67
(lp1244
S'web2py_path'
p1245
asbag60
(g81
g62
NtRp1246
(dp1247
g65
(dp1248
g92
g93
ssg74
g1237
sg67
(lp1249
S':'
asbag60
(g81
g62
NtRp1250
(dp1251
g65
(dp1252
sg74
g1237
sg67
(lp1253
g60
(g61
g62
NtRp1254
(dp1255
g65
(dp1256
g73
I4
ssg74
g1250
sg67
(lp1257
g646
asbasbasbag60
(g76
g62
NtRp1258
(dp1259
g65
(dp1260
sg74
g599
sg67
(lp1261
g60
(g81
g62
NtRp1262
(dp1263
g65
(dp1264
g85
g86
ssg74
g1258
sg67
(lp1265
S'web2py_version'
p1266
asbag60
(g81
g62
NtRp1267
(dp1268
g65
(dp1269
g92
g93
ssg74
g1258
sg67
(lp1270
S':'
asbag60
(g81
g62
NtRp1271
(dp1272
g65
(dp1273
sg74
g1258
sg67
(lp1274
g60
(g61
g62
NtRp1275
(dp1276
g65
(dp1277
g73
I4
ssg74
g1271
sg67
(lp1278
g60
(g69
g62
NtRp1279
(dp1280
g65
(dp1281
g73
I3
ssg74
Nsg67
(lp1282
g60
(g76
g62
NtRp1283
(dp1284
g65
(dp1285
sg74
g1279
sg67
(lp1286
g60
(g81
g62
NtRp1287
(dp1288
g65
(dp1289
sg74
g1283
sg67
(lp1290
g60
(g61
g62
NtRp1291
(dp1292
g65
(dp1293
g73
I3
ssg74
g1287
sg67
(lp1294
S'1'
asbasbasbag60
(g76
g62
NtRp1295
(dp1296
g65
(dp1297
sg74
g1279
sg67
(lp1298
g60
(g81
g62
NtRp1299
(dp1300
g65
(dp1301
sg74
g1295
sg67
(lp1302
g60
(g61
g62
NtRp1303
(dp1304
g65
(dp1305
g73
I3
ssg74
g1299
sg67
(lp1306
S'99'
p1307
asbasbasbag60
(g76
g62
NtRp1308
(dp1309
g65
(dp1310
sg74
g1279
sg67
(lp1311
g60
(g81
g62
NtRp1312
(dp1313
g65
(dp1314
sg74
g1308
sg67
(lp1315
g60
(g61
g62
NtRp1316
(dp1317
g65
(dp1318
g73
I3
ssg74
g1312
sg67
(lp1319
S'7'
asbasbasbag60
(g76
g62
NtRp1320
(dp1321
g65
(dp1322
sg74
g1279
sg67
(lp1323
g60
(g81
g62
NtRp1324
(dp1325
g65
(dp1326
sg74
g1320
sg67
(lp1327
g60
(g61
g62
NtRp1328
(dp1329
g65
(dp1330
g73
I3
ssg74
g1324
sg67
(lp1331
S'datetime.datetime(2012, 3, 4, 22, 12, 8)'
p1332
asbasbasbag60
(g76
g62
NtRp1333
(dp1334
g65
(dp1335
sg74
g1279
sg67
(lp1336
g60
(g81
g62
NtRp1337
(dp1338
g65
(dp1339
sg74
g1333
sg67
(lp1340
g60
(g61
g62
NtRp1341
(dp1342
g65
(dp1343
g73
I3
ssg74
g1337
sg67
(lp1344
S'stable'
p1345
asbasbasbasbasbasbasbag60
(g76
g62
NtRp1346
(dp1347
g65
(dp1348
sg74
g599
sg67
(lp1349
g60
(g81
g62
NtRp1350
(dp1351
g65
(dp1352
g85
g86
ssg74
g1346
sg67
(lp1353
S'wsgi_errors'
p1354
asbag60
(g81
g62
NtRp1355
(dp1356
g65
(dp1357
g92
g93
ssg74
g1346
sg67
(lp1358
S':'
asbag60
(g81
g62
NtRp1359
(dp1360
g65
(dp1361
sg74
g1346
sg67
(lp1362
g60
(g61
g62
NtRp1363
(dp1364
g65
(dp1365
g73
I4
ssg74
g1359
sg67
(lp1366
S'<__main__.Stderr object at 0x006F6670>'
p1367
asbasbasbag60
(g76
g62
NtRp1368
(dp1369
g65
(dp1370
sg74
g599
sg67
(lp1371
g60
(g81
g62
NtRp1372
(dp1373
g65
(dp1374
g85
g86
ssg74
g1368
sg67
(lp1375
S'wsgi_file_wrapper'
p1376
asbag60
(g81
g62
NtRp1377
(dp1378
g65
(dp1379
g92
g93
ssg74
g1368
sg67
(lp1380
S':'
asbag60
(g81
g62
NtRp1381
(dp1382
g65
(dp1383
sg74
g1368
sg67
(lp1384
g60
(g61
g62
NtRp1385
(dp1386
g65
(dp1387
g73
I4
ssg74
g1381
sg67
(lp1388
S'<class wsgiref.util.FileWrapper at 0x02E8DE10>'
p1389
asbasbasbag60
(g76
g62
NtRp1390
(dp1391
g65
(dp1392
sg74
g599
sg67
(lp1393
g60
(g81
g62
NtRp1394
(dp1395
g65
(dp1396
g85
g86
ssg74
g1390
sg67
(lp1397
S'wsgi_input'
p1398
asbag60
(g81
g62
NtRp1399
(dp1400
g65
(dp1401
g92
g93
ssg74
g1390
sg67
(lp1402
S':'
asbag60
(g81
g62
NtRp1403
(dp1404
g65
(dp1405
sg74
g1390
sg67
(lp1406
g60
(g61
g62
NtRp1407
(dp1408
g65
(dp1409
g73
I4
ssg74
g1403
sg67
(lp1410
S'<socket._fileobject object at 0x05F5FF30>'
p1411
asbasbasbag60
(g76
g62
NtRp1412
(dp1413
g65
(dp1414
sg74
g599
sg67
(lp1415
g60
(g81
g62
NtRp1416
(dp1417
g65
(dp1418
g85
g86
ssg74
g1412
sg67
(lp1419
S'wsgi_multiprocess'
p1420
asbag60
(g81
g62
NtRp1421
(dp1422
g65
(dp1423
g92
g93
ssg74
g1412
sg67
(lp1424
S':'
asbag60
(g81
g62
NtRp1425
(dp1426
g65
(dp1427
sg74
g1412
sg67
(lp1428
g60
(g61
g62
NtRp1429
(dp1430
g65
(dp1431
g73
I4
ssg74
g1425
sg67
(lp1432
g103
asbasbasbag60
(g76
g62
NtRp1433
(dp1434
g65
(dp1435
sg74
g599
sg67
(lp1436
g60
(g81
g62
NtRp1437
(dp1438
g65
(dp1439
g85
g86
ssg74
g1433
sg67
(lp1440
S'wsgi_multithread'
p1441
asbag60
(g81
g62
NtRp1442
(dp1443
g65
(dp1444
g92
g93
ssg74
g1433
sg67
(lp1445
S':'
asbag60
(g81
g62
NtRp1446
(dp1447
g65
(dp1448
sg74
g1433
sg67
(lp1449
g60
(g61
g62
NtRp1450
(dp1451
g65
(dp1452
g73
I4
ssg74
g1446
sg67
(lp1453
S'True'
p1454
asbasbasbag60
(g76
g62
NtRp1455
(dp1456
g65
(dp1457
sg74
g599
sg67
(lp1458
g60
(g81
g62
NtRp1459
(dp1460
g65
(dp1461
g85
g86
ssg74
g1455
sg67
(lp1462
S'wsgi_run_once'
p1463
asbag60
(g81
g62
NtRp1464
(dp1465
g65
(dp1466
g92
g93
ssg74
g1455
sg67
(lp1467
S':'
asbag60
(g81
g62
NtRp1468
(dp1469
g65
(dp1470
sg74
g1455
sg67
(lp1471
g60
(g61
g62
NtRp1472
(dp1473
g65
(dp1474
g73
I4
ssg74
g1468
sg67
(lp1475
g103
asbasbasbag60
(g76
g62
NtRp1476
(dp1477
g65
(dp1478
sg74
g599
sg67
(lp1479
g60
(g81
g62
NtRp1480
(dp1481
g65
(dp1482
g85
g86
ssg74
g1476
sg67
(lp1483
S'wsgi_url_scheme'
p1484
asbag60
(g81
g62
NtRp1485
(dp1486
g65
(dp1487
g92
g93
ssg74
g1476
sg67
(lp1488
S':'
asbag60
(g81
g62
NtRp1489
(dp1490
g65
(dp1491
sg74
g1476
sg67
(lp1492
g60
(g61
g62
NtRp1493
(dp1494
g65
(dp1495
g73
I4
ssg74
g1489
sg67
(lp1496
S'http'
p1497
asbasbasbag60
(g76
g62
NtRp1498
(dp1499
g65
(dp1500
sg74
g599
sg67
(lp1501
g60
(g81
g62
NtRp1502
(dp1503
g65
(dp1504
g85
g86
ssg74
g1498
sg67
(lp1505
S'wsgi_version'
p1506
asbag60
(g81
g62
NtRp1507
(dp1508
g65
(dp1509
g92
g93
ssg74
g1498
sg67
(lp1510
S':'
asbag60
(g81
g62
NtRp1511
(dp1512
g65
(dp1513
sg74
g1498
sg67
(lp1514
g60
(g61
g62
NtRp1515
(dp1516
g65
(dp1517
g73
I4
ssg74
g1511
sg67
(lp1518
g60
(g69
g62
NtRp1519
(dp1520
g65
(dp1521
g73
I3
ssg74
Nsg67
(lp1522
g60
(g76
g62
NtRp1523
(dp1524
g65
(dp1525
sg74
g1519
sg67
(lp1526
g60
(g81
g62
NtRp1527
(dp1528
g65
(dp1529
sg74
g1523
sg67
(lp1530
g60
(g61
g62
NtRp1531
(dp1532
g65
(dp1533
g73
I3
ssg74
g1527
sg67
(lp1534
S'1'
asbasbasbag60
(g76
g62
NtRp1535
(dp1536
g65
(dp1537
sg74
g1519
sg67
(lp1538
g60
(g81
g62
NtRp1539
(dp1540
g65
(dp1541
sg74
g1535
sg67
(lp1542
g60
(g61
g62
NtRp1543
(dp1544
g65
(dp1545
g73
I3
ssg74
g1539
sg67
(lp1546
S'0'
asbasbasbasbasbasbasbasbasbasbasbag60
(g76
g62
NtRp1547
(dp1548
g65
(dp1549
sg74
g70
sg67
(lp1550
g60
(g81
g62
NtRp1551
(dp1552
g65
(dp1553
g85
g86
ssg74
g1547
sg67
(lp1554
S'extension'
p1555
asbag60
(g81
g62
NtRp1556
(dp1557
g65
(dp1558
g92
g93
ssg74
g1547
sg67
(lp1559
S':'
asbag60
(g81
g62
NtRp1560
(dp1561
g65
(dp1562
sg74
g1547
sg67
(lp1563
g60
(g61
g62
NtRp1564
(dp1565
g65
(dp1566
g73
I5
ssg74
g1560
sg67
(lp1567
S'html'
p1568
asbasbasbag60
(g76
g62
NtRp1569
(dp1570
g65
(dp1571
sg74
g70
sg67
(lp1572
g60
(g81
g62
NtRp1573
(dp1574
g65
(dp1575
g85
g86
ssg74
g1569
sg67
(lp1576
S'folder'
p1577
asbag60
(g81
g62
NtRp1578
(dp1579
g65
(dp1580
g92
g93
ssg74
g1569
sg67
(lp1581
S':'
asbag60
(g81
g62
NtRp1582
(dp1583
g65
(dp1584
sg74
g1569
sg67
(lp1585
g60
(g61
g62
NtRp1586
(dp1587
g65
(dp1588
g73
I5
ssg74
g1582
sg67
(lp1589
S'C:\\web2py\\applications\\unioeste_code\\'
p1590
asbasbasbag60
(g76
g62
NtRp1591
(dp1592
g65
(dp1593
sg74
g70
sg67
(lp1594
g60
(g81
g62
NtRp1595
(dp1596
g65
(dp1597
g85
g86
ssg74
g1591
sg67
(lp1598
S'function'
p1599
asbag60
(g81
g62
NtRp1600
(dp1601
g65
(dp1602
g92
g93
ssg74
g1591
sg67
(lp1603
S':'
asbag60
(g81
g62
NtRp1604
(dp1605
g65
(dp1606
sg74
g1591
sg67
(lp1607
g60
(g61
g62
NtRp1608
(dp1609
g65
(dp1610
g73
I5
ssg74
g1604
sg67
(lp1611
S'index'
p1612
asbasbasbag60
(g76
g62
NtRp1613
(dp1614
g65
(dp1615
sg74
g70
sg67
(lp1616
g60
(g81
g62
NtRp1617
(dp1618
g65
(dp1619
g85
g86
ssg74
g1613
sg67
(lp1620
S'get_vars'
p1621
asbag60
(g81
g62
NtRp1622
(dp1623
g65
(dp1624
g92
g93
ssg74
g1613
sg67
(lp1625
S':'
asbag60
(g81
g62
NtRp1626
(dp1627
g65
(dp1628
sg74
g1613
sg67
(lp1629
g60
(g61
g62
NtRp1630
(dp1631
g65
(dp1632
g73
I5
ssg74
g1626
sg67
(lp1633
g60
(g69
g62
NtRp1634
(dp1635
g65
(dp1636
g73
I4
ssg74
Nsg67
(lp1637
sbasbasbasbag60
(g76
g62
NtRp1638
(dp1639
g65
(dp1640
sg74
g70
sg67
(lp1641
g60
(g81
g62
NtRp1642
(dp1643
g65
(dp1644
g85
g86
ssg74
g1638
sg67
(lp1645
S'global_settings'
p1646
asbag60
(g81
g62
NtRp1647
(dp1648
g65
(dp1649
g92
g93
ssg74
g1638
sg67
(lp1650
S':'
asbag60
(g81
g62
NtRp1651
(dp1652
g65
(dp1653
sg74
g1638
sg67
(lp1654
g60
(g61
g62
NtRp1655
(dp1656
g65
(dp1657
g73
I5
ssg74
g1651
sg67
(lp1658
g60
(g69
g62
NtRp1659
(dp1660
g65
(dp1661
g73
I4
ssg74
Nsg67
(lp1662
g60
(g76
g62
NtRp1663
(dp1664
g65
(dp1665
sg74
g1659
sg67
(lp1666
g60
(g81
g62
NtRp1667
(dp1668
g65
(dp1669
g85
g86
ssg74
g1663
sg67
(lp1670
g611
asbag60
(g81
g62
NtRp1671
(dp1672
g65
(dp1673
g92
g93
ssg74
g1663
sg67
(lp1674
S':'
asbag60
(g81
g62
NtRp1675
(dp1676
g65
(dp1677
sg74
g1663
sg67
(lp1678
g60
(g61
g62
NtRp1679
(dp1680
g65
(dp1681
g73
I4
ssg74
g1675
sg67
(lp1682
S"set(['C:\\\\web2py\\\\applications\\\\admin\\\\', 'C:\\\\web2py\\\\applications\\\\welcome\\\\', 'C:\\\\web2py\\\\applications\\\\unioeste_code\\\\'])"
p1683
asbasbasbag60
(g76
g62
NtRp1684
(dp1685
g65
(dp1686
sg74
g1659
sg67
(lp1687
g60
(g81
g62
NtRp1688
(dp1689
g65
(dp1690
g85
g86
ssg74
g1684
sg67
(lp1691
g633
asbag60
(g81
g62
NtRp1692
(dp1693
g65
(dp1694
g92
g93
ssg74
g1684
sg67
(lp1695
S':'
asbag60
(g81
g62
NtRp1696
(dp1697
g65
(dp1698
sg74
g1684
sg67
(lp1699
g60
(g61
g62
NtRp1700
(dp1701
g65
(dp1702
g73
I4
ssg74
g1696
sg67
(lp1703
g646
asbasbasbag60
(g76
g62
NtRp1704
(dp1705
g65
(dp1706
sg74
g1659
sg67
(lp1707
g60
(g81
g62
NtRp1708
(dp1709
g65
(dp1710
g85
g86
ssg74
g1704
sg67
(lp1711
g655
asbag60
(g81
g62
NtRp1712
(dp1713
g65
(dp1714
g92
g93
ssg74
g1704
sg67
(lp1715
S':'
asbag60
(g81
g62
NtRp1716
(dp1717
g65
(dp1718
sg74
g1704
sg67
(lp1719
g60
(g61
g62
NtRp1720
(dp1721
g65
(dp1722
g73
I4
ssg74
g1716
sg67
(lp1723
g60
(g69
g62
NtRp1724
(dp1725
g65
(dp1726
g73
I3
ssg74
Nsg67
(lp1727
sbasbasbasbag60
(g76
g62
NtRp1728
(dp1729
g65
(dp1730
sg74
g1659
sg67
(lp1731
g60
(g81
g62
NtRp1732
(dp1733
g65
(dp1734
g85
g86
ssg74
g1728
sg67
(lp1735
g680
asbag60
(g81
g62
NtRp1736
(dp1737
g65
(dp1738
g92
g93
ssg74
g1728
sg67
(lp1739
S':'
asbag60
(g81
g62
NtRp1740
(dp1741
g65
(dp1742
sg74
g1728
sg67
(lp1743
g60
(g61
g62
NtRp1744
(dp1745
g65
(dp1746
g73
I4
ssg74
g1740
sg67
(lp1747
S"<Values at 0x309c300: {'verbose': False, 'ip': '127.0.0.1', 'shutdown_timeout': 5, 'taskbar': False, 'nocron': False, 'pid_filename': 'httpserver.pid', 'maxthreads': None, 'softcron': False, 'server_name': 'Pedro-PC', 'bpython': False, 'nogui': False, 'port': 8000, 'extcron': False, 'debuglevel': 30, 'test': None, 'folder': 'C:\\\\web2py', 'config': '', 'import_models': False, 'winservice': '', 'shell': None, 'run': '', 'log_filename': 'httpserver.log', 'args': [''], 'socket_timeout': 5, 'ssl_ca_certificate': None, 'scheduler': None, 'profiler_filename': None, 'ssl_private_key': '', 'password': '<ask>', 'request_queue_size': 5, 'ssl_certificate': '', 'cronjob': False, 'numthreads': None, 'quiet': False, 'interfaces': None, 'minthreads': None, 'timeout': 10, 'plain': False, 'nobanner': False}>"
p1748
asbasbasbag60
(g76
g62
NtRp1749
(dp1750
g65
(dp1751
sg74
g1659
sg67
(lp1752
g60
(g81
g62
NtRp1753
(dp1754
g65
(dp1755
g85
g86
ssg74
g1749
sg67
(lp1756
g702
asbag60
(g81
g62
NtRp1757
(dp1758
g65
(dp1759
g92
g93
ssg74
g1749
sg67
(lp1760
S':'
asbag60
(g81
g62
NtRp1761
(dp1762
g65
(dp1763
sg74
g1749
sg67
(lp1764
g60
(g61
g62
NtRp1765
(dp1766
g65
(dp1767
g73
I4
ssg74
g1761
sg67
(lp1768
S'set([])'
p1769
asbasbasbag60
(g76
g62
NtRp1770
(dp1771
g65
(dp1772
sg74
g1659
sg67
(lp1773
g60
(g81
g62
NtRp1774
(dp1775
g65
(dp1776
g85
g86
ssg74
g1770
sg67
(lp1777
g724
asbag60
(g81
g62
NtRp1778
(dp1779
g65
(dp1780
g92
g93
ssg74
g1770
sg67
(lp1781
S':'
asbag60
(g81
g62
NtRp1782
(dp1783
g65
(dp1784
sg74
g1770
sg67
(lp1785
g60
(g61
g62
NtRp1786
(dp1787
g65
(dp1788
g73
I4
ssg74
g1782
sg67
(lp1789
g103
asbasbasbag60
(g76
g62
NtRp1790
(dp1791
g65
(dp1792
sg74
g1659
sg67
(lp1793
g60
(g81
g62
NtRp1794
(dp1795
g65
(dp1796
g85
g86
ssg74
g1790
sg67
(lp1797
g745
asbag60
(g81
g62
NtRp1798
(dp1799
g65
(dp1800
g92
g93
ssg74
g1790
sg67
(lp1801
S':'
asbag60
(g81
g62
NtRp1802
(dp1803
g65
(dp1804
sg74
g1790
sg67
(lp1805
g60
(g61
g62
NtRp1806
(dp1807
g65
(dp1808
g73
I4
ssg74
g1802
sg67
(lp1809
g758
asbasbasbag60
(g76
g62
NtRp1810
(dp1811
g65
(dp1812
sg74
g1659
sg67
(lp1813
g60
(g81
g62
NtRp1814
(dp1815
g65
(dp1816
g85
g86
ssg74
g1810
sg67
(lp1817
g964
asbag60
(g81
g62
NtRp1818
(dp1819
g65
(dp1820
g92
g93
ssg74
g1810
sg67
(lp1821
S':'
asbag60
(g81
g62
NtRp1822
(dp1823
g65
(dp1824
sg74
g1810
sg67
(lp1825
g60
(g61
g62
NtRp1826
(dp1827
g65
(dp1828
g73
I4
ssg74
g1822
sg67
(lp1829
g103
asbasbasbag60
(g76
g62
NtRp1830
(dp1831
g65
(dp1832
sg74
g1659
sg67
(lp1833
g60
(g81
g62
NtRp1834
(dp1835
g65
(dp1836
g85
g86
ssg74
g1830
sg67
(lp1837
g985
asbag60
(g81
g62
NtRp1838
(dp1839
g65
(dp1840
g92
g93
ssg74
g1830
sg67
(lp1841
S':'
asbag60
(g81
g62
NtRp1842
(dp1843
g65
(dp1844
sg74
g1830
sg67
(lp1845
g60
(g61
g62
NtRp1846
(dp1847
g65
(dp1848
g73
I4
ssg74
g1842
sg67
(lp1849
g103
asbasbasbag60
(g76
g62
NtRp1850
(dp1851
g65
(dp1852
sg74
g1659
sg67
(lp1853
g60
(g81
g62
NtRp1854
(dp1855
g65
(dp1856
g85
g86
ssg74
g1850
sg67
(lp1857
g1223
asbag60
(g81
g62
NtRp1858
(dp1859
g65
(dp1860
g92
g93
ssg74
g1850
sg67
(lp1861
S':'
asbag60
(g81
g62
NtRp1862
(dp1863
g65
(dp1864
sg74
g1850
sg67
(lp1865
g60
(g61
g62
NtRp1866
(dp1867
g65
(dp1868
g73
I4
ssg74
g1862
sg67
(lp1869
g1236
asbasbasbag60
(g76
g62
NtRp1870
(dp1871
g65
(dp1872
sg74
g1659
sg67
(lp1873
g60
(g81
g62
NtRp1874
(dp1875
g65
(dp1876
g85
g86
ssg74
g1870
sg67
(lp1877
g1266
asbag60
(g81
g62
NtRp1878
(dp1879
g65
(dp1880
g92
g93
ssg74
g1870
sg67
(lp1881
S':'
asbag60
(g81
g62
NtRp1882
(dp1883
g65
(dp1884
sg74
g1870
sg67
(lp1885
g60
(g61
g62
NtRp1886
(dp1887
g65
(dp1888
g73
I4
ssg74
g1882
sg67
(lp1889
g60
(g69
g62
NtRp1890
(dp1891
g65
(dp1892
g73
I3
ssg74
Nsg67
(lp1893
g60
(g76
g62
NtRp1894
(dp1895
g65
(dp1896
sg74
g1890
sg67
(lp1897
g60
(g81
g62
NtRp1898
(dp1899
g65
(dp1900
sg74
g1894
sg67
(lp1901
g60
(g61
g62
NtRp1902
(dp1903
g65
(dp1904
g73
I3
ssg74
g1898
sg67
(lp1905
S'1'
asbasbasbag60
(g76
g62
NtRp1906
(dp1907
g65
(dp1908
sg74
g1890
sg67
(lp1909
g60
(g81
g62
NtRp1910
(dp1911
g65
(dp1912
sg74
g1906
sg67
(lp1913
g60
(g61
g62
NtRp1914
(dp1915
g65
(dp1916
g73
I3
ssg74
g1910
sg67
(lp1917
S'99'
p1918
asbasbasbag60
(g76
g62
NtRp1919
(dp1920
g65
(dp1921
sg74
g1890
sg67
(lp1922
g60
(g81
g62
NtRp1923
(dp1924
g65
(dp1925
sg74
g1919
sg67
(lp1926
g60
(g61
g62
NtRp1927
(dp1928
g65
(dp1929
g73
I3
ssg74
g1923
sg67
(lp1930
S'7'
asbasbasbag60
(g76
g62
NtRp1931
(dp1932
g65
(dp1933
sg74
g1890
sg67
(lp1934
g60
(g81
g62
NtRp1935
(dp1936
g65
(dp1937
sg74
g1931
sg67
(lp1938
g60
(g61
g62
NtRp1939
(dp1940
g65
(dp1941
g73
I3
ssg74
g1935
sg67
(lp1942
S'datetime.datetime(2012, 3, 4, 22, 12, 8)'
p1943
asbasbasbag60
(g76
g62
NtRp1944
(dp1945
g65
(dp1946
sg74
g1890
sg67
(lp1947
g60
(g81
g62
NtRp1948
(dp1949
g65
(dp1950
sg74
g1944
sg67
(lp1951
g60
(g61
g62
NtRp1952
(dp1953
g65
(dp1954
g73
I3
ssg74
g1948
sg67
(lp1955
g1345
asbasbasbasbasbasbasbasbasbasbasbag60
(g76
g62
NtRp1956
(dp1957
g65
(dp1958
sg74
g70
sg67
(lp1959
g60
(g81
g62
NtRp1960
(dp1961
g65
(dp1962
g85
g86
ssg74
g1956
sg67
(lp1963
S'is_https'
p1964
asbag60
(g81
g62
NtRp1965
(dp1966
g65
(dp1967
g92
g93
ssg74
g1956
sg67
(lp1968
S':'
asbag60
(g81
g62
NtRp1969
(dp1970
g65
(dp1971
sg74
g1956
sg67
(lp1972
g60
(g61
g62
NtRp1973
(dp1974
g65
(dp1975
g73
I5
ssg74
g1969
sg67
(lp1976
g103
asbasbasbag60
(g76
g62
NtRp1977
(dp1978
g65
(dp1979
sg74
g70
sg67
(lp1980
g60
(g81
g62
NtRp1981
(dp1982
g65
(dp1983
g85
g86
ssg74
g1977
sg67
(lp1984
S'is_local'
p1985
asbag60
(g81
g62
NtRp1986
(dp1987
g65
(dp1988
g92
g93
ssg74
g1977
sg67
(lp1989
S':'
asbag60
(g81
g62
NtRp1990
(dp1991
g65
(dp1992
sg74
g1977
sg67
(lp1993
g60
(g61
g62
NtRp1994
(dp1995
g65
(dp1996
g73
I5
ssg74
g1990
sg67
(lp1997
g1454
asbasbasbag60
(g76
g62
NtRp1998
(dp1999
g65
(dp2000
sg74
g70
sg67
(lp2001
g60
(g81
g62
NtRp2002
(dp2003
g65
(dp2004
g85
g86
ssg74
g1998
sg67
(lp2005
S'is_restful'
p2006
asbag60
(g81
g62
NtRp2007
(dp2008
g65
(dp2009
g92
g93
ssg74
g1998
sg67
(lp2010
S':'
asbag60
(g81
g62
NtRp2011
(dp2012
g65
(dp2013
sg74
g1998
sg67
(lp2014
g60
(g61
g62
NtRp2015
(dp2016
g65
(dp2017
g73
I5
ssg74
g2011
sg67
(lp2018
g103
asbasbasbag60
(g76
g62
NtRp2019
(dp2020
g65
(dp2021
sg74
g70
sg67
(lp2022
g60
(g81
g62
NtRp2023
(dp2024
g65
(dp2025
g85
g86
ssg74
g2019
sg67
(lp2026
S'now'
p2027
asbag60
(g81
g62
NtRp2028
(dp2029
g65
(dp2030
g92
g93
ssg74
g2019
sg67
(lp2031
S':'
asbag60
(g81
g62
NtRp2032
(dp2033
g65
(dp2034
sg74
g2019
sg67
(lp2035
g60
(g61
g62
NtRp2036
(dp2037
g65
(dp2038
g73
I5
ssg74
g2032
sg67
(lp2039
S'datetime.datetime(2012, 7, 28, 14, 58, 1, 443000)'
p2040
asbasbasbag60
(g76
g62
NtRp2041
(dp2042
g65
(dp2043
sg74
g70
sg67
(lp2044
g60
(g81
g62
NtRp2045
(dp2046
g65
(dp2047
g85
g86
ssg74
g2041
sg67
(lp2048
S'post_vars'
p2049
asbag60
(g81
g62
NtRp2050
(dp2051
g65
(dp2052
g92
g93
ssg74
g2041
sg67
(lp2053
S':'
asbag60
(g81
g62
NtRp2054
(dp2055
g65
(dp2056
sg74
g2041
sg67
(lp2057
g60
(g61
g62
NtRp2058
(dp2059
g65
(dp2060
g73
I5
ssg74
g2054
sg67
(lp2061
g60
(g69
g62
NtRp2062
(dp2063
g65
(dp2064
g73
I4
ssg74
Nsg67
(lp2065
sbasbasbasbag60
(g76
g62
NtRp2066
(dp2067
g65
(dp2068
sg74
g70
sg67
(lp2069
g60
(g81
g62
NtRp2070
(dp2071
g65
(dp2072
g85
g86
ssg74
g2066
sg67
(lp2073
S'url'
p2074
asbag60
(g81
g62
NtRp2075
(dp2076
g65
(dp2077
g92
g93
ssg74
g2066
sg67
(lp2078
S':'
asbag60
(g81
g62
NtRp2079
(dp2080
g65
(dp2081
sg74
g2066
sg67
(lp2082
g60
(g61
g62
NtRp2083
(dp2084
g65
(dp2085
g73
I5
ssg74
g2079
sg67
(lp2086
S'/unioeste_code/appadmin/index'
p2087
asbasbasbag60
(g76
g62
NtRp2088
(dp2089
g65
(dp2090
sg74
g70
sg67
(lp2091
g60
(g81
g62
NtRp2092
(dp2093
g65
(dp2094
g85
g86
ssg74
g2088
sg67
(lp2095
S'utcnow'
p2096
asbag60
(g81
g62
NtRp2097
(dp2098
g65
(dp2099
g92
g93
ssg74
g2088
sg67
(lp2100
S':'
asbag60
(g81
g62
NtRp2101
(dp2102
g65
(dp2103
sg74
g2088
sg67
(lp2104
g60
(g61
g62
NtRp2105
(dp2106
g65
(dp2107
g73
I5
ssg74
g2101
sg67
(lp2108
S'datetime.datetime(2012, 7, 28, 17, 58, 1, 443000)'
p2109
asbasbasbag60
(g76
g62
NtRp2110
(dp2111
g65
(dp2112
sg74
g70
sg67
(lp2113
g60
(g81
g62
NtRp2114
(dp2115
g65
(dp2116
g85
g86
ssg74
g2110
sg67
(lp2117
S'uuid'
p2118
asbag60
(g81
g62
NtRp2119
(dp2120
g65
(dp2121
g92
g93
ssg74
g2110
sg67
(lp2122
S':'
asbag60
(g81
g62
NtRp2123
(dp2124
g65
(dp2125
sg74
g2110
sg67
(lp2126
g60
(g61
g62
NtRp2127
(dp2128
g65
(dp2129
g73
I5
ssg74
g2123
sg67
(lp2130
S'unioeste_code/127.0.0.1.2012-07-28.14-58-01.88db64bf-1fc2-4c06-a23d-7f83c1c10b94'
p2131
asbasbasbag60
(g76
g62
NtRp2132
(dp2133
g65
(dp2134
sg74
g70
sg67
(lp2135
g60
(g81
g62
NtRp2136
(dp2137
g65
(dp2138
g85
g86
ssg74
g2132
sg67
(lp2139
S'vars'
p2140
asbag60
(g81
g62
NtRp2141
(dp2142
g65
(dp2143
g92
g93
ssg74
g2132
sg67
(lp2144
S':'
asbag60
(g81
g62
NtRp2145
(dp2146
g65
(dp2147
sg74
g2132
sg67
(lp2148
g60
(g61
g62
NtRp2149
(dp2150
g65
(dp2151
g73
I5
ssg74
g2145
sg67
(lp2152
g60
(g69
g62
NtRp2153
(dp2154
g65
(dp2155
g73
I4
ssg74
Nsg67
(lp2156
sbasbasbasbag60
(g76
g62
NtRp2157
(dp2158
g65
(dp2159
sg74
g70
sg67
(lp2160
g60
(g81
g62
NtRp2161
(dp2162
g65
(dp2163
g85
g86
ssg74
g2157
sg67
(lp2164
S'wsgi'
p2165
asbag60
(g81
g62
NtRp2166
(dp2167
g65
(dp2168
g92
g93
ssg74
g2157
sg67
(lp2169
S':'
asbag60
(g81
g62
NtRp2170
(dp2171
g65
(dp2172
sg74
g2157
sg67
(lp2173
g60
(g61
g62
NtRp2174
(dp2175
g65
(dp2176
g73
I5
ssg74
g2170
sg67
(lp2177
g60
(g69
g62
NtRp2178
(dp2179
g65
(dp2180
g73
I4
ssg74
Nsg67
(lp2181
g60
(g76
g62
NtRp2182
(dp2183
g65
(dp2184
sg74
g2178
sg67
(lp2185
g60
(g81
g62
NtRp2186
(dp2187
g65
(dp2188
g85
g86
ssg74
g2182
sg67
(lp2189
S'environ'
p2190
asbag60
(g81
g62
NtRp2191
(dp2192
g65
(dp2193
g92
g93
ssg74
g2182
sg67
(lp2194
S':'
asbag60
(g81
g62
NtRp2195
(dp2196
g65
(dp2197
sg74
g2182
sg67
(lp2198
g60
(g61
g62
NtRp2199
(dp2200
g65
(dp2201
g73
I4
ssg74
g2195
sg67
(lp2202
g60
(g69
g62
NtRp2203
(dp2204
g65
(dp2205
g73
I3
ssg74
Nsg67
(lp2206
g60
(g76
g62
NtRp2207
(dp2208
g65
(dp2209
sg74
g2203
sg67
(lp2210
g60
(g81
g62
NtRp2211
(dp2212
g65
(dp2213
g85
g86
ssg74
g2207
sg67
(lp2214
S'HTTP_ACCEPT'
p2215
asbag60
(g81
g62
NtRp2216
(dp2217
g65
(dp2218
g92
g93
ssg74
g2207
sg67
(lp2219
S':'
asbag60
(g81
g62
NtRp2220
(dp2221
g65
(dp2222
sg74
g2207
sg67
(lp2223
g60
(g61
g62
NtRp2224
(dp2225
g65
(dp2226
g73
I3
ssg74
g2220
sg67
(lp2227
g780
asbasbasbag60
(g76
g62
NtRp2228
(dp2229
g65
(dp2230
sg74
g2203
sg67
(lp2231
g60
(g81
g62
NtRp2232
(dp2233
g65
(dp2234
g85
g86
ssg74
g2228
sg67
(lp2235
S'HTTP_ACCEPT_CHARSET'
p2236
asbag60
(g81
g62
NtRp2237
(dp2238
g65
(dp2239
g92
g93
ssg74
g2228
sg67
(lp2240
S':'
asbag60
(g81
g62
NtRp2241
(dp2242
g65
(dp2243
sg74
g2228
sg67
(lp2244
g60
(g61
g62
NtRp2245
(dp2246
g65
(dp2247
g73
I3
ssg74
g2241
sg67
(lp2248
g802
asbasbasbag60
(g76
g62
NtRp2249
(dp2250
g65
(dp2251
sg74
g2203
sg67
(lp2252
g60
(g81
g62
NtRp2253
(dp2254
g65
(dp2255
g85
g86
ssg74
g2249
sg67
(lp2256
S'HTTP_ACCEPT_ENCODING'
p2257
asbag60
(g81
g62
NtRp2258
(dp2259
g65
(dp2260
g92
g93
ssg74
g2249
sg67
(lp2261
S':'
asbag60
(g81
g62
NtRp2262
(dp2263
g65
(dp2264
sg74
g2249
sg67
(lp2265
g60
(g61
g62
NtRp2266
(dp2267
g65
(dp2268
g73
I3
ssg74
g2262
sg67
(lp2269
g824
asbasbasbag60
(g76
g62
NtRp2270
(dp2271
g65
(dp2272
sg74
g2203
sg67
(lp2273
g60
(g81
g62
NtRp2274
(dp2275
g65
(dp2276
g85
g86
ssg74
g2270
sg67
(lp2277
S'HTTP_ACCEPT_LANGUAGE'
p2278
asbag60
(g81
g62
NtRp2279
(dp2280
g65
(dp2281
g92
g93
ssg74
g2270
sg67
(lp2282
S':'
asbag60
(g81
g62
NtRp2283
(dp2284
g65
(dp2285
sg74
g2270
sg67
(lp2286
g60
(g61
g62
NtRp2287
(dp2288
g65
(dp2289
g73
I3
ssg74
g2283
sg67
(lp2290
g846
asbasbasbag60
(g76
g62
NtRp2291
(dp2292
g65
(dp2293
sg74
g2203
sg67
(lp2294
g60
(g81
g62
NtRp2295
(dp2296
g65
(dp2297
g85
g86
ssg74
g2291
sg67
(lp2298
S'HTTP_CONNECTION'
p2299
asbag60
(g81
g62
NtRp2300
(dp2301
g65
(dp2302
g92
g93
ssg74
g2291
sg67
(lp2303
S':'
asbag60
(g81
g62
NtRp2304
(dp2305
g65
(dp2306
sg74
g2291
sg67
(lp2307
g60
(g61
g62
NtRp2308
(dp2309
g65
(dp2310
g73
I3
ssg74
g2304
sg67
(lp2311
g868
asbasbasbag60
(g76
g62
NtRp2312
(dp2313
g65
(dp2314
sg74
g2203
sg67
(lp2315
g60
(g81
g62
NtRp2316
(dp2317
g65
(dp2318
g85
g86
ssg74
g2312
sg67
(lp2319
S'HTTP_COOKIE'
p2320
asbag60
(g81
g62
NtRp2321
(dp2322
g65
(dp2323
g92
g93
ssg74
g2312
sg67
(lp2324
S':'
asbag60
(g81
g62
NtRp2325
(dp2326
g65
(dp2327
sg74
g2312
sg67
(lp2328
g60
(g61
g62
NtRp2329
(dp2330
g65
(dp2331
g73
I3
ssg74
g2325
sg67
(lp2332
g890
asbasbasbag60
(g76
g62
NtRp2333
(dp2334
g65
(dp2335
sg74
g2203
sg67
(lp2336
g60
(g81
g62
NtRp2337
(dp2338
g65
(dp2339
g85
g86
ssg74
g2333
sg67
(lp2340
S'HTTP_DNT'
p2341
asbag60
(g81
g62
NtRp2342
(dp2343
g65
(dp2344
g92
g93
ssg74
g2333
sg67
(lp2345
S':'
asbag60
(g81
g62
NtRp2346
(dp2347
g65
(dp2348
sg74
g2333
sg67
(lp2349
g60
(g61
g62
NtRp2350
(dp2351
g65
(dp2352
g73
I3
ssg74
g2346
sg67
(lp2353
S'1'
asbasbasbag60
(g76
g62
NtRp2354
(dp2355
g65
(dp2356
sg74
g2203
sg67
(lp2357
g60
(g81
g62
NtRp2358
(dp2359
g65
(dp2360
g85
g86
ssg74
g2354
sg67
(lp2361
S'HTTP_HOST'
p2362
asbag60
(g81
g62
NtRp2363
(dp2364
g65
(dp2365
g92
g93
ssg74
g2354
sg67
(lp2366
S':'
asbag60
(g81
g62
NtRp2367
(dp2368
g65
(dp2369
sg74
g2354
sg67
(lp2370
g60
(g61
g62
NtRp2371
(dp2372
g65
(dp2373
g73
I3
ssg74
g2367
sg67
(lp2374
g933
asbasbasbag60
(g76
g62
NtRp2375
(dp2376
g65
(dp2377
sg74
g2203
sg67
(lp2378
g60
(g81
g62
NtRp2379
(dp2380
g65
(dp2381
g85
g86
ssg74
g2375
sg67
(lp2382
S'HTTP_USER_AGENT'
p2383
asbag60
(g81
g62
NtRp2384
(dp2385
g65
(dp2386
g92
g93
ssg74
g2375
sg67
(lp2387
S':'
asbag60
(g81
g62
NtRp2388
(dp2389
g65
(dp2390
sg74
g2375
sg67
(lp2391
g60
(g61
g62
NtRp2392
(dp2393
g65
(dp2394
g73
I3
ssg74
g2388
sg67
(lp2395
g955
asbasbasbag60
(g76
g62
NtRp2396
(dp2397
g65
(dp2398
sg74
g2203
sg67
(lp2399
g60
(g81
g62
NtRp2400
(dp2401
g65
(dp2402
g85
g86
ssg74
g2396
sg67
(lp2403
S'PATH_INFO'
p2404
asbag60
(g81
g62
NtRp2405
(dp2406
g65
(dp2407
g92
g93
ssg74
g2396
sg67
(lp2408
S':'
asbag60
(g81
g62
NtRp2409
(dp2410
g65
(dp2411
sg74
g2396
sg67
(lp2412
g60
(g61
g62
NtRp2413
(dp2414
g65
(dp2415
g73
I3
ssg74
g2409
sg67
(lp2416
g1019
asbasbasbag60
(g76
g62
NtRp2417
(dp2418
g65
(dp2419
sg74
g2203
sg67
(lp2420
g60
(g81
g62
NtRp2421
(dp2422
g65
(dp2423
g85
g86
ssg74
g2417
sg67
(lp2424
S'QUERY_STRING'
p2425
asbag60
(g81
g62
NtRp2426
(dp2427
g65
(dp2428
g92
g93
ssg74
g2417
sg67
(lp2429
S':'
asbag60
(g81
g62
NtRp2430
(dp2431
g65
(dp2432
sg74
g2417
sg67
(lp2433
g60
(g61
g62
NtRp2434
(dp2435
g65
(dp2436
g73
I3
ssg74
g2430
sg67
(lp2437
S''
asbasbasbag60
(g76
g62
NtRp2438
(dp2439
g65
(dp2440
sg74
g2203
sg67
(lp2441
g60
(g81
g62
NtRp2442
(dp2443
g65
(dp2444
g85
g86
ssg74
g2438
sg67
(lp2445
S'REMOTE_ADDR'
p2446
asbag60
(g81
g62
NtRp2447
(dp2448
g65
(dp2449
g92
g93
ssg74
g2438
sg67
(lp2450
S':'
asbag60
(g81
g62
NtRp2451
(dp2452
g65
(dp2453
sg74
g2438
sg67
(lp2454
g60
(g61
g62
NtRp2455
(dp2456
g65
(dp2457
g73
I3
ssg74
g2451
sg67
(lp2458
g193
asbasbasbag60
(g76
g62
NtRp2459
(dp2460
g65
(dp2461
sg74
g2203
sg67
(lp2462
g60
(g81
g62
NtRp2463
(dp2464
g65
(dp2465
g85
g86
ssg74
g2459
sg67
(lp2466
S'REMOTE_PORT'
p2467
asbag60
(g81
g62
NtRp2468
(dp2469
g65
(dp2470
g92
g93
ssg74
g2459
sg67
(lp2471
S':'
asbag60
(g81
g62
NtRp2472
(dp2473
g65
(dp2474
sg74
g2459
sg67
(lp2475
g60
(g61
g62
NtRp2476
(dp2477
g65
(dp2478
g73
I3
ssg74
g2472
sg67
(lp2479
g1083
asbasbasbag60
(g76
g62
NtRp2480
(dp2481
g65
(dp2482
sg74
g2203
sg67
(lp2483
g60
(g81
g62
NtRp2484
(dp2485
g65
(dp2486
g85
g86
ssg74
g2480
sg67
(lp2487
S'REQUEST_METHOD'
p2488
asbag60
(g81
g62
NtRp2489
(dp2490
g65
(dp2491
g92
g93
ssg74
g2480
sg67
(lp2492
S':'
asbag60
(g81
g62
NtRp2493
(dp2494
g65
(dp2495
sg74
g2480
sg67
(lp2496
g60
(g61
g62
NtRp2497
(dp2498
g65
(dp2499
g73
I3
ssg74
g2493
sg67
(lp2500
g1105
asbasbasbag60
(g76
g62
NtRp2501
(dp2502
g65
(dp2503
sg74
g2203
sg67
(lp2504
g60
(g81
g62
NtRp2505
(dp2506
g65
(dp2507
g85
g86
ssg74
g2501
sg67
(lp2508
S'SCRIPT_NAME'
p2509
asbag60
(g81
g62
NtRp2510
(dp2511
g65
(dp2512
g92
g93
ssg74
g2501
sg67
(lp2513
S':'
asbag60
(g81
g62
NtRp2514
(dp2515
g65
(dp2516
sg74
g2501
sg67
(lp2517
g60
(g61
g62
NtRp2518
(dp2519
g65
(dp2520
g73
I3
ssg74
g2514
sg67
(lp2521
S''
asbasbasbag60
(g76
g62
NtRp2522
(dp2523
g65
(dp2524
sg74
g2203
sg67
(lp2525
g60
(g81
g62
NtRp2526
(dp2527
g65
(dp2528
g85
g86
ssg74
g2522
sg67
(lp2529
S'SERVER_NAME'
p2530
asbag60
(g81
g62
NtRp2531
(dp2532
g65
(dp2533
g92
g93
ssg74
g2522
sg67
(lp2534
S':'
asbag60
(g81
g62
NtRp2535
(dp2536
g65
(dp2537
sg74
g2522
sg67
(lp2538
g60
(g61
g62
NtRp2539
(dp2540
g65
(dp2541
g73
I3
ssg74
g2535
sg67
(lp2542
g1148
asbasbasbag60
(g76
g62
NtRp2543
(dp2544
g65
(dp2545
sg74
g2203
sg67
(lp2546
g60
(g81
g62
NtRp2547
(dp2548
g65
(dp2549
g85
g86
ssg74
g2543
sg67
(lp2550
S'SERVER_PORT'
p2551
asbag60
(g81
g62
NtRp2552
(dp2553
g65
(dp2554
g92
g93
ssg74
g2543
sg67
(lp2555
S':'
asbag60
(g81
g62
NtRp2556
(dp2557
g65
(dp2558
sg74
g2543
sg67
(lp2559
g60
(g61
g62
NtRp2560
(dp2561
g65
(dp2562
g73
I3
ssg74
g2556
sg67
(lp2563
g1170
asbasbasbag60
(g76
g62
NtRp2564
(dp2565
g65
(dp2566
sg74
g2203
sg67
(lp2567
g60
(g81
g62
NtRp2568
(dp2569
g65
(dp2570
g85
g86
ssg74
g2564
sg67
(lp2571
S'SERVER_PROTOCOL'
p2572
asbag60
(g81
g62
NtRp2573
(dp2574
g65
(dp2575
g92
g93
ssg74
g2564
sg67
(lp2576
S':'
asbag60
(g81
g62
NtRp2577
(dp2578
g65
(dp2579
sg74
g2564
sg67
(lp2580
g60
(g61
g62
NtRp2581
(dp2582
g65
(dp2583
g73
I3
ssg74
g2577
sg67
(lp2584
g1192
asbasbasbag60
(g76
g62
NtRp2585
(dp2586
g65
(dp2587
sg74
g2203
sg67
(lp2588
g60
(g81
g62
NtRp2589
(dp2590
g65
(dp2591
g85
g86
ssg74
g2585
sg67
(lp2592
S'SERVER_SOFTWARE'
p2593
asbag60
(g81
g62
NtRp2594
(dp2595
g65
(dp2596
g92
g93
ssg74
g2585
sg67
(lp2597
S':'
asbag60
(g81
g62
NtRp2598
(dp2599
g65
(dp2600
sg74
g2585
sg67
(lp2601
g60
(g61
g62
NtRp2602
(dp2603
g65
(dp2604
g73
I3
ssg74
g2598
sg67
(lp2605
g1214
asbasbasbag60
(g76
g62
NtRp2606
(dp2607
g65
(dp2608
sg74
g2203
sg67
(lp2609
g60
(g81
g62
NtRp2610
(dp2611
g65
(dp2612
g85
g86
ssg74
g2606
sg67
(lp2613
S'wsgi.errors'
p2614
asbag60
(g81
g62
NtRp2615
(dp2616
g65
(dp2617
g92
g93
ssg74
g2606
sg67
(lp2618
S':'
asbag60
(g81
g62
NtRp2619
(dp2620
g65
(dp2621
sg74
g2606
sg67
(lp2622
g60
(g61
g62
NtRp2623
(dp2624
g65
(dp2625
g73
I3
ssg74
g2619
sg67
(lp2626
S'<__main__.Stderr object at 0x006F6670>'
p2627
asbasbasbag60
(g76
g62
NtRp2628
(dp2629
g65
(dp2630
sg74
g2203
sg67
(lp2631
g60
(g81
g62
NtRp2632
(dp2633
g65
(dp2634
g85
g86
ssg74
g2628
sg67
(lp2635
S'wsgi.file_wrapper'
p2636
asbag60
(g81
g62
NtRp2637
(dp2638
g65
(dp2639
g92
g93
ssg74
g2628
sg67
(lp2640
S':'
asbag60
(g81
g62
NtRp2641
(dp2642
g65
(dp2643
sg74
g2628
sg67
(lp2644
g60
(g61
g62
NtRp2645
(dp2646
g65
(dp2647
g73
I3
ssg74
g2641
sg67
(lp2648
S'<class wsgiref.util.FileWrapper at 0x02E8DE10>'
p2649
asbasbasbag60
(g76
g62
NtRp2650
(dp2651
g65
(dp2652
sg74
g2203
sg67
(lp2653
g60
(g81
g62
NtRp2654
(dp2655
g65
(dp2656
g85
g86
ssg74
g2650
sg67
(lp2657
S'wsgi.input'
p2658
asbag60
(g81
g62
NtRp2659
(dp2660
g65
(dp2661
g92
g93
ssg74
g2650
sg67
(lp2662
S':'
asbag60
(g81
g62
NtRp2663
(dp2664
g65
(dp2665
sg74
g2650
sg67
(lp2666
g60
(g61
g62
NtRp2667
(dp2668
g65
(dp2669
g73
I3
ssg74
g2663
sg67
(lp2670
S'<cStringIO.StringO object at 0x05F6A560>'
p2671
asbasbasbag60
(g76
g62
NtRp2672
(dp2673
g65
(dp2674
sg74
g2203
sg67
(lp2675
g60
(g81
g62
NtRp2676
(dp2677
g65
(dp2678
g85
g86
ssg74
g2672
sg67
(lp2679
S'wsgi.multiprocess'
p2680
asbag60
(g81
g62
NtRp2681
(dp2682
g65
(dp2683
g92
g93
ssg74
g2672
sg67
(lp2684
S':'
asbag60
(g81
g62
NtRp2685
(dp2686
g65
(dp2687
sg74
g2672
sg67
(lp2688
g60
(g61
g62
NtRp2689
(dp2690
g65
(dp2691
g73
I3
ssg74
g2685
sg67
(lp2692
g103
asbasbasbag60
(g76
g62
NtRp2693
(dp2694
g65
(dp2695
sg74
g2203
sg67
(lp2696
g60
(g81
g62
NtRp2697
(dp2698
g65
(dp2699
g85
g86
ssg74
g2693
sg67
(lp2700
S'wsgi.multithread'
p2701
asbag60
(g81
g62
NtRp2702
(dp2703
g65
(dp2704
g92
g93
ssg74
g2693
sg67
(lp2705
S':'
asbag60
(g81
g62
NtRp2706
(dp2707
g65
(dp2708
sg74
g2693
sg67
(lp2709
g60
(g61
g62
NtRp2710
(dp2711
g65
(dp2712
g73
I3
ssg74
g2706
sg67
(lp2713
g1454
asbasbasbag60
(g76
g62
NtRp2714
(dp2715
g65
(dp2716
sg74
g2203
sg67
(lp2717
g60
(g81
g62
NtRp2718
(dp2719
g65
(dp2720
g85
g86
ssg74
g2714
sg67
(lp2721
S'wsgi.run_once'
p2722
asbag60
(g81
g62
NtRp2723
(dp2724
g65
(dp2725
g92
g93
ssg74
g2714
sg67
(lp2726
S':'
asbag60
(g81
g62
NtRp2727
(dp2728
g65
(dp2729
sg74
g2714
sg67
(lp2730
g60
(g61
g62
NtRp2731
(dp2732
g65
(dp2733
g73
I3
ssg74
g2727
sg67
(lp2734
g103
asbasbasbag60
(g76
g62
NtRp2735
(dp2736
g65
(dp2737
sg74
g2203
sg67
(lp2738
g60
(g81
g62
NtRp2739
(dp2740
g65
(dp2741
g85
g86
ssg74
g2735
sg67
(lp2742
S'wsgi.url_scheme'
p2743
asbag60
(g81
g62
NtRp2744
(dp2745
g65
(dp2746
g92
g93
ssg74
g2735
sg67
(lp2747
S':'
asbag60
(g81
g62
NtRp2748
(dp2749
g65
(dp2750
sg74
g2735
sg67
(lp2751
g60
(g61
g62
NtRp2752
(dp2753
g65
(dp2754
g73
I3
ssg74
g2748
sg67
(lp2755
g1497
asbasbasbag60
(g76
g62
NtRp2756
(dp2757
g65
(dp2758
sg74
g2203
sg67
(lp2759
g60
(g81
g62
NtRp2760
(dp2761
g65
(dp2762
g85
g86
ssg74
g2756
sg67
(lp2763
S'wsgi.version'
p2764
asbag60
(g81
g62
NtRp2765
(dp2766
g65
(dp2767
g92
g93
ssg74
g2756
sg67
(lp2768
S':'
asbag60
(g81
g62
NtRp2769
(dp2770
g65
(dp2771
sg74
g2756
sg67
(lp2772
g60
(g61
g62
NtRp2773
(dp2774
g65
(dp2775
g73
I3
ssg74
g2769
sg67
(lp2776
S'1'
asbasbasbasbasbasbasbasbasbasbasbasbasbsS'frames'
p2777
(lp2778
(dp2779
S'file'
p2780
S'C:\\web2py\\gluon\\restricted.py'
p2781
sS'dump'
p2782
(dp2783
sS'lnum'
p2784
I204
sS'lines'
p2785
(dp2786
sS'call'
p2787
S'(code="\\ndb = DAL(\'sqlite://storage.sqlite\')\\n\\nfrom gluon..._by\', db.auth_user, default=auth.user_id)\\n    )\\n\\n", environment={\'A\': <class \'gluon.html.A\'>, \'B\': <class \'gluon.html.B\'>, \'BEAUTIFY\': <class \'gluon.html.BEAUTIFY\'>, \'BODY\': <class \'gluon.html.BODY\'>, \'BR\': <class \'gluon.html.BR\'>, \'BUTTON\': <class \'gluon.html.BUTTON\'>, \'CAT\': <class \'gluon.html.CAT\'>, \'CENTER\': <class \'gluon.html.CENTER\'>, \'CLEANUP\': <class \'gluon.validators.CLEANUP\'>, \'CODE\': <class \'gluon.html.CODE\'>, ...}, layer=r\'C:\\web2py\\applications\\unioeste_code\\models\\db.py\')'
p2788
sS'func'
p2789
S'restricted'
p2790
sa(dp2791
g2780
S'C:\\web2py\\gluon\\restricted.py'
p2792
sg2782
(dp2793
sg2784
I189
sg2785
(dp2794
sg2787
S'(code="\\ndb = DAL(\'sqlite://storage.sqlite\')\\n\\nfrom gluon..._by\', db.auth_user, default=auth.user_id)\\n    )\\n\\n", layer=r\'C:\\web2py\\applications\\unioeste_code\\models\\db.py\')'
p2795
sg2789
S'compile2'
p2796
sasS'pyver'
p2797
S'Python 2.5.4: C:\\web2py\\web2py_no_console.exe'
p2798
sS'session'
p2799
g60
(g61
g62
NtRp2800
(dp2801
g65
(dp2802
sg67
(lp2803
g60
(g69
g62
NtRp2804
(dp2805
g65
(dp2806
g73
I5
ssg74
Nsg67
(lp2807
sbasbsS'etype'
p2808
S"<type 'exceptions.SyntaxError'>"
p2809
sS'date'
p2810
S'Sat Jul 28 14:58:01 2012'
p2811
sS'response'
p2812
g60
(g61
g62
NtRp2813
(dp2814
g65
(dp2815
sg67
(lp2816
g60
(g69
g62
NtRp2817
(dp2818
g65
(dp2819
g73
I5
ssg74
Nsg67
(lp2820
g60
(g76
g62
NtRp2821
(dp2822
g65
(dp2823
sg74
g2817
sg67
(lp2824
g60
(g81
g62
NtRp2825
(dp2826
g65
(dp2827
g85
g86
ssg74
g2821
sg67
(lp2828
g158
asbag60
(g81
g62
NtRp2829
(dp2830
g65
(dp2831
g92
g93
ssg74
g2821
sg67
(lp2832
S':'
asbag60
(g81
g62
NtRp2833
(dp2834
g65
(dp2835
sg74
g2821
sg67
(lp2836
g60
(g61
g62
NtRp2837
(dp2838
g65
(dp2839
g73
I5
ssg74
g2833
sg67
(lp2840
S'<cStringIO.StringO object at 0x03242540>'
p2841
asbasbasbag60
(g76
g62
NtRp2842
(dp2843
g65
(dp2844
sg74
g2817
sg67
(lp2845
g60
(g81
g62
NtRp2846
(dp2847
g65
(dp2848
g85
g86
ssg74
g2842
sg67
(lp2849
g224
asbag60
(g81
g62
NtRp2850
(dp2851
g65
(dp2852
g92
g93
ssg74
g2842
sg67
(lp2853
S':'
asbag60
(g81
g62
NtRp2854
(dp2855
g65
(dp2856
sg74
g2842
sg67
(lp2857
g60
(g61
g62
NtRp2858
(dp2859
g65
(dp2860
g73
I5
ssg74
g2854
sg67
(lp2861
g60
(g69
g62
NtRp2862
(dp2863
g65
(dp2864
g73
I4
ssg74
Nsg67
(lp2865
g60
(g76
g62
NtRp2866
(dp2867
g65
(dp2868
sg74
g2862
sg67
(lp2869
g60
(g81
g62
NtRp2870
(dp2871
g65
(dp2872
g85
g86
ssg74
g2866
sg67
(lp2873
S'session_id_unioeste_code'
p2874
asbag60
(g81
g62
NtRp2875
(dp2876
g65
(dp2877
g92
g93
ssg74
g2866
sg67
(lp2878
S':'
asbag60
(g81
g62
NtRp2879
(dp2880
g65
(dp2881
sg74
g2866
sg67
(lp2882
g60
(g61
g62
NtRp2883
(dp2884
g65
(dp2885
g73
I4
ssg74
g2879
sg67
(lp2886
g60
(g69
g62
NtRp2887
(dp2888
g65
(dp2889
g73
I3
ssg74
Nsg67
(lp2890
g60
(g76
g62
NtRp2891
(dp2892
g65
(dp2893
sg74
g2887
sg67
(lp2894
g60
(g81
g62
NtRp2895
(dp2896
g65
(dp2897
g85
g86
ssg74
g2891
sg67
(lp2898
g274
asbag60
(g81
g62
NtRp2899
(dp2900
g65
(dp2901
g92
g93
ssg74
g2891
sg67
(lp2902
S':'
asbag60
(g81
g62
NtRp2903
(dp2904
g65
(dp2905
sg74
g2891
sg67
(lp2906
g60
(g61
g62
NtRp2907
(dp2908
g65
(dp2909
g73
I3
ssg74
g2903
sg67
(lp2910
S''
asbasbasbag60
(g76
g62
NtRp2911
(dp2912
g65
(dp2913
sg74
g2887
sg67
(lp2914
g60
(g81
g62
NtRp2915
(dp2916
g65
(dp2917
g85
g86
ssg74
g2911
sg67
(lp2918
g295
asbag60
(g81
g62
NtRp2919
(dp2920
g65
(dp2921
g92
g93
ssg74
g2911
sg67
(lp2922
S':'
asbag60
(g81
g62
NtRp2923
(dp2924
g65
(dp2925
sg74
g2911
sg67
(lp2926
g60
(g61
g62
NtRp2927
(dp2928
g65
(dp2929
g73
I3
ssg74
g2923
sg67
(lp2930
S''
asbasbasbag60
(g76
g62
NtRp2931
(dp2932
g65
(dp2933
sg74
g2887
sg67
(lp2934
g60
(g81
g62
NtRp2935
(dp2936
g65
(dp2937
g85
g86
ssg74
g2931
sg67
(lp2938
g316
asbag60
(g81
g62
NtRp2939
(dp2940
g65
(dp2941
g92
g93
ssg74
g2931
sg67
(lp2942
S':'
asbag60
(g81
g62
NtRp2943
(dp2944
g65
(dp2945
sg74
g2931
sg67
(lp2946
g60
(g61
g62
NtRp2947
(dp2948
g65
(dp2949
g73
I3
ssg74
g2943
sg67
(lp2950
S''
asbasbasbag60
(g76
g62
NtRp2951
(dp2952
g65
(dp2953
sg74
g2887
sg67
(lp2954
g60
(g81
g62
NtRp2955
(dp2956
g65
(dp2957
g85
g86
ssg74
g2951
sg67
(lp2958
g337
asbag60
(g81
g62
NtRp2959
(dp2960
g65
(dp2961
g92
g93
ssg74
g2951
sg67
(lp2962
S':'
asbag60
(g81
g62
NtRp2963
(dp2964
g65
(dp2965
sg74
g2951
sg67
(lp2966
g60
(g61
g62
NtRp2967
(dp2968
g65
(dp2969
g73
I3
ssg74
g2963
sg67
(lp2970
S''
asbasbasbag60
(g76
g62
NtRp2971
(dp2972
g65
(dp2973
sg74
g2887
sg67
(lp2974
g60
(g81
g62
NtRp2975
(dp2976
g65
(dp2977
g85
g86
ssg74
g2971
sg67
(lp2978
g358
asbag60
(g81
g62
NtRp2979
(dp2980
g65
(dp2981
g92
g93
ssg74
g2971
sg67
(lp2982
S':'
asbag60
(g81
g62
NtRp2983
(dp2984
g65
(dp2985
sg74
g2971
sg67
(lp2986
g60
(g61
g62
NtRp2987
(dp2988
g65
(dp2989
g73
I3
ssg74
g2983
sg67
(lp2990
S'/'
asbasbasbag60
(g76
g62
NtRp2991
(dp2992
g65
(dp2993
sg74
g2887
sg67
(lp2994
g60
(g81
g62
NtRp2995
(dp2996
g65
(dp2997
g85
g86
ssg74
g2991
sg67
(lp2998
g379
asbag60
(g81
g62
NtRp2999
(dp3000
g65
(dp3001
g92
g93
ssg74
g2991
sg67
(lp3002
S':'
asbag60
(g81
g62
NtRp3003
(dp3004
g65
(dp3005
sg74
g2991
sg67
(lp3006
g60
(g61
g62
NtRp3007
(dp3008
g65
(dp3009
g73
I3
ssg74
g3003
sg67
(lp3010
S''
asbasbasbag60
(g76
g62
NtRp3011
(dp3012
g65
(dp3013
sg74
g2887
sg67
(lp3014
g60
(g81
g62
NtRp3015
(dp3016
g65
(dp3017
g85
g86
ssg74
g3011
sg67
(lp3018
g400
asbag60
(g81
g62
NtRp3019
(dp3020
g65
(dp3021
g92
g93
ssg74
g3011
sg67
(lp3022
S':'
asbag60
(g81
g62
NtRp3023
(dp3024
g65
(dp3025
sg74
g3011
sg67
(lp3026
g60
(g61
g62
NtRp3027
(dp3028
g65
(dp3029
g73
I3
ssg74
g3023
sg67
(lp3030
S''
asbasbasbasbasbasbasbasbasbasbasbag60
(g76
g62
NtRp3031
(dp3032
g65
(dp3033
sg74
g2817
sg67
(lp3034
g60
(g81
g62
NtRp3035
(dp3036
g65
(dp3037
g85
g86
ssg74
g3031
sg67
(lp3038
S'delimiters'
p3039
asbag60
(g81
g62
NtRp3040
(dp3041
g65
(dp3042
g92
g93
ssg74
g3031
sg67
(lp3043
S':'
asbag60
(g81
g62
NtRp3044
(dp3045
g65
(dp3046
sg74
g3031
sg67
(lp3047
g60
(g61
g62
NtRp3048
(dp3049
g65
(dp3050
g73
I5
ssg74
g3044
sg67
(lp3051
g60
(g69
g62
NtRp3052
(dp3053
g65
(dp3054
g73
I4
ssg74
Nsg67
(lp3055
g60
(g76
g62
NtRp3056
(dp3057
g65
(dp3058
sg74
g3052
sg67
(lp3059
g60
(g81
g62
NtRp3060
(dp3061
g65
(dp3062
sg74
g3056
sg67
(lp3063
g60
(g61
g62
NtRp3064
(dp3065
g65
(dp3066
g73
I4
ssg74
g3060
sg67
(lp3067
S'{{'
p3068
asbasbasbag60
(g76
g62
NtRp3069
(dp3070
g65
(dp3071
sg74
g3052
sg67
(lp3072
g60
(g81
g62
NtRp3073
(dp3074
g65
(dp3075
sg74
g3069
sg67
(lp3076
g60
(g61
g62
NtRp3077
(dp3078
g65
(dp3079
g73
I4
ssg74
g3073
sg67
(lp3080
S'}}'
p3081
asbasbasbasbasbasbasbag60
(g76
g62
NtRp3082
(dp3083
g65
(dp3084
sg74
g2817
sg67
(lp3085
g60
(g81
g62
NtRp3086
(dp3087
g65
(dp3088
g85
g86
ssg74
g3082
sg67
(lp3089
S'files'
p3090
asbag60
(g81
g62
NtRp3091
(dp3092
g65
(dp3093
g92
g93
ssg74
g3082
sg67
(lp3094
S':'
asbag60
(g81
g62
NtRp3095
(dp3096
g65
(dp3097
sg74
g3082
sg67
(lp3098
g60
(g61
g62
NtRp3099
(dp3100
g65
(dp3101
g73
I5
ssg74
g3095
sg67
(lp3102
g60
(g69
g62
NtRp3103
(dp3104
g65
(dp3105
g73
I4
ssg74
Nsg67
(lp3106
sbasbasbasbag60
(g76
g62
NtRp3107
(dp3108
g65
(dp3109
sg74
g2817
sg67
(lp3110
g60
(g81
g62
NtRp3111
(dp3112
g65
(dp3113
g85
g86
ssg74
g3107
sg67
(lp3114
S'flash'
p3115
asbag60
(g81
g62
NtRp3116
(dp3117
g65
(dp3118
g92
g93
ssg74
g3107
sg67
(lp3119
S':'
asbag60
(g81
g62
NtRp3120
(dp3121
g65
(dp3122
sg74
g3107
sg67
(lp3123
g60
(g61
g62
NtRp3124
(dp3125
g65
(dp3126
g73
I5
ssg74
g3120
sg67
(lp3127
S''
asbasbasbag60
(g76
g62
NtRp3128
(dp3129
g65
(dp3130
sg74
g2817
sg67
(lp3131
g60
(g81
g62
NtRp3132
(dp3133
g65
(dp3134
g85
g86
ssg74
g3128
sg67
(lp3135
S'generic_patterns'
p3136
asbag60
(g81
g62
NtRp3137
(dp3138
g65
(dp3139
g92
g93
ssg74
g3128
sg67
(lp3140
S':'
asbag60
(g81
g62
NtRp3141
(dp3142
g65
(dp3143
sg74
g3128
sg67
(lp3144
g60
(g61
g62
NtRp3145
(dp3146
g65
(dp3147
g73
I5
ssg74
g3141
sg67
(lp3148
g60
(g69
g62
NtRp3149
(dp3150
g65
(dp3151
g73
I4
ssg74
Nsg67
(lp3152
sbasbasbasbag60
(g76
g62
NtRp3153
(dp3154
g65
(dp3155
sg74
g2817
sg67
(lp3156
g60
(g81
g62
NtRp3157
(dp3158
g65
(dp3159
g85
g86
ssg74
g3153
sg67
(lp3160
S'headers'
p3161
asbag60
(g81
g62
NtRp3162
(dp3163
g65
(dp3164
g92
g93
ssg74
g3153
sg67
(lp3165
S':'
asbag60
(g81
g62
NtRp3166
(dp3167
g65
(dp3168
sg74
g3153
sg67
(lp3169
g60
(g61
g62
NtRp3170
(dp3171
g65
(dp3172
g73
I5
ssg74
g3166
sg67
(lp3173
g60
(g69
g62
NtRp3174
(dp3175
g65
(dp3176
g73
I4
ssg74
Nsg67
(lp3177
g60
(g76
g62
NtRp3178
(dp3179
g65
(dp3180
sg74
g3174
sg67
(lp3181
g60
(g81
g62
NtRp3182
(dp3183
g65
(dp3184
g85
g86
ssg74
g3178
sg67
(lp3185
S'Cache-Control'
p3186
asbag60
(g81
g62
NtRp3187
(dp3188
g65
(dp3189
g92
g93
ssg74
g3178
sg67
(lp3190
S':'
asbag60
(g81
g62
NtRp3191
(dp3192
g65
(dp3193
sg74
g3178
sg67
(lp3194
g60
(g61
g62
NtRp3195
(dp3196
g65
(dp3197
g73
I4
ssg74
g3191
sg67
(lp3198
S'no-store, no-cache, must-revalidate, post-check=0, pre-check=0'
p3199
asbasbasbag60
(g76
g62
NtRp3200
(dp3201
g65
(dp3202
sg74
g3174
sg67
(lp3203
g60
(g81
g62
NtRp3204
(dp3205
g65
(dp3206
g85
g86
ssg74
g3200
sg67
(lp3207
S'Content-Type'
p3208
asbag60
(g81
g62
NtRp3209
(dp3210
g65
(dp3211
g92
g93
ssg74
g3200
sg67
(lp3212
S':'
asbag60
(g81
g62
NtRp3213
(dp3214
g65
(dp3215
sg74
g3200
sg67
(lp3216
g60
(g61
g62
NtRp3217
(dp3218
g65
(dp3219
g73
I4
ssg74
g3213
sg67
(lp3220
S'text/html; charset=utf-8'
p3221
asbasbasbag60
(g76
g62
NtRp3222
(dp3223
g65
(dp3224
sg74
g3174
sg67
(lp3225
g60
(g81
g62
NtRp3226
(dp3227
g65
(dp3228
g85
g86
ssg74
g3222
sg67
(lp3229
S'Expires'
p3230
asbag60
(g81
g62
NtRp3231
(dp3232
g65
(dp3233
g92
g93
ssg74
g3222
sg67
(lp3234
S':'
asbag60
(g81
g62
NtRp3235
(dp3236
g65
(dp3237
sg74
g3222
sg67
(lp3238
g60
(g61
g62
NtRp3239
(dp3240
g65
(dp3241
g73
I4
ssg74
g3235
sg67
(lp3242
S'Sat, 28 Jul 2012 17:58:01 GMT'
p3243
asbasbasbag60
(g76
g62
NtRp3244
(dp3245
g65
(dp3246
sg74
g3174
sg67
(lp3247
g60
(g81
g62
NtRp3248
(dp3249
g65
(dp3250
g85
g86
ssg74
g3244
sg67
(lp3251
S'Pragma'
p3252
asbag60
(g81
g62
NtRp3253
(dp3254
g65
(dp3255
g92
g93
ssg74
g3244
sg67
(lp3256
S':'
asbag60
(g81
g62
NtRp3257
(dp3258
g65
(dp3259
sg74
g3244
sg67
(lp3260
g60
(g61
g62
NtRp3261
(dp3262
g65
(dp3263
g73
I4
ssg74
g3257
sg67
(lp3264
S'no-cache'
p3265
asbasbasbag60
(g76
g62
NtRp3266
(dp3267
g65
(dp3268
sg74
g3174
sg67
(lp3269
g60
(g81
g62
NtRp3270
(dp3271
g65
(dp3272
g85
g86
ssg74
g3266
sg67
(lp3273
S'X-Powered-By'
p3274
asbag60
(g81
g62
NtRp3275
(dp3276
g65
(dp3277
g92
g93
ssg74
g3266
sg67
(lp3278
S':'
asbag60
(g81
g62
NtRp3279
(dp3280
g65
(dp3281
sg74
g3266
sg67
(lp3282
g60
(g61
g62
NtRp3283
(dp3284
g65
(dp3285
g73
I4
ssg74
g3279
sg67
(lp3286
S'web2py'
p3287
asbasbasbasbasbasbasbag60
(g76
g62
NtRp3288
(dp3289
g65
(dp3290
sg74
g2817
sg67
(lp3291
g60
(g81
g62
NtRp3292
(dp3293
g65
(dp3294
g85
g86
ssg74
g3288
sg67
(lp3295
S'menu'
p3296
asbag60
(g81
g62
NtRp3297
(dp3298
g65
(dp3299
g92
g93
ssg74
g3288
sg67
(lp3300
S':'
asbag60
(g81
g62
NtRp3301
(dp3302
g65
(dp3303
sg74
g3288
sg67
(lp3304
g60
(g61
g62
NtRp3305
(dp3306
g65
(dp3307
g73
I5
ssg74
g3301
sg67
(lp3308
g60
(g69
g62
NtRp3309
(dp3310
g65
(dp3311
g73
I4
ssg74
Nsg67
(lp3312
sbasbasbasbag60
(g76
g62
NtRp3313
(dp3314
g65
(dp3315
sg74
g2817
sg67
(lp3316
g60
(g81
g62
NtRp3317
(dp3318
g65
(dp3319
g85
g86
ssg74
g3313
sg67
(lp3320
S'meta'
p3321
asbag60
(g81
g62
NtRp3322
(dp3323
g65
(dp3324
g92
g93
ssg74
g3313
sg67
(lp3325
S':'
asbag60
(g81
g62
NtRp3326
(dp3327
g65
(dp3328
sg74
g3313
sg67
(lp3329
g60
(g61
g62
NtRp3330
(dp3331
g65
(dp3332
g73
I5
ssg74
g3326
sg67
(lp3333
g60
(g69
g62
NtRp3334
(dp3335
g65
(dp3336
g73
I4
ssg74
Nsg67
(lp3337
sbasbasbasbag60
(g76
g62
NtRp3338
(dp3339
g65
(dp3340
sg74
g2817
sg67
(lp3341
g60
(g81
g62
NtRp3342
(dp3343
g65
(dp3344
g85
g86
ssg74
g3338
sg67
(lp3345
S'postprocessing'
p3346
asbag60
(g81
g62
NtRp3347
(dp3348
g65
(dp3349
g92
g93
ssg74
g3338
sg67
(lp3350
S':'
asbag60
(g81
g62
NtRp3351
(dp3352
g65
(dp3353
sg74
g3338
sg67
(lp3354
g60
(g61
g62
NtRp3355
(dp3356
g65
(dp3357
g73
I5
ssg74
g3351
sg67
(lp3358
g60
(g69
g62
NtRp3359
(dp3360
g65
(dp3361
g73
I4
ssg74
Nsg67
(lp3362
sbasbasbasbag60
(g76
g62
NtRp3363
(dp3364
g65
(dp3365
sg74
g2817
sg67
(lp3366
g60
(g81
g62
NtRp3367
(dp3368
g65
(dp3369
g85
g86
ssg74
g3363
sg67
(lp3370
S'session_filename'
p3371
asbag60
(g81
g62
NtRp3372
(dp3373
g65
(dp3374
g92
g93
ssg74
g3363
sg67
(lp3375
S':'
asbag60
(g81
g62
NtRp3376
(dp3377
g65
(dp3378
sg74
g3363
sg67
(lp3379
g60
(g61
g62
NtRp3380
(dp3381
g65
(dp3382
g73
I5
ssg74
g3376
sg67
(lp3383
S'C:\\web2py\\applications\\unioeste_code\\sessions\\127.0.0.1-766f33d9-5c83-4dae-9d56-ad6abf99f298'
p3384
asbasbasbag60
(g76
g62
NtRp3385
(dp3386
g65
(dp3387
sg74
g2817
sg67
(lp3388
g60
(g81
g62
NtRp3389
(dp3390
g65
(dp3391
g85
g86
ssg74
g3385
sg67
(lp3392
S'session_id'
p3393
asbag60
(g81
g62
NtRp3394
(dp3395
g65
(dp3396
g92
g93
ssg74
g3385
sg67
(lp3397
S':'
asbag60
(g81
g62
NtRp3398
(dp3399
g65
(dp3400
sg74
g3385
sg67
(lp3401
g60
(g61
g62
NtRp3402
(dp3403
g65
(dp3404
g73
I5
ssg74
g3398
sg67
(lp3405
S'127.0.0.1-766f33d9-5c83-4dae-9d56-ad6abf99f298'
p3406
asbasbasbag60
(g76
g62
NtRp3407
(dp3408
g65
(dp3409
sg74
g2817
sg67
(lp3410
g60
(g81
g62
NtRp3411
(dp3412
g65
(dp3413
g85
g86
ssg74
g3407
sg67
(lp3414
S'session_id_name'
p3415
asbag60
(g81
g62
NtRp3416
(dp3417
g65
(dp3418
g92
g93
ssg74
g3407
sg67
(lp3419
S':'
asbag60
(g81
g62
NtRp3420
(dp3421
g65
(dp3422
sg74
g3407
sg67
(lp3423
g60
(g61
g62
NtRp3424
(dp3425
g65
(dp3426
g73
I5
ssg74
g3420
sg67
(lp3427
g2874
asbasbasbag60
(g76
g62
NtRp3428
(dp3429
g65
(dp3430
sg74
g2817
sg67
(lp3431
g60
(g81
g62
NtRp3432
(dp3433
g65
(dp3434
g85
g86
ssg74
g3428
sg67
(lp3435
S'session_new'
p3436
asbag60
(g81
g62
NtRp3437
(dp3438
g65
(dp3439
g92
g93
ssg74
g3428
sg67
(lp3440
S':'
asbag60
(g81
g62
NtRp3441
(dp3442
g65
(dp3443
sg74
g3428
sg67
(lp3444
g60
(g61
g62
NtRp3445
(dp3446
g65
(dp3447
g73
I5
ssg74
g3441
sg67
(lp3448
g1454
asbasbasbag60
(g76
g62
NtRp3449
(dp3450
g65
(dp3451
sg74
g2817
sg67
(lp3452
g60
(g81
g62
NtRp3453
(dp3454
g65
(dp3455
g85
g86
ssg74
g3449
sg67
(lp3456
S'status'
p3457
asbag60
(g81
g62
NtRp3458
(dp3459
g65
(dp3460
g92
g93
ssg74
g3449
sg67
(lp3461
S':'
asbag60
(g81
g62
NtRp3462
(dp3463
g65
(dp3464
sg74
g3449
sg67
(lp3465
g60
(g61
g62
NtRp3466
(dp3467
g65
(dp3468
g73
I5
ssg74
g3462
sg67
(lp3469
S'200'
p3470
asbasbasbag60
(g76
g62
NtRp3471
(dp3472
g65
(dp3473
sg74
g2817
sg67
(lp3474
g60
(g81
g62
NtRp3475
(dp3476
g65
(dp3477
g85
g86
ssg74
g3471
sg67
(lp3478
g2118
asbag60
(g81
g62
NtRp3479
(dp3480
g65
(dp3481
g92
g93
ssg74
g3471
sg67
(lp3482
S':'
asbag60
(g81
g62
NtRp3483
(dp3484
g65
(dp3485
sg74
g3471
sg67
(lp3486
g60
(g61
g62
NtRp3487
(dp3488
g65
(dp3489
g73
I5
ssg74
g3483
sg67
(lp3490
g2131
asbasbasbag60
(g76
g62
NtRp3491
(dp3492
g65
(dp3493
sg74
g2817
sg67
(lp3494
g60
(g81
g62
NtRp3495
(dp3496
g65
(dp3497
g85
g86
ssg74
g3491
sg67
(lp3498
S'view'
p3499
asbag60
(g81
g62
NtRp3500
(dp3501
g65
(dp3502
g92
g93
ssg74
g3491
sg67
(lp3503
S':'
asbag60
(g81
g62
NtRp3504
(dp3505
g65
(dp3506
sg74
g3491
sg67
(lp3507
g60
(g61
g62
NtRp3508
(dp3509
g65
(dp3510
g73
I5
ssg74
g3504
sg67
(lp3511
S'appadmin/index.html'
p3512
asbasbasbasbasbsS'locals'
p3513
(dp3514
g4
S"r'C:\\web2py\\applications\\unioeste_code\\models\\db.py'"
p3515
sg6
S'"\\ndb = DAL(\'sqlite://storage.sqlite\')\\n\\nfrom gluon..._by\', db.auth_user, default=auth.user_id)\\n    )\\n\\n"'
p3516
sssS'traceback'
p3517
S'Traceback (most recent call last):\n  File "gluon/restricted.py", line 204, in restricted\n  File "gluon/restricted.py", line 189, in compile2\n  File "C:\\web2py\\applications\\unioeste_code\\models\\db.py", line 28\n    Field(\'created_by\', db.auth_user, default=auth.user_id)\n        ^\nSyntaxError: invalid syntax\n'
p3518
s.