(dp1
S'output'
p2
S"<type 'exceptions.NameError'> name 'Object' is not defined"
p3
sS'layer'
p4
S'C:\\web2py\\applications\\unioeste_code\\views\\default/index.html'
p5
sS'code'
p6
S'response.write(\'<!DOCTYPE html>\\n<!-- paulirish.com/2008/conditional-stylesheets-vs-css-hacks-answer-neither/ -->\\n<!--[if lt IE 7]><html class="ie ie6 ie-lte9 ie-lte8 ie-lte7 no-js" lang="\', escape=False)\nresponse.write(T.accepted_language or \'en\')\nresponse.write(\'"> <![endif]-->\\n<!--[if IE 7]><html class="ie ie7 ie-lte9 ie-lte8 ie-lte7 no-js" lang="\', escape=False)\nresponse.write(T.accepted_language or \'en\')\nresponse.write(\'"> <![endif]-->\\n<!--[if IE 8]><html class="ie ie8 ie-lte9 ie-lte8 no-js" lang="\', escape=False)\nresponse.write(T.accepted_language or \'en\')\nresponse.write(\'"> <![endif]-->\\n<!--[if IE 9]><html class="ie9 ie-lte9 no-js" lang="\', escape=False)\nresponse.write(T.accepted_language or \'en\')\nresponse.write(\'"> <![endif]-->\\n<!--[if (gt IE 9)|!(IE)]><!--> <html class="no-js" lang="\', escape=False)\nresponse.write(T.accepted_language or \'en\')\nresponse.write(\'"> <!--<![endif]-->\\n<head>\\n  <meta charset="utf-8" />\\n  <!-- www.phpied.com/conditional-comments-block-downloads/ -->\\n  <!-- Always force latest IE rendering engine\\n\\t   (even in intranet) & Chrome Frame\\n\\t   Remove this if you use the .htaccess -->\\n  <!--[if IE]>\\n    <meta http-equiv="X-UA-Compatible" content="IE=edge\', escape=False)\nresponse.write(not request.is_local and \',chrome=1\' or \'\')\nresponse.write(\'">\\n  <![endif]-->\\n  \\n  <title>\', escape=False)\nresponse.write(response.title or request.application)\nresponse.write(\'</title>\\n  \\n  <!-- http://dev.w3.org/html5/markup/meta.name.html -->\\n  <meta name="application-name" content="\', escape=False)\nresponse.write(request.application)\nresponse.write(\'" />\\n  \\n  <!-- Speaking of Google, don\\\'t forget to set your site up:\\n\\t   http://google.com/webmasters -->\\n  <meta name="google-site-verification" content="" />\\n\\n  <!--  Mobile Viewport Fix\\n\\t  j.mp/mobileviewport & davidbcalhoun.com/2010/viewport-metatag\\n\\t  device-width: Occupy full width of the screen in its current orientation\\n\\t  initial-scale = 1.0 retains dimensions instead of zooming out if page height > device height\\n\\t  user-scalable = yes allows the user to zoom in -->\\n  <meta name="viewport" content="width=device-width, initial-scale=1.0, user-scalable=yes">\\n  \\n  <!-- Place favicon.ico and apple-touch-icon.png in the root of your domain and delete these references -->\\n  <link rel="shortcut icon" href="\', escape=False)\nresponse.write(URL(\'static\',\'favicon.ico\'))\nresponse.write(\'" type="image/x-icon">\\n  <link rel="apple-touch-icon" href="\', escape=False)\nresponse.write(URL(\'static\',\'favicon.png\'))\nresponse.write(\'">\\n\\n  <!-- All JavaScript at the bottom, except for Modernizr which enables \\n\\t   HTML5 elements & feature detects -->\\n  <script src="\', escape=False)\nresponse.write(URL(\'static\',\'js/modernizr.custom.js\'))\nresponse.write(\'"></script>  \\n\\n  <!-- include stylesheets -->\\n  \', escape=False)\nresponse.files.append(URL(\'static\',\'css/skeleton.css\'))\nresponse.files.append(URL(\'static\',\'css/web2py.css\'))\nif response.menu:\n    response.files.append(URL(\'static\',\'css/superfish.css\'))\n    response.files.append(URL(\'static\',\'js/superfish.js\'))\n    pass\nresponse.write(\'\\n\\n  \', escape=False)\nresponse.write(\'<script type="text/javascript"><!--\\n    // These variables are used by the web2py_ajax_init function in web2py_ajax.js (which is loaded below).\\n    var w2p_ajax_confirm_message = "\', escape=False)\nresponse.write(T(\'Are you sure you want to delete this object?\'))\nresponse.write(\'";\\n    var w2p_ajax_date_format = "\', escape=False)\nresponse.write(T(\'%Y-%m-%d\'))\nresponse.write(\'";\\n    var w2p_ajax_datetime_format = "\', escape=False)\nresponse.write(T(\'%Y-%m-%d %H:%M:%S\'))\nresponse.write(\'";\\n    //--></script>\\n\', escape=False)\nresponse.files.insert(0,URL(\'static\',\'js/jquery.js\'))\nresponse.files.insert(1,URL(\'static\',\'css/calendar.css\'))\nresponse.files.insert(2,URL(\'static\',\'js/calendar.js\'))\nresponse.files.insert(3,URL(\'static\',\'js/web2py.js\'))\nresponse.include_meta()\nresponse.include_files()\nresponse.write(\'\\n\', escape=False)\nresponse.write(\'\\n\\n  \', escape=False)\nif response.menu:\n    response.write(\'\\n  <script type="text/javascript">\\n    jQuery(function(){ jQuery(\\\'ul.sf-menu\\\').supersubs({minWidth:12,maxWidth:30,extraWidth:3}).superfish(); });\\n  </script>\\n  \', escape=False)\n    pass\nresponse.write(\'\\n\\n  \', escape=False)\n# using sidebars need to know what sidebar you want to use\nleft_sidebar_enabled = globals().get(\'left_sidebar_enabled\',False)\nright_sidebar_enabled = globals().get(\'right_sidebar_enabled\',False)\nmiddle_columns = {0:\'sixteen\',1:\'twelve\',2:\'eight\'}[\n(left_sidebar_enabled and 1 or 0)+(right_sidebar_enabled and 1 or 0)]\nresponse.write(\'\\n\\n  <!-- uncomment here to load jquery-ui\\n  <link rel="stylesheet" href="http://ajax.googleapis.com/ajax/libs/jqueryui/1.8.16/themes/base/jquery-ui.css" type="text/css" media="all" />\\n  <script src="http://ajax.googleapis.com/ajax/libs/jqueryui/1.8.16/jquery-ui.min.js" type="text/javascript"></script>\\n  uncomment to load jquery-ui //-->\\n</head>\\n<body>\\n  <div class="wrapper"><!-- for sticky footer -->\\n  \\n    <div class="topbar">\\n      <div class="container">    \\n        <div class="sixteen columns">\\n          <div id="navbar">\', escape=False)\nresponse.write(\'auth\' in globals() and auth.navbar(separators=(\' \',\' | \',\'\')))\nresponse.write(\'</div>\\n          \', escape=False)\nis_mobile=request.user_agent().is_mobile\nresponse.write(\'\\n\\t  \', escape=False)\nif response.menu:\n    response.write(\'\\n          <div id="menu">\\n             \', escape=False)\n    response.write(MENU(response.menu, _class=\'mobile-menu\' if is_mobile else \'sf-menu\',mobile=is_mobile))\n    response.write(\'\\n          </div>\\n          \', escape=False)\n    pass\nresponse.write(\'\\n        </div>\\n      </div>\\n    </div><!-- topbar -->\\n    \\n    <div class="flash">\', escape=False)\nresponse.write(response.flash or \'\')\nresponse.write(\'</div>\\n    \\n    <div class="header">\\n      <div class="container">         \\n        <div class="sixteen columns">\\n          <img src="\', escape=False)\nresponse.write(URL(\'static\',\'images/logo-code.png\'))\nresponse.write(\'" class="remove-bottom" style="margin-top: .5em;" />\\n          <!-- H5 subtitle-->\\n        </div>\\n        <div class="sixteen columns">\\n          <div style="border: 1px solid #000000; ">\\n            <div style="float:right; padding-top: .25em;" class="a2a_kit a2a_default_style">\\n            <a class="a2a_dd" href="http://www.addtoany.com/share_save">Share</a></div>\\n            <script type="text/javascript" src="http://static.addtoany.com/menu/page.js"></script>\\n          </div>\\n        </div>\\n      </div>\\n    </div>\\n\\n    <div class="main">\\n      <div class="container">                 \\n        \', escape=False)\nif left_sidebar_enabled:\n    response.write(\'\\n        <div class="four columns left-sidebar">\\n          \', escape=False)\n    response.write(\'\\n          <h3>Left Sidebar</h3>\\n          <p></p>\\n          \', escape=False)\n    response.write(\'\\n        </div>\\n        \', escape=False)\n    pass\nresponse.write(\'\\n        \\n        <div class="\', escape=False)\nresponse.write(middle_columns)\nresponse.write(\' columns center">\\n          \', escape=False)\nresponse.write(\'\\n          \', escape=False)\nresponse.write(\'\\n\\n\\n\', escape=False)\nresponse.write(H1(T("Current Problems")))\nresponse.write(\'\\n<ul>\\n\', escape=False)\nfor problem in problems:\n    response.write(\'\\n\', escape=False)\n    user = db(db.auth_user.id==problem.created_by).select().first()\n    response.write(\'\\n\', escape=False)\n    response.write(LI(A(problem.title, _style="font-weight:bold;",_href=URL("Problem", args=problem.id)), " by " + user.first_name + " " + user.last_name + " ", SPAN(prettydate(problem.created_on), _style="color:green;font-weight:bold;")))\n    response.write(\'\\n\', escape=False)\n    pass\nresponse.write(\'\\n\\n\\n\', escape=False)\nfrom pyGravatar import Gravatar\nresponse.write(\'\\n\', escape=False)\nIMG(_src=Gravatar(auth.user.email).thumb())\nresponse.write(\'\\n\\n\\n</ul>\\n\\n\', escape=False)\nresponse.write(\'\\n          \', escape=False)\nresponse.write(\'\\n        </div>\\n        \\n        \', escape=False)\nif right_sidebar_enabled:\n    response.write(\'\\n        <div class="four columns">\\n          \', escape=False)\n    response.write(\'\\n          <h3>Right Sidebar</h3>\\n          <p></p>\\n          \', escape=False)\n    response.write(\'\\n        </div>    \\n        \', escape=False)\n    pass\nresponse.write(\'\\n        \\n      </div><!-- container -->\\n    </div><!-- main -->\\n    \\n    <div class="push"></div>\\n  </div><!-- wrapper -->\\n\\n  <div class="footer">\\n    <div class="container">    \\n      <div class="sixteen columns">\\n        \', escape=False)\nresponse.write(\' <!-- this is default footer -->\\n        <div class="footer-content clearfix">\\n            <div style="float: left;">\\n            <a href="https://developers.google.com//"> \\n            <img style="padding-left: 8em; padding-bottom:1em; " src="https://developers.google.com/appengine/images/appengine-noborder-120x30.gif" alt="Powered by Google App Engine"/>\\n            </a>\\n          </div>\\n          <div class="footer-content clearfix">\\n            <div style="float: left;   ">\\n            <a href="http://www.python.org/"> \\n            <img style="" src="http://www.python.org/community/logos/python-powered-w-70x28.png" alt="Powered by Python"/>\\n            </a>\\n          </div>\\n          <div style="padding-left: 19.5em; padding-top: 0.25em;">\\n            <a href="http://www.web2py.com/">\\n            <img style="" src="\', escape=False)\nresponse.write(URL(\'static\',\'images/poweredby.png\'))\nresponse.write(\'"/>\\n            </a>\\n          </div>\\n        </div>\\n        \', escape=False)\nresponse.write(\'\\t\\n      </div>\\n    </div><!-- container -->\\n  </div><!-- footer -->\\n  \\n  <!--[if lt IE 7 ]>\\n\\t<script src="\', escape=False)\nresponse.write(URL(\'static\',\'js/dd_belatedpng.js\'))\nresponse.write(\'"></script>\\n\\t<script> DD_belatedPNG.fix(\\\'img, .png_bg\\\'); //fix any <img> or .png_bg background-images </script>\\n\\t<![endif]-->\\n  \', escape=False)\nif response.google_analytics_id:\n    response.write(\'<script type="text/javascript"> var _gaq = _gaq || []; _gaq.push([\\\'_setAccount\\\', \\\'\', escape=False)\n    response.write(response.google_analytics_id)\n    response.write("\']); _gaq.push([\'_trackPageview\']); (function() { var ga = document.createElement(\'script\'); ga.type = \'text/javascript\'; ga.async = true; ga.src = (\'https:\' == document.location.protocol ? \'https://ssl\' : \'http://www\') + \'.google-analytics.com/ga.js\'; var s = document.getElementsByTagName(\'script\')[0]; s.parentNode.insertBefore(ga, s); })(); </script> ", escape=False)\n    pass\nresponse.write(\'\\n</body>\\n</html>\\n\', escape=False)'
p7
sS'snapshot'
p8
(dp9
S'exception'
p10
(dp11
S'__hash__'
p12
S"<method-wrapper '__hash__' of exceptions.NameError object at 0x06347B70>"
p13
sS'__setattr__'
p14
S"<method-wrapper '__setattr__' of exceptions.NameError object at 0x06347B70>"
p15
sS'__reduce_ex__'
p16
S'<built-in method __reduce_ex__ of exceptions.NameError object at 0x06347B70>'
p17
sS'__getslice__'
p18
S"<method-wrapper '__getslice__' of exceptions.NameError object at 0x06347B70>"
p19
sS'__getitem__'
p20
S"<method-wrapper '__getitem__' of exceptions.NameError object at 0x06347B70>"
p21
sS'__setstate__'
p22
S'<built-in method __setstate__ of exceptions.NameError object at 0x06347B70>'
p23
sS'__reduce__'
p24
S'<built-in method __reduce__ of exceptions.NameError object at 0x06347B70>'
p25
sS'__str__'
p26
S"<method-wrapper '__str__' of exceptions.NameError object at 0x06347B70>"
p27
sS'args'
p28
S'("name \'Object\' is not defined",)'
p29
sS'__getattribute__'
p30
S"<method-wrapper '__getattribute__' of exceptions.NameError object at 0x06347B70>"
p31
sS'__class__'
p32
S"<type 'exceptions.NameError'>"
p33
sS'__delattr__'
p34
S"<method-wrapper '__delattr__' of exceptions.NameError object at 0x06347B70>"
p35
sS'__repr__'
p36
S"<method-wrapper '__repr__' of exceptions.NameError object at 0x06347B70>"
p37
sS'__dict__'
p38
S'{}'
p39
sS'__doc__'
p40
S"'Name not found globally.'"
p41
sS'__init__'
p42
S"<method-wrapper '__init__' of exceptions.NameError object at 0x06347B70>"
p43
sS'__new__'
p44
S'<built-in method __new__ of type object at 0x1E1CD8D8>'
p45
ssS'evalue'
p46
S"name 'Object' is not defined"
p47
sS'request'
p48
ccopy_reg
_reconstructor
p49
(cgluon.html
BEAUTIFY
p50
c__builtin__
object
p51
NtRp52
(dp53
S'attributes'
p54
(dp55
sS'components'
p56
(lp57
g49
(cgluon.html
TABLE
p58
g51
NtRp59
(dp60
g54
(dp61
S'level'
p62
I5
ssS'parent'
p63
Nsg56
(lp64
g49
(cgluon.html
TR
p65
g51
NtRp66
(dp67
g54
(dp68
sg63
g59
sg56
(lp69
g49
(cgluon.html
TD
p70
g51
NtRp71
(dp72
g54
(dp73
S'_style'
p74
S'font-weight:bold;vertical-align:top'
p75
ssg63
g66
sg56
(lp76
S'ajax'
p77
asbag49
(g70
g51
NtRp78
(dp79
g54
(dp80
S'_valign'
p81
S'top'
p82
ssg63
g66
sg56
(lp83
S':'
asbag49
(g70
g51
NtRp84
(dp85
g54
(dp86
sg63
g66
sg56
(lp87
g49
(g50
g51
NtRp88
(dp89
g54
(dp90
g62
I5
ssg63
g84
sg56
(lp91
S'False'
p92
asbasbasbag49
(g65
g51
NtRp93
(dp94
g54
(dp95
sg63
g59
sg56
(lp96
g49
(g70
g51
NtRp97
(dp98
g54
(dp99
g74
g75
ssg63
g93
sg56
(lp100
S'application'
p101
asbag49
(g70
g51
NtRp102
(dp103
g54
(dp104
g81
g82
ssg63
g93
sg56
(lp105
S':'
asbag49
(g70
g51
NtRp106
(dp107
g54
(dp108
sg63
g93
sg56
(lp109
g49
(g50
g51
NtRp110
(dp111
g54
(dp112
g62
I5
ssg63
g106
sg56
(lp113
S'unioeste_code'
p114
asbasbasbag49
(g65
g51
NtRp115
(dp116
g54
(dp117
sg63
g59
sg56
(lp118
g49
(g70
g51
NtRp119
(dp120
g54
(dp121
g74
g75
ssg63
g115
sg56
(lp122
g28
asbag49
(g70
g51
NtRp123
(dp124
g54
(dp125
g81
g82
ssg63
g115
sg56
(lp126
S':'
asbag49
(g70
g51
NtRp127
(dp128
g54
(dp129
sg63
g115
sg56
(lp130
g49
(g50
g51
NtRp131
(dp132
g54
(dp133
g62
I5
ssg63
g127
sg56
(lp134
g49
(g58
g51
NtRp135
(dp136
g54
(dp137
g62
I4
ssg63
Nsg56
(lp138
sbasbasbasbag49
(g65
g51
NtRp139
(dp140
g54
(dp141
sg63
g59
sg56
(lp142
g49
(g70
g51
NtRp143
(dp144
g54
(dp145
g74
g75
ssg63
g139
sg56
(lp146
S'body'
p147
asbag49
(g70
g51
NtRp148
(dp149
g54
(dp150
g81
g82
ssg63
g139
sg56
(lp151
S':'
asbag49
(g70
g51
NtRp152
(dp153
g54
(dp154
sg63
g139
sg56
(lp155
g49
(g50
g51
NtRp156
(dp157
g54
(dp158
g62
I5
ssg63
g152
sg56
(lp159
S'<cStringIO.StringO object at 0x0669CF80>'
p160
asbasbasbag49
(g65
g51
NtRp161
(dp162
g54
(dp163
sg63
g59
sg56
(lp164
g49
(g70
g51
NtRp165
(dp166
g54
(dp167
g74
g75
ssg63
g161
sg56
(lp168
S'client'
p169
asbag49
(g70
g51
NtRp170
(dp171
g54
(dp172
g81
g82
ssg63
g161
sg56
(lp173
S':'
asbag49
(g70
g51
NtRp174
(dp175
g54
(dp176
sg63
g161
sg56
(lp177
g49
(g50
g51
NtRp178
(dp179
g54
(dp180
g62
I5
ssg63
g174
sg56
(lp181
S'127.0.0.1'
p182
asbasbasbag49
(g65
g51
NtRp183
(dp184
g54
(dp185
sg63
g59
sg56
(lp186
g49
(g70
g51
NtRp187
(dp188
g54
(dp189
g74
g75
ssg63
g183
sg56
(lp190
S'controller'
p191
asbag49
(g70
g51
NtRp192
(dp193
g54
(dp194
g81
g82
ssg63
g183
sg56
(lp195
S':'
asbag49
(g70
g51
NtRp196
(dp197
g54
(dp198
sg63
g183
sg56
(lp199
g49
(g50
g51
NtRp200
(dp201
g54
(dp202
g62
I5
ssg63
g196
sg56
(lp203
S'default'
p204
asbasbasbag49
(g65
g51
NtRp205
(dp206
g54
(dp207
sg63
g59
sg56
(lp208
g49
(g70
g51
NtRp209
(dp210
g54
(dp211
g74
g75
ssg63
g205
sg56
(lp212
S'cookies'
p213
asbag49
(g70
g51
NtRp214
(dp215
g54
(dp216
g81
g82
ssg63
g205
sg56
(lp217
S':'
asbag49
(g70
g51
NtRp218
(dp219
g54
(dp220
sg63
g205
sg56
(lp221
g49
(g50
g51
NtRp222
(dp223
g54
(dp224
g62
I5
ssg63
g218
sg56
(lp225
g49
(g58
g51
NtRp226
(dp227
g54
(dp228
g62
I4
ssg63
Nsg56
(lp229
g49
(g65
g51
NtRp230
(dp231
g54
(dp232
sg63
g226
sg56
(lp233
g49
(g70
g51
NtRp234
(dp235
g54
(dp236
g74
g75
ssg63
g230
sg56
(lp237
S'session_id_admin'
p238
asbag49
(g70
g51
NtRp239
(dp240
g54
(dp241
g81
g82
ssg63
g230
sg56
(lp242
S':'
asbag49
(g70
g51
NtRp243
(dp244
g54
(dp245
sg63
g230
sg56
(lp246
g49
(g50
g51
NtRp247
(dp248
g54
(dp249
g62
I4
ssg63
g243
sg56
(lp250
g49
(g58
g51
NtRp251
(dp252
g54
(dp253
g62
I3
ssg63
Nsg56
(lp254
g49
(g65
g51
NtRp255
(dp256
g54
(dp257
sg63
g251
sg56
(lp258
g49
(g70
g51
NtRp259
(dp260
g54
(dp261
g74
g75
ssg63
g255
sg56
(lp262
S'comment'
p263
asbag49
(g70
g51
NtRp264
(dp265
g54
(dp266
g81
g82
ssg63
g255
sg56
(lp267
S':'
asbag49
(g70
g51
NtRp268
(dp269
g54
(dp270
sg63
g255
sg56
(lp271
g49
(g50
g51
NtRp272
(dp273
g54
(dp274
g62
I3
ssg63
g268
sg56
(lp275
S''
asbasbasbag49
(g65
g51
NtRp276
(dp277
g54
(dp278
sg63
g251
sg56
(lp279
g49
(g70
g51
NtRp280
(dp281
g54
(dp282
g74
g75
ssg63
g276
sg56
(lp283
S'domain'
p284
asbag49
(g70
g51
NtRp285
(dp286
g54
(dp287
g81
g82
ssg63
g276
sg56
(lp288
S':'
asbag49
(g70
g51
NtRp289
(dp290
g54
(dp291
sg63
g276
sg56
(lp292
g49
(g50
g51
NtRp293
(dp294
g54
(dp295
g62
I3
ssg63
g289
sg56
(lp296
S''
asbasbasbag49
(g65
g51
NtRp297
(dp298
g54
(dp299
sg63
g251
sg56
(lp300
g49
(g70
g51
NtRp301
(dp302
g54
(dp303
g74
g75
ssg63
g297
sg56
(lp304
S'expires'
p305
asbag49
(g70
g51
NtRp306
(dp307
g54
(dp308
g81
g82
ssg63
g297
sg56
(lp309
S':'
asbag49
(g70
g51
NtRp310
(dp311
g54
(dp312
sg63
g297
sg56
(lp313
g49
(g50
g51
NtRp314
(dp315
g54
(dp316
g62
I3
ssg63
g310
sg56
(lp317
S''
asbasbasbag49
(g65
g51
NtRp318
(dp319
g54
(dp320
sg63
g251
sg56
(lp321
g49
(g70
g51
NtRp322
(dp323
g54
(dp324
g74
g75
ssg63
g318
sg56
(lp325
S'max-age'
p326
asbag49
(g70
g51
NtRp327
(dp328
g54
(dp329
g81
g82
ssg63
g318
sg56
(lp330
S':'
asbag49
(g70
g51
NtRp331
(dp332
g54
(dp333
sg63
g318
sg56
(lp334
g49
(g50
g51
NtRp335
(dp336
g54
(dp337
g62
I3
ssg63
g331
sg56
(lp338
S''
asbasbasbag49
(g65
g51
NtRp339
(dp340
g54
(dp341
sg63
g251
sg56
(lp342
g49
(g70
g51
NtRp343
(dp344
g54
(dp345
g74
g75
ssg63
g339
sg56
(lp346
S'path'
p347
asbag49
(g70
g51
NtRp348
(dp349
g54
(dp350
g81
g82
ssg63
g339
sg56
(lp351
S':'
asbag49
(g70
g51
NtRp352
(dp353
g54
(dp354
sg63
g339
sg56
(lp355
g49
(g50
g51
NtRp356
(dp357
g54
(dp358
g62
I3
ssg63
g352
sg56
(lp359
S''
asbasbasbag49
(g65
g51
NtRp360
(dp361
g54
(dp362
sg63
g251
sg56
(lp363
g49
(g70
g51
NtRp364
(dp365
g54
(dp366
g74
g75
ssg63
g360
sg56
(lp367
S'secure'
p368
asbag49
(g70
g51
NtRp369
(dp370
g54
(dp371
g81
g82
ssg63
g360
sg56
(lp372
S':'
asbag49
(g70
g51
NtRp373
(dp374
g54
(dp375
sg63
g360
sg56
(lp376
g49
(g50
g51
NtRp377
(dp378
g54
(dp379
g62
I3
ssg63
g373
sg56
(lp380
S''
asbasbasbag49
(g65
g51
NtRp381
(dp382
g54
(dp383
sg63
g251
sg56
(lp384
g49
(g70
g51
NtRp385
(dp386
g54
(dp387
g74
g75
ssg63
g381
sg56
(lp388
S'version'
p389
asbag49
(g70
g51
NtRp390
(dp391
g54
(dp392
g81
g82
ssg63
g381
sg56
(lp393
S':'
asbag49
(g70
g51
NtRp394
(dp395
g54
(dp396
sg63
g381
sg56
(lp397
g49
(g50
g51
NtRp398
(dp399
g54
(dp400
g62
I3
ssg63
g394
sg56
(lp401
S''
asbasbasbasbasbasbasbag49
(g65
g51
NtRp402
(dp403
g54
(dp404
sg63
g226
sg56
(lp405
g49
(g70
g51
NtRp406
(dp407
g54
(dp408
g74
g75
ssg63
g402
sg56
(lp409
S'session_id_unioeste_code'
p410
asbag49
(g70
g51
NtRp411
(dp412
g54
(dp413
g81
g82
ssg63
g402
sg56
(lp414
S':'
asbag49
(g70
g51
NtRp415
(dp416
g54
(dp417
sg63
g402
sg56
(lp418
g49
(g50
g51
NtRp419
(dp420
g54
(dp421
g62
I4
ssg63
g415
sg56
(lp422
g49
(g58
g51
NtRp423
(dp424
g54
(dp425
g62
I3
ssg63
Nsg56
(lp426
g49
(g65
g51
NtRp427
(dp428
g54
(dp429
sg63
g423
sg56
(lp430
g49
(g70
g51
NtRp431
(dp432
g54
(dp433
g74
g75
ssg63
g427
sg56
(lp434
g263
asbag49
(g70
g51
NtRp435
(dp436
g54
(dp437
g81
g82
ssg63
g427
sg56
(lp438
S':'
asbag49
(g70
g51
NtRp439
(dp440
g54
(dp441
sg63
g427
sg56
(lp442
g49
(g50
g51
NtRp443
(dp444
g54
(dp445
g62
I3
ssg63
g439
sg56
(lp446
S''
asbasbasbag49
(g65
g51
NtRp447
(dp448
g54
(dp449
sg63
g423
sg56
(lp450
g49
(g70
g51
NtRp451
(dp452
g54
(dp453
g74
g75
ssg63
g447
sg56
(lp454
g284
asbag49
(g70
g51
NtRp455
(dp456
g54
(dp457
g81
g82
ssg63
g447
sg56
(lp458
S':'
asbag49
(g70
g51
NtRp459
(dp460
g54
(dp461
sg63
g447
sg56
(lp462
g49
(g50
g51
NtRp463
(dp464
g54
(dp465
g62
I3
ssg63
g459
sg56
(lp466
S''
asbasbasbag49
(g65
g51
NtRp467
(dp468
g54
(dp469
sg63
g423
sg56
(lp470
g49
(g70
g51
NtRp471
(dp472
g54
(dp473
g74
g75
ssg63
g467
sg56
(lp474
g305
asbag49
(g70
g51
NtRp475
(dp476
g54
(dp477
g81
g82
ssg63
g467
sg56
(lp478
S':'
asbag49
(g70
g51
NtRp479
(dp480
g54
(dp481
sg63
g467
sg56
(lp482
g49
(g50
g51
NtRp483
(dp484
g54
(dp485
g62
I3
ssg63
g479
sg56
(lp486
S''
asbasbasbag49
(g65
g51
NtRp487
(dp488
g54
(dp489
sg63
g423
sg56
(lp490
g49
(g70
g51
NtRp491
(dp492
g54
(dp493
g74
g75
ssg63
g487
sg56
(lp494
g326
asbag49
(g70
g51
NtRp495
(dp496
g54
(dp497
g81
g82
ssg63
g487
sg56
(lp498
S':'
asbag49
(g70
g51
NtRp499
(dp500
g54
(dp501
sg63
g487
sg56
(lp502
g49
(g50
g51
NtRp503
(dp504
g54
(dp505
g62
I3
ssg63
g499
sg56
(lp506
S''
asbasbasbag49
(g65
g51
NtRp507
(dp508
g54
(dp509
sg63
g423
sg56
(lp510
g49
(g70
g51
NtRp511
(dp512
g54
(dp513
g74
g75
ssg63
g507
sg56
(lp514
g347
asbag49
(g70
g51
NtRp515
(dp516
g54
(dp517
g81
g82
ssg63
g507
sg56
(lp518
S':'
asbag49
(g70
g51
NtRp519
(dp520
g54
(dp521
sg63
g507
sg56
(lp522
g49
(g50
g51
NtRp523
(dp524
g54
(dp525
g62
I3
ssg63
g519
sg56
(lp526
S''
asbasbasbag49
(g65
g51
NtRp527
(dp528
g54
(dp529
sg63
g423
sg56
(lp530
g49
(g70
g51
NtRp531
(dp532
g54
(dp533
g74
g75
ssg63
g527
sg56
(lp534
g368
asbag49
(g70
g51
NtRp535
(dp536
g54
(dp537
g81
g82
ssg63
g527
sg56
(lp538
S':'
asbag49
(g70
g51
NtRp539
(dp540
g54
(dp541
sg63
g527
sg56
(lp542
g49
(g50
g51
NtRp543
(dp544
g54
(dp545
g62
I3
ssg63
g539
sg56
(lp546
S''
asbasbasbag49
(g65
g51
NtRp547
(dp548
g54
(dp549
sg63
g423
sg56
(lp550
g49
(g70
g51
NtRp551
(dp552
g54
(dp553
g74
g75
ssg63
g547
sg56
(lp554
g389
asbag49
(g70
g51
NtRp555
(dp556
g54
(dp557
g81
g82
ssg63
g547
sg56
(lp558
S':'
asbag49
(g70
g51
NtRp559
(dp560
g54
(dp561
sg63
g547
sg56
(lp562
g49
(g50
g51
NtRp563
(dp564
g54
(dp565
g62
I3
ssg63
g559
sg56
(lp566
S''
asbasbasbasbasbasbasbag49
(g65
g51
NtRp567
(dp568
g54
(dp569
sg63
g226
sg56
(lp570
g49
(g70
g51
NtRp571
(dp572
g54
(dp573
g74
g75
ssg63
g567
sg56
(lp574
S'session_id_welcome'
p575
asbag49
(g70
g51
NtRp576
(dp577
g54
(dp578
g81
g82
ssg63
g567
sg56
(lp579
S':'
asbag49
(g70
g51
NtRp580
(dp581
g54
(dp582
sg63
g567
sg56
(lp583
g49
(g50
g51
NtRp584
(dp585
g54
(dp586
g62
I4
ssg63
g580
sg56
(lp587
g49
(g58
g51
NtRp588
(dp589
g54
(dp590
g62
I3
ssg63
Nsg56
(lp591
g49
(g65
g51
NtRp592
(dp593
g54
(dp594
sg63
g588
sg56
(lp595
g49
(g70
g51
NtRp596
(dp597
g54
(dp598
g74
g75
ssg63
g592
sg56
(lp599
g263
asbag49
(g70
g51
NtRp600
(dp601
g54
(dp602
g81
g82
ssg63
g592
sg56
(lp603
S':'
asbag49
(g70
g51
NtRp604
(dp605
g54
(dp606
sg63
g592
sg56
(lp607
g49
(g50
g51
NtRp608
(dp609
g54
(dp610
g62
I3
ssg63
g604
sg56
(lp611
S''
asbasbasbag49
(g65
g51
NtRp612
(dp613
g54
(dp614
sg63
g588
sg56
(lp615
g49
(g70
g51
NtRp616
(dp617
g54
(dp618
g74
g75
ssg63
g612
sg56
(lp619
g284
asbag49
(g70
g51
NtRp620
(dp621
g54
(dp622
g81
g82
ssg63
g612
sg56
(lp623
S':'
asbag49
(g70
g51
NtRp624
(dp625
g54
(dp626
sg63
g612
sg56
(lp627
g49
(g50
g51
NtRp628
(dp629
g54
(dp630
g62
I3
ssg63
g624
sg56
(lp631
S''
asbasbasbag49
(g65
g51
NtRp632
(dp633
g54
(dp634
sg63
g588
sg56
(lp635
g49
(g70
g51
NtRp636
(dp637
g54
(dp638
g74
g75
ssg63
g632
sg56
(lp639
g305
asbag49
(g70
g51
NtRp640
(dp641
g54
(dp642
g81
g82
ssg63
g632
sg56
(lp643
S':'
asbag49
(g70
g51
NtRp644
(dp645
g54
(dp646
sg63
g632
sg56
(lp647
g49
(g50
g51
NtRp648
(dp649
g54
(dp650
g62
I3
ssg63
g644
sg56
(lp651
S''
asbasbasbag49
(g65
g51
NtRp652
(dp653
g54
(dp654
sg63
g588
sg56
(lp655
g49
(g70
g51
NtRp656
(dp657
g54
(dp658
g74
g75
ssg63
g652
sg56
(lp659
g326
asbag49
(g70
g51
NtRp660
(dp661
g54
(dp662
g81
g82
ssg63
g652
sg56
(lp663
S':'
asbag49
(g70
g51
NtRp664
(dp665
g54
(dp666
sg63
g652
sg56
(lp667
g49
(g50
g51
NtRp668
(dp669
g54
(dp670
g62
I3
ssg63
g664
sg56
(lp671
S''
asbasbasbag49
(g65
g51
NtRp672
(dp673
g54
(dp674
sg63
g588
sg56
(lp675
g49
(g70
g51
NtRp676
(dp677
g54
(dp678
g74
g75
ssg63
g672
sg56
(lp679
g347
asbag49
(g70
g51
NtRp680
(dp681
g54
(dp682
g81
g82
ssg63
g672
sg56
(lp683
S':'
asbag49
(g70
g51
NtRp684
(dp685
g54
(dp686
sg63
g672
sg56
(lp687
g49
(g50
g51
NtRp688
(dp689
g54
(dp690
g62
I3
ssg63
g684
sg56
(lp691
S''
asbasbasbag49
(g65
g51
NtRp692
(dp693
g54
(dp694
sg63
g588
sg56
(lp695
g49
(g70
g51
NtRp696
(dp697
g54
(dp698
g74
g75
ssg63
g692
sg56
(lp699
g368
asbag49
(g70
g51
NtRp700
(dp701
g54
(dp702
g81
g82
ssg63
g692
sg56
(lp703
S':'
asbag49
(g70
g51
NtRp704
(dp705
g54
(dp706
sg63
g692
sg56
(lp707
g49
(g50
g51
NtRp708
(dp709
g54
(dp710
g62
I3
ssg63
g704
sg56
(lp711
S''
asbasbasbag49
(g65
g51
NtRp712
(dp713
g54
(dp714
sg63
g588
sg56
(lp715
g49
(g70
g51
NtRp716
(dp717
g54
(dp718
g74
g75
ssg63
g712
sg56
(lp719
g389
asbag49
(g70
g51
NtRp720
(dp721
g54
(dp722
g81
g82
ssg63
g712
sg56
(lp723
S':'
asbag49
(g70
g51
NtRp724
(dp725
g54
(dp726
sg63
g712
sg56
(lp727
g49
(g50
g51
NtRp728
(dp729
g54
(dp730
g62
I3
ssg63
g724
sg56
(lp731
S''
asbasbasbasbasbasbasbasbasbasbasbag49
(g65
g51
NtRp732
(dp733
g54
(dp734
sg63
g59
sg56
(lp735
g49
(g70
g51
NtRp736
(dp737
g54
(dp738
g74
g75
ssg63
g732
sg56
(lp739
S'env'
p740
asbag49
(g70
g51
NtRp741
(dp742
g54
(dp743
g81
g82
ssg63
g732
sg56
(lp744
S':'
asbag49
(g70
g51
NtRp745
(dp746
g54
(dp747
sg63
g732
sg56
(lp748
g49
(g50
g51
NtRp749
(dp750
g54
(dp751
g62
I5
ssg63
g745
sg56
(lp752
g49
(g58
g51
NtRp753
(dp754
g54
(dp755
g62
I4
ssg63
Nsg56
(lp756
g49
(g65
g51
NtRp757
(dp758
g54
(dp759
sg63
g753
sg56
(lp760
g49
(g70
g51
NtRp761
(dp762
g54
(dp763
g74
g75
ssg63
g757
sg56
(lp764
S'app_folders'
p765
asbag49
(g70
g51
NtRp766
(dp767
g54
(dp768
g81
g82
ssg63
g757
sg56
(lp769
S':'
asbag49
(g70
g51
NtRp770
(dp771
g54
(dp772
sg63
g757
sg56
(lp773
g49
(g50
g51
NtRp774
(dp775
g54
(dp776
g62
I4
ssg63
g770
sg56
(lp777
S"set(['C:\\\\web2py\\\\applications\\\\admin\\\\', 'C:\\\\web2py\\\\applications\\\\welcome\\\\', 'C:\\\\web2py\\\\applications\\\\unioeste_code\\\\'])"
p778
asbasbasbag49
(g65
g51
NtRp779
(dp780
g54
(dp781
sg63
g753
sg56
(lp782
g49
(g70
g51
NtRp783
(dp784
g54
(dp785
g74
g75
ssg63
g779
sg56
(lp786
S'applications_parent'
p787
asbag49
(g70
g51
NtRp788
(dp789
g54
(dp790
g81
g82
ssg63
g779
sg56
(lp791
S':'
asbag49
(g70
g51
NtRp792
(dp793
g54
(dp794
sg63
g779
sg56
(lp795
g49
(g50
g51
NtRp796
(dp797
g54
(dp798
g62
I4
ssg63
g792
sg56
(lp799
S'C:\\web2py'
p800
asbasbasbag49
(g65
g51
NtRp801
(dp802
g54
(dp803
sg63
g753
sg56
(lp804
g49
(g70
g51
NtRp805
(dp806
g54
(dp807
g74
g75
ssg63
g801
sg56
(lp808
S'cmd_args'
p809
asbag49
(g70
g51
NtRp810
(dp811
g54
(dp812
g81
g82
ssg63
g801
sg56
(lp813
S':'
asbag49
(g70
g51
NtRp814
(dp815
g54
(dp816
sg63
g801
sg56
(lp817
g49
(g50
g51
NtRp818
(dp819
g54
(dp820
g62
I4
ssg63
g814
sg56
(lp821
g49
(g58
g51
NtRp822
(dp823
g54
(dp824
g62
I3
ssg63
Nsg56
(lp825
sbasbasbasbag49
(g65
g51
NtRp826
(dp827
g54
(dp828
sg63
g753
sg56
(lp829
g49
(g70
g51
NtRp830
(dp831
g54
(dp832
g74
g75
ssg63
g826
sg56
(lp833
S'cmd_options'
p834
asbag49
(g70
g51
NtRp835
(dp836
g54
(dp837
g81
g82
ssg63
g826
sg56
(lp838
S':'
asbag49
(g70
g51
NtRp839
(dp840
g54
(dp841
sg63
g826
sg56
(lp842
g49
(g50
g51
NtRp843
(dp844
g54
(dp845
g62
I4
ssg63
g839
sg56
(lp846
S"<Values at 0x31dc300: {'verbose': False, 'ip': '127.0.0.1', 'shutdown_timeout': 5, 'taskbar': False, 'nocron': False, 'pid_filename': 'httpserver.pid', 'maxthreads': None, 'softcron': False, 'server_name': 'Pedro-PC', 'bpython': False, 'nogui': False, 'port': 8000, 'extcron': False, 'debuglevel': 30, 'test': None, 'folder': 'C:\\\\web2py', 'config': '', 'import_models': False, 'winservice': '', 'shell': None, 'run': '', 'log_filename': 'httpserver.log', 'args': [''], 'socket_timeout': 5, 'ssl_ca_certificate': None, 'scheduler': None, 'profiler_filename': None, 'ssl_private_key': '', 'password': '<ask>', 'request_queue_size': 5, 'ssl_certificate': '', 'cronjob': False, 'numthreads': None, 'quiet': False, 'interfaces': None, 'minthreads': None, 'timeout': 10, 'plain': False, 'nobanner': False}>"
p847
asbasbasbag49
(g65
g51
NtRp848
(dp849
g54
(dp850
sg63
g753
sg56
(lp851
g49
(g70
g51
NtRp852
(dp853
g54
(dp854
g74
g75
ssg63
g848
sg56
(lp855
S'db_sessions'
p856
asbag49
(g70
g51
NtRp857
(dp858
g54
(dp859
g81
g82
ssg63
g848
sg56
(lp860
S':'
asbag49
(g70
g51
NtRp861
(dp862
g54
(dp863
sg63
g848
sg56
(lp864
g49
(g50
g51
NtRp865
(dp866
g54
(dp867
g62
I4
ssg63
g861
sg56
(lp868
S'set([])'
p869
asbasbasbag49
(g65
g51
NtRp870
(dp871
g54
(dp872
sg63
g753
sg56
(lp873
g49
(g70
g51
NtRp874
(dp875
g54
(dp876
g74
g75
ssg63
g870
sg56
(lp877
S'debugging'
p878
asbag49
(g70
g51
NtRp879
(dp880
g54
(dp881
g81
g82
ssg63
g870
sg56
(lp882
S':'
asbag49
(g70
g51
NtRp883
(dp884
g54
(dp885
sg63
g870
sg56
(lp886
g49
(g50
g51
NtRp887
(dp888
g54
(dp889
g62
I4
ssg63
g883
sg56
(lp890
g92
asbasbasbag49
(g65
g51
NtRp891
(dp892
g54
(dp893
sg63
g753
sg56
(lp894
g49
(g70
g51
NtRp895
(dp896
g54
(dp897
g74
g75
ssg63
g891
sg56
(lp898
S'gluon_parent'
p899
asbag49
(g70
g51
NtRp900
(dp901
g54
(dp902
g81
g82
ssg63
g891
sg56
(lp903
S':'
asbag49
(g70
g51
NtRp904
(dp905
g54
(dp906
sg63
g891
sg56
(lp907
g49
(g50
g51
NtRp908
(dp909
g54
(dp910
g62
I4
ssg63
g904
sg56
(lp911
S'C:\\web2py'
p912
asbasbasbag49
(g65
g51
NtRp913
(dp914
g54
(dp915
sg63
g753
sg56
(lp916
g49
(g70
g51
NtRp917
(dp918
g54
(dp919
g74
g75
ssg63
g913
sg56
(lp920
S'http_accept'
p921
asbag49
(g70
g51
NtRp922
(dp923
g54
(dp924
g81
g82
ssg63
g913
sg56
(lp925
S':'
asbag49
(g70
g51
NtRp926
(dp927
g54
(dp928
sg63
g913
sg56
(lp929
g49
(g50
g51
NtRp930
(dp931
g54
(dp932
g62
I4
ssg63
g926
sg56
(lp933
S'text/html,application/xhtml+xml,application/xml;q=0.9,*/*;q=0.8'
p934
asbasbasbag49
(g65
g51
NtRp935
(dp936
g54
(dp937
sg63
g753
sg56
(lp938
g49
(g70
g51
NtRp939
(dp940
g54
(dp941
g74
g75
ssg63
g935
sg56
(lp942
S'http_accept_charset'
p943
asbag49
(g70
g51
NtRp944
(dp945
g54
(dp946
g81
g82
ssg63
g935
sg56
(lp947
S':'
asbag49
(g70
g51
NtRp948
(dp949
g54
(dp950
sg63
g935
sg56
(lp951
g49
(g50
g51
NtRp952
(dp953
g54
(dp954
g62
I4
ssg63
g948
sg56
(lp955
S'ISO-8859-1,utf-8;q=0.7,*;q=0.3'
p956
asbasbasbag49
(g65
g51
NtRp957
(dp958
g54
(dp959
sg63
g753
sg56
(lp960
g49
(g70
g51
NtRp961
(dp962
g54
(dp963
g74
g75
ssg63
g957
sg56
(lp964
S'http_accept_encoding'
p965
asbag49
(g70
g51
NtRp966
(dp967
g54
(dp968
g81
g82
ssg63
g957
sg56
(lp969
S':'
asbag49
(g70
g51
NtRp970
(dp971
g54
(dp972
sg63
g957
sg56
(lp973
g49
(g50
g51
NtRp974
(dp975
g54
(dp976
g62
I4
ssg63
g970
sg56
(lp977
S'gzip,deflate,sdch'
p978
asbasbasbag49
(g65
g51
NtRp979
(dp980
g54
(dp981
sg63
g753
sg56
(lp982
g49
(g70
g51
NtRp983
(dp984
g54
(dp985
g74
g75
ssg63
g979
sg56
(lp986
S'http_accept_language'
p987
asbag49
(g70
g51
NtRp988
(dp989
g54
(dp990
g81
g82
ssg63
g979
sg56
(lp991
S':'
asbag49
(g70
g51
NtRp992
(dp993
g54
(dp994
sg63
g979
sg56
(lp995
g49
(g50
g51
NtRp996
(dp997
g54
(dp998
g62
I4
ssg63
g992
sg56
(lp999
S'pt-BR,pt;q=0.8,en-US;q=0.6,en;q=0.4'
p1000
asbasbasbag49
(g65
g51
NtRp1001
(dp1002
g54
(dp1003
sg63
g753
sg56
(lp1004
g49
(g70
g51
NtRp1005
(dp1006
g54
(dp1007
g74
g75
ssg63
g1001
sg56
(lp1008
S'http_cache_control'
p1009
asbag49
(g70
g51
NtRp1010
(dp1011
g54
(dp1012
g81
g82
ssg63
g1001
sg56
(lp1013
S':'
asbag49
(g70
g51
NtRp1014
(dp1015
g54
(dp1016
sg63
g1001
sg56
(lp1017
g49
(g50
g51
NtRp1018
(dp1019
g54
(dp1020
g62
I4
ssg63
g1014
sg56
(lp1021
S'max-age=0'
p1022
asbasbasbag49
(g65
g51
NtRp1023
(dp1024
g54
(dp1025
sg63
g753
sg56
(lp1026
g49
(g70
g51
NtRp1027
(dp1028
g54
(dp1029
g74
g75
ssg63
g1023
sg56
(lp1030
S'http_connection'
p1031
asbag49
(g70
g51
NtRp1032
(dp1033
g54
(dp1034
g81
g82
ssg63
g1023
sg56
(lp1035
S':'
asbag49
(g70
g51
NtRp1036
(dp1037
g54
(dp1038
sg63
g1023
sg56
(lp1039
g49
(g50
g51
NtRp1040
(dp1041
g54
(dp1042
g62
I4
ssg63
g1036
sg56
(lp1043
S'keep-alive'
p1044
asbasbasbag49
(g65
g51
NtRp1045
(dp1046
g54
(dp1047
sg63
g753
sg56
(lp1048
g49
(g70
g51
NtRp1049
(dp1050
g54
(dp1051
g74
g75
ssg63
g1045
sg56
(lp1052
S'http_cookie'
p1053
asbag49
(g70
g51
NtRp1054
(dp1055
g54
(dp1056
g81
g82
ssg63
g1045
sg56
(lp1057
S':'
asbag49
(g70
g51
NtRp1058
(dp1059
g54
(dp1060
sg63
g1045
sg56
(lp1061
g49
(g50
g51
NtRp1062
(dp1063
g54
(dp1064
g62
I4
ssg63
g1058
sg56
(lp1065
S'session_id_welcome=127.0.0.1-76f3c1b1-2d56-4011-a35f-e7072ae8a814; session_id_unioeste_code=127.0.0.1-bc48ac14-a4c3-4aad-bdf5-edbbf68c575e; session_id_admin=127.0.0.1-b030b836-135a-4bad-8831-8a062289d8a4'
p1066
asbasbasbag49
(g65
g51
NtRp1067
(dp1068
g54
(dp1069
sg63
g753
sg56
(lp1070
g49
(g70
g51
NtRp1071
(dp1072
g54
(dp1073
g74
g75
ssg63
g1067
sg56
(lp1074
S'http_dnt'
p1075
asbag49
(g70
g51
NtRp1076
(dp1077
g54
(dp1078
g81
g82
ssg63
g1067
sg56
(lp1079
S':'
asbag49
(g70
g51
NtRp1080
(dp1081
g54
(dp1082
sg63
g1067
sg56
(lp1083
g49
(g50
g51
NtRp1084
(dp1085
g54
(dp1086
g62
I4
ssg63
g1080
sg56
(lp1087
S'1'
asbasbasbag49
(g65
g51
NtRp1088
(dp1089
g54
(dp1090
sg63
g753
sg56
(lp1091
g49
(g70
g51
NtRp1092
(dp1093
g54
(dp1094
g74
g75
ssg63
g1088
sg56
(lp1095
S'http_host'
p1096
asbag49
(g70
g51
NtRp1097
(dp1098
g54
(dp1099
g81
g82
ssg63
g1088
sg56
(lp1100
S':'
asbag49
(g70
g51
NtRp1101
(dp1102
g54
(dp1103
sg63
g1088
sg56
(lp1104
g49
(g50
g51
NtRp1105
(dp1106
g54
(dp1107
g62
I4
ssg63
g1101
sg56
(lp1108
S'127.0.0.1:8000'
p1109
asbasbasbag49
(g65
g51
NtRp1110
(dp1111
g54
(dp1112
sg63
g753
sg56
(lp1113
g49
(g70
g51
NtRp1114
(dp1115
g54
(dp1116
g74
g75
ssg63
g1110
sg56
(lp1117
S'http_user_agent'
p1118
asbag49
(g70
g51
NtRp1119
(dp1120
g54
(dp1121
g81
g82
ssg63
g1110
sg56
(lp1122
S':'
asbag49
(g70
g51
NtRp1123
(dp1124
g54
(dp1125
sg63
g1110
sg56
(lp1126
g49
(g50
g51
NtRp1127
(dp1128
g54
(dp1129
g62
I4
ssg63
g1123
sg56
(lp1130
S'Mozilla/5.0 (Windows NT 6.1; WOW64) AppleWebKit/536.11 (KHTML, like Gecko) Chrome/20.0.1132.57 Safari/536.11'
p1131
asbasbasbag49
(g65
g51
NtRp1132
(dp1133
g54
(dp1134
sg63
g753
sg56
(lp1135
g49
(g70
g51
NtRp1136
(dp1137
g54
(dp1138
g74
g75
ssg63
g1132
sg56
(lp1139
S'is_jython'
p1140
asbag49
(g70
g51
NtRp1141
(dp1142
g54
(dp1143
g81
g82
ssg63
g1132
sg56
(lp1144
S':'
asbag49
(g70
g51
NtRp1145
(dp1146
g54
(dp1147
sg63
g1132
sg56
(lp1148
g49
(g50
g51
NtRp1149
(dp1150
g54
(dp1151
g62
I4
ssg63
g1145
sg56
(lp1152
g92
asbasbasbag49
(g65
g51
NtRp1153
(dp1154
g54
(dp1155
sg63
g753
sg56
(lp1156
g49
(g70
g51
NtRp1157
(dp1158
g54
(dp1159
g74
g75
ssg63
g1153
sg56
(lp1160
S'is_pypy'
p1161
asbag49
(g70
g51
NtRp1162
(dp1163
g54
(dp1164
g81
g82
ssg63
g1153
sg56
(lp1165
S':'
asbag49
(g70
g51
NtRp1166
(dp1167
g54
(dp1168
sg63
g1153
sg56
(lp1169
g49
(g50
g51
NtRp1170
(dp1171
g54
(dp1172
g62
I4
ssg63
g1166
sg56
(lp1173
g92
asbasbasbag49
(g65
g51
NtRp1174
(dp1175
g54
(dp1176
sg63
g753
sg56
(lp1177
g49
(g70
g51
NtRp1178
(dp1179
g54
(dp1180
g74
g75
ssg63
g1174
sg56
(lp1181
S'path_info'
p1182
asbag49
(g70
g51
NtRp1183
(dp1184
g54
(dp1185
g81
g82
ssg63
g1174
sg56
(lp1186
S':'
asbag49
(g70
g51
NtRp1187
(dp1188
g54
(dp1189
sg63
g1174
sg56
(lp1190
g49
(g50
g51
NtRp1191
(dp1192
g54
(dp1193
g62
I4
ssg63
g1187
sg56
(lp1194
S'/unioeste_code/'
p1195
asbasbasbag49
(g65
g51
NtRp1196
(dp1197
g54
(dp1198
sg63
g753
sg56
(lp1199
g49
(g70
g51
NtRp1200
(dp1201
g54
(dp1202
g74
g75
ssg63
g1196
sg56
(lp1203
S'query_string'
p1204
asbag49
(g70
g51
NtRp1205
(dp1206
g54
(dp1207
g81
g82
ssg63
g1196
sg56
(lp1208
S':'
asbag49
(g70
g51
NtRp1209
(dp1210
g54
(dp1211
sg63
g1196
sg56
(lp1212
g49
(g50
g51
NtRp1213
(dp1214
g54
(dp1215
g62
I4
ssg63
g1209
sg56
(lp1216
S''
asbasbasbag49
(g65
g51
NtRp1217
(dp1218
g54
(dp1219
sg63
g753
sg56
(lp1220
g49
(g70
g51
NtRp1221
(dp1222
g54
(dp1223
g74
g75
ssg63
g1217
sg56
(lp1224
S'remote_addr'
p1225
asbag49
(g70
g51
NtRp1226
(dp1227
g54
(dp1228
g81
g82
ssg63
g1217
sg56
(lp1229
S':'
asbag49
(g70
g51
NtRp1230
(dp1231
g54
(dp1232
sg63
g1217
sg56
(lp1233
g49
(g50
g51
NtRp1234
(dp1235
g54
(dp1236
g62
I4
ssg63
g1230
sg56
(lp1237
g182
asbasbasbag49
(g65
g51
NtRp1238
(dp1239
g54
(dp1240
sg63
g753
sg56
(lp1241
g49
(g70
g51
NtRp1242
(dp1243
g54
(dp1244
g74
g75
ssg63
g1238
sg56
(lp1245
S'remote_port'
p1246
asbag49
(g70
g51
NtRp1247
(dp1248
g54
(dp1249
g81
g82
ssg63
g1238
sg56
(lp1250
S':'
asbag49
(g70
g51
NtRp1251
(dp1252
g54
(dp1253
sg63
g1238
sg56
(lp1254
g49
(g50
g51
NtRp1255
(dp1256
g54
(dp1257
g62
I4
ssg63
g1251
sg56
(lp1258
S'3875'
p1259
asbasbasbag49
(g65
g51
NtRp1260
(dp1261
g54
(dp1262
sg63
g753
sg56
(lp1263
g49
(g70
g51
NtRp1264
(dp1265
g54
(dp1266
g74
g75
ssg63
g1260
sg56
(lp1267
S'request_method'
p1268
asbag49
(g70
g51
NtRp1269
(dp1270
g54
(dp1271
g81
g82
ssg63
g1260
sg56
(lp1272
S':'
asbag49
(g70
g51
NtRp1273
(dp1274
g54
(dp1275
sg63
g1260
sg56
(lp1276
g49
(g50
g51
NtRp1277
(dp1278
g54
(dp1279
g62
I4
ssg63
g1273
sg56
(lp1280
S'GET'
p1281
asbasbasbag49
(g65
g51
NtRp1282
(dp1283
g54
(dp1284
sg63
g753
sg56
(lp1285
g49
(g70
g51
NtRp1286
(dp1287
g54
(dp1288
g74
g75
ssg63
g1282
sg56
(lp1289
S'script_name'
p1290
asbag49
(g70
g51
NtRp1291
(dp1292
g54
(dp1293
g81
g82
ssg63
g1282
sg56
(lp1294
S':'
asbag49
(g70
g51
NtRp1295
(dp1296
g54
(dp1297
sg63
g1282
sg56
(lp1298
g49
(g50
g51
NtRp1299
(dp1300
g54
(dp1301
g62
I4
ssg63
g1295
sg56
(lp1302
S''
asbasbasbag49
(g65
g51
NtRp1303
(dp1304
g54
(dp1305
sg63
g753
sg56
(lp1306
g49
(g70
g51
NtRp1307
(dp1308
g54
(dp1309
g74
g75
ssg63
g1303
sg56
(lp1310
S'server_name'
p1311
asbag49
(g70
g51
NtRp1312
(dp1313
g54
(dp1314
g81
g82
ssg63
g1303
sg56
(lp1315
S':'
asbag49
(g70
g51
NtRp1316
(dp1317
g54
(dp1318
sg63
g1303
sg56
(lp1319
g49
(g50
g51
NtRp1320
(dp1321
g54
(dp1322
g62
I4
ssg63
g1316
sg56
(lp1323
S'Pedro-PC'
p1324
asbasbasbag49
(g65
g51
NtRp1325
(dp1326
g54
(dp1327
sg63
g753
sg56
(lp1328
g49
(g70
g51
NtRp1329
(dp1330
g54
(dp1331
g74
g75
ssg63
g1325
sg56
(lp1332
S'server_port'
p1333
asbag49
(g70
g51
NtRp1334
(dp1335
g54
(dp1336
g81
g82
ssg63
g1325
sg56
(lp1337
S':'
asbag49
(g70
g51
NtRp1338
(dp1339
g54
(dp1340
sg63
g1325
sg56
(lp1341
g49
(g50
g51
NtRp1342
(dp1343
g54
(dp1344
g62
I4
ssg63
g1338
sg56
(lp1345
S'8000'
p1346
asbasbasbag49
(g65
g51
NtRp1347
(dp1348
g54
(dp1349
sg63
g753
sg56
(lp1350
g49
(g70
g51
NtRp1351
(dp1352
g54
(dp1353
g74
g75
ssg63
g1347
sg56
(lp1354
S'server_protocol'
p1355
asbag49
(g70
g51
NtRp1356
(dp1357
g54
(dp1358
g81
g82
ssg63
g1347
sg56
(lp1359
S':'
asbag49
(g70
g51
NtRp1360
(dp1361
g54
(dp1362
sg63
g1347
sg56
(lp1363
g49
(g50
g51
NtRp1364
(dp1365
g54
(dp1366
g62
I4
ssg63
g1360
sg56
(lp1367
S'HTTP/1.1'
p1368
asbasbasbag49
(g65
g51
NtRp1369
(dp1370
g54
(dp1371
sg63
g753
sg56
(lp1372
g49
(g70
g51
NtRp1373
(dp1374
g54
(dp1375
g74
g75
ssg63
g1369
sg56
(lp1376
S'server_software'
p1377
asbag49
(g70
g51
NtRp1378
(dp1379
g54
(dp1380
g81
g82
ssg63
g1369
sg56
(lp1381
S':'
asbag49
(g70
g51
NtRp1382
(dp1383
g54
(dp1384
sg63
g1369
sg56
(lp1385
g49
(g50
g51
NtRp1386
(dp1387
g54
(dp1388
g62
I4
ssg63
g1382
sg56
(lp1389
S'Rocket 1.2.4'
p1390
asbasbasbag49
(g65
g51
NtRp1391
(dp1392
g54
(dp1393
sg63
g753
sg56
(lp1394
g49
(g70
g51
NtRp1395
(dp1396
g54
(dp1397
g74
g75
ssg63
g1391
sg56
(lp1398
S'web2py_crontype'
p1399
asbag49
(g70
g51
NtRp1400
(dp1401
g54
(dp1402
g81
g82
ssg63
g1391
sg56
(lp1403
S':'
asbag49
(g70
g51
NtRp1404
(dp1405
g54
(dp1406
sg63
g1391
sg56
(lp1407
g49
(g50
g51
NtRp1408
(dp1409
g54
(dp1410
g62
I4
ssg63
g1404
sg56
(lp1411
S'hard'
p1412
asbasbasbag49
(g65
g51
NtRp1413
(dp1414
g54
(dp1415
sg63
g753
sg56
(lp1416
g49
(g70
g51
NtRp1417
(dp1418
g54
(dp1419
g74
g75
ssg63
g1413
sg56
(lp1420
S'web2py_path'
p1421
asbag49
(g70
g51
NtRp1422
(dp1423
g54
(dp1424
g81
g82
ssg63
g1413
sg56
(lp1425
S':'
asbag49
(g70
g51
NtRp1426
(dp1427
g54
(dp1428
sg63
g1413
sg56
(lp1429
g49
(g50
g51
NtRp1430
(dp1431
g54
(dp1432
g62
I4
ssg63
g1426
sg56
(lp1433
g800
asbasbasbag49
(g65
g51
NtRp1434
(dp1435
g54
(dp1436
sg63
g753
sg56
(lp1437
g49
(g70
g51
NtRp1438
(dp1439
g54
(dp1440
g74
g75
ssg63
g1434
sg56
(lp1441
S'web2py_version'
p1442
asbag49
(g70
g51
NtRp1443
(dp1444
g54
(dp1445
g81
g82
ssg63
g1434
sg56
(lp1446
S':'
asbag49
(g70
g51
NtRp1447
(dp1448
g54
(dp1449
sg63
g1434
sg56
(lp1450
g49
(g50
g51
NtRp1451
(dp1452
g54
(dp1453
g62
I4
ssg63
g1447
sg56
(lp1454
g49
(g58
g51
NtRp1455
(dp1456
g54
(dp1457
g62
I3
ssg63
Nsg56
(lp1458
g49
(g65
g51
NtRp1459
(dp1460
g54
(dp1461
sg63
g1455
sg56
(lp1462
g49
(g70
g51
NtRp1463
(dp1464
g54
(dp1465
sg63
g1459
sg56
(lp1466
g49
(g50
g51
NtRp1467
(dp1468
g54
(dp1469
g62
I3
ssg63
g1463
sg56
(lp1470
S'1'
asbasbasbag49
(g65
g51
NtRp1471
(dp1472
g54
(dp1473
sg63
g1455
sg56
(lp1474
g49
(g70
g51
NtRp1475
(dp1476
g54
(dp1477
sg63
g1471
sg56
(lp1478
g49
(g50
g51
NtRp1479
(dp1480
g54
(dp1481
g62
I3
ssg63
g1475
sg56
(lp1482
S'99'
p1483
asbasbasbag49
(g65
g51
NtRp1484
(dp1485
g54
(dp1486
sg63
g1455
sg56
(lp1487
g49
(g70
g51
NtRp1488
(dp1489
g54
(dp1490
sg63
g1484
sg56
(lp1491
g49
(g50
g51
NtRp1492
(dp1493
g54
(dp1494
g62
I3
ssg63
g1488
sg56
(lp1495
S'7'
asbasbasbag49
(g65
g51
NtRp1496
(dp1497
g54
(dp1498
sg63
g1455
sg56
(lp1499
g49
(g70
g51
NtRp1500
(dp1501
g54
(dp1502
sg63
g1496
sg56
(lp1503
g49
(g50
g51
NtRp1504
(dp1505
g54
(dp1506
g62
I3
ssg63
g1500
sg56
(lp1507
S'datetime.datetime(2012, 3, 4, 22, 12, 8)'
p1508
asbasbasbag49
(g65
g51
NtRp1509
(dp1510
g54
(dp1511
sg63
g1455
sg56
(lp1512
g49
(g70
g51
NtRp1513
(dp1514
g54
(dp1515
sg63
g1509
sg56
(lp1516
g49
(g50
g51
NtRp1517
(dp1518
g54
(dp1519
g62
I3
ssg63
g1513
sg56
(lp1520
S'stable'
p1521
asbasbasbasbasbasbasbag49
(g65
g51
NtRp1522
(dp1523
g54
(dp1524
sg63
g753
sg56
(lp1525
g49
(g70
g51
NtRp1526
(dp1527
g54
(dp1528
g74
g75
ssg63
g1522
sg56
(lp1529
S'wsgi_errors'
p1530
asbag49
(g70
g51
NtRp1531
(dp1532
g54
(dp1533
g81
g82
ssg63
g1522
sg56
(lp1534
S':'
asbag49
(g70
g51
NtRp1535
(dp1536
g54
(dp1537
sg63
g1522
sg56
(lp1538
g49
(g50
g51
NtRp1539
(dp1540
g54
(dp1541
g62
I4
ssg63
g1535
sg56
(lp1542
S'<__main__.Stderr object at 0x00356670>'
p1543
asbasbasbag49
(g65
g51
NtRp1544
(dp1545
g54
(dp1546
sg63
g753
sg56
(lp1547
g49
(g70
g51
NtRp1548
(dp1549
g54
(dp1550
g74
g75
ssg63
g1544
sg56
(lp1551
S'wsgi_file_wrapper'
p1552
asbag49
(g70
g51
NtRp1553
(dp1554
g54
(dp1555
g81
g82
ssg63
g1544
sg56
(lp1556
S':'
asbag49
(g70
g51
NtRp1557
(dp1558
g54
(dp1559
sg63
g1544
sg56
(lp1560
g49
(g50
g51
NtRp1561
(dp1562
g54
(dp1563
g62
I4
ssg63
g1557
sg56
(lp1564
S'<class wsgiref.util.FileWrapper at 0x02FCDE10>'
p1565
asbasbasbag49
(g65
g51
NtRp1566
(dp1567
g54
(dp1568
sg63
g753
sg56
(lp1569
g49
(g70
g51
NtRp1570
(dp1571
g54
(dp1572
g74
g75
ssg63
g1566
sg56
(lp1573
S'wsgi_input'
p1574
asbag49
(g70
g51
NtRp1575
(dp1576
g54
(dp1577
g81
g82
ssg63
g1566
sg56
(lp1578
S':'
asbag49
(g70
g51
NtRp1579
(dp1580
g54
(dp1581
sg63
g1566
sg56
(lp1582
g49
(g50
g51
NtRp1583
(dp1584
g54
(dp1585
g62
I4
ssg63
g1579
sg56
(lp1586
S'<socket._fileobject object at 0x06ACF070>'
p1587
asbasbasbag49
(g65
g51
NtRp1588
(dp1589
g54
(dp1590
sg63
g753
sg56
(lp1591
g49
(g70
g51
NtRp1592
(dp1593
g54
(dp1594
g74
g75
ssg63
g1588
sg56
(lp1595
S'wsgi_multiprocess'
p1596
asbag49
(g70
g51
NtRp1597
(dp1598
g54
(dp1599
g81
g82
ssg63
g1588
sg56
(lp1600
S':'
asbag49
(g70
g51
NtRp1601
(dp1602
g54
(dp1603
sg63
g1588
sg56
(lp1604
g49
(g50
g51
NtRp1605
(dp1606
g54
(dp1607
g62
I4
ssg63
g1601
sg56
(lp1608
g92
asbasbasbag49
(g65
g51
NtRp1609
(dp1610
g54
(dp1611
sg63
g753
sg56
(lp1612
g49
(g70
g51
NtRp1613
(dp1614
g54
(dp1615
g74
g75
ssg63
g1609
sg56
(lp1616
S'wsgi_multithread'
p1617
asbag49
(g70
g51
NtRp1618
(dp1619
g54
(dp1620
g81
g82
ssg63
g1609
sg56
(lp1621
S':'
asbag49
(g70
g51
NtRp1622
(dp1623
g54
(dp1624
sg63
g1609
sg56
(lp1625
g49
(g50
g51
NtRp1626
(dp1627
g54
(dp1628
g62
I4
ssg63
g1622
sg56
(lp1629
S'True'
p1630
asbasbasbag49
(g65
g51
NtRp1631
(dp1632
g54
(dp1633
sg63
g753
sg56
(lp1634
g49
(g70
g51
NtRp1635
(dp1636
g54
(dp1637
g74
g75
ssg63
g1631
sg56
(lp1638
S'wsgi_run_once'
p1639
asbag49
(g70
g51
NtRp1640
(dp1641
g54
(dp1642
g81
g82
ssg63
g1631
sg56
(lp1643
S':'
asbag49
(g70
g51
NtRp1644
(dp1645
g54
(dp1646
sg63
g1631
sg56
(lp1647
g49
(g50
g51
NtRp1648
(dp1649
g54
(dp1650
g62
I4
ssg63
g1644
sg56
(lp1651
g92
asbasbasbag49
(g65
g51
NtRp1652
(dp1653
g54
(dp1654
sg63
g753
sg56
(lp1655
g49
(g70
g51
NtRp1656
(dp1657
g54
(dp1658
g74
g75
ssg63
g1652
sg56
(lp1659
S'wsgi_url_scheme'
p1660
asbag49
(g70
g51
NtRp1661
(dp1662
g54
(dp1663
g81
g82
ssg63
g1652
sg56
(lp1664
S':'
asbag49
(g70
g51
NtRp1665
(dp1666
g54
(dp1667
sg63
g1652
sg56
(lp1668
g49
(g50
g51
NtRp1669
(dp1670
g54
(dp1671
g62
I4
ssg63
g1665
sg56
(lp1672
S'http'
p1673
asbasbasbag49
(g65
g51
NtRp1674
(dp1675
g54
(dp1676
sg63
g753
sg56
(lp1677
g49
(g70
g51
NtRp1678
(dp1679
g54
(dp1680
g74
g75
ssg63
g1674
sg56
(lp1681
S'wsgi_version'
p1682
asbag49
(g70
g51
NtRp1683
(dp1684
g54
(dp1685
g81
g82
ssg63
g1674
sg56
(lp1686
S':'
asbag49
(g70
g51
NtRp1687
(dp1688
g54
(dp1689
sg63
g1674
sg56
(lp1690
g49
(g50
g51
NtRp1691
(dp1692
g54
(dp1693
g62
I4
ssg63
g1687
sg56
(lp1694
g49
(g58
g51
NtRp1695
(dp1696
g54
(dp1697
g62
I3
ssg63
Nsg56
(lp1698
g49
(g65
g51
NtRp1699
(dp1700
g54
(dp1701
sg63
g1695
sg56
(lp1702
g49
(g70
g51
NtRp1703
(dp1704
g54
(dp1705
sg63
g1699
sg56
(lp1706
g49
(g50
g51
NtRp1707
(dp1708
g54
(dp1709
g62
I3
ssg63
g1703
sg56
(lp1710
S'1'
asbasbasbag49
(g65
g51
NtRp1711
(dp1712
g54
(dp1713
sg63
g1695
sg56
(lp1714
g49
(g70
g51
NtRp1715
(dp1716
g54
(dp1717
sg63
g1711
sg56
(lp1718
g49
(g50
g51
NtRp1719
(dp1720
g54
(dp1721
g62
I3
ssg63
g1715
sg56
(lp1722
S'0'
asbasbasbasbasbasbasbasbasbasbasbag49
(g65
g51
NtRp1723
(dp1724
g54
(dp1725
sg63
g59
sg56
(lp1726
g49
(g70
g51
NtRp1727
(dp1728
g54
(dp1729
g74
g75
ssg63
g1723
sg56
(lp1730
S'extension'
p1731
asbag49
(g70
g51
NtRp1732
(dp1733
g54
(dp1734
g81
g82
ssg63
g1723
sg56
(lp1735
S':'
asbag49
(g70
g51
NtRp1736
(dp1737
g54
(dp1738
sg63
g1723
sg56
(lp1739
g49
(g50
g51
NtRp1740
(dp1741
g54
(dp1742
g62
I5
ssg63
g1736
sg56
(lp1743
S'html'
p1744
asbasbasbag49
(g65
g51
NtRp1745
(dp1746
g54
(dp1747
sg63
g59
sg56
(lp1748
g49
(g70
g51
NtRp1749
(dp1750
g54
(dp1751
g74
g75
ssg63
g1745
sg56
(lp1752
S'folder'
p1753
asbag49
(g70
g51
NtRp1754
(dp1755
g54
(dp1756
g81
g82
ssg63
g1745
sg56
(lp1757
S':'
asbag49
(g70
g51
NtRp1758
(dp1759
g54
(dp1760
sg63
g1745
sg56
(lp1761
g49
(g50
g51
NtRp1762
(dp1763
g54
(dp1764
g62
I5
ssg63
g1758
sg56
(lp1765
S'C:\\web2py\\applications\\unioeste_code\\'
p1766
asbasbasbag49
(g65
g51
NtRp1767
(dp1768
g54
(dp1769
sg63
g59
sg56
(lp1770
g49
(g70
g51
NtRp1771
(dp1772
g54
(dp1773
g74
g75
ssg63
g1767
sg56
(lp1774
S'function'
p1775
asbag49
(g70
g51
NtRp1776
(dp1777
g54
(dp1778
g81
g82
ssg63
g1767
sg56
(lp1779
S':'
asbag49
(g70
g51
NtRp1780
(dp1781
g54
(dp1782
sg63
g1767
sg56
(lp1783
g49
(g50
g51
NtRp1784
(dp1785
g54
(dp1786
g62
I5
ssg63
g1780
sg56
(lp1787
S'index'
p1788
asbasbasbag49
(g65
g51
NtRp1789
(dp1790
g54
(dp1791
sg63
g59
sg56
(lp1792
g49
(g70
g51
NtRp1793
(dp1794
g54
(dp1795
g74
g75
ssg63
g1789
sg56
(lp1796
S'get_vars'
p1797
asbag49
(g70
g51
NtRp1798
(dp1799
g54
(dp1800
g81
g82
ssg63
g1789
sg56
(lp1801
S':'
asbag49
(g70
g51
NtRp1802
(dp1803
g54
(dp1804
sg63
g1789
sg56
(lp1805
g49
(g50
g51
NtRp1806
(dp1807
g54
(dp1808
g62
I5
ssg63
g1802
sg56
(lp1809
g49
(g58
g51
NtRp1810
(dp1811
g54
(dp1812
g62
I4
ssg63
Nsg56
(lp1813
sbasbasbasbag49
(g65
g51
NtRp1814
(dp1815
g54
(dp1816
sg63
g59
sg56
(lp1817
g49
(g70
g51
NtRp1818
(dp1819
g54
(dp1820
g74
g75
ssg63
g1814
sg56
(lp1821
S'global_settings'
p1822
asbag49
(g70
g51
NtRp1823
(dp1824
g54
(dp1825
g81
g82
ssg63
g1814
sg56
(lp1826
S':'
asbag49
(g70
g51
NtRp1827
(dp1828
g54
(dp1829
sg63
g1814
sg56
(lp1830
g49
(g50
g51
NtRp1831
(dp1832
g54
(dp1833
g62
I5
ssg63
g1827
sg56
(lp1834
g49
(g58
g51
NtRp1835
(dp1836
g54
(dp1837
g62
I4
ssg63
Nsg56
(lp1838
g49
(g65
g51
NtRp1839
(dp1840
g54
(dp1841
sg63
g1835
sg56
(lp1842
g49
(g70
g51
NtRp1843
(dp1844
g54
(dp1845
g74
g75
ssg63
g1839
sg56
(lp1846
g765
asbag49
(g70
g51
NtRp1847
(dp1848
g54
(dp1849
g81
g82
ssg63
g1839
sg56
(lp1850
S':'
asbag49
(g70
g51
NtRp1851
(dp1852
g54
(dp1853
sg63
g1839
sg56
(lp1854
g49
(g50
g51
NtRp1855
(dp1856
g54
(dp1857
g62
I4
ssg63
g1851
sg56
(lp1858
S"set(['C:\\\\web2py\\\\applications\\\\admin\\\\', 'C:\\\\web2py\\\\applications\\\\welcome\\\\', 'C:\\\\web2py\\\\applications\\\\unioeste_code\\\\'])"
p1859
asbasbasbag49
(g65
g51
NtRp1860
(dp1861
g54
(dp1862
sg63
g1835
sg56
(lp1863
g49
(g70
g51
NtRp1864
(dp1865
g54
(dp1866
g74
g75
ssg63
g1860
sg56
(lp1867
g787
asbag49
(g70
g51
NtRp1868
(dp1869
g54
(dp1870
g81
g82
ssg63
g1860
sg56
(lp1871
S':'
asbag49
(g70
g51
NtRp1872
(dp1873
g54
(dp1874
sg63
g1860
sg56
(lp1875
g49
(g50
g51
NtRp1876
(dp1877
g54
(dp1878
g62
I4
ssg63
g1872
sg56
(lp1879
g800
asbasbasbag49
(g65
g51
NtRp1880
(dp1881
g54
(dp1882
sg63
g1835
sg56
(lp1883
g49
(g70
g51
NtRp1884
(dp1885
g54
(dp1886
g74
g75
ssg63
g1880
sg56
(lp1887
g809
asbag49
(g70
g51
NtRp1888
(dp1889
g54
(dp1890
g81
g82
ssg63
g1880
sg56
(lp1891
S':'
asbag49
(g70
g51
NtRp1892
(dp1893
g54
(dp1894
sg63
g1880
sg56
(lp1895
g49
(g50
g51
NtRp1896
(dp1897
g54
(dp1898
g62
I4
ssg63
g1892
sg56
(lp1899
g49
(g58
g51
NtRp1900
(dp1901
g54
(dp1902
g62
I3
ssg63
Nsg56
(lp1903
sbasbasbasbag49
(g65
g51
NtRp1904
(dp1905
g54
(dp1906
sg63
g1835
sg56
(lp1907
g49
(g70
g51
NtRp1908
(dp1909
g54
(dp1910
g74
g75
ssg63
g1904
sg56
(lp1911
g834
asbag49
(g70
g51
NtRp1912
(dp1913
g54
(dp1914
g81
g82
ssg63
g1904
sg56
(lp1915
S':'
asbag49
(g70
g51
NtRp1916
(dp1917
g54
(dp1918
sg63
g1904
sg56
(lp1919
g49
(g50
g51
NtRp1920
(dp1921
g54
(dp1922
g62
I4
ssg63
g1916
sg56
(lp1923
S"<Values at 0x31dc300: {'verbose': False, 'ip': '127.0.0.1', 'shutdown_timeout': 5, 'taskbar': False, 'nocron': False, 'pid_filename': 'httpserver.pid', 'maxthreads': None, 'softcron': False, 'server_name': 'Pedro-PC', 'bpython': False, 'nogui': False, 'port': 8000, 'extcron': False, 'debuglevel': 30, 'test': None, 'folder': 'C:\\\\web2py', 'config': '', 'import_models': False, 'winservice': '', 'shell': None, 'run': '', 'log_filename': 'httpserver.log', 'args': [''], 'socket_timeout': 5, 'ssl_ca_certificate': None, 'scheduler': None, 'profiler_filename': None, 'ssl_private_key': '', 'password': '<ask>', 'request_queue_size': 5, 'ssl_certificate': '', 'cronjob': False, 'numthreads': None, 'quiet': False, 'interfaces': None, 'minthreads': None, 'timeout': 10, 'plain': False, 'nobanner': False}>"
p1924
asbasbasbag49
(g65
g51
NtRp1925
(dp1926
g54
(dp1927
sg63
g1835
sg56
(lp1928
g49
(g70
g51
NtRp1929
(dp1930
g54
(dp1931
g74
g75
ssg63
g1925
sg56
(lp1932
g856
asbag49
(g70
g51
NtRp1933
(dp1934
g54
(dp1935
g81
g82
ssg63
g1925
sg56
(lp1936
S':'
asbag49
(g70
g51
NtRp1937
(dp1938
g54
(dp1939
sg63
g1925
sg56
(lp1940
g49
(g50
g51
NtRp1941
(dp1942
g54
(dp1943
g62
I4
ssg63
g1937
sg56
(lp1944
S'set([])'
p1945
asbasbasbag49
(g65
g51
NtRp1946
(dp1947
g54
(dp1948
sg63
g1835
sg56
(lp1949
g49
(g70
g51
NtRp1950
(dp1951
g54
(dp1952
g74
g75
ssg63
g1946
sg56
(lp1953
g878
asbag49
(g70
g51
NtRp1954
(dp1955
g54
(dp1956
g81
g82
ssg63
g1946
sg56
(lp1957
S':'
asbag49
(g70
g51
NtRp1958
(dp1959
g54
(dp1960
sg63
g1946
sg56
(lp1961
g49
(g50
g51
NtRp1962
(dp1963
g54
(dp1964
g62
I4
ssg63
g1958
sg56
(lp1965
g92
asbasbasbag49
(g65
g51
NtRp1966
(dp1967
g54
(dp1968
sg63
g1835
sg56
(lp1969
g49
(g70
g51
NtRp1970
(dp1971
g54
(dp1972
g74
g75
ssg63
g1966
sg56
(lp1973
g899
asbag49
(g70
g51
NtRp1974
(dp1975
g54
(dp1976
g81
g82
ssg63
g1966
sg56
(lp1977
S':'
asbag49
(g70
g51
NtRp1978
(dp1979
g54
(dp1980
sg63
g1966
sg56
(lp1981
g49
(g50
g51
NtRp1982
(dp1983
g54
(dp1984
g62
I4
ssg63
g1978
sg56
(lp1985
g912
asbasbasbag49
(g65
g51
NtRp1986
(dp1987
g54
(dp1988
sg63
g1835
sg56
(lp1989
g49
(g70
g51
NtRp1990
(dp1991
g54
(dp1992
g74
g75
ssg63
g1986
sg56
(lp1993
g1140
asbag49
(g70
g51
NtRp1994
(dp1995
g54
(dp1996
g81
g82
ssg63
g1986
sg56
(lp1997
S':'
asbag49
(g70
g51
NtRp1998
(dp1999
g54
(dp2000
sg63
g1986
sg56
(lp2001
g49
(g50
g51
NtRp2002
(dp2003
g54
(dp2004
g62
I4
ssg63
g1998
sg56
(lp2005
g92
asbasbasbag49
(g65
g51
NtRp2006
(dp2007
g54
(dp2008
sg63
g1835
sg56
(lp2009
g49
(g70
g51
NtRp2010
(dp2011
g54
(dp2012
g74
g75
ssg63
g2006
sg56
(lp2013
g1161
asbag49
(g70
g51
NtRp2014
(dp2015
g54
(dp2016
g81
g82
ssg63
g2006
sg56
(lp2017
S':'
asbag49
(g70
g51
NtRp2018
(dp2019
g54
(dp2020
sg63
g2006
sg56
(lp2021
g49
(g50
g51
NtRp2022
(dp2023
g54
(dp2024
g62
I4
ssg63
g2018
sg56
(lp2025
g92
asbasbasbag49
(g65
g51
NtRp2026
(dp2027
g54
(dp2028
sg63
g1835
sg56
(lp2029
g49
(g70
g51
NtRp2030
(dp2031
g54
(dp2032
g74
g75
ssg63
g2026
sg56
(lp2033
g1399
asbag49
(g70
g51
NtRp2034
(dp2035
g54
(dp2036
g81
g82
ssg63
g2026
sg56
(lp2037
S':'
asbag49
(g70
g51
NtRp2038
(dp2039
g54
(dp2040
sg63
g2026
sg56
(lp2041
g49
(g50
g51
NtRp2042
(dp2043
g54
(dp2044
g62
I4
ssg63
g2038
sg56
(lp2045
g1412
asbasbasbag49
(g65
g51
NtRp2046
(dp2047
g54
(dp2048
sg63
g1835
sg56
(lp2049
g49
(g70
g51
NtRp2050
(dp2051
g54
(dp2052
g74
g75
ssg63
g2046
sg56
(lp2053
g1442
asbag49
(g70
g51
NtRp2054
(dp2055
g54
(dp2056
g81
g82
ssg63
g2046
sg56
(lp2057
S':'
asbag49
(g70
g51
NtRp2058
(dp2059
g54
(dp2060
sg63
g2046
sg56
(lp2061
g49
(g50
g51
NtRp2062
(dp2063
g54
(dp2064
g62
I4
ssg63
g2058
sg56
(lp2065
g49
(g58
g51
NtRp2066
(dp2067
g54
(dp2068
g62
I3
ssg63
Nsg56
(lp2069
g49
(g65
g51
NtRp2070
(dp2071
g54
(dp2072
sg63
g2066
sg56
(lp2073
g49
(g70
g51
NtRp2074
(dp2075
g54
(dp2076
sg63
g2070
sg56
(lp2077
g49
(g50
g51
NtRp2078
(dp2079
g54
(dp2080
g62
I3
ssg63
g2074
sg56
(lp2081
S'1'
asbasbasbag49
(g65
g51
NtRp2082
(dp2083
g54
(dp2084
sg63
g2066
sg56
(lp2085
g49
(g70
g51
NtRp2086
(dp2087
g54
(dp2088
sg63
g2082
sg56
(lp2089
g49
(g50
g51
NtRp2090
(dp2091
g54
(dp2092
g62
I3
ssg63
g2086
sg56
(lp2093
S'99'
p2094
asbasbasbag49
(g65
g51
NtRp2095
(dp2096
g54
(dp2097
sg63
g2066
sg56
(lp2098
g49
(g70
g51
NtRp2099
(dp2100
g54
(dp2101
sg63
g2095
sg56
(lp2102
g49
(g50
g51
NtRp2103
(dp2104
g54
(dp2105
g62
I3
ssg63
g2099
sg56
(lp2106
S'7'
asbasbasbag49
(g65
g51
NtRp2107
(dp2108
g54
(dp2109
sg63
g2066
sg56
(lp2110
g49
(g70
g51
NtRp2111
(dp2112
g54
(dp2113
sg63
g2107
sg56
(lp2114
g49
(g50
g51
NtRp2115
(dp2116
g54
(dp2117
g62
I3
ssg63
g2111
sg56
(lp2118
S'datetime.datetime(2012, 3, 4, 22, 12, 8)'
p2119
asbasbasbag49
(g65
g51
NtRp2120
(dp2121
g54
(dp2122
sg63
g2066
sg56
(lp2123
g49
(g70
g51
NtRp2124
(dp2125
g54
(dp2126
sg63
g2120
sg56
(lp2127
g49
(g50
g51
NtRp2128
(dp2129
g54
(dp2130
g62
I3
ssg63
g2124
sg56
(lp2131
g1521
asbasbasbasbasbasbasbasbasbasbasbag49
(g65
g51
NtRp2132
(dp2133
g54
(dp2134
sg63
g59
sg56
(lp2135
g49
(g70
g51
NtRp2136
(dp2137
g54
(dp2138
g74
g75
ssg63
g2132
sg56
(lp2139
S'is_https'
p2140
asbag49
(g70
g51
NtRp2141
(dp2142
g54
(dp2143
g81
g82
ssg63
g2132
sg56
(lp2144
S':'
asbag49
(g70
g51
NtRp2145
(dp2146
g54
(dp2147
sg63
g2132
sg56
(lp2148
g49
(g50
g51
NtRp2149
(dp2150
g54
(dp2151
g62
I5
ssg63
g2145
sg56
(lp2152
g92
asbasbasbag49
(g65
g51
NtRp2153
(dp2154
g54
(dp2155
sg63
g59
sg56
(lp2156
g49
(g70
g51
NtRp2157
(dp2158
g54
(dp2159
g74
g75
ssg63
g2153
sg56
(lp2160
S'is_local'
p2161
asbag49
(g70
g51
NtRp2162
(dp2163
g54
(dp2164
g81
g82
ssg63
g2153
sg56
(lp2165
S':'
asbag49
(g70
g51
NtRp2166
(dp2167
g54
(dp2168
sg63
g2153
sg56
(lp2169
g49
(g50
g51
NtRp2170
(dp2171
g54
(dp2172
g62
I5
ssg63
g2166
sg56
(lp2173
g1630
asbasbasbag49
(g65
g51
NtRp2174
(dp2175
g54
(dp2176
sg63
g59
sg56
(lp2177
g49
(g70
g51
NtRp2178
(dp2179
g54
(dp2180
g74
g75
ssg63
g2174
sg56
(lp2181
S'is_restful'
p2182
asbag49
(g70
g51
NtRp2183
(dp2184
g54
(dp2185
g81
g82
ssg63
g2174
sg56
(lp2186
S':'
asbag49
(g70
g51
NtRp2187
(dp2188
g54
(dp2189
sg63
g2174
sg56
(lp2190
g49
(g50
g51
NtRp2191
(dp2192
g54
(dp2193
g62
I5
ssg63
g2187
sg56
(lp2194
g92
asbasbasbag49
(g65
g51
NtRp2195
(dp2196
g54
(dp2197
sg63
g59
sg56
(lp2198
g49
(g70
g51
NtRp2199
(dp2200
g54
(dp2201
g74
g75
ssg63
g2195
sg56
(lp2202
S'now'
p2203
asbag49
(g70
g51
NtRp2204
(dp2205
g54
(dp2206
g81
g82
ssg63
g2195
sg56
(lp2207
S':'
asbag49
(g70
g51
NtRp2208
(dp2209
g54
(dp2210
sg63
g2195
sg56
(lp2211
g49
(g50
g51
NtRp2212
(dp2213
g54
(dp2214
g62
I5
ssg63
g2208
sg56
(lp2215
S'datetime.datetime(2012, 7, 30, 22, 56, 10, 249000)'
p2216
asbasbasbag49
(g65
g51
NtRp2217
(dp2218
g54
(dp2219
sg63
g59
sg56
(lp2220
g49
(g70
g51
NtRp2221
(dp2222
g54
(dp2223
g74
g75
ssg63
g2217
sg56
(lp2224
S'post_vars'
p2225
asbag49
(g70
g51
NtRp2226
(dp2227
g54
(dp2228
g81
g82
ssg63
g2217
sg56
(lp2229
S':'
asbag49
(g70
g51
NtRp2230
(dp2231
g54
(dp2232
sg63
g2217
sg56
(lp2233
g49
(g50
g51
NtRp2234
(dp2235
g54
(dp2236
g62
I5
ssg63
g2230
sg56
(lp2237
g49
(g58
g51
NtRp2238
(dp2239
g54
(dp2240
g62
I4
ssg63
Nsg56
(lp2241
sbasbasbasbag49
(g65
g51
NtRp2242
(dp2243
g54
(dp2244
sg63
g59
sg56
(lp2245
g49
(g70
g51
NtRp2246
(dp2247
g54
(dp2248
g74
g75
ssg63
g2242
sg56
(lp2249
S'url'
p2250
asbag49
(g70
g51
NtRp2251
(dp2252
g54
(dp2253
g81
g82
ssg63
g2242
sg56
(lp2254
S':'
asbag49
(g70
g51
NtRp2255
(dp2256
g54
(dp2257
sg63
g2242
sg56
(lp2258
g49
(g50
g51
NtRp2259
(dp2260
g54
(dp2261
g62
I5
ssg63
g2255
sg56
(lp2262
S'/unioeste_code/default/index'
p2263
asbasbasbag49
(g65
g51
NtRp2264
(dp2265
g54
(dp2266
sg63
g59
sg56
(lp2267
g49
(g70
g51
NtRp2268
(dp2269
g54
(dp2270
g74
g75
ssg63
g2264
sg56
(lp2271
S'utcnow'
p2272
asbag49
(g70
g51
NtRp2273
(dp2274
g54
(dp2275
g81
g82
ssg63
g2264
sg56
(lp2276
S':'
asbag49
(g70
g51
NtRp2277
(dp2278
g54
(dp2279
sg63
g2264
sg56
(lp2280
g49
(g50
g51
NtRp2281
(dp2282
g54
(dp2283
g62
I5
ssg63
g2277
sg56
(lp2284
S'datetime.datetime(2012, 7, 31, 1, 56, 10, 249000)'
p2285
asbasbasbag49
(g65
g51
NtRp2286
(dp2287
g54
(dp2288
sg63
g59
sg56
(lp2289
g49
(g70
g51
NtRp2290
(dp2291
g54
(dp2292
g74
g75
ssg63
g2286
sg56
(lp2293
S'uuid'
p2294
asbag49
(g70
g51
NtRp2295
(dp2296
g54
(dp2297
g81
g82
ssg63
g2286
sg56
(lp2298
S':'
asbag49
(g70
g51
NtRp2299
(dp2300
g54
(dp2301
sg63
g2286
sg56
(lp2302
g49
(g50
g51
NtRp2303
(dp2304
g54
(dp2305
g62
I5
ssg63
g2299
sg56
(lp2306
S'unioeste_code/127.0.0.1.2012-07-30.22-56-10.d66f48e5-3367-40a8-b2f8-9ca78e57e542'
p2307
asbasbasbag49
(g65
g51
NtRp2308
(dp2309
g54
(dp2310
sg63
g59
sg56
(lp2311
g49
(g70
g51
NtRp2312
(dp2313
g54
(dp2314
g74
g75
ssg63
g2308
sg56
(lp2315
S'vars'
p2316
asbag49
(g70
g51
NtRp2317
(dp2318
g54
(dp2319
g81
g82
ssg63
g2308
sg56
(lp2320
S':'
asbag49
(g70
g51
NtRp2321
(dp2322
g54
(dp2323
sg63
g2308
sg56
(lp2324
g49
(g50
g51
NtRp2325
(dp2326
g54
(dp2327
g62
I5
ssg63
g2321
sg56
(lp2328
g49
(g58
g51
NtRp2329
(dp2330
g54
(dp2331
g62
I4
ssg63
Nsg56
(lp2332
sbasbasbasbag49
(g65
g51
NtRp2333
(dp2334
g54
(dp2335
sg63
g59
sg56
(lp2336
g49
(g70
g51
NtRp2337
(dp2338
g54
(dp2339
g74
g75
ssg63
g2333
sg56
(lp2340
S'wsgi'
p2341
asbag49
(g70
g51
NtRp2342
(dp2343
g54
(dp2344
g81
g82
ssg63
g2333
sg56
(lp2345
S':'
asbag49
(g70
g51
NtRp2346
(dp2347
g54
(dp2348
sg63
g2333
sg56
(lp2349
g49
(g50
g51
NtRp2350
(dp2351
g54
(dp2352
g62
I5
ssg63
g2346
sg56
(lp2353
g49
(g58
g51
NtRp2354
(dp2355
g54
(dp2356
g62
I4
ssg63
Nsg56
(lp2357
g49
(g65
g51
NtRp2358
(dp2359
g54
(dp2360
sg63
g2354
sg56
(lp2361
g49
(g70
g51
NtRp2362
(dp2363
g54
(dp2364
g74
g75
ssg63
g2358
sg56
(lp2365
S'environ'
p2366
asbag49
(g70
g51
NtRp2367
(dp2368
g54
(dp2369
g81
g82
ssg63
g2358
sg56
(lp2370
S':'
asbag49
(g70
g51
NtRp2371
(dp2372
g54
(dp2373
sg63
g2358
sg56
(lp2374
g49
(g50
g51
NtRp2375
(dp2376
g54
(dp2377
g62
I4
ssg63
g2371
sg56
(lp2378
g49
(g58
g51
NtRp2379
(dp2380
g54
(dp2381
g62
I3
ssg63
Nsg56
(lp2382
g49
(g65
g51
NtRp2383
(dp2384
g54
(dp2385
sg63
g2379
sg56
(lp2386
g49
(g70
g51
NtRp2387
(dp2388
g54
(dp2389
g74
g75
ssg63
g2383
sg56
(lp2390
S'HTTP_ACCEPT'
p2391
asbag49
(g70
g51
NtRp2392
(dp2393
g54
(dp2394
g81
g82
ssg63
g2383
sg56
(lp2395
S':'
asbag49
(g70
g51
NtRp2396
(dp2397
g54
(dp2398
sg63
g2383
sg56
(lp2399
g49
(g50
g51
NtRp2400
(dp2401
g54
(dp2402
g62
I3
ssg63
g2396
sg56
(lp2403
g934
asbasbasbag49
(g65
g51
NtRp2404
(dp2405
g54
(dp2406
sg63
g2379
sg56
(lp2407
g49
(g70
g51
NtRp2408
(dp2409
g54
(dp2410
g74
g75
ssg63
g2404
sg56
(lp2411
S'HTTP_ACCEPT_CHARSET'
p2412
asbag49
(g70
g51
NtRp2413
(dp2414
g54
(dp2415
g81
g82
ssg63
g2404
sg56
(lp2416
S':'
asbag49
(g70
g51
NtRp2417
(dp2418
g54
(dp2419
sg63
g2404
sg56
(lp2420
g49
(g50
g51
NtRp2421
(dp2422
g54
(dp2423
g62
I3
ssg63
g2417
sg56
(lp2424
g956
asbasbasbag49
(g65
g51
NtRp2425
(dp2426
g54
(dp2427
sg63
g2379
sg56
(lp2428
g49
(g70
g51
NtRp2429
(dp2430
g54
(dp2431
g74
g75
ssg63
g2425
sg56
(lp2432
S'HTTP_ACCEPT_ENCODING'
p2433
asbag49
(g70
g51
NtRp2434
(dp2435
g54
(dp2436
g81
g82
ssg63
g2425
sg56
(lp2437
S':'
asbag49
(g70
g51
NtRp2438
(dp2439
g54
(dp2440
sg63
g2425
sg56
(lp2441
g49
(g50
g51
NtRp2442
(dp2443
g54
(dp2444
g62
I3
ssg63
g2438
sg56
(lp2445
g978
asbasbasbag49
(g65
g51
NtRp2446
(dp2447
g54
(dp2448
sg63
g2379
sg56
(lp2449
g49
(g70
g51
NtRp2450
(dp2451
g54
(dp2452
g74
g75
ssg63
g2446
sg56
(lp2453
S'HTTP_ACCEPT_LANGUAGE'
p2454
asbag49
(g70
g51
NtRp2455
(dp2456
g54
(dp2457
g81
g82
ssg63
g2446
sg56
(lp2458
S':'
asbag49
(g70
g51
NtRp2459
(dp2460
g54
(dp2461
sg63
g2446
sg56
(lp2462
g49
(g50
g51
NtRp2463
(dp2464
g54
(dp2465
g62
I3
ssg63
g2459
sg56
(lp2466
g1000
asbasbasbag49
(g65
g51
NtRp2467
(dp2468
g54
(dp2469
sg63
g2379
sg56
(lp2470
g49
(g70
g51
NtRp2471
(dp2472
g54
(dp2473
g74
g75
ssg63
g2467
sg56
(lp2474
S'HTTP_CACHE_CONTROL'
p2475
asbag49
(g70
g51
NtRp2476
(dp2477
g54
(dp2478
g81
g82
ssg63
g2467
sg56
(lp2479
S':'
asbag49
(g70
g51
NtRp2480
(dp2481
g54
(dp2482
sg63
g2467
sg56
(lp2483
g49
(g50
g51
NtRp2484
(dp2485
g54
(dp2486
g62
I3
ssg63
g2480
sg56
(lp2487
g1022
asbasbasbag49
(g65
g51
NtRp2488
(dp2489
g54
(dp2490
sg63
g2379
sg56
(lp2491
g49
(g70
g51
NtRp2492
(dp2493
g54
(dp2494
g74
g75
ssg63
g2488
sg56
(lp2495
S'HTTP_CONNECTION'
p2496
asbag49
(g70
g51
NtRp2497
(dp2498
g54
(dp2499
g81
g82
ssg63
g2488
sg56
(lp2500
S':'
asbag49
(g70
g51
NtRp2501
(dp2502
g54
(dp2503
sg63
g2488
sg56
(lp2504
g49
(g50
g51
NtRp2505
(dp2506
g54
(dp2507
g62
I3
ssg63
g2501
sg56
(lp2508
g1044
asbasbasbag49
(g65
g51
NtRp2509
(dp2510
g54
(dp2511
sg63
g2379
sg56
(lp2512
g49
(g70
g51
NtRp2513
(dp2514
g54
(dp2515
g74
g75
ssg63
g2509
sg56
(lp2516
S'HTTP_COOKIE'
p2517
asbag49
(g70
g51
NtRp2518
(dp2519
g54
(dp2520
g81
g82
ssg63
g2509
sg56
(lp2521
S':'
asbag49
(g70
g51
NtRp2522
(dp2523
g54
(dp2524
sg63
g2509
sg56
(lp2525
g49
(g50
g51
NtRp2526
(dp2527
g54
(dp2528
g62
I3
ssg63
g2522
sg56
(lp2529
g1066
asbasbasbag49
(g65
g51
NtRp2530
(dp2531
g54
(dp2532
sg63
g2379
sg56
(lp2533
g49
(g70
g51
NtRp2534
(dp2535
g54
(dp2536
g74
g75
ssg63
g2530
sg56
(lp2537
S'HTTP_DNT'
p2538
asbag49
(g70
g51
NtRp2539
(dp2540
g54
(dp2541
g81
g82
ssg63
g2530
sg56
(lp2542
S':'
asbag49
(g70
g51
NtRp2543
(dp2544
g54
(dp2545
sg63
g2530
sg56
(lp2546
g49
(g50
g51
NtRp2547
(dp2548
g54
(dp2549
g62
I3
ssg63
g2543
sg56
(lp2550
S'1'
asbasbasbag49
(g65
g51
NtRp2551
(dp2552
g54
(dp2553
sg63
g2379
sg56
(lp2554
g49
(g70
g51
NtRp2555
(dp2556
g54
(dp2557
g74
g75
ssg63
g2551
sg56
(lp2558
S'HTTP_HOST'
p2559
asbag49
(g70
g51
NtRp2560
(dp2561
g54
(dp2562
g81
g82
ssg63
g2551
sg56
(lp2563
S':'
asbag49
(g70
g51
NtRp2564
(dp2565
g54
(dp2566
sg63
g2551
sg56
(lp2567
g49
(g50
g51
NtRp2568
(dp2569
g54
(dp2570
g62
I3
ssg63
g2564
sg56
(lp2571
g1109
asbasbasbag49
(g65
g51
NtRp2572
(dp2573
g54
(dp2574
sg63
g2379
sg56
(lp2575
g49
(g70
g51
NtRp2576
(dp2577
g54
(dp2578
g74
g75
ssg63
g2572
sg56
(lp2579
S'HTTP_USER_AGENT'
p2580
asbag49
(g70
g51
NtRp2581
(dp2582
g54
(dp2583
g81
g82
ssg63
g2572
sg56
(lp2584
S':'
asbag49
(g70
g51
NtRp2585
(dp2586
g54
(dp2587
sg63
g2572
sg56
(lp2588
g49
(g50
g51
NtRp2589
(dp2590
g54
(dp2591
g62
I3
ssg63
g2585
sg56
(lp2592
g1131
asbasbasbag49
(g65
g51
NtRp2593
(dp2594
g54
(dp2595
sg63
g2379
sg56
(lp2596
g49
(g70
g51
NtRp2597
(dp2598
g54
(dp2599
g74
g75
ssg63
g2593
sg56
(lp2600
S'PATH_INFO'
p2601
asbag49
(g70
g51
NtRp2602
(dp2603
g54
(dp2604
g81
g82
ssg63
g2593
sg56
(lp2605
S':'
asbag49
(g70
g51
NtRp2606
(dp2607
g54
(dp2608
sg63
g2593
sg56
(lp2609
g49
(g50
g51
NtRp2610
(dp2611
g54
(dp2612
g62
I3
ssg63
g2606
sg56
(lp2613
g1195
asbasbasbag49
(g65
g51
NtRp2614
(dp2615
g54
(dp2616
sg63
g2379
sg56
(lp2617
g49
(g70
g51
NtRp2618
(dp2619
g54
(dp2620
g74
g75
ssg63
g2614
sg56
(lp2621
S'QUERY_STRING'
p2622
asbag49
(g70
g51
NtRp2623
(dp2624
g54
(dp2625
g81
g82
ssg63
g2614
sg56
(lp2626
S':'
asbag49
(g70
g51
NtRp2627
(dp2628
g54
(dp2629
sg63
g2614
sg56
(lp2630
g49
(g50
g51
NtRp2631
(dp2632
g54
(dp2633
g62
I3
ssg63
g2627
sg56
(lp2634
S''
asbasbasbag49
(g65
g51
NtRp2635
(dp2636
g54
(dp2637
sg63
g2379
sg56
(lp2638
g49
(g70
g51
NtRp2639
(dp2640
g54
(dp2641
g74
g75
ssg63
g2635
sg56
(lp2642
S'REMOTE_ADDR'
p2643
asbag49
(g70
g51
NtRp2644
(dp2645
g54
(dp2646
g81
g82
ssg63
g2635
sg56
(lp2647
S':'
asbag49
(g70
g51
NtRp2648
(dp2649
g54
(dp2650
sg63
g2635
sg56
(lp2651
g49
(g50
g51
NtRp2652
(dp2653
g54
(dp2654
g62
I3
ssg63
g2648
sg56
(lp2655
g182
asbasbasbag49
(g65
g51
NtRp2656
(dp2657
g54
(dp2658
sg63
g2379
sg56
(lp2659
g49
(g70
g51
NtRp2660
(dp2661
g54
(dp2662
g74
g75
ssg63
g2656
sg56
(lp2663
S'REMOTE_PORT'
p2664
asbag49
(g70
g51
NtRp2665
(dp2666
g54
(dp2667
g81
g82
ssg63
g2656
sg56
(lp2668
S':'
asbag49
(g70
g51
NtRp2669
(dp2670
g54
(dp2671
sg63
g2656
sg56
(lp2672
g49
(g50
g51
NtRp2673
(dp2674
g54
(dp2675
g62
I3
ssg63
g2669
sg56
(lp2676
g1259
asbasbasbag49
(g65
g51
NtRp2677
(dp2678
g54
(dp2679
sg63
g2379
sg56
(lp2680
g49
(g70
g51
NtRp2681
(dp2682
g54
(dp2683
g74
g75
ssg63
g2677
sg56
(lp2684
S'REQUEST_METHOD'
p2685
asbag49
(g70
g51
NtRp2686
(dp2687
g54
(dp2688
g81
g82
ssg63
g2677
sg56
(lp2689
S':'
asbag49
(g70
g51
NtRp2690
(dp2691
g54
(dp2692
sg63
g2677
sg56
(lp2693
g49
(g50
g51
NtRp2694
(dp2695
g54
(dp2696
g62
I3
ssg63
g2690
sg56
(lp2697
g1281
asbasbasbag49
(g65
g51
NtRp2698
(dp2699
g54
(dp2700
sg63
g2379
sg56
(lp2701
g49
(g70
g51
NtRp2702
(dp2703
g54
(dp2704
g74
g75
ssg63
g2698
sg56
(lp2705
S'SCRIPT_NAME'
p2706
asbag49
(g70
g51
NtRp2707
(dp2708
g54
(dp2709
g81
g82
ssg63
g2698
sg56
(lp2710
S':'
asbag49
(g70
g51
NtRp2711
(dp2712
g54
(dp2713
sg63
g2698
sg56
(lp2714
g49
(g50
g51
NtRp2715
(dp2716
g54
(dp2717
g62
I3
ssg63
g2711
sg56
(lp2718
S''
asbasbasbag49
(g65
g51
NtRp2719
(dp2720
g54
(dp2721
sg63
g2379
sg56
(lp2722
g49
(g70
g51
NtRp2723
(dp2724
g54
(dp2725
g74
g75
ssg63
g2719
sg56
(lp2726
S'SERVER_NAME'
p2727
asbag49
(g70
g51
NtRp2728
(dp2729
g54
(dp2730
g81
g82
ssg63
g2719
sg56
(lp2731
S':'
asbag49
(g70
g51
NtRp2732
(dp2733
g54
(dp2734
sg63
g2719
sg56
(lp2735
g49
(g50
g51
NtRp2736
(dp2737
g54
(dp2738
g62
I3
ssg63
g2732
sg56
(lp2739
g1324
asbasbasbag49
(g65
g51
NtRp2740
(dp2741
g54
(dp2742
sg63
g2379
sg56
(lp2743
g49
(g70
g51
NtRp2744
(dp2745
g54
(dp2746
g74
g75
ssg63
g2740
sg56
(lp2747
S'SERVER_PORT'
p2748
asbag49
(g70
g51
NtRp2749
(dp2750
g54
(dp2751
g81
g82
ssg63
g2740
sg56
(lp2752
S':'
asbag49
(g70
g51
NtRp2753
(dp2754
g54
(dp2755
sg63
g2740
sg56
(lp2756
g49
(g50
g51
NtRp2757
(dp2758
g54
(dp2759
g62
I3
ssg63
g2753
sg56
(lp2760
g1346
asbasbasbag49
(g65
g51
NtRp2761
(dp2762
g54
(dp2763
sg63
g2379
sg56
(lp2764
g49
(g70
g51
NtRp2765
(dp2766
g54
(dp2767
g74
g75
ssg63
g2761
sg56
(lp2768
S'SERVER_PROTOCOL'
p2769
asbag49
(g70
g51
NtRp2770
(dp2771
g54
(dp2772
g81
g82
ssg63
g2761
sg56
(lp2773
S':'
asbag49
(g70
g51
NtRp2774
(dp2775
g54
(dp2776
sg63
g2761
sg56
(lp2777
g49
(g50
g51
NtRp2778
(dp2779
g54
(dp2780
g62
I3
ssg63
g2774
sg56
(lp2781
g1368
asbasbasbag49
(g65
g51
NtRp2782
(dp2783
g54
(dp2784
sg63
g2379
sg56
(lp2785
g49
(g70
g51
NtRp2786
(dp2787
g54
(dp2788
g74
g75
ssg63
g2782
sg56
(lp2789
S'SERVER_SOFTWARE'
p2790
asbag49
(g70
g51
NtRp2791
(dp2792
g54
(dp2793
g81
g82
ssg63
g2782
sg56
(lp2794
S':'
asbag49
(g70
g51
NtRp2795
(dp2796
g54
(dp2797
sg63
g2782
sg56
(lp2798
g49
(g50
g51
NtRp2799
(dp2800
g54
(dp2801
g62
I3
ssg63
g2795
sg56
(lp2802
g1390
asbasbasbag49
(g65
g51
NtRp2803
(dp2804
g54
(dp2805
sg63
g2379
sg56
(lp2806
g49
(g70
g51
NtRp2807
(dp2808
g54
(dp2809
g74
g75
ssg63
g2803
sg56
(lp2810
S'wsgi.errors'
p2811
asbag49
(g70
g51
NtRp2812
(dp2813
g54
(dp2814
g81
g82
ssg63
g2803
sg56
(lp2815
S':'
asbag49
(g70
g51
NtRp2816
(dp2817
g54
(dp2818
sg63
g2803
sg56
(lp2819
g49
(g50
g51
NtRp2820
(dp2821
g54
(dp2822
g62
I3
ssg63
g2816
sg56
(lp2823
S'<__main__.Stderr object at 0x00356670>'
p2824
asbasbasbag49
(g65
g51
NtRp2825
(dp2826
g54
(dp2827
sg63
g2379
sg56
(lp2828
g49
(g70
g51
NtRp2829
(dp2830
g54
(dp2831
g74
g75
ssg63
g2825
sg56
(lp2832
S'wsgi.file_wrapper'
p2833
asbag49
(g70
g51
NtRp2834
(dp2835
g54
(dp2836
g81
g82
ssg63
g2825
sg56
(lp2837
S':'
asbag49
(g70
g51
NtRp2838
(dp2839
g54
(dp2840
sg63
g2825
sg56
(lp2841
g49
(g50
g51
NtRp2842
(dp2843
g54
(dp2844
g62
I3
ssg63
g2838
sg56
(lp2845
S'<class wsgiref.util.FileWrapper at 0x02FCDE10>'
p2846
asbasbasbag49
(g65
g51
NtRp2847
(dp2848
g54
(dp2849
sg63
g2379
sg56
(lp2850
g49
(g70
g51
NtRp2851
(dp2852
g54
(dp2853
g74
g75
ssg63
g2847
sg56
(lp2854
S'wsgi.input'
p2855
asbag49
(g70
g51
NtRp2856
(dp2857
g54
(dp2858
g81
g82
ssg63
g2847
sg56
(lp2859
S':'
asbag49
(g70
g51
NtRp2860
(dp2861
g54
(dp2862
sg63
g2847
sg56
(lp2863
g49
(g50
g51
NtRp2864
(dp2865
g54
(dp2866
g62
I3
ssg63
g2860
sg56
(lp2867
S'<cStringIO.StringO object at 0x0669CF80>'
p2868
asbasbasbag49
(g65
g51
NtRp2869
(dp2870
g54
(dp2871
sg63
g2379
sg56
(lp2872
g49
(g70
g51
NtRp2873
(dp2874
g54
(dp2875
g74
g75
ssg63
g2869
sg56
(lp2876
S'wsgi.multiprocess'
p2877
asbag49
(g70
g51
NtRp2878
(dp2879
g54
(dp2880
g81
g82
ssg63
g2869
sg56
(lp2881
S':'
asbag49
(g70
g51
NtRp2882
(dp2883
g54
(dp2884
sg63
g2869
sg56
(lp2885
g49
(g50
g51
NtRp2886
(dp2887
g54
(dp2888
g62
I3
ssg63
g2882
sg56
(lp2889
g92
asbasbasbag49
(g65
g51
NtRp2890
(dp2891
g54
(dp2892
sg63
g2379
sg56
(lp2893
g49
(g70
g51
NtRp2894
(dp2895
g54
(dp2896
g74
g75
ssg63
g2890
sg56
(lp2897
S'wsgi.multithread'
p2898
asbag49
(g70
g51
NtRp2899
(dp2900
g54
(dp2901
g81
g82
ssg63
g2890
sg56
(lp2902
S':'
asbag49
(g70
g51
NtRp2903
(dp2904
g54
(dp2905
sg63
g2890
sg56
(lp2906
g49
(g50
g51
NtRp2907
(dp2908
g54
(dp2909
g62
I3
ssg63
g2903
sg56
(lp2910
g1630
asbasbasbag49
(g65
g51
NtRp2911
(dp2912
g54
(dp2913
sg63
g2379
sg56
(lp2914
g49
(g70
g51
NtRp2915
(dp2916
g54
(dp2917
g74
g75
ssg63
g2911
sg56
(lp2918
S'wsgi.run_once'
p2919
asbag49
(g70
g51
NtRp2920
(dp2921
g54
(dp2922
g81
g82
ssg63
g2911
sg56
(lp2923
S':'
asbag49
(g70
g51
NtRp2924
(dp2925
g54
(dp2926
sg63
g2911
sg56
(lp2927
g49
(g50
g51
NtRp2928
(dp2929
g54
(dp2930
g62
I3
ssg63
g2924
sg56
(lp2931
g92
asbasbasbag49
(g65
g51
NtRp2932
(dp2933
g54
(dp2934
sg63
g2379
sg56
(lp2935
g49
(g70
g51
NtRp2936
(dp2937
g54
(dp2938
g74
g75
ssg63
g2932
sg56
(lp2939
S'wsgi.url_scheme'
p2940
asbag49
(g70
g51
NtRp2941
(dp2942
g54
(dp2943
g81
g82
ssg63
g2932
sg56
(lp2944
S':'
asbag49
(g70
g51
NtRp2945
(dp2946
g54
(dp2947
sg63
g2932
sg56
(lp2948
g49
(g50
g51
NtRp2949
(dp2950
g54
(dp2951
g62
I3
ssg63
g2945
sg56
(lp2952
g1673
asbasbasbag49
(g65
g51
NtRp2953
(dp2954
g54
(dp2955
sg63
g2379
sg56
(lp2956
g49
(g70
g51
NtRp2957
(dp2958
g54
(dp2959
g74
g75
ssg63
g2953
sg56
(lp2960
S'wsgi.version'
p2961
asbag49
(g70
g51
NtRp2962
(dp2963
g54
(dp2964
g81
g82
ssg63
g2953
sg56
(lp2965
S':'
asbag49
(g70
g51
NtRp2966
(dp2967
g54
(dp2968
sg63
g2953
sg56
(lp2969
g49
(g50
g51
NtRp2970
(dp2971
g54
(dp2972
g62
I3
ssg63
g2966
sg56
(lp2973
S'1'
asbasbasbasbasbasbasbasbasbasbasbasbasbsS'frames'
p2974
(lp2975
(dp2976
S'file'
p2977
S'C:\\web2py\\gluon\\restricted.py'
p2978
sS'dump'
p2979
(dp2980
sS'lnum'
p2981
I205
sS'lines'
p2982
(dp2983
sS'call'
p2984
S'(code=r"response.write(\'<!DOCTYPE html>\\n<!-- paulirish....ponse.write(\'\\n</body>\\n</html>\\n\', escape=False)", environment={\'A\': <class \'gluon.html.A\'>, \'Auth\': <class \'gluon.tools.Auth\'>, \'B\': <class \'gluon.html.B\'>, \'BEAUTIFY\': <class \'gluon.html.BEAUTIFY\'>, \'BODY\': <class \'gluon.html.BODY\'>, \'BR\': <class \'gluon.html.BR\'>, \'BUTTON\': <class \'gluon.html.BUTTON\'>, \'CAT\': <class \'gluon.html.CAT\'>, \'CENTER\': <class \'gluon.html.CENTER\'>, \'CLEANUP\': <class \'gluon.validators.CLEANUP\'>, ...}, layer=r\'C:\\web2py\\applications\\unioeste_code\\views\\default/index.html\')'
p2985
sS'func'
p2986
S'restricted'
p2987
sa(dp2988
g2977
S'C:\\web2py\\applications\\unioeste_code\\views\\default\\index.html'
p2989
sg2979
(dp2990
sg2981
I90
sg2982
(dp2991
I96
S'if right_sidebar_enabled:'
p2992
sI97
S'    response.write(\'\\n        <div class="four columns">\\n          \', escape=False)'
p2993
sI98
S"    response.write('\\n          <h3>Right Sidebar</h3>\\n          <p></p>\\n          ', escape=False)"
p2994
sI99
S"    response.write('\\n        </div>    \\n        ', escape=False)"
p2995
sI100
S'    pass'
p2996
sI81
S"response.write('\\n<ul>\\n', escape=False)"
p2997
sI82
S'for problem in problems:'
p2998
sI83
S"    response.write('\\n', escape=False)"
p2999
sI84
S'    user = db(db.auth_user.id==problem.created_by).select().first()'
p3000
sI85
S"    response.write('\\n', escape=False)"
p3001
sI86
S'    response.write(LI(A(problem.title, _style="font-weight:bold;",_href=URL("Problem", args=problem.id)), " by " + user.first_name + " " + user.last_name + " ", SPAN(prettydate(problem.created_on), _style="color:green;font-weight:bold;")))'
p3002
sI87
S"    response.write('\\n', escape=False)"
p3003
sI88
S'    pass'
p3004
sI89
S"response.write('\\n\\n\\n', escape=False)"
p3005
sI90
S'from pyGravatar import Gravatar'
p3006
sI91
S"response.write('\\n', escape=False)"
p3007
sI92
S'IMG(_src=Gravatar(auth.user.email).thumb())'
p3008
sI93
S"response.write('\\n\\n\\n</ul>\\n\\n', escape=False)"
p3009
sI94
S"response.write('\\n          ', escape=False)"
p3010
sI95
S"response.write('\\n        </div>\\n        \\n        ', escape=False)"
p3011
ssg2984
S'()'
p3012
sg2986
S'<module>'
p3013
sa(dp3014
g2977
S'C:\\web2py\\gluon\\custom_import.py'
p3015
sg2979
(dp3016
sg2981
I289
sg2982
(dp3017
sg2984
S"(self=<gluon.custom_import._Web2pyImporter object at 0x030613B0>, name='pyGravatar', globals={'A': <class 'gluon.html.A'>, 'Auth': <class 'gluon.tools.Auth'>, 'B': <class 'gluon.html.B'>, 'BEAUTIFY': <class 'gluon.html.BEAUTIFY'>, 'BODY': <class 'gluon.html.BODY'>, 'BR': <class 'gluon.html.BR'>, 'BUTTON': <class 'gluon.html.BUTTON'>, 'CAT': <class 'gluon.html.CAT'>, 'CENTER': <class 'gluon.html.CENTER'>, 'CLEANUP': <class 'gluon.validators.CLEANUP'>, ...}, locals={'A': <class 'gluon.html.A'>, 'Auth': <class 'gluon.tools.Auth'>, 'B': <class 'gluon.html.B'>, 'BEAUTIFY': <class 'gluon.html.BEAUTIFY'>, 'BODY': <class 'gluon.html.BODY'>, 'BR': <class 'gluon.html.BR'>, 'BUTTON': <class 'gluon.html.BUTTON'>, 'CAT': <class 'gluon.html.CAT'>, 'CENTER': <class 'gluon.html.CENTER'>, 'CLEANUP': <class 'gluon.validators.CLEANUP'>, ...}, fromlist=('Gravatar',), level=-1)"
p3018
sg2986
S'__call__'
p3019
sa(dp3020
g2977
S'C:\\web2py\\gluon\\custom_import.py'
p3021
sg2979
(dp3022
sg2981
I78
sg2982
(dp3023
sg2984
S"(self=<gluon.custom_import._Web2pyImporter object at 0x030613B0>, name='applications.unioeste_code.modules.pyGravatar', globals={'A': <class 'gluon.html.A'>, 'Auth': <class 'gluon.tools.Auth'>, 'B': <class 'gluon.html.B'>, 'BEAUTIFY': <class 'gluon.html.BEAUTIFY'>, 'BODY': <class 'gluon.html.BODY'>, 'BR': <class 'gluon.html.BR'>, 'BUTTON': <class 'gluon.html.BUTTON'>, 'CAT': <class 'gluon.html.CAT'>, 'CENTER': <class 'gluon.html.CENTER'>, 'CLEANUP': <class 'gluon.validators.CLEANUP'>, ...}, locals={'A': <class 'gluon.html.A'>, 'Auth': <class 'gluon.tools.Auth'>, 'B': <class 'gluon.html.B'>, 'BEAUTIFY': <class 'gluon.html.BEAUTIFY'>, 'BODY': <class 'gluon.html.BODY'>, 'BR': <class 'gluon.html.BR'>, 'BUTTON': <class 'gluon.html.BUTTON'>, 'CAT': <class 'gluon.html.CAT'>, 'CENTER': <class 'gluon.html.CENTER'>, 'CLEANUP': <class 'gluon.validators.CLEANUP'>, ...}, fromlist=('Gravatar',), level=-1)"
p3024
sg2986
g3019
sa(dp3025
g2977
S'C:\\web2py\\applications\\unioeste_code\\modules\\pyGravatar.py'
p3026
sg2979
(dp3027
sg2981
I27
sg2982
(dp3028
I22
S"RATINGS         = ['g', 'pg', 'r', 'x']"
p3029
sI23
S'MAX_SIZE        = 512'
p3030
sI24
S'MIN_SIZE        = 1'
p3031
sI25
S"DEFAULTS        = ['404', 'mm', 'identicon', 'monsterid', 'wavatar', 'retro']"
p3032
sI26
S''
sI27
S'class Gravatar(Object):'
p3033
sI28
S'    """'
p3034
sI29
S'    Represents a Gravatar user.'
p3035
sI30
S'    """'
p3036
sI31
S''
ssg2984
S'()'
p3037
sg2986
g3013
sasS'pyver'
p3038
S'Python 2.5.4: C:\\web2py\\web2py_no_console.exe'
p3039
sS'session'
p3040
g49
(g50
g51
NtRp3041
(dp3042
g54
(dp3043
sg56
(lp3044
g49
(g58
g51
NtRp3045
(dp3046
g54
(dp3047
g62
I5
ssg63
Nsg56
(lp3048
sbasbsS'etype'
p3049
S"<type 'exceptions.NameError'>"
p3050
sS'date'
p3051
S'Mon Jul 30 22:56:10 2012'
p3052
sS'response'
p3053
g49
(g50
g51
NtRp3054
(dp3055
g54
(dp3056
sg56
(lp3057
g49
(g58
g51
NtRp3058
(dp3059
g54
(dp3060
g62
I5
ssg63
Nsg56
(lp3061
g49
(g65
g51
NtRp3062
(dp3063
g54
(dp3064
sg63
g3058
sg56
(lp3065
g49
(g70
g51
NtRp3066
(dp3067
g54
(dp3068
g74
g75
ssg63
g3062
sg56
(lp3069
g147
asbag49
(g70
g51
NtRp3070
(dp3071
g54
(dp3072
g81
g82
ssg63
g3062
sg56
(lp3073
S':'
asbag49
(g70
g51
NtRp3074
(dp3075
g54
(dp3076
sg63
g3062
sg56
(lp3077
g49
(g50
g51
NtRp3078
(dp3079
g54
(dp3080
g62
I5
ssg63
g3074
sg56
(lp3081
S'<cStringIO.StringO object at 0x060F6B60>'
p3082
asbasbasbag49
(g65
g51
NtRp3083
(dp3084
g54
(dp3085
sg63
g3058
sg56
(lp3086
g49
(g70
g51
NtRp3087
(dp3088
g54
(dp3089
g74
g75
ssg63
g3083
sg56
(lp3090
g213
asbag49
(g70
g51
NtRp3091
(dp3092
g54
(dp3093
g81
g82
ssg63
g3083
sg56
(lp3094
S':'
asbag49
(g70
g51
NtRp3095
(dp3096
g54
(dp3097
sg63
g3083
sg56
(lp3098
g49
(g50
g51
NtRp3099
(dp3100
g54
(dp3101
g62
I5
ssg63
g3095
sg56
(lp3102
g49
(g58
g51
NtRp3103
(dp3104
g54
(dp3105
g62
I4
ssg63
Nsg56
(lp3106
g49
(g65
g51
NtRp3107
(dp3108
g54
(dp3109
sg63
g3103
sg56
(lp3110
g49
(g70
g51
NtRp3111
(dp3112
g54
(dp3113
g74
g75
ssg63
g3107
sg56
(lp3114
S'session_id_unioeste_code'
p3115
asbag49
(g70
g51
NtRp3116
(dp3117
g54
(dp3118
g81
g82
ssg63
g3107
sg56
(lp3119
S':'
asbag49
(g70
g51
NtRp3120
(dp3121
g54
(dp3122
sg63
g3107
sg56
(lp3123
g49
(g50
g51
NtRp3124
(dp3125
g54
(dp3126
g62
I4
ssg63
g3120
sg56
(lp3127
g49
(g58
g51
NtRp3128
(dp3129
g54
(dp3130
g62
I3
ssg63
Nsg56
(lp3131
g49
(g65
g51
NtRp3132
(dp3133
g54
(dp3134
sg63
g3128
sg56
(lp3135
g49
(g70
g51
NtRp3136
(dp3137
g54
(dp3138
g74
g75
ssg63
g3132
sg56
(lp3139
g263
asbag49
(g70
g51
NtRp3140
(dp3141
g54
(dp3142
g81
g82
ssg63
g3132
sg56
(lp3143
S':'
asbag49
(g70
g51
NtRp3144
(dp3145
g54
(dp3146
sg63
g3132
sg56
(lp3147
g49
(g50
g51
NtRp3148
(dp3149
g54
(dp3150
g62
I3
ssg63
g3144
sg56
(lp3151
S''
asbasbasbag49
(g65
g51
NtRp3152
(dp3153
g54
(dp3154
sg63
g3128
sg56
(lp3155
g49
(g70
g51
NtRp3156
(dp3157
g54
(dp3158
g74
g75
ssg63
g3152
sg56
(lp3159
g284
asbag49
(g70
g51
NtRp3160
(dp3161
g54
(dp3162
g81
g82
ssg63
g3152
sg56
(lp3163
S':'
asbag49
(g70
g51
NtRp3164
(dp3165
g54
(dp3166
sg63
g3152
sg56
(lp3167
g49
(g50
g51
NtRp3168
(dp3169
g54
(dp3170
g62
I3
ssg63
g3164
sg56
(lp3171
S''
asbasbasbag49
(g65
g51
NtRp3172
(dp3173
g54
(dp3174
sg63
g3128
sg56
(lp3175
g49
(g70
g51
NtRp3176
(dp3177
g54
(dp3178
g74
g75
ssg63
g3172
sg56
(lp3179
g305
asbag49
(g70
g51
NtRp3180
(dp3181
g54
(dp3182
g81
g82
ssg63
g3172
sg56
(lp3183
S':'
asbag49
(g70
g51
NtRp3184
(dp3185
g54
(dp3186
sg63
g3172
sg56
(lp3187
g49
(g50
g51
NtRp3188
(dp3189
g54
(dp3190
g62
I3
ssg63
g3184
sg56
(lp3191
S''
asbasbasbag49
(g65
g51
NtRp3192
(dp3193
g54
(dp3194
sg63
g3128
sg56
(lp3195
g49
(g70
g51
NtRp3196
(dp3197
g54
(dp3198
g74
g75
ssg63
g3192
sg56
(lp3199
g326
asbag49
(g70
g51
NtRp3200
(dp3201
g54
(dp3202
g81
g82
ssg63
g3192
sg56
(lp3203
S':'
asbag49
(g70
g51
NtRp3204
(dp3205
g54
(dp3206
sg63
g3192
sg56
(lp3207
g49
(g50
g51
NtRp3208
(dp3209
g54
(dp3210
g62
I3
ssg63
g3204
sg56
(lp3211
S''
asbasbasbag49
(g65
g51
NtRp3212
(dp3213
g54
(dp3214
sg63
g3128
sg56
(lp3215
g49
(g70
g51
NtRp3216
(dp3217
g54
(dp3218
g74
g75
ssg63
g3212
sg56
(lp3219
g347
asbag49
(g70
g51
NtRp3220
(dp3221
g54
(dp3222
g81
g82
ssg63
g3212
sg56
(lp3223
S':'
asbag49
(g70
g51
NtRp3224
(dp3225
g54
(dp3226
sg63
g3212
sg56
(lp3227
g49
(g50
g51
NtRp3228
(dp3229
g54
(dp3230
g62
I3
ssg63
g3224
sg56
(lp3231
S'/'
asbasbasbag49
(g65
g51
NtRp3232
(dp3233
g54
(dp3234
sg63
g3128
sg56
(lp3235
g49
(g70
g51
NtRp3236
(dp3237
g54
(dp3238
g74
g75
ssg63
g3232
sg56
(lp3239
g368
asbag49
(g70
g51
NtRp3240
(dp3241
g54
(dp3242
g81
g82
ssg63
g3232
sg56
(lp3243
S':'
asbag49
(g70
g51
NtRp3244
(dp3245
g54
(dp3246
sg63
g3232
sg56
(lp3247
g49
(g50
g51
NtRp3248
(dp3249
g54
(dp3250
g62
I3
ssg63
g3244
sg56
(lp3251
S''
asbasbasbag49
(g65
g51
NtRp3252
(dp3253
g54
(dp3254
sg63
g3128
sg56
(lp3255
g49
(g70
g51
NtRp3256
(dp3257
g54
(dp3258
g74
g75
ssg63
g3252
sg56
(lp3259
g389
asbag49
(g70
g51
NtRp3260
(dp3261
g54
(dp3262
g81
g82
ssg63
g3252
sg56
(lp3263
S':'
asbag49
(g70
g51
NtRp3264
(dp3265
g54
(dp3266
sg63
g3252
sg56
(lp3267
g49
(g50
g51
NtRp3268
(dp3269
g54
(dp3270
g62
I3
ssg63
g3264
sg56
(lp3271
S''
asbasbasbasbasbasbasbasbasbasbasbag49
(g65
g51
NtRp3272
(dp3273
g54
(dp3274
sg63
g3058
sg56
(lp3275
g49
(g70
g51
NtRp3276
(dp3277
g54
(dp3278
g74
g75
ssg63
g3272
sg56
(lp3279
S'delimiters'
p3280
asbag49
(g70
g51
NtRp3281
(dp3282
g54
(dp3283
g81
g82
ssg63
g3272
sg56
(lp3284
S':'
asbag49
(g70
g51
NtRp3285
(dp3286
g54
(dp3287
sg63
g3272
sg56
(lp3288
g49
(g50
g51
NtRp3289
(dp3290
g54
(dp3291
g62
I5
ssg63
g3285
sg56
(lp3292
g49
(g58
g51
NtRp3293
(dp3294
g54
(dp3295
g62
I4
ssg63
Nsg56
(lp3296
g49
(g65
g51
NtRp3297
(dp3298
g54
(dp3299
sg63
g3293
sg56
(lp3300
g49
(g70
g51
NtRp3301
(dp3302
g54
(dp3303
sg63
g3297
sg56
(lp3304
g49
(g50
g51
NtRp3305
(dp3306
g54
(dp3307
g62
I4
ssg63
g3301
sg56
(lp3308
S'{{'
p3309
asbasbasbag49
(g65
g51
NtRp3310
(dp3311
g54
(dp3312
sg63
g3293
sg56
(lp3313
g49
(g70
g51
NtRp3314
(dp3315
g54
(dp3316
sg63
g3310
sg56
(lp3317
g49
(g50
g51
NtRp3318
(dp3319
g54
(dp3320
g62
I4
ssg63
g3314
sg56
(lp3321
S'}}'
p3322
asbasbasbasbasbasbasbag49
(g65
g51
NtRp3323
(dp3324
g54
(dp3325
sg63
g3058
sg56
(lp3326
g49
(g70
g51
NtRp3327
(dp3328
g54
(dp3329
g74
g75
ssg63
g3323
sg56
(lp3330
S'files'
p3331
asbag49
(g70
g51
NtRp3332
(dp3333
g54
(dp3334
g81
g82
ssg63
g3323
sg56
(lp3335
S':'
asbag49
(g70
g51
NtRp3336
(dp3337
g54
(dp3338
sg63
g3323
sg56
(lp3339
g49
(g50
g51
NtRp3340
(dp3341
g54
(dp3342
g62
I5
ssg63
g3336
sg56
(lp3343
g49
(g58
g51
NtRp3344
(dp3345
g54
(dp3346
g62
I4
ssg63
Nsg56
(lp3347
g49
(g65
g51
NtRp3348
(dp3349
g54
(dp3350
sg63
g3344
sg56
(lp3351
g49
(g70
g51
NtRp3352
(dp3353
g54
(dp3354
sg63
g3348
sg56
(lp3355
g49
(g50
g51
NtRp3356
(dp3357
g54
(dp3358
g62
I4
ssg63
g3352
sg56
(lp3359
S'/unioeste_code/static/js/jquery.js'
p3360
asbasbasbag49
(g65
g51
NtRp3361
(dp3362
g54
(dp3363
sg63
g3344
sg56
(lp3364
g49
(g70
g51
NtRp3365
(dp3366
g54
(dp3367
sg63
g3361
sg56
(lp3368
g49
(g50
g51
NtRp3369
(dp3370
g54
(dp3371
g62
I4
ssg63
g3365
sg56
(lp3372
S'/unioeste_code/static/css/calendar.css'
p3373
asbasbasbag49
(g65
g51
NtRp3374
(dp3375
g54
(dp3376
sg63
g3344
sg56
(lp3377
g49
(g70
g51
NtRp3378
(dp3379
g54
(dp3380
sg63
g3374
sg56
(lp3381
g49
(g50
g51
NtRp3382
(dp3383
g54
(dp3384
g62
I4
ssg63
g3378
sg56
(lp3385
S'/unioeste_code/static/js/calendar.js'
p3386
asbasbasbag49
(g65
g51
NtRp3387
(dp3388
g54
(dp3389
sg63
g3344
sg56
(lp3390
g49
(g70
g51
NtRp3391
(dp3392
g54
(dp3393
sg63
g3387
sg56
(lp3394
g49
(g50
g51
NtRp3395
(dp3396
g54
(dp3397
g62
I4
ssg63
g3391
sg56
(lp3398
S'/unioeste_code/static/js/web2py.js'
p3399
asbasbasbag49
(g65
g51
NtRp3400
(dp3401
g54
(dp3402
sg63
g3344
sg56
(lp3403
g49
(g70
g51
NtRp3404
(dp3405
g54
(dp3406
sg63
g3400
sg56
(lp3407
g49
(g50
g51
NtRp3408
(dp3409
g54
(dp3410
g62
I4
ssg63
g3404
sg56
(lp3411
S'/unioeste_code/static/css/skeleton.css'
p3412
asbasbasbag49
(g65
g51
NtRp3413
(dp3414
g54
(dp3415
sg63
g3344
sg56
(lp3416
g49
(g70
g51
NtRp3417
(dp3418
g54
(dp3419
sg63
g3413
sg56
(lp3420
g49
(g50
g51
NtRp3421
(dp3422
g54
(dp3423
g62
I4
ssg63
g3417
sg56
(lp3424
S'/unioeste_code/static/css/web2py.css'
p3425
asbasbasbag49
(g65
g51
NtRp3426
(dp3427
g54
(dp3428
sg63
g3344
sg56
(lp3429
g49
(g70
g51
NtRp3430
(dp3431
g54
(dp3432
sg63
g3426
sg56
(lp3433
g49
(g50
g51
NtRp3434
(dp3435
g54
(dp3436
g62
I4
ssg63
g3430
sg56
(lp3437
S'/unioeste_code/static/css/superfish.css'
p3438
asbasbasbag49
(g65
g51
NtRp3439
(dp3440
g54
(dp3441
sg63
g3344
sg56
(lp3442
g49
(g70
g51
NtRp3443
(dp3444
g54
(dp3445
sg63
g3439
sg56
(lp3446
g49
(g50
g51
NtRp3447
(dp3448
g54
(dp3449
g62
I4
ssg63
g3443
sg56
(lp3450
S'/unioeste_code/static/js/superfish.js'
p3451
asbasbasbasbasbasbasbag49
(g65
g51
NtRp3452
(dp3453
g54
(dp3454
sg63
g3058
sg56
(lp3455
g49
(g70
g51
NtRp3456
(dp3457
g54
(dp3458
g74
g75
ssg63
g3452
sg56
(lp3459
S'flash'
p3460
asbag49
(g70
g51
NtRp3461
(dp3462
g54
(dp3463
g81
g82
ssg63
g3452
sg56
(lp3464
S':'
asbag49
(g70
g51
NtRp3465
(dp3466
g54
(dp3467
sg63
g3452
sg56
(lp3468
g49
(g50
g51
NtRp3469
(dp3470
g54
(dp3471
g62
I5
ssg63
g3465
sg56
(lp3472
S''
asbasbasbag49
(g65
g51
NtRp3473
(dp3474
g54
(dp3475
sg63
g3058
sg56
(lp3476
g49
(g70
g51
NtRp3477
(dp3478
g54
(dp3479
g74
g75
ssg63
g3473
sg56
(lp3480
S'generic_patterns'
p3481
asbag49
(g70
g51
NtRp3482
(dp3483
g54
(dp3484
g81
g82
ssg63
g3473
sg56
(lp3485
S':'
asbag49
(g70
g51
NtRp3486
(dp3487
g54
(dp3488
sg63
g3473
sg56
(lp3489
g49
(g50
g51
NtRp3490
(dp3491
g54
(dp3492
g62
I5
ssg63
g3486
sg56
(lp3493
g49
(g58
g51
NtRp3494
(dp3495
g54
(dp3496
g62
I4
ssg63
Nsg56
(lp3497
sbasbasbasbag49
(g65
g51
NtRp3498
(dp3499
g54
(dp3500
sg63
g3058
sg56
(lp3501
g49
(g70
g51
NtRp3502
(dp3503
g54
(dp3504
g74
g75
ssg63
g3498
sg56
(lp3505
S'headers'
p3506
asbag49
(g70
g51
NtRp3507
(dp3508
g54
(dp3509
g81
g82
ssg63
g3498
sg56
(lp3510
S':'
asbag49
(g70
g51
NtRp3511
(dp3512
g54
(dp3513
sg63
g3498
sg56
(lp3514
g49
(g50
g51
NtRp3515
(dp3516
g54
(dp3517
g62
I5
ssg63
g3511
sg56
(lp3518
g49
(g58
g51
NtRp3519
(dp3520
g54
(dp3521
g62
I4
ssg63
Nsg56
(lp3522
g49
(g65
g51
NtRp3523
(dp3524
g54
(dp3525
sg63
g3519
sg56
(lp3526
g49
(g70
g51
NtRp3527
(dp3528
g54
(dp3529
g74
g75
ssg63
g3523
sg56
(lp3530
S'Cache-Control'
p3531
asbag49
(g70
g51
NtRp3532
(dp3533
g54
(dp3534
g81
g82
ssg63
g3523
sg56
(lp3535
S':'
asbag49
(g70
g51
NtRp3536
(dp3537
g54
(dp3538
sg63
g3523
sg56
(lp3539
g49
(g50
g51
NtRp3540
(dp3541
g54
(dp3542
g62
I4
ssg63
g3536
sg56
(lp3543
S'no-store, no-cache, must-revalidate, post-check=0, pre-check=0'
p3544
asbasbasbag49
(g65
g51
NtRp3545
(dp3546
g54
(dp3547
sg63
g3519
sg56
(lp3548
g49
(g70
g51
NtRp3549
(dp3550
g54
(dp3551
g74
g75
ssg63
g3545
sg56
(lp3552
S'Content-Type'
p3553
asbag49
(g70
g51
NtRp3554
(dp3555
g54
(dp3556
g81
g82
ssg63
g3545
sg56
(lp3557
S':'
asbag49
(g70
g51
NtRp3558
(dp3559
g54
(dp3560
sg63
g3545
sg56
(lp3561
g49
(g50
g51
NtRp3562
(dp3563
g54
(dp3564
g62
I4
ssg63
g3558
sg56
(lp3565
S'text/html; charset=utf-8'
p3566
asbasbasbag49
(g65
g51
NtRp3567
(dp3568
g54
(dp3569
sg63
g3519
sg56
(lp3570
g49
(g70
g51
NtRp3571
(dp3572
g54
(dp3573
g74
g75
ssg63
g3567
sg56
(lp3574
S'Expires'
p3575
asbag49
(g70
g51
NtRp3576
(dp3577
g54
(dp3578
g81
g82
ssg63
g3567
sg56
(lp3579
S':'
asbag49
(g70
g51
NtRp3580
(dp3581
g54
(dp3582
sg63
g3567
sg56
(lp3583
g49
(g50
g51
NtRp3584
(dp3585
g54
(dp3586
g62
I4
ssg63
g3580
sg56
(lp3587
S'Tue, 31 Jul 2012 01:56:10 GMT'
p3588
asbasbasbag49
(g65
g51
NtRp3589
(dp3590
g54
(dp3591
sg63
g3519
sg56
(lp3592
g49
(g70
g51
NtRp3593
(dp3594
g54
(dp3595
g74
g75
ssg63
g3589
sg56
(lp3596
S'Pragma'
p3597
asbag49
(g70
g51
NtRp3598
(dp3599
g54
(dp3600
g81
g82
ssg63
g3589
sg56
(lp3601
S':'
asbag49
(g70
g51
NtRp3602
(dp3603
g54
(dp3604
sg63
g3589
sg56
(lp3605
g49
(g50
g51
NtRp3606
(dp3607
g54
(dp3608
g62
I4
ssg63
g3602
sg56
(lp3609
S'no-cache'
p3610
asbasbasbag49
(g65
g51
NtRp3611
(dp3612
g54
(dp3613
sg63
g3519
sg56
(lp3614
g49
(g70
g51
NtRp3615
(dp3616
g54
(dp3617
g74
g75
ssg63
g3611
sg56
(lp3618
S'X-Powered-By'
p3619
asbag49
(g70
g51
NtRp3620
(dp3621
g54
(dp3622
g81
g82
ssg63
g3611
sg56
(lp3623
S':'
asbag49
(g70
g51
NtRp3624
(dp3625
g54
(dp3626
sg63
g3611
sg56
(lp3627
g49
(g50
g51
NtRp3628
(dp3629
g54
(dp3630
g62
I4
ssg63
g3624
sg56
(lp3631
S'web2py'
p3632
asbasbasbasbasbasbasbag49
(g65
g51
NtRp3633
(dp3634
g54
(dp3635
sg63
g3058
sg56
(lp3636
g49
(g70
g51
NtRp3637
(dp3638
g54
(dp3639
g74
g75
ssg63
g3633
sg56
(lp3640
S'menu'
p3641
asbag49
(g70
g51
NtRp3642
(dp3643
g54
(dp3644
g81
g82
ssg63
g3633
sg56
(lp3645
S':'
asbag49
(g70
g51
NtRp3646
(dp3647
g54
(dp3648
sg63
g3633
sg56
(lp3649
g49
(g50
g51
NtRp3650
(dp3651
g54
(dp3652
g62
I5
ssg63
g3646
sg56
(lp3653
g49
(g58
g51
NtRp3654
(dp3655
g54
(dp3656
g62
I4
ssg63
Nsg56
(lp3657
g49
(g65
g51
NtRp3658
(dp3659
g54
(dp3660
sg63
g3654
sg56
(lp3661
g49
(g70
g51
NtRp3662
(dp3663
g54
(dp3664
sg63
g3658
sg56
(lp3665
g49
(g50
g51
NtRp3666
(dp3667
g54
(dp3668
g62
I4
ssg63
g3662
sg56
(lp3669
g49
(g58
g51
NtRp3670
(dp3671
g54
(dp3672
g62
I3
ssg63
Nsg56
(lp3673
g49
(g65
g51
NtRp3674
(dp3675
g54
(dp3676
sg63
g3670
sg56
(lp3677
g49
(g70
g51
NtRp3678
(dp3679
g54
(dp3680
sg63
g3674
sg56
(lp3681
g49
(g50
g51
NtRp3682
(dp3683
g54
(dp3684
g62
I3
ssg63
g3678
sg56
(lp3685
cgluon.languages
lazyT_unpickle
p3686
(S't\x04\x00\x00\x00Home'
tRp3687
asbasbasbag49
(g65
g51
NtRp3688
(dp3689
g54
(dp3690
sg63
g3670
sg56
(lp3691
g49
(g70
g51
NtRp3692
(dp3693
g54
(dp3694
sg63
g3688
sg56
(lp3695
g49
(g50
g51
NtRp3696
(dp3697
g54
(dp3698
g62
I3
ssg63
g3692
sg56
(lp3699
g92
asbasbasbag49
(g65
g51
NtRp3700
(dp3701
g54
(dp3702
sg63
g3670
sg56
(lp3703
g49
(g70
g51
NtRp3704
(dp3705
g54
(dp3706
sg63
g3700
sg56
(lp3707
g49
(g50
g51
NtRp3708
(dp3709
g54
(dp3710
g62
I3
ssg63
g3704
sg56
(lp3711
S'/unioeste_code/default/index'
p3712
asbasbasbag49
(g65
g51
NtRp3713
(dp3714
g54
(dp3715
sg63
g3670
sg56
(lp3716
g49
(g70
g51
NtRp3717
(dp3718
g54
(dp3719
sg63
g3713
sg56
(lp3720
g49
(g50
g51
NtRp3721
(dp3722
g54
(dp3723
g62
I3
ssg63
g3717
sg56
(lp3724
g49
(g58
g51
NtRp3725
(dp3726
g54
(dp3727
g62
I2
ssg63
Nsg56
(lp3728
sbasbasbasbasbasbasbasbag49
(g65
g51
NtRp3729
(dp3730
g54
(dp3731
sg63
g3654
sg56
(lp3732
g49
(g70
g51
NtRp3733
(dp3734
g54
(dp3735
sg63
g3729
sg56
(lp3736
g49
(g50
g51
NtRp3737
(dp3738
g54
(dp3739
g62
I4
ssg63
g3733
sg56
(lp3740
g49
(g58
g51
NtRp3741
(dp3742
g54
(dp3743
g62
I3
ssg63
Nsg56
(lp3744
g49
(g65
g51
NtRp3745
(dp3746
g54
(dp3747
sg63
g3741
sg56
(lp3748
g49
(g70
g51
NtRp3749
(dp3750
g54
(dp3751
sg63
g3745
sg56
(lp3752
g49
(g50
g51
NtRp3753
(dp3754
g54
(dp3755
g62
I3
ssg63
g3749
sg56
(lp3756
g49
(cgluon.html
SPAN
p3757
g51
NtRp3758
(dp3759
g54
(dp3760
g74
S'color:yellow'
p3761
ssg63
g49
(cgluon.html
A
p3762
g51
NtRp3763
(dp3764
g54
(dp3765
S'_onclick'
p3766
S'javascript:void(0);return false;'
p3767
sS'_href'
p3768
S'#'
ssg63
g49
(cgluon.html
LI
p3769
g51
NtRp3770
(dp3771
g54
(dp3772
S'_class'
p3773
S'web2py-menu-expand'
p3774
ssg63
g49
(cgluon.html
UL
p3775
g51
NtRp3776
(dp3777
g54
(dp3778
S'mobile'
p3779
I00
sS'li_class'
p3780
g3774
sg3773
S'sf-menu'
p3781
sS'ul_class'
p3782
S'web2py-menu-vertical'
p3783
sS'li_active'
p3784
S'web2py-menu-active'
p3785
ssg63
Nsg56
(lp3786
g49
(g3769
g51
NtRp3787
(dp3788
g54
(dp3789
sg63
g3776
sg56
(lp3790
g49
(g3762
g51
NtRp3791
(dp3792
g54
(dp3793
g3768
g3712
ssg63
g3787
sg56
(lp3794
g3687
asbasbag3770
asbsg56
(lp3795
g3763
ag49
(g3775
g51
NtRp3796
(dp3797
g54
(dp3798
g3773
g3783
ssg63
g3770
sg56
(lp3799
g49
(g3769
g51
NtRp3800
(dp3801
g54
(dp3802
sg63
g3796
sg56
(lp3803
g49
(g3762
g51
NtRp3804
(dp3805
g54
(dp3806
g3768
S'/admin/default/site'
p3807
ssg63
g3800
sg56
(lp3808
g3686
(S's\x08\x00\x00\x00My Sites'
tRp3809
asbasbag49
(g3769
g51
NtRp3810
(dp3811
g54
(dp3812
g3773
g3774
ssg63
g3796
sg56
(lp3813
g49
(g3762
g51
NtRp3814
(dp3815
g54
(dp3816
g3768
S'/admin/default/design/unioeste_code'
p3817
ssg63
g3810
sg56
(lp3818
g3686
(S's\x08\x00\x00\x00This App'
tRp3819
asbag49
(g3775
g51
NtRp3820
(dp3821
g54
(dp3822
g3773
g3783
ssg63
g3810
sg56
(lp3823
g49
(g3769
g51
NtRp3824
(dp3825
g54
(dp3826
sg63
g3820
sg56
(lp3827
g49
(g3762
g51
NtRp3828
(dp3829
g54
(dp3830
g3768
S'/admin/default/edit/unioeste_code/controllers/default.py'
p3831
ssg63
g3824
sg56
(lp3832
g3686
(S't\x0b\x00\x00\x00Controlador'
tRp3833
asbasbag49
(g3769
g51
NtRp3834
(dp3835
g54
(dp3836
sg63
g3820
sg56
(lp3837
g49
(g3762
g51
NtRp3838
(dp3839
g54
(dp3840
g3768
S'/admin/default/edit/unioeste_code/views/default/index.html'
p3841
ssg63
g3834
sg56
(lp3842
g3686
(S's\x0e\x00\x00\x00Visualiza\xc3\xa7\xc3\xa3o'
tRp3843
asbasbag49
(g3769
g51
NtRp3844
(dp3845
g54
(dp3846
sg63
g3820
sg56
(lp3847
g49
(g3762
g51
NtRp3848
(dp3849
g54
(dp3850
g3768
S'/admin/default/edit/unioeste_code/views/layout.html'
p3851
ssg63
g3844
sg56
(lp3852
g3686
(S't\x06\x00\x00\x00Layout'
tRp3853
asbasbag49
(g3769
g51
NtRp3854
(dp3855
g54
(dp3856
sg63
g3820
sg56
(lp3857
g49
(g3762
g51
NtRp3858
(dp3859
g54
(dp3860
g3768
S'/admin/default/edit/unioeste_code/static/css/web2py.css'
p3861
ssg63
g3854
sg56
(lp3862
g3686
(S't\n\x00\x00\x00Stylesheet'
tRp3863
asbasbag49
(g3769
g51
NtRp3864
(dp3865
g54
(dp3866
sg63
g3820
sg56
(lp3867
g49
(g3762
g51
NtRp3868
(dp3869
g54
(dp3870
g3768
S'/admin/default/edit/unioeste_code/models/db.py'
p3871
ssg63
g3864
sg56
(lp3872
g3686
(S's\t\x00\x00\x00Modelo BD'
tRp3873
asbasbag49
(g3769
g51
NtRp3874
(dp3875
g54
(dp3876
sg63
g3820
sg56
(lp3877
g49
(g3762
g51
NtRp3878
(dp3879
g54
(dp3880
g3768
S'/admin/default/edit/unioeste_code/models/menu.py'
p3881
ssg63
g3874
sg56
(lp3882
g3686
(S's\x0e\x00\x00\x00Modelo de Menu'
tRp3883
asbasbag49
(g3769
g51
NtRp3884
(dp3885
g54
(dp3886
sg63
g3820
sg56
(lp3887
g49
(g3762
g51
NtRp3888
(dp3889
g54
(dp3890
g3768
S'/unioeste_code/appadmin/index'
p3891
ssg63
g3884
sg56
(lp3892
g3686
(S's\x0e\x00\x00\x00Banco de dados'
tRp3893
asbasbag49
(g3769
g51
NtRp3894
(dp3895
g54
(dp3896
sg63
g3820
sg56
(lp3897
g49
(g3762
g51
NtRp3898
(dp3899
g54
(dp3900
g3768
S'/admin/default/errors/unioeste_code'
p3901
ssg63
g3894
sg56
(lp3902
g3686
(S't\x06\x00\x00\x00Errors'
tRp3903
asbasbag49
(g3769
g51
NtRp3904
(dp3905
g54
(dp3906
sg63
g3820
sg56
(lp3907
g49
(g3762
g51
NtRp3908
(dp3909
g54
(dp3910
g3768
S'/admin/default/about/unioeste_code'
p3911
ssg63
g3904
sg56
(lp3912
g3686
(S't\x05\x00\x00\x00About'
tRp3913
asbasbasbasbag49
(g3769
g51
NtRp3914
(dp3915
g54
(dp3916
g3773
g3774
ssg63
g3796
sg56
(lp3917
g49
(g3762
g51
NtRp3918
(dp3919
g54
(dp3920
g3768
S'http://www.web2py.com'
p3921
ssg63
g3914
sg56
(lp3922
S'web2py.com'
p3923
asbag49
(g3775
g51
NtRp3924
(dp3925
g54
(dp3926
g3773
g3783
ssg63
g3914
sg56
(lp3927
g49
(g3769
g51
NtRp3928
(dp3929
g54
(dp3930
sg63
g3924
sg56
(lp3931
g49
(g3762
g51
NtRp3932
(dp3933
g54
(dp3934
g3768
S'http://www.web2py.com/examples/default/download'
p3935
ssg63
g3928
sg56
(lp3936
g3686
(S't\x08\x00\x00\x00Download'
tRp3937
asbasbag49
(g3769
g51
NtRp3938
(dp3939
g54
(dp3940
sg63
g3924
sg56
(lp3941
g49
(g3762
g51
NtRp3942
(dp3943
g54
(dp3944
g3768
S'http://www.web2py.com/examples/default/support'
p3945
ssg63
g3938
sg56
(lp3946
g3686
(S't\x07\x00\x00\x00Support'
tRp3947
asbasbag49
(g3769
g51
NtRp3948
(dp3949
g54
(dp3950
sg63
g3924
sg56
(lp3951
g49
(g3762
g51
NtRp3952
(dp3953
g54
(dp3954
g3768
S'http://web2py.com/demo_admin'
p3955
ssg63
g3948
sg56
(lp3956
g3686
(S't\x04\x00\x00\x00Demo'
tRp3957
asbasbag49
(g3769
g51
NtRp3958
(dp3959
g54
(dp3960
sg63
g3924
sg56
(lp3961
g49
(g3762
g51
NtRp3962
(dp3963
g54
(dp3964
g3768
S'http://web2py.com/examples/default/examples'
p3965
ssg63
g3958
sg56
(lp3966
g3686
(S's\x0e\x00\x00\x00Quick Examples'
tRp3967
asbasbag49
(g3769
g51
NtRp3968
(dp3969
g54
(dp3970
sg63
g3924
sg56
(lp3971
g49
(g3762
g51
NtRp3972
(dp3973
g54
(dp3974
g3768
S'http://web2py.com/AlterEgo'
p3975
ssg63
g3968
sg56
(lp3976
g3686
(S't\x03\x00\x00\x00FAQ'
tRp3977
asbasbag49
(g3769
g51
NtRp3978
(dp3979
g54
(dp3980
sg63
g3924
sg56
(lp3981
g49
(g3762
g51
NtRp3982
(dp3983
g54
(dp3984
g3768
S'http://www.web2py.com/examples/default/videos/'
p3985
ssg63
g3978
sg56
(lp3986
g3686
(S't\x06\x00\x00\x00Videos'
tRp3987
asbasbag49
(g3769
g51
NtRp3988
(dp3989
g54
(dp3990
sg63
g3924
sg56
(lp3991
g49
(g3762
g51
NtRp3992
(dp3993
g54
(dp3994
g3768
S'http://web2py.com/appliances'
p3995
ssg63
g3988
sg56
(lp3996
g3686
(S's\x11\x00\x00\x00Free Applications'
tRp3997
asbasbag49
(g3769
g51
NtRp3998
(dp3999
g54
(dp4000
sg63
g3924
sg56
(lp4001
g49
(g3762
g51
NtRp4002
(dp4003
g54
(dp4004
g3768
S'http://web2py.com/plugins'
p4005
ssg63
g3998
sg56
(lp4006
g3686
(S't\x07\x00\x00\x00Plugins'
tRp4007
asbasbag49
(g3769
g51
NtRp4008
(dp4009
g54
(dp4010
sg63
g3924
sg56
(lp4011
g49
(g3762
g51
NtRp4012
(dp4013
g54
(dp4014
g3768
S'http://web2py.com/layouts'
p4015
ssg63
g4008
sg56
(lp4016
g3686
(S't\x07\x00\x00\x00Layouts'
tRp4017
asbasbag49
(g3769
g51
NtRp4018
(dp4019
g54
(dp4020
sg63
g3924
sg56
(lp4021
g49
(g3762
g51
NtRp4022
(dp4023
g54
(dp4024
g3768
S'http://web2pyslices.com/'
p4025
ssg63
g4018
sg56
(lp4026
g3686
(S't\x07\x00\x00\x00Recipes'
tRp4027
asbasbag49
(g3769
g51
NtRp4028
(dp4029
g54
(dp4030
sg63
g3924
sg56
(lp4031
g49
(g3762
g51
NtRp4032
(dp4033
g54
(dp4034
g3768
S'http://web2py.com/semantic'
p4035
ssg63
g4028
sg56
(lp4036
g3686
(S't\x08\x00\x00\x00Semantic'
tRp4037
asbasbasbasbag49
(g3769
g51
NtRp4038
(dp4039
g54
(dp4040
g3773
g3774
ssg63
g3796
sg56
(lp4041
g49
(g3762
g51
NtRp4042
(dp4043
g54
(dp4044
g3768
S'http://www.web2py.com/book'
p4045
ssg63
g4038
sg56
(lp4046
g3686
(S't\r\x00\x00\x00Documentation'
tRp4047
asbag49
(g3775
g51
NtRp4048
(dp4049
g54
(dp4050
g3773
g3783
ssg63
g4038
sg56
(lp4051
g49
(g3769
g51
NtRp4052
(dp4053
g54
(dp4054
sg63
g4048
sg56
(lp4055
g49
(g3762
g51
NtRp4056
(dp4057
g54
(dp4058
g3768
S'http://www.web2py.com/book/default/chapter/00'
p4059
ssg63
g4052
sg56
(lp4060
g3686
(S't\x07\x00\x00\x00Preface'
tRp4061
asbasbag49
(g3769
g51
NtRp4062
(dp4063
g54
(dp4064
sg63
g4048
sg56
(lp4065
g49
(g3762
g51
NtRp4066
(dp4067
g54
(dp4068
g3768
S'http://www.web2py.com/book/default/chapter/01'
p4069
ssg63
g4062
sg56
(lp4070
g3686
(S't\x0c\x00\x00\x00Introduction'
tRp4071
asbasbag49
(g3769
g51
NtRp4072
(dp4073
g54
(dp4074
sg63
g4048
sg56
(lp4075
g49
(g3762
g51
NtRp4076
(dp4077
g54
(dp4078
g3768
S'http://www.web2py.com/book/default/chapter/02'
p4079
ssg63
g4072
sg56
(lp4080
g3686
(S't\x06\x00\x00\x00Python'
tRp4081
asbasbag49
(g3769
g51
NtRp4082
(dp4083
g54
(dp4084
sg63
g4048
sg56
(lp4085
g49
(g3762
g51
NtRp4086
(dp4087
g54
(dp4088
g3768
S'http://www.web2py.com/book/default/chapter/03'
p4089
ssg63
g4082
sg56
(lp4090
g3686
(S't\x08\x00\x00\x00Overview'
tRp4091
asbasbag49
(g3769
g51
NtRp4092
(dp4093
g54
(dp4094
sg63
g4048
sg56
(lp4095
g49
(g3762
g51
NtRp4096
(dp4097
g54
(dp4098
g3768
S'http://www.web2py.com/book/default/chapter/04'
p4099
ssg63
g4092
sg56
(lp4100
g3686
(S's\x08\x00\x00\x00The Core'
tRp4101
asbasbag49
(g3769
g51
NtRp4102
(dp4103
g54
(dp4104
sg63
g4048
sg56
(lp4105
g49
(g3762
g51
NtRp4106
(dp4107
g54
(dp4108
g3768
S'http://www.web2py.com/book/default/chapter/05'
p4109
ssg63
g4102
sg56
(lp4110
g3686
(S's\t\x00\x00\x00The Views'
tRp4111
asbasbag49
(g3769
g51
NtRp4112
(dp4113
g54
(dp4114
sg63
g4048
sg56
(lp4115
g49
(g3762
g51
NtRp4116
(dp4117
g54
(dp4118
g3768
S'http://www.web2py.com/book/default/chapter/06'
p4119
ssg63
g4112
sg56
(lp4120
g3686
(S's\x0e\x00\x00\x00Banco de dados'
tRp4121
asbasbag49
(g3769
g51
NtRp4122
(dp4123
g54
(dp4124
sg63
g4048
sg56
(lp4125
g49
(g3762
g51
NtRp4126
(dp4127
g54
(dp4128
g3768
S'http://www.web2py.com/book/default/chapter/07'
p4129
ssg63
g4122
sg56
(lp4130
g3686
(S's\x14\x00\x00\x00Forms and Validators'
tRp4131
asbasbag49
(g3769
g51
NtRp4132
(dp4133
g54
(dp4134
sg63
g4048
sg56
(lp4135
g49
(g3762
g51
NtRp4136
(dp4137
g54
(dp4138
g3768
S'http://www.web2py.com/book/default/chapter/08'
p4139
ssg63
g4132
sg56
(lp4140
g3686
(S's\r\x00\x00\x00Email and SMS'
tRp4141
asbasbag49
(g3769
g51
NtRp4142
(dp4143
g54
(dp4144
sg63
g4048
sg56
(lp4145
g49
(g3762
g51
NtRp4146
(dp4147
g54
(dp4148
g3768
S'http://www.web2py.com/book/default/chapter/09'
p4149
ssg63
g4142
sg56
(lp4150
g3686
(S's\x0e\x00\x00\x00Access Control'
tRp4151
asbasbag49
(g3769
g51
NtRp4152
(dp4153
g54
(dp4154
sg63
g4048
sg56
(lp4155
g49
(g3762
g51
NtRp4156
(dp4157
g54
(dp4158
g3768
S'http://www.web2py.com/book/default/chapter/10'
p4159
ssg63
g4152
sg56
(lp4160
g3686
(S't\x08\x00\x00\x00Services'
tRp4161
asbasbag49
(g3769
g51
NtRp4162
(dp4163
g54
(dp4164
sg63
g4048
sg56
(lp4165
g49
(g3762
g51
NtRp4166
(dp4167
g54
(dp4168
g3768
S'http://www.web2py.com/book/default/chapter/11'
p4169
ssg63
g4162
sg56
(lp4170
g3686
(S's\x0c\x00\x00\x00Ajax Recipes'
tRp4171
asbasbag49
(g3769
g51
NtRp4172
(dp4173
g54
(dp4174
sg63
g4048
sg56
(lp4175
g49
(g3762
g51
NtRp4176
(dp4177
g54
(dp4178
g3768
S'http://www.web2py.com/book/default/chapter/12'
p4179
ssg63
g4172
sg56
(lp4180
g3686
(S's\x16\x00\x00\x00Components and Plugins'
tRp4181
asbasbag49
(g3769
g51
NtRp4182
(dp4183
g54
(dp4184
sg63
g4048
sg56
(lp4185
g49
(g3762
g51
NtRp4186
(dp4187
g54
(dp4188
g3768
S'http://www.web2py.com/book/default/chapter/13'
p4189
ssg63
g4182
sg56
(lp4190
g3686
(S's\x12\x00\x00\x00Deployment Recipes'
tRp4191
asbasbag49
(g3769
g51
NtRp4192
(dp4193
g54
(dp4194
sg63
g4048
sg56
(lp4195
g49
(g3762
g51
NtRp4196
(dp4197
g54
(dp4198
g3768
S'http://www.web2py.com/book/default/chapter/14'
p4199
ssg63
g4192
sg56
(lp4200
g3686
(S's\r\x00\x00\x00Other Recipes'
tRp4201
asbasbag49
(g3769
g51
NtRp4202
(dp4203
g54
(dp4204
sg63
g4048
sg56
(lp4205
g49
(g3762
g51
NtRp4206
(dp4207
g54
(dp4208
g3768
S'http://stores.lulu.com/web2py'
p4209
ssg63
g4202
sg56
(lp4210
g3686
(S's\r\x00\x00\x00Buy this book'
tRp4211
asbasbasbasbag49
(g3769
g51
NtRp4212
(dp4213
g54
(dp4214
g3773
g3774
ssg63
g3796
sg56
(lp4215
g49
(g3762
g51
NtRp4216
(dp4217
g54
(dp4218
g3766
g3767
sg3768
S'#'
ssg63
g4212
sg56
(lp4219
g3686
(S't\t\x00\x00\x00Community'
tRp4220
asbag49
(g3775
g51
NtRp4221
(dp4222
g54
(dp4223
g3773
g3783
ssg63
g4212
sg56
(lp4224
g49
(g3769
g51
NtRp4225
(dp4226
g54
(dp4227
sg63
g4221
sg56
(lp4228
g49
(g3762
g51
NtRp4229
(dp4230
g54
(dp4231
g3768
S'http://www.web2py.com/examples/default/usergroups'
p4232
ssg63
g4225
sg56
(lp4233
g3686
(S't\x06\x00\x00\x00Groups'
tRp4234
asbasbag49
(g3769
g51
NtRp4235
(dp4236
g54
(dp4237
sg63
g4221
sg56
(lp4238
g49
(g3762
g51
NtRp4239
(dp4240
g54
(dp4241
g3768
S'http://twitter.com/web2py'
p4242
ssg63
g4235
sg56
(lp4243
g3686
(S't\x07\x00\x00\x00Twitter'
tRp4244
asbasbag49
(g3769
g51
NtRp4245
(dp4246
g54
(dp4247
sg63
g4221
sg56
(lp4248
g49
(g3762
g51
NtRp4249
(dp4250
g54
(dp4251
g3768
S'http://webchat.freenode.net/?channels=web2py'
p4252
ssg63
g4245
sg56
(lp4253
g3686
(S's\t\x00\x00\x00Live Chat'
tRp4254
asbasbasbasbag49
(g3769
g51
NtRp4255
(dp4256
g54
(dp4257
g3773
g3774
ssg63
g3796
sg56
(lp4258
g49
(g3762
g51
NtRp4259
(dp4260
g54
(dp4261
g3766
g3767
sg3768
S'#'
ssg63
g4255
sg56
(lp4262
g3686
(S't\x07\x00\x00\x00Plugins'
tRp4263
asbag49
(g3775
g51
NtRp4264
(dp4265
g54
(dp4266
g3773
g3783
ssg63
g4255
sg56
(lp4267
g49
(g3769
g51
NtRp4268
(dp4269
g54
(dp4270
sg63
g4264
sg56
(lp4271
g49
(g3762
g51
NtRp4272
(dp4273
g54
(dp4274
g3768
S'http://web2py.com/examples/default/download'
p4275
ssg63
g4268
sg56
(lp4276
S'plugin_wiki'
p4277
asbasbag49
(g3769
g51
NtRp4278
(dp4279
g54
(dp4280
sg63
g4264
sg56
(lp4281
g49
(g3762
g51
NtRp4282
(dp4283
g54
(dp4284
g3768
g4005
ssg63
g4278
sg56
(lp4285
g3686
(S's\r\x00\x00\x00Other Plugins'
tRp4286
asbasbag49
(g3769
g51
NtRp4287
(dp4288
g54
(dp4289
sg63
g4264
sg56
(lp4290
g49
(g3762
g51
NtRp4291
(dp4292
g54
(dp4293
g3768
g4015
ssg63
g4287
sg56
(lp4294
g3686
(S's\x0e\x00\x00\x00Layout Plugins'
tRp4295
asbasbasbasbasbasbsg56
(lp4296
g3758
asbsg56
(lp4297
g3632
asbasbasbasbag49
(g65
g51
NtRp4298
(dp4299
g54
(dp4300
sg63
g3741
sg56
(lp4301
g49
(g70
g51
NtRp4302
(dp4303
g54
(dp4304
sg63
g4298
sg56
(lp4305
g49
(g50
g51
NtRp4306
(dp4307
g54
(dp4308
g62
I3
ssg63
g4302
sg56
(lp4309
g92
asbasbasbag49
(g65
g51
NtRp4310
(dp4311
g54
(dp4312
sg63
g3741
sg56
(lp4313
g49
(g70
g51
NtRp4314
(dp4315
g54
(dp4316
sg63
g4310
sg56
(lp4317
g49
(g50
g51
NtRp4318
(dp4319
g54
(dp4320
g62
I3
ssg63
g4314
sg56
(lp4321
S'None'
p4322
asbasbasbag49
(g65
g51
NtRp4323
(dp4324
g54
(dp4325
sg63
g3741
sg56
(lp4326
g49
(g70
g51
NtRp4327
(dp4328
g54
(dp4329
sg63
g4323
sg56
(lp4330
g49
(g50
g51
NtRp4331
(dp4332
g54
(dp4333
g62
I3
ssg63
g4327
sg56
(lp4334
g49
(g58
g51
NtRp4335
(dp4336
g54
(dp4337
g62
I2
ssg63
Nsg56
(lp4338
g49
(g65
g51
NtRp4339
(dp4340
g54
(dp4341
sg63
g4335
sg56
(lp4342
g49
(g70
g51
NtRp4343
(dp4344
g54
(dp4345
sg63
g4339
sg56
(lp4346
g49
(g50
g51
NtRp4347
(dp4348
g54
(dp4349
g62
I2
ssg63
g4343
sg56
(lp4350
g49
(g58
g51
NtRp4351
(dp4352
g54
(dp4353
g62
I1
ssg63
Nsg56
(lp4354
g49
(g65
g51
NtRp4355
(dp4356
g54
(dp4357
sg63
g4351
sg56
(lp4358
g49
(g70
g51
NtRp4359
(dp4360
g54
(dp4361
sg63
g4355
sg56
(lp4362
g49
(g50
g51
NtRp4363
(dp4364
g54
(dp4365
g62
I1
ssg63
g4359
sg56
(lp4366
g3809
asbasbasbag49
(g65
g51
NtRp4367
(dp4368
g54
(dp4369
sg63
g4351
sg56
(lp4370
g49
(g70
g51
NtRp4371
(dp4372
g54
(dp4373
sg63
g4367
sg56
(lp4374
g49
(g50
g51
NtRp4375
(dp4376
g54
(dp4377
g62
I1
ssg63
g4371
sg56
(lp4378
I00
asbasbasbag49
(g65
g51
NtRp4379
(dp4380
g54
(dp4381
sg63
g4351
sg56
(lp4382
g49
(g70
g51
NtRp4383
(dp4384
g54
(dp4385
sg63
g4379
sg56
(lp4386
g49
(g50
g51
NtRp4387
(dp4388
g54
(dp4389
g62
I1
ssg63
g4383
sg56
(lp4390
g3807
asbasbasbasbasbasbasbag49
(g65
g51
NtRp4391
(dp4392
g54
(dp4393
sg63
g4335
sg56
(lp4394
g49
(g70
g51
NtRp4395
(dp4396
g54
(dp4397
sg63
g4391
sg56
(lp4398
g49
(g50
g51
NtRp4399
(dp4400
g54
(dp4401
g62
I2
ssg63
g4395
sg56
(lp4402
g49
(g58
g51
NtRp4403
(dp4404
g54
(dp4405
g62
I1
ssg63
Nsg56
(lp4406
g49
(g65
g51
NtRp4407
(dp4408
g54
(dp4409
sg63
g4403
sg56
(lp4410
g49
(g70
g51
NtRp4411
(dp4412
g54
(dp4413
sg63
g4407
sg56
(lp4414
g49
(g50
g51
NtRp4415
(dp4416
g54
(dp4417
g62
I1
ssg63
g4411
sg56
(lp4418
g3819
asbasbasbag49
(g65
g51
NtRp4419
(dp4420
g54
(dp4421
sg63
g4403
sg56
(lp4422
g49
(g70
g51
NtRp4423
(dp4424
g54
(dp4425
sg63
g4419
sg56
(lp4426
g49
(g50
g51
NtRp4427
(dp4428
g54
(dp4429
g62
I1
ssg63
g4423
sg56
(lp4430
I00
asbasbasbag49
(g65
g51
NtRp4431
(dp4432
g54
(dp4433
sg63
g4403
sg56
(lp4434
g49
(g70
g51
NtRp4435
(dp4436
g54
(dp4437
sg63
g4431
sg56
(lp4438
g49
(g50
g51
NtRp4439
(dp4440
g54
(dp4441
g62
I1
ssg63
g4435
sg56
(lp4442
g3817
asbasbasbag49
(g65
g51
NtRp4443
(dp4444
g54
(dp4445
sg63
g4403
sg56
(lp4446
g49
(g70
g51
NtRp4447
(dp4448
g54
(dp4449
sg63
g4443
sg56
(lp4450
g49
(g50
g51
NtRp4451
(dp4452
g54
(dp4453
g62
I1
ssg63
g4447
sg56
(lp4454
(lp4455
(g3833
I00
g3831
tp4456
a(g3843
I00
g3841
tp4457
a(g3853
I00
g3851
tp4458
a(g3863
I00
g3861
tp4459
a(g3873
I00
g3871
tp4460
a(g3883
I00
g3881
tp4461
a(g3893
I00
g3891
tp4462
a(g3903
I00
g3901
tp4463
a(g3913
I00
g3911
tp4464
aasbasbasbasbasbasbasbag49
(g65
g51
NtRp4465
(dp4466
g54
(dp4467
sg63
g4335
sg56
(lp4468
g49
(g70
g51
NtRp4469
(dp4470
g54
(dp4471
sg63
g4465
sg56
(lp4472
g49
(g50
g51
NtRp4473
(dp4474
g54
(dp4475
g62
I2
ssg63
g4469
sg56
(lp4476
g49
(g58
g51
NtRp4477
(dp4478
g54
(dp4479
g62
I1
ssg63
Nsg56
(lp4480
g49
(g65
g51
NtRp4481
(dp4482
g54
(dp4483
sg63
g4477
sg56
(lp4484
g49
(g70
g51
NtRp4485
(dp4486
g54
(dp4487
sg63
g4481
sg56
(lp4488
g49
(g50
g51
NtRp4489
(dp4490
g54
(dp4491
g62
I1
ssg63
g4485
sg56
(lp4492
g3923
asbasbasbag49
(g65
g51
NtRp4493
(dp4494
g54
(dp4495
sg63
g4477
sg56
(lp4496
g49
(g70
g51
NtRp4497
(dp4498
g54
(dp4499
sg63
g4493
sg56
(lp4500
g49
(g50
g51
NtRp4501
(dp4502
g54
(dp4503
g62
I1
ssg63
g4497
sg56
(lp4504
I00
asbasbasbag49
(g65
g51
NtRp4505
(dp4506
g54
(dp4507
sg63
g4477
sg56
(lp4508
g49
(g70
g51
NtRp4509
(dp4510
g54
(dp4511
sg63
g4505
sg56
(lp4512
g49
(g50
g51
NtRp4513
(dp4514
g54
(dp4515
g62
I1
ssg63
g4509
sg56
(lp4516
g3921
asbasbasbag49
(g65
g51
NtRp4517
(dp4518
g54
(dp4519
sg63
g4477
sg56
(lp4520
g49
(g70
g51
NtRp4521
(dp4522
g54
(dp4523
sg63
g4517
sg56
(lp4524
g49
(g50
g51
NtRp4525
(dp4526
g54
(dp4527
g62
I1
ssg63
g4521
sg56
(lp4528
(lp4529
(g3937
I00
g3935
tp4530
a(g3947
I00
g3945
tp4531
a(g3957
I00
g3955
tp4532
a(g3967
I00
g3965
tp4533
a(g3977
I00
g3975
tp4534
a(g3987
I00
g3985
tp4535
a(g3997
I00
g3995
tp4536
a(g4007
I00
g4005
tp4537
a(g4017
I00
g4015
tp4538
a(g4027
I00
g4025
tp4539
a(g4037
I00
g4035
tp4540
aasbasbasbasbasbasbasbag49
(g65
g51
NtRp4541
(dp4542
g54
(dp4543
sg63
g4335
sg56
(lp4544
g49
(g70
g51
NtRp4545
(dp4546
g54
(dp4547
sg63
g4541
sg56
(lp4548
g49
(g50
g51
NtRp4549
(dp4550
g54
(dp4551
g62
I2
ssg63
g4545
sg56
(lp4552
g49
(g58
g51
NtRp4553
(dp4554
g54
(dp4555
g62
I1
ssg63
Nsg56
(lp4556
g49
(g65
g51
NtRp4557
(dp4558
g54
(dp4559
sg63
g4553
sg56
(lp4560
g49
(g70
g51
NtRp4561
(dp4562
g54
(dp4563
sg63
g4557
sg56
(lp4564
g49
(g50
g51
NtRp4565
(dp4566
g54
(dp4567
g62
I1
ssg63
g4561
sg56
(lp4568
g4047
asbasbasbag49
(g65
g51
NtRp4569
(dp4570
g54
(dp4571
sg63
g4553
sg56
(lp4572
g49
(g70
g51
NtRp4573
(dp4574
g54
(dp4575
sg63
g4569
sg56
(lp4576
g49
(g50
g51
NtRp4577
(dp4578
g54
(dp4579
g62
I1
ssg63
g4573
sg56
(lp4580
I00
asbasbasbag49
(g65
g51
NtRp4581
(dp4582
g54
(dp4583
sg63
g4553
sg56
(lp4584
g49
(g70
g51
NtRp4585
(dp4586
g54
(dp4587
sg63
g4581
sg56
(lp4588
g49
(g50
g51
NtRp4589
(dp4590
g54
(dp4591
g62
I1
ssg63
g4585
sg56
(lp4592
g4045
asbasbasbag49
(g65
g51
NtRp4593
(dp4594
g54
(dp4595
sg63
g4553
sg56
(lp4596
g49
(g70
g51
NtRp4597
(dp4598
g54
(dp4599
sg63
g4593
sg56
(lp4600
g49
(g50
g51
NtRp4601
(dp4602
g54
(dp4603
g62
I1
ssg63
g4597
sg56
(lp4604
(lp4605
(g4061
I00
g4059
tp4606
a(g4071
I00
g4069
tp4607
a(g4081
I00
g4079
tp4608
a(g4091
I00
g4089
tp4609
a(g4101
I00
g4099
tp4610
a(g4111
I00
g4109
tp4611
a(g4121
I00
g4119
tp4612
a(g4131
I00
g4129
tp4613
a(g4141
I00
g4139
tp4614
a(g4151
I00
g4149
tp4615
a(g4161
I00
g4159
tp4616
a(g4171
I00
g4169
tp4617
a(g4181
I00
g4179
tp4618
a(g4191
I00
g4189
tp4619
a(g4201
I00
g4199
tp4620
a(g4211
I00
g4209
tp4621
aasbasbasbasbasbasbasbag49
(g65
g51
NtRp4622
(dp4623
g54
(dp4624
sg63
g4335
sg56
(lp4625
g49
(g70
g51
NtRp4626
(dp4627
g54
(dp4628
sg63
g4622
sg56
(lp4629
g49
(g50
g51
NtRp4630
(dp4631
g54
(dp4632
g62
I2
ssg63
g4626
sg56
(lp4633
g49
(g58
g51
NtRp4634
(dp4635
g54
(dp4636
g62
I1
ssg63
Nsg56
(lp4637
g49
(g65
g51
NtRp4638
(dp4639
g54
(dp4640
sg63
g4634
sg56
(lp4641
g49
(g70
g51
NtRp4642
(dp4643
g54
(dp4644
sg63
g4638
sg56
(lp4645
g49
(g50
g51
NtRp4646
(dp4647
g54
(dp4648
g62
I1
ssg63
g4642
sg56
(lp4649
g4220
asbasbasbag49
(g65
g51
NtRp4650
(dp4651
g54
(dp4652
sg63
g4634
sg56
(lp4653
g49
(g70
g51
NtRp4654
(dp4655
g54
(dp4656
sg63
g4650
sg56
(lp4657
g49
(g50
g51
NtRp4658
(dp4659
g54
(dp4660
g62
I1
ssg63
g4654
sg56
(lp4661
I00
asbasbasbag49
(g65
g51
NtRp4662
(dp4663
g54
(dp4664
sg63
g4634
sg56
(lp4665
g49
(g70
g51
NtRp4666
(dp4667
g54
(dp4668
sg63
g4662
sg56
(lp4669
g49
(g50
g51
NtRp4670
(dp4671
g54
(dp4672
g62
I1
ssg63
g4666
sg56
(lp4673
Nasbasbasbag49
(g65
g51
NtRp4674
(dp4675
g54
(dp4676
sg63
g4634
sg56
(lp4677
g49
(g70
g51
NtRp4678
(dp4679
g54
(dp4680
sg63
g4674
sg56
(lp4681
g49
(g50
g51
NtRp4682
(dp4683
g54
(dp4684
g62
I1
ssg63
g4678
sg56
(lp4685
(lp4686
(g4234
I00
g4232
tp4687
a(g4244
I00
g4242
tp4688
a(g4254
I00
g4252
tp4689
aasbasbasbasbasbasbasbag49
(g65
g51
NtRp4690
(dp4691
g54
(dp4692
sg63
g4335
sg56
(lp4693
g49
(g70
g51
NtRp4694
(dp4695
g54
(dp4696
sg63
g4690
sg56
(lp4697
g49
(g50
g51
NtRp4698
(dp4699
g54
(dp4700
g62
I2
ssg63
g4694
sg56
(lp4701
g49
(g58
g51
NtRp4702
(dp4703
g54
(dp4704
g62
I1
ssg63
Nsg56
(lp4705
g49
(g65
g51
NtRp4706
(dp4707
g54
(dp4708
sg63
g4702
sg56
(lp4709
g49
(g70
g51
NtRp4710
(dp4711
g54
(dp4712
sg63
g4706
sg56
(lp4713
g49
(g50
g51
NtRp4714
(dp4715
g54
(dp4716
g62
I1
ssg63
g4710
sg56
(lp4717
g4263
asbasbasbag49
(g65
g51
NtRp4718
(dp4719
g54
(dp4720
sg63
g4702
sg56
(lp4721
g49
(g70
g51
NtRp4722
(dp4723
g54
(dp4724
sg63
g4718
sg56
(lp4725
g49
(g50
g51
NtRp4726
(dp4727
g54
(dp4728
g62
I1
ssg63
g4722
sg56
(lp4729
I00
asbasbasbag49
(g65
g51
NtRp4730
(dp4731
g54
(dp4732
sg63
g4702
sg56
(lp4733
g49
(g70
g51
NtRp4734
(dp4735
g54
(dp4736
sg63
g4730
sg56
(lp4737
g49
(g50
g51
NtRp4738
(dp4739
g54
(dp4740
g62
I1
ssg63
g4734
sg56
(lp4741
Nasbasbasbag49
(g65
g51
NtRp4742
(dp4743
g54
(dp4744
sg63
g4702
sg56
(lp4745
g49
(g70
g51
NtRp4746
(dp4747
g54
(dp4748
sg63
g4742
sg56
(lp4749
g49
(g50
g51
NtRp4750
(dp4751
g54
(dp4752
g62
I1
ssg63
g4746
sg56
(lp4753
(lp4754
(g4277
I00
g4275
tp4755
a(g4286
I00
g4005
tp4756
a(g4295
I00
g4015
tp4757
aasbasbasbasbasbasbasbasbasbasbasbasbasbasbasbasbasbasbasbag49
(g65
g51
NtRp4758
(dp4759
g54
(dp4760
sg63
g3058
sg56
(lp4761
g49
(g70
g51
NtRp4762
(dp4763
g54
(dp4764
g74
g75
ssg63
g4758
sg56
(lp4765
S'meta'
p4766
asbag49
(g70
g51
NtRp4767
(dp4768
g54
(dp4769
g81
g82
ssg63
g4758
sg56
(lp4770
S':'
asbag49
(g70
g51
NtRp4771
(dp4772
g54
(dp4773
sg63
g4758
sg56
(lp4774
g49
(g50
g51
NtRp4775
(dp4776
g54
(dp4777
g62
I5
ssg63
g4771
sg56
(lp4778
g49
(g58
g51
NtRp4779
(dp4780
g54
(dp4781
g62
I4
ssg63
Nsg56
(lp4782
g49
(g65
g51
NtRp4783
(dp4784
g54
(dp4785
sg63
g4779
sg56
(lp4786
g49
(g70
g51
NtRp4787
(dp4788
g54
(dp4789
g74
g75
ssg63
g4783
sg56
(lp4790
S'author'
p4791
asbag49
(g70
g51
NtRp4792
(dp4793
g54
(dp4794
g81
g82
ssg63
g4783
sg56
(lp4795
S':'
asbag49
(g70
g51
NtRp4796
(dp4797
g54
(dp4798
sg63
g4783
sg56
(lp4799
g49
(g50
g51
NtRp4800
(dp4801
g54
(dp4802
g62
I4
ssg63
g4796
sg56
(lp4803
S'Your Name <you@example.com>'
p4804
asbasbasbag49
(g65
g51
NtRp4805
(dp4806
g54
(dp4807
sg63
g4779
sg56
(lp4808
g49
(g70
g51
NtRp4809
(dp4810
g54
(dp4811
g74
g75
ssg63
g4805
sg56
(lp4812
S'copyright'
p4813
asbag49
(g70
g51
NtRp4814
(dp4815
g54
(dp4816
g81
g82
ssg63
g4805
sg56
(lp4817
S':'
asbag49
(g70
g51
NtRp4818
(dp4819
g54
(dp4820
sg63
g4805
sg56
(lp4821
g49
(g50
g51
NtRp4822
(dp4823
g54
(dp4824
g62
I4
ssg63
g4818
sg56
(lp4825
S'Copyright 2011'
p4826
asbasbasbag49
(g65
g51
NtRp4827
(dp4828
g54
(dp4829
sg63
g4779
sg56
(lp4830
g49
(g70
g51
NtRp4831
(dp4832
g54
(dp4833
g74
g75
ssg63
g4827
sg56
(lp4834
S'description'
p4835
asbag49
(g70
g51
NtRp4836
(dp4837
g54
(dp4838
g81
g82
ssg63
g4827
sg56
(lp4839
S':'
asbag49
(g70
g51
NtRp4840
(dp4841
g54
(dp4842
sg63
g4827
sg56
(lp4843
g49
(g50
g51
NtRp4844
(dp4845
g54
(dp4846
g62
I4
ssg63
g4840
sg56
(lp4847
S'a cool new app'
p4848
asbasbasbag49
(g65
g51
NtRp4849
(dp4850
g54
(dp4851
sg63
g4779
sg56
(lp4852
g49
(g70
g51
NtRp4853
(dp4854
g54
(dp4855
g74
g75
ssg63
g4849
sg56
(lp4856
S'generator'
p4857
asbag49
(g70
g51
NtRp4858
(dp4859
g54
(dp4860
g81
g82
ssg63
g4849
sg56
(lp4861
S':'
asbag49
(g70
g51
NtRp4862
(dp4863
g54
(dp4864
sg63
g4849
sg56
(lp4865
g49
(g50
g51
NtRp4866
(dp4867
g54
(dp4868
g62
I4
ssg63
g4862
sg56
(lp4869
S'Web2py Web Framework'
p4870
asbasbasbag49
(g65
g51
NtRp4871
(dp4872
g54
(dp4873
sg63
g4779
sg56
(lp4874
g49
(g70
g51
NtRp4875
(dp4876
g54
(dp4877
g74
g75
ssg63
g4871
sg56
(lp4878
S'keywords'
p4879
asbag49
(g70
g51
NtRp4880
(dp4881
g54
(dp4882
g81
g82
ssg63
g4871
sg56
(lp4883
S':'
asbag49
(g70
g51
NtRp4884
(dp4885
g54
(dp4886
sg63
g4871
sg56
(lp4887
g49
(g50
g51
NtRp4888
(dp4889
g54
(dp4890
g62
I4
ssg63
g4884
sg56
(lp4891
S'web2py, python, framework'
p4892
asbasbasbasbasbasbasbag49
(g65
g51
NtRp4893
(dp4894
g54
(dp4895
sg63
g3058
sg56
(lp4896
g49
(g70
g51
NtRp4897
(dp4898
g54
(dp4899
g74
g75
ssg63
g4893
sg56
(lp4900
S'postprocessing'
p4901
asbag49
(g70
g51
NtRp4902
(dp4903
g54
(dp4904
g81
g82
ssg63
g4893
sg56
(lp4905
S':'
asbag49
(g70
g51
NtRp4906
(dp4907
g54
(dp4908
sg63
g4893
sg56
(lp4909
g49
(g50
g51
NtRp4910
(dp4911
g54
(dp4912
g62
I5
ssg63
g4906
sg56
(lp4913
g49
(g58
g51
NtRp4914
(dp4915
g54
(dp4916
g62
I4
ssg63
Nsg56
(lp4917
sbasbasbasbag49
(g65
g51
NtRp4918
(dp4919
g54
(dp4920
sg63
g3058
sg56
(lp4921
g49
(g70
g51
NtRp4922
(dp4923
g54
(dp4924
g74
g75
ssg63
g4918
sg56
(lp4925
S'session_file'
p4926
asbag49
(g70
g51
NtRp4927
(dp4928
g54
(dp4929
g81
g82
ssg63
g4918
sg56
(lp4930
S':'
asbag49
(g70
g51
NtRp4931
(dp4932
g54
(dp4933
sg63
g4918
sg56
(lp4934
g49
(g50
g51
NtRp4935
(dp4936
g54
(dp4937
g62
I5
ssg63
g4931
sg56
(lp4938
S"<open file 'C:\\web2py\\applications\\unioeste_code\\sessions\\127.0.0.1-bc48ac14-a4c3-4aad-bdf5-edbbf68c575e', mode 'rb+' at 0x068F06E0>"
p4939
asbasbasbag49
(g65
g51
NtRp4940
(dp4941
g54
(dp4942
sg63
g3058
sg56
(lp4943
g49
(g70
g51
NtRp4944
(dp4945
g54
(dp4946
g74
g75
ssg63
g4940
sg56
(lp4947
S'session_filename'
p4948
asbag49
(g70
g51
NtRp4949
(dp4950
g54
(dp4951
g81
g82
ssg63
g4940
sg56
(lp4952
S':'
asbag49
(g70
g51
NtRp4953
(dp4954
g54
(dp4955
sg63
g4940
sg56
(lp4956
g49
(g50
g51
NtRp4957
(dp4958
g54
(dp4959
g62
I5
ssg63
g4953
sg56
(lp4960
S'C:\\web2py\\applications\\unioeste_code\\sessions\\127.0.0.1-bc48ac14-a4c3-4aad-bdf5-edbbf68c575e'
p4961
asbasbasbag49
(g65
g51
NtRp4962
(dp4963
g54
(dp4964
sg63
g3058
sg56
(lp4965
g49
(g70
g51
NtRp4966
(dp4967
g54
(dp4968
g74
g75
ssg63
g4962
sg56
(lp4969
S'session_id'
p4970
asbag49
(g70
g51
NtRp4971
(dp4972
g54
(dp4973
g81
g82
ssg63
g4962
sg56
(lp4974
S':'
asbag49
(g70
g51
NtRp4975
(dp4976
g54
(dp4977
sg63
g4962
sg56
(lp4978
g49
(g50
g51
NtRp4979
(dp4980
g54
(dp4981
g62
I5
ssg63
g4975
sg56
(lp4982
S'127.0.0.1-bc48ac14-a4c3-4aad-bdf5-edbbf68c575e'
p4983
asbasbasbag49
(g65
g51
NtRp4984
(dp4985
g54
(dp4986
sg63
g3058
sg56
(lp4987
g49
(g70
g51
NtRp4988
(dp4989
g54
(dp4990
g74
g75
ssg63
g4984
sg56
(lp4991
S'session_id_name'
p4992
asbag49
(g70
g51
NtRp4993
(dp4994
g54
(dp4995
g81
g82
ssg63
g4984
sg56
(lp4996
S':'
asbag49
(g70
g51
NtRp4997
(dp4998
g54
(dp4999
sg63
g4984
sg56
(lp5000
g49
(g50
g51
NtRp5001
(dp5002
g54
(dp5003
g62
I5
ssg63
g4997
sg56
(lp5004
g3115
asbasbasbag49
(g65
g51
NtRp5005
(dp5006
g54
(dp5007
sg63
g3058
sg56
(lp5008
g49
(g70
g51
NtRp5009
(dp5010
g54
(dp5011
g74
g75
ssg63
g5005
sg56
(lp5012
S'session_locked'
p5013
asbag49
(g70
g51
NtRp5014
(dp5015
g54
(dp5016
g81
g82
ssg63
g5005
sg56
(lp5017
S':'
asbag49
(g70
g51
NtRp5018
(dp5019
g54
(dp5020
sg63
g5005
sg56
(lp5021
g49
(g50
g51
NtRp5022
(dp5023
g54
(dp5024
g62
I5
ssg63
g5018
sg56
(lp5025
g1630
asbasbasbag49
(g65
g51
NtRp5026
(dp5027
g54
(dp5028
sg63
g3058
sg56
(lp5029
g49
(g70
g51
NtRp5030
(dp5031
g54
(dp5032
g74
g75
ssg63
g5026
sg56
(lp5033
S'session_new'
p5034
asbag49
(g70
g51
NtRp5035
(dp5036
g54
(dp5037
g81
g82
ssg63
g5026
sg56
(lp5038
S':'
asbag49
(g70
g51
NtRp5039
(dp5040
g54
(dp5041
sg63
g5026
sg56
(lp5042
g49
(g50
g51
NtRp5043
(dp5044
g54
(dp5045
g62
I5
ssg63
g5039
sg56
(lp5046
g92
asbasbasbag49
(g65
g51
NtRp5047
(dp5048
g54
(dp5049
sg63
g3058
sg56
(lp5050
g49
(g70
g51
NtRp5051
(dp5052
g54
(dp5053
g74
g75
ssg63
g5047
sg56
(lp5054
S'status'
p5055
asbag49
(g70
g51
NtRp5056
(dp5057
g54
(dp5058
g81
g82
ssg63
g5047
sg56
(lp5059
S':'
asbag49
(g70
g51
NtRp5060
(dp5061
g54
(dp5062
sg63
g5047
sg56
(lp5063
g49
(g50
g51
NtRp5064
(dp5065
g54
(dp5066
g62
I5
ssg63
g5060
sg56
(lp5067
S'200'
p5068
asbasbasbag49
(g65
g51
NtRp5069
(dp5070
g54
(dp5071
sg63
g3058
sg56
(lp5072
g49
(g70
g51
NtRp5073
(dp5074
g54
(dp5075
g74
g75
ssg63
g5069
sg56
(lp5076
S'subtitle'
p5077
asbag49
(g70
g51
NtRp5078
(dp5079
g54
(dp5080
g81
g82
ssg63
g5069
sg56
(lp5081
S':'
asbag49
(g70
g51
NtRp5082
(dp5083
g54
(dp5084
sg63
g5069
sg56
(lp5085
g49
(g50
g51
NtRp5086
(dp5087
g54
(dp5088
g62
I5
ssg63
g5082
sg56
(lp5089
g3686
(S's\x0f\x00\x00\x00Personalize-me!'
tRp5090
asbasbasbag49
(g65
g51
NtRp5091
(dp5092
g54
(dp5093
sg63
g3058
sg56
(lp5094
g49
(g70
g51
NtRp5095
(dp5096
g54
(dp5097
g74
g75
ssg63
g5091
sg56
(lp5098
S'title'
p5099
asbag49
(g70
g51
NtRp5100
(dp5101
g54
(dp5102
g81
g82
ssg63
g5091
sg56
(lp5103
S':'
asbag49
(g70
g51
NtRp5104
(dp5105
g54
(dp5106
sg63
g5091
sg56
(lp5107
g49
(g50
g51
NtRp5108
(dp5109
g54
(dp5110
g62
I5
ssg63
g5104
sg56
(lp5111
S'Unioeste Code'
p5112
asbasbasbag49
(g65
g51
NtRp5113
(dp5114
g54
(dp5115
sg63
g3058
sg56
(lp5116
g49
(g70
g51
NtRp5117
(dp5118
g54
(dp5119
g74
g75
ssg63
g5113
sg56
(lp5120
g2294
asbag49
(g70
g51
NtRp5121
(dp5122
g54
(dp5123
g81
g82
ssg63
g5113
sg56
(lp5124
S':'
asbag49
(g70
g51
NtRp5125
(dp5126
g54
(dp5127
sg63
g5113
sg56
(lp5128
g49
(g50
g51
NtRp5129
(dp5130
g54
(dp5131
g62
I5
ssg63
g5125
sg56
(lp5132
g2307
asbasbasbag49
(g65
g51
NtRp5133
(dp5134
g54
(dp5135
sg63
g3058
sg56
(lp5136
g49
(g70
g51
NtRp5137
(dp5138
g54
(dp5139
g74
g75
ssg63
g5133
sg56
(lp5140
S'view'
p5141
asbag49
(g70
g51
NtRp5142
(dp5143
g54
(dp5144
g81
g82
ssg63
g5133
sg56
(lp5145
S':'
asbag49
(g70
g51
NtRp5146
(dp5147
g54
(dp5148
sg63
g5133
sg56
(lp5149
g49
(g50
g51
NtRp5150
(dp5151
g54
(dp5152
g62
I5
ssg63
g5146
sg56
(lp5153
S'default/index.html'
p5154
asbasbasbasbasbsS'locals'
p5155
(dp5156
S'urlencode'
p5157
S'None'
p5158
sS'RATINGS'
p5159
S'None'
p5160
sS'SECURE_BASE_URL'
p5161
S'None'
p5162
sS'simplejson'
p5163
S'None'
p5164
sS'__builtins__'
p5165
S"{'ArithmeticError': <type 'exceptions.ArithmeticError'>, 'AssertionError': <type 'exceptions.AssertionError'>, 'AttributeError': <type 'exceptions.AttributeError'>, 'BaseException': <type 'exceptions.BaseException'>, 'DeprecationWarning': <type 'exceptions.DeprecationWarning'>, 'EOFError': <type 'exceptions.EOFError'>, 'Ellipsis': Ellipsis, 'EnvironmentError': <type 'exceptions.EnvironmentError'>, 'Exception': <type 'exceptions.Exception'>, 'False': False, ...}"
p5166
sS'__file__'
p5167
S'None'
p5168
sS'BASE_URL'
p5169
S'None'
p5170
sS'__author__'
p5171
S'None'
p5172
sS'MIN_SIZE'
p5173
S'None'
p5174
sS'__email__'
p5175
S'None'
p5176
sS'PROFILE_URL'
p5177
S'None'
p5178
sS'DEFAULTS'
p5179
S'None'
p5180
sS'__name__'
p5181
S'None'
p5182
sS'__version__'
p5183
S'None'
p5184
sS'urlopen'
p5185
S'None'
p5186
sg40
S'None'
p5187
sS'MAX_SIZE'
p5188
S'None'
p5189
sS'md5'
p5190
S'None'
p5191
sssS'traceback'
p5192
S'Traceback (most recent call last):\n  File "gluon/restricted.py", line 205, in restricted\n  File "C:\\web2py\\applications\\unioeste_code\\views\\default/index.html", line 90, in <module>\n  File "gluon/custom_import.py", line 289, in __call__\n  File "gluon/custom_import.py", line 78, in __call__\n  File "applications\\unioeste_code\\modules\\pyGravatar.py", line 27, in <module>\nNameError: name \'Object\' is not defined\n'
p5193
s.