(dp1
S'output'
p2
S"<type 'exceptions.TypeError'> unsupported operand type(s) for +: 'int' and 'str'"
p3
sS'layer'
p4
S'C:\\web2py\\applications\\unioeste_code\\views\\default/showProblem.html'
p5
sS'code'
p6
S'left_sidebar_enabled,right_sidebar_enabled=False,False\nresponse.write(\'\\r\\n\', escape=False)\nresponse.write(\'<!DOCTYPE html>\\n<!-- paulirish.com/2008/conditional-stylesheets-vs-css-hacks-answer-neither/ -->\\n<!--[if lt IE 7]><html class="ie ie6 ie-lte9 ie-lte8 ie-lte7 no-js" lang="\', escape=False)\nresponse.write(T.accepted_language or \'en\')\nresponse.write(\'"> <![endif]-->\\n<!--[if IE 7]><html class="ie ie7 ie-lte9 ie-lte8 ie-lte7 no-js" lang="\', escape=False)\nresponse.write(T.accepted_language or \'en\')\nresponse.write(\'"> <![endif]-->\\n<!--[if IE 8]><html class="ie ie8 ie-lte9 ie-lte8 no-js" lang="\', escape=False)\nresponse.write(T.accepted_language or \'en\')\nresponse.write(\'"> <![endif]-->\\n<!--[if IE 9]><html class="ie9 ie-lte9 no-js" lang="\', escape=False)\nresponse.write(T.accepted_language or \'en\')\nresponse.write(\'"> <![endif]-->\\n<!--[if (gt IE 9)|!(IE)]><!--> <html class="no-js" lang="\', escape=False)\nresponse.write(T.accepted_language or \'en\')\nresponse.write(\'"> <!--<![endif]-->\\n<head>\\n  <meta charset="utf-8" />\\n  <!-- www.phpied.com/conditional-comments-block-downloads/ -->\\n  <!-- Always force latest IE rendering engine\\n\\t   (even in intranet) & Chrome Frame\\n\\t   Remove this if you use the .htaccess -->\\n  <!--[if IE]>\\n    <meta http-equiv="X-UA-Compatible" content="IE=edge\', escape=False)\nresponse.write(not request.is_local and \',chrome=1\' or \'\')\nresponse.write(\'">\\n  <![endif]-->\\n  \\n  <title>\', escape=False)\nresponse.write(response.title or request.application)\nresponse.write(\'</title>\\n  \\n  <!-- http://dev.w3.org/html5/markup/meta.name.html -->\\n  <meta name="application-name" content="\', escape=False)\nresponse.write(request.application)\nresponse.write(\'" />\\n  \\n  <!-- Speaking of Google, don\\\'t forget to set your site up:\\n\\t   http://google.com/webmasters -->\\n  <meta name="google-site-verification" content="" />\\n\\n  <!--  Mobile Viewport Fix\\n\\t  j.mp/mobileviewport & davidbcalhoun.com/2010/viewport-metatag\\n\\t  device-width: Occupy full width of the screen in its current orientation\\n\\t  initial-scale = 1.0 retains dimensions instead of zooming out if page height > device height\\n\\t  user-scalable = yes allows the user to zoom in -->\\n  <meta name="viewport" content="width=device-width, initial-scale=1.0, user-scalable=yes">\\n  \\n  <!-- Place favicon.ico and apple-touch-icon.png in the root of your domain and delete these references -->\\n  <link rel="shortcut icon" href="\', escape=False)\nresponse.write(URL(\'static\',\'favicon.ico\'))\nresponse.write(\'" type="image/x-icon">\\n  <link rel="apple-touch-icon" href="\', escape=False)\nresponse.write(URL(\'static\',\'favicon.png\'))\nresponse.write(\'">\\n\\n  <!-- All JavaScript at the bottom, except for Modernizr which enables \\n\\t   HTML5 elements & feature detects -->\\n  <script src="\', escape=False)\nresponse.write(URL(\'static\',\'js/modernizr.custom.js\'))\nresponse.write(\'"></script>  \\n\\n  <!-- include stylesheets -->\\n  \', escape=False)\nresponse.files.append(URL(\'static\',\'css/skeleton.css\'))\nresponse.files.append(URL(\'static\',\'css/web2py.css\'))\nif response.menu:\n    response.files.append(URL(\'static\',\'css/superfish.css\'))\n    response.files.append(URL(\'static\',\'js/superfish.js\'))\n    pass\nresponse.write(\'\\n\\n  \', escape=False)\nresponse.write(\'<script type="text/javascript"><!--\\n    // These variables are used by the web2py_ajax_init function in web2py_ajax.js (which is loaded below).\\n    var w2p_ajax_confirm_message = "\', escape=False)\nresponse.write(T(\'Are you sure you want to delete this object?\'))\nresponse.write(\'";\\n    var w2p_ajax_date_format = "\', escape=False)\nresponse.write(T(\'%Y-%m-%d\'))\nresponse.write(\'";\\n    var w2p_ajax_datetime_format = "\', escape=False)\nresponse.write(T(\'%Y-%m-%d %H:%M:%S\'))\nresponse.write(\'";\\n    //--></script>\\n\', escape=False)\nresponse.files.insert(0,URL(\'static\',\'js/jquery.js\'))\nresponse.files.insert(1,URL(\'static\',\'css/calendar.css\'))\nresponse.files.insert(2,URL(\'static\',\'js/calendar.js\'))\nresponse.files.insert(3,URL(\'static\',\'js/web2py.js\'))\nresponse.include_meta()\nresponse.include_files()\nresponse.write(\'\\n\', escape=False)\nresponse.write(\'\\n\\n  \', escape=False)\nif response.menu:\n    response.write(\'\\n  <script type="text/javascript">\\n    jQuery(function(){ jQuery(\\\'ul.sf-menu\\\').supersubs({minWidth:12,maxWidth:30,extraWidth:3}).superfish(); });\\n  </script>\\n  \', escape=False)\n    pass\nresponse.write(\'\\n\\n  \', escape=False)\n# using sidebars need to know what sidebar you want to use\nleft_sidebar_enabled = globals().get(\'left_sidebar_enabled\',False)\nright_sidebar_enabled = globals().get(\'right_sidebar_enabled\',False)\nmiddle_columns = {0:\'sixteen\',1:\'twelve\',2:\'eight\'}[\n(left_sidebar_enabled and 1 or 0)+(right_sidebar_enabled and 1 or 0)]\nresponse.write(\'\\n\\n  <!-- uncomment here to load jquery-ui\\n  <link rel="stylesheet" href="http://ajax.googleapis.com/ajax/libs/jqueryui/1.8.16/themes/base/jquery-ui.css" type="text/css" media="all" />\\n  <script src="http://ajax.googleapis.com/ajax/libs/jqueryui/1.8.16/jquery-ui.min.js" type="text/javascript"></script>\\n  uncomment to load jquery-ui //-->\\n</head>\\n<body>\\n  <div class="wrapper"><!-- for sticky footer -->\\n  \\n    <div class="topbar">\\n      <div class="container">    \\n        <div class="sixteen columns">\\n          <div id="navbar">\', escape=False)\nresponse.write(\'auth\' in globals() and auth.navbar(separators=(\' \',\' | \',\'\')))\nresponse.write(\'</div>\\n          \', escape=False)\nis_mobile=request.user_agent().is_mobile\nresponse.write(\'\\n\\t  \', escape=False)\nif response.menu:\n    response.write(\'\\n          <div id="menu">\\n             \', escape=False)\n    response.write(MENU(response.menu, _class=\'mobile-menu\' if is_mobile else \'sf-menu\',mobile=is_mobile))\n    response.write(\'\\n          </div>\\n          \', escape=False)\n    pass\nresponse.write(\'\\n        </div>\\n      </div>\\n    </div><!-- topbar -->\\n    \\n    <div class="flash">\', escape=False)\nresponse.write(response.flash or \'\')\nresponse.write(\'</div>\\n    \\n    <div class="header">\\n      <div class="container">         \\n        <div class="sixteen columns">\\n          <h1 class="remove-bottom" style="margin-top: .5em;">\\n          \', escape=False)\nresponse.write(response.title or request.application)\nresponse.write(\'\\n          </h1>\\n          <h5>\', escape=False)\nresponse.write(response.subtitle or \'\')\nresponse.write(\'</h5>\\n        </div>\\n        <div class="sixteen columns">\\n          <div class="statusbar clearfix">\\n            \', escape=False)\nresponse.write(\'\\n            <div class="breadcrumbs">\', escape=False)\nresponse.write(request.function.replace(\'_\', \' \').title())\nresponse.write(\'</div>\\n            \', escape=False)\nresponse.write(\'\\n            <!-- AddToAny BEGIN -->\\n            <div style="float:right; padding-top: .25em;" class="a2a_kit a2a_default_style">\\n            <a class="a2a_dd" href="http://www.addtoany.com/share_save">Share</a></div>\\n            <script type="text/javascript" src="http://static.addtoany.com/menu/page.js"></script>\\n            <!-- AddToAny END -->\\n          </div>\\n        </div>\\n      </div>\\n    </div>\\n\\n    <div class="main">\\n      <div class="container">                 \\n        \', escape=False)\nif left_sidebar_enabled:\n    response.write(\'\\n        <div class="four columns left-sidebar">\\n          \', escape=False)\n    response.write(\'\\n          <h3>Left Sidebar</h3>\\n          <p></p>\\n          \', escape=False)\n    response.write(\'\\n        </div>\\n        \', escape=False)\n    pass\nresponse.write(\'\\n        \\n        <div class="\', escape=False)\nresponse.write(middle_columns)\nresponse.write(\' columns center">\\n          \', escape=False)\nresponse.write(\'\\n          \', escape=False)\nresponse.write(\'\\r\\n\\r\\n\', escape=False)\nresponse.write(H1(problem.title))\nresponse.write(\'\\r\\n\', escape=False)\nresponse.write(H2("C\xc3\xb3digos postados", _style="color:green"))\nresponse.write(\'\\r\\n<ul>\\r\\n\', escape=False)\nfor i,code in enumerate(codes):\n    response.write(\'\\r\\n\', escape=False)\n    user = db(db.auth_user.id==code.created_by).select().first()\n    response.write(\'\\r\\n\', escape=False)\n    s = user.first_name + " " + user.last_name + " - (" + user.email + ")"\n    response.write(\'\\r\\n\', escape=False)\n    response.write(LI(A(i + " - " + s, _href=URL("showCode", args=problem.id))))\n    response.write(\'\\r\\n\', escape=False)\n    pass\nresponse.write(\'\\r\\n</ul>\\r\\n\\r\\n\', escape=False)\nresponse.write(\'\\n          \', escape=False)\nresponse.write(\'\\n        </div>\\n        \\n        \', escape=False)\nif right_sidebar_enabled:\n    response.write(\'\\n        <div class="four columns">\\n          \', escape=False)\n    response.write(\'\\n          <h3>Right Sidebar</h3>\\n          <p></p>\\n          \', escape=False)\n    response.write(\'\\n        </div>    \\n        \', escape=False)\n    pass\nresponse.write(\'\\n        \\n      </div><!-- container -->\\n    </div><!-- main -->\\n    \\n    <div class="push"></div>\\n  </div><!-- wrapper -->\\n\\n  <div class="footer">\\n    <div class="container">    \\n      <div class="sixteen columns">\\n        \', escape=False)\nresponse.write(\' <!-- this is default footer -->\\n        <div class="footer-content clearfix">\\n          <div class="copyright">\', escape=False)\nresponse.write(T(\'Copyright\'))\nresponse.write(\' &#169; 2011</div>\\n          <div style="float: right;">\\n            <a href="http://www.web2py.com/">\\n            <img style="padding-bottom: 0;" src="\', escape=False)\nresponse.write(URL(\'static\',\'images/poweredby.png\'))\nresponse.write(\'"/>\\n            </a>\\n          </div>\\n        </div>\\n        \', escape=False)\nresponse.write(\'\\t\\n      </div>\\n    </div><!-- container -->\\n  </div><!-- footer -->\\n  \\n  <!--[if lt IE 7 ]>\\n\\t<script src="\', escape=False)\nresponse.write(URL(\'static\',\'js/dd_belatedpng.js\'))\nresponse.write(\'"></script>\\n\\t<script> DD_belatedPNG.fix(\\\'img, .png_bg\\\'); //fix any <img> or .png_bg background-images </script>\\n\\t<![endif]-->\\n  \', escape=False)\nif response.google_analytics_id:\n    response.write(\'<script type="text/javascript"> var _gaq = _gaq || []; _gaq.push([\\\'_setAccount\\\', \\\'\', escape=False)\n    response.write(response.google_analytics_id)\n    response.write("\']); _gaq.push([\'_trackPageview\']); (function() { var ga = document.createElement(\'script\'); ga.type = \'text/javascript\'; ga.async = true; ga.src = (\'https:\' == document.location.protocol ? \'https://ssl\' : \'http://www\') + \'.google-analytics.com/ga.js\'; var s = document.getElementsByTagName(\'script\')[0]; s.parentNode.insertBefore(ga, s); })(); </script> ", escape=False)\n    pass\nresponse.write(\'\\n</body>\\n</html>\\n\', escape=False)'
p7
sS'snapshot'
p8
(dp9
S'exception'
p10
(dp11
S'__hash__'
p12
S"<method-wrapper '__hash__' of exceptions.TypeError object at 0x06A3C080>"
p13
sS'__setattr__'
p14
S"<method-wrapper '__setattr__' of exceptions.TypeError object at 0x06A3C080>"
p15
sS'__reduce_ex__'
p16
S'<built-in method __reduce_ex__ of exceptions.TypeError object at 0x06A3C080>'
p17
sS'__getslice__'
p18
S"<method-wrapper '__getslice__' of exceptions.TypeError object at 0x06A3C080>"
p19
sS'__getitem__'
p20
S"<method-wrapper '__getitem__' of exceptions.TypeError object at 0x06A3C080>"
p21
sS'__setstate__'
p22
S'<built-in method __setstate__ of exceptions.TypeError object at 0x06A3C080>'
p23
sS'__reduce__'
p24
S'<built-in method __reduce__ of exceptions.TypeError object at 0x06A3C080>'
p25
sS'__str__'
p26
S"<method-wrapper '__str__' of exceptions.TypeError object at 0x06A3C080>"
p27
sS'args'
p28
S'("unsupported operand type(s) for +: \'int\' and \'str\'",)'
p29
sS'__getattribute__'
p30
S"<method-wrapper '__getattribute__' of exceptions.TypeError object at 0x06A3C080>"
p31
sS'__class__'
p32
S"<type 'exceptions.TypeError'>"
p33
sS'__delattr__'
p34
S"<method-wrapper '__delattr__' of exceptions.TypeError object at 0x06A3C080>"
p35
sS'__repr__'
p36
S"<method-wrapper '__repr__' of exceptions.TypeError object at 0x06A3C080>"
p37
sS'__dict__'
p38
S'{}'
p39
sS'__doc__'
p40
S"'Inappropriate argument type.'"
p41
sS'__init__'
p42
S"<method-wrapper '__init__' of exceptions.TypeError object at 0x06A3C080>"
p43
sS'__new__'
p44
S'<built-in method __new__ of type object at 0x1E1CCD78>'
p45
ssS'evalue'
p46
S"unsupported operand type(s) for +: 'int' and 'str'"
p47
sS'request'
p48
ccopy_reg
_reconstructor
p49
(cgluon.html
BEAUTIFY
p50
c__builtin__
object
p51
NtRp52
(dp53
S'attributes'
p54
(dp55
sS'components'
p56
(lp57
g49
(cgluon.html
TABLE
p58
g51
NtRp59
(dp60
g54
(dp61
S'level'
p62
I5
ssS'parent'
p63
Nsg56
(lp64
g49
(cgluon.html
TR
p65
g51
NtRp66
(dp67
g54
(dp68
sg63
g59
sg56
(lp69
g49
(cgluon.html
TD
p70
g51
NtRp71
(dp72
g54
(dp73
S'_style'
p74
S'font-weight:bold;vertical-align:top'
p75
ssg63
g66
sg56
(lp76
S'ajax'
p77
asbag49
(g70
g51
NtRp78
(dp79
g54
(dp80
S'_valign'
p81
S'top'
p82
ssg63
g66
sg56
(lp83
S':'
asbag49
(g70
g51
NtRp84
(dp85
g54
(dp86
sg63
g66
sg56
(lp87
g49
(g50
g51
NtRp88
(dp89
g54
(dp90
g62
I5
ssg63
g84
sg56
(lp91
S'False'
p92
asbasbasbag49
(g65
g51
NtRp93
(dp94
g54
(dp95
sg63
g59
sg56
(lp96
g49
(g70
g51
NtRp97
(dp98
g54
(dp99
g74
g75
ssg63
g93
sg56
(lp100
S'application'
p101
asbag49
(g70
g51
NtRp102
(dp103
g54
(dp104
g81
g82
ssg63
g93
sg56
(lp105
S':'
asbag49
(g70
g51
NtRp106
(dp107
g54
(dp108
sg63
g93
sg56
(lp109
g49
(g50
g51
NtRp110
(dp111
g54
(dp112
g62
I5
ssg63
g106
sg56
(lp113
S'unioeste_code'
p114
asbasbasbag49
(g65
g51
NtRp115
(dp116
g54
(dp117
sg63
g59
sg56
(lp118
g49
(g70
g51
NtRp119
(dp120
g54
(dp121
g74
g75
ssg63
g115
sg56
(lp122
g28
asbag49
(g70
g51
NtRp123
(dp124
g54
(dp125
g81
g82
ssg63
g115
sg56
(lp126
S':'
asbag49
(g70
g51
NtRp127
(dp128
g54
(dp129
sg63
g115
sg56
(lp130
g49
(g50
g51
NtRp131
(dp132
g54
(dp133
g62
I5
ssg63
g127
sg56
(lp134
g49
(g58
g51
NtRp135
(dp136
g54
(dp137
g62
I4
ssg63
Nsg56
(lp138
g49
(g65
g51
NtRp139
(dp140
g54
(dp141
sg63
g135
sg56
(lp142
g49
(g70
g51
NtRp143
(dp144
g54
(dp145
sg63
g139
sg56
(lp146
g49
(g50
g51
NtRp147
(dp148
g54
(dp149
g62
I4
ssg63
g143
sg56
(lp150
S'1'
asbasbasbasbasbasbasbag49
(g65
g51
NtRp151
(dp152
g54
(dp153
sg63
g59
sg56
(lp154
g49
(g70
g51
NtRp155
(dp156
g54
(dp157
g74
g75
ssg63
g151
sg56
(lp158
S'body'
p159
asbag49
(g70
g51
NtRp160
(dp161
g54
(dp162
g81
g82
ssg63
g151
sg56
(lp163
S':'
asbag49
(g70
g51
NtRp164
(dp165
g54
(dp166
sg63
g151
sg56
(lp167
g49
(g50
g51
NtRp168
(dp169
g54
(dp170
g62
I5
ssg63
g164
sg56
(lp171
S'<cStringIO.StringO object at 0x064AA500>'
p172
asbasbasbag49
(g65
g51
NtRp173
(dp174
g54
(dp175
sg63
g59
sg56
(lp176
g49
(g70
g51
NtRp177
(dp178
g54
(dp179
g74
g75
ssg63
g173
sg56
(lp180
S'client'
p181
asbag49
(g70
g51
NtRp182
(dp183
g54
(dp184
g81
g82
ssg63
g173
sg56
(lp185
S':'
asbag49
(g70
g51
NtRp186
(dp187
g54
(dp188
sg63
g173
sg56
(lp189
g49
(g50
g51
NtRp190
(dp191
g54
(dp192
g62
I5
ssg63
g186
sg56
(lp193
S'127.0.0.1'
p194
asbasbasbag49
(g65
g51
NtRp195
(dp196
g54
(dp197
sg63
g59
sg56
(lp198
g49
(g70
g51
NtRp199
(dp200
g54
(dp201
g74
g75
ssg63
g195
sg56
(lp202
S'controller'
p203
asbag49
(g70
g51
NtRp204
(dp205
g54
(dp206
g81
g82
ssg63
g195
sg56
(lp207
S':'
asbag49
(g70
g51
NtRp208
(dp209
g54
(dp210
sg63
g195
sg56
(lp211
g49
(g50
g51
NtRp212
(dp213
g54
(dp214
g62
I5
ssg63
g208
sg56
(lp215
S'default'
p216
asbasbasbag49
(g65
g51
NtRp217
(dp218
g54
(dp219
sg63
g59
sg56
(lp220
g49
(g70
g51
NtRp221
(dp222
g54
(dp223
g74
g75
ssg63
g217
sg56
(lp224
S'cookies'
p225
asbag49
(g70
g51
NtRp226
(dp227
g54
(dp228
g81
g82
ssg63
g217
sg56
(lp229
S':'
asbag49
(g70
g51
NtRp230
(dp231
g54
(dp232
sg63
g217
sg56
(lp233
g49
(g50
g51
NtRp234
(dp235
g54
(dp236
g62
I5
ssg63
g230
sg56
(lp237
g49
(g58
g51
NtRp238
(dp239
g54
(dp240
g62
I4
ssg63
Nsg56
(lp241
g49
(g65
g51
NtRp242
(dp243
g54
(dp244
sg63
g238
sg56
(lp245
g49
(g70
g51
NtRp246
(dp247
g54
(dp248
g74
g75
ssg63
g242
sg56
(lp249
S'session_id_admin'
p250
asbag49
(g70
g51
NtRp251
(dp252
g54
(dp253
g81
g82
ssg63
g242
sg56
(lp254
S':'
asbag49
(g70
g51
NtRp255
(dp256
g54
(dp257
sg63
g242
sg56
(lp258
g49
(g50
g51
NtRp259
(dp260
g54
(dp261
g62
I4
ssg63
g255
sg56
(lp262
g49
(g58
g51
NtRp263
(dp264
g54
(dp265
g62
I3
ssg63
Nsg56
(lp266
g49
(g65
g51
NtRp267
(dp268
g54
(dp269
sg63
g263
sg56
(lp270
g49
(g70
g51
NtRp271
(dp272
g54
(dp273
g74
g75
ssg63
g267
sg56
(lp274
S'comment'
p275
asbag49
(g70
g51
NtRp276
(dp277
g54
(dp278
g81
g82
ssg63
g267
sg56
(lp279
S':'
asbag49
(g70
g51
NtRp280
(dp281
g54
(dp282
sg63
g267
sg56
(lp283
g49
(g50
g51
NtRp284
(dp285
g54
(dp286
g62
I3
ssg63
g280
sg56
(lp287
S''
asbasbasbag49
(g65
g51
NtRp288
(dp289
g54
(dp290
sg63
g263
sg56
(lp291
g49
(g70
g51
NtRp292
(dp293
g54
(dp294
g74
g75
ssg63
g288
sg56
(lp295
S'domain'
p296
asbag49
(g70
g51
NtRp297
(dp298
g54
(dp299
g81
g82
ssg63
g288
sg56
(lp300
S':'
asbag49
(g70
g51
NtRp301
(dp302
g54
(dp303
sg63
g288
sg56
(lp304
g49
(g50
g51
NtRp305
(dp306
g54
(dp307
g62
I3
ssg63
g301
sg56
(lp308
S''
asbasbasbag49
(g65
g51
NtRp309
(dp310
g54
(dp311
sg63
g263
sg56
(lp312
g49
(g70
g51
NtRp313
(dp314
g54
(dp315
g74
g75
ssg63
g309
sg56
(lp316
S'expires'
p317
asbag49
(g70
g51
NtRp318
(dp319
g54
(dp320
g81
g82
ssg63
g309
sg56
(lp321
S':'
asbag49
(g70
g51
NtRp322
(dp323
g54
(dp324
sg63
g309
sg56
(lp325
g49
(g50
g51
NtRp326
(dp327
g54
(dp328
g62
I3
ssg63
g322
sg56
(lp329
S''
asbasbasbag49
(g65
g51
NtRp330
(dp331
g54
(dp332
sg63
g263
sg56
(lp333
g49
(g70
g51
NtRp334
(dp335
g54
(dp336
g74
g75
ssg63
g330
sg56
(lp337
S'max-age'
p338
asbag49
(g70
g51
NtRp339
(dp340
g54
(dp341
g81
g82
ssg63
g330
sg56
(lp342
S':'
asbag49
(g70
g51
NtRp343
(dp344
g54
(dp345
sg63
g330
sg56
(lp346
g49
(g50
g51
NtRp347
(dp348
g54
(dp349
g62
I3
ssg63
g343
sg56
(lp350
S''
asbasbasbag49
(g65
g51
NtRp351
(dp352
g54
(dp353
sg63
g263
sg56
(lp354
g49
(g70
g51
NtRp355
(dp356
g54
(dp357
g74
g75
ssg63
g351
sg56
(lp358
S'path'
p359
asbag49
(g70
g51
NtRp360
(dp361
g54
(dp362
g81
g82
ssg63
g351
sg56
(lp363
S':'
asbag49
(g70
g51
NtRp364
(dp365
g54
(dp366
sg63
g351
sg56
(lp367
g49
(g50
g51
NtRp368
(dp369
g54
(dp370
g62
I3
ssg63
g364
sg56
(lp371
S''
asbasbasbag49
(g65
g51
NtRp372
(dp373
g54
(dp374
sg63
g263
sg56
(lp375
g49
(g70
g51
NtRp376
(dp377
g54
(dp378
g74
g75
ssg63
g372
sg56
(lp379
S'secure'
p380
asbag49
(g70
g51
NtRp381
(dp382
g54
(dp383
g81
g82
ssg63
g372
sg56
(lp384
S':'
asbag49
(g70
g51
NtRp385
(dp386
g54
(dp387
sg63
g372
sg56
(lp388
g49
(g50
g51
NtRp389
(dp390
g54
(dp391
g62
I3
ssg63
g385
sg56
(lp392
S''
asbasbasbag49
(g65
g51
NtRp393
(dp394
g54
(dp395
sg63
g263
sg56
(lp396
g49
(g70
g51
NtRp397
(dp398
g54
(dp399
g74
g75
ssg63
g393
sg56
(lp400
S'version'
p401
asbag49
(g70
g51
NtRp402
(dp403
g54
(dp404
g81
g82
ssg63
g393
sg56
(lp405
S':'
asbag49
(g70
g51
NtRp406
(dp407
g54
(dp408
sg63
g393
sg56
(lp409
g49
(g50
g51
NtRp410
(dp411
g54
(dp412
g62
I3
ssg63
g406
sg56
(lp413
S''
asbasbasbasbasbasbasbag49
(g65
g51
NtRp414
(dp415
g54
(dp416
sg63
g238
sg56
(lp417
g49
(g70
g51
NtRp418
(dp419
g54
(dp420
g74
g75
ssg63
g414
sg56
(lp421
S'session_id_unioeste_code'
p422
asbag49
(g70
g51
NtRp423
(dp424
g54
(dp425
g81
g82
ssg63
g414
sg56
(lp426
S':'
asbag49
(g70
g51
NtRp427
(dp428
g54
(dp429
sg63
g414
sg56
(lp430
g49
(g50
g51
NtRp431
(dp432
g54
(dp433
g62
I4
ssg63
g427
sg56
(lp434
g49
(g58
g51
NtRp435
(dp436
g54
(dp437
g62
I3
ssg63
Nsg56
(lp438
g49
(g65
g51
NtRp439
(dp440
g54
(dp441
sg63
g435
sg56
(lp442
g49
(g70
g51
NtRp443
(dp444
g54
(dp445
g74
g75
ssg63
g439
sg56
(lp446
g275
asbag49
(g70
g51
NtRp447
(dp448
g54
(dp449
g81
g82
ssg63
g439
sg56
(lp450
S':'
asbag49
(g70
g51
NtRp451
(dp452
g54
(dp453
sg63
g439
sg56
(lp454
g49
(g50
g51
NtRp455
(dp456
g54
(dp457
g62
I3
ssg63
g451
sg56
(lp458
S''
asbasbasbag49
(g65
g51
NtRp459
(dp460
g54
(dp461
sg63
g435
sg56
(lp462
g49
(g70
g51
NtRp463
(dp464
g54
(dp465
g74
g75
ssg63
g459
sg56
(lp466
g296
asbag49
(g70
g51
NtRp467
(dp468
g54
(dp469
g81
g82
ssg63
g459
sg56
(lp470
S':'
asbag49
(g70
g51
NtRp471
(dp472
g54
(dp473
sg63
g459
sg56
(lp474
g49
(g50
g51
NtRp475
(dp476
g54
(dp477
g62
I3
ssg63
g471
sg56
(lp478
S''
asbasbasbag49
(g65
g51
NtRp479
(dp480
g54
(dp481
sg63
g435
sg56
(lp482
g49
(g70
g51
NtRp483
(dp484
g54
(dp485
g74
g75
ssg63
g479
sg56
(lp486
g317
asbag49
(g70
g51
NtRp487
(dp488
g54
(dp489
g81
g82
ssg63
g479
sg56
(lp490
S':'
asbag49
(g70
g51
NtRp491
(dp492
g54
(dp493
sg63
g479
sg56
(lp494
g49
(g50
g51
NtRp495
(dp496
g54
(dp497
g62
I3
ssg63
g491
sg56
(lp498
S''
asbasbasbag49
(g65
g51
NtRp499
(dp500
g54
(dp501
sg63
g435
sg56
(lp502
g49
(g70
g51
NtRp503
(dp504
g54
(dp505
g74
g75
ssg63
g499
sg56
(lp506
g338
asbag49
(g70
g51
NtRp507
(dp508
g54
(dp509
g81
g82
ssg63
g499
sg56
(lp510
S':'
asbag49
(g70
g51
NtRp511
(dp512
g54
(dp513
sg63
g499
sg56
(lp514
g49
(g50
g51
NtRp515
(dp516
g54
(dp517
g62
I3
ssg63
g511
sg56
(lp518
S''
asbasbasbag49
(g65
g51
NtRp519
(dp520
g54
(dp521
sg63
g435
sg56
(lp522
g49
(g70
g51
NtRp523
(dp524
g54
(dp525
g74
g75
ssg63
g519
sg56
(lp526
g359
asbag49
(g70
g51
NtRp527
(dp528
g54
(dp529
g81
g82
ssg63
g519
sg56
(lp530
S':'
asbag49
(g70
g51
NtRp531
(dp532
g54
(dp533
sg63
g519
sg56
(lp534
g49
(g50
g51
NtRp535
(dp536
g54
(dp537
g62
I3
ssg63
g531
sg56
(lp538
S''
asbasbasbag49
(g65
g51
NtRp539
(dp540
g54
(dp541
sg63
g435
sg56
(lp542
g49
(g70
g51
NtRp543
(dp544
g54
(dp545
g74
g75
ssg63
g539
sg56
(lp546
g380
asbag49
(g70
g51
NtRp547
(dp548
g54
(dp549
g81
g82
ssg63
g539
sg56
(lp550
S':'
asbag49
(g70
g51
NtRp551
(dp552
g54
(dp553
sg63
g539
sg56
(lp554
g49
(g50
g51
NtRp555
(dp556
g54
(dp557
g62
I3
ssg63
g551
sg56
(lp558
S''
asbasbasbag49
(g65
g51
NtRp559
(dp560
g54
(dp561
sg63
g435
sg56
(lp562
g49
(g70
g51
NtRp563
(dp564
g54
(dp565
g74
g75
ssg63
g559
sg56
(lp566
g401
asbag49
(g70
g51
NtRp567
(dp568
g54
(dp569
g81
g82
ssg63
g559
sg56
(lp570
S':'
asbag49
(g70
g51
NtRp571
(dp572
g54
(dp573
sg63
g559
sg56
(lp574
g49
(g50
g51
NtRp575
(dp576
g54
(dp577
g62
I3
ssg63
g571
sg56
(lp578
S''
asbasbasbasbasbasbasbag49
(g65
g51
NtRp579
(dp580
g54
(dp581
sg63
g238
sg56
(lp582
g49
(g70
g51
NtRp583
(dp584
g54
(dp585
g74
g75
ssg63
g579
sg56
(lp586
S'session_id_welcome'
p587
asbag49
(g70
g51
NtRp588
(dp589
g54
(dp590
g81
g82
ssg63
g579
sg56
(lp591
S':'
asbag49
(g70
g51
NtRp592
(dp593
g54
(dp594
sg63
g579
sg56
(lp595
g49
(g50
g51
NtRp596
(dp597
g54
(dp598
g62
I4
ssg63
g592
sg56
(lp599
g49
(g58
g51
NtRp600
(dp601
g54
(dp602
g62
I3
ssg63
Nsg56
(lp603
g49
(g65
g51
NtRp604
(dp605
g54
(dp606
sg63
g600
sg56
(lp607
g49
(g70
g51
NtRp608
(dp609
g54
(dp610
g74
g75
ssg63
g604
sg56
(lp611
g275
asbag49
(g70
g51
NtRp612
(dp613
g54
(dp614
g81
g82
ssg63
g604
sg56
(lp615
S':'
asbag49
(g70
g51
NtRp616
(dp617
g54
(dp618
sg63
g604
sg56
(lp619
g49
(g50
g51
NtRp620
(dp621
g54
(dp622
g62
I3
ssg63
g616
sg56
(lp623
S''
asbasbasbag49
(g65
g51
NtRp624
(dp625
g54
(dp626
sg63
g600
sg56
(lp627
g49
(g70
g51
NtRp628
(dp629
g54
(dp630
g74
g75
ssg63
g624
sg56
(lp631
g296
asbag49
(g70
g51
NtRp632
(dp633
g54
(dp634
g81
g82
ssg63
g624
sg56
(lp635
S':'
asbag49
(g70
g51
NtRp636
(dp637
g54
(dp638
sg63
g624
sg56
(lp639
g49
(g50
g51
NtRp640
(dp641
g54
(dp642
g62
I3
ssg63
g636
sg56
(lp643
S''
asbasbasbag49
(g65
g51
NtRp644
(dp645
g54
(dp646
sg63
g600
sg56
(lp647
g49
(g70
g51
NtRp648
(dp649
g54
(dp650
g74
g75
ssg63
g644
sg56
(lp651
g317
asbag49
(g70
g51
NtRp652
(dp653
g54
(dp654
g81
g82
ssg63
g644
sg56
(lp655
S':'
asbag49
(g70
g51
NtRp656
(dp657
g54
(dp658
sg63
g644
sg56
(lp659
g49
(g50
g51
NtRp660
(dp661
g54
(dp662
g62
I3
ssg63
g656
sg56
(lp663
S''
asbasbasbag49
(g65
g51
NtRp664
(dp665
g54
(dp666
sg63
g600
sg56
(lp667
g49
(g70
g51
NtRp668
(dp669
g54
(dp670
g74
g75
ssg63
g664
sg56
(lp671
g338
asbag49
(g70
g51
NtRp672
(dp673
g54
(dp674
g81
g82
ssg63
g664
sg56
(lp675
S':'
asbag49
(g70
g51
NtRp676
(dp677
g54
(dp678
sg63
g664
sg56
(lp679
g49
(g50
g51
NtRp680
(dp681
g54
(dp682
g62
I3
ssg63
g676
sg56
(lp683
S''
asbasbasbag49
(g65
g51
NtRp684
(dp685
g54
(dp686
sg63
g600
sg56
(lp687
g49
(g70
g51
NtRp688
(dp689
g54
(dp690
g74
g75
ssg63
g684
sg56
(lp691
g359
asbag49
(g70
g51
NtRp692
(dp693
g54
(dp694
g81
g82
ssg63
g684
sg56
(lp695
S':'
asbag49
(g70
g51
NtRp696
(dp697
g54
(dp698
sg63
g684
sg56
(lp699
g49
(g50
g51
NtRp700
(dp701
g54
(dp702
g62
I3
ssg63
g696
sg56
(lp703
S''
asbasbasbag49
(g65
g51
NtRp704
(dp705
g54
(dp706
sg63
g600
sg56
(lp707
g49
(g70
g51
NtRp708
(dp709
g54
(dp710
g74
g75
ssg63
g704
sg56
(lp711
g380
asbag49
(g70
g51
NtRp712
(dp713
g54
(dp714
g81
g82
ssg63
g704
sg56
(lp715
S':'
asbag49
(g70
g51
NtRp716
(dp717
g54
(dp718
sg63
g704
sg56
(lp719
g49
(g50
g51
NtRp720
(dp721
g54
(dp722
g62
I3
ssg63
g716
sg56
(lp723
S''
asbasbasbag49
(g65
g51
NtRp724
(dp725
g54
(dp726
sg63
g600
sg56
(lp727
g49
(g70
g51
NtRp728
(dp729
g54
(dp730
g74
g75
ssg63
g724
sg56
(lp731
g401
asbag49
(g70
g51
NtRp732
(dp733
g54
(dp734
g81
g82
ssg63
g724
sg56
(lp735
S':'
asbag49
(g70
g51
NtRp736
(dp737
g54
(dp738
sg63
g724
sg56
(lp739
g49
(g50
g51
NtRp740
(dp741
g54
(dp742
g62
I3
ssg63
g736
sg56
(lp743
S''
asbasbasbasbasbasbasbasbasbasbasbag49
(g65
g51
NtRp744
(dp745
g54
(dp746
sg63
g59
sg56
(lp747
g49
(g70
g51
NtRp748
(dp749
g54
(dp750
g74
g75
ssg63
g744
sg56
(lp751
S'env'
p752
asbag49
(g70
g51
NtRp753
(dp754
g54
(dp755
g81
g82
ssg63
g744
sg56
(lp756
S':'
asbag49
(g70
g51
NtRp757
(dp758
g54
(dp759
sg63
g744
sg56
(lp760
g49
(g50
g51
NtRp761
(dp762
g54
(dp763
g62
I5
ssg63
g757
sg56
(lp764
g49
(g58
g51
NtRp765
(dp766
g54
(dp767
g62
I4
ssg63
Nsg56
(lp768
g49
(g65
g51
NtRp769
(dp770
g54
(dp771
sg63
g765
sg56
(lp772
g49
(g70
g51
NtRp773
(dp774
g54
(dp775
g74
g75
ssg63
g769
sg56
(lp776
S'app_folders'
p777
asbag49
(g70
g51
NtRp778
(dp779
g54
(dp780
g81
g82
ssg63
g769
sg56
(lp781
S':'
asbag49
(g70
g51
NtRp782
(dp783
g54
(dp784
sg63
g769
sg56
(lp785
g49
(g50
g51
NtRp786
(dp787
g54
(dp788
g62
I4
ssg63
g782
sg56
(lp789
S"set(['C:\\\\web2py\\\\applications\\\\admin\\\\', 'C:\\\\web2py\\\\applications\\\\welcome\\\\', 'C:\\\\web2py\\\\applications\\\\unioeste_code\\\\'])"
p790
asbasbasbag49
(g65
g51
NtRp791
(dp792
g54
(dp793
sg63
g765
sg56
(lp794
g49
(g70
g51
NtRp795
(dp796
g54
(dp797
g74
g75
ssg63
g791
sg56
(lp798
S'applications_parent'
p799
asbag49
(g70
g51
NtRp800
(dp801
g54
(dp802
g81
g82
ssg63
g791
sg56
(lp803
S':'
asbag49
(g70
g51
NtRp804
(dp805
g54
(dp806
sg63
g791
sg56
(lp807
g49
(g50
g51
NtRp808
(dp809
g54
(dp810
g62
I4
ssg63
g804
sg56
(lp811
S'C:\\web2py'
p812
asbasbasbag49
(g65
g51
NtRp813
(dp814
g54
(dp815
sg63
g765
sg56
(lp816
g49
(g70
g51
NtRp817
(dp818
g54
(dp819
g74
g75
ssg63
g813
sg56
(lp820
S'cmd_args'
p821
asbag49
(g70
g51
NtRp822
(dp823
g54
(dp824
g81
g82
ssg63
g813
sg56
(lp825
S':'
asbag49
(g70
g51
NtRp826
(dp827
g54
(dp828
sg63
g813
sg56
(lp829
g49
(g50
g51
NtRp830
(dp831
g54
(dp832
g62
I4
ssg63
g826
sg56
(lp833
g49
(g58
g51
NtRp834
(dp835
g54
(dp836
g62
I3
ssg63
Nsg56
(lp837
sbasbasbasbag49
(g65
g51
NtRp838
(dp839
g54
(dp840
sg63
g765
sg56
(lp841
g49
(g70
g51
NtRp842
(dp843
g54
(dp844
g74
g75
ssg63
g838
sg56
(lp845
S'cmd_options'
p846
asbag49
(g70
g51
NtRp847
(dp848
g54
(dp849
g81
g82
ssg63
g838
sg56
(lp850
S':'
asbag49
(g70
g51
NtRp851
(dp852
g54
(dp853
sg63
g838
sg56
(lp854
g49
(g50
g51
NtRp855
(dp856
g54
(dp857
g62
I4
ssg63
g851
sg56
(lp858
S"<Values at 0x309c300: {'verbose': False, 'ip': '127.0.0.1', 'shutdown_timeout': 5, 'taskbar': False, 'nocron': False, 'pid_filename': 'httpserver.pid', 'maxthreads': None, 'softcron': False, 'server_name': 'Pedro-PC', 'bpython': False, 'nogui': False, 'port': 8000, 'extcron': False, 'debuglevel': 30, 'test': None, 'folder': 'C:\\\\web2py', 'config': '', 'import_models': False, 'winservice': '', 'shell': None, 'run': '', 'log_filename': 'httpserver.log', 'args': [''], 'socket_timeout': 5, 'ssl_ca_certificate': None, 'scheduler': None, 'profiler_filename': None, 'ssl_private_key': '', 'password': '<ask>', 'request_queue_size': 5, 'ssl_certificate': '', 'cronjob': False, 'numthreads': None, 'quiet': False, 'interfaces': None, 'minthreads': None, 'timeout': 10, 'plain': False, 'nobanner': False}>"
p859
asbasbasbag49
(g65
g51
NtRp860
(dp861
g54
(dp862
sg63
g765
sg56
(lp863
g49
(g70
g51
NtRp864
(dp865
g54
(dp866
g74
g75
ssg63
g860
sg56
(lp867
S'db_sessions'
p868
asbag49
(g70
g51
NtRp869
(dp870
g54
(dp871
g81
g82
ssg63
g860
sg56
(lp872
S':'
asbag49
(g70
g51
NtRp873
(dp874
g54
(dp875
sg63
g860
sg56
(lp876
g49
(g50
g51
NtRp877
(dp878
g54
(dp879
g62
I4
ssg63
g873
sg56
(lp880
S'set([])'
p881
asbasbasbag49
(g65
g51
NtRp882
(dp883
g54
(dp884
sg63
g765
sg56
(lp885
g49
(g70
g51
NtRp886
(dp887
g54
(dp888
g74
g75
ssg63
g882
sg56
(lp889
S'debugging'
p890
asbag49
(g70
g51
NtRp891
(dp892
g54
(dp893
g81
g82
ssg63
g882
sg56
(lp894
S':'
asbag49
(g70
g51
NtRp895
(dp896
g54
(dp897
sg63
g882
sg56
(lp898
g49
(g50
g51
NtRp899
(dp900
g54
(dp901
g62
I4
ssg63
g895
sg56
(lp902
g92
asbasbasbag49
(g65
g51
NtRp903
(dp904
g54
(dp905
sg63
g765
sg56
(lp906
g49
(g70
g51
NtRp907
(dp908
g54
(dp909
g74
g75
ssg63
g903
sg56
(lp910
S'gluon_parent'
p911
asbag49
(g70
g51
NtRp912
(dp913
g54
(dp914
g81
g82
ssg63
g903
sg56
(lp915
S':'
asbag49
(g70
g51
NtRp916
(dp917
g54
(dp918
sg63
g903
sg56
(lp919
g49
(g50
g51
NtRp920
(dp921
g54
(dp922
g62
I4
ssg63
g916
sg56
(lp923
S'C:\\web2py'
p924
asbasbasbag49
(g65
g51
NtRp925
(dp926
g54
(dp927
sg63
g765
sg56
(lp928
g49
(g70
g51
NtRp929
(dp930
g54
(dp931
g74
g75
ssg63
g925
sg56
(lp932
S'http_accept'
p933
asbag49
(g70
g51
NtRp934
(dp935
g54
(dp936
g81
g82
ssg63
g925
sg56
(lp937
S':'
asbag49
(g70
g51
NtRp938
(dp939
g54
(dp940
sg63
g925
sg56
(lp941
g49
(g50
g51
NtRp942
(dp943
g54
(dp944
g62
I4
ssg63
g938
sg56
(lp945
S'text/html,application/xhtml+xml,application/xml;q=0.9,*/*;q=0.8'
p946
asbasbasbag49
(g65
g51
NtRp947
(dp948
g54
(dp949
sg63
g765
sg56
(lp950
g49
(g70
g51
NtRp951
(dp952
g54
(dp953
g74
g75
ssg63
g947
sg56
(lp954
S'http_accept_charset'
p955
asbag49
(g70
g51
NtRp956
(dp957
g54
(dp958
g81
g82
ssg63
g947
sg56
(lp959
S':'
asbag49
(g70
g51
NtRp960
(dp961
g54
(dp962
sg63
g947
sg56
(lp963
g49
(g50
g51
NtRp964
(dp965
g54
(dp966
g62
I4
ssg63
g960
sg56
(lp967
S'ISO-8859-1,utf-8;q=0.7,*;q=0.3'
p968
asbasbasbag49
(g65
g51
NtRp969
(dp970
g54
(dp971
sg63
g765
sg56
(lp972
g49
(g70
g51
NtRp973
(dp974
g54
(dp975
g74
g75
ssg63
g969
sg56
(lp976
S'http_accept_encoding'
p977
asbag49
(g70
g51
NtRp978
(dp979
g54
(dp980
g81
g82
ssg63
g969
sg56
(lp981
S':'
asbag49
(g70
g51
NtRp982
(dp983
g54
(dp984
sg63
g969
sg56
(lp985
g49
(g50
g51
NtRp986
(dp987
g54
(dp988
g62
I4
ssg63
g982
sg56
(lp989
S'gzip,deflate,sdch'
p990
asbasbasbag49
(g65
g51
NtRp991
(dp992
g54
(dp993
sg63
g765
sg56
(lp994
g49
(g70
g51
NtRp995
(dp996
g54
(dp997
g74
g75
ssg63
g991
sg56
(lp998
S'http_accept_language'
p999
asbag49
(g70
g51
NtRp1000
(dp1001
g54
(dp1002
g81
g82
ssg63
g991
sg56
(lp1003
S':'
asbag49
(g70
g51
NtRp1004
(dp1005
g54
(dp1006
sg63
g991
sg56
(lp1007
g49
(g50
g51
NtRp1008
(dp1009
g54
(dp1010
g62
I4
ssg63
g1004
sg56
(lp1011
S'pt-BR,pt;q=0.8,en-US;q=0.6,en;q=0.4'
p1012
asbasbasbag49
(g65
g51
NtRp1013
(dp1014
g54
(dp1015
sg63
g765
sg56
(lp1016
g49
(g70
g51
NtRp1017
(dp1018
g54
(dp1019
g74
g75
ssg63
g1013
sg56
(lp1020
S'http_connection'
p1021
asbag49
(g70
g51
NtRp1022
(dp1023
g54
(dp1024
g81
g82
ssg63
g1013
sg56
(lp1025
S':'
asbag49
(g70
g51
NtRp1026
(dp1027
g54
(dp1028
sg63
g1013
sg56
(lp1029
g49
(g50
g51
NtRp1030
(dp1031
g54
(dp1032
g62
I4
ssg63
g1026
sg56
(lp1033
S'keep-alive'
p1034
asbasbasbag49
(g65
g51
NtRp1035
(dp1036
g54
(dp1037
sg63
g765
sg56
(lp1038
g49
(g70
g51
NtRp1039
(dp1040
g54
(dp1041
g74
g75
ssg63
g1035
sg56
(lp1042
S'http_cookie'
p1043
asbag49
(g70
g51
NtRp1044
(dp1045
g54
(dp1046
g81
g82
ssg63
g1035
sg56
(lp1047
S':'
asbag49
(g70
g51
NtRp1048
(dp1049
g54
(dp1050
sg63
g1035
sg56
(lp1051
g49
(g50
g51
NtRp1052
(dp1053
g54
(dp1054
g62
I4
ssg63
g1048
sg56
(lp1055
S'session_id_welcome=127.0.0.1-1a92f181-8ff8-45e5-a5ea-67695bf9cf4b; session_id_admin=127.0.0.1-74314c3a-3fdd-4faa-80a4-9a8219ae5070; session_id_unioeste_code=127.0.0.1-87142505-8d38-426f-afb9-e3f36884a384'
p1056
asbasbasbag49
(g65
g51
NtRp1057
(dp1058
g54
(dp1059
sg63
g765
sg56
(lp1060
g49
(g70
g51
NtRp1061
(dp1062
g54
(dp1063
g74
g75
ssg63
g1057
sg56
(lp1064
S'http_dnt'
p1065
asbag49
(g70
g51
NtRp1066
(dp1067
g54
(dp1068
g81
g82
ssg63
g1057
sg56
(lp1069
S':'
asbag49
(g70
g51
NtRp1070
(dp1071
g54
(dp1072
sg63
g1057
sg56
(lp1073
g49
(g50
g51
NtRp1074
(dp1075
g54
(dp1076
g62
I4
ssg63
g1070
sg56
(lp1077
S'1'
asbasbasbag49
(g65
g51
NtRp1078
(dp1079
g54
(dp1080
sg63
g765
sg56
(lp1081
g49
(g70
g51
NtRp1082
(dp1083
g54
(dp1084
g74
g75
ssg63
g1078
sg56
(lp1085
S'http_host'
p1086
asbag49
(g70
g51
NtRp1087
(dp1088
g54
(dp1089
g81
g82
ssg63
g1078
sg56
(lp1090
S':'
asbag49
(g70
g51
NtRp1091
(dp1092
g54
(dp1093
sg63
g1078
sg56
(lp1094
g49
(g50
g51
NtRp1095
(dp1096
g54
(dp1097
g62
I4
ssg63
g1091
sg56
(lp1098
S'localhost:8000'
p1099
asbasbasbag49
(g65
g51
NtRp1100
(dp1101
g54
(dp1102
sg63
g765
sg56
(lp1103
g49
(g70
g51
NtRp1104
(dp1105
g54
(dp1106
g74
g75
ssg63
g1100
sg56
(lp1107
S'http_referer'
p1108
asbag49
(g70
g51
NtRp1109
(dp1110
g54
(dp1111
g81
g82
ssg63
g1100
sg56
(lp1112
S':'
asbag49
(g70
g51
NtRp1113
(dp1114
g54
(dp1115
sg63
g1100
sg56
(lp1116
g49
(g50
g51
NtRp1117
(dp1118
g54
(dp1119
g62
I4
ssg63
g1113
sg56
(lp1120
S'http://localhost:8000/unioeste_code/'
p1121
asbasbasbag49
(g65
g51
NtRp1122
(dp1123
g54
(dp1124
sg63
g765
sg56
(lp1125
g49
(g70
g51
NtRp1126
(dp1127
g54
(dp1128
g74
g75
ssg63
g1122
sg56
(lp1129
S'http_user_agent'
p1130
asbag49
(g70
g51
NtRp1131
(dp1132
g54
(dp1133
g81
g82
ssg63
g1122
sg56
(lp1134
S':'
asbag49
(g70
g51
NtRp1135
(dp1136
g54
(dp1137
sg63
g1122
sg56
(lp1138
g49
(g50
g51
NtRp1139
(dp1140
g54
(dp1141
g62
I4
ssg63
g1135
sg56
(lp1142
S'Mozilla/5.0 (Windows NT 6.1; WOW64) AppleWebKit/536.11 (KHTML, like Gecko) Chrome/20.0.1132.57 Safari/536.11'
p1143
asbasbasbag49
(g65
g51
NtRp1144
(dp1145
g54
(dp1146
sg63
g765
sg56
(lp1147
g49
(g70
g51
NtRp1148
(dp1149
g54
(dp1150
g74
g75
ssg63
g1144
sg56
(lp1151
S'is_jython'
p1152
asbag49
(g70
g51
NtRp1153
(dp1154
g54
(dp1155
g81
g82
ssg63
g1144
sg56
(lp1156
S':'
asbag49
(g70
g51
NtRp1157
(dp1158
g54
(dp1159
sg63
g1144
sg56
(lp1160
g49
(g50
g51
NtRp1161
(dp1162
g54
(dp1163
g62
I4
ssg63
g1157
sg56
(lp1164
g92
asbasbasbag49
(g65
g51
NtRp1165
(dp1166
g54
(dp1167
sg63
g765
sg56
(lp1168
g49
(g70
g51
NtRp1169
(dp1170
g54
(dp1171
g74
g75
ssg63
g1165
sg56
(lp1172
S'is_pypy'
p1173
asbag49
(g70
g51
NtRp1174
(dp1175
g54
(dp1176
g81
g82
ssg63
g1165
sg56
(lp1177
S':'
asbag49
(g70
g51
NtRp1178
(dp1179
g54
(dp1180
sg63
g1165
sg56
(lp1181
g49
(g50
g51
NtRp1182
(dp1183
g54
(dp1184
g62
I4
ssg63
g1178
sg56
(lp1185
g92
asbasbasbag49
(g65
g51
NtRp1186
(dp1187
g54
(dp1188
sg63
g765
sg56
(lp1189
g49
(g70
g51
NtRp1190
(dp1191
g54
(dp1192
g74
g75
ssg63
g1186
sg56
(lp1193
S'path_info'
p1194
asbag49
(g70
g51
NtRp1195
(dp1196
g54
(dp1197
g81
g82
ssg63
g1186
sg56
(lp1198
S':'
asbag49
(g70
g51
NtRp1199
(dp1200
g54
(dp1201
sg63
g1186
sg56
(lp1202
g49
(g50
g51
NtRp1203
(dp1204
g54
(dp1205
g62
I4
ssg63
g1199
sg56
(lp1206
S'/unioeste_code/default/showProblem/1'
p1207
asbasbasbag49
(g65
g51
NtRp1208
(dp1209
g54
(dp1210
sg63
g765
sg56
(lp1211
g49
(g70
g51
NtRp1212
(dp1213
g54
(dp1214
g74
g75
ssg63
g1208
sg56
(lp1215
S'query_string'
p1216
asbag49
(g70
g51
NtRp1217
(dp1218
g54
(dp1219
g81
g82
ssg63
g1208
sg56
(lp1220
S':'
asbag49
(g70
g51
NtRp1221
(dp1222
g54
(dp1223
sg63
g1208
sg56
(lp1224
g49
(g50
g51
NtRp1225
(dp1226
g54
(dp1227
g62
I4
ssg63
g1221
sg56
(lp1228
S''
asbasbasbag49
(g65
g51
NtRp1229
(dp1230
g54
(dp1231
sg63
g765
sg56
(lp1232
g49
(g70
g51
NtRp1233
(dp1234
g54
(dp1235
g74
g75
ssg63
g1229
sg56
(lp1236
S'remote_addr'
p1237
asbag49
(g70
g51
NtRp1238
(dp1239
g54
(dp1240
g81
g82
ssg63
g1229
sg56
(lp1241
S':'
asbag49
(g70
g51
NtRp1242
(dp1243
g54
(dp1244
sg63
g1229
sg56
(lp1245
g49
(g50
g51
NtRp1246
(dp1247
g54
(dp1248
g62
I4
ssg63
g1242
sg56
(lp1249
g194
asbasbasbag49
(g65
g51
NtRp1250
(dp1251
g54
(dp1252
sg63
g765
sg56
(lp1253
g49
(g70
g51
NtRp1254
(dp1255
g54
(dp1256
g74
g75
ssg63
g1250
sg56
(lp1257
S'remote_port'
p1258
asbag49
(g70
g51
NtRp1259
(dp1260
g54
(dp1261
g81
g82
ssg63
g1250
sg56
(lp1262
S':'
asbag49
(g70
g51
NtRp1263
(dp1264
g54
(dp1265
sg63
g1250
sg56
(lp1266
g49
(g50
g51
NtRp1267
(dp1268
g54
(dp1269
g62
I4
ssg63
g1263
sg56
(lp1270
S'2786'
p1271
asbasbasbag49
(g65
g51
NtRp1272
(dp1273
g54
(dp1274
sg63
g765
sg56
(lp1275
g49
(g70
g51
NtRp1276
(dp1277
g54
(dp1278
g74
g75
ssg63
g1272
sg56
(lp1279
S'request_method'
p1280
asbag49
(g70
g51
NtRp1281
(dp1282
g54
(dp1283
g81
g82
ssg63
g1272
sg56
(lp1284
S':'
asbag49
(g70
g51
NtRp1285
(dp1286
g54
(dp1287
sg63
g1272
sg56
(lp1288
g49
(g50
g51
NtRp1289
(dp1290
g54
(dp1291
g62
I4
ssg63
g1285
sg56
(lp1292
S'GET'
p1293
asbasbasbag49
(g65
g51
NtRp1294
(dp1295
g54
(dp1296
sg63
g765
sg56
(lp1297
g49
(g70
g51
NtRp1298
(dp1299
g54
(dp1300
g74
g75
ssg63
g1294
sg56
(lp1301
S'script_name'
p1302
asbag49
(g70
g51
NtRp1303
(dp1304
g54
(dp1305
g81
g82
ssg63
g1294
sg56
(lp1306
S':'
asbag49
(g70
g51
NtRp1307
(dp1308
g54
(dp1309
sg63
g1294
sg56
(lp1310
g49
(g50
g51
NtRp1311
(dp1312
g54
(dp1313
g62
I4
ssg63
g1307
sg56
(lp1314
S''
asbasbasbag49
(g65
g51
NtRp1315
(dp1316
g54
(dp1317
sg63
g765
sg56
(lp1318
g49
(g70
g51
NtRp1319
(dp1320
g54
(dp1321
g74
g75
ssg63
g1315
sg56
(lp1322
S'server_name'
p1323
asbag49
(g70
g51
NtRp1324
(dp1325
g54
(dp1326
g81
g82
ssg63
g1315
sg56
(lp1327
S':'
asbag49
(g70
g51
NtRp1328
(dp1329
g54
(dp1330
sg63
g1315
sg56
(lp1331
g49
(g50
g51
NtRp1332
(dp1333
g54
(dp1334
g62
I4
ssg63
g1328
sg56
(lp1335
S'Pedro-PC'
p1336
asbasbasbag49
(g65
g51
NtRp1337
(dp1338
g54
(dp1339
sg63
g765
sg56
(lp1340
g49
(g70
g51
NtRp1341
(dp1342
g54
(dp1343
g74
g75
ssg63
g1337
sg56
(lp1344
S'server_port'
p1345
asbag49
(g70
g51
NtRp1346
(dp1347
g54
(dp1348
g81
g82
ssg63
g1337
sg56
(lp1349
S':'
asbag49
(g70
g51
NtRp1350
(dp1351
g54
(dp1352
sg63
g1337
sg56
(lp1353
g49
(g50
g51
NtRp1354
(dp1355
g54
(dp1356
g62
I4
ssg63
g1350
sg56
(lp1357
S'8000'
p1358
asbasbasbag49
(g65
g51
NtRp1359
(dp1360
g54
(dp1361
sg63
g765
sg56
(lp1362
g49
(g70
g51
NtRp1363
(dp1364
g54
(dp1365
g74
g75
ssg63
g1359
sg56
(lp1366
S'server_protocol'
p1367
asbag49
(g70
g51
NtRp1368
(dp1369
g54
(dp1370
g81
g82
ssg63
g1359
sg56
(lp1371
S':'
asbag49
(g70
g51
NtRp1372
(dp1373
g54
(dp1374
sg63
g1359
sg56
(lp1375
g49
(g50
g51
NtRp1376
(dp1377
g54
(dp1378
g62
I4
ssg63
g1372
sg56
(lp1379
S'HTTP/1.1'
p1380
asbasbasbag49
(g65
g51
NtRp1381
(dp1382
g54
(dp1383
sg63
g765
sg56
(lp1384
g49
(g70
g51
NtRp1385
(dp1386
g54
(dp1387
g74
g75
ssg63
g1381
sg56
(lp1388
S'server_software'
p1389
asbag49
(g70
g51
NtRp1390
(dp1391
g54
(dp1392
g81
g82
ssg63
g1381
sg56
(lp1393
S':'
asbag49
(g70
g51
NtRp1394
(dp1395
g54
(dp1396
sg63
g1381
sg56
(lp1397
g49
(g50
g51
NtRp1398
(dp1399
g54
(dp1400
g62
I4
ssg63
g1394
sg56
(lp1401
S'Rocket 1.2.4'
p1402
asbasbasbag49
(g65
g51
NtRp1403
(dp1404
g54
(dp1405
sg63
g765
sg56
(lp1406
g49
(g70
g51
NtRp1407
(dp1408
g54
(dp1409
g74
g75
ssg63
g1403
sg56
(lp1410
S'web2py_crontype'
p1411
asbag49
(g70
g51
NtRp1412
(dp1413
g54
(dp1414
g81
g82
ssg63
g1403
sg56
(lp1415
S':'
asbag49
(g70
g51
NtRp1416
(dp1417
g54
(dp1418
sg63
g1403
sg56
(lp1419
g49
(g50
g51
NtRp1420
(dp1421
g54
(dp1422
g62
I4
ssg63
g1416
sg56
(lp1423
S'hard'
p1424
asbasbasbag49
(g65
g51
NtRp1425
(dp1426
g54
(dp1427
sg63
g765
sg56
(lp1428
g49
(g70
g51
NtRp1429
(dp1430
g54
(dp1431
g74
g75
ssg63
g1425
sg56
(lp1432
S'web2py_path'
p1433
asbag49
(g70
g51
NtRp1434
(dp1435
g54
(dp1436
g81
g82
ssg63
g1425
sg56
(lp1437
S':'
asbag49
(g70
g51
NtRp1438
(dp1439
g54
(dp1440
sg63
g1425
sg56
(lp1441
g49
(g50
g51
NtRp1442
(dp1443
g54
(dp1444
g62
I4
ssg63
g1438
sg56
(lp1445
g812
asbasbasbag49
(g65
g51
NtRp1446
(dp1447
g54
(dp1448
sg63
g765
sg56
(lp1449
g49
(g70
g51
NtRp1450
(dp1451
g54
(dp1452
g74
g75
ssg63
g1446
sg56
(lp1453
S'web2py_version'
p1454
asbag49
(g70
g51
NtRp1455
(dp1456
g54
(dp1457
g81
g82
ssg63
g1446
sg56
(lp1458
S':'
asbag49
(g70
g51
NtRp1459
(dp1460
g54
(dp1461
sg63
g1446
sg56
(lp1462
g49
(g50
g51
NtRp1463
(dp1464
g54
(dp1465
g62
I4
ssg63
g1459
sg56
(lp1466
g49
(g58
g51
NtRp1467
(dp1468
g54
(dp1469
g62
I3
ssg63
Nsg56
(lp1470
g49
(g65
g51
NtRp1471
(dp1472
g54
(dp1473
sg63
g1467
sg56
(lp1474
g49
(g70
g51
NtRp1475
(dp1476
g54
(dp1477
sg63
g1471
sg56
(lp1478
g49
(g50
g51
NtRp1479
(dp1480
g54
(dp1481
g62
I3
ssg63
g1475
sg56
(lp1482
S'1'
asbasbasbag49
(g65
g51
NtRp1483
(dp1484
g54
(dp1485
sg63
g1467
sg56
(lp1486
g49
(g70
g51
NtRp1487
(dp1488
g54
(dp1489
sg63
g1483
sg56
(lp1490
g49
(g50
g51
NtRp1491
(dp1492
g54
(dp1493
g62
I3
ssg63
g1487
sg56
(lp1494
S'99'
p1495
asbasbasbag49
(g65
g51
NtRp1496
(dp1497
g54
(dp1498
sg63
g1467
sg56
(lp1499
g49
(g70
g51
NtRp1500
(dp1501
g54
(dp1502
sg63
g1496
sg56
(lp1503
g49
(g50
g51
NtRp1504
(dp1505
g54
(dp1506
g62
I3
ssg63
g1500
sg56
(lp1507
S'7'
asbasbasbag49
(g65
g51
NtRp1508
(dp1509
g54
(dp1510
sg63
g1467
sg56
(lp1511
g49
(g70
g51
NtRp1512
(dp1513
g54
(dp1514
sg63
g1508
sg56
(lp1515
g49
(g50
g51
NtRp1516
(dp1517
g54
(dp1518
g62
I3
ssg63
g1512
sg56
(lp1519
S'datetime.datetime(2012, 3, 4, 22, 12, 8)'
p1520
asbasbasbag49
(g65
g51
NtRp1521
(dp1522
g54
(dp1523
sg63
g1467
sg56
(lp1524
g49
(g70
g51
NtRp1525
(dp1526
g54
(dp1527
sg63
g1521
sg56
(lp1528
g49
(g50
g51
NtRp1529
(dp1530
g54
(dp1531
g62
I3
ssg63
g1525
sg56
(lp1532
S'stable'
p1533
asbasbasbasbasbasbasbag49
(g65
g51
NtRp1534
(dp1535
g54
(dp1536
sg63
g765
sg56
(lp1537
g49
(g70
g51
NtRp1538
(dp1539
g54
(dp1540
g74
g75
ssg63
g1534
sg56
(lp1541
S'wsgi_errors'
p1542
asbag49
(g70
g51
NtRp1543
(dp1544
g54
(dp1545
g81
g82
ssg63
g1534
sg56
(lp1546
S':'
asbag49
(g70
g51
NtRp1547
(dp1548
g54
(dp1549
sg63
g1534
sg56
(lp1550
g49
(g50
g51
NtRp1551
(dp1552
g54
(dp1553
g62
I4
ssg63
g1547
sg56
(lp1554
S'<__main__.Stderr object at 0x006F6670>'
p1555
asbasbasbag49
(g65
g51
NtRp1556
(dp1557
g54
(dp1558
sg63
g765
sg56
(lp1559
g49
(g70
g51
NtRp1560
(dp1561
g54
(dp1562
g74
g75
ssg63
g1556
sg56
(lp1563
S'wsgi_file_wrapper'
p1564
asbag49
(g70
g51
NtRp1565
(dp1566
g54
(dp1567
g81
g82
ssg63
g1556
sg56
(lp1568
S':'
asbag49
(g70
g51
NtRp1569
(dp1570
g54
(dp1571
sg63
g1556
sg56
(lp1572
g49
(g50
g51
NtRp1573
(dp1574
g54
(dp1575
g62
I4
ssg63
g1569
sg56
(lp1576
S'<class wsgiref.util.FileWrapper at 0x02E8DE10>'
p1577
asbasbasbag49
(g65
g51
NtRp1578
(dp1579
g54
(dp1580
sg63
g765
sg56
(lp1581
g49
(g70
g51
NtRp1582
(dp1583
g54
(dp1584
g74
g75
ssg63
g1578
sg56
(lp1585
S'wsgi_input'
p1586
asbag49
(g70
g51
NtRp1587
(dp1588
g54
(dp1589
g81
g82
ssg63
g1578
sg56
(lp1590
S':'
asbag49
(g70
g51
NtRp1591
(dp1592
g54
(dp1593
sg63
g1578
sg56
(lp1594
g49
(g50
g51
NtRp1595
(dp1596
g54
(dp1597
g62
I4
ssg63
g1591
sg56
(lp1598
S'<socket._fileobject object at 0x06A1E8F0>'
p1599
asbasbasbag49
(g65
g51
NtRp1600
(dp1601
g54
(dp1602
sg63
g765
sg56
(lp1603
g49
(g70
g51
NtRp1604
(dp1605
g54
(dp1606
g74
g75
ssg63
g1600
sg56
(lp1607
S'wsgi_multiprocess'
p1608
asbag49
(g70
g51
NtRp1609
(dp1610
g54
(dp1611
g81
g82
ssg63
g1600
sg56
(lp1612
S':'
asbag49
(g70
g51
NtRp1613
(dp1614
g54
(dp1615
sg63
g1600
sg56
(lp1616
g49
(g50
g51
NtRp1617
(dp1618
g54
(dp1619
g62
I4
ssg63
g1613
sg56
(lp1620
g92
asbasbasbag49
(g65
g51
NtRp1621
(dp1622
g54
(dp1623
sg63
g765
sg56
(lp1624
g49
(g70
g51
NtRp1625
(dp1626
g54
(dp1627
g74
g75
ssg63
g1621
sg56
(lp1628
S'wsgi_multithread'
p1629
asbag49
(g70
g51
NtRp1630
(dp1631
g54
(dp1632
g81
g82
ssg63
g1621
sg56
(lp1633
S':'
asbag49
(g70
g51
NtRp1634
(dp1635
g54
(dp1636
sg63
g1621
sg56
(lp1637
g49
(g50
g51
NtRp1638
(dp1639
g54
(dp1640
g62
I4
ssg63
g1634
sg56
(lp1641
S'True'
p1642
asbasbasbag49
(g65
g51
NtRp1643
(dp1644
g54
(dp1645
sg63
g765
sg56
(lp1646
g49
(g70
g51
NtRp1647
(dp1648
g54
(dp1649
g74
g75
ssg63
g1643
sg56
(lp1650
S'wsgi_run_once'
p1651
asbag49
(g70
g51
NtRp1652
(dp1653
g54
(dp1654
g81
g82
ssg63
g1643
sg56
(lp1655
S':'
asbag49
(g70
g51
NtRp1656
(dp1657
g54
(dp1658
sg63
g1643
sg56
(lp1659
g49
(g50
g51
NtRp1660
(dp1661
g54
(dp1662
g62
I4
ssg63
g1656
sg56
(lp1663
g92
asbasbasbag49
(g65
g51
NtRp1664
(dp1665
g54
(dp1666
sg63
g765
sg56
(lp1667
g49
(g70
g51
NtRp1668
(dp1669
g54
(dp1670
g74
g75
ssg63
g1664
sg56
(lp1671
S'wsgi_url_scheme'
p1672
asbag49
(g70
g51
NtRp1673
(dp1674
g54
(dp1675
g81
g82
ssg63
g1664
sg56
(lp1676
S':'
asbag49
(g70
g51
NtRp1677
(dp1678
g54
(dp1679
sg63
g1664
sg56
(lp1680
g49
(g50
g51
NtRp1681
(dp1682
g54
(dp1683
g62
I4
ssg63
g1677
sg56
(lp1684
S'http'
p1685
asbasbasbag49
(g65
g51
NtRp1686
(dp1687
g54
(dp1688
sg63
g765
sg56
(lp1689
g49
(g70
g51
NtRp1690
(dp1691
g54
(dp1692
g74
g75
ssg63
g1686
sg56
(lp1693
S'wsgi_version'
p1694
asbag49
(g70
g51
NtRp1695
(dp1696
g54
(dp1697
g81
g82
ssg63
g1686
sg56
(lp1698
S':'
asbag49
(g70
g51
NtRp1699
(dp1700
g54
(dp1701
sg63
g1686
sg56
(lp1702
g49
(g50
g51
NtRp1703
(dp1704
g54
(dp1705
g62
I4
ssg63
g1699
sg56
(lp1706
g49
(g58
g51
NtRp1707
(dp1708
g54
(dp1709
g62
I3
ssg63
Nsg56
(lp1710
g49
(g65
g51
NtRp1711
(dp1712
g54
(dp1713
sg63
g1707
sg56
(lp1714
g49
(g70
g51
NtRp1715
(dp1716
g54
(dp1717
sg63
g1711
sg56
(lp1718
g49
(g50
g51
NtRp1719
(dp1720
g54
(dp1721
g62
I3
ssg63
g1715
sg56
(lp1722
S'1'
asbasbasbag49
(g65
g51
NtRp1723
(dp1724
g54
(dp1725
sg63
g1707
sg56
(lp1726
g49
(g70
g51
NtRp1727
(dp1728
g54
(dp1729
sg63
g1723
sg56
(lp1730
g49
(g50
g51
NtRp1731
(dp1732
g54
(dp1733
g62
I3
ssg63
g1727
sg56
(lp1734
S'0'
asbasbasbasbasbasbasbasbasbasbasbag49
(g65
g51
NtRp1735
(dp1736
g54
(dp1737
sg63
g59
sg56
(lp1738
g49
(g70
g51
NtRp1739
(dp1740
g54
(dp1741
g74
g75
ssg63
g1735
sg56
(lp1742
S'extension'
p1743
asbag49
(g70
g51
NtRp1744
(dp1745
g54
(dp1746
g81
g82
ssg63
g1735
sg56
(lp1747
S':'
asbag49
(g70
g51
NtRp1748
(dp1749
g54
(dp1750
sg63
g1735
sg56
(lp1751
g49
(g50
g51
NtRp1752
(dp1753
g54
(dp1754
g62
I5
ssg63
g1748
sg56
(lp1755
S'html'
p1756
asbasbasbag49
(g65
g51
NtRp1757
(dp1758
g54
(dp1759
sg63
g59
sg56
(lp1760
g49
(g70
g51
NtRp1761
(dp1762
g54
(dp1763
g74
g75
ssg63
g1757
sg56
(lp1764
S'folder'
p1765
asbag49
(g70
g51
NtRp1766
(dp1767
g54
(dp1768
g81
g82
ssg63
g1757
sg56
(lp1769
S':'
asbag49
(g70
g51
NtRp1770
(dp1771
g54
(dp1772
sg63
g1757
sg56
(lp1773
g49
(g50
g51
NtRp1774
(dp1775
g54
(dp1776
g62
I5
ssg63
g1770
sg56
(lp1777
S'C:\\web2py\\applications\\unioeste_code\\'
p1778
asbasbasbag49
(g65
g51
NtRp1779
(dp1780
g54
(dp1781
sg63
g59
sg56
(lp1782
g49
(g70
g51
NtRp1783
(dp1784
g54
(dp1785
g74
g75
ssg63
g1779
sg56
(lp1786
S'function'
p1787
asbag49
(g70
g51
NtRp1788
(dp1789
g54
(dp1790
g81
g82
ssg63
g1779
sg56
(lp1791
S':'
asbag49
(g70
g51
NtRp1792
(dp1793
g54
(dp1794
sg63
g1779
sg56
(lp1795
g49
(g50
g51
NtRp1796
(dp1797
g54
(dp1798
g62
I5
ssg63
g1792
sg56
(lp1799
S'showProblem'
p1800
asbasbasbag49
(g65
g51
NtRp1801
(dp1802
g54
(dp1803
sg63
g59
sg56
(lp1804
g49
(g70
g51
NtRp1805
(dp1806
g54
(dp1807
g74
g75
ssg63
g1801
sg56
(lp1808
S'get_vars'
p1809
asbag49
(g70
g51
NtRp1810
(dp1811
g54
(dp1812
g81
g82
ssg63
g1801
sg56
(lp1813
S':'
asbag49
(g70
g51
NtRp1814
(dp1815
g54
(dp1816
sg63
g1801
sg56
(lp1817
g49
(g50
g51
NtRp1818
(dp1819
g54
(dp1820
g62
I5
ssg63
g1814
sg56
(lp1821
g49
(g58
g51
NtRp1822
(dp1823
g54
(dp1824
g62
I4
ssg63
Nsg56
(lp1825
sbasbasbasbag49
(g65
g51
NtRp1826
(dp1827
g54
(dp1828
sg63
g59
sg56
(lp1829
g49
(g70
g51
NtRp1830
(dp1831
g54
(dp1832
g74
g75
ssg63
g1826
sg56
(lp1833
S'global_settings'
p1834
asbag49
(g70
g51
NtRp1835
(dp1836
g54
(dp1837
g81
g82
ssg63
g1826
sg56
(lp1838
S':'
asbag49
(g70
g51
NtRp1839
(dp1840
g54
(dp1841
sg63
g1826
sg56
(lp1842
g49
(g50
g51
NtRp1843
(dp1844
g54
(dp1845
g62
I5
ssg63
g1839
sg56
(lp1846
g49
(g58
g51
NtRp1847
(dp1848
g54
(dp1849
g62
I4
ssg63
Nsg56
(lp1850
g49
(g65
g51
NtRp1851
(dp1852
g54
(dp1853
sg63
g1847
sg56
(lp1854
g49
(g70
g51
NtRp1855
(dp1856
g54
(dp1857
g74
g75
ssg63
g1851
sg56
(lp1858
g777
asbag49
(g70
g51
NtRp1859
(dp1860
g54
(dp1861
g81
g82
ssg63
g1851
sg56
(lp1862
S':'
asbag49
(g70
g51
NtRp1863
(dp1864
g54
(dp1865
sg63
g1851
sg56
(lp1866
g49
(g50
g51
NtRp1867
(dp1868
g54
(dp1869
g62
I4
ssg63
g1863
sg56
(lp1870
S"set(['C:\\\\web2py\\\\applications\\\\admin\\\\', 'C:\\\\web2py\\\\applications\\\\welcome\\\\', 'C:\\\\web2py\\\\applications\\\\unioeste_code\\\\'])"
p1871
asbasbasbag49
(g65
g51
NtRp1872
(dp1873
g54
(dp1874
sg63
g1847
sg56
(lp1875
g49
(g70
g51
NtRp1876
(dp1877
g54
(dp1878
g74
g75
ssg63
g1872
sg56
(lp1879
g799
asbag49
(g70
g51
NtRp1880
(dp1881
g54
(dp1882
g81
g82
ssg63
g1872
sg56
(lp1883
S':'
asbag49
(g70
g51
NtRp1884
(dp1885
g54
(dp1886
sg63
g1872
sg56
(lp1887
g49
(g50
g51
NtRp1888
(dp1889
g54
(dp1890
g62
I4
ssg63
g1884
sg56
(lp1891
g812
asbasbasbag49
(g65
g51
NtRp1892
(dp1893
g54
(dp1894
sg63
g1847
sg56
(lp1895
g49
(g70
g51
NtRp1896
(dp1897
g54
(dp1898
g74
g75
ssg63
g1892
sg56
(lp1899
g821
asbag49
(g70
g51
NtRp1900
(dp1901
g54
(dp1902
g81
g82
ssg63
g1892
sg56
(lp1903
S':'
asbag49
(g70
g51
NtRp1904
(dp1905
g54
(dp1906
sg63
g1892
sg56
(lp1907
g49
(g50
g51
NtRp1908
(dp1909
g54
(dp1910
g62
I4
ssg63
g1904
sg56
(lp1911
g49
(g58
g51
NtRp1912
(dp1913
g54
(dp1914
g62
I3
ssg63
Nsg56
(lp1915
sbasbasbasbag49
(g65
g51
NtRp1916
(dp1917
g54
(dp1918
sg63
g1847
sg56
(lp1919
g49
(g70
g51
NtRp1920
(dp1921
g54
(dp1922
g74
g75
ssg63
g1916
sg56
(lp1923
g846
asbag49
(g70
g51
NtRp1924
(dp1925
g54
(dp1926
g81
g82
ssg63
g1916
sg56
(lp1927
S':'
asbag49
(g70
g51
NtRp1928
(dp1929
g54
(dp1930
sg63
g1916
sg56
(lp1931
g49
(g50
g51
NtRp1932
(dp1933
g54
(dp1934
g62
I4
ssg63
g1928
sg56
(lp1935
S"<Values at 0x309c300: {'verbose': False, 'ip': '127.0.0.1', 'shutdown_timeout': 5, 'taskbar': False, 'nocron': False, 'pid_filename': 'httpserver.pid', 'maxthreads': None, 'softcron': False, 'server_name': 'Pedro-PC', 'bpython': False, 'nogui': False, 'port': 8000, 'extcron': False, 'debuglevel': 30, 'test': None, 'folder': 'C:\\\\web2py', 'config': '', 'import_models': False, 'winservice': '', 'shell': None, 'run': '', 'log_filename': 'httpserver.log', 'args': [''], 'socket_timeout': 5, 'ssl_ca_certificate': None, 'scheduler': None, 'profiler_filename': None, 'ssl_private_key': '', 'password': '<ask>', 'request_queue_size': 5, 'ssl_certificate': '', 'cronjob': False, 'numthreads': None, 'quiet': False, 'interfaces': None, 'minthreads': None, 'timeout': 10, 'plain': False, 'nobanner': False}>"
p1936
asbasbasbag49
(g65
g51
NtRp1937
(dp1938
g54
(dp1939
sg63
g1847
sg56
(lp1940
g49
(g70
g51
NtRp1941
(dp1942
g54
(dp1943
g74
g75
ssg63
g1937
sg56
(lp1944
g868
asbag49
(g70
g51
NtRp1945
(dp1946
g54
(dp1947
g81
g82
ssg63
g1937
sg56
(lp1948
S':'
asbag49
(g70
g51
NtRp1949
(dp1950
g54
(dp1951
sg63
g1937
sg56
(lp1952
g49
(g50
g51
NtRp1953
(dp1954
g54
(dp1955
g62
I4
ssg63
g1949
sg56
(lp1956
S'set([])'
p1957
asbasbasbag49
(g65
g51
NtRp1958
(dp1959
g54
(dp1960
sg63
g1847
sg56
(lp1961
g49
(g70
g51
NtRp1962
(dp1963
g54
(dp1964
g74
g75
ssg63
g1958
sg56
(lp1965
g890
asbag49
(g70
g51
NtRp1966
(dp1967
g54
(dp1968
g81
g82
ssg63
g1958
sg56
(lp1969
S':'
asbag49
(g70
g51
NtRp1970
(dp1971
g54
(dp1972
sg63
g1958
sg56
(lp1973
g49
(g50
g51
NtRp1974
(dp1975
g54
(dp1976
g62
I4
ssg63
g1970
sg56
(lp1977
g92
asbasbasbag49
(g65
g51
NtRp1978
(dp1979
g54
(dp1980
sg63
g1847
sg56
(lp1981
g49
(g70
g51
NtRp1982
(dp1983
g54
(dp1984
g74
g75
ssg63
g1978
sg56
(lp1985
g911
asbag49
(g70
g51
NtRp1986
(dp1987
g54
(dp1988
g81
g82
ssg63
g1978
sg56
(lp1989
S':'
asbag49
(g70
g51
NtRp1990
(dp1991
g54
(dp1992
sg63
g1978
sg56
(lp1993
g49
(g50
g51
NtRp1994
(dp1995
g54
(dp1996
g62
I4
ssg63
g1990
sg56
(lp1997
g924
asbasbasbag49
(g65
g51
NtRp1998
(dp1999
g54
(dp2000
sg63
g1847
sg56
(lp2001
g49
(g70
g51
NtRp2002
(dp2003
g54
(dp2004
g74
g75
ssg63
g1998
sg56
(lp2005
g1152
asbag49
(g70
g51
NtRp2006
(dp2007
g54
(dp2008
g81
g82
ssg63
g1998
sg56
(lp2009
S':'
asbag49
(g70
g51
NtRp2010
(dp2011
g54
(dp2012
sg63
g1998
sg56
(lp2013
g49
(g50
g51
NtRp2014
(dp2015
g54
(dp2016
g62
I4
ssg63
g2010
sg56
(lp2017
g92
asbasbasbag49
(g65
g51
NtRp2018
(dp2019
g54
(dp2020
sg63
g1847
sg56
(lp2021
g49
(g70
g51
NtRp2022
(dp2023
g54
(dp2024
g74
g75
ssg63
g2018
sg56
(lp2025
g1173
asbag49
(g70
g51
NtRp2026
(dp2027
g54
(dp2028
g81
g82
ssg63
g2018
sg56
(lp2029
S':'
asbag49
(g70
g51
NtRp2030
(dp2031
g54
(dp2032
sg63
g2018
sg56
(lp2033
g49
(g50
g51
NtRp2034
(dp2035
g54
(dp2036
g62
I4
ssg63
g2030
sg56
(lp2037
g92
asbasbasbag49
(g65
g51
NtRp2038
(dp2039
g54
(dp2040
sg63
g1847
sg56
(lp2041
g49
(g70
g51
NtRp2042
(dp2043
g54
(dp2044
g74
g75
ssg63
g2038
sg56
(lp2045
g1411
asbag49
(g70
g51
NtRp2046
(dp2047
g54
(dp2048
g81
g82
ssg63
g2038
sg56
(lp2049
S':'
asbag49
(g70
g51
NtRp2050
(dp2051
g54
(dp2052
sg63
g2038
sg56
(lp2053
g49
(g50
g51
NtRp2054
(dp2055
g54
(dp2056
g62
I4
ssg63
g2050
sg56
(lp2057
g1424
asbasbasbag49
(g65
g51
NtRp2058
(dp2059
g54
(dp2060
sg63
g1847
sg56
(lp2061
g49
(g70
g51
NtRp2062
(dp2063
g54
(dp2064
g74
g75
ssg63
g2058
sg56
(lp2065
g1454
asbag49
(g70
g51
NtRp2066
(dp2067
g54
(dp2068
g81
g82
ssg63
g2058
sg56
(lp2069
S':'
asbag49
(g70
g51
NtRp2070
(dp2071
g54
(dp2072
sg63
g2058
sg56
(lp2073
g49
(g50
g51
NtRp2074
(dp2075
g54
(dp2076
g62
I4
ssg63
g2070
sg56
(lp2077
g49
(g58
g51
NtRp2078
(dp2079
g54
(dp2080
g62
I3
ssg63
Nsg56
(lp2081
g49
(g65
g51
NtRp2082
(dp2083
g54
(dp2084
sg63
g2078
sg56
(lp2085
g49
(g70
g51
NtRp2086
(dp2087
g54
(dp2088
sg63
g2082
sg56
(lp2089
g49
(g50
g51
NtRp2090
(dp2091
g54
(dp2092
g62
I3
ssg63
g2086
sg56
(lp2093
S'1'
asbasbasbag49
(g65
g51
NtRp2094
(dp2095
g54
(dp2096
sg63
g2078
sg56
(lp2097
g49
(g70
g51
NtRp2098
(dp2099
g54
(dp2100
sg63
g2094
sg56
(lp2101
g49
(g50
g51
NtRp2102
(dp2103
g54
(dp2104
g62
I3
ssg63
g2098
sg56
(lp2105
S'99'
p2106
asbasbasbag49
(g65
g51
NtRp2107
(dp2108
g54
(dp2109
sg63
g2078
sg56
(lp2110
g49
(g70
g51
NtRp2111
(dp2112
g54
(dp2113
sg63
g2107
sg56
(lp2114
g49
(g50
g51
NtRp2115
(dp2116
g54
(dp2117
g62
I3
ssg63
g2111
sg56
(lp2118
S'7'
asbasbasbag49
(g65
g51
NtRp2119
(dp2120
g54
(dp2121
sg63
g2078
sg56
(lp2122
g49
(g70
g51
NtRp2123
(dp2124
g54
(dp2125
sg63
g2119
sg56
(lp2126
g49
(g50
g51
NtRp2127
(dp2128
g54
(dp2129
g62
I3
ssg63
g2123
sg56
(lp2130
S'datetime.datetime(2012, 3, 4, 22, 12, 8)'
p2131
asbasbasbag49
(g65
g51
NtRp2132
(dp2133
g54
(dp2134
sg63
g2078
sg56
(lp2135
g49
(g70
g51
NtRp2136
(dp2137
g54
(dp2138
sg63
g2132
sg56
(lp2139
g49
(g50
g51
NtRp2140
(dp2141
g54
(dp2142
g62
I3
ssg63
g2136
sg56
(lp2143
g1533
asbasbasbasbasbasbasbasbasbasbasbag49
(g65
g51
NtRp2144
(dp2145
g54
(dp2146
sg63
g59
sg56
(lp2147
g49
(g70
g51
NtRp2148
(dp2149
g54
(dp2150
g74
g75
ssg63
g2144
sg56
(lp2151
S'is_https'
p2152
asbag49
(g70
g51
NtRp2153
(dp2154
g54
(dp2155
g81
g82
ssg63
g2144
sg56
(lp2156
S':'
asbag49
(g70
g51
NtRp2157
(dp2158
g54
(dp2159
sg63
g2144
sg56
(lp2160
g49
(g50
g51
NtRp2161
(dp2162
g54
(dp2163
g62
I5
ssg63
g2157
sg56
(lp2164
g92
asbasbasbag49
(g65
g51
NtRp2165
(dp2166
g54
(dp2167
sg63
g59
sg56
(lp2168
g49
(g70
g51
NtRp2169
(dp2170
g54
(dp2171
g74
g75
ssg63
g2165
sg56
(lp2172
S'is_local'
p2173
asbag49
(g70
g51
NtRp2174
(dp2175
g54
(dp2176
g81
g82
ssg63
g2165
sg56
(lp2177
S':'
asbag49
(g70
g51
NtRp2178
(dp2179
g54
(dp2180
sg63
g2165
sg56
(lp2181
g49
(g50
g51
NtRp2182
(dp2183
g54
(dp2184
g62
I5
ssg63
g2178
sg56
(lp2185
g1642
asbasbasbag49
(g65
g51
NtRp2186
(dp2187
g54
(dp2188
sg63
g59
sg56
(lp2189
g49
(g70
g51
NtRp2190
(dp2191
g54
(dp2192
g74
g75
ssg63
g2186
sg56
(lp2193
S'is_restful'
p2194
asbag49
(g70
g51
NtRp2195
(dp2196
g54
(dp2197
g81
g82
ssg63
g2186
sg56
(lp2198
S':'
asbag49
(g70
g51
NtRp2199
(dp2200
g54
(dp2201
sg63
g2186
sg56
(lp2202
g49
(g50
g51
NtRp2203
(dp2204
g54
(dp2205
g62
I5
ssg63
g2199
sg56
(lp2206
g92
asbasbasbag49
(g65
g51
NtRp2207
(dp2208
g54
(dp2209
sg63
g59
sg56
(lp2210
g49
(g70
g51
NtRp2211
(dp2212
g54
(dp2213
g74
g75
ssg63
g2207
sg56
(lp2214
S'now'
p2215
asbag49
(g70
g51
NtRp2216
(dp2217
g54
(dp2218
g81
g82
ssg63
g2207
sg56
(lp2219
S':'
asbag49
(g70
g51
NtRp2220
(dp2221
g54
(dp2222
sg63
g2207
sg56
(lp2223
g49
(g50
g51
NtRp2224
(dp2225
g54
(dp2226
g62
I5
ssg63
g2220
sg56
(lp2227
S'datetime.datetime(2012, 7, 28, 16, 6, 32, 36000)'
p2228
asbasbasbag49
(g65
g51
NtRp2229
(dp2230
g54
(dp2231
sg63
g59
sg56
(lp2232
g49
(g70
g51
NtRp2233
(dp2234
g54
(dp2235
g74
g75
ssg63
g2229
sg56
(lp2236
S'post_vars'
p2237
asbag49
(g70
g51
NtRp2238
(dp2239
g54
(dp2240
g81
g82
ssg63
g2229
sg56
(lp2241
S':'
asbag49
(g70
g51
NtRp2242
(dp2243
g54
(dp2244
sg63
g2229
sg56
(lp2245
g49
(g50
g51
NtRp2246
(dp2247
g54
(dp2248
g62
I5
ssg63
g2242
sg56
(lp2249
g49
(g58
g51
NtRp2250
(dp2251
g54
(dp2252
g62
I4
ssg63
Nsg56
(lp2253
sbasbasbasbag49
(g65
g51
NtRp2254
(dp2255
g54
(dp2256
sg63
g59
sg56
(lp2257
g49
(g70
g51
NtRp2258
(dp2259
g54
(dp2260
g74
g75
ssg63
g2254
sg56
(lp2261
S'raw_args'
p2262
asbag49
(g70
g51
NtRp2263
(dp2264
g54
(dp2265
g81
g82
ssg63
g2254
sg56
(lp2266
S':'
asbag49
(g70
g51
NtRp2267
(dp2268
g54
(dp2269
sg63
g2254
sg56
(lp2270
g49
(g50
g51
NtRp2271
(dp2272
g54
(dp2273
g62
I5
ssg63
g2267
sg56
(lp2274
S'1'
asbasbasbag49
(g65
g51
NtRp2275
(dp2276
g54
(dp2277
sg63
g59
sg56
(lp2278
g49
(g70
g51
NtRp2279
(dp2280
g54
(dp2281
g74
g75
ssg63
g2275
sg56
(lp2282
S'url'
p2283
asbag49
(g70
g51
NtRp2284
(dp2285
g54
(dp2286
g81
g82
ssg63
g2275
sg56
(lp2287
S':'
asbag49
(g70
g51
NtRp2288
(dp2289
g54
(dp2290
sg63
g2275
sg56
(lp2291
g49
(g50
g51
NtRp2292
(dp2293
g54
(dp2294
g62
I5
ssg63
g2288
sg56
(lp2295
S'/unioeste_code/default/showProblem/1'
p2296
asbasbasbag49
(g65
g51
NtRp2297
(dp2298
g54
(dp2299
sg63
g59
sg56
(lp2300
g49
(g70
g51
NtRp2301
(dp2302
g54
(dp2303
g74
g75
ssg63
g2297
sg56
(lp2304
S'utcnow'
p2305
asbag49
(g70
g51
NtRp2306
(dp2307
g54
(dp2308
g81
g82
ssg63
g2297
sg56
(lp2309
S':'
asbag49
(g70
g51
NtRp2310
(dp2311
g54
(dp2312
sg63
g2297
sg56
(lp2313
g49
(g50
g51
NtRp2314
(dp2315
g54
(dp2316
g62
I5
ssg63
g2310
sg56
(lp2317
S'datetime.datetime(2012, 7, 28, 19, 6, 32, 36000)'
p2318
asbasbasbag49
(g65
g51
NtRp2319
(dp2320
g54
(dp2321
sg63
g59
sg56
(lp2322
g49
(g70
g51
NtRp2323
(dp2324
g54
(dp2325
g74
g75
ssg63
g2319
sg56
(lp2326
S'uuid'
p2327
asbag49
(g70
g51
NtRp2328
(dp2329
g54
(dp2330
g81
g82
ssg63
g2319
sg56
(lp2331
S':'
asbag49
(g70
g51
NtRp2332
(dp2333
g54
(dp2334
sg63
g2319
sg56
(lp2335
g49
(g50
g51
NtRp2336
(dp2337
g54
(dp2338
g62
I5
ssg63
g2332
sg56
(lp2339
S'unioeste_code/127.0.0.1.2012-07-28.16-06-32.dfd4e64a-e6ec-47ca-90f1-2566d7062be3'
p2340
asbasbasbag49
(g65
g51
NtRp2341
(dp2342
g54
(dp2343
sg63
g59
sg56
(lp2344
g49
(g70
g51
NtRp2345
(dp2346
g54
(dp2347
g74
g75
ssg63
g2341
sg56
(lp2348
S'vars'
p2349
asbag49
(g70
g51
NtRp2350
(dp2351
g54
(dp2352
g81
g82
ssg63
g2341
sg56
(lp2353
S':'
asbag49
(g70
g51
NtRp2354
(dp2355
g54
(dp2356
sg63
g2341
sg56
(lp2357
g49
(g50
g51
NtRp2358
(dp2359
g54
(dp2360
g62
I5
ssg63
g2354
sg56
(lp2361
g49
(g58
g51
NtRp2362
(dp2363
g54
(dp2364
g62
I4
ssg63
Nsg56
(lp2365
sbasbasbasbag49
(g65
g51
NtRp2366
(dp2367
g54
(dp2368
sg63
g59
sg56
(lp2369
g49
(g70
g51
NtRp2370
(dp2371
g54
(dp2372
g74
g75
ssg63
g2366
sg56
(lp2373
S'wsgi'
p2374
asbag49
(g70
g51
NtRp2375
(dp2376
g54
(dp2377
g81
g82
ssg63
g2366
sg56
(lp2378
S':'
asbag49
(g70
g51
NtRp2379
(dp2380
g54
(dp2381
sg63
g2366
sg56
(lp2382
g49
(g50
g51
NtRp2383
(dp2384
g54
(dp2385
g62
I5
ssg63
g2379
sg56
(lp2386
g49
(g58
g51
NtRp2387
(dp2388
g54
(dp2389
g62
I4
ssg63
Nsg56
(lp2390
g49
(g65
g51
NtRp2391
(dp2392
g54
(dp2393
sg63
g2387
sg56
(lp2394
g49
(g70
g51
NtRp2395
(dp2396
g54
(dp2397
g74
g75
ssg63
g2391
sg56
(lp2398
S'environ'
p2399
asbag49
(g70
g51
NtRp2400
(dp2401
g54
(dp2402
g81
g82
ssg63
g2391
sg56
(lp2403
S':'
asbag49
(g70
g51
NtRp2404
(dp2405
g54
(dp2406
sg63
g2391
sg56
(lp2407
g49
(g50
g51
NtRp2408
(dp2409
g54
(dp2410
g62
I4
ssg63
g2404
sg56
(lp2411
g49
(g58
g51
NtRp2412
(dp2413
g54
(dp2414
g62
I3
ssg63
Nsg56
(lp2415
g49
(g65
g51
NtRp2416
(dp2417
g54
(dp2418
sg63
g2412
sg56
(lp2419
g49
(g70
g51
NtRp2420
(dp2421
g54
(dp2422
g74
g75
ssg63
g2416
sg56
(lp2423
S'HTTP_ACCEPT'
p2424
asbag49
(g70
g51
NtRp2425
(dp2426
g54
(dp2427
g81
g82
ssg63
g2416
sg56
(lp2428
S':'
asbag49
(g70
g51
NtRp2429
(dp2430
g54
(dp2431
sg63
g2416
sg56
(lp2432
g49
(g50
g51
NtRp2433
(dp2434
g54
(dp2435
g62
I3
ssg63
g2429
sg56
(lp2436
g946
asbasbasbag49
(g65
g51
NtRp2437
(dp2438
g54
(dp2439
sg63
g2412
sg56
(lp2440
g49
(g70
g51
NtRp2441
(dp2442
g54
(dp2443
g74
g75
ssg63
g2437
sg56
(lp2444
S'HTTP_ACCEPT_CHARSET'
p2445
asbag49
(g70
g51
NtRp2446
(dp2447
g54
(dp2448
g81
g82
ssg63
g2437
sg56
(lp2449
S':'
asbag49
(g70
g51
NtRp2450
(dp2451
g54
(dp2452
sg63
g2437
sg56
(lp2453
g49
(g50
g51
NtRp2454
(dp2455
g54
(dp2456
g62
I3
ssg63
g2450
sg56
(lp2457
g968
asbasbasbag49
(g65
g51
NtRp2458
(dp2459
g54
(dp2460
sg63
g2412
sg56
(lp2461
g49
(g70
g51
NtRp2462
(dp2463
g54
(dp2464
g74
g75
ssg63
g2458
sg56
(lp2465
S'HTTP_ACCEPT_ENCODING'
p2466
asbag49
(g70
g51
NtRp2467
(dp2468
g54
(dp2469
g81
g82
ssg63
g2458
sg56
(lp2470
S':'
asbag49
(g70
g51
NtRp2471
(dp2472
g54
(dp2473
sg63
g2458
sg56
(lp2474
g49
(g50
g51
NtRp2475
(dp2476
g54
(dp2477
g62
I3
ssg63
g2471
sg56
(lp2478
g990
asbasbasbag49
(g65
g51
NtRp2479
(dp2480
g54
(dp2481
sg63
g2412
sg56
(lp2482
g49
(g70
g51
NtRp2483
(dp2484
g54
(dp2485
g74
g75
ssg63
g2479
sg56
(lp2486
S'HTTP_ACCEPT_LANGUAGE'
p2487
asbag49
(g70
g51
NtRp2488
(dp2489
g54
(dp2490
g81
g82
ssg63
g2479
sg56
(lp2491
S':'
asbag49
(g70
g51
NtRp2492
(dp2493
g54
(dp2494
sg63
g2479
sg56
(lp2495
g49
(g50
g51
NtRp2496
(dp2497
g54
(dp2498
g62
I3
ssg63
g2492
sg56
(lp2499
g1012
asbasbasbag49
(g65
g51
NtRp2500
(dp2501
g54
(dp2502
sg63
g2412
sg56
(lp2503
g49
(g70
g51
NtRp2504
(dp2505
g54
(dp2506
g74
g75
ssg63
g2500
sg56
(lp2507
S'HTTP_CONNECTION'
p2508
asbag49
(g70
g51
NtRp2509
(dp2510
g54
(dp2511
g81
g82
ssg63
g2500
sg56
(lp2512
S':'
asbag49
(g70
g51
NtRp2513
(dp2514
g54
(dp2515
sg63
g2500
sg56
(lp2516
g49
(g50
g51
NtRp2517
(dp2518
g54
(dp2519
g62
I3
ssg63
g2513
sg56
(lp2520
g1034
asbasbasbag49
(g65
g51
NtRp2521
(dp2522
g54
(dp2523
sg63
g2412
sg56
(lp2524
g49
(g70
g51
NtRp2525
(dp2526
g54
(dp2527
g74
g75
ssg63
g2521
sg56
(lp2528
S'HTTP_COOKIE'
p2529
asbag49
(g70
g51
NtRp2530
(dp2531
g54
(dp2532
g81
g82
ssg63
g2521
sg56
(lp2533
S':'
asbag49
(g70
g51
NtRp2534
(dp2535
g54
(dp2536
sg63
g2521
sg56
(lp2537
g49
(g50
g51
NtRp2538
(dp2539
g54
(dp2540
g62
I3
ssg63
g2534
sg56
(lp2541
g1056
asbasbasbag49
(g65
g51
NtRp2542
(dp2543
g54
(dp2544
sg63
g2412
sg56
(lp2545
g49
(g70
g51
NtRp2546
(dp2547
g54
(dp2548
g74
g75
ssg63
g2542
sg56
(lp2549
S'HTTP_DNT'
p2550
asbag49
(g70
g51
NtRp2551
(dp2552
g54
(dp2553
g81
g82
ssg63
g2542
sg56
(lp2554
S':'
asbag49
(g70
g51
NtRp2555
(dp2556
g54
(dp2557
sg63
g2542
sg56
(lp2558
g49
(g50
g51
NtRp2559
(dp2560
g54
(dp2561
g62
I3
ssg63
g2555
sg56
(lp2562
S'1'
asbasbasbag49
(g65
g51
NtRp2563
(dp2564
g54
(dp2565
sg63
g2412
sg56
(lp2566
g49
(g70
g51
NtRp2567
(dp2568
g54
(dp2569
g74
g75
ssg63
g2563
sg56
(lp2570
S'HTTP_HOST'
p2571
asbag49
(g70
g51
NtRp2572
(dp2573
g54
(dp2574
g81
g82
ssg63
g2563
sg56
(lp2575
S':'
asbag49
(g70
g51
NtRp2576
(dp2577
g54
(dp2578
sg63
g2563
sg56
(lp2579
g49
(g50
g51
NtRp2580
(dp2581
g54
(dp2582
g62
I3
ssg63
g2576
sg56
(lp2583
g1099
asbasbasbag49
(g65
g51
NtRp2584
(dp2585
g54
(dp2586
sg63
g2412
sg56
(lp2587
g49
(g70
g51
NtRp2588
(dp2589
g54
(dp2590
g74
g75
ssg63
g2584
sg56
(lp2591
S'HTTP_REFERER'
p2592
asbag49
(g70
g51
NtRp2593
(dp2594
g54
(dp2595
g81
g82
ssg63
g2584
sg56
(lp2596
S':'
asbag49
(g70
g51
NtRp2597
(dp2598
g54
(dp2599
sg63
g2584
sg56
(lp2600
g49
(g50
g51
NtRp2601
(dp2602
g54
(dp2603
g62
I3
ssg63
g2597
sg56
(lp2604
g1121
asbasbasbag49
(g65
g51
NtRp2605
(dp2606
g54
(dp2607
sg63
g2412
sg56
(lp2608
g49
(g70
g51
NtRp2609
(dp2610
g54
(dp2611
g74
g75
ssg63
g2605
sg56
(lp2612
S'HTTP_USER_AGENT'
p2613
asbag49
(g70
g51
NtRp2614
(dp2615
g54
(dp2616
g81
g82
ssg63
g2605
sg56
(lp2617
S':'
asbag49
(g70
g51
NtRp2618
(dp2619
g54
(dp2620
sg63
g2605
sg56
(lp2621
g49
(g50
g51
NtRp2622
(dp2623
g54
(dp2624
g62
I3
ssg63
g2618
sg56
(lp2625
g1143
asbasbasbag49
(g65
g51
NtRp2626
(dp2627
g54
(dp2628
sg63
g2412
sg56
(lp2629
g49
(g70
g51
NtRp2630
(dp2631
g54
(dp2632
g74
g75
ssg63
g2626
sg56
(lp2633
S'PATH_INFO'
p2634
asbag49
(g70
g51
NtRp2635
(dp2636
g54
(dp2637
g81
g82
ssg63
g2626
sg56
(lp2638
S':'
asbag49
(g70
g51
NtRp2639
(dp2640
g54
(dp2641
sg63
g2626
sg56
(lp2642
g49
(g50
g51
NtRp2643
(dp2644
g54
(dp2645
g62
I3
ssg63
g2639
sg56
(lp2646
g1207
asbasbasbag49
(g65
g51
NtRp2647
(dp2648
g54
(dp2649
sg63
g2412
sg56
(lp2650
g49
(g70
g51
NtRp2651
(dp2652
g54
(dp2653
g74
g75
ssg63
g2647
sg56
(lp2654
S'QUERY_STRING'
p2655
asbag49
(g70
g51
NtRp2656
(dp2657
g54
(dp2658
g81
g82
ssg63
g2647
sg56
(lp2659
S':'
asbag49
(g70
g51
NtRp2660
(dp2661
g54
(dp2662
sg63
g2647
sg56
(lp2663
g49
(g50
g51
NtRp2664
(dp2665
g54
(dp2666
g62
I3
ssg63
g2660
sg56
(lp2667
S''
asbasbasbag49
(g65
g51
NtRp2668
(dp2669
g54
(dp2670
sg63
g2412
sg56
(lp2671
g49
(g70
g51
NtRp2672
(dp2673
g54
(dp2674
g74
g75
ssg63
g2668
sg56
(lp2675
S'REMOTE_ADDR'
p2676
asbag49
(g70
g51
NtRp2677
(dp2678
g54
(dp2679
g81
g82
ssg63
g2668
sg56
(lp2680
S':'
asbag49
(g70
g51
NtRp2681
(dp2682
g54
(dp2683
sg63
g2668
sg56
(lp2684
g49
(g50
g51
NtRp2685
(dp2686
g54
(dp2687
g62
I3
ssg63
g2681
sg56
(lp2688
g194
asbasbasbag49
(g65
g51
NtRp2689
(dp2690
g54
(dp2691
sg63
g2412
sg56
(lp2692
g49
(g70
g51
NtRp2693
(dp2694
g54
(dp2695
g74
g75
ssg63
g2689
sg56
(lp2696
S'REMOTE_PORT'
p2697
asbag49
(g70
g51
NtRp2698
(dp2699
g54
(dp2700
g81
g82
ssg63
g2689
sg56
(lp2701
S':'
asbag49
(g70
g51
NtRp2702
(dp2703
g54
(dp2704
sg63
g2689
sg56
(lp2705
g49
(g50
g51
NtRp2706
(dp2707
g54
(dp2708
g62
I3
ssg63
g2702
sg56
(lp2709
g1271
asbasbasbag49
(g65
g51
NtRp2710
(dp2711
g54
(dp2712
sg63
g2412
sg56
(lp2713
g49
(g70
g51
NtRp2714
(dp2715
g54
(dp2716
g74
g75
ssg63
g2710
sg56
(lp2717
S'REQUEST_METHOD'
p2718
asbag49
(g70
g51
NtRp2719
(dp2720
g54
(dp2721
g81
g82
ssg63
g2710
sg56
(lp2722
S':'
asbag49
(g70
g51
NtRp2723
(dp2724
g54
(dp2725
sg63
g2710
sg56
(lp2726
g49
(g50
g51
NtRp2727
(dp2728
g54
(dp2729
g62
I3
ssg63
g2723
sg56
(lp2730
g1293
asbasbasbag49
(g65
g51
NtRp2731
(dp2732
g54
(dp2733
sg63
g2412
sg56
(lp2734
g49
(g70
g51
NtRp2735
(dp2736
g54
(dp2737
g74
g75
ssg63
g2731
sg56
(lp2738
S'SCRIPT_NAME'
p2739
asbag49
(g70
g51
NtRp2740
(dp2741
g54
(dp2742
g81
g82
ssg63
g2731
sg56
(lp2743
S':'
asbag49
(g70
g51
NtRp2744
(dp2745
g54
(dp2746
sg63
g2731
sg56
(lp2747
g49
(g50
g51
NtRp2748
(dp2749
g54
(dp2750
g62
I3
ssg63
g2744
sg56
(lp2751
S''
asbasbasbag49
(g65
g51
NtRp2752
(dp2753
g54
(dp2754
sg63
g2412
sg56
(lp2755
g49
(g70
g51
NtRp2756
(dp2757
g54
(dp2758
g74
g75
ssg63
g2752
sg56
(lp2759
S'SERVER_NAME'
p2760
asbag49
(g70
g51
NtRp2761
(dp2762
g54
(dp2763
g81
g82
ssg63
g2752
sg56
(lp2764
S':'
asbag49
(g70
g51
NtRp2765
(dp2766
g54
(dp2767
sg63
g2752
sg56
(lp2768
g49
(g50
g51
NtRp2769
(dp2770
g54
(dp2771
g62
I3
ssg63
g2765
sg56
(lp2772
g1336
asbasbasbag49
(g65
g51
NtRp2773
(dp2774
g54
(dp2775
sg63
g2412
sg56
(lp2776
g49
(g70
g51
NtRp2777
(dp2778
g54
(dp2779
g74
g75
ssg63
g2773
sg56
(lp2780
S'SERVER_PORT'
p2781
asbag49
(g70
g51
NtRp2782
(dp2783
g54
(dp2784
g81
g82
ssg63
g2773
sg56
(lp2785
S':'
asbag49
(g70
g51
NtRp2786
(dp2787
g54
(dp2788
sg63
g2773
sg56
(lp2789
g49
(g50
g51
NtRp2790
(dp2791
g54
(dp2792
g62
I3
ssg63
g2786
sg56
(lp2793
g1358
asbasbasbag49
(g65
g51
NtRp2794
(dp2795
g54
(dp2796
sg63
g2412
sg56
(lp2797
g49
(g70
g51
NtRp2798
(dp2799
g54
(dp2800
g74
g75
ssg63
g2794
sg56
(lp2801
S'SERVER_PROTOCOL'
p2802
asbag49
(g70
g51
NtRp2803
(dp2804
g54
(dp2805
g81
g82
ssg63
g2794
sg56
(lp2806
S':'
asbag49
(g70
g51
NtRp2807
(dp2808
g54
(dp2809
sg63
g2794
sg56
(lp2810
g49
(g50
g51
NtRp2811
(dp2812
g54
(dp2813
g62
I3
ssg63
g2807
sg56
(lp2814
g1380
asbasbasbag49
(g65
g51
NtRp2815
(dp2816
g54
(dp2817
sg63
g2412
sg56
(lp2818
g49
(g70
g51
NtRp2819
(dp2820
g54
(dp2821
g74
g75
ssg63
g2815
sg56
(lp2822
S'SERVER_SOFTWARE'
p2823
asbag49
(g70
g51
NtRp2824
(dp2825
g54
(dp2826
g81
g82
ssg63
g2815
sg56
(lp2827
S':'
asbag49
(g70
g51
NtRp2828
(dp2829
g54
(dp2830
sg63
g2815
sg56
(lp2831
g49
(g50
g51
NtRp2832
(dp2833
g54
(dp2834
g62
I3
ssg63
g2828
sg56
(lp2835
g1402
asbasbasbag49
(g65
g51
NtRp2836
(dp2837
g54
(dp2838
sg63
g2412
sg56
(lp2839
g49
(g70
g51
NtRp2840
(dp2841
g54
(dp2842
g74
g75
ssg63
g2836
sg56
(lp2843
S'wsgi.errors'
p2844
asbag49
(g70
g51
NtRp2845
(dp2846
g54
(dp2847
g81
g82
ssg63
g2836
sg56
(lp2848
S':'
asbag49
(g70
g51
NtRp2849
(dp2850
g54
(dp2851
sg63
g2836
sg56
(lp2852
g49
(g50
g51
NtRp2853
(dp2854
g54
(dp2855
g62
I3
ssg63
g2849
sg56
(lp2856
S'<__main__.Stderr object at 0x006F6670>'
p2857
asbasbasbag49
(g65
g51
NtRp2858
(dp2859
g54
(dp2860
sg63
g2412
sg56
(lp2861
g49
(g70
g51
NtRp2862
(dp2863
g54
(dp2864
g74
g75
ssg63
g2858
sg56
(lp2865
S'wsgi.file_wrapper'
p2866
asbag49
(g70
g51
NtRp2867
(dp2868
g54
(dp2869
g81
g82
ssg63
g2858
sg56
(lp2870
S':'
asbag49
(g70
g51
NtRp2871
(dp2872
g54
(dp2873
sg63
g2858
sg56
(lp2874
g49
(g50
g51
NtRp2875
(dp2876
g54
(dp2877
g62
I3
ssg63
g2871
sg56
(lp2878
S'<class wsgiref.util.FileWrapper at 0x02E8DE10>'
p2879
asbasbasbag49
(g65
g51
NtRp2880
(dp2881
g54
(dp2882
sg63
g2412
sg56
(lp2883
g49
(g70
g51
NtRp2884
(dp2885
g54
(dp2886
g74
g75
ssg63
g2880
sg56
(lp2887
S'wsgi.input'
p2888
asbag49
(g70
g51
NtRp2889
(dp2890
g54
(dp2891
g81
g82
ssg63
g2880
sg56
(lp2892
S':'
asbag49
(g70
g51
NtRp2893
(dp2894
g54
(dp2895
sg63
g2880
sg56
(lp2896
g49
(g50
g51
NtRp2897
(dp2898
g54
(dp2899
g62
I3
ssg63
g2893
sg56
(lp2900
S'<cStringIO.StringO object at 0x064AA500>'
p2901
asbasbasbag49
(g65
g51
NtRp2902
(dp2903
g54
(dp2904
sg63
g2412
sg56
(lp2905
g49
(g70
g51
NtRp2906
(dp2907
g54
(dp2908
g74
g75
ssg63
g2902
sg56
(lp2909
S'wsgi.multiprocess'
p2910
asbag49
(g70
g51
NtRp2911
(dp2912
g54
(dp2913
g81
g82
ssg63
g2902
sg56
(lp2914
S':'
asbag49
(g70
g51
NtRp2915
(dp2916
g54
(dp2917
sg63
g2902
sg56
(lp2918
g49
(g50
g51
NtRp2919
(dp2920
g54
(dp2921
g62
I3
ssg63
g2915
sg56
(lp2922
g92
asbasbasbag49
(g65
g51
NtRp2923
(dp2924
g54
(dp2925
sg63
g2412
sg56
(lp2926
g49
(g70
g51
NtRp2927
(dp2928
g54
(dp2929
g74
g75
ssg63
g2923
sg56
(lp2930
S'wsgi.multithread'
p2931
asbag49
(g70
g51
NtRp2932
(dp2933
g54
(dp2934
g81
g82
ssg63
g2923
sg56
(lp2935
S':'
asbag49
(g70
g51
NtRp2936
(dp2937
g54
(dp2938
sg63
g2923
sg56
(lp2939
g49
(g50
g51
NtRp2940
(dp2941
g54
(dp2942
g62
I3
ssg63
g2936
sg56
(lp2943
g1642
asbasbasbag49
(g65
g51
NtRp2944
(dp2945
g54
(dp2946
sg63
g2412
sg56
(lp2947
g49
(g70
g51
NtRp2948
(dp2949
g54
(dp2950
g74
g75
ssg63
g2944
sg56
(lp2951
S'wsgi.run_once'
p2952
asbag49
(g70
g51
NtRp2953
(dp2954
g54
(dp2955
g81
g82
ssg63
g2944
sg56
(lp2956
S':'
asbag49
(g70
g51
NtRp2957
(dp2958
g54
(dp2959
sg63
g2944
sg56
(lp2960
g49
(g50
g51
NtRp2961
(dp2962
g54
(dp2963
g62
I3
ssg63
g2957
sg56
(lp2964
g92
asbasbasbag49
(g65
g51
NtRp2965
(dp2966
g54
(dp2967
sg63
g2412
sg56
(lp2968
g49
(g70
g51
NtRp2969
(dp2970
g54
(dp2971
g74
g75
ssg63
g2965
sg56
(lp2972
S'wsgi.url_scheme'
p2973
asbag49
(g70
g51
NtRp2974
(dp2975
g54
(dp2976
g81
g82
ssg63
g2965
sg56
(lp2977
S':'
asbag49
(g70
g51
NtRp2978
(dp2979
g54
(dp2980
sg63
g2965
sg56
(lp2981
g49
(g50
g51
NtRp2982
(dp2983
g54
(dp2984
g62
I3
ssg63
g2978
sg56
(lp2985
g1685
asbasbasbag49
(g65
g51
NtRp2986
(dp2987
g54
(dp2988
sg63
g2412
sg56
(lp2989
g49
(g70
g51
NtRp2990
(dp2991
g54
(dp2992
g74
g75
ssg63
g2986
sg56
(lp2993
S'wsgi.version'
p2994
asbag49
(g70
g51
NtRp2995
(dp2996
g54
(dp2997
g81
g82
ssg63
g2986
sg56
(lp2998
S':'
asbag49
(g70
g51
NtRp2999
(dp3000
g54
(dp3001
sg63
g2986
sg56
(lp3002
g49
(g50
g51
NtRp3003
(dp3004
g54
(dp3005
g62
I3
ssg63
g2999
sg56
(lp3006
S'1'
asbasbasbasbasbasbasbasbasbasbasbasbasbsS'frames'
p3007
(lp3008
(dp3009
S'file'
p3010
S'C:\\web2py\\gluon\\restricted.py'
p3011
sS'dump'
p3012
(dp3013
sS'lnum'
p3014
I205
sS'lines'
p3015
(dp3016
sS'call'
p3017
S'(code=r"left_sidebar_enabled,right_sidebar_enabled=False...ponse.write(\'\\n</body>\\n</html>\\n\', escape=False)", environment={\'A\': <class \'gluon.html.A\'>, \'Auth\': <class \'gluon.tools.Auth\'>, \'B\': <class \'gluon.html.B\'>, \'BEAUTIFY\': <class \'gluon.html.BEAUTIFY\'>, \'BODY\': <class \'gluon.html.BODY\'>, \'BR\': <class \'gluon.html.BR\'>, \'BUTTON\': <class \'gluon.html.BUTTON\'>, \'CAT\': <class \'gluon.html.CAT\'>, \'CENTER\': <class \'gluon.html.CENTER\'>, \'CLEANUP\': <class \'gluon.validators.CLEANUP\'>, ...}, layer=r\'C:\\web2py\\applications\\unioeste_code\\views\\default/showProblem.html\')'
p3018
sS'func'
p3019
S'restricted'
p3020
sa(dp3021
g3010
S'C:\\web2py\\applications\\unioeste_code\\views\\default\\showProblem.html'
p3022
sg3012
(dp3023
sg3014
I98
sg3015
(dp3024
I96
S'    s = user.first_name + " " + user.last_name + " - (" + user.email + ")"'
p3025
sI97
S"    response.write('\\r\\n', escape=False)"
p3026
sI98
S'    response.write(LI(A(i + " - " + s, _href=URL("showCode", args=problem.id))))'
p3027
sI99
S"    response.write('\\r\\n', escape=False)"
p3028
sI100
S'    pass'
p3029
sI101
S"response.write('\\r\\n</ul>\\r\\n\\r\\n', escape=False)"
p3030
sI102
S"response.write('\\n          ', escape=False)"
p3031
sI103
S"response.write('\\n        </div>\\n        \\n        ', escape=False)"
p3032
sI104
S'if right_sidebar_enabled:'
p3033
sI105
S'    response.write(\'\\n        <div class="four columns">\\n          \', escape=False)'
p3034
sI106
S"    response.write('\\n          <h3>Right Sidebar</h3>\\n          <p></p>\\n          ', escape=False)"
p3035
sI107
S"    response.write('\\n        </div>    \\n        ', escape=False)"
p3036
sI108
S'    pass'
p3037
sI89
S"response.write('\\r\\n', escape=False)"
p3038
sI90
S'response.write(H2("C\xc3\xb3digos postados", _style="color:green"))'
p3039
sI91
S"response.write('\\r\\n<ul>\\r\\n', escape=False)"
p3040
sI92
S'for i,code in enumerate(codes):'
p3041
sI93
S"    response.write('\\r\\n', escape=False)"
p3042
sI94
S'    user = db(db.auth_user.id==code.created_by).select().first()'
p3043
sI95
S"    response.write('\\r\\n', escape=False)"
p3044
ssg3017
S'()'
p3045
sg3019
S'<module>'
p3046
sasS'pyver'
p3047
S'Python 2.5.4: C:\\web2py\\web2py_no_console.exe'
p3048
sS'session'
p3049
g49
(g50
g51
NtRp3050
(dp3051
g54
(dp3052
sg56
(lp3053
g49
(g58
g51
NtRp3054
(dp3055
g54
(dp3056
g62
I5
ssg63
Nsg56
(lp3057
g49
(g65
g51
NtRp3058
(dp3059
g54
(dp3060
sg63
g3054
sg56
(lp3061
g49
(g70
g51
NtRp3062
(dp3063
g54
(dp3064
g74
g75
ssg63
g3058
sg56
(lp3065
S'auth'
p3066
asbag49
(g70
g51
NtRp3067
(dp3068
g54
(dp3069
g81
g82
ssg63
g3058
sg56
(lp3070
S':'
asbag49
(g70
g51
NtRp3071
(dp3072
g54
(dp3073
sg63
g3058
sg56
(lp3074
g49
(g50
g51
NtRp3075
(dp3076
g54
(dp3077
g62
I5
ssg63
g3071
sg56
(lp3078
g49
(g58
g51
NtRp3079
(dp3080
g54
(dp3081
g62
I4
ssg63
Nsg56
(lp3082
g49
(g65
g51
NtRp3083
(dp3084
g54
(dp3085
sg63
g3079
sg56
(lp3086
g49
(g70
g51
NtRp3087
(dp3088
g54
(dp3089
g74
g75
ssg63
g3083
sg56
(lp3090
S'expiration'
p3091
asbag49
(g70
g51
NtRp3092
(dp3093
g54
(dp3094
g81
g82
ssg63
g3083
sg56
(lp3095
S':'
asbag49
(g70
g51
NtRp3096
(dp3097
g54
(dp3098
sg63
g3083
sg56
(lp3099
g49
(g50
g51
NtRp3100
(dp3101
g54
(dp3102
g62
I4
ssg63
g3096
sg56
(lp3103
S'3600'
p3104
asbasbasbag49
(g65
g51
NtRp3105
(dp3106
g54
(dp3107
sg63
g3079
sg56
(lp3108
g49
(g70
g51
NtRp3109
(dp3110
g54
(dp3111
g74
g75
ssg63
g3105
sg56
(lp3112
S'hmac_key'
p3113
asbag49
(g70
g51
NtRp3114
(dp3115
g54
(dp3116
g81
g82
ssg63
g3105
sg56
(lp3117
S':'
asbag49
(g70
g51
NtRp3118
(dp3119
g54
(dp3120
sg63
g3105
sg56
(lp3121
g49
(g50
g51
NtRp3122
(dp3123
g54
(dp3124
g62
I4
ssg63
g3118
sg56
(lp3125
S'4bb52b95-e0ea-467e-aa01-3d0fe3410574'
p3126
asbasbasbag49
(g65
g51
NtRp3127
(dp3128
g54
(dp3129
sg63
g3079
sg56
(lp3130
g49
(g70
g51
NtRp3131
(dp3132
g54
(dp3133
g74
g75
ssg63
g3127
sg56
(lp3134
S'last_visit'
p3135
asbag49
(g70
g51
NtRp3136
(dp3137
g54
(dp3138
g81
g82
ssg63
g3127
sg56
(lp3139
S':'
asbag49
(g70
g51
NtRp3140
(dp3141
g54
(dp3142
sg63
g3127
sg56
(lp3143
g49
(g50
g51
NtRp3144
(dp3145
g54
(dp3146
g62
I4
ssg63
g3140
sg56
(lp3147
S'datetime.datetime(2012, 7, 28, 16, 4, 1, 308000)'
p3148
asbasbasbag49
(g65
g51
NtRp3149
(dp3150
g54
(dp3151
sg63
g3079
sg56
(lp3152
g49
(g70
g51
NtRp3153
(dp3154
g54
(dp3155
g74
g75
ssg63
g3149
sg56
(lp3156
S'user'
p3157
asbag49
(g70
g51
NtRp3158
(dp3159
g54
(dp3160
g81
g82
ssg63
g3149
sg56
(lp3161
S':'
asbag49
(g70
g51
NtRp3162
(dp3163
g54
(dp3164
sg63
g3149
sg56
(lp3165
g49
(g50
g51
NtRp3166
(dp3167
g54
(dp3168
g62
I4
ssg63
g3162
sg56
(lp3169
g49
(g58
g51
NtRp3170
(dp3171
g54
(dp3172
g62
I3
ssg63
Nsg56
(lp3173
g49
(g65
g51
NtRp3174
(dp3175
g54
(dp3176
sg63
g3170
sg56
(lp3177
g49
(g70
g51
NtRp3178
(dp3179
g54
(dp3180
g74
g75
ssg63
g3174
sg56
(lp3181
S'email'
p3182
asbag49
(g70
g51
NtRp3183
(dp3184
g54
(dp3185
g81
g82
ssg63
g3174
sg56
(lp3186
S':'
asbag49
(g70
g51
NtRp3187
(dp3188
g54
(dp3189
sg63
g3174
sg56
(lp3190
g49
(g50
g51
NtRp3191
(dp3192
g54
(dp3193
g62
I3
ssg63
g3187
sg56
(lp3194
S'scmirror1@gmail.com'
p3195
asbasbasbag49
(g65
g51
NtRp3196
(dp3197
g54
(dp3198
sg63
g3170
sg56
(lp3199
g49
(g70
g51
NtRp3200
(dp3201
g54
(dp3202
g74
g75
ssg63
g3196
sg56
(lp3203
S'first_name'
p3204
asbag49
(g70
g51
NtRp3205
(dp3206
g54
(dp3207
g81
g82
ssg63
g3196
sg56
(lp3208
S':'
asbag49
(g70
g51
NtRp3209
(dp3210
g54
(dp3211
sg63
g3196
sg56
(lp3212
g49
(g50
g51
NtRp3213
(dp3214
g54
(dp3215
g62
I3
ssg63
g3209
sg56
(lp3216
S'Pedro'
p3217
asbasbasbag49
(g65
g51
NtRp3218
(dp3219
g54
(dp3220
sg63
g3170
sg56
(lp3221
g49
(g70
g51
NtRp3222
(dp3223
g54
(dp3224
g74
g75
ssg63
g3218
sg56
(lp3225
S'id'
p3226
asbag49
(g70
g51
NtRp3227
(dp3228
g54
(dp3229
g81
g82
ssg63
g3218
sg56
(lp3230
S':'
asbag49
(g70
g51
NtRp3231
(dp3232
g54
(dp3233
sg63
g3218
sg56
(lp3234
g49
(g50
g51
NtRp3235
(dp3236
g54
(dp3237
g62
I3
ssg63
g3231
sg56
(lp3238
S'1'
asbasbasbag49
(g65
g51
NtRp3239
(dp3240
g54
(dp3241
sg63
g3170
sg56
(lp3242
g49
(g70
g51
NtRp3243
(dp3244
g54
(dp3245
g74
g75
ssg63
g3239
sg56
(lp3246
S'last_name'
p3247
asbag49
(g70
g51
NtRp3248
(dp3249
g54
(dp3250
g81
g82
ssg63
g3239
sg56
(lp3251
S':'
asbag49
(g70
g51
NtRp3252
(dp3253
g54
(dp3254
sg63
g3239
sg56
(lp3255
g49
(g50
g51
NtRp3256
(dp3257
g54
(dp3258
g62
I3
ssg63
g3252
sg56
(lp3259
S'Lacerda'
p3260
asbasbasbag49
(g65
g51
NtRp3261
(dp3262
g54
(dp3263
sg63
g3170
sg56
(lp3264
g49
(g70
g51
NtRp3265
(dp3266
g54
(dp3267
g74
g75
ssg63
g3261
sg56
(lp3268
S'password'
p3269
asbag49
(g70
g51
NtRp3270
(dp3271
g54
(dp3272
g81
g82
ssg63
g3261
sg56
(lp3273
S':'
asbag49
(g70
g51
NtRp3274
(dp3275
g54
(dp3276
sg63
g3261
sg56
(lp3277
g49
(g50
g51
NtRp3278
(dp3279
g54
(dp3280
g62
I3
ssg63
g3274
sg56
(lp3281
S'4297f44b13955235245b2497399d7a93'
p3282
asbasbasbag49
(g65
g51
NtRp3283
(dp3284
g54
(dp3285
sg63
g3170
sg56
(lp3286
g49
(g70
g51
NtRp3287
(dp3288
g54
(dp3289
g74
g75
ssg63
g3283
sg56
(lp3290
S'registration_id'
p3291
asbag49
(g70
g51
NtRp3292
(dp3293
g54
(dp3294
g81
g82
ssg63
g3283
sg56
(lp3295
S':'
asbag49
(g70
g51
NtRp3296
(dp3297
g54
(dp3298
sg63
g3283
sg56
(lp3299
g49
(g50
g51
NtRp3300
(dp3301
g54
(dp3302
g62
I3
ssg63
g3296
sg56
(lp3303
S''
asbasbasbag49
(g65
g51
NtRp3304
(dp3305
g54
(dp3306
sg63
g3170
sg56
(lp3307
g49
(g70
g51
NtRp3308
(dp3309
g54
(dp3310
g74
g75
ssg63
g3304
sg56
(lp3311
S'registration_key'
p3312
asbag49
(g70
g51
NtRp3313
(dp3314
g54
(dp3315
g81
g82
ssg63
g3304
sg56
(lp3316
S':'
asbag49
(g70
g51
NtRp3317
(dp3318
g54
(dp3319
sg63
g3304
sg56
(lp3320
g49
(g50
g51
NtRp3321
(dp3322
g54
(dp3323
g62
I3
ssg63
g3317
sg56
(lp3324
S''
asbasbasbag49
(g65
g51
NtRp3325
(dp3326
g54
(dp3327
sg63
g3170
sg56
(lp3328
g49
(g70
g51
NtRp3329
(dp3330
g54
(dp3331
g74
g75
ssg63
g3325
sg56
(lp3332
S'reset_password_key'
p3333
asbag49
(g70
g51
NtRp3334
(dp3335
g54
(dp3336
g81
g82
ssg63
g3325
sg56
(lp3337
S':'
asbag49
(g70
g51
NtRp3338
(dp3339
g54
(dp3340
sg63
g3325
sg56
(lp3341
g49
(g50
g51
NtRp3342
(dp3343
g54
(dp3344
g62
I3
ssg63
g3338
sg56
(lp3345
S''
asbasbasbasbasbasbasbag49
(g65
g51
NtRp3346
(dp3347
g54
(dp3348
sg63
g3079
sg56
(lp3349
g49
(g70
g51
NtRp3350
(dp3351
g54
(dp3352
g74
g75
ssg63
g3346
sg56
(lp3353
S'user_groups'
p3354
asbag49
(g70
g51
NtRp3355
(dp3356
g54
(dp3357
g81
g82
ssg63
g3346
sg56
(lp3358
S':'
asbag49
(g70
g51
NtRp3359
(dp3360
g54
(dp3361
sg63
g3346
sg56
(lp3362
g49
(g50
g51
NtRp3363
(dp3364
g54
(dp3365
g62
I4
ssg63
g3359
sg56
(lp3366
g49
(g58
g51
NtRp3367
(dp3368
g54
(dp3369
g62
I3
ssg63
Nsg56
(lp3370
g49
(g65
g51
NtRp3371
(dp3372
g54
(dp3373
sg63
g3367
sg56
(lp3374
g49
(g70
g51
NtRp3375
(dp3376
g54
(dp3377
g74
g75
ssg63
g3371
sg56
(lp3378
S'1'
asbag49
(g70
g51
NtRp3379
(dp3380
g54
(dp3381
g81
g82
ssg63
g3371
sg56
(lp3382
S':'
asbag49
(g70
g51
NtRp3383
(dp3384
g54
(dp3385
sg63
g3371
sg56
(lp3386
g49
(g50
g51
NtRp3387
(dp3388
g54
(dp3389
g62
I3
ssg63
g3383
sg56
(lp3390
S'user_1'
p3391
asbasbasbasbasbasbasbasbasbasbasbag49
(g65
g51
NtRp3392
(dp3393
g54
(dp3394
sg63
g3054
sg56
(lp3395
g49
(g70
g51
NtRp3396
(dp3397
g54
(dp3398
g74
g75
ssg63
g3392
sg56
(lp3399
S'last_query'
p3400
asbag49
(g70
g51
NtRp3401
(dp3402
g54
(dp3403
g81
g82
ssg63
g3392
sg56
(lp3404
S':'
asbag49
(g70
g51
NtRp3405
(dp3406
g54
(dp3407
sg63
g3392
sg56
(lp3408
g49
(g50
g51
NtRp3409
(dp3410
g54
(dp3411
g62
I5
ssg63
g3405
sg56
(lp3412
S'db.code.id>0'
p3413
asbasbasbasbasbsS'etype'
p3414
S"<type 'exceptions.TypeError'>"
p3415
sS'date'
p3416
S'Sat Jul 28 16:06:32 2012'
p3417
sS'response'
p3418
g49
(g50
g51
NtRp3419
(dp3420
g54
(dp3421
sg56
(lp3422
g49
(g58
g51
NtRp3423
(dp3424
g54
(dp3425
g62
I5
ssg63
Nsg56
(lp3426
g49
(g65
g51
NtRp3427
(dp3428
g54
(dp3429
sg63
g3423
sg56
(lp3430
g49
(g70
g51
NtRp3431
(dp3432
g54
(dp3433
g74
g75
ssg63
g3427
sg56
(lp3434
g159
asbag49
(g70
g51
NtRp3435
(dp3436
g54
(dp3437
g81
g82
ssg63
g3427
sg56
(lp3438
S':'
asbag49
(g70
g51
NtRp3439
(dp3440
g54
(dp3441
sg63
g3427
sg56
(lp3442
g49
(g50
g51
NtRp3443
(dp3444
g54
(dp3445
g62
I5
ssg63
g3439
sg56
(lp3446
S'<cStringIO.StringO object at 0x0648A8A0>'
p3447
asbasbasbag49
(g65
g51
NtRp3448
(dp3449
g54
(dp3450
sg63
g3423
sg56
(lp3451
g49
(g70
g51
NtRp3452
(dp3453
g54
(dp3454
g74
g75
ssg63
g3448
sg56
(lp3455
g225
asbag49
(g70
g51
NtRp3456
(dp3457
g54
(dp3458
g81
g82
ssg63
g3448
sg56
(lp3459
S':'
asbag49
(g70
g51
NtRp3460
(dp3461
g54
(dp3462
sg63
g3448
sg56
(lp3463
g49
(g50
g51
NtRp3464
(dp3465
g54
(dp3466
g62
I5
ssg63
g3460
sg56
(lp3467
g49
(g58
g51
NtRp3468
(dp3469
g54
(dp3470
g62
I4
ssg63
Nsg56
(lp3471
g49
(g65
g51
NtRp3472
(dp3473
g54
(dp3474
sg63
g3468
sg56
(lp3475
g49
(g70
g51
NtRp3476
(dp3477
g54
(dp3478
g74
g75
ssg63
g3472
sg56
(lp3479
S'session_id_unioeste_code'
p3480
asbag49
(g70
g51
NtRp3481
(dp3482
g54
(dp3483
g81
g82
ssg63
g3472
sg56
(lp3484
S':'
asbag49
(g70
g51
NtRp3485
(dp3486
g54
(dp3487
sg63
g3472
sg56
(lp3488
g49
(g50
g51
NtRp3489
(dp3490
g54
(dp3491
g62
I4
ssg63
g3485
sg56
(lp3492
g49
(g58
g51
NtRp3493
(dp3494
g54
(dp3495
g62
I3
ssg63
Nsg56
(lp3496
g49
(g65
g51
NtRp3497
(dp3498
g54
(dp3499
sg63
g3493
sg56
(lp3500
g49
(g70
g51
NtRp3501
(dp3502
g54
(dp3503
g74
g75
ssg63
g3497
sg56
(lp3504
g275
asbag49
(g70
g51
NtRp3505
(dp3506
g54
(dp3507
g81
g82
ssg63
g3497
sg56
(lp3508
S':'
asbag49
(g70
g51
NtRp3509
(dp3510
g54
(dp3511
sg63
g3497
sg56
(lp3512
g49
(g50
g51
NtRp3513
(dp3514
g54
(dp3515
g62
I3
ssg63
g3509
sg56
(lp3516
S''
asbasbasbag49
(g65
g51
NtRp3517
(dp3518
g54
(dp3519
sg63
g3493
sg56
(lp3520
g49
(g70
g51
NtRp3521
(dp3522
g54
(dp3523
g74
g75
ssg63
g3517
sg56
(lp3524
g296
asbag49
(g70
g51
NtRp3525
(dp3526
g54
(dp3527
g81
g82
ssg63
g3517
sg56
(lp3528
S':'
asbag49
(g70
g51
NtRp3529
(dp3530
g54
(dp3531
sg63
g3517
sg56
(lp3532
g49
(g50
g51
NtRp3533
(dp3534
g54
(dp3535
g62
I3
ssg63
g3529
sg56
(lp3536
S''
asbasbasbag49
(g65
g51
NtRp3537
(dp3538
g54
(dp3539
sg63
g3493
sg56
(lp3540
g49
(g70
g51
NtRp3541
(dp3542
g54
(dp3543
g74
g75
ssg63
g3537
sg56
(lp3544
g317
asbag49
(g70
g51
NtRp3545
(dp3546
g54
(dp3547
g81
g82
ssg63
g3537
sg56
(lp3548
S':'
asbag49
(g70
g51
NtRp3549
(dp3550
g54
(dp3551
sg63
g3537
sg56
(lp3552
g49
(g50
g51
NtRp3553
(dp3554
g54
(dp3555
g62
I3
ssg63
g3549
sg56
(lp3556
S''
asbasbasbag49
(g65
g51
NtRp3557
(dp3558
g54
(dp3559
sg63
g3493
sg56
(lp3560
g49
(g70
g51
NtRp3561
(dp3562
g54
(dp3563
g74
g75
ssg63
g3557
sg56
(lp3564
g338
asbag49
(g70
g51
NtRp3565
(dp3566
g54
(dp3567
g81
g82
ssg63
g3557
sg56
(lp3568
S':'
asbag49
(g70
g51
NtRp3569
(dp3570
g54
(dp3571
sg63
g3557
sg56
(lp3572
g49
(g50
g51
NtRp3573
(dp3574
g54
(dp3575
g62
I3
ssg63
g3569
sg56
(lp3576
S''
asbasbasbag49
(g65
g51
NtRp3577
(dp3578
g54
(dp3579
sg63
g3493
sg56
(lp3580
g49
(g70
g51
NtRp3581
(dp3582
g54
(dp3583
g74
g75
ssg63
g3577
sg56
(lp3584
g359
asbag49
(g70
g51
NtRp3585
(dp3586
g54
(dp3587
g81
g82
ssg63
g3577
sg56
(lp3588
S':'
asbag49
(g70
g51
NtRp3589
(dp3590
g54
(dp3591
sg63
g3577
sg56
(lp3592
g49
(g50
g51
NtRp3593
(dp3594
g54
(dp3595
g62
I3
ssg63
g3589
sg56
(lp3596
S'/'
asbasbasbag49
(g65
g51
NtRp3597
(dp3598
g54
(dp3599
sg63
g3493
sg56
(lp3600
g49
(g70
g51
NtRp3601
(dp3602
g54
(dp3603
g74
g75
ssg63
g3597
sg56
(lp3604
g380
asbag49
(g70
g51
NtRp3605
(dp3606
g54
(dp3607
g81
g82
ssg63
g3597
sg56
(lp3608
S':'
asbag49
(g70
g51
NtRp3609
(dp3610
g54
(dp3611
sg63
g3597
sg56
(lp3612
g49
(g50
g51
NtRp3613
(dp3614
g54
(dp3615
g62
I3
ssg63
g3609
sg56
(lp3616
S''
asbasbasbag49
(g65
g51
NtRp3617
(dp3618
g54
(dp3619
sg63
g3493
sg56
(lp3620
g49
(g70
g51
NtRp3621
(dp3622
g54
(dp3623
g74
g75
ssg63
g3617
sg56
(lp3624
g401
asbag49
(g70
g51
NtRp3625
(dp3626
g54
(dp3627
g81
g82
ssg63
g3617
sg56
(lp3628
S':'
asbag49
(g70
g51
NtRp3629
(dp3630
g54
(dp3631
sg63
g3617
sg56
(lp3632
g49
(g50
g51
NtRp3633
(dp3634
g54
(dp3635
g62
I3
ssg63
g3629
sg56
(lp3636
S''
asbasbasbasbasbasbasbasbasbasbasbag49
(g65
g51
NtRp3637
(dp3638
g54
(dp3639
sg63
g3423
sg56
(lp3640
g49
(g70
g51
NtRp3641
(dp3642
g54
(dp3643
g74
g75
ssg63
g3637
sg56
(lp3644
S'delimiters'
p3645
asbag49
(g70
g51
NtRp3646
(dp3647
g54
(dp3648
g81
g82
ssg63
g3637
sg56
(lp3649
S':'
asbag49
(g70
g51
NtRp3650
(dp3651
g54
(dp3652
sg63
g3637
sg56
(lp3653
g49
(g50
g51
NtRp3654
(dp3655
g54
(dp3656
g62
I5
ssg63
g3650
sg56
(lp3657
g49
(g58
g51
NtRp3658
(dp3659
g54
(dp3660
g62
I4
ssg63
Nsg56
(lp3661
g49
(g65
g51
NtRp3662
(dp3663
g54
(dp3664
sg63
g3658
sg56
(lp3665
g49
(g70
g51
NtRp3666
(dp3667
g54
(dp3668
sg63
g3662
sg56
(lp3669
g49
(g50
g51
NtRp3670
(dp3671
g54
(dp3672
g62
I4
ssg63
g3666
sg56
(lp3673
S'{{'
p3674
asbasbasbag49
(g65
g51
NtRp3675
(dp3676
g54
(dp3677
sg63
g3658
sg56
(lp3678
g49
(g70
g51
NtRp3679
(dp3680
g54
(dp3681
sg63
g3675
sg56
(lp3682
g49
(g50
g51
NtRp3683
(dp3684
g54
(dp3685
g62
I4
ssg63
g3679
sg56
(lp3686
S'}}'
p3687
asbasbasbasbasbasbasbag49
(g65
g51
NtRp3688
(dp3689
g54
(dp3690
sg63
g3423
sg56
(lp3691
g49
(g70
g51
NtRp3692
(dp3693
g54
(dp3694
g74
g75
ssg63
g3688
sg56
(lp3695
S'files'
p3696
asbag49
(g70
g51
NtRp3697
(dp3698
g54
(dp3699
g81
g82
ssg63
g3688
sg56
(lp3700
S':'
asbag49
(g70
g51
NtRp3701
(dp3702
g54
(dp3703
sg63
g3688
sg56
(lp3704
g49
(g50
g51
NtRp3705
(dp3706
g54
(dp3707
g62
I5
ssg63
g3701
sg56
(lp3708
g49
(g58
g51
NtRp3709
(dp3710
g54
(dp3711
g62
I4
ssg63
Nsg56
(lp3712
g49
(g65
g51
NtRp3713
(dp3714
g54
(dp3715
sg63
g3709
sg56
(lp3716
g49
(g70
g51
NtRp3717
(dp3718
g54
(dp3719
sg63
g3713
sg56
(lp3720
g49
(g50
g51
NtRp3721
(dp3722
g54
(dp3723
g62
I4
ssg63
g3717
sg56
(lp3724
S'/unioeste_code/static/js/jquery.js'
p3725
asbasbasbag49
(g65
g51
NtRp3726
(dp3727
g54
(dp3728
sg63
g3709
sg56
(lp3729
g49
(g70
g51
NtRp3730
(dp3731
g54
(dp3732
sg63
g3726
sg56
(lp3733
g49
(g50
g51
NtRp3734
(dp3735
g54
(dp3736
g62
I4
ssg63
g3730
sg56
(lp3737
S'/unioeste_code/static/css/calendar.css'
p3738
asbasbasbag49
(g65
g51
NtRp3739
(dp3740
g54
(dp3741
sg63
g3709
sg56
(lp3742
g49
(g70
g51
NtRp3743
(dp3744
g54
(dp3745
sg63
g3739
sg56
(lp3746
g49
(g50
g51
NtRp3747
(dp3748
g54
(dp3749
g62
I4
ssg63
g3743
sg56
(lp3750
S'/unioeste_code/static/js/calendar.js'
p3751
asbasbasbag49
(g65
g51
NtRp3752
(dp3753
g54
(dp3754
sg63
g3709
sg56
(lp3755
g49
(g70
g51
NtRp3756
(dp3757
g54
(dp3758
sg63
g3752
sg56
(lp3759
g49
(g50
g51
NtRp3760
(dp3761
g54
(dp3762
g62
I4
ssg63
g3756
sg56
(lp3763
S'/unioeste_code/static/js/web2py.js'
p3764
asbasbasbag49
(g65
g51
NtRp3765
(dp3766
g54
(dp3767
sg63
g3709
sg56
(lp3768
g49
(g70
g51
NtRp3769
(dp3770
g54
(dp3771
sg63
g3765
sg56
(lp3772
g49
(g50
g51
NtRp3773
(dp3774
g54
(dp3775
g62
I4
ssg63
g3769
sg56
(lp3776
S'/unioeste_code/static/css/skeleton.css'
p3777
asbasbasbag49
(g65
g51
NtRp3778
(dp3779
g54
(dp3780
sg63
g3709
sg56
(lp3781
g49
(g70
g51
NtRp3782
(dp3783
g54
(dp3784
sg63
g3778
sg56
(lp3785
g49
(g50
g51
NtRp3786
(dp3787
g54
(dp3788
g62
I4
ssg63
g3782
sg56
(lp3789
S'/unioeste_code/static/css/web2py.css'
p3790
asbasbasbag49
(g65
g51
NtRp3791
(dp3792
g54
(dp3793
sg63
g3709
sg56
(lp3794
g49
(g70
g51
NtRp3795
(dp3796
g54
(dp3797
sg63
g3791
sg56
(lp3798
g49
(g50
g51
NtRp3799
(dp3800
g54
(dp3801
g62
I4
ssg63
g3795
sg56
(lp3802
S'/unioeste_code/static/css/superfish.css'
p3803
asbasbasbag49
(g65
g51
NtRp3804
(dp3805
g54
(dp3806
sg63
g3709
sg56
(lp3807
g49
(g70
g51
NtRp3808
(dp3809
g54
(dp3810
sg63
g3804
sg56
(lp3811
g49
(g50
g51
NtRp3812
(dp3813
g54
(dp3814
g62
I4
ssg63
g3808
sg56
(lp3815
S'/unioeste_code/static/js/superfish.js'
p3816
asbasbasbasbasbasbasbag49
(g65
g51
NtRp3817
(dp3818
g54
(dp3819
sg63
g3423
sg56
(lp3820
g49
(g70
g51
NtRp3821
(dp3822
g54
(dp3823
g74
g75
ssg63
g3817
sg56
(lp3824
S'flash'
p3825
asbag49
(g70
g51
NtRp3826
(dp3827
g54
(dp3828
g81
g82
ssg63
g3817
sg56
(lp3829
S':'
asbag49
(g70
g51
NtRp3830
(dp3831
g54
(dp3832
sg63
g3817
sg56
(lp3833
g49
(g50
g51
NtRp3834
(dp3835
g54
(dp3836
g62
I5
ssg63
g3830
sg56
(lp3837
S''
asbasbasbag49
(g65
g51
NtRp3838
(dp3839
g54
(dp3840
sg63
g3423
sg56
(lp3841
g49
(g70
g51
NtRp3842
(dp3843
g54
(dp3844
g74
g75
ssg63
g3838
sg56
(lp3845
S'generic_patterns'
p3846
asbag49
(g70
g51
NtRp3847
(dp3848
g54
(dp3849
g81
g82
ssg63
g3838
sg56
(lp3850
S':'
asbag49
(g70
g51
NtRp3851
(dp3852
g54
(dp3853
sg63
g3838
sg56
(lp3854
g49
(g50
g51
NtRp3855
(dp3856
g54
(dp3857
g62
I5
ssg63
g3851
sg56
(lp3858
g49
(g58
g51
NtRp3859
(dp3860
g54
(dp3861
g62
I4
ssg63
Nsg56
(lp3862
sbasbasbasbag49
(g65
g51
NtRp3863
(dp3864
g54
(dp3865
sg63
g3423
sg56
(lp3866
g49
(g70
g51
NtRp3867
(dp3868
g54
(dp3869
g74
g75
ssg63
g3863
sg56
(lp3870
S'headers'
p3871
asbag49
(g70
g51
NtRp3872
(dp3873
g54
(dp3874
g81
g82
ssg63
g3863
sg56
(lp3875
S':'
asbag49
(g70
g51
NtRp3876
(dp3877
g54
(dp3878
sg63
g3863
sg56
(lp3879
g49
(g50
g51
NtRp3880
(dp3881
g54
(dp3882
g62
I5
ssg63
g3876
sg56
(lp3883
g49
(g58
g51
NtRp3884
(dp3885
g54
(dp3886
g62
I4
ssg63
Nsg56
(lp3887
g49
(g65
g51
NtRp3888
(dp3889
g54
(dp3890
sg63
g3884
sg56
(lp3891
g49
(g70
g51
NtRp3892
(dp3893
g54
(dp3894
g74
g75
ssg63
g3888
sg56
(lp3895
S'Cache-Control'
p3896
asbag49
(g70
g51
NtRp3897
(dp3898
g54
(dp3899
g81
g82
ssg63
g3888
sg56
(lp3900
S':'
asbag49
(g70
g51
NtRp3901
(dp3902
g54
(dp3903
sg63
g3888
sg56
(lp3904
g49
(g50
g51
NtRp3905
(dp3906
g54
(dp3907
g62
I4
ssg63
g3901
sg56
(lp3908
S'no-store, no-cache, must-revalidate, post-check=0, pre-check=0'
p3909
asbasbasbag49
(g65
g51
NtRp3910
(dp3911
g54
(dp3912
sg63
g3884
sg56
(lp3913
g49
(g70
g51
NtRp3914
(dp3915
g54
(dp3916
g74
g75
ssg63
g3910
sg56
(lp3917
S'Content-Type'
p3918
asbag49
(g70
g51
NtRp3919
(dp3920
g54
(dp3921
g81
g82
ssg63
g3910
sg56
(lp3922
S':'
asbag49
(g70
g51
NtRp3923
(dp3924
g54
(dp3925
sg63
g3910
sg56
(lp3926
g49
(g50
g51
NtRp3927
(dp3928
g54
(dp3929
g62
I4
ssg63
g3923
sg56
(lp3930
S'text/html; charset=utf-8'
p3931
asbasbasbag49
(g65
g51
NtRp3932
(dp3933
g54
(dp3934
sg63
g3884
sg56
(lp3935
g49
(g70
g51
NtRp3936
(dp3937
g54
(dp3938
g74
g75
ssg63
g3932
sg56
(lp3939
S'Expires'
p3940
asbag49
(g70
g51
NtRp3941
(dp3942
g54
(dp3943
g81
g82
ssg63
g3932
sg56
(lp3944
S':'
asbag49
(g70
g51
NtRp3945
(dp3946
g54
(dp3947
sg63
g3932
sg56
(lp3948
g49
(g50
g51
NtRp3949
(dp3950
g54
(dp3951
g62
I4
ssg63
g3945
sg56
(lp3952
S'Sat, 28 Jul 2012 19:06:32 GMT'
p3953
asbasbasbag49
(g65
g51
NtRp3954
(dp3955
g54
(dp3956
sg63
g3884
sg56
(lp3957
g49
(g70
g51
NtRp3958
(dp3959
g54
(dp3960
g74
g75
ssg63
g3954
sg56
(lp3961
S'Pragma'
p3962
asbag49
(g70
g51
NtRp3963
(dp3964
g54
(dp3965
g81
g82
ssg63
g3954
sg56
(lp3966
S':'
asbag49
(g70
g51
NtRp3967
(dp3968
g54
(dp3969
sg63
g3954
sg56
(lp3970
g49
(g50
g51
NtRp3971
(dp3972
g54
(dp3973
g62
I4
ssg63
g3967
sg56
(lp3974
S'no-cache'
p3975
asbasbasbag49
(g65
g51
NtRp3976
(dp3977
g54
(dp3978
sg63
g3884
sg56
(lp3979
g49
(g70
g51
NtRp3980
(dp3981
g54
(dp3982
g74
g75
ssg63
g3976
sg56
(lp3983
S'X-Powered-By'
p3984
asbag49
(g70
g51
NtRp3985
(dp3986
g54
(dp3987
g81
g82
ssg63
g3976
sg56
(lp3988
S':'
asbag49
(g70
g51
NtRp3989
(dp3990
g54
(dp3991
sg63
g3976
sg56
(lp3992
g49
(g50
g51
NtRp3993
(dp3994
g54
(dp3995
g62
I4
ssg63
g3989
sg56
(lp3996
S'web2py'
p3997
asbasbasbasbasbasbasbag49
(g65
g51
NtRp3998
(dp3999
g54
(dp4000
sg63
g3423
sg56
(lp4001
g49
(g70
g51
NtRp4002
(dp4003
g54
(dp4004
g74
g75
ssg63
g3998
sg56
(lp4005
S'menu'
p4006
asbag49
(g70
g51
NtRp4007
(dp4008
g54
(dp4009
g81
g82
ssg63
g3998
sg56
(lp4010
S':'
asbag49
(g70
g51
NtRp4011
(dp4012
g54
(dp4013
sg63
g3998
sg56
(lp4014
g49
(g50
g51
NtRp4015
(dp4016
g54
(dp4017
g62
I5
ssg63
g4011
sg56
(lp4018
g49
(g58
g51
NtRp4019
(dp4020
g54
(dp4021
g62
I4
ssg63
Nsg56
(lp4022
g49
(g65
g51
NtRp4023
(dp4024
g54
(dp4025
sg63
g4019
sg56
(lp4026
g49
(g70
g51
NtRp4027
(dp4028
g54
(dp4029
sg63
g4023
sg56
(lp4030
g49
(g50
g51
NtRp4031
(dp4032
g54
(dp4033
g62
I4
ssg63
g4027
sg56
(lp4034
g49
(g58
g51
NtRp4035
(dp4036
g54
(dp4037
g62
I3
ssg63
Nsg56
(lp4038
g49
(g65
g51
NtRp4039
(dp4040
g54
(dp4041
sg63
g4035
sg56
(lp4042
g49
(g70
g51
NtRp4043
(dp4044
g54
(dp4045
sg63
g4039
sg56
(lp4046
g49
(g50
g51
NtRp4047
(dp4048
g54
(dp4049
g62
I3
ssg63
g4043
sg56
(lp4050
cgluon.languages
lazyT_unpickle
p4051
(S't\x04\x00\x00\x00Home'
tRp4052
asbasbasbag49
(g65
g51
NtRp4053
(dp4054
g54
(dp4055
sg63
g4035
sg56
(lp4056
g49
(g70
g51
NtRp4057
(dp4058
g54
(dp4059
sg63
g4053
sg56
(lp4060
g49
(g50
g51
NtRp4061
(dp4062
g54
(dp4063
g62
I3
ssg63
g4057
sg56
(lp4064
g92
asbasbasbag49
(g65
g51
NtRp4065
(dp4066
g54
(dp4067
sg63
g4035
sg56
(lp4068
g49
(g70
g51
NtRp4069
(dp4070
g54
(dp4071
sg63
g4065
sg56
(lp4072
g49
(g50
g51
NtRp4073
(dp4074
g54
(dp4075
g62
I3
ssg63
g4069
sg56
(lp4076
S'/unioeste_code/default/index'
p4077
asbasbasbag49
(g65
g51
NtRp4078
(dp4079
g54
(dp4080
sg63
g4035
sg56
(lp4081
g49
(g70
g51
NtRp4082
(dp4083
g54
(dp4084
sg63
g4078
sg56
(lp4085
g49
(g50
g51
NtRp4086
(dp4087
g54
(dp4088
g62
I3
ssg63
g4082
sg56
(lp4089
g49
(g58
g51
NtRp4090
(dp4091
g54
(dp4092
g62
I2
ssg63
Nsg56
(lp4093
sbasbasbasbasbasbasbasbag49
(g65
g51
NtRp4094
(dp4095
g54
(dp4096
sg63
g4019
sg56
(lp4097
g49
(g70
g51
NtRp4098
(dp4099
g54
(dp4100
sg63
g4094
sg56
(lp4101
g49
(g50
g51
NtRp4102
(dp4103
g54
(dp4104
g62
I4
ssg63
g4098
sg56
(lp4105
g49
(g58
g51
NtRp4106
(dp4107
g54
(dp4108
g62
I3
ssg63
Nsg56
(lp4109
g49
(g65
g51
NtRp4110
(dp4111
g54
(dp4112
sg63
g4106
sg56
(lp4113
g49
(g70
g51
NtRp4114
(dp4115
g54
(dp4116
sg63
g4110
sg56
(lp4117
g49
(g50
g51
NtRp4118
(dp4119
g54
(dp4120
g62
I3
ssg63
g4114
sg56
(lp4121
g49
(cgluon.html
SPAN
p4122
g51
NtRp4123
(dp4124
g54
(dp4125
g74
S'color:yellow'
p4126
ssg63
g49
(cgluon.html
A
p4127
g51
NtRp4128
(dp4129
g54
(dp4130
S'_onclick'
p4131
S'javascript:void(0);return false;'
p4132
sS'_href'
p4133
S'#'
ssg63
g49
(cgluon.html
LI
p4134
g51
NtRp4135
(dp4136
g54
(dp4137
S'_class'
p4138
S'web2py-menu-expand'
p4139
ssg63
g49
(cgluon.html
UL
p4140
g51
NtRp4141
(dp4142
g54
(dp4143
S'mobile'
p4144
I00
sS'li_class'
p4145
g4139
sg4138
S'sf-menu'
p4146
sS'ul_class'
p4147
S'web2py-menu-vertical'
p4148
sS'li_active'
p4149
S'web2py-menu-active'
p4150
ssg63
Nsg56
(lp4151
g49
(g4134
g51
NtRp4152
(dp4153
g54
(dp4154
sg63
g4141
sg56
(lp4155
g49
(g4127
g51
NtRp4156
(dp4157
g54
(dp4158
g4133
g4077
ssg63
g4152
sg56
(lp4159
g4052
asbasbag4135
asbsg56
(lp4160
g4128
ag49
(g4140
g51
NtRp4161
(dp4162
g54
(dp4163
g4138
g4148
ssg63
g4135
sg56
(lp4164
g49
(g4134
g51
NtRp4165
(dp4166
g54
(dp4167
sg63
g4161
sg56
(lp4168
g49
(g4127
g51
NtRp4169
(dp4170
g54
(dp4171
g4133
S'/admin/default/site'
p4172
ssg63
g4165
sg56
(lp4173
g4051
(S's\x08\x00\x00\x00My Sites'
tRp4174
asbasbag49
(g4134
g51
NtRp4175
(dp4176
g54
(dp4177
g4138
g4139
ssg63
g4161
sg56
(lp4178
g49
(g4127
g51
NtRp4179
(dp4180
g54
(dp4181
g4133
S'/admin/default/design/unioeste_code'
p4182
ssg63
g4175
sg56
(lp4183
g4051
(S's\x08\x00\x00\x00This App'
tRp4184
asbag49
(g4140
g51
NtRp4185
(dp4186
g54
(dp4187
g4138
g4148
ssg63
g4175
sg56
(lp4188
g49
(g4134
g51
NtRp4189
(dp4190
g54
(dp4191
sg63
g4185
sg56
(lp4192
g49
(g4127
g51
NtRp4193
(dp4194
g54
(dp4195
g4133
S'/admin/default/edit/unioeste_code/controllers/default.py'
p4196
ssg63
g4189
sg56
(lp4197
g4051
(S't\x0b\x00\x00\x00Controlador'
tRp4198
asbasbag49
(g4134
g51
NtRp4199
(dp4200
g54
(dp4201
sg63
g4185
sg56
(lp4202
g49
(g4127
g51
NtRp4203
(dp4204
g54
(dp4205
g4133
S'/admin/default/edit/unioeste_code/views/default/showProblem.html'
p4206
ssg63
g4199
sg56
(lp4207
g4051
(S's\x0e\x00\x00\x00Visualiza\xc3\xa7\xc3\xa3o'
tRp4208
asbasbag49
(g4134
g51
NtRp4209
(dp4210
g54
(dp4211
sg63
g4185
sg56
(lp4212
g49
(g4127
g51
NtRp4213
(dp4214
g54
(dp4215
g4133
S'/admin/default/edit/unioeste_code/views/layout.html'
p4216
ssg63
g4209
sg56
(lp4217
g4051
(S't\x06\x00\x00\x00Layout'
tRp4218
asbasbag49
(g4134
g51
NtRp4219
(dp4220
g54
(dp4221
sg63
g4185
sg56
(lp4222
g49
(g4127
g51
NtRp4223
(dp4224
g54
(dp4225
g4133
S'/admin/default/edit/unioeste_code/static/css/web2py.css'
p4226
ssg63
g4219
sg56
(lp4227
g4051
(S't\n\x00\x00\x00Stylesheet'
tRp4228
asbasbag49
(g4134
g51
NtRp4229
(dp4230
g54
(dp4231
sg63
g4185
sg56
(lp4232
g49
(g4127
g51
NtRp4233
(dp4234
g54
(dp4235
g4133
S'/admin/default/edit/unioeste_code/models/db.py'
p4236
ssg63
g4229
sg56
(lp4237
g4051
(S's\t\x00\x00\x00Modelo BD'
tRp4238
asbasbag49
(g4134
g51
NtRp4239
(dp4240
g54
(dp4241
sg63
g4185
sg56
(lp4242
g49
(g4127
g51
NtRp4243
(dp4244
g54
(dp4245
g4133
S'/admin/default/edit/unioeste_code/models/menu.py'
p4246
ssg63
g4239
sg56
(lp4247
g4051
(S's\x0e\x00\x00\x00Modelo de Menu'
tRp4248
asbasbag49
(g4134
g51
NtRp4249
(dp4250
g54
(dp4251
sg63
g4185
sg56
(lp4252
g49
(g4127
g51
NtRp4253
(dp4254
g54
(dp4255
g4133
S'/unioeste_code/appadmin/index'
p4256
ssg63
g4249
sg56
(lp4257
g4051
(S's\x0e\x00\x00\x00Banco de dados'
tRp4258
asbasbag49
(g4134
g51
NtRp4259
(dp4260
g54
(dp4261
sg63
g4185
sg56
(lp4262
g49
(g4127
g51
NtRp4263
(dp4264
g54
(dp4265
g4133
S'/admin/default/errors/unioeste_code'
p4266
ssg63
g4259
sg56
(lp4267
g4051
(S't\x06\x00\x00\x00Errors'
tRp4268
asbasbag49
(g4134
g51
NtRp4269
(dp4270
g54
(dp4271
sg63
g4185
sg56
(lp4272
g49
(g4127
g51
NtRp4273
(dp4274
g54
(dp4275
g4133
S'/admin/default/about/unioeste_code'
p4276
ssg63
g4269
sg56
(lp4277
g4051
(S't\x05\x00\x00\x00About'
tRp4278
asbasbasbasbag49
(g4134
g51
NtRp4279
(dp4280
g54
(dp4281
g4138
g4139
ssg63
g4161
sg56
(lp4282
g49
(g4127
g51
NtRp4283
(dp4284
g54
(dp4285
g4133
S'http://www.web2py.com'
p4286
ssg63
g4279
sg56
(lp4287
S'web2py.com'
p4288
asbag49
(g4140
g51
NtRp4289
(dp4290
g54
(dp4291
g4138
g4148
ssg63
g4279
sg56
(lp4292
g49
(g4134
g51
NtRp4293
(dp4294
g54
(dp4295
sg63
g4289
sg56
(lp4296
g49
(g4127
g51
NtRp4297
(dp4298
g54
(dp4299
g4133
S'http://www.web2py.com/examples/default/download'
p4300
ssg63
g4293
sg56
(lp4301
g4051
(S't\x08\x00\x00\x00Download'
tRp4302
asbasbag49
(g4134
g51
NtRp4303
(dp4304
g54
(dp4305
sg63
g4289
sg56
(lp4306
g49
(g4127
g51
NtRp4307
(dp4308
g54
(dp4309
g4133
S'http://www.web2py.com/examples/default/support'
p4310
ssg63
g4303
sg56
(lp4311
g4051
(S't\x07\x00\x00\x00Support'
tRp4312
asbasbag49
(g4134
g51
NtRp4313
(dp4314
g54
(dp4315
sg63
g4289
sg56
(lp4316
g49
(g4127
g51
NtRp4317
(dp4318
g54
(dp4319
g4133
S'http://web2py.com/demo_admin'
p4320
ssg63
g4313
sg56
(lp4321
g4051
(S't\x04\x00\x00\x00Demo'
tRp4322
asbasbag49
(g4134
g51
NtRp4323
(dp4324
g54
(dp4325
sg63
g4289
sg56
(lp4326
g49
(g4127
g51
NtRp4327
(dp4328
g54
(dp4329
g4133
S'http://web2py.com/examples/default/examples'
p4330
ssg63
g4323
sg56
(lp4331
g4051
(S's\x0e\x00\x00\x00Quick Examples'
tRp4332
asbasbag49
(g4134
g51
NtRp4333
(dp4334
g54
(dp4335
sg63
g4289
sg56
(lp4336
g49
(g4127
g51
NtRp4337
(dp4338
g54
(dp4339
g4133
S'http://web2py.com/AlterEgo'
p4340
ssg63
g4333
sg56
(lp4341
g4051
(S't\x03\x00\x00\x00FAQ'
tRp4342
asbasbag49
(g4134
g51
NtRp4343
(dp4344
g54
(dp4345
sg63
g4289
sg56
(lp4346
g49
(g4127
g51
NtRp4347
(dp4348
g54
(dp4349
g4133
S'http://www.web2py.com/examples/default/videos/'
p4350
ssg63
g4343
sg56
(lp4351
g4051
(S't\x06\x00\x00\x00Videos'
tRp4352
asbasbag49
(g4134
g51
NtRp4353
(dp4354
g54
(dp4355
sg63
g4289
sg56
(lp4356
g49
(g4127
g51
NtRp4357
(dp4358
g54
(dp4359
g4133
S'http://web2py.com/appliances'
p4360
ssg63
g4353
sg56
(lp4361
g4051
(S's\x11\x00\x00\x00Free Applications'
tRp4362
asbasbag49
(g4134
g51
NtRp4363
(dp4364
g54
(dp4365
sg63
g4289
sg56
(lp4366
g49
(g4127
g51
NtRp4367
(dp4368
g54
(dp4369
g4133
S'http://web2py.com/plugins'
p4370
ssg63
g4363
sg56
(lp4371
g4051
(S't\x07\x00\x00\x00Plugins'
tRp4372
asbasbag49
(g4134
g51
NtRp4373
(dp4374
g54
(dp4375
sg63
g4289
sg56
(lp4376
g49
(g4127
g51
NtRp4377
(dp4378
g54
(dp4379
g4133
S'http://web2py.com/layouts'
p4380
ssg63
g4373
sg56
(lp4381
g4051
(S't\x07\x00\x00\x00Layouts'
tRp4382
asbasbag49
(g4134
g51
NtRp4383
(dp4384
g54
(dp4385
sg63
g4289
sg56
(lp4386
g49
(g4127
g51
NtRp4387
(dp4388
g54
(dp4389
g4133
S'http://web2pyslices.com/'
p4390
ssg63
g4383
sg56
(lp4391
g4051
(S't\x07\x00\x00\x00Recipes'
tRp4392
asbasbag49
(g4134
g51
NtRp4393
(dp4394
g54
(dp4395
sg63
g4289
sg56
(lp4396
g49
(g4127
g51
NtRp4397
(dp4398
g54
(dp4399
g4133
S'http://web2py.com/semantic'
p4400
ssg63
g4393
sg56
(lp4401
g4051
(S't\x08\x00\x00\x00Semantic'
tRp4402
asbasbasbasbag49
(g4134
g51
NtRp4403
(dp4404
g54
(dp4405
g4138
g4139
ssg63
g4161
sg56
(lp4406
g49
(g4127
g51
NtRp4407
(dp4408
g54
(dp4409
g4133
S'http://www.web2py.com/book'
p4410
ssg63
g4403
sg56
(lp4411
g4051
(S't\r\x00\x00\x00Documentation'
tRp4412
asbag49
(g4140
g51
NtRp4413
(dp4414
g54
(dp4415
g4138
g4148
ssg63
g4403
sg56
(lp4416
g49
(g4134
g51
NtRp4417
(dp4418
g54
(dp4419
sg63
g4413
sg56
(lp4420
g49
(g4127
g51
NtRp4421
(dp4422
g54
(dp4423
g4133
S'http://www.web2py.com/book/default/chapter/00'
p4424
ssg63
g4417
sg56
(lp4425
g4051
(S't\x07\x00\x00\x00Preface'
tRp4426
asbasbag49
(g4134
g51
NtRp4427
(dp4428
g54
(dp4429
sg63
g4413
sg56
(lp4430
g49
(g4127
g51
NtRp4431
(dp4432
g54
(dp4433
g4133
S'http://www.web2py.com/book/default/chapter/01'
p4434
ssg63
g4427
sg56
(lp4435
g4051
(S't\x0c\x00\x00\x00Introduction'
tRp4436
asbasbag49
(g4134
g51
NtRp4437
(dp4438
g54
(dp4439
sg63
g4413
sg56
(lp4440
g49
(g4127
g51
NtRp4441
(dp4442
g54
(dp4443
g4133
S'http://www.web2py.com/book/default/chapter/02'
p4444
ssg63
g4437
sg56
(lp4445
g4051
(S't\x06\x00\x00\x00Python'
tRp4446
asbasbag49
(g4134
g51
NtRp4447
(dp4448
g54
(dp4449
sg63
g4413
sg56
(lp4450
g49
(g4127
g51
NtRp4451
(dp4452
g54
(dp4453
g4133
S'http://www.web2py.com/book/default/chapter/03'
p4454
ssg63
g4447
sg56
(lp4455
g4051
(S't\x08\x00\x00\x00Overview'
tRp4456
asbasbag49
(g4134
g51
NtRp4457
(dp4458
g54
(dp4459
sg63
g4413
sg56
(lp4460
g49
(g4127
g51
NtRp4461
(dp4462
g54
(dp4463
g4133
S'http://www.web2py.com/book/default/chapter/04'
p4464
ssg63
g4457
sg56
(lp4465
g4051
(S's\x08\x00\x00\x00The Core'
tRp4466
asbasbag49
(g4134
g51
NtRp4467
(dp4468
g54
(dp4469
sg63
g4413
sg56
(lp4470
g49
(g4127
g51
NtRp4471
(dp4472
g54
(dp4473
g4133
S'http://www.web2py.com/book/default/chapter/05'
p4474
ssg63
g4467
sg56
(lp4475
g4051
(S's\t\x00\x00\x00The Views'
tRp4476
asbasbag49
(g4134
g51
NtRp4477
(dp4478
g54
(dp4479
sg63
g4413
sg56
(lp4480
g49
(g4127
g51
NtRp4481
(dp4482
g54
(dp4483
g4133
S'http://www.web2py.com/book/default/chapter/06'
p4484
ssg63
g4477
sg56
(lp4485
g4051
(S's\x0e\x00\x00\x00Banco de dados'
tRp4486
asbasbag49
(g4134
g51
NtRp4487
(dp4488
g54
(dp4489
sg63
g4413
sg56
(lp4490
g49
(g4127
g51
NtRp4491
(dp4492
g54
(dp4493
g4133
S'http://www.web2py.com/book/default/chapter/07'
p4494
ssg63
g4487
sg56
(lp4495
g4051
(S's\x14\x00\x00\x00Forms and Validators'
tRp4496
asbasbag49
(g4134
g51
NtRp4497
(dp4498
g54
(dp4499
sg63
g4413
sg56
(lp4500
g49
(g4127
g51
NtRp4501
(dp4502
g54
(dp4503
g4133
S'http://www.web2py.com/book/default/chapter/08'
p4504
ssg63
g4497
sg56
(lp4505
g4051
(S's\r\x00\x00\x00Email and SMS'
tRp4506
asbasbag49
(g4134
g51
NtRp4507
(dp4508
g54
(dp4509
sg63
g4413
sg56
(lp4510
g49
(g4127
g51
NtRp4511
(dp4512
g54
(dp4513
g4133
S'http://www.web2py.com/book/default/chapter/09'
p4514
ssg63
g4507
sg56
(lp4515
g4051
(S's\x0e\x00\x00\x00Access Control'
tRp4516
asbasbag49
(g4134
g51
NtRp4517
(dp4518
g54
(dp4519
sg63
g4413
sg56
(lp4520
g49
(g4127
g51
NtRp4521
(dp4522
g54
(dp4523
g4133
S'http://www.web2py.com/book/default/chapter/10'
p4524
ssg63
g4517
sg56
(lp4525
g4051
(S't\x08\x00\x00\x00Services'
tRp4526
asbasbag49
(g4134
g51
NtRp4527
(dp4528
g54
(dp4529
sg63
g4413
sg56
(lp4530
g49
(g4127
g51
NtRp4531
(dp4532
g54
(dp4533
g4133
S'http://www.web2py.com/book/default/chapter/11'
p4534
ssg63
g4527
sg56
(lp4535
g4051
(S's\x0c\x00\x00\x00Ajax Recipes'
tRp4536
asbasbag49
(g4134
g51
NtRp4537
(dp4538
g54
(dp4539
sg63
g4413
sg56
(lp4540
g49
(g4127
g51
NtRp4541
(dp4542
g54
(dp4543
g4133
S'http://www.web2py.com/book/default/chapter/12'
p4544
ssg63
g4537
sg56
(lp4545
g4051
(S's\x16\x00\x00\x00Components and Plugins'
tRp4546
asbasbag49
(g4134
g51
NtRp4547
(dp4548
g54
(dp4549
sg63
g4413
sg56
(lp4550
g49
(g4127
g51
NtRp4551
(dp4552
g54
(dp4553
g4133
S'http://www.web2py.com/book/default/chapter/13'
p4554
ssg63
g4547
sg56
(lp4555
g4051
(S's\x12\x00\x00\x00Deployment Recipes'
tRp4556
asbasbag49
(g4134
g51
NtRp4557
(dp4558
g54
(dp4559
sg63
g4413
sg56
(lp4560
g49
(g4127
g51
NtRp4561
(dp4562
g54
(dp4563
g4133
S'http://www.web2py.com/book/default/chapter/14'
p4564
ssg63
g4557
sg56
(lp4565
g4051
(S's\r\x00\x00\x00Other Recipes'
tRp4566
asbasbag49
(g4134
g51
NtRp4567
(dp4568
g54
(dp4569
sg63
g4413
sg56
(lp4570
g49
(g4127
g51
NtRp4571
(dp4572
g54
(dp4573
g4133
S'http://stores.lulu.com/web2py'
p4574
ssg63
g4567
sg56
(lp4575
g4051
(S's\r\x00\x00\x00Buy this book'
tRp4576
asbasbasbasbag49
(g4134
g51
NtRp4577
(dp4578
g54
(dp4579
g4138
g4139
ssg63
g4161
sg56
(lp4580
g49
(g4127
g51
NtRp4581
(dp4582
g54
(dp4583
g4131
g4132
sg4133
S'#'
ssg63
g4577
sg56
(lp4584
g4051
(S't\t\x00\x00\x00Community'
tRp4585
asbag49
(g4140
g51
NtRp4586
(dp4587
g54
(dp4588
g4138
g4148
ssg63
g4577
sg56
(lp4589
g49
(g4134
g51
NtRp4590
(dp4591
g54
(dp4592
sg63
g4586
sg56
(lp4593
g49
(g4127
g51
NtRp4594
(dp4595
g54
(dp4596
g4133
S'http://www.web2py.com/examples/default/usergroups'
p4597
ssg63
g4590
sg56
(lp4598
g4051
(S't\x06\x00\x00\x00Groups'
tRp4599
asbasbag49
(g4134
g51
NtRp4600
(dp4601
g54
(dp4602
sg63
g4586
sg56
(lp4603
g49
(g4127
g51
NtRp4604
(dp4605
g54
(dp4606
g4133
S'http://twitter.com/web2py'
p4607
ssg63
g4600
sg56
(lp4608
g4051
(S't\x07\x00\x00\x00Twitter'
tRp4609
asbasbag49
(g4134
g51
NtRp4610
(dp4611
g54
(dp4612
sg63
g4586
sg56
(lp4613
g49
(g4127
g51
NtRp4614
(dp4615
g54
(dp4616
g4133
S'http://webchat.freenode.net/?channels=web2py'
p4617
ssg63
g4610
sg56
(lp4618
g4051
(S's\t\x00\x00\x00Live Chat'
tRp4619
asbasbasbasbag49
(g4134
g51
NtRp4620
(dp4621
g54
(dp4622
g4138
g4139
ssg63
g4161
sg56
(lp4623
g49
(g4127
g51
NtRp4624
(dp4625
g54
(dp4626
g4131
g4132
sg4133
S'#'
ssg63
g4620
sg56
(lp4627
g4051
(S't\x07\x00\x00\x00Plugins'
tRp4628
asbag49
(g4140
g51
NtRp4629
(dp4630
g54
(dp4631
g4138
g4148
ssg63
g4620
sg56
(lp4632
g49
(g4134
g51
NtRp4633
(dp4634
g54
(dp4635
sg63
g4629
sg56
(lp4636
g49
(g4127
g51
NtRp4637
(dp4638
g54
(dp4639
g4133
S'http://web2py.com/examples/default/download'
p4640
ssg63
g4633
sg56
(lp4641
S'plugin_wiki'
p4642
asbasbag49
(g4134
g51
NtRp4643
(dp4644
g54
(dp4645
sg63
g4629
sg56
(lp4646
g49
(g4127
g51
NtRp4647
(dp4648
g54
(dp4649
g4133
g4370
ssg63
g4643
sg56
(lp4650
g4051
(S's\r\x00\x00\x00Other Plugins'
tRp4651
asbasbag49
(g4134
g51
NtRp4652
(dp4653
g54
(dp4654
sg63
g4629
sg56
(lp4655
g49
(g4127
g51
NtRp4656
(dp4657
g54
(dp4658
g4133
g4380
ssg63
g4652
sg56
(lp4659
g4051
(S's\x0e\x00\x00\x00Layout Plugins'
tRp4660
asbasbasbasbasbasbsg56
(lp4661
g4123
asbsg56
(lp4662
g3997
asbasbasbasbag49
(g65
g51
NtRp4663
(dp4664
g54
(dp4665
sg63
g4106
sg56
(lp4666
g49
(g70
g51
NtRp4667
(dp4668
g54
(dp4669
sg63
g4663
sg56
(lp4670
g49
(g50
g51
NtRp4671
(dp4672
g54
(dp4673
g62
I3
ssg63
g4667
sg56
(lp4674
g92
asbasbasbag49
(g65
g51
NtRp4675
(dp4676
g54
(dp4677
sg63
g4106
sg56
(lp4678
g49
(g70
g51
NtRp4679
(dp4680
g54
(dp4681
sg63
g4675
sg56
(lp4682
g49
(g50
g51
NtRp4683
(dp4684
g54
(dp4685
g62
I3
ssg63
g4679
sg56
(lp4686
S'None'
p4687
asbasbasbag49
(g65
g51
NtRp4688
(dp4689
g54
(dp4690
sg63
g4106
sg56
(lp4691
g49
(g70
g51
NtRp4692
(dp4693
g54
(dp4694
sg63
g4688
sg56
(lp4695
g49
(g50
g51
NtRp4696
(dp4697
g54
(dp4698
g62
I3
ssg63
g4692
sg56
(lp4699
g49
(g58
g51
NtRp4700
(dp4701
g54
(dp4702
g62
I2
ssg63
Nsg56
(lp4703
g49
(g65
g51
NtRp4704
(dp4705
g54
(dp4706
sg63
g4700
sg56
(lp4707
g49
(g70
g51
NtRp4708
(dp4709
g54
(dp4710
sg63
g4704
sg56
(lp4711
g49
(g50
g51
NtRp4712
(dp4713
g54
(dp4714
g62
I2
ssg63
g4708
sg56
(lp4715
g49
(g58
g51
NtRp4716
(dp4717
g54
(dp4718
g62
I1
ssg63
Nsg56
(lp4719
g49
(g65
g51
NtRp4720
(dp4721
g54
(dp4722
sg63
g4716
sg56
(lp4723
g49
(g70
g51
NtRp4724
(dp4725
g54
(dp4726
sg63
g4720
sg56
(lp4727
g49
(g50
g51
NtRp4728
(dp4729
g54
(dp4730
g62
I1
ssg63
g4724
sg56
(lp4731
g4174
asbasbasbag49
(g65
g51
NtRp4732
(dp4733
g54
(dp4734
sg63
g4716
sg56
(lp4735
g49
(g70
g51
NtRp4736
(dp4737
g54
(dp4738
sg63
g4732
sg56
(lp4739
g49
(g50
g51
NtRp4740
(dp4741
g54
(dp4742
g62
I1
ssg63
g4736
sg56
(lp4743
I00
asbasbasbag49
(g65
g51
NtRp4744
(dp4745
g54
(dp4746
sg63
g4716
sg56
(lp4747
g49
(g70
g51
NtRp4748
(dp4749
g54
(dp4750
sg63
g4744
sg56
(lp4751
g49
(g50
g51
NtRp4752
(dp4753
g54
(dp4754
g62
I1
ssg63
g4748
sg56
(lp4755
g4172
asbasbasbasbasbasbasbag49
(g65
g51
NtRp4756
(dp4757
g54
(dp4758
sg63
g4700
sg56
(lp4759
g49
(g70
g51
NtRp4760
(dp4761
g54
(dp4762
sg63
g4756
sg56
(lp4763
g49
(g50
g51
NtRp4764
(dp4765
g54
(dp4766
g62
I2
ssg63
g4760
sg56
(lp4767
g49
(g58
g51
NtRp4768
(dp4769
g54
(dp4770
g62
I1
ssg63
Nsg56
(lp4771
g49
(g65
g51
NtRp4772
(dp4773
g54
(dp4774
sg63
g4768
sg56
(lp4775
g49
(g70
g51
NtRp4776
(dp4777
g54
(dp4778
sg63
g4772
sg56
(lp4779
g49
(g50
g51
NtRp4780
(dp4781
g54
(dp4782
g62
I1
ssg63
g4776
sg56
(lp4783
g4184
asbasbasbag49
(g65
g51
NtRp4784
(dp4785
g54
(dp4786
sg63
g4768
sg56
(lp4787
g49
(g70
g51
NtRp4788
(dp4789
g54
(dp4790
sg63
g4784
sg56
(lp4791
g49
(g50
g51
NtRp4792
(dp4793
g54
(dp4794
g62
I1
ssg63
g4788
sg56
(lp4795
I00
asbasbasbag49
(g65
g51
NtRp4796
(dp4797
g54
(dp4798
sg63
g4768
sg56
(lp4799
g49
(g70
g51
NtRp4800
(dp4801
g54
(dp4802
sg63
g4796
sg56
(lp4803
g49
(g50
g51
NtRp4804
(dp4805
g54
(dp4806
g62
I1
ssg63
g4800
sg56
(lp4807
g4182
asbasbasbag49
(g65
g51
NtRp4808
(dp4809
g54
(dp4810
sg63
g4768
sg56
(lp4811
g49
(g70
g51
NtRp4812
(dp4813
g54
(dp4814
sg63
g4808
sg56
(lp4815
g49
(g50
g51
NtRp4816
(dp4817
g54
(dp4818
g62
I1
ssg63
g4812
sg56
(lp4819
(lp4820
(g4198
I00
g4196
tp4821
a(g4208
I00
g4206
tp4822
a(g4218
I00
g4216
tp4823
a(g4228
I00
g4226
tp4824
a(g4238
I00
g4236
tp4825
a(g4248
I00
g4246
tp4826
a(g4258
I00
g4256
tp4827
a(g4268
I00
g4266
tp4828
a(g4278
I00
g4276
tp4829
aasbasbasbasbasbasbasbag49
(g65
g51
NtRp4830
(dp4831
g54
(dp4832
sg63
g4700
sg56
(lp4833
g49
(g70
g51
NtRp4834
(dp4835
g54
(dp4836
sg63
g4830
sg56
(lp4837
g49
(g50
g51
NtRp4838
(dp4839
g54
(dp4840
g62
I2
ssg63
g4834
sg56
(lp4841
g49
(g58
g51
NtRp4842
(dp4843
g54
(dp4844
g62
I1
ssg63
Nsg56
(lp4845
g49
(g65
g51
NtRp4846
(dp4847
g54
(dp4848
sg63
g4842
sg56
(lp4849
g49
(g70
g51
NtRp4850
(dp4851
g54
(dp4852
sg63
g4846
sg56
(lp4853
g49
(g50
g51
NtRp4854
(dp4855
g54
(dp4856
g62
I1
ssg63
g4850
sg56
(lp4857
g4288
asbasbasbag49
(g65
g51
NtRp4858
(dp4859
g54
(dp4860
sg63
g4842
sg56
(lp4861
g49
(g70
g51
NtRp4862
(dp4863
g54
(dp4864
sg63
g4858
sg56
(lp4865
g49
(g50
g51
NtRp4866
(dp4867
g54
(dp4868
g62
I1
ssg63
g4862
sg56
(lp4869
I00
asbasbasbag49
(g65
g51
NtRp4870
(dp4871
g54
(dp4872
sg63
g4842
sg56
(lp4873
g49
(g70
g51
NtRp4874
(dp4875
g54
(dp4876
sg63
g4870
sg56
(lp4877
g49
(g50
g51
NtRp4878
(dp4879
g54
(dp4880
g62
I1
ssg63
g4874
sg56
(lp4881
g4286
asbasbasbag49
(g65
g51
NtRp4882
(dp4883
g54
(dp4884
sg63
g4842
sg56
(lp4885
g49
(g70
g51
NtRp4886
(dp4887
g54
(dp4888
sg63
g4882
sg56
(lp4889
g49
(g50
g51
NtRp4890
(dp4891
g54
(dp4892
g62
I1
ssg63
g4886
sg56
(lp4893
(lp4894
(g4302
I00
g4300
tp4895
a(g4312
I00
g4310
tp4896
a(g4322
I00
g4320
tp4897
a(g4332
I00
g4330
tp4898
a(g4342
I00
g4340
tp4899
a(g4352
I00
g4350
tp4900
a(g4362
I00
g4360
tp4901
a(g4372
I00
g4370
tp4902
a(g4382
I00
g4380
tp4903
a(g4392
I00
g4390
tp4904
a(g4402
I00
g4400
tp4905
aasbasbasbasbasbasbasbag49
(g65
g51
NtRp4906
(dp4907
g54
(dp4908
sg63
g4700
sg56
(lp4909
g49
(g70
g51
NtRp4910
(dp4911
g54
(dp4912
sg63
g4906
sg56
(lp4913
g49
(g50
g51
NtRp4914
(dp4915
g54
(dp4916
g62
I2
ssg63
g4910
sg56
(lp4917
g49
(g58
g51
NtRp4918
(dp4919
g54
(dp4920
g62
I1
ssg63
Nsg56
(lp4921
g49
(g65
g51
NtRp4922
(dp4923
g54
(dp4924
sg63
g4918
sg56
(lp4925
g49
(g70
g51
NtRp4926
(dp4927
g54
(dp4928
sg63
g4922
sg56
(lp4929
g49
(g50
g51
NtRp4930
(dp4931
g54
(dp4932
g62
I1
ssg63
g4926
sg56
(lp4933
g4412
asbasbasbag49
(g65
g51
NtRp4934
(dp4935
g54
(dp4936
sg63
g4918
sg56
(lp4937
g49
(g70
g51
NtRp4938
(dp4939
g54
(dp4940
sg63
g4934
sg56
(lp4941
g49
(g50
g51
NtRp4942
(dp4943
g54
(dp4944
g62
I1
ssg63
g4938
sg56
(lp4945
I00
asbasbasbag49
(g65
g51
NtRp4946
(dp4947
g54
(dp4948
sg63
g4918
sg56
(lp4949
g49
(g70
g51
NtRp4950
(dp4951
g54
(dp4952
sg63
g4946
sg56
(lp4953
g49
(g50
g51
NtRp4954
(dp4955
g54
(dp4956
g62
I1
ssg63
g4950
sg56
(lp4957
g4410
asbasbasbag49
(g65
g51
NtRp4958
(dp4959
g54
(dp4960
sg63
g4918
sg56
(lp4961
g49
(g70
g51
NtRp4962
(dp4963
g54
(dp4964
sg63
g4958
sg56
(lp4965
g49
(g50
g51
NtRp4966
(dp4967
g54
(dp4968
g62
I1
ssg63
g4962
sg56
(lp4969
(lp4970
(g4426
I00
g4424
tp4971
a(g4436
I00
g4434
tp4972
a(g4446
I00
g4444
tp4973
a(g4456
I00
g4454
tp4974
a(g4466
I00
g4464
tp4975
a(g4476
I00
g4474
tp4976
a(g4486
I00
g4484
tp4977
a(g4496
I00
g4494
tp4978
a(g4506
I00
g4504
tp4979
a(g4516
I00
g4514
tp4980
a(g4526
I00
g4524
tp4981
a(g4536
I00
g4534
tp4982
a(g4546
I00
g4544
tp4983
a(g4556
I00
g4554
tp4984
a(g4566
I00
g4564
tp4985
a(g4576
I00
g4574
tp4986
aasbasbasbasbasbasbasbag49
(g65
g51
NtRp4987
(dp4988
g54
(dp4989
sg63
g4700
sg56
(lp4990
g49
(g70
g51
NtRp4991
(dp4992
g54
(dp4993
sg63
g4987
sg56
(lp4994
g49
(g50
g51
NtRp4995
(dp4996
g54
(dp4997
g62
I2
ssg63
g4991
sg56
(lp4998
g49
(g58
g51
NtRp4999
(dp5000
g54
(dp5001
g62
I1
ssg63
Nsg56
(lp5002
g49
(g65
g51
NtRp5003
(dp5004
g54
(dp5005
sg63
g4999
sg56
(lp5006
g49
(g70
g51
NtRp5007
(dp5008
g54
(dp5009
sg63
g5003
sg56
(lp5010
g49
(g50
g51
NtRp5011
(dp5012
g54
(dp5013
g62
I1
ssg63
g5007
sg56
(lp5014
g4585
asbasbasbag49
(g65
g51
NtRp5015
(dp5016
g54
(dp5017
sg63
g4999
sg56
(lp5018
g49
(g70
g51
NtRp5019
(dp5020
g54
(dp5021
sg63
g5015
sg56
(lp5022
g49
(g50
g51
NtRp5023
(dp5024
g54
(dp5025
g62
I1
ssg63
g5019
sg56
(lp5026
I00
asbasbasbag49
(g65
g51
NtRp5027
(dp5028
g54
(dp5029
sg63
g4999
sg56
(lp5030
g49
(g70
g51
NtRp5031
(dp5032
g54
(dp5033
sg63
g5027
sg56
(lp5034
g49
(g50
g51
NtRp5035
(dp5036
g54
(dp5037
g62
I1
ssg63
g5031
sg56
(lp5038
Nasbasbasbag49
(g65
g51
NtRp5039
(dp5040
g54
(dp5041
sg63
g4999
sg56
(lp5042
g49
(g70
g51
NtRp5043
(dp5044
g54
(dp5045
sg63
g5039
sg56
(lp5046
g49
(g50
g51
NtRp5047
(dp5048
g54
(dp5049
g62
I1
ssg63
g5043
sg56
(lp5050
(lp5051
(g4599
I00
g4597
tp5052
a(g4609
I00
g4607
tp5053
a(g4619
I00
g4617
tp5054
aasbasbasbasbasbasbasbag49
(g65
g51
NtRp5055
(dp5056
g54
(dp5057
sg63
g4700
sg56
(lp5058
g49
(g70
g51
NtRp5059
(dp5060
g54
(dp5061
sg63
g5055
sg56
(lp5062
g49
(g50
g51
NtRp5063
(dp5064
g54
(dp5065
g62
I2
ssg63
g5059
sg56
(lp5066
g49
(g58
g51
NtRp5067
(dp5068
g54
(dp5069
g62
I1
ssg63
Nsg56
(lp5070
g49
(g65
g51
NtRp5071
(dp5072
g54
(dp5073
sg63
g5067
sg56
(lp5074
g49
(g70
g51
NtRp5075
(dp5076
g54
(dp5077
sg63
g5071
sg56
(lp5078
g49
(g50
g51
NtRp5079
(dp5080
g54
(dp5081
g62
I1
ssg63
g5075
sg56
(lp5082
g4628
asbasbasbag49
(g65
g51
NtRp5083
(dp5084
g54
(dp5085
sg63
g5067
sg56
(lp5086
g49
(g70
g51
NtRp5087
(dp5088
g54
(dp5089
sg63
g5083
sg56
(lp5090
g49
(g50
g51
NtRp5091
(dp5092
g54
(dp5093
g62
I1
ssg63
g5087
sg56
(lp5094
I00
asbasbasbag49
(g65
g51
NtRp5095
(dp5096
g54
(dp5097
sg63
g5067
sg56
(lp5098
g49
(g70
g51
NtRp5099
(dp5100
g54
(dp5101
sg63
g5095
sg56
(lp5102
g49
(g50
g51
NtRp5103
(dp5104
g54
(dp5105
g62
I1
ssg63
g5099
sg56
(lp5106
Nasbasbasbag49
(g65
g51
NtRp5107
(dp5108
g54
(dp5109
sg63
g5067
sg56
(lp5110
g49
(g70
g51
NtRp5111
(dp5112
g54
(dp5113
sg63
g5107
sg56
(lp5114
g49
(g50
g51
NtRp5115
(dp5116
g54
(dp5117
g62
I1
ssg63
g5111
sg56
(lp5118
(lp5119
(g4642
I00
g4640
tp5120
a(g4651
I00
g4370
tp5121
a(g4660
I00
g4380
tp5122
aasbasbasbasbasbasbasbasbasbasbasbasbasbasbasbasbasbasbasbag49
(g65
g51
NtRp5123
(dp5124
g54
(dp5125
sg63
g3423
sg56
(lp5126
g49
(g70
g51
NtRp5127
(dp5128
g54
(dp5129
g74
g75
ssg63
g5123
sg56
(lp5130
S'meta'
p5131
asbag49
(g70
g51
NtRp5132
(dp5133
g54
(dp5134
g81
g82
ssg63
g5123
sg56
(lp5135
S':'
asbag49
(g70
g51
NtRp5136
(dp5137
g54
(dp5138
sg63
g5123
sg56
(lp5139
g49
(g50
g51
NtRp5140
(dp5141
g54
(dp5142
g62
I5
ssg63
g5136
sg56
(lp5143
g49
(g58
g51
NtRp5144
(dp5145
g54
(dp5146
g62
I4
ssg63
Nsg56
(lp5147
g49
(g65
g51
NtRp5148
(dp5149
g54
(dp5150
sg63
g5144
sg56
(lp5151
g49
(g70
g51
NtRp5152
(dp5153
g54
(dp5154
g74
g75
ssg63
g5148
sg56
(lp5155
S'author'
p5156
asbag49
(g70
g51
NtRp5157
(dp5158
g54
(dp5159
g81
g82
ssg63
g5148
sg56
(lp5160
S':'
asbag49
(g70
g51
NtRp5161
(dp5162
g54
(dp5163
sg63
g5148
sg56
(lp5164
g49
(g50
g51
NtRp5165
(dp5166
g54
(dp5167
g62
I4
ssg63
g5161
sg56
(lp5168
S'Your Name <you@example.com>'
p5169
asbasbasbag49
(g65
g51
NtRp5170
(dp5171
g54
(dp5172
sg63
g5144
sg56
(lp5173
g49
(g70
g51
NtRp5174
(dp5175
g54
(dp5176
g74
g75
ssg63
g5170
sg56
(lp5177
S'copyright'
p5178
asbag49
(g70
g51
NtRp5179
(dp5180
g54
(dp5181
g81
g82
ssg63
g5170
sg56
(lp5182
S':'
asbag49
(g70
g51
NtRp5183
(dp5184
g54
(dp5185
sg63
g5170
sg56
(lp5186
g49
(g50
g51
NtRp5187
(dp5188
g54
(dp5189
g62
I4
ssg63
g5183
sg56
(lp5190
S'Copyright 2011'
p5191
asbasbasbag49
(g65
g51
NtRp5192
(dp5193
g54
(dp5194
sg63
g5144
sg56
(lp5195
g49
(g70
g51
NtRp5196
(dp5197
g54
(dp5198
g74
g75
ssg63
g5192
sg56
(lp5199
S'description'
p5200
asbag49
(g70
g51
NtRp5201
(dp5202
g54
(dp5203
g81
g82
ssg63
g5192
sg56
(lp5204
S':'
asbag49
(g70
g51
NtRp5205
(dp5206
g54
(dp5207
sg63
g5192
sg56
(lp5208
g49
(g50
g51
NtRp5209
(dp5210
g54
(dp5211
g62
I4
ssg63
g5205
sg56
(lp5212
S'a cool new app'
p5213
asbasbasbag49
(g65
g51
NtRp5214
(dp5215
g54
(dp5216
sg63
g5144
sg56
(lp5217
g49
(g70
g51
NtRp5218
(dp5219
g54
(dp5220
g74
g75
ssg63
g5214
sg56
(lp5221
S'generator'
p5222
asbag49
(g70
g51
NtRp5223
(dp5224
g54
(dp5225
g81
g82
ssg63
g5214
sg56
(lp5226
S':'
asbag49
(g70
g51
NtRp5227
(dp5228
g54
(dp5229
sg63
g5214
sg56
(lp5230
g49
(g50
g51
NtRp5231
(dp5232
g54
(dp5233
g62
I4
ssg63
g5227
sg56
(lp5234
S'Web2py Web Framework'
p5235
asbasbasbag49
(g65
g51
NtRp5236
(dp5237
g54
(dp5238
sg63
g5144
sg56
(lp5239
g49
(g70
g51
NtRp5240
(dp5241
g54
(dp5242
g74
g75
ssg63
g5236
sg56
(lp5243
S'keywords'
p5244
asbag49
(g70
g51
NtRp5245
(dp5246
g54
(dp5247
g81
g82
ssg63
g5236
sg56
(lp5248
S':'
asbag49
(g70
g51
NtRp5249
(dp5250
g54
(dp5251
sg63
g5236
sg56
(lp5252
g49
(g50
g51
NtRp5253
(dp5254
g54
(dp5255
g62
I4
ssg63
g5249
sg56
(lp5256
S'web2py, python, framework'
p5257
asbasbasbasbasbasbasbag49
(g65
g51
NtRp5258
(dp5259
g54
(dp5260
sg63
g3423
sg56
(lp5261
g49
(g70
g51
NtRp5262
(dp5263
g54
(dp5264
g74
g75
ssg63
g5258
sg56
(lp5265
S'postprocessing'
p5266
asbag49
(g70
g51
NtRp5267
(dp5268
g54
(dp5269
g81
g82
ssg63
g5258
sg56
(lp5270
S':'
asbag49
(g70
g51
NtRp5271
(dp5272
g54
(dp5273
sg63
g5258
sg56
(lp5274
g49
(g50
g51
NtRp5275
(dp5276
g54
(dp5277
g62
I5
ssg63
g5271
sg56
(lp5278
g49
(g58
g51
NtRp5279
(dp5280
g54
(dp5281
g62
I4
ssg63
Nsg56
(lp5282
sbasbasbasbag49
(g65
g51
NtRp5283
(dp5284
g54
(dp5285
sg63
g3423
sg56
(lp5286
g49
(g70
g51
NtRp5287
(dp5288
g54
(dp5289
g74
g75
ssg63
g5283
sg56
(lp5290
S'session_file'
p5291
asbag49
(g70
g51
NtRp5292
(dp5293
g54
(dp5294
g81
g82
ssg63
g5283
sg56
(lp5295
S':'
asbag49
(g70
g51
NtRp5296
(dp5297
g54
(dp5298
sg63
g5283
sg56
(lp5299
g49
(g50
g51
NtRp5300
(dp5301
g54
(dp5302
g62
I5
ssg63
g5296
sg56
(lp5303
S"<open file 'C:\\web2py\\applications\\unioeste_code\\sessions\\127.0.0.1-87142505-8d38-426f-afb9-e3f36884a384', mode 'rb+' at 0x0649AEC0>"
p5304
asbasbasbag49
(g65
g51
NtRp5305
(dp5306
g54
(dp5307
sg63
g3423
sg56
(lp5308
g49
(g70
g51
NtRp5309
(dp5310
g54
(dp5311
g74
g75
ssg63
g5305
sg56
(lp5312
S'session_filename'
p5313
asbag49
(g70
g51
NtRp5314
(dp5315
g54
(dp5316
g81
g82
ssg63
g5305
sg56
(lp5317
S':'
asbag49
(g70
g51
NtRp5318
(dp5319
g54
(dp5320
sg63
g5305
sg56
(lp5321
g49
(g50
g51
NtRp5322
(dp5323
g54
(dp5324
g62
I5
ssg63
g5318
sg56
(lp5325
S'C:\\web2py\\applications\\unioeste_code\\sessions\\127.0.0.1-87142505-8d38-426f-afb9-e3f36884a384'
p5326
asbasbasbag49
(g65
g51
NtRp5327
(dp5328
g54
(dp5329
sg63
g3423
sg56
(lp5330
g49
(g70
g51
NtRp5331
(dp5332
g54
(dp5333
g74
g75
ssg63
g5327
sg56
(lp5334
S'session_id'
p5335
asbag49
(g70
g51
NtRp5336
(dp5337
g54
(dp5338
g81
g82
ssg63
g5327
sg56
(lp5339
S':'
asbag49
(g70
g51
NtRp5340
(dp5341
g54
(dp5342
sg63
g5327
sg56
(lp5343
g49
(g50
g51
NtRp5344
(dp5345
g54
(dp5346
g62
I5
ssg63
g5340
sg56
(lp5347
S'127.0.0.1-87142505-8d38-426f-afb9-e3f36884a384'
p5348
asbasbasbag49
(g65
g51
NtRp5349
(dp5350
g54
(dp5351
sg63
g3423
sg56
(lp5352
g49
(g70
g51
NtRp5353
(dp5354
g54
(dp5355
g74
g75
ssg63
g5349
sg56
(lp5356
S'session_id_name'
p5357
asbag49
(g70
g51
NtRp5358
(dp5359
g54
(dp5360
g81
g82
ssg63
g5349
sg56
(lp5361
S':'
asbag49
(g70
g51
NtRp5362
(dp5363
g54
(dp5364
sg63
g5349
sg56
(lp5365
g49
(g50
g51
NtRp5366
(dp5367
g54
(dp5368
g62
I5
ssg63
g5362
sg56
(lp5369
g3480
asbasbasbag49
(g65
g51
NtRp5370
(dp5371
g54
(dp5372
sg63
g3423
sg56
(lp5373
g49
(g70
g51
NtRp5374
(dp5375
g54
(dp5376
g74
g75
ssg63
g5370
sg56
(lp5377
S'session_locked'
p5378
asbag49
(g70
g51
NtRp5379
(dp5380
g54
(dp5381
g81
g82
ssg63
g5370
sg56
(lp5382
S':'
asbag49
(g70
g51
NtRp5383
(dp5384
g54
(dp5385
sg63
g5370
sg56
(lp5386
g49
(g50
g51
NtRp5387
(dp5388
g54
(dp5389
g62
I5
ssg63
g5383
sg56
(lp5390
g1642
asbasbasbag49
(g65
g51
NtRp5391
(dp5392
g54
(dp5393
sg63
g3423
sg56
(lp5394
g49
(g70
g51
NtRp5395
(dp5396
g54
(dp5397
g74
g75
ssg63
g5391
sg56
(lp5398
S'session_new'
p5399
asbag49
(g70
g51
NtRp5400
(dp5401
g54
(dp5402
g81
g82
ssg63
g5391
sg56
(lp5403
S':'
asbag49
(g70
g51
NtRp5404
(dp5405
g54
(dp5406
sg63
g5391
sg56
(lp5407
g49
(g50
g51
NtRp5408
(dp5409
g54
(dp5410
g62
I5
ssg63
g5404
sg56
(lp5411
g92
asbasbasbag49
(g65
g51
NtRp5412
(dp5413
g54
(dp5414
sg63
g3423
sg56
(lp5415
g49
(g70
g51
NtRp5416
(dp5417
g54
(dp5418
g74
g75
ssg63
g5412
sg56
(lp5419
S'status'
p5420
asbag49
(g70
g51
NtRp5421
(dp5422
g54
(dp5423
g81
g82
ssg63
g5412
sg56
(lp5424
S':'
asbag49
(g70
g51
NtRp5425
(dp5426
g54
(dp5427
sg63
g5412
sg56
(lp5428
g49
(g50
g51
NtRp5429
(dp5430
g54
(dp5431
g62
I5
ssg63
g5425
sg56
(lp5432
S'200'
p5433
asbasbasbag49
(g65
g51
NtRp5434
(dp5435
g54
(dp5436
sg63
g3423
sg56
(lp5437
g49
(g70
g51
NtRp5438
(dp5439
g54
(dp5440
g74
g75
ssg63
g5434
sg56
(lp5441
S'subtitle'
p5442
asbag49
(g70
g51
NtRp5443
(dp5444
g54
(dp5445
g81
g82
ssg63
g5434
sg56
(lp5446
S':'
asbag49
(g70
g51
NtRp5447
(dp5448
g54
(dp5449
sg63
g5434
sg56
(lp5450
g49
(g50
g51
NtRp5451
(dp5452
g54
(dp5453
g62
I5
ssg63
g5447
sg56
(lp5454
g4051
(S's\x0f\x00\x00\x00Personalize-me!'
tRp5455
asbasbasbag49
(g65
g51
NtRp5456
(dp5457
g54
(dp5458
sg63
g3423
sg56
(lp5459
g49
(g70
g51
NtRp5460
(dp5461
g54
(dp5462
g74
g75
ssg63
g5456
sg56
(lp5463
S'title'
p5464
asbag49
(g70
g51
NtRp5465
(dp5466
g54
(dp5467
g81
g82
ssg63
g5456
sg56
(lp5468
S':'
asbag49
(g70
g51
NtRp5469
(dp5470
g54
(dp5471
sg63
g5456
sg56
(lp5472
g49
(g50
g51
NtRp5473
(dp5474
g54
(dp5475
g62
I5
ssg63
g5469
sg56
(lp5476
S'Unioeste Code'
p5477
asbasbasbag49
(g65
g51
NtRp5478
(dp5479
g54
(dp5480
sg63
g3423
sg56
(lp5481
g49
(g70
g51
NtRp5482
(dp5483
g54
(dp5484
g74
g75
ssg63
g5478
sg56
(lp5485
g2327
asbag49
(g70
g51
NtRp5486
(dp5487
g54
(dp5488
g81
g82
ssg63
g5478
sg56
(lp5489
S':'
asbag49
(g70
g51
NtRp5490
(dp5491
g54
(dp5492
sg63
g5478
sg56
(lp5493
g49
(g50
g51
NtRp5494
(dp5495
g54
(dp5496
g62
I5
ssg63
g5490
sg56
(lp5497
g2340
asbasbasbag49
(g65
g51
NtRp5498
(dp5499
g54
(dp5500
sg63
g3423
sg56
(lp5501
g49
(g70
g51
NtRp5502
(dp5503
g54
(dp5504
g74
g75
ssg63
g5498
sg56
(lp5505
S'view'
p5506
asbag49
(g70
g51
NtRp5507
(dp5508
g54
(dp5509
g81
g82
ssg63
g5498
sg56
(lp5510
S':'
asbag49
(g70
g51
NtRp5511
(dp5512
g54
(dp5513
sg63
g5498
sg56
(lp5514
g49
(g50
g51
NtRp5515
(dp5516
g54
(dp5517
g62
I5
ssg63
g5511
sg56
(lp5518
S'default/showProblem.html'
p5519
asbasbasbasbasbsS'locals'
p5520
(dp5521
g6
S"<Row {'comment': <gluon.dal.Set object at 0x0697...lete_record': <function <lambda> at 0x0697CA30>}>"
p5522
sS'Service'
p5523
S"<class 'gluon.tools.Service'>"
p5524
sS'OBJECT'
p5525
S"<class 'gluon.html.OBJECT'>"
p5526
sS'SQLDB'
p5527
S"<class 'gluon.dal.DAL'>"
p5528
sg3049
S"<Storage {'_formkey[code/create]': 'f5fb08bb-e13...reate]': 'f513cd7a-d136-40dc-94c2-f40253ed67ad'}>"
p5529
sS'LINK'
p5530
S"<class 'gluon.html.LINK'>"
p5531
sS'BR'
p5532
S"<class 'gluon.html.BR'>"
p5533
sS'local_import'
p5534
S'<function <lambda> at 0x064C18B0>'
p5535
sS'OPTGROUP'
p5536
S"<class 'gluon.html.OPTGROUP'>"
p5537
sS'PRE'
p5538
S"<class 'gluon.html.PRE'>"
p5539
sS'IS_INT_IN_RANGE'
p5540
S"<class 'gluon.validators.IS_INT_IN_RANGE'>"
p5541
sS'left_sidebar_enabled'
p5542
g92
sS'IS_LOWER'
p5543
S"<class 'gluon.validators.IS_LOWER'>"
p5544
sS'IS_STRONG'
p5545
S"<class 'gluon.validators.IS_STRONG'>"
p5546
sS'Recaptcha'
p5547
S"<class 'gluon.tools.Recaptcha'>"
p5548
sS'cache'
p5549
S'<gluon.cache.Cache object at 0x064AA070>'
p5550
sS'IS_IN_DB'
p5551
S"<class 'gluon.validators.IS_IN_DB'>"
p5552
sS'TAG'
p5553
S'<gluon.html.__TAG__ object at 0x0260BE30>'
p5554
sS'SQLField'
p5555
S"<class 'gluon.dal.Field'>"
p5556
sS'BODY'
p5557
S"<class 'gluon.html.BODY'>"
p5558
sS'IS_DATE_IN_RANGE'
p5559
S"<class 'gluon.validators.IS_DATE_IN_RANGE'>"
p5560
sS'TH'
p5561
S"<class 'gluon.html.TH'>"
p5562
sS'URL'
p5563
S'<function URL at 0x0266D8F0>'
p5564
sS'__file__'
p5565
S"r'C:\\web2py\\applications\\unioeste_code\\views\\default/showProblem.html'"
p5566
sS'db'
p5567
S"<DAL {'comment': <Table {'body': <gluon.dal.Fiel...object at 0x06968890>, '_singular': 'Problem'}>}>"
p5568
sS'auth'
p5569
S'<gluon.tools.Auth object at 0x06944530>'
p5570
sS'P'
S"<class 'gluon.html.P'>"
p5571
sS'TFOOT'
p5572
S"<class 'gluon.html.TFOOT'>"
p5573
sS'XHTML'
p5574
S"<class 'gluon.html.XHTML'>"
p5575
sS'ON'
p5576
g1642
sS'OL'
p5577
S"<class 'gluon.html.OL'>"
p5578
sS'TEXTAREA'
p5579
S"<class 'gluon.html.TEXTAREA'>"
p5580
sS'MENU'
p5581
S"<class 'gluon.html.MENU'>"
p5582
sS'LOAD'
p5583
S'<function LOAD at 0x028E54B0>'
p5584
sS'CODE'
p5585
S"<class 'gluon.html.CODE'>"
p5586
sS'HTTP'
p5587
S"<class 'gluon.http.HTTP'>"
p5588
sS'HR'
p5589
S"<class 'gluon.html.HR'>"
p5590
sS'IS_DATETIME'
p5591
S"<class 'gluon.validators.IS_DATETIME'>"
p5592
sS'HEAD'
p5593
S"<class 'gluon.html.HEAD'>"
p5594
sS'LABEL'
p5595
S"<class 'gluon.html.LABEL'>"
p5596
sS'CLEANUP'
p5597
S"<class 'gluon.validators.CLEANUP'>"
p5598
sS'SELECT'
p5599
S"<class 'gluon.html.SELECT'>"
p5600
sS'CENTER'
p5601
S"<class 'gluon.html.CENTER'>"
p5602
sS'prettydate'
p5603
S'<function prettydate at 0x031EEDF0>'
p5604
sS'Crud'
p5605
S"<class 'gluon.tools.Crud'>"
p5606
sS'Auth'
p5607
S"<class 'gluon.tools.Auth'>"
p5608
sS'__builtins__'
p5609
S"{'ArithmeticError': <type 'exceptions.ArithmeticError'>, 'AssertionError': <type 'exceptions.AssertionError'>, 'AttributeError': <type 'exceptions.AttributeError'>, 'BaseException': <type 'exceptions.BaseException'>, 'DeprecationWarning': <type 'exceptions.DeprecationWarning'>, 'EOFError': <type 'exceptions.EOFError'>, 'Ellipsis': Ellipsis, 'EnvironmentError': <type 'exceptions.EnvironmentError'>, 'Exception': <type 'exceptions.Exception'>, 'False': False, ...}"
p5610
sS'HTML'
p5611
S"<class 'gluon.html.HTML'>"
p5612
sS'SQLFORM'
p5613
S"<class 'gluon.sqlhtml.SQLFORM'>"
p5614
sS'EM'
p5615
S"<class 'gluon.html.EM'>"
p5616
sS'redirect'
p5617
S'<function redirect at 0x024E8F70>'
p5618
sS'FIELDSET'
p5619
S"<class 'gluon.html.FIELDSET'>"
p5620
sS'IS_EQUAL_TO'
p5621
S"<class 'gluon.validators.IS_EQUAL_TO'>"
p5622
sS'embed64'
p5623
S'<function embed64 at 0x02671430>'
p5624
sS'IS_LIST_OF'
p5625
S"<class 'gluon.validators.IS_LIST_OF'>"
p5626
sS'__name__'
p5627
S"'__restricted__'"
p5628
sS'EMBED'
p5629
S"<class 'gluon.html.EMBED'>"
p5630
sS'_'
S'<function _ at 0x0697C4F0>'
p5631
sS'FORM'
p5632
S"<class 'gluon.html.FORM'>"
p5633
sS'H2'
p5634
S"<class 'gluon.html.H2'>"
p5635
sS'H3'
p5636
S"<class 'gluon.html.H3'>"
p5637
sS'BUTTON'
p5638
S"<class 'gluon.html.BUTTON'>"
p5639
sS'H1'
p5640
S"<class 'gluon.html.H1'>"
p5641
sS'H6'
p5642
S"<class 'gluon.html.H6'>"
p5643
sS'H4'
p5644
S"<class 'gluon.html.H4'>"
p5645
sS'H5'
p5646
S"<class 'gluon.html.H5'>"
p5647
sS'UL'
p5648
S"<class 'gluon.html.UL'>"
p5649
sS's'
S"'Pedro Lacerda - (scmirror1@gmail.com)'"
p5650
sS'IS_UPPER'
p5651
S"<class 'gluon.validators.IS_UPPER'>"
p5652
sS'xmlescape'
p5653
S'<function xmlescape at 0x0266D870>'
p5654
sS'IS_TIME'
p5655
S"<class 'gluon.validators.IS_TIME'>"
p5656
sS'OPTION'
p5657
S"<class 'gluon.html.OPTION'>"
p5658
sS'TITLE'
p5659
S"<class 'gluon.html.TITLE'>"
p5660
sS'CRYPT'
p5661
S"<class 'gluon.validators.CRYPT'>"
p5662
sS'IS_EMPTY_OR'
p5663
S"<class 'gluon.validators.IS_EMPTY_OR'>"
p5664
sS'MARKMIN'
p5665
S"<class 'gluon.html.MARKMIN'>"
p5666
sS'INPUT'
p5667
S"<class 'gluon.html.INPUT'>"
p5668
sS'COL'
p5669
S"<class 'gluon.html.COL'>"
p5670
sS'SCRIPT'
p5671
S"<class 'gluon.html.SCRIPT'>"
p5672
sS'geocode'
p5673
S'<function geocode at 0x031EE730>'
p5674
sS'is_mobile'
p5675
g92
sS'TABLE'
p5676
S"<class 'gluon.html.TABLE'>"
p5677
sS'IS_IPV4'
p5678
S"<class 'gluon.validators.IS_IPV4'>"
p5679
sS'IS_LENGTH'
p5680
S"<class 'gluon.validators.IS_LENGTH'>"
p5681
sS'XML'
p5682
S"<class 'gluon.html.XML'>"
p5683
sS'B'
S"<class 'gluon.html.B'>"
p5684
sS'form'
p5685
S'<gluon.sqlhtml.SQLFORM object at 0x0697BAF0>'
p5686
sS'SQLTABLE'
p5687
S"<class 'gluon.sqlhtml.SQLTABLE'>"
p5688
sS'IS_MATCH'
p5689
S"<class 'gluon.validators.IS_MATCH'>"
p5690
sS'IS_ALPHANUMERIC'
p5691
S"<class 'gluon.validators.IS_ALPHANUMERIC'>"
p5692
sS'SPAN'
p5693
S"<class 'gluon.html.SPAN'>"
p5694
sS'IS_SLUG'
p5695
S"<class 'gluon.validators.IS_SLUG'>"
p5696
sS'BEAUTIFY'
p5697
S"<class 'gluon.html.BEAUTIFY'>"
p5698
sS'META'
p5699
S"<class 'gluon.html.META'>"
p5700
sS'problem'
p5701
S"<Row {'body': 'Imprimir na tela os N primeiros n...lete_record': <function <lambda> at 0x0697C9B0>}>"
p5702
sS'fetch'
p5703
S'<function fetch at 0x031E95B0>'
p5704
sS'IS_DATE'
p5705
S"<class 'gluon.validators.IS_DATE'>"
p5706
sS'IS_EMAIL'
p5707
S"<class 'gluon.validators.IS_EMAIL'>"
p5708
sS'IS_NOT_EMPTY'
p5709
S"<class 'gluon.validators.IS_NOT_EMPTY'>"
p5710
sg48
S"<Storage {'body': <cStringIO.StringO object at 0..._vars': <Storage {}>, 'post_vars': <Storage {}>}>"
p5711
sS'TBODY'
p5712
S"<class 'gluon.html.TBODY'>"
p5713
sS'CAT'
p5714
S"<class 'gluon.html.CAT'>"
p5715
sS'Field'
p5716
S"<class 'gluon.dal.Field'>"
p5717
sS'middle_columns'
p5718
S"'sixteen'"
p5719
sS'Mail'
p5720
S"<class 'gluon.tools.Mail'>"
p5721
sS'DIV'
p5722
S"<class 'gluon.html.DIV'>"
p5723
sS'LEGEND'
p5724
S"<class 'gluon.html.LEGEND'>"
p5725
sS'codes'
p5726
S'<gluon.dal.Rows object at 0x0697BF90>'
p5727
sS'IMG'
p5728
S"<class 'gluon.html.IMG'>"
p5729
sS'COLGROUP'
p5730
S"<class 'gluon.html.COLGROUP'>"
p5731
sS'DAL'
p5732
S"<class 'gluon.dal.DAL'>"
p5733
sS'TT'
p5734
S"<class 'gluon.html.TT'>"
p5735
sS'TR'
p5736
S"<class 'gluon.html.TR'>"
p5737
sS'LI'
p5738
S"<class 'gluon.html.LI'>"
p5739
sS'right_sidebar_enabled'
p5740
g92
sS'IFRAME'
p5741
S"<class 'gluon.html.IFRAME'>"
p5742
sS'TD'
p5743
S"<class 'gluon.html.TD'>"
p5744
sS'PluginManager'
p5745
S"<class 'gluon.tools.PluginManager'>"
p5746
sS'IS_URL'
p5747
S"<class 'gluon.validators.IS_URL'>"
p5748
sS'A'
S"<class 'gluon.html.A'>"
p5749
sS'STYLE'
p5750
S"<class 'gluon.html.STYLE'>"
p5751
sS'IS_DATETIME_IN_RANGE'
p5752
S"<class 'gluon.validators.IS_DATETIME_IN_RANGE'>"
p5753
sS'IS_IMAGE'
p5754
S"<class 'gluon.validators.IS_IMAGE'>"
p5755
sS'I'
S"<class 'gluon.html.I'>"
p5756
sS'crud'
p5757
S'<gluon.tools.Crud object at 0x06968F90>'
p5758
sS'IS_NOT_IN_DB'
p5759
S"<class 'gluon.validators.IS_NOT_IN_DB'>"
p5760
sS'user'
p5761
S"<Row {'comment': <gluon.dal.Set object at 0x0696...lete_record': <function <lambda> at 0x0697CC30>}>"
p5762
sg3418
S"<Storage {'body': <cStringIO.StringO object at 0...0x064C1AB0>, 'view': 'default/showProblem.html'}>"
p5763
sS'THEAD'
p5764
S"<class 'gluon.html.THEAD'>"
p5765
sS'IS_NULL_OR'
p5766
S"<class 'gluon.validators.IS_EMPTY_OR'>"
p5767
sS'i'
S'0'
sS'IS_FLOAT_IN_RANGE'
p5768
S"<class 'gluon.validators.IS_FLOAT_IN_RANGE'>"
p5769
sS'IS_EXPR'
p5770
S"<class 'gluon.validators.IS_EXPR'>"
p5771
sS'T'
S'<gluon.languages.translator object at 0x064AA370>'
p5772
sS'IS_IN_SET'
p5773
S"<class 'gluon.validators.IS_IN_SET'>"
p5774
sS'IS_UPLOAD_FILENAME'
p5775
S"<class 'gluon.validators.IS_UPLOAD_FILENAME'>"
p5776
sS'IS_DECIMAL_IN_RANGE'
p5777
S"<class 'gluon.validators.IS_DECIMAL_IN_RANGE'>"
p5778
sssS'traceback'
p5779
S'Traceback (most recent call last):\n  File "gluon/restricted.py", line 205, in restricted\n  File "C:\\web2py\\applications\\unioeste_code\\views\\default/showProblem.html", line 98, in <module>\nTypeError: unsupported operand type(s) for +: \'int\' and \'str\'\n'
p5780
s.