(dp1
S'output'
p2
S"<type 'exceptions.NameError'> name 'left_sidebar_enabled' is not defined"
p3
sS'layer'
p4
S'C:\\web2py\\applications\\unioeste_code\\views\\default/index.html'
p5
sS'code'
p6
S'response.write(\'<!DOCTYPE html>\\r\\n<!-- paulirish.com/2008/conditional-stylesheets-vs-css-hacks-answer-neither/ -->\\r\\n<!--[if lt IE 7]><html class="ie ie6 ie-lte9 ie-lte8 ie-lte7 no-js" lang="\', escape=False)\nresponse.write(T.accepted_language or \'en\')\nresponse.write(\'"> <![endif]-->\\r\\n<!--[if IE 7]><html class="ie ie7 ie-lte9 ie-lte8 ie-lte7 no-js" lang="\', escape=False)\nresponse.write(T.accepted_language or \'en\')\nresponse.write(\'"> <![endif]-->\\r\\n<!--[if IE 8]><html class="ie ie8 ie-lte9 ie-lte8 no-js" lang="\', escape=False)\nresponse.write(T.accepted_language or \'en\')\nresponse.write(\'"> <![endif]-->\\r\\n<!--[if IE 9]><html class="ie9 ie-lte9 no-js" lang="\', escape=False)\nresponse.write(T.accepted_language or \'en\')\nresponse.write(\'"> <![endif]-->\\r\\n<!--[if (gt IE 9)|!(IE)]><!--> <html class="no-js" lang="\', escape=False)\nresponse.write(T.accepted_language or \'en\')\nresponse.write(\'"> <!--<![endif]-->\\r\\n<head>\\r\\n  <meta charset="utf-8" />\\r\\n  <!-- www.phpied.com/conditional-comments-block-downloads/ -->\\r\\n  <!-- Always force latest IE rendering engine\\r\\n\\t   (even in intranet) & Chrome Frame\\r\\n\\t   Remove this if you use the .htaccess -->\\r\\n  <!--[if IE]>\\r\\n    <meta http-equiv="X-UA-Compatible" content="IE=edge\', escape=False)\nresponse.write(not request.is_local and \',chrome=1\' or \'\')\nresponse.write(\'">\\r\\n  <![endif]-->\\r\\n  \\r\\n  <title>\', escape=False)\nresponse.write(response.title or request.application)\nresponse.write(\'</title>\\r\\n  \\r\\n  <!-- http://dev.w3.org/html5/markup/meta.name.html -->\\r\\n  <meta name="application-name" content="\', escape=False)\nresponse.write(request.application)\nresponse.write(\'" />\\r\\n  \\r\\n  <!-- Speaking of Google, don\\\'t forget to set your site up:\\r\\n\\t   http://google.com/webmasters -->\\r\\n  <meta name="google-site-verification" content="" />\\r\\n\\r\\n  <!--  Mobile Viewport Fix\\r\\n\\t  j.mp/mobileviewport & davidbcalhoun.com/2010/viewport-metatag\\r\\n\\t  device-width: Occupy full width of the screen in its current orientation\\r\\n\\t  initial-scale = 1.0 retains dimensions instead of zooming out if page height > device height\\r\\n\\t  user-scalable = yes allows the user to zoom in -->\\r\\n  <meta name="viewport" content="width=device-width, initial-scale=1.0, user-scalable=yes">\\r\\n  \\r\\n  <!-- Place favicon.ico and apple-touch-icon.png in the root of your domain and delete these references -->\\r\\n  <link rel="shortcut icon" href="\', escape=False)\nresponse.write(URL(\'static\',\'favicon.ico\'))\nresponse.write(\'" type="image/x-icon">\\r\\n  <link rel="apple-touch-icon" href="\', escape=False)\nresponse.write(URL(\'static\',\'favicon.png\'))\nresponse.write(\'">\\r\\n\\r\\n  <!-- All JavaScript at the bottom, except for Modernizr which enables \\r\\n\\t   HTML5 elements & feature detects -->\\r\\n  <script src="\', escape=False)\nresponse.write(URL(\'static\',\'js/modernizr.custom.js\'))\nresponse.write(\'"></script>  \\r\\n\\r\\n  <!-- include stylesheets -->\\r\\n  \', escape=False)\nresponse.files.append(URL(\'static\',\'css/skeleton.css\'))\nresponse.files.append(URL(\'static\',\'css/web2py.css\'))\nif response.menu:\n    response.files.append(URL(\'static\',\'css/superfish.css\'))\n    response.files.append(URL(\'static\',\'js/superfish.js\'))\n    pass\nresponse.write(\'\\r\\n\\r\\n  \', escape=False)\nresponse.write(\'<script type="text/javascript"><!--\\n    // These variables are used by the web2py_ajax_init function in web2py_ajax.js (which is loaded below).\\n    var w2p_ajax_confirm_message = "\', escape=False)\nresponse.write(T(\'Are you sure you want to delete this object?\'))\nresponse.write(\'";\\n    var w2p_ajax_date_format = "\', escape=False)\nresponse.write(T(\'%Y-%m-%d\'))\nresponse.write(\'";\\n    var w2p_ajax_datetime_format = "\', escape=False)\nresponse.write(T(\'%Y-%m-%d %H:%M:%S\'))\nresponse.write(\'";\\n    //--></script>\\n\', escape=False)\nresponse.files.insert(0,URL(\'static\',\'js/jquery.js\'))\nresponse.files.insert(1,URL(\'static\',\'css/calendar.css\'))\nresponse.files.insert(2,URL(\'static\',\'js/calendar.js\'))\nresponse.files.insert(3,URL(\'static\',\'js/web2py.js\'))\nresponse.include_meta()\nresponse.include_files()\nresponse.write(\'\\n\', escape=False)\nresponse.write(\'\\r\\n\\r\\n  \', escape=False)\nif response.menu:\n    response.write(\'\\r\\n  <script type="text/javascript">\\r\\n    jQuery(function(){ jQuery(\\\'ul.sf-menu\\\').supersubs({minWidth:12,maxWidth:30,extraWidth:3}).superfish(); });\\r\\n  </script>\\r\\n  \', escape=False)\n    pass\nresponse.write(\'\\r\\n\\r\\n  <!-- uncomment here to load jquery-ui\\r\\n  <link rel="stylesheet" href="http://ajax.googleapis.com/ajax/libs/jqueryui/1.8.16/themes/base/jquery-ui.css" type="text/css" media="all" />\\r\\n  <script src="http://ajax.googleapis.com/ajax/libs/jqueryui/1.8.16/jquery-ui.min.js" type="text/javascript"></script>\\r\\n  uncomment to load jquery-ui //-->\\r\\n</head>\\r\\n<body>\\r\\n  <div class="wrapper"><!-- for sticky footer -->\\r\\n  \\r\\n    <div class="topbar">\\r\\n      <div class="container">    \\r\\n        <div class="sixteen columns">\\r\\n          <div id="navbar">\', escape=False)\nresponse.write(\'auth\' in globals() and auth.navbar(separators=(\' \',\' | \',\'\')))\nresponse.write(\'</div>\\r\\n          \', escape=False)\nis_mobile=request.user_agent().is_mobile\nresponse.write(\'\\r\\n\\t  \', escape=False)\nif response.menu:\n    response.write(\'\\r\\n          <div id="menu">\\r\\n             \', escape=False)\n    response.write(MENU(response.menu, _class=\'mobile-menu\' if is_mobile else \'sf-menu\',mobile=is_mobile))\n    response.write(\'\\r\\n          </div>\\r\\n          \', escape=False)\n    pass\nresponse.write(\'\\r\\n        </div>\\r\\n      </div>\\r\\n    </div><!-- topbar -->\\r\\n    \\r\\n    <div class="flash">\', escape=False)\nresponse.write(response.flash or \'\')\nresponse.write(\'</div>\\r\\n    \\r\\n    <div class="header">\\r\\n      <div class="container">         \\r\\n        <div class="sixteen columns">\\r\\n          <img src="\', escape=False)\nresponse.write(URL(\'static\',\'images/logo-code.png\'))\nresponse.write(\'" class="remove-bottom" style="margin-top: .5em;" />\\r\\n          <!-- H5 subtitle-->\\r\\n        </div>\\r\\n        <div class="sixteen columns">\\r\\n          <div style="border: 1px solid #000000; ">\\r\\n            <div style="float:right; padding-top: .25em;" class="a2a_kit a2a_default_style">\\r\\n            <a class="a2a_dd" href="http://www.addtoany.com/share_save">Share</a></div>\\r\\n            <script type="text/javascript" src="http://static.addtoany.com/menu/page.js"></script>\\r\\n          </div>\\r\\n        </div>\\r\\n      </div>\\r\\n    </div>\\r\\n\\r\\n    <div class="main">\\r\\n      <div class="container">                 \\r\\n        \', escape=False)\nif left_sidebar_enabled:\n    response.write(\'\\r\\n        <div class="four columns left-sidebar">\\r\\n          \', escape=False)\n    response.write(\'\\r\\n          <h3>Left Sidebar</h3>\\r\\n          <p></p>\\r\\n          \', escape=False)\n    response.write(\'\\r\\n        </div>\\r\\n        \', escape=False)\n    pass\nresponse.write(\'\\r\\n        \\r\\n        <div class="\', escape=False)\nresponse.write(middle_columns)\nresponse.write(\' columns center">\\r\\n          \', escape=False)\nresponse.write(\'\\r\\n          \', escape=False)\nresponse.write(\'\\n\\n\\n\', escape=False)\nresponse.write(H1(T("Current Problems")))\nresponse.write(\'\\n<ul>\\n\', escape=False)\nfor problem in problems:\n    response.write(\'\\n\', escape=False)\n    user = db(db.auth_user.id==problem.created_by).select().first()\n    response.write(\'\\n\', escape=False)\n    response.write(LI(A(problem.title, _style="font-weight:bold;",_href=URL("Problem", args=problem.id)), " by " + user.first_name + " " + user.last_name + " ", SPAN(prettydate(problem.created_on), _style="color:green;font-weight:bold;")))\n    response.write(\'\\n\', escape=False)\n    pass\nresponse.write(\'\\n\\n\\n</ul>\\n\\n\', escape=False)\nresponse.write(\'\\r\\n          \', escape=False)\nresponse.write(\'\\r\\n        </div>\\r\\n        \\r\\n        \', escape=False)\nif right_sidebar_enabled:\n    response.write(\'\\r\\n        <div class="four columns">\\r\\n          \', escape=False)\n    response.write(\'\\r\\n          <h3>Right Sidebar</h3>\\r\\n          <p></p>\\r\\n          \', escape=False)\n    response.write(\'\\r\\n        </div>    \\r\\n        \', escape=False)\n    pass\nresponse.write(\'\\r\\n        \\r\\n      </div><!-- container -->\\r\\n    </div><!-- main -->\\r\\n    \\r\\n    <div class="push"></div>\\r\\n  </div><!-- wrapper -->\\r\\n\\r\\n  <div class="footer">\\r\\n    <div class="container">    \\r\\n      <div class="sixteen columns">\\r\\n        \', escape=False)\nresponse.write(\' <!-- this is default footer -->\\r\\n        <div class="footer-content clearfix">\\r\\n            <div style="float: left;">\\r\\n            <a href="https://developers.google.com//"> \\r\\n            <img style="padding-left: 8em; padding-bottom:1em; " src="https://developers.google.com/appengine/images/appengine-noborder-120x30.gif" alt="Powered by Google App Engine"/>\\r\\n            </a>\\r\\n          </div>\\r\\n          <div class="footer-content clearfix">\\r\\n            <div style="float: left;   ">\\r\\n            <a href="http://www.python.org/"> \\r\\n            <img style="" src="http://www.python.org/community/logos/python-powered-w-70x28.png" alt="Powered by Python"/>\\r\\n            </a>\\r\\n          </div>\\r\\n          <div style="padding-left: 19.5em; padding-top: 0.25em;">\\r\\n            <a href="http://www.web2py.com/">\\r\\n            <img style="" src="\', escape=False)\nresponse.write(URL(\'static\',\'images/poweredby.png\'))\nresponse.write(\'"/>\\r\\n            </a>\\r\\n          </div>\\r\\n        </div>\\r\\n        \', escape=False)\nresponse.write(\'\\t\\r\\n      </div>\\r\\n    </div><!-- container -->\\r\\n  </div><!-- footer -->\\r\\n  \\r\\n  <!--[if lt IE 7 ]>\\r\\n\\t<script src="\', escape=False)\nresponse.write(URL(\'static\',\'js/dd_belatedpng.js\'))\nresponse.write(\'"></script>\\r\\n\\t<script> DD_belatedPNG.fix(\\\'img, .png_bg\\\'); //fix any <img> or .png_bg background-images </script>\\r\\n\\t<![endif]-->\\r\\n  \', escape=False)\nif response.google_analytics_id:\n    response.write(\'<script type="text/javascript"> var _gaq = _gaq || []; _gaq.push([\\\'_setAccount\\\', \\\'\', escape=False)\n    response.write(response.google_analytics_id)\n    response.write("\']); _gaq.push([\'_trackPageview\']); (function() { var ga = document.createElement(\'script\'); ga.type = \'text/javascript\'; ga.async = true; ga.src = (\'https:\' == document.location.protocol ? \'https://ssl\' : \'http://www\') + \'.google-analytics.com/ga.js\'; var s = document.getElementsByTagName(\'script\')[0]; s.parentNode.insertBefore(ga, s); })(); </script> ", escape=False)\n    pass\nresponse.write(\'\\r\\n</body>\\r\\n</html>\\r\\n\', escape=False)'
p7
sS'snapshot'
p8
(dp9
S'exception'
p10
(dp11
S'__hash__'
p12
S"<method-wrapper '__hash__' of exceptions.NameError object at 0x0625C148>"
p13
sS'__setattr__'
p14
S"<method-wrapper '__setattr__' of exceptions.NameError object at 0x0625C148>"
p15
sS'__reduce_ex__'
p16
S'<built-in method __reduce_ex__ of exceptions.NameError object at 0x0625C148>'
p17
sS'__getslice__'
p18
S"<method-wrapper '__getslice__' of exceptions.NameError object at 0x0625C148>"
p19
sS'__getitem__'
p20
S"<method-wrapper '__getitem__' of exceptions.NameError object at 0x0625C148>"
p21
sS'__setstate__'
p22
S'<built-in method __setstate__ of exceptions.NameError object at 0x0625C148>'
p23
sS'__reduce__'
p24
S'<built-in method __reduce__ of exceptions.NameError object at 0x0625C148>'
p25
sS'__str__'
p26
S"<method-wrapper '__str__' of exceptions.NameError object at 0x0625C148>"
p27
sS'args'
p28
S'("name \'left_sidebar_enabled\' is not defined",)'
p29
sS'__getattribute__'
p30
S"<method-wrapper '__getattribute__' of exceptions.NameError object at 0x0625C148>"
p31
sS'__class__'
p32
S"<type 'exceptions.NameError'>"
p33
sS'__delattr__'
p34
S"<method-wrapper '__delattr__' of exceptions.NameError object at 0x0625C148>"
p35
sS'__repr__'
p36
S"<method-wrapper '__repr__' of exceptions.NameError object at 0x0625C148>"
p37
sS'__dict__'
p38
S'{}'
p39
sS'__doc__'
p40
S"'Name not found globally.'"
p41
sS'__init__'
p42
S"<method-wrapper '__init__' of exceptions.NameError object at 0x0625C148>"
p43
sS'__new__'
p44
S'<built-in method __new__ of type object at 0x1E1CD8D8>'
p45
ssS'evalue'
p46
S"name 'left_sidebar_enabled' is not defined"
p47
sS'request'
p48
ccopy_reg
_reconstructor
p49
(cgluon.html
BEAUTIFY
p50
c__builtin__
object
p51
NtRp52
(dp53
S'attributes'
p54
(dp55
sS'components'
p56
(lp57
g49
(cgluon.html
TABLE
p58
g51
NtRp59
(dp60
g54
(dp61
S'level'
p62
I5
ssS'parent'
p63
Nsg56
(lp64
g49
(cgluon.html
TR
p65
g51
NtRp66
(dp67
g54
(dp68
sg63
g59
sg56
(lp69
g49
(cgluon.html
TD
p70
g51
NtRp71
(dp72
g54
(dp73
S'_style'
p74
S'font-weight:bold;vertical-align:top'
p75
ssg63
g66
sg56
(lp76
S'ajax'
p77
asbag49
(g70
g51
NtRp78
(dp79
g54
(dp80
S'_valign'
p81
S'top'
p82
ssg63
g66
sg56
(lp83
S':'
asbag49
(g70
g51
NtRp84
(dp85
g54
(dp86
sg63
g66
sg56
(lp87
g49
(g50
g51
NtRp88
(dp89
g54
(dp90
g62
I5
ssg63
g84
sg56
(lp91
S'False'
p92
asbasbasbag49
(g65
g51
NtRp93
(dp94
g54
(dp95
sg63
g59
sg56
(lp96
g49
(g70
g51
NtRp97
(dp98
g54
(dp99
g74
g75
ssg63
g93
sg56
(lp100
S'application'
p101
asbag49
(g70
g51
NtRp102
(dp103
g54
(dp104
g81
g82
ssg63
g93
sg56
(lp105
S':'
asbag49
(g70
g51
NtRp106
(dp107
g54
(dp108
sg63
g93
sg56
(lp109
g49
(g50
g51
NtRp110
(dp111
g54
(dp112
g62
I5
ssg63
g106
sg56
(lp113
S'unioeste_code'
p114
asbasbasbag49
(g65
g51
NtRp115
(dp116
g54
(dp117
sg63
g59
sg56
(lp118
g49
(g70
g51
NtRp119
(dp120
g54
(dp121
g74
g75
ssg63
g115
sg56
(lp122
g28
asbag49
(g70
g51
NtRp123
(dp124
g54
(dp125
g81
g82
ssg63
g115
sg56
(lp126
S':'
asbag49
(g70
g51
NtRp127
(dp128
g54
(dp129
sg63
g115
sg56
(lp130
g49
(g50
g51
NtRp131
(dp132
g54
(dp133
g62
I5
ssg63
g127
sg56
(lp134
g49
(g58
g51
NtRp135
(dp136
g54
(dp137
g62
I4
ssg63
Nsg56
(lp138
sbasbasbasbag49
(g65
g51
NtRp139
(dp140
g54
(dp141
sg63
g59
sg56
(lp142
g49
(g70
g51
NtRp143
(dp144
g54
(dp145
g74
g75
ssg63
g139
sg56
(lp146
S'body'
p147
asbag49
(g70
g51
NtRp148
(dp149
g54
(dp150
g81
g82
ssg63
g139
sg56
(lp151
S':'
asbag49
(g70
g51
NtRp152
(dp153
g54
(dp154
sg63
g139
sg56
(lp155
g49
(g50
g51
NtRp156
(dp157
g54
(dp158
g62
I5
ssg63
g152
sg56
(lp159
S'<cStringIO.StringO object at 0x061AD6E0>'
p160
asbasbasbag49
(g65
g51
NtRp161
(dp162
g54
(dp163
sg63
g59
sg56
(lp164
g49
(g70
g51
NtRp165
(dp166
g54
(dp167
g74
g75
ssg63
g161
sg56
(lp168
S'client'
p169
asbag49
(g70
g51
NtRp170
(dp171
g54
(dp172
g81
g82
ssg63
g161
sg56
(lp173
S':'
asbag49
(g70
g51
NtRp174
(dp175
g54
(dp176
sg63
g161
sg56
(lp177
g49
(g50
g51
NtRp178
(dp179
g54
(dp180
g62
I5
ssg63
g174
sg56
(lp181
S'127.0.0.1'
p182
asbasbasbag49
(g65
g51
NtRp183
(dp184
g54
(dp185
sg63
g59
sg56
(lp186
g49
(g70
g51
NtRp187
(dp188
g54
(dp189
g74
g75
ssg63
g183
sg56
(lp190
S'controller'
p191
asbag49
(g70
g51
NtRp192
(dp193
g54
(dp194
g81
g82
ssg63
g183
sg56
(lp195
S':'
asbag49
(g70
g51
NtRp196
(dp197
g54
(dp198
sg63
g183
sg56
(lp199
g49
(g50
g51
NtRp200
(dp201
g54
(dp202
g62
I5
ssg63
g196
sg56
(lp203
S'default'
p204
asbasbasbag49
(g65
g51
NtRp205
(dp206
g54
(dp207
sg63
g59
sg56
(lp208
g49
(g70
g51
NtRp209
(dp210
g54
(dp211
g74
g75
ssg63
g205
sg56
(lp212
S'cookies'
p213
asbag49
(g70
g51
NtRp214
(dp215
g54
(dp216
g81
g82
ssg63
g205
sg56
(lp217
S':'
asbag49
(g70
g51
NtRp218
(dp219
g54
(dp220
sg63
g205
sg56
(lp221
g49
(g50
g51
NtRp222
(dp223
g54
(dp224
g62
I5
ssg63
g218
sg56
(lp225
g49
(g58
g51
NtRp226
(dp227
g54
(dp228
g62
I4
ssg63
Nsg56
(lp229
g49
(g65
g51
NtRp230
(dp231
g54
(dp232
sg63
g226
sg56
(lp233
g49
(g70
g51
NtRp234
(dp235
g54
(dp236
g74
g75
ssg63
g230
sg56
(lp237
S'session_id_unioeste_code'
p238
asbag49
(g70
g51
NtRp239
(dp240
g54
(dp241
g81
g82
ssg63
g230
sg56
(lp242
S':'
asbag49
(g70
g51
NtRp243
(dp244
g54
(dp245
sg63
g230
sg56
(lp246
g49
(g50
g51
NtRp247
(dp248
g54
(dp249
g62
I4
ssg63
g243
sg56
(lp250
g49
(g58
g51
NtRp251
(dp252
g54
(dp253
g62
I3
ssg63
Nsg56
(lp254
g49
(g65
g51
NtRp255
(dp256
g54
(dp257
sg63
g251
sg56
(lp258
g49
(g70
g51
NtRp259
(dp260
g54
(dp261
g74
g75
ssg63
g255
sg56
(lp262
S'comment'
p263
asbag49
(g70
g51
NtRp264
(dp265
g54
(dp266
g81
g82
ssg63
g255
sg56
(lp267
S':'
asbag49
(g70
g51
NtRp268
(dp269
g54
(dp270
sg63
g255
sg56
(lp271
g49
(g50
g51
NtRp272
(dp273
g54
(dp274
g62
I3
ssg63
g268
sg56
(lp275
S''
asbasbasbag49
(g65
g51
NtRp276
(dp277
g54
(dp278
sg63
g251
sg56
(lp279
g49
(g70
g51
NtRp280
(dp281
g54
(dp282
g74
g75
ssg63
g276
sg56
(lp283
S'domain'
p284
asbag49
(g70
g51
NtRp285
(dp286
g54
(dp287
g81
g82
ssg63
g276
sg56
(lp288
S':'
asbag49
(g70
g51
NtRp289
(dp290
g54
(dp291
sg63
g276
sg56
(lp292
g49
(g50
g51
NtRp293
(dp294
g54
(dp295
g62
I3
ssg63
g289
sg56
(lp296
S''
asbasbasbag49
(g65
g51
NtRp297
(dp298
g54
(dp299
sg63
g251
sg56
(lp300
g49
(g70
g51
NtRp301
(dp302
g54
(dp303
g74
g75
ssg63
g297
sg56
(lp304
S'expires'
p305
asbag49
(g70
g51
NtRp306
(dp307
g54
(dp308
g81
g82
ssg63
g297
sg56
(lp309
S':'
asbag49
(g70
g51
NtRp310
(dp311
g54
(dp312
sg63
g297
sg56
(lp313
g49
(g50
g51
NtRp314
(dp315
g54
(dp316
g62
I3
ssg63
g310
sg56
(lp317
S''
asbasbasbag49
(g65
g51
NtRp318
(dp319
g54
(dp320
sg63
g251
sg56
(lp321
g49
(g70
g51
NtRp322
(dp323
g54
(dp324
g74
g75
ssg63
g318
sg56
(lp325
S'max-age'
p326
asbag49
(g70
g51
NtRp327
(dp328
g54
(dp329
g81
g82
ssg63
g318
sg56
(lp330
S':'
asbag49
(g70
g51
NtRp331
(dp332
g54
(dp333
sg63
g318
sg56
(lp334
g49
(g50
g51
NtRp335
(dp336
g54
(dp337
g62
I3
ssg63
g331
sg56
(lp338
S''
asbasbasbag49
(g65
g51
NtRp339
(dp340
g54
(dp341
sg63
g251
sg56
(lp342
g49
(g70
g51
NtRp343
(dp344
g54
(dp345
g74
g75
ssg63
g339
sg56
(lp346
S'path'
p347
asbag49
(g70
g51
NtRp348
(dp349
g54
(dp350
g81
g82
ssg63
g339
sg56
(lp351
S':'
asbag49
(g70
g51
NtRp352
(dp353
g54
(dp354
sg63
g339
sg56
(lp355
g49
(g50
g51
NtRp356
(dp357
g54
(dp358
g62
I3
ssg63
g352
sg56
(lp359
S''
asbasbasbag49
(g65
g51
NtRp360
(dp361
g54
(dp362
sg63
g251
sg56
(lp363
g49
(g70
g51
NtRp364
(dp365
g54
(dp366
g74
g75
ssg63
g360
sg56
(lp367
S'secure'
p368
asbag49
(g70
g51
NtRp369
(dp370
g54
(dp371
g81
g82
ssg63
g360
sg56
(lp372
S':'
asbag49
(g70
g51
NtRp373
(dp374
g54
(dp375
sg63
g360
sg56
(lp376
g49
(g50
g51
NtRp377
(dp378
g54
(dp379
g62
I3
ssg63
g373
sg56
(lp380
S''
asbasbasbag49
(g65
g51
NtRp381
(dp382
g54
(dp383
sg63
g251
sg56
(lp384
g49
(g70
g51
NtRp385
(dp386
g54
(dp387
g74
g75
ssg63
g381
sg56
(lp388
S'version'
p389
asbag49
(g70
g51
NtRp390
(dp391
g54
(dp392
g81
g82
ssg63
g381
sg56
(lp393
S':'
asbag49
(g70
g51
NtRp394
(dp395
g54
(dp396
sg63
g381
sg56
(lp397
g49
(g50
g51
NtRp398
(dp399
g54
(dp400
g62
I3
ssg63
g394
sg56
(lp401
S''
asbasbasbasbasbasbasbasbasbasbasbag49
(g65
g51
NtRp402
(dp403
g54
(dp404
sg63
g59
sg56
(lp405
g49
(g70
g51
NtRp406
(dp407
g54
(dp408
g74
g75
ssg63
g402
sg56
(lp409
S'env'
p410
asbag49
(g70
g51
NtRp411
(dp412
g54
(dp413
g81
g82
ssg63
g402
sg56
(lp414
S':'
asbag49
(g70
g51
NtRp415
(dp416
g54
(dp417
sg63
g402
sg56
(lp418
g49
(g50
g51
NtRp419
(dp420
g54
(dp421
g62
I5
ssg63
g415
sg56
(lp422
g49
(g58
g51
NtRp423
(dp424
g54
(dp425
g62
I4
ssg63
Nsg56
(lp426
g49
(g65
g51
NtRp427
(dp428
g54
(dp429
sg63
g423
sg56
(lp430
g49
(g70
g51
NtRp431
(dp432
g54
(dp433
g74
g75
ssg63
g427
sg56
(lp434
S'app_folders'
p435
asbag49
(g70
g51
NtRp436
(dp437
g54
(dp438
g81
g82
ssg63
g427
sg56
(lp439
S':'
asbag49
(g70
g51
NtRp440
(dp441
g54
(dp442
sg63
g427
sg56
(lp443
g49
(g50
g51
NtRp444
(dp445
g54
(dp446
g62
I4
ssg63
g440
sg56
(lp447
S"set(['C:\\\\web2py\\\\applications\\\\admin\\\\', 'C:\\\\web2py\\\\applications\\\\welcome\\\\', 'C:\\\\web2py\\\\applications\\\\unioeste_code\\\\'])"
p448
asbasbasbag49
(g65
g51
NtRp449
(dp450
g54
(dp451
sg63
g423
sg56
(lp452
g49
(g70
g51
NtRp453
(dp454
g54
(dp455
g74
g75
ssg63
g449
sg56
(lp456
S'applications_parent'
p457
asbag49
(g70
g51
NtRp458
(dp459
g54
(dp460
g81
g82
ssg63
g449
sg56
(lp461
S':'
asbag49
(g70
g51
NtRp462
(dp463
g54
(dp464
sg63
g449
sg56
(lp465
g49
(g50
g51
NtRp466
(dp467
g54
(dp468
g62
I4
ssg63
g462
sg56
(lp469
S'C:\\web2py'
p470
asbasbasbag49
(g65
g51
NtRp471
(dp472
g54
(dp473
sg63
g423
sg56
(lp474
g49
(g70
g51
NtRp475
(dp476
g54
(dp477
g74
g75
ssg63
g471
sg56
(lp478
S'cmd_args'
p479
asbag49
(g70
g51
NtRp480
(dp481
g54
(dp482
g81
g82
ssg63
g471
sg56
(lp483
S':'
asbag49
(g70
g51
NtRp484
(dp485
g54
(dp486
sg63
g471
sg56
(lp487
g49
(g50
g51
NtRp488
(dp489
g54
(dp490
g62
I4
ssg63
g484
sg56
(lp491
g49
(g58
g51
NtRp492
(dp493
g54
(dp494
g62
I3
ssg63
Nsg56
(lp495
sbasbasbasbag49
(g65
g51
NtRp496
(dp497
g54
(dp498
sg63
g423
sg56
(lp499
g49
(g70
g51
NtRp500
(dp501
g54
(dp502
g74
g75
ssg63
g496
sg56
(lp503
S'cmd_options'
p504
asbag49
(g70
g51
NtRp505
(dp506
g54
(dp507
g81
g82
ssg63
g496
sg56
(lp508
S':'
asbag49
(g70
g51
NtRp509
(dp510
g54
(dp511
sg63
g496
sg56
(lp512
g49
(g50
g51
NtRp513
(dp514
g54
(dp515
g62
I4
ssg63
g509
sg56
(lp516
S"<Values at 0x30ec300: {'verbose': False, 'ip': '127.0.0.1', 'shutdown_timeout': 5, 'taskbar': False, 'nocron': False, 'pid_filename': 'httpserver.pid', 'maxthreads': None, 'softcron': False, 'server_name': 'Pedro-PC', 'bpython': False, 'nogui': False, 'port': 8000, 'extcron': False, 'debuglevel': 30, 'test': None, 'folder': 'C:\\\\web2py', 'config': '', 'import_models': False, 'winservice': '', 'shell': None, 'run': '', 'log_filename': 'httpserver.log', 'args': [''], 'socket_timeout': 5, 'ssl_ca_certificate': None, 'scheduler': None, 'profiler_filename': None, 'ssl_private_key': '', 'password': '<ask>', 'request_queue_size': 5, 'ssl_certificate': '', 'cronjob': False, 'numthreads': None, 'quiet': False, 'interfaces': None, 'minthreads': None, 'timeout': 10, 'plain': False, 'nobanner': False}>"
p517
asbasbasbag49
(g65
g51
NtRp518
(dp519
g54
(dp520
sg63
g423
sg56
(lp521
g49
(g70
g51
NtRp522
(dp523
g54
(dp524
g74
g75
ssg63
g518
sg56
(lp525
S'db_sessions'
p526
asbag49
(g70
g51
NtRp527
(dp528
g54
(dp529
g81
g82
ssg63
g518
sg56
(lp530
S':'
asbag49
(g70
g51
NtRp531
(dp532
g54
(dp533
sg63
g518
sg56
(lp534
g49
(g50
g51
NtRp535
(dp536
g54
(dp537
g62
I4
ssg63
g531
sg56
(lp538
S'set([])'
p539
asbasbasbag49
(g65
g51
NtRp540
(dp541
g54
(dp542
sg63
g423
sg56
(lp543
g49
(g70
g51
NtRp544
(dp545
g54
(dp546
g74
g75
ssg63
g540
sg56
(lp547
S'debugging'
p548
asbag49
(g70
g51
NtRp549
(dp550
g54
(dp551
g81
g82
ssg63
g540
sg56
(lp552
S':'
asbag49
(g70
g51
NtRp553
(dp554
g54
(dp555
sg63
g540
sg56
(lp556
g49
(g50
g51
NtRp557
(dp558
g54
(dp559
g62
I4
ssg63
g553
sg56
(lp560
g92
asbasbasbag49
(g65
g51
NtRp561
(dp562
g54
(dp563
sg63
g423
sg56
(lp564
g49
(g70
g51
NtRp565
(dp566
g54
(dp567
g74
g75
ssg63
g561
sg56
(lp568
S'gluon_parent'
p569
asbag49
(g70
g51
NtRp570
(dp571
g54
(dp572
g81
g82
ssg63
g561
sg56
(lp573
S':'
asbag49
(g70
g51
NtRp574
(dp575
g54
(dp576
sg63
g561
sg56
(lp577
g49
(g50
g51
NtRp578
(dp579
g54
(dp580
g62
I4
ssg63
g574
sg56
(lp581
S'C:\\web2py'
p582
asbasbasbag49
(g65
g51
NtRp583
(dp584
g54
(dp585
sg63
g423
sg56
(lp586
g49
(g70
g51
NtRp587
(dp588
g54
(dp589
g74
g75
ssg63
g583
sg56
(lp590
S'http_accept'
p591
asbag49
(g70
g51
NtRp592
(dp593
g54
(dp594
g81
g82
ssg63
g583
sg56
(lp595
S':'
asbag49
(g70
g51
NtRp596
(dp597
g54
(dp598
sg63
g583
sg56
(lp599
g49
(g50
g51
NtRp600
(dp601
g54
(dp602
g62
I4
ssg63
g596
sg56
(lp603
S'text/html,application/xhtml+xml,application/xml;q=0.9,*/*;q=0.8'
p604
asbasbasbag49
(g65
g51
NtRp605
(dp606
g54
(dp607
sg63
g423
sg56
(lp608
g49
(g70
g51
NtRp609
(dp610
g54
(dp611
g74
g75
ssg63
g605
sg56
(lp612
S'http_accept_charset'
p613
asbag49
(g70
g51
NtRp614
(dp615
g54
(dp616
g81
g82
ssg63
g605
sg56
(lp617
S':'
asbag49
(g70
g51
NtRp618
(dp619
g54
(dp620
sg63
g605
sg56
(lp621
g49
(g50
g51
NtRp622
(dp623
g54
(dp624
g62
I4
ssg63
g618
sg56
(lp625
S'ISO-8859-1,utf-8;q=0.7,*;q=0.3'
p626
asbasbasbag49
(g65
g51
NtRp627
(dp628
g54
(dp629
sg63
g423
sg56
(lp630
g49
(g70
g51
NtRp631
(dp632
g54
(dp633
g74
g75
ssg63
g627
sg56
(lp634
S'http_accept_encoding'
p635
asbag49
(g70
g51
NtRp636
(dp637
g54
(dp638
g81
g82
ssg63
g627
sg56
(lp639
S':'
asbag49
(g70
g51
NtRp640
(dp641
g54
(dp642
sg63
g627
sg56
(lp643
g49
(g50
g51
NtRp644
(dp645
g54
(dp646
g62
I4
ssg63
g640
sg56
(lp647
S'gzip,deflate,sdch'
p648
asbasbasbag49
(g65
g51
NtRp649
(dp650
g54
(dp651
sg63
g423
sg56
(lp652
g49
(g70
g51
NtRp653
(dp654
g54
(dp655
g74
g75
ssg63
g649
sg56
(lp656
S'http_accept_language'
p657
asbag49
(g70
g51
NtRp658
(dp659
g54
(dp660
g81
g82
ssg63
g649
sg56
(lp661
S':'
asbag49
(g70
g51
NtRp662
(dp663
g54
(dp664
sg63
g649
sg56
(lp665
g49
(g50
g51
NtRp666
(dp667
g54
(dp668
g62
I4
ssg63
g662
sg56
(lp669
S'pt-BR,pt;q=0.8,en-US;q=0.6,en;q=0.4'
p670
asbasbasbag49
(g65
g51
NtRp671
(dp672
g54
(dp673
sg63
g423
sg56
(lp674
g49
(g70
g51
NtRp675
(dp676
g54
(dp677
g74
g75
ssg63
g671
sg56
(lp678
S'http_cache_control'
p679
asbag49
(g70
g51
NtRp680
(dp681
g54
(dp682
g81
g82
ssg63
g671
sg56
(lp683
S':'
asbag49
(g70
g51
NtRp684
(dp685
g54
(dp686
sg63
g671
sg56
(lp687
g49
(g50
g51
NtRp688
(dp689
g54
(dp690
g62
I4
ssg63
g684
sg56
(lp691
S'max-age=0'
p692
asbasbasbag49
(g65
g51
NtRp693
(dp694
g54
(dp695
sg63
g423
sg56
(lp696
g49
(g70
g51
NtRp697
(dp698
g54
(dp699
g74
g75
ssg63
g693
sg56
(lp700
S'http_connection'
p701
asbag49
(g70
g51
NtRp702
(dp703
g54
(dp704
g81
g82
ssg63
g693
sg56
(lp705
S':'
asbag49
(g70
g51
NtRp706
(dp707
g54
(dp708
sg63
g693
sg56
(lp709
g49
(g50
g51
NtRp710
(dp711
g54
(dp712
g62
I4
ssg63
g706
sg56
(lp713
S'keep-alive'
p714
asbasbasbag49
(g65
g51
NtRp715
(dp716
g54
(dp717
sg63
g423
sg56
(lp718
g49
(g70
g51
NtRp719
(dp720
g54
(dp721
g74
g75
ssg63
g715
sg56
(lp722
S'http_cookie'
p723
asbag49
(g70
g51
NtRp724
(dp725
g54
(dp726
g81
g82
ssg63
g715
sg56
(lp727
S':'
asbag49
(g70
g51
NtRp728
(dp729
g54
(dp730
sg63
g715
sg56
(lp731
g49
(g50
g51
NtRp732
(dp733
g54
(dp734
g62
I4
ssg63
g728
sg56
(lp735
S'session_id_unioeste_code=127.0.0.1-d4490a4c-4db8-4f67-8e5c-3165535103a7'
p736
asbasbasbag49
(g65
g51
NtRp737
(dp738
g54
(dp739
sg63
g423
sg56
(lp740
g49
(g70
g51
NtRp741
(dp742
g54
(dp743
g74
g75
ssg63
g737
sg56
(lp744
S'http_dnt'
p745
asbag49
(g70
g51
NtRp746
(dp747
g54
(dp748
g81
g82
ssg63
g737
sg56
(lp749
S':'
asbag49
(g70
g51
NtRp750
(dp751
g54
(dp752
sg63
g737
sg56
(lp753
g49
(g50
g51
NtRp754
(dp755
g54
(dp756
g62
I4
ssg63
g750
sg56
(lp757
S'1'
asbasbasbag49
(g65
g51
NtRp758
(dp759
g54
(dp760
sg63
g423
sg56
(lp761
g49
(g70
g51
NtRp762
(dp763
g54
(dp764
g74
g75
ssg63
g758
sg56
(lp765
S'http_host'
p766
asbag49
(g70
g51
NtRp767
(dp768
g54
(dp769
g81
g82
ssg63
g758
sg56
(lp770
S':'
asbag49
(g70
g51
NtRp771
(dp772
g54
(dp773
sg63
g758
sg56
(lp774
g49
(g50
g51
NtRp775
(dp776
g54
(dp777
g62
I4
ssg63
g771
sg56
(lp778
S'localhost:8000'
p779
asbasbasbag49
(g65
g51
NtRp780
(dp781
g54
(dp782
sg63
g423
sg56
(lp783
g49
(g70
g51
NtRp784
(dp785
g54
(dp786
g74
g75
ssg63
g780
sg56
(lp787
S'http_user_agent'
p788
asbag49
(g70
g51
NtRp789
(dp790
g54
(dp791
g81
g82
ssg63
g780
sg56
(lp792
S':'
asbag49
(g70
g51
NtRp793
(dp794
g54
(dp795
sg63
g780
sg56
(lp796
g49
(g50
g51
NtRp797
(dp798
g54
(dp799
g62
I4
ssg63
g793
sg56
(lp800
S'Mozilla/5.0 (Windows NT 6.1; WOW64) AppleWebKit/536.11 (KHTML, like Gecko) Chrome/20.0.1132.57 Safari/536.11'
p801
asbasbasbag49
(g65
g51
NtRp802
(dp803
g54
(dp804
sg63
g423
sg56
(lp805
g49
(g70
g51
NtRp806
(dp807
g54
(dp808
g74
g75
ssg63
g802
sg56
(lp809
S'is_jython'
p810
asbag49
(g70
g51
NtRp811
(dp812
g54
(dp813
g81
g82
ssg63
g802
sg56
(lp814
S':'
asbag49
(g70
g51
NtRp815
(dp816
g54
(dp817
sg63
g802
sg56
(lp818
g49
(g50
g51
NtRp819
(dp820
g54
(dp821
g62
I4
ssg63
g815
sg56
(lp822
g92
asbasbasbag49
(g65
g51
NtRp823
(dp824
g54
(dp825
sg63
g423
sg56
(lp826
g49
(g70
g51
NtRp827
(dp828
g54
(dp829
g74
g75
ssg63
g823
sg56
(lp830
S'is_pypy'
p831
asbag49
(g70
g51
NtRp832
(dp833
g54
(dp834
g81
g82
ssg63
g823
sg56
(lp835
S':'
asbag49
(g70
g51
NtRp836
(dp837
g54
(dp838
sg63
g823
sg56
(lp839
g49
(g50
g51
NtRp840
(dp841
g54
(dp842
g62
I4
ssg63
g836
sg56
(lp843
g92
asbasbasbag49
(g65
g51
NtRp844
(dp845
g54
(dp846
sg63
g423
sg56
(lp847
g49
(g70
g51
NtRp848
(dp849
g54
(dp850
g74
g75
ssg63
g844
sg56
(lp851
S'path_info'
p852
asbag49
(g70
g51
NtRp853
(dp854
g54
(dp855
g81
g82
ssg63
g844
sg56
(lp856
S':'
asbag49
(g70
g51
NtRp857
(dp858
g54
(dp859
sg63
g844
sg56
(lp860
g49
(g50
g51
NtRp861
(dp862
g54
(dp863
g62
I4
ssg63
g857
sg56
(lp864
S'/unioeste_code/'
p865
asbasbasbag49
(g65
g51
NtRp866
(dp867
g54
(dp868
sg63
g423
sg56
(lp869
g49
(g70
g51
NtRp870
(dp871
g54
(dp872
g74
g75
ssg63
g866
sg56
(lp873
S'query_string'
p874
asbag49
(g70
g51
NtRp875
(dp876
g54
(dp877
g81
g82
ssg63
g866
sg56
(lp878
S':'
asbag49
(g70
g51
NtRp879
(dp880
g54
(dp881
sg63
g866
sg56
(lp882
g49
(g50
g51
NtRp883
(dp884
g54
(dp885
g62
I4
ssg63
g879
sg56
(lp886
S''
asbasbasbag49
(g65
g51
NtRp887
(dp888
g54
(dp889
sg63
g423
sg56
(lp890
g49
(g70
g51
NtRp891
(dp892
g54
(dp893
g74
g75
ssg63
g887
sg56
(lp894
S'remote_addr'
p895
asbag49
(g70
g51
NtRp896
(dp897
g54
(dp898
g81
g82
ssg63
g887
sg56
(lp899
S':'
asbag49
(g70
g51
NtRp900
(dp901
g54
(dp902
sg63
g887
sg56
(lp903
g49
(g50
g51
NtRp904
(dp905
g54
(dp906
g62
I4
ssg63
g900
sg56
(lp907
g182
asbasbasbag49
(g65
g51
NtRp908
(dp909
g54
(dp910
sg63
g423
sg56
(lp911
g49
(g70
g51
NtRp912
(dp913
g54
(dp914
g74
g75
ssg63
g908
sg56
(lp915
S'remote_port'
p916
asbag49
(g70
g51
NtRp917
(dp918
g54
(dp919
g81
g82
ssg63
g908
sg56
(lp920
S':'
asbag49
(g70
g51
NtRp921
(dp922
g54
(dp923
sg63
g908
sg56
(lp924
g49
(g50
g51
NtRp925
(dp926
g54
(dp927
g62
I4
ssg63
g921
sg56
(lp928
S'3277'
p929
asbasbasbag49
(g65
g51
NtRp930
(dp931
g54
(dp932
sg63
g423
sg56
(lp933
g49
(g70
g51
NtRp934
(dp935
g54
(dp936
g74
g75
ssg63
g930
sg56
(lp937
S'request_method'
p938
asbag49
(g70
g51
NtRp939
(dp940
g54
(dp941
g81
g82
ssg63
g930
sg56
(lp942
S':'
asbag49
(g70
g51
NtRp943
(dp944
g54
(dp945
sg63
g930
sg56
(lp946
g49
(g50
g51
NtRp947
(dp948
g54
(dp949
g62
I4
ssg63
g943
sg56
(lp950
S'GET'
p951
asbasbasbag49
(g65
g51
NtRp952
(dp953
g54
(dp954
sg63
g423
sg56
(lp955
g49
(g70
g51
NtRp956
(dp957
g54
(dp958
g74
g75
ssg63
g952
sg56
(lp959
S'script_name'
p960
asbag49
(g70
g51
NtRp961
(dp962
g54
(dp963
g81
g82
ssg63
g952
sg56
(lp964
S':'
asbag49
(g70
g51
NtRp965
(dp966
g54
(dp967
sg63
g952
sg56
(lp968
g49
(g50
g51
NtRp969
(dp970
g54
(dp971
g62
I4
ssg63
g965
sg56
(lp972
S''
asbasbasbag49
(g65
g51
NtRp973
(dp974
g54
(dp975
sg63
g423
sg56
(lp976
g49
(g70
g51
NtRp977
(dp978
g54
(dp979
g74
g75
ssg63
g973
sg56
(lp980
S'server_name'
p981
asbag49
(g70
g51
NtRp982
(dp983
g54
(dp984
g81
g82
ssg63
g973
sg56
(lp985
S':'
asbag49
(g70
g51
NtRp986
(dp987
g54
(dp988
sg63
g973
sg56
(lp989
g49
(g50
g51
NtRp990
(dp991
g54
(dp992
g62
I4
ssg63
g986
sg56
(lp993
S'Pedro-PC'
p994
asbasbasbag49
(g65
g51
NtRp995
(dp996
g54
(dp997
sg63
g423
sg56
(lp998
g49
(g70
g51
NtRp999
(dp1000
g54
(dp1001
g74
g75
ssg63
g995
sg56
(lp1002
S'server_port'
p1003
asbag49
(g70
g51
NtRp1004
(dp1005
g54
(dp1006
g81
g82
ssg63
g995
sg56
(lp1007
S':'
asbag49
(g70
g51
NtRp1008
(dp1009
g54
(dp1010
sg63
g995
sg56
(lp1011
g49
(g50
g51
NtRp1012
(dp1013
g54
(dp1014
g62
I4
ssg63
g1008
sg56
(lp1015
S'8000'
p1016
asbasbasbag49
(g65
g51
NtRp1017
(dp1018
g54
(dp1019
sg63
g423
sg56
(lp1020
g49
(g70
g51
NtRp1021
(dp1022
g54
(dp1023
g74
g75
ssg63
g1017
sg56
(lp1024
S'server_protocol'
p1025
asbag49
(g70
g51
NtRp1026
(dp1027
g54
(dp1028
g81
g82
ssg63
g1017
sg56
(lp1029
S':'
asbag49
(g70
g51
NtRp1030
(dp1031
g54
(dp1032
sg63
g1017
sg56
(lp1033
g49
(g50
g51
NtRp1034
(dp1035
g54
(dp1036
g62
I4
ssg63
g1030
sg56
(lp1037
S'HTTP/1.1'
p1038
asbasbasbag49
(g65
g51
NtRp1039
(dp1040
g54
(dp1041
sg63
g423
sg56
(lp1042
g49
(g70
g51
NtRp1043
(dp1044
g54
(dp1045
g74
g75
ssg63
g1039
sg56
(lp1046
S'server_software'
p1047
asbag49
(g70
g51
NtRp1048
(dp1049
g54
(dp1050
g81
g82
ssg63
g1039
sg56
(lp1051
S':'
asbag49
(g70
g51
NtRp1052
(dp1053
g54
(dp1054
sg63
g1039
sg56
(lp1055
g49
(g50
g51
NtRp1056
(dp1057
g54
(dp1058
g62
I4
ssg63
g1052
sg56
(lp1059
S'Rocket 1.2.4'
p1060
asbasbasbag49
(g65
g51
NtRp1061
(dp1062
g54
(dp1063
sg63
g423
sg56
(lp1064
g49
(g70
g51
NtRp1065
(dp1066
g54
(dp1067
g74
g75
ssg63
g1061
sg56
(lp1068
S'web2py_crontype'
p1069
asbag49
(g70
g51
NtRp1070
(dp1071
g54
(dp1072
g81
g82
ssg63
g1061
sg56
(lp1073
S':'
asbag49
(g70
g51
NtRp1074
(dp1075
g54
(dp1076
sg63
g1061
sg56
(lp1077
g49
(g50
g51
NtRp1078
(dp1079
g54
(dp1080
g62
I4
ssg63
g1074
sg56
(lp1081
S'hard'
p1082
asbasbasbag49
(g65
g51
NtRp1083
(dp1084
g54
(dp1085
sg63
g423
sg56
(lp1086
g49
(g70
g51
NtRp1087
(dp1088
g54
(dp1089
g74
g75
ssg63
g1083
sg56
(lp1090
S'web2py_path'
p1091
asbag49
(g70
g51
NtRp1092
(dp1093
g54
(dp1094
g81
g82
ssg63
g1083
sg56
(lp1095
S':'
asbag49
(g70
g51
NtRp1096
(dp1097
g54
(dp1098
sg63
g1083
sg56
(lp1099
g49
(g50
g51
NtRp1100
(dp1101
g54
(dp1102
g62
I4
ssg63
g1096
sg56
(lp1103
g470
asbasbasbag49
(g65
g51
NtRp1104
(dp1105
g54
(dp1106
sg63
g423
sg56
(lp1107
g49
(g70
g51
NtRp1108
(dp1109
g54
(dp1110
g74
g75
ssg63
g1104
sg56
(lp1111
S'web2py_version'
p1112
asbag49
(g70
g51
NtRp1113
(dp1114
g54
(dp1115
g81
g82
ssg63
g1104
sg56
(lp1116
S':'
asbag49
(g70
g51
NtRp1117
(dp1118
g54
(dp1119
sg63
g1104
sg56
(lp1120
g49
(g50
g51
NtRp1121
(dp1122
g54
(dp1123
g62
I4
ssg63
g1117
sg56
(lp1124
g49
(g58
g51
NtRp1125
(dp1126
g54
(dp1127
g62
I3
ssg63
Nsg56
(lp1128
g49
(g65
g51
NtRp1129
(dp1130
g54
(dp1131
sg63
g1125
sg56
(lp1132
g49
(g70
g51
NtRp1133
(dp1134
g54
(dp1135
sg63
g1129
sg56
(lp1136
g49
(g50
g51
NtRp1137
(dp1138
g54
(dp1139
g62
I3
ssg63
g1133
sg56
(lp1140
S'1'
asbasbasbag49
(g65
g51
NtRp1141
(dp1142
g54
(dp1143
sg63
g1125
sg56
(lp1144
g49
(g70
g51
NtRp1145
(dp1146
g54
(dp1147
sg63
g1141
sg56
(lp1148
g49
(g50
g51
NtRp1149
(dp1150
g54
(dp1151
g62
I3
ssg63
g1145
sg56
(lp1152
S'99'
p1153
asbasbasbag49
(g65
g51
NtRp1154
(dp1155
g54
(dp1156
sg63
g1125
sg56
(lp1157
g49
(g70
g51
NtRp1158
(dp1159
g54
(dp1160
sg63
g1154
sg56
(lp1161
g49
(g50
g51
NtRp1162
(dp1163
g54
(dp1164
g62
I3
ssg63
g1158
sg56
(lp1165
S'7'
asbasbasbag49
(g65
g51
NtRp1166
(dp1167
g54
(dp1168
sg63
g1125
sg56
(lp1169
g49
(g70
g51
NtRp1170
(dp1171
g54
(dp1172
sg63
g1166
sg56
(lp1173
g49
(g50
g51
NtRp1174
(dp1175
g54
(dp1176
g62
I3
ssg63
g1170
sg56
(lp1177
S'datetime.datetime(2012, 3, 4, 22, 12, 8)'
p1178
asbasbasbag49
(g65
g51
NtRp1179
(dp1180
g54
(dp1181
sg63
g1125
sg56
(lp1182
g49
(g70
g51
NtRp1183
(dp1184
g54
(dp1185
sg63
g1179
sg56
(lp1186
g49
(g50
g51
NtRp1187
(dp1188
g54
(dp1189
g62
I3
ssg63
g1183
sg56
(lp1190
S'stable'
p1191
asbasbasbasbasbasbasbag49
(g65
g51
NtRp1192
(dp1193
g54
(dp1194
sg63
g423
sg56
(lp1195
g49
(g70
g51
NtRp1196
(dp1197
g54
(dp1198
g74
g75
ssg63
g1192
sg56
(lp1199
S'wsgi_errors'
p1200
asbag49
(g70
g51
NtRp1201
(dp1202
g54
(dp1203
g81
g82
ssg63
g1192
sg56
(lp1204
S':'
asbag49
(g70
g51
NtRp1205
(dp1206
g54
(dp1207
sg63
g1192
sg56
(lp1208
g49
(g50
g51
NtRp1209
(dp1210
g54
(dp1211
g62
I4
ssg63
g1205
sg56
(lp1212
S'<__main__.Stderr object at 0x01FA6670>'
p1213
asbasbasbag49
(g65
g51
NtRp1214
(dp1215
g54
(dp1216
sg63
g423
sg56
(lp1217
g49
(g70
g51
NtRp1218
(dp1219
g54
(dp1220
g74
g75
ssg63
g1214
sg56
(lp1221
S'wsgi_file_wrapper'
p1222
asbag49
(g70
g51
NtRp1223
(dp1224
g54
(dp1225
g81
g82
ssg63
g1214
sg56
(lp1226
S':'
asbag49
(g70
g51
NtRp1227
(dp1228
g54
(dp1229
sg63
g1214
sg56
(lp1230
g49
(g50
g51
NtRp1231
(dp1232
g54
(dp1233
g62
I4
ssg63
g1227
sg56
(lp1234
S'<class wsgiref.util.FileWrapper at 0x02EDDE10>'
p1235
asbasbasbag49
(g65
g51
NtRp1236
(dp1237
g54
(dp1238
sg63
g423
sg56
(lp1239
g49
(g70
g51
NtRp1240
(dp1241
g54
(dp1242
g74
g75
ssg63
g1236
sg56
(lp1243
S'wsgi_input'
p1244
asbag49
(g70
g51
NtRp1245
(dp1246
g54
(dp1247
g81
g82
ssg63
g1236
sg56
(lp1248
S':'
asbag49
(g70
g51
NtRp1249
(dp1250
g54
(dp1251
sg63
g1236
sg56
(lp1252
g49
(g50
g51
NtRp1253
(dp1254
g54
(dp1255
g62
I4
ssg63
g1249
sg56
(lp1256
S'<socket._fileobject object at 0x061AEAF0>'
p1257
asbasbasbag49
(g65
g51
NtRp1258
(dp1259
g54
(dp1260
sg63
g423
sg56
(lp1261
g49
(g70
g51
NtRp1262
(dp1263
g54
(dp1264
g74
g75
ssg63
g1258
sg56
(lp1265
S'wsgi_multiprocess'
p1266
asbag49
(g70
g51
NtRp1267
(dp1268
g54
(dp1269
g81
g82
ssg63
g1258
sg56
(lp1270
S':'
asbag49
(g70
g51
NtRp1271
(dp1272
g54
(dp1273
sg63
g1258
sg56
(lp1274
g49
(g50
g51
NtRp1275
(dp1276
g54
(dp1277
g62
I4
ssg63
g1271
sg56
(lp1278
g92
asbasbasbag49
(g65
g51
NtRp1279
(dp1280
g54
(dp1281
sg63
g423
sg56
(lp1282
g49
(g70
g51
NtRp1283
(dp1284
g54
(dp1285
g74
g75
ssg63
g1279
sg56
(lp1286
S'wsgi_multithread'
p1287
asbag49
(g70
g51
NtRp1288
(dp1289
g54
(dp1290
g81
g82
ssg63
g1279
sg56
(lp1291
S':'
asbag49
(g70
g51
NtRp1292
(dp1293
g54
(dp1294
sg63
g1279
sg56
(lp1295
g49
(g50
g51
NtRp1296
(dp1297
g54
(dp1298
g62
I4
ssg63
g1292
sg56
(lp1299
S'True'
p1300
asbasbasbag49
(g65
g51
NtRp1301
(dp1302
g54
(dp1303
sg63
g423
sg56
(lp1304
g49
(g70
g51
NtRp1305
(dp1306
g54
(dp1307
g74
g75
ssg63
g1301
sg56
(lp1308
S'wsgi_run_once'
p1309
asbag49
(g70
g51
NtRp1310
(dp1311
g54
(dp1312
g81
g82
ssg63
g1301
sg56
(lp1313
S':'
asbag49
(g70
g51
NtRp1314
(dp1315
g54
(dp1316
sg63
g1301
sg56
(lp1317
g49
(g50
g51
NtRp1318
(dp1319
g54
(dp1320
g62
I4
ssg63
g1314
sg56
(lp1321
g92
asbasbasbag49
(g65
g51
NtRp1322
(dp1323
g54
(dp1324
sg63
g423
sg56
(lp1325
g49
(g70
g51
NtRp1326
(dp1327
g54
(dp1328
g74
g75
ssg63
g1322
sg56
(lp1329
S'wsgi_url_scheme'
p1330
asbag49
(g70
g51
NtRp1331
(dp1332
g54
(dp1333
g81
g82
ssg63
g1322
sg56
(lp1334
S':'
asbag49
(g70
g51
NtRp1335
(dp1336
g54
(dp1337
sg63
g1322
sg56
(lp1338
g49
(g50
g51
NtRp1339
(dp1340
g54
(dp1341
g62
I4
ssg63
g1335
sg56
(lp1342
S'http'
p1343
asbasbasbag49
(g65
g51
NtRp1344
(dp1345
g54
(dp1346
sg63
g423
sg56
(lp1347
g49
(g70
g51
NtRp1348
(dp1349
g54
(dp1350
g74
g75
ssg63
g1344
sg56
(lp1351
S'wsgi_version'
p1352
asbag49
(g70
g51
NtRp1353
(dp1354
g54
(dp1355
g81
g82
ssg63
g1344
sg56
(lp1356
S':'
asbag49
(g70
g51
NtRp1357
(dp1358
g54
(dp1359
sg63
g1344
sg56
(lp1360
g49
(g50
g51
NtRp1361
(dp1362
g54
(dp1363
g62
I4
ssg63
g1357
sg56
(lp1364
g49
(g58
g51
NtRp1365
(dp1366
g54
(dp1367
g62
I3
ssg63
Nsg56
(lp1368
g49
(g65
g51
NtRp1369
(dp1370
g54
(dp1371
sg63
g1365
sg56
(lp1372
g49
(g70
g51
NtRp1373
(dp1374
g54
(dp1375
sg63
g1369
sg56
(lp1376
g49
(g50
g51
NtRp1377
(dp1378
g54
(dp1379
g62
I3
ssg63
g1373
sg56
(lp1380
S'1'
asbasbasbag49
(g65
g51
NtRp1381
(dp1382
g54
(dp1383
sg63
g1365
sg56
(lp1384
g49
(g70
g51
NtRp1385
(dp1386
g54
(dp1387
sg63
g1381
sg56
(lp1388
g49
(g50
g51
NtRp1389
(dp1390
g54
(dp1391
g62
I3
ssg63
g1385
sg56
(lp1392
S'0'
asbasbasbasbasbasbasbasbasbasbasbag49
(g65
g51
NtRp1393
(dp1394
g54
(dp1395
sg63
g59
sg56
(lp1396
g49
(g70
g51
NtRp1397
(dp1398
g54
(dp1399
g74
g75
ssg63
g1393
sg56
(lp1400
S'extension'
p1401
asbag49
(g70
g51
NtRp1402
(dp1403
g54
(dp1404
g81
g82
ssg63
g1393
sg56
(lp1405
S':'
asbag49
(g70
g51
NtRp1406
(dp1407
g54
(dp1408
sg63
g1393
sg56
(lp1409
g49
(g50
g51
NtRp1410
(dp1411
g54
(dp1412
g62
I5
ssg63
g1406
sg56
(lp1413
S'html'
p1414
asbasbasbag49
(g65
g51
NtRp1415
(dp1416
g54
(dp1417
sg63
g59
sg56
(lp1418
g49
(g70
g51
NtRp1419
(dp1420
g54
(dp1421
g74
g75
ssg63
g1415
sg56
(lp1422
S'folder'
p1423
asbag49
(g70
g51
NtRp1424
(dp1425
g54
(dp1426
g81
g82
ssg63
g1415
sg56
(lp1427
S':'
asbag49
(g70
g51
NtRp1428
(dp1429
g54
(dp1430
sg63
g1415
sg56
(lp1431
g49
(g50
g51
NtRp1432
(dp1433
g54
(dp1434
g62
I5
ssg63
g1428
sg56
(lp1435
S'C:\\web2py\\applications\\unioeste_code\\'
p1436
asbasbasbag49
(g65
g51
NtRp1437
(dp1438
g54
(dp1439
sg63
g59
sg56
(lp1440
g49
(g70
g51
NtRp1441
(dp1442
g54
(dp1443
g74
g75
ssg63
g1437
sg56
(lp1444
S'function'
p1445
asbag49
(g70
g51
NtRp1446
(dp1447
g54
(dp1448
g81
g82
ssg63
g1437
sg56
(lp1449
S':'
asbag49
(g70
g51
NtRp1450
(dp1451
g54
(dp1452
sg63
g1437
sg56
(lp1453
g49
(g50
g51
NtRp1454
(dp1455
g54
(dp1456
g62
I5
ssg63
g1450
sg56
(lp1457
S'index'
p1458
asbasbasbag49
(g65
g51
NtRp1459
(dp1460
g54
(dp1461
sg63
g59
sg56
(lp1462
g49
(g70
g51
NtRp1463
(dp1464
g54
(dp1465
g74
g75
ssg63
g1459
sg56
(lp1466
S'get_vars'
p1467
asbag49
(g70
g51
NtRp1468
(dp1469
g54
(dp1470
g81
g82
ssg63
g1459
sg56
(lp1471
S':'
asbag49
(g70
g51
NtRp1472
(dp1473
g54
(dp1474
sg63
g1459
sg56
(lp1475
g49
(g50
g51
NtRp1476
(dp1477
g54
(dp1478
g62
I5
ssg63
g1472
sg56
(lp1479
g49
(g58
g51
NtRp1480
(dp1481
g54
(dp1482
g62
I4
ssg63
Nsg56
(lp1483
sbasbasbasbag49
(g65
g51
NtRp1484
(dp1485
g54
(dp1486
sg63
g59
sg56
(lp1487
g49
(g70
g51
NtRp1488
(dp1489
g54
(dp1490
g74
g75
ssg63
g1484
sg56
(lp1491
S'global_settings'
p1492
asbag49
(g70
g51
NtRp1493
(dp1494
g54
(dp1495
g81
g82
ssg63
g1484
sg56
(lp1496
S':'
asbag49
(g70
g51
NtRp1497
(dp1498
g54
(dp1499
sg63
g1484
sg56
(lp1500
g49
(g50
g51
NtRp1501
(dp1502
g54
(dp1503
g62
I5
ssg63
g1497
sg56
(lp1504
g49
(g58
g51
NtRp1505
(dp1506
g54
(dp1507
g62
I4
ssg63
Nsg56
(lp1508
g49
(g65
g51
NtRp1509
(dp1510
g54
(dp1511
sg63
g1505
sg56
(lp1512
g49
(g70
g51
NtRp1513
(dp1514
g54
(dp1515
g74
g75
ssg63
g1509
sg56
(lp1516
g435
asbag49
(g70
g51
NtRp1517
(dp1518
g54
(dp1519
g81
g82
ssg63
g1509
sg56
(lp1520
S':'
asbag49
(g70
g51
NtRp1521
(dp1522
g54
(dp1523
sg63
g1509
sg56
(lp1524
g49
(g50
g51
NtRp1525
(dp1526
g54
(dp1527
g62
I4
ssg63
g1521
sg56
(lp1528
S"set(['C:\\\\web2py\\\\applications\\\\admin\\\\', 'C:\\\\web2py\\\\applications\\\\welcome\\\\', 'C:\\\\web2py\\\\applications\\\\unioeste_code\\\\'])"
p1529
asbasbasbag49
(g65
g51
NtRp1530
(dp1531
g54
(dp1532
sg63
g1505
sg56
(lp1533
g49
(g70
g51
NtRp1534
(dp1535
g54
(dp1536
g74
g75
ssg63
g1530
sg56
(lp1537
g457
asbag49
(g70
g51
NtRp1538
(dp1539
g54
(dp1540
g81
g82
ssg63
g1530
sg56
(lp1541
S':'
asbag49
(g70
g51
NtRp1542
(dp1543
g54
(dp1544
sg63
g1530
sg56
(lp1545
g49
(g50
g51
NtRp1546
(dp1547
g54
(dp1548
g62
I4
ssg63
g1542
sg56
(lp1549
g470
asbasbasbag49
(g65
g51
NtRp1550
(dp1551
g54
(dp1552
sg63
g1505
sg56
(lp1553
g49
(g70
g51
NtRp1554
(dp1555
g54
(dp1556
g74
g75
ssg63
g1550
sg56
(lp1557
g479
asbag49
(g70
g51
NtRp1558
(dp1559
g54
(dp1560
g81
g82
ssg63
g1550
sg56
(lp1561
S':'
asbag49
(g70
g51
NtRp1562
(dp1563
g54
(dp1564
sg63
g1550
sg56
(lp1565
g49
(g50
g51
NtRp1566
(dp1567
g54
(dp1568
g62
I4
ssg63
g1562
sg56
(lp1569
g49
(g58
g51
NtRp1570
(dp1571
g54
(dp1572
g62
I3
ssg63
Nsg56
(lp1573
sbasbasbasbag49
(g65
g51
NtRp1574
(dp1575
g54
(dp1576
sg63
g1505
sg56
(lp1577
g49
(g70
g51
NtRp1578
(dp1579
g54
(dp1580
g74
g75
ssg63
g1574
sg56
(lp1581
g504
asbag49
(g70
g51
NtRp1582
(dp1583
g54
(dp1584
g81
g82
ssg63
g1574
sg56
(lp1585
S':'
asbag49
(g70
g51
NtRp1586
(dp1587
g54
(dp1588
sg63
g1574
sg56
(lp1589
g49
(g50
g51
NtRp1590
(dp1591
g54
(dp1592
g62
I4
ssg63
g1586
sg56
(lp1593
S"<Values at 0x30ec300: {'verbose': False, 'ip': '127.0.0.1', 'shutdown_timeout': 5, 'taskbar': False, 'nocron': False, 'pid_filename': 'httpserver.pid', 'maxthreads': None, 'softcron': False, 'server_name': 'Pedro-PC', 'bpython': False, 'nogui': False, 'port': 8000, 'extcron': False, 'debuglevel': 30, 'test': None, 'folder': 'C:\\\\web2py', 'config': '', 'import_models': False, 'winservice': '', 'shell': None, 'run': '', 'log_filename': 'httpserver.log', 'args': [''], 'socket_timeout': 5, 'ssl_ca_certificate': None, 'scheduler': None, 'profiler_filename': None, 'ssl_private_key': '', 'password': '<ask>', 'request_queue_size': 5, 'ssl_certificate': '', 'cronjob': False, 'numthreads': None, 'quiet': False, 'interfaces': None, 'minthreads': None, 'timeout': 10, 'plain': False, 'nobanner': False}>"
p1594
asbasbasbag49
(g65
g51
NtRp1595
(dp1596
g54
(dp1597
sg63
g1505
sg56
(lp1598
g49
(g70
g51
NtRp1599
(dp1600
g54
(dp1601
g74
g75
ssg63
g1595
sg56
(lp1602
g526
asbag49
(g70
g51
NtRp1603
(dp1604
g54
(dp1605
g81
g82
ssg63
g1595
sg56
(lp1606
S':'
asbag49
(g70
g51
NtRp1607
(dp1608
g54
(dp1609
sg63
g1595
sg56
(lp1610
g49
(g50
g51
NtRp1611
(dp1612
g54
(dp1613
g62
I4
ssg63
g1607
sg56
(lp1614
S'set([])'
p1615
asbasbasbag49
(g65
g51
NtRp1616
(dp1617
g54
(dp1618
sg63
g1505
sg56
(lp1619
g49
(g70
g51
NtRp1620
(dp1621
g54
(dp1622
g74
g75
ssg63
g1616
sg56
(lp1623
g548
asbag49
(g70
g51
NtRp1624
(dp1625
g54
(dp1626
g81
g82
ssg63
g1616
sg56
(lp1627
S':'
asbag49
(g70
g51
NtRp1628
(dp1629
g54
(dp1630
sg63
g1616
sg56
(lp1631
g49
(g50
g51
NtRp1632
(dp1633
g54
(dp1634
g62
I4
ssg63
g1628
sg56
(lp1635
g92
asbasbasbag49
(g65
g51
NtRp1636
(dp1637
g54
(dp1638
sg63
g1505
sg56
(lp1639
g49
(g70
g51
NtRp1640
(dp1641
g54
(dp1642
g74
g75
ssg63
g1636
sg56
(lp1643
g569
asbag49
(g70
g51
NtRp1644
(dp1645
g54
(dp1646
g81
g82
ssg63
g1636
sg56
(lp1647
S':'
asbag49
(g70
g51
NtRp1648
(dp1649
g54
(dp1650
sg63
g1636
sg56
(lp1651
g49
(g50
g51
NtRp1652
(dp1653
g54
(dp1654
g62
I4
ssg63
g1648
sg56
(lp1655
g582
asbasbasbag49
(g65
g51
NtRp1656
(dp1657
g54
(dp1658
sg63
g1505
sg56
(lp1659
g49
(g70
g51
NtRp1660
(dp1661
g54
(dp1662
g74
g75
ssg63
g1656
sg56
(lp1663
g810
asbag49
(g70
g51
NtRp1664
(dp1665
g54
(dp1666
g81
g82
ssg63
g1656
sg56
(lp1667
S':'
asbag49
(g70
g51
NtRp1668
(dp1669
g54
(dp1670
sg63
g1656
sg56
(lp1671
g49
(g50
g51
NtRp1672
(dp1673
g54
(dp1674
g62
I4
ssg63
g1668
sg56
(lp1675
g92
asbasbasbag49
(g65
g51
NtRp1676
(dp1677
g54
(dp1678
sg63
g1505
sg56
(lp1679
g49
(g70
g51
NtRp1680
(dp1681
g54
(dp1682
g74
g75
ssg63
g1676
sg56
(lp1683
g831
asbag49
(g70
g51
NtRp1684
(dp1685
g54
(dp1686
g81
g82
ssg63
g1676
sg56
(lp1687
S':'
asbag49
(g70
g51
NtRp1688
(dp1689
g54
(dp1690
sg63
g1676
sg56
(lp1691
g49
(g50
g51
NtRp1692
(dp1693
g54
(dp1694
g62
I4
ssg63
g1688
sg56
(lp1695
g92
asbasbasbag49
(g65
g51
NtRp1696
(dp1697
g54
(dp1698
sg63
g1505
sg56
(lp1699
g49
(g70
g51
NtRp1700
(dp1701
g54
(dp1702
g74
g75
ssg63
g1696
sg56
(lp1703
g1069
asbag49
(g70
g51
NtRp1704
(dp1705
g54
(dp1706
g81
g82
ssg63
g1696
sg56
(lp1707
S':'
asbag49
(g70
g51
NtRp1708
(dp1709
g54
(dp1710
sg63
g1696
sg56
(lp1711
g49
(g50
g51
NtRp1712
(dp1713
g54
(dp1714
g62
I4
ssg63
g1708
sg56
(lp1715
g1082
asbasbasbag49
(g65
g51
NtRp1716
(dp1717
g54
(dp1718
sg63
g1505
sg56
(lp1719
g49
(g70
g51
NtRp1720
(dp1721
g54
(dp1722
g74
g75
ssg63
g1716
sg56
(lp1723
g1112
asbag49
(g70
g51
NtRp1724
(dp1725
g54
(dp1726
g81
g82
ssg63
g1716
sg56
(lp1727
S':'
asbag49
(g70
g51
NtRp1728
(dp1729
g54
(dp1730
sg63
g1716
sg56
(lp1731
g49
(g50
g51
NtRp1732
(dp1733
g54
(dp1734
g62
I4
ssg63
g1728
sg56
(lp1735
g49
(g58
g51
NtRp1736
(dp1737
g54
(dp1738
g62
I3
ssg63
Nsg56
(lp1739
g49
(g65
g51
NtRp1740
(dp1741
g54
(dp1742
sg63
g1736
sg56
(lp1743
g49
(g70
g51
NtRp1744
(dp1745
g54
(dp1746
sg63
g1740
sg56
(lp1747
g49
(g50
g51
NtRp1748
(dp1749
g54
(dp1750
g62
I3
ssg63
g1744
sg56
(lp1751
S'1'
asbasbasbag49
(g65
g51
NtRp1752
(dp1753
g54
(dp1754
sg63
g1736
sg56
(lp1755
g49
(g70
g51
NtRp1756
(dp1757
g54
(dp1758
sg63
g1752
sg56
(lp1759
g49
(g50
g51
NtRp1760
(dp1761
g54
(dp1762
g62
I3
ssg63
g1756
sg56
(lp1763
S'99'
p1764
asbasbasbag49
(g65
g51
NtRp1765
(dp1766
g54
(dp1767
sg63
g1736
sg56
(lp1768
g49
(g70
g51
NtRp1769
(dp1770
g54
(dp1771
sg63
g1765
sg56
(lp1772
g49
(g50
g51
NtRp1773
(dp1774
g54
(dp1775
g62
I3
ssg63
g1769
sg56
(lp1776
S'7'
asbasbasbag49
(g65
g51
NtRp1777
(dp1778
g54
(dp1779
sg63
g1736
sg56
(lp1780
g49
(g70
g51
NtRp1781
(dp1782
g54
(dp1783
sg63
g1777
sg56
(lp1784
g49
(g50
g51
NtRp1785
(dp1786
g54
(dp1787
g62
I3
ssg63
g1781
sg56
(lp1788
S'datetime.datetime(2012, 3, 4, 22, 12, 8)'
p1789
asbasbasbag49
(g65
g51
NtRp1790
(dp1791
g54
(dp1792
sg63
g1736
sg56
(lp1793
g49
(g70
g51
NtRp1794
(dp1795
g54
(dp1796
sg63
g1790
sg56
(lp1797
g49
(g50
g51
NtRp1798
(dp1799
g54
(dp1800
g62
I3
ssg63
g1794
sg56
(lp1801
g1191
asbasbasbasbasbasbasbasbasbasbasbag49
(g65
g51
NtRp1802
(dp1803
g54
(dp1804
sg63
g59
sg56
(lp1805
g49
(g70
g51
NtRp1806
(dp1807
g54
(dp1808
g74
g75
ssg63
g1802
sg56
(lp1809
S'is_https'
p1810
asbag49
(g70
g51
NtRp1811
(dp1812
g54
(dp1813
g81
g82
ssg63
g1802
sg56
(lp1814
S':'
asbag49
(g70
g51
NtRp1815
(dp1816
g54
(dp1817
sg63
g1802
sg56
(lp1818
g49
(g50
g51
NtRp1819
(dp1820
g54
(dp1821
g62
I5
ssg63
g1815
sg56
(lp1822
g92
asbasbasbag49
(g65
g51
NtRp1823
(dp1824
g54
(dp1825
sg63
g59
sg56
(lp1826
g49
(g70
g51
NtRp1827
(dp1828
g54
(dp1829
g74
g75
ssg63
g1823
sg56
(lp1830
S'is_local'
p1831
asbag49
(g70
g51
NtRp1832
(dp1833
g54
(dp1834
g81
g82
ssg63
g1823
sg56
(lp1835
S':'
asbag49
(g70
g51
NtRp1836
(dp1837
g54
(dp1838
sg63
g1823
sg56
(lp1839
g49
(g50
g51
NtRp1840
(dp1841
g54
(dp1842
g62
I5
ssg63
g1836
sg56
(lp1843
g1300
asbasbasbag49
(g65
g51
NtRp1844
(dp1845
g54
(dp1846
sg63
g59
sg56
(lp1847
g49
(g70
g51
NtRp1848
(dp1849
g54
(dp1850
g74
g75
ssg63
g1844
sg56
(lp1851
S'is_restful'
p1852
asbag49
(g70
g51
NtRp1853
(dp1854
g54
(dp1855
g81
g82
ssg63
g1844
sg56
(lp1856
S':'
asbag49
(g70
g51
NtRp1857
(dp1858
g54
(dp1859
sg63
g1844
sg56
(lp1860
g49
(g50
g51
NtRp1861
(dp1862
g54
(dp1863
g62
I5
ssg63
g1857
sg56
(lp1864
g92
asbasbasbag49
(g65
g51
NtRp1865
(dp1866
g54
(dp1867
sg63
g59
sg56
(lp1868
g49
(g70
g51
NtRp1869
(dp1870
g54
(dp1871
g74
g75
ssg63
g1865
sg56
(lp1872
S'now'
p1873
asbag49
(g70
g51
NtRp1874
(dp1875
g54
(dp1876
g81
g82
ssg63
g1865
sg56
(lp1877
S':'
asbag49
(g70
g51
NtRp1878
(dp1879
g54
(dp1880
sg63
g1865
sg56
(lp1881
g49
(g50
g51
NtRp1882
(dp1883
g54
(dp1884
g62
I5
ssg63
g1878
sg56
(lp1885
S'datetime.datetime(2012, 7, 31, 15, 42, 27, 988000)'
p1886
asbasbasbag49
(g65
g51
NtRp1887
(dp1888
g54
(dp1889
sg63
g59
sg56
(lp1890
g49
(g70
g51
NtRp1891
(dp1892
g54
(dp1893
g74
g75
ssg63
g1887
sg56
(lp1894
S'post_vars'
p1895
asbag49
(g70
g51
NtRp1896
(dp1897
g54
(dp1898
g81
g82
ssg63
g1887
sg56
(lp1899
S':'
asbag49
(g70
g51
NtRp1900
(dp1901
g54
(dp1902
sg63
g1887
sg56
(lp1903
g49
(g50
g51
NtRp1904
(dp1905
g54
(dp1906
g62
I5
ssg63
g1900
sg56
(lp1907
g49
(g58
g51
NtRp1908
(dp1909
g54
(dp1910
g62
I4
ssg63
Nsg56
(lp1911
sbasbasbasbag49
(g65
g51
NtRp1912
(dp1913
g54
(dp1914
sg63
g59
sg56
(lp1915
g49
(g70
g51
NtRp1916
(dp1917
g54
(dp1918
g74
g75
ssg63
g1912
sg56
(lp1919
S'url'
p1920
asbag49
(g70
g51
NtRp1921
(dp1922
g54
(dp1923
g81
g82
ssg63
g1912
sg56
(lp1924
S':'
asbag49
(g70
g51
NtRp1925
(dp1926
g54
(dp1927
sg63
g1912
sg56
(lp1928
g49
(g50
g51
NtRp1929
(dp1930
g54
(dp1931
g62
I5
ssg63
g1925
sg56
(lp1932
S'/unioeste_code/default/index'
p1933
asbasbasbag49
(g65
g51
NtRp1934
(dp1935
g54
(dp1936
sg63
g59
sg56
(lp1937
g49
(g70
g51
NtRp1938
(dp1939
g54
(dp1940
g74
g75
ssg63
g1934
sg56
(lp1941
S'utcnow'
p1942
asbag49
(g70
g51
NtRp1943
(dp1944
g54
(dp1945
g81
g82
ssg63
g1934
sg56
(lp1946
S':'
asbag49
(g70
g51
NtRp1947
(dp1948
g54
(dp1949
sg63
g1934
sg56
(lp1950
g49
(g50
g51
NtRp1951
(dp1952
g54
(dp1953
g62
I5
ssg63
g1947
sg56
(lp1954
S'datetime.datetime(2012, 7, 31, 18, 42, 27, 988000)'
p1955
asbasbasbag49
(g65
g51
NtRp1956
(dp1957
g54
(dp1958
sg63
g59
sg56
(lp1959
g49
(g70
g51
NtRp1960
(dp1961
g54
(dp1962
g74
g75
ssg63
g1956
sg56
(lp1963
S'uuid'
p1964
asbag49
(g70
g51
NtRp1965
(dp1966
g54
(dp1967
g81
g82
ssg63
g1956
sg56
(lp1968
S':'
asbag49
(g70
g51
NtRp1969
(dp1970
g54
(dp1971
sg63
g1956
sg56
(lp1972
g49
(g50
g51
NtRp1973
(dp1974
g54
(dp1975
g62
I5
ssg63
g1969
sg56
(lp1976
S'unioeste_code/127.0.0.1.2012-07-31.15-42-27.5bf19c02-4723-498a-91d3-7300ec230398'
p1977
asbasbasbag49
(g65
g51
NtRp1978
(dp1979
g54
(dp1980
sg63
g59
sg56
(lp1981
g49
(g70
g51
NtRp1982
(dp1983
g54
(dp1984
g74
g75
ssg63
g1978
sg56
(lp1985
S'vars'
p1986
asbag49
(g70
g51
NtRp1987
(dp1988
g54
(dp1989
g81
g82
ssg63
g1978
sg56
(lp1990
S':'
asbag49
(g70
g51
NtRp1991
(dp1992
g54
(dp1993
sg63
g1978
sg56
(lp1994
g49
(g50
g51
NtRp1995
(dp1996
g54
(dp1997
g62
I5
ssg63
g1991
sg56
(lp1998
g49
(g58
g51
NtRp1999
(dp2000
g54
(dp2001
g62
I4
ssg63
Nsg56
(lp2002
sbasbasbasbag49
(g65
g51
NtRp2003
(dp2004
g54
(dp2005
sg63
g59
sg56
(lp2006
g49
(g70
g51
NtRp2007
(dp2008
g54
(dp2009
g74
g75
ssg63
g2003
sg56
(lp2010
S'wsgi'
p2011
asbag49
(g70
g51
NtRp2012
(dp2013
g54
(dp2014
g81
g82
ssg63
g2003
sg56
(lp2015
S':'
asbag49
(g70
g51
NtRp2016
(dp2017
g54
(dp2018
sg63
g2003
sg56
(lp2019
g49
(g50
g51
NtRp2020
(dp2021
g54
(dp2022
g62
I5
ssg63
g2016
sg56
(lp2023
g49
(g58
g51
NtRp2024
(dp2025
g54
(dp2026
g62
I4
ssg63
Nsg56
(lp2027
g49
(g65
g51
NtRp2028
(dp2029
g54
(dp2030
sg63
g2024
sg56
(lp2031
g49
(g70
g51
NtRp2032
(dp2033
g54
(dp2034
g74
g75
ssg63
g2028
sg56
(lp2035
S'environ'
p2036
asbag49
(g70
g51
NtRp2037
(dp2038
g54
(dp2039
g81
g82
ssg63
g2028
sg56
(lp2040
S':'
asbag49
(g70
g51
NtRp2041
(dp2042
g54
(dp2043
sg63
g2028
sg56
(lp2044
g49
(g50
g51
NtRp2045
(dp2046
g54
(dp2047
g62
I4
ssg63
g2041
sg56
(lp2048
g49
(g58
g51
NtRp2049
(dp2050
g54
(dp2051
g62
I3
ssg63
Nsg56
(lp2052
g49
(g65
g51
NtRp2053
(dp2054
g54
(dp2055
sg63
g2049
sg56
(lp2056
g49
(g70
g51
NtRp2057
(dp2058
g54
(dp2059
g74
g75
ssg63
g2053
sg56
(lp2060
S'HTTP_ACCEPT'
p2061
asbag49
(g70
g51
NtRp2062
(dp2063
g54
(dp2064
g81
g82
ssg63
g2053
sg56
(lp2065
S':'
asbag49
(g70
g51
NtRp2066
(dp2067
g54
(dp2068
sg63
g2053
sg56
(lp2069
g49
(g50
g51
NtRp2070
(dp2071
g54
(dp2072
g62
I3
ssg63
g2066
sg56
(lp2073
g604
asbasbasbag49
(g65
g51
NtRp2074
(dp2075
g54
(dp2076
sg63
g2049
sg56
(lp2077
g49
(g70
g51
NtRp2078
(dp2079
g54
(dp2080
g74
g75
ssg63
g2074
sg56
(lp2081
S'HTTP_ACCEPT_CHARSET'
p2082
asbag49
(g70
g51
NtRp2083
(dp2084
g54
(dp2085
g81
g82
ssg63
g2074
sg56
(lp2086
S':'
asbag49
(g70
g51
NtRp2087
(dp2088
g54
(dp2089
sg63
g2074
sg56
(lp2090
g49
(g50
g51
NtRp2091
(dp2092
g54
(dp2093
g62
I3
ssg63
g2087
sg56
(lp2094
g626
asbasbasbag49
(g65
g51
NtRp2095
(dp2096
g54
(dp2097
sg63
g2049
sg56
(lp2098
g49
(g70
g51
NtRp2099
(dp2100
g54
(dp2101
g74
g75
ssg63
g2095
sg56
(lp2102
S'HTTP_ACCEPT_ENCODING'
p2103
asbag49
(g70
g51
NtRp2104
(dp2105
g54
(dp2106
g81
g82
ssg63
g2095
sg56
(lp2107
S':'
asbag49
(g70
g51
NtRp2108
(dp2109
g54
(dp2110
sg63
g2095
sg56
(lp2111
g49
(g50
g51
NtRp2112
(dp2113
g54
(dp2114
g62
I3
ssg63
g2108
sg56
(lp2115
g648
asbasbasbag49
(g65
g51
NtRp2116
(dp2117
g54
(dp2118
sg63
g2049
sg56
(lp2119
g49
(g70
g51
NtRp2120
(dp2121
g54
(dp2122
g74
g75
ssg63
g2116
sg56
(lp2123
S'HTTP_ACCEPT_LANGUAGE'
p2124
asbag49
(g70
g51
NtRp2125
(dp2126
g54
(dp2127
g81
g82
ssg63
g2116
sg56
(lp2128
S':'
asbag49
(g70
g51
NtRp2129
(dp2130
g54
(dp2131
sg63
g2116
sg56
(lp2132
g49
(g50
g51
NtRp2133
(dp2134
g54
(dp2135
g62
I3
ssg63
g2129
sg56
(lp2136
g670
asbasbasbag49
(g65
g51
NtRp2137
(dp2138
g54
(dp2139
sg63
g2049
sg56
(lp2140
g49
(g70
g51
NtRp2141
(dp2142
g54
(dp2143
g74
g75
ssg63
g2137
sg56
(lp2144
S'HTTP_CACHE_CONTROL'
p2145
asbag49
(g70
g51
NtRp2146
(dp2147
g54
(dp2148
g81
g82
ssg63
g2137
sg56
(lp2149
S':'
asbag49
(g70
g51
NtRp2150
(dp2151
g54
(dp2152
sg63
g2137
sg56
(lp2153
g49
(g50
g51
NtRp2154
(dp2155
g54
(dp2156
g62
I3
ssg63
g2150
sg56
(lp2157
g692
asbasbasbag49
(g65
g51
NtRp2158
(dp2159
g54
(dp2160
sg63
g2049
sg56
(lp2161
g49
(g70
g51
NtRp2162
(dp2163
g54
(dp2164
g74
g75
ssg63
g2158
sg56
(lp2165
S'HTTP_CONNECTION'
p2166
asbag49
(g70
g51
NtRp2167
(dp2168
g54
(dp2169
g81
g82
ssg63
g2158
sg56
(lp2170
S':'
asbag49
(g70
g51
NtRp2171
(dp2172
g54
(dp2173
sg63
g2158
sg56
(lp2174
g49
(g50
g51
NtRp2175
(dp2176
g54
(dp2177
g62
I3
ssg63
g2171
sg56
(lp2178
g714
asbasbasbag49
(g65
g51
NtRp2179
(dp2180
g54
(dp2181
sg63
g2049
sg56
(lp2182
g49
(g70
g51
NtRp2183
(dp2184
g54
(dp2185
g74
g75
ssg63
g2179
sg56
(lp2186
S'HTTP_COOKIE'
p2187
asbag49
(g70
g51
NtRp2188
(dp2189
g54
(dp2190
g81
g82
ssg63
g2179
sg56
(lp2191
S':'
asbag49
(g70
g51
NtRp2192
(dp2193
g54
(dp2194
sg63
g2179
sg56
(lp2195
g49
(g50
g51
NtRp2196
(dp2197
g54
(dp2198
g62
I3
ssg63
g2192
sg56
(lp2199
g736
asbasbasbag49
(g65
g51
NtRp2200
(dp2201
g54
(dp2202
sg63
g2049
sg56
(lp2203
g49
(g70
g51
NtRp2204
(dp2205
g54
(dp2206
g74
g75
ssg63
g2200
sg56
(lp2207
S'HTTP_DNT'
p2208
asbag49
(g70
g51
NtRp2209
(dp2210
g54
(dp2211
g81
g82
ssg63
g2200
sg56
(lp2212
S':'
asbag49
(g70
g51
NtRp2213
(dp2214
g54
(dp2215
sg63
g2200
sg56
(lp2216
g49
(g50
g51
NtRp2217
(dp2218
g54
(dp2219
g62
I3
ssg63
g2213
sg56
(lp2220
S'1'
asbasbasbag49
(g65
g51
NtRp2221
(dp2222
g54
(dp2223
sg63
g2049
sg56
(lp2224
g49
(g70
g51
NtRp2225
(dp2226
g54
(dp2227
g74
g75
ssg63
g2221
sg56
(lp2228
S'HTTP_HOST'
p2229
asbag49
(g70
g51
NtRp2230
(dp2231
g54
(dp2232
g81
g82
ssg63
g2221
sg56
(lp2233
S':'
asbag49
(g70
g51
NtRp2234
(dp2235
g54
(dp2236
sg63
g2221
sg56
(lp2237
g49
(g50
g51
NtRp2238
(dp2239
g54
(dp2240
g62
I3
ssg63
g2234
sg56
(lp2241
g779
asbasbasbag49
(g65
g51
NtRp2242
(dp2243
g54
(dp2244
sg63
g2049
sg56
(lp2245
g49
(g70
g51
NtRp2246
(dp2247
g54
(dp2248
g74
g75
ssg63
g2242
sg56
(lp2249
S'HTTP_USER_AGENT'
p2250
asbag49
(g70
g51
NtRp2251
(dp2252
g54
(dp2253
g81
g82
ssg63
g2242
sg56
(lp2254
S':'
asbag49
(g70
g51
NtRp2255
(dp2256
g54
(dp2257
sg63
g2242
sg56
(lp2258
g49
(g50
g51
NtRp2259
(dp2260
g54
(dp2261
g62
I3
ssg63
g2255
sg56
(lp2262
g801
asbasbasbag49
(g65
g51
NtRp2263
(dp2264
g54
(dp2265
sg63
g2049
sg56
(lp2266
g49
(g70
g51
NtRp2267
(dp2268
g54
(dp2269
g74
g75
ssg63
g2263
sg56
(lp2270
S'PATH_INFO'
p2271
asbag49
(g70
g51
NtRp2272
(dp2273
g54
(dp2274
g81
g82
ssg63
g2263
sg56
(lp2275
S':'
asbag49
(g70
g51
NtRp2276
(dp2277
g54
(dp2278
sg63
g2263
sg56
(lp2279
g49
(g50
g51
NtRp2280
(dp2281
g54
(dp2282
g62
I3
ssg63
g2276
sg56
(lp2283
g865
asbasbasbag49
(g65
g51
NtRp2284
(dp2285
g54
(dp2286
sg63
g2049
sg56
(lp2287
g49
(g70
g51
NtRp2288
(dp2289
g54
(dp2290
g74
g75
ssg63
g2284
sg56
(lp2291
S'QUERY_STRING'
p2292
asbag49
(g70
g51
NtRp2293
(dp2294
g54
(dp2295
g81
g82
ssg63
g2284
sg56
(lp2296
S':'
asbag49
(g70
g51
NtRp2297
(dp2298
g54
(dp2299
sg63
g2284
sg56
(lp2300
g49
(g50
g51
NtRp2301
(dp2302
g54
(dp2303
g62
I3
ssg63
g2297
sg56
(lp2304
S''
asbasbasbag49
(g65
g51
NtRp2305
(dp2306
g54
(dp2307
sg63
g2049
sg56
(lp2308
g49
(g70
g51
NtRp2309
(dp2310
g54
(dp2311
g74
g75
ssg63
g2305
sg56
(lp2312
S'REMOTE_ADDR'
p2313
asbag49
(g70
g51
NtRp2314
(dp2315
g54
(dp2316
g81
g82
ssg63
g2305
sg56
(lp2317
S':'
asbag49
(g70
g51
NtRp2318
(dp2319
g54
(dp2320
sg63
g2305
sg56
(lp2321
g49
(g50
g51
NtRp2322
(dp2323
g54
(dp2324
g62
I3
ssg63
g2318
sg56
(lp2325
g182
asbasbasbag49
(g65
g51
NtRp2326
(dp2327
g54
(dp2328
sg63
g2049
sg56
(lp2329
g49
(g70
g51
NtRp2330
(dp2331
g54
(dp2332
g74
g75
ssg63
g2326
sg56
(lp2333
S'REMOTE_PORT'
p2334
asbag49
(g70
g51
NtRp2335
(dp2336
g54
(dp2337
g81
g82
ssg63
g2326
sg56
(lp2338
S':'
asbag49
(g70
g51
NtRp2339
(dp2340
g54
(dp2341
sg63
g2326
sg56
(lp2342
g49
(g50
g51
NtRp2343
(dp2344
g54
(dp2345
g62
I3
ssg63
g2339
sg56
(lp2346
g929
asbasbasbag49
(g65
g51
NtRp2347
(dp2348
g54
(dp2349
sg63
g2049
sg56
(lp2350
g49
(g70
g51
NtRp2351
(dp2352
g54
(dp2353
g74
g75
ssg63
g2347
sg56
(lp2354
S'REQUEST_METHOD'
p2355
asbag49
(g70
g51
NtRp2356
(dp2357
g54
(dp2358
g81
g82
ssg63
g2347
sg56
(lp2359
S':'
asbag49
(g70
g51
NtRp2360
(dp2361
g54
(dp2362
sg63
g2347
sg56
(lp2363
g49
(g50
g51
NtRp2364
(dp2365
g54
(dp2366
g62
I3
ssg63
g2360
sg56
(lp2367
g951
asbasbasbag49
(g65
g51
NtRp2368
(dp2369
g54
(dp2370
sg63
g2049
sg56
(lp2371
g49
(g70
g51
NtRp2372
(dp2373
g54
(dp2374
g74
g75
ssg63
g2368
sg56
(lp2375
S'SCRIPT_NAME'
p2376
asbag49
(g70
g51
NtRp2377
(dp2378
g54
(dp2379
g81
g82
ssg63
g2368
sg56
(lp2380
S':'
asbag49
(g70
g51
NtRp2381
(dp2382
g54
(dp2383
sg63
g2368
sg56
(lp2384
g49
(g50
g51
NtRp2385
(dp2386
g54
(dp2387
g62
I3
ssg63
g2381
sg56
(lp2388
S''
asbasbasbag49
(g65
g51
NtRp2389
(dp2390
g54
(dp2391
sg63
g2049
sg56
(lp2392
g49
(g70
g51
NtRp2393
(dp2394
g54
(dp2395
g74
g75
ssg63
g2389
sg56
(lp2396
S'SERVER_NAME'
p2397
asbag49
(g70
g51
NtRp2398
(dp2399
g54
(dp2400
g81
g82
ssg63
g2389
sg56
(lp2401
S':'
asbag49
(g70
g51
NtRp2402
(dp2403
g54
(dp2404
sg63
g2389
sg56
(lp2405
g49
(g50
g51
NtRp2406
(dp2407
g54
(dp2408
g62
I3
ssg63
g2402
sg56
(lp2409
g994
asbasbasbag49
(g65
g51
NtRp2410
(dp2411
g54
(dp2412
sg63
g2049
sg56
(lp2413
g49
(g70
g51
NtRp2414
(dp2415
g54
(dp2416
g74
g75
ssg63
g2410
sg56
(lp2417
S'SERVER_PORT'
p2418
asbag49
(g70
g51
NtRp2419
(dp2420
g54
(dp2421
g81
g82
ssg63
g2410
sg56
(lp2422
S':'
asbag49
(g70
g51
NtRp2423
(dp2424
g54
(dp2425
sg63
g2410
sg56
(lp2426
g49
(g50
g51
NtRp2427
(dp2428
g54
(dp2429
g62
I3
ssg63
g2423
sg56
(lp2430
g1016
asbasbasbag49
(g65
g51
NtRp2431
(dp2432
g54
(dp2433
sg63
g2049
sg56
(lp2434
g49
(g70
g51
NtRp2435
(dp2436
g54
(dp2437
g74
g75
ssg63
g2431
sg56
(lp2438
S'SERVER_PROTOCOL'
p2439
asbag49
(g70
g51
NtRp2440
(dp2441
g54
(dp2442
g81
g82
ssg63
g2431
sg56
(lp2443
S':'
asbag49
(g70
g51
NtRp2444
(dp2445
g54
(dp2446
sg63
g2431
sg56
(lp2447
g49
(g50
g51
NtRp2448
(dp2449
g54
(dp2450
g62
I3
ssg63
g2444
sg56
(lp2451
g1038
asbasbasbag49
(g65
g51
NtRp2452
(dp2453
g54
(dp2454
sg63
g2049
sg56
(lp2455
g49
(g70
g51
NtRp2456
(dp2457
g54
(dp2458
g74
g75
ssg63
g2452
sg56
(lp2459
S'SERVER_SOFTWARE'
p2460
asbag49
(g70
g51
NtRp2461
(dp2462
g54
(dp2463
g81
g82
ssg63
g2452
sg56
(lp2464
S':'
asbag49
(g70
g51
NtRp2465
(dp2466
g54
(dp2467
sg63
g2452
sg56
(lp2468
g49
(g50
g51
NtRp2469
(dp2470
g54
(dp2471
g62
I3
ssg63
g2465
sg56
(lp2472
g1060
asbasbasbag49
(g65
g51
NtRp2473
(dp2474
g54
(dp2475
sg63
g2049
sg56
(lp2476
g49
(g70
g51
NtRp2477
(dp2478
g54
(dp2479
g74
g75
ssg63
g2473
sg56
(lp2480
S'wsgi.errors'
p2481
asbag49
(g70
g51
NtRp2482
(dp2483
g54
(dp2484
g81
g82
ssg63
g2473
sg56
(lp2485
S':'
asbag49
(g70
g51
NtRp2486
(dp2487
g54
(dp2488
sg63
g2473
sg56
(lp2489
g49
(g50
g51
NtRp2490
(dp2491
g54
(dp2492
g62
I3
ssg63
g2486
sg56
(lp2493
S'<__main__.Stderr object at 0x01FA6670>'
p2494
asbasbasbag49
(g65
g51
NtRp2495
(dp2496
g54
(dp2497
sg63
g2049
sg56
(lp2498
g49
(g70
g51
NtRp2499
(dp2500
g54
(dp2501
g74
g75
ssg63
g2495
sg56
(lp2502
S'wsgi.file_wrapper'
p2503
asbag49
(g70
g51
NtRp2504
(dp2505
g54
(dp2506
g81
g82
ssg63
g2495
sg56
(lp2507
S':'
asbag49
(g70
g51
NtRp2508
(dp2509
g54
(dp2510
sg63
g2495
sg56
(lp2511
g49
(g50
g51
NtRp2512
(dp2513
g54
(dp2514
g62
I3
ssg63
g2508
sg56
(lp2515
S'<class wsgiref.util.FileWrapper at 0x02EDDE10>'
p2516
asbasbasbag49
(g65
g51
NtRp2517
(dp2518
g54
(dp2519
sg63
g2049
sg56
(lp2520
g49
(g70
g51
NtRp2521
(dp2522
g54
(dp2523
g74
g75
ssg63
g2517
sg56
(lp2524
S'wsgi.input'
p2525
asbag49
(g70
g51
NtRp2526
(dp2527
g54
(dp2528
g81
g82
ssg63
g2517
sg56
(lp2529
S':'
asbag49
(g70
g51
NtRp2530
(dp2531
g54
(dp2532
sg63
g2517
sg56
(lp2533
g49
(g50
g51
NtRp2534
(dp2535
g54
(dp2536
g62
I3
ssg63
g2530
sg56
(lp2537
S'<cStringIO.StringO object at 0x061AD6E0>'
p2538
asbasbasbag49
(g65
g51
NtRp2539
(dp2540
g54
(dp2541
sg63
g2049
sg56
(lp2542
g49
(g70
g51
NtRp2543
(dp2544
g54
(dp2545
g74
g75
ssg63
g2539
sg56
(lp2546
S'wsgi.multiprocess'
p2547
asbag49
(g70
g51
NtRp2548
(dp2549
g54
(dp2550
g81
g82
ssg63
g2539
sg56
(lp2551
S':'
asbag49
(g70
g51
NtRp2552
(dp2553
g54
(dp2554
sg63
g2539
sg56
(lp2555
g49
(g50
g51
NtRp2556
(dp2557
g54
(dp2558
g62
I3
ssg63
g2552
sg56
(lp2559
g92
asbasbasbag49
(g65
g51
NtRp2560
(dp2561
g54
(dp2562
sg63
g2049
sg56
(lp2563
g49
(g70
g51
NtRp2564
(dp2565
g54
(dp2566
g74
g75
ssg63
g2560
sg56
(lp2567
S'wsgi.multithread'
p2568
asbag49
(g70
g51
NtRp2569
(dp2570
g54
(dp2571
g81
g82
ssg63
g2560
sg56
(lp2572
S':'
asbag49
(g70
g51
NtRp2573
(dp2574
g54
(dp2575
sg63
g2560
sg56
(lp2576
g49
(g50
g51
NtRp2577
(dp2578
g54
(dp2579
g62
I3
ssg63
g2573
sg56
(lp2580
g1300
asbasbasbag49
(g65
g51
NtRp2581
(dp2582
g54
(dp2583
sg63
g2049
sg56
(lp2584
g49
(g70
g51
NtRp2585
(dp2586
g54
(dp2587
g74
g75
ssg63
g2581
sg56
(lp2588
S'wsgi.run_once'
p2589
asbag49
(g70
g51
NtRp2590
(dp2591
g54
(dp2592
g81
g82
ssg63
g2581
sg56
(lp2593
S':'
asbag49
(g70
g51
NtRp2594
(dp2595
g54
(dp2596
sg63
g2581
sg56
(lp2597
g49
(g50
g51
NtRp2598
(dp2599
g54
(dp2600
g62
I3
ssg63
g2594
sg56
(lp2601
g92
asbasbasbag49
(g65
g51
NtRp2602
(dp2603
g54
(dp2604
sg63
g2049
sg56
(lp2605
g49
(g70
g51
NtRp2606
(dp2607
g54
(dp2608
g74
g75
ssg63
g2602
sg56
(lp2609
S'wsgi.url_scheme'
p2610
asbag49
(g70
g51
NtRp2611
(dp2612
g54
(dp2613
g81
g82
ssg63
g2602
sg56
(lp2614
S':'
asbag49
(g70
g51
NtRp2615
(dp2616
g54
(dp2617
sg63
g2602
sg56
(lp2618
g49
(g50
g51
NtRp2619
(dp2620
g54
(dp2621
g62
I3
ssg63
g2615
sg56
(lp2622
g1343
asbasbasbag49
(g65
g51
NtRp2623
(dp2624
g54
(dp2625
sg63
g2049
sg56
(lp2626
g49
(g70
g51
NtRp2627
(dp2628
g54
(dp2629
g74
g75
ssg63
g2623
sg56
(lp2630
S'wsgi.version'
p2631
asbag49
(g70
g51
NtRp2632
(dp2633
g54
(dp2634
g81
g82
ssg63
g2623
sg56
(lp2635
S':'
asbag49
(g70
g51
NtRp2636
(dp2637
g54
(dp2638
sg63
g2623
sg56
(lp2639
g49
(g50
g51
NtRp2640
(dp2641
g54
(dp2642
g62
I3
ssg63
g2636
sg56
(lp2643
S'1'
asbasbasbasbasbasbasbasbasbasbasbasbasbsS'frames'
p2644
(lp2645
(dp2646
S'file'
p2647
S'C:\\web2py\\gluon\\restricted.py'
p2648
sS'dump'
p2649
(dp2650
sS'lnum'
p2651
I205
sS'lines'
p2652
(dp2653
sS'call'
p2654
S'(code=r"response.write(\'<!DOCTYPE html>\\r\\n<!-- pauliris...write(\'\\r\\n</body>\\r\\n</html>\\r\\n\', escape=False)", environment={\'A\': <class \'gluon.html.A\'>, \'Auth\': <class \'gluon.tools.Auth\'>, \'B\': <class \'gluon.html.B\'>, \'BEAUTIFY\': <class \'gluon.html.BEAUTIFY\'>, \'BODY\': <class \'gluon.html.BODY\'>, \'BR\': <class \'gluon.html.BR\'>, \'BUTTON\': <class \'gluon.html.BUTTON\'>, \'CAT\': <class \'gluon.html.CAT\'>, \'CENTER\': <class \'gluon.html.CENTER\'>, \'CLEANUP\': <class \'gluon.validators.CLEANUP\'>, ...}, layer=r\'C:\\web2py\\applications\\unioeste_code\\views\\default/index.html\')'
p2655
sS'func'
p2656
S'restricted'
p2657
sa(dp2658
g2647
S'C:\\web2py\\applications\\unioeste_code\\views\\default\\index.html'
p2659
sg2649
(dp2660
sg2651
I64
sg2652
(dp2661
I64
S'if left_sidebar_enabled:'
p2662
sI65
S'    response.write(\'\\r\\n        <div class="four columns left-sidebar">\\r\\n          \', escape=False)'
p2663
sI66
S"    response.write('\\r\\n          <h3>Left Sidebar</h3>\\r\\n          <p></p>\\r\\n          ', escape=False)"
p2664
sI67
S"    response.write('\\r\\n        </div>\\r\\n        ', escape=False)"
p2665
sI68
S'    pass'
p2666
sI69
S'response.write(\'\\r\\n        \\r\\n        <div class="\', escape=False)'
p2667
sI70
S'response.write(middle_columns)'
p2668
sI71
S'response.write(\' columns center">\\r\\n          \', escape=False)'
p2669
sI72
S"response.write('\\r\\n          ', escape=False)"
p2670
sI73
S"response.write('\\n\\n\\n', escape=False)"
p2671
sI74
S'response.write(H1(T("Current Problems")))'
p2672
sI55
S'    response.write(\'\\r\\n          <div id="menu">\\r\\n             \', escape=False)'
p2673
sI56
S"    response.write(MENU(response.menu, _class='mobile-menu' if is_mobile else 'sf-menu',mobile=is_mobile))"
p2674
sI57
S"    response.write('\\r\\n          </div>\\r\\n          ', escape=False)"
p2675
sI58
S'    pass'
p2676
sI59
S'response.write(\'\\r\\n        </div>\\r\\n      </div>\\r\\n    </div><!-- topbar -->\\r\\n    \\r\\n    <div class="flash">\', escape=False)'
p2677
sI60
S"response.write(response.flash or '')"
p2678
sI61
S'response.write(\'</div>\\r\\n    \\r\\n    <div class="header">\\r\\n      <div class="container">         \\r\\n        <div class="sixteen columns">\\r\\n          <img src="\', escape=False)'
p2679
sI62
S"response.write(URL('static','images/logo-code.png'))"
p2680
sI63
S'response.write(\'" class="remove-bottom" style="margin-top: .5em;" />\\r\\n          <!-- H5 subtitle-->\\r\\n        </div>\\r\\n        <div class="sixteen columns">\\r\\n          <div style="border: 1px solid #000000; ">\\r\\n            <div style="float:right; padding-top: .25em;" class="a2a_kit a2a_default_style">\\r\\n            <a class="a2a_dd" href="http://www.addtoany.com/share_save">Share</a></div>\\r\\n            <script type="text/javascript" src="http://static.addtoany.com/menu/page.js"></script>\\r\\n          </div>\\r\\n        </div>\\r\\n      </div>\\r\\n    </div>\\r\\n\\r\\n    <div class="main">\\r\\n      <div class="container">                 \\r\\n        \', escape=False)'
p2681
ssg2654
S'()'
p2682
sg2656
S'<module>'
p2683
sasS'pyver'
p2684
S'Python 2.5.4: C:\\web2py\\web2py_no_console.exe'
p2685
sS'session'
p2686
g49
(g50
g51
NtRp2687
(dp2688
g54
(dp2689
sg56
(lp2690
g49
(g58
g51
NtRp2691
(dp2692
g54
(dp2693
g62
I5
ssg63
Nsg56
(lp2694
sbasbsS'etype'
p2695
S"<type 'exceptions.NameError'>"
p2696
sS'date'
p2697
S'Tue Jul 31 15:42:28 2012'
p2698
sS'response'
p2699
g49
(g50
g51
NtRp2700
(dp2701
g54
(dp2702
sg56
(lp2703
g49
(g58
g51
NtRp2704
(dp2705
g54
(dp2706
g62
I5
ssg63
Nsg56
(lp2707
g49
(g65
g51
NtRp2708
(dp2709
g54
(dp2710
sg63
g2704
sg56
(lp2711
g49
(g70
g51
NtRp2712
(dp2713
g54
(dp2714
g74
g75
ssg63
g2708
sg56
(lp2715
g147
asbag49
(g70
g51
NtRp2716
(dp2717
g54
(dp2718
g81
g82
ssg63
g2708
sg56
(lp2719
S':'
asbag49
(g70
g51
NtRp2720
(dp2721
g54
(dp2722
sg63
g2708
sg56
(lp2723
g49
(g50
g51
NtRp2724
(dp2725
g54
(dp2726
g62
I5
ssg63
g2720
sg56
(lp2727
S'<cStringIO.StringO object at 0x061ABC20>'
p2728
asbasbasbag49
(g65
g51
NtRp2729
(dp2730
g54
(dp2731
sg63
g2704
sg56
(lp2732
g49
(g70
g51
NtRp2733
(dp2734
g54
(dp2735
g74
g75
ssg63
g2729
sg56
(lp2736
g213
asbag49
(g70
g51
NtRp2737
(dp2738
g54
(dp2739
g81
g82
ssg63
g2729
sg56
(lp2740
S':'
asbag49
(g70
g51
NtRp2741
(dp2742
g54
(dp2743
sg63
g2729
sg56
(lp2744
g49
(g50
g51
NtRp2745
(dp2746
g54
(dp2747
g62
I5
ssg63
g2741
sg56
(lp2748
g49
(g58
g51
NtRp2749
(dp2750
g54
(dp2751
g62
I4
ssg63
Nsg56
(lp2752
g49
(g65
g51
NtRp2753
(dp2754
g54
(dp2755
sg63
g2749
sg56
(lp2756
g49
(g70
g51
NtRp2757
(dp2758
g54
(dp2759
g74
g75
ssg63
g2753
sg56
(lp2760
S'session_id_unioeste_code'
p2761
asbag49
(g70
g51
NtRp2762
(dp2763
g54
(dp2764
g81
g82
ssg63
g2753
sg56
(lp2765
S':'
asbag49
(g70
g51
NtRp2766
(dp2767
g54
(dp2768
sg63
g2753
sg56
(lp2769
g49
(g50
g51
NtRp2770
(dp2771
g54
(dp2772
g62
I4
ssg63
g2766
sg56
(lp2773
g49
(g58
g51
NtRp2774
(dp2775
g54
(dp2776
g62
I3
ssg63
Nsg56
(lp2777
g49
(g65
g51
NtRp2778
(dp2779
g54
(dp2780
sg63
g2774
sg56
(lp2781
g49
(g70
g51
NtRp2782
(dp2783
g54
(dp2784
g74
g75
ssg63
g2778
sg56
(lp2785
g263
asbag49
(g70
g51
NtRp2786
(dp2787
g54
(dp2788
g81
g82
ssg63
g2778
sg56
(lp2789
S':'
asbag49
(g70
g51
NtRp2790
(dp2791
g54
(dp2792
sg63
g2778
sg56
(lp2793
g49
(g50
g51
NtRp2794
(dp2795
g54
(dp2796
g62
I3
ssg63
g2790
sg56
(lp2797
S''
asbasbasbag49
(g65
g51
NtRp2798
(dp2799
g54
(dp2800
sg63
g2774
sg56
(lp2801
g49
(g70
g51
NtRp2802
(dp2803
g54
(dp2804
g74
g75
ssg63
g2798
sg56
(lp2805
g284
asbag49
(g70
g51
NtRp2806
(dp2807
g54
(dp2808
g81
g82
ssg63
g2798
sg56
(lp2809
S':'
asbag49
(g70
g51
NtRp2810
(dp2811
g54
(dp2812
sg63
g2798
sg56
(lp2813
g49
(g50
g51
NtRp2814
(dp2815
g54
(dp2816
g62
I3
ssg63
g2810
sg56
(lp2817
S''
asbasbasbag49
(g65
g51
NtRp2818
(dp2819
g54
(dp2820
sg63
g2774
sg56
(lp2821
g49
(g70
g51
NtRp2822
(dp2823
g54
(dp2824
g74
g75
ssg63
g2818
sg56
(lp2825
g305
asbag49
(g70
g51
NtRp2826
(dp2827
g54
(dp2828
g81
g82
ssg63
g2818
sg56
(lp2829
S':'
asbag49
(g70
g51
NtRp2830
(dp2831
g54
(dp2832
sg63
g2818
sg56
(lp2833
g49
(g50
g51
NtRp2834
(dp2835
g54
(dp2836
g62
I3
ssg63
g2830
sg56
(lp2837
S''
asbasbasbag49
(g65
g51
NtRp2838
(dp2839
g54
(dp2840
sg63
g2774
sg56
(lp2841
g49
(g70
g51
NtRp2842
(dp2843
g54
(dp2844
g74
g75
ssg63
g2838
sg56
(lp2845
g326
asbag49
(g70
g51
NtRp2846
(dp2847
g54
(dp2848
g81
g82
ssg63
g2838
sg56
(lp2849
S':'
asbag49
(g70
g51
NtRp2850
(dp2851
g54
(dp2852
sg63
g2838
sg56
(lp2853
g49
(g50
g51
NtRp2854
(dp2855
g54
(dp2856
g62
I3
ssg63
g2850
sg56
(lp2857
S''
asbasbasbag49
(g65
g51
NtRp2858
(dp2859
g54
(dp2860
sg63
g2774
sg56
(lp2861
g49
(g70
g51
NtRp2862
(dp2863
g54
(dp2864
g74
g75
ssg63
g2858
sg56
(lp2865
g347
asbag49
(g70
g51
NtRp2866
(dp2867
g54
(dp2868
g81
g82
ssg63
g2858
sg56
(lp2869
S':'
asbag49
(g70
g51
NtRp2870
(dp2871
g54
(dp2872
sg63
g2858
sg56
(lp2873
g49
(g50
g51
NtRp2874
(dp2875
g54
(dp2876
g62
I3
ssg63
g2870
sg56
(lp2877
S'/'
asbasbasbag49
(g65
g51
NtRp2878
(dp2879
g54
(dp2880
sg63
g2774
sg56
(lp2881
g49
(g70
g51
NtRp2882
(dp2883
g54
(dp2884
g74
g75
ssg63
g2878
sg56
(lp2885
g368
asbag49
(g70
g51
NtRp2886
(dp2887
g54
(dp2888
g81
g82
ssg63
g2878
sg56
(lp2889
S':'
asbag49
(g70
g51
NtRp2890
(dp2891
g54
(dp2892
sg63
g2878
sg56
(lp2893
g49
(g50
g51
NtRp2894
(dp2895
g54
(dp2896
g62
I3
ssg63
g2890
sg56
(lp2897
S''
asbasbasbag49
(g65
g51
NtRp2898
(dp2899
g54
(dp2900
sg63
g2774
sg56
(lp2901
g49
(g70
g51
NtRp2902
(dp2903
g54
(dp2904
g74
g75
ssg63
g2898
sg56
(lp2905
g389
asbag49
(g70
g51
NtRp2906
(dp2907
g54
(dp2908
g81
g82
ssg63
g2898
sg56
(lp2909
S':'
asbag49
(g70
g51
NtRp2910
(dp2911
g54
(dp2912
sg63
g2898
sg56
(lp2913
g49
(g50
g51
NtRp2914
(dp2915
g54
(dp2916
g62
I3
ssg63
g2910
sg56
(lp2917
S''
asbasbasbasbasbasbasbasbasbasbasbag49
(g65
g51
NtRp2918
(dp2919
g54
(dp2920
sg63
g2704
sg56
(lp2921
g49
(g70
g51
NtRp2922
(dp2923
g54
(dp2924
g74
g75
ssg63
g2918
sg56
(lp2925
S'delimiters'
p2926
asbag49
(g70
g51
NtRp2927
(dp2928
g54
(dp2929
g81
g82
ssg63
g2918
sg56
(lp2930
S':'
asbag49
(g70
g51
NtRp2931
(dp2932
g54
(dp2933
sg63
g2918
sg56
(lp2934
g49
(g50
g51
NtRp2935
(dp2936
g54
(dp2937
g62
I5
ssg63
g2931
sg56
(lp2938
g49
(g58
g51
NtRp2939
(dp2940
g54
(dp2941
g62
I4
ssg63
Nsg56
(lp2942
g49
(g65
g51
NtRp2943
(dp2944
g54
(dp2945
sg63
g2939
sg56
(lp2946
g49
(g70
g51
NtRp2947
(dp2948
g54
(dp2949
sg63
g2943
sg56
(lp2950
g49
(g50
g51
NtRp2951
(dp2952
g54
(dp2953
g62
I4
ssg63
g2947
sg56
(lp2954
S'{{'
p2955
asbasbasbag49
(g65
g51
NtRp2956
(dp2957
g54
(dp2958
sg63
g2939
sg56
(lp2959
g49
(g70
g51
NtRp2960
(dp2961
g54
(dp2962
sg63
g2956
sg56
(lp2963
g49
(g50
g51
NtRp2964
(dp2965
g54
(dp2966
g62
I4
ssg63
g2960
sg56
(lp2967
S'}}'
p2968
asbasbasbasbasbasbasbag49
(g65
g51
NtRp2969
(dp2970
g54
(dp2971
sg63
g2704
sg56
(lp2972
g49
(g70
g51
NtRp2973
(dp2974
g54
(dp2975
g74
g75
ssg63
g2969
sg56
(lp2976
S'files'
p2977
asbag49
(g70
g51
NtRp2978
(dp2979
g54
(dp2980
g81
g82
ssg63
g2969
sg56
(lp2981
S':'
asbag49
(g70
g51
NtRp2982
(dp2983
g54
(dp2984
sg63
g2969
sg56
(lp2985
g49
(g50
g51
NtRp2986
(dp2987
g54
(dp2988
g62
I5
ssg63
g2982
sg56
(lp2989
g49
(g58
g51
NtRp2990
(dp2991
g54
(dp2992
g62
I4
ssg63
Nsg56
(lp2993
g49
(g65
g51
NtRp2994
(dp2995
g54
(dp2996
sg63
g2990
sg56
(lp2997
g49
(g70
g51
NtRp2998
(dp2999
g54
(dp3000
sg63
g2994
sg56
(lp3001
g49
(g50
g51
NtRp3002
(dp3003
g54
(dp3004
g62
I4
ssg63
g2998
sg56
(lp3005
S'/unioeste_code/static/js/jquery.js'
p3006
asbasbasbag49
(g65
g51
NtRp3007
(dp3008
g54
(dp3009
sg63
g2990
sg56
(lp3010
g49
(g70
g51
NtRp3011
(dp3012
g54
(dp3013
sg63
g3007
sg56
(lp3014
g49
(g50
g51
NtRp3015
(dp3016
g54
(dp3017
g62
I4
ssg63
g3011
sg56
(lp3018
S'/unioeste_code/static/css/calendar.css'
p3019
asbasbasbag49
(g65
g51
NtRp3020
(dp3021
g54
(dp3022
sg63
g2990
sg56
(lp3023
g49
(g70
g51
NtRp3024
(dp3025
g54
(dp3026
sg63
g3020
sg56
(lp3027
g49
(g50
g51
NtRp3028
(dp3029
g54
(dp3030
g62
I4
ssg63
g3024
sg56
(lp3031
S'/unioeste_code/static/js/calendar.js'
p3032
asbasbasbag49
(g65
g51
NtRp3033
(dp3034
g54
(dp3035
sg63
g2990
sg56
(lp3036
g49
(g70
g51
NtRp3037
(dp3038
g54
(dp3039
sg63
g3033
sg56
(lp3040
g49
(g50
g51
NtRp3041
(dp3042
g54
(dp3043
g62
I4
ssg63
g3037
sg56
(lp3044
S'/unioeste_code/static/js/web2py.js'
p3045
asbasbasbag49
(g65
g51
NtRp3046
(dp3047
g54
(dp3048
sg63
g2990
sg56
(lp3049
g49
(g70
g51
NtRp3050
(dp3051
g54
(dp3052
sg63
g3046
sg56
(lp3053
g49
(g50
g51
NtRp3054
(dp3055
g54
(dp3056
g62
I4
ssg63
g3050
sg56
(lp3057
S'/unioeste_code/static/css/skeleton.css'
p3058
asbasbasbag49
(g65
g51
NtRp3059
(dp3060
g54
(dp3061
sg63
g2990
sg56
(lp3062
g49
(g70
g51
NtRp3063
(dp3064
g54
(dp3065
sg63
g3059
sg56
(lp3066
g49
(g50
g51
NtRp3067
(dp3068
g54
(dp3069
g62
I4
ssg63
g3063
sg56
(lp3070
S'/unioeste_code/static/css/web2py.css'
p3071
asbasbasbag49
(g65
g51
NtRp3072
(dp3073
g54
(dp3074
sg63
g2990
sg56
(lp3075
g49
(g70
g51
NtRp3076
(dp3077
g54
(dp3078
sg63
g3072
sg56
(lp3079
g49
(g50
g51
NtRp3080
(dp3081
g54
(dp3082
g62
I4
ssg63
g3076
sg56
(lp3083
S'/unioeste_code/static/css/superfish.css'
p3084
asbasbasbag49
(g65
g51
NtRp3085
(dp3086
g54
(dp3087
sg63
g2990
sg56
(lp3088
g49
(g70
g51
NtRp3089
(dp3090
g54
(dp3091
sg63
g3085
sg56
(lp3092
g49
(g50
g51
NtRp3093
(dp3094
g54
(dp3095
g62
I4
ssg63
g3089
sg56
(lp3096
S'/unioeste_code/static/js/superfish.js'
p3097
asbasbasbasbasbasbasbag49
(g65
g51
NtRp3098
(dp3099
g54
(dp3100
sg63
g2704
sg56
(lp3101
g49
(g70
g51
NtRp3102
(dp3103
g54
(dp3104
g74
g75
ssg63
g3098
sg56
(lp3105
S'flash'
p3106
asbag49
(g70
g51
NtRp3107
(dp3108
g54
(dp3109
g81
g82
ssg63
g3098
sg56
(lp3110
S':'
asbag49
(g70
g51
NtRp3111
(dp3112
g54
(dp3113
sg63
g3098
sg56
(lp3114
g49
(g50
g51
NtRp3115
(dp3116
g54
(dp3117
g62
I5
ssg63
g3111
sg56
(lp3118
S''
asbasbasbag49
(g65
g51
NtRp3119
(dp3120
g54
(dp3121
sg63
g2704
sg56
(lp3122
g49
(g70
g51
NtRp3123
(dp3124
g54
(dp3125
g74
g75
ssg63
g3119
sg56
(lp3126
S'generic_patterns'
p3127
asbag49
(g70
g51
NtRp3128
(dp3129
g54
(dp3130
g81
g82
ssg63
g3119
sg56
(lp3131
S':'
asbag49
(g70
g51
NtRp3132
(dp3133
g54
(dp3134
sg63
g3119
sg56
(lp3135
g49
(g50
g51
NtRp3136
(dp3137
g54
(dp3138
g62
I5
ssg63
g3132
sg56
(lp3139
g49
(g58
g51
NtRp3140
(dp3141
g54
(dp3142
g62
I4
ssg63
Nsg56
(lp3143
sbasbasbasbag49
(g65
g51
NtRp3144
(dp3145
g54
(dp3146
sg63
g2704
sg56
(lp3147
g49
(g70
g51
NtRp3148
(dp3149
g54
(dp3150
g74
g75
ssg63
g3144
sg56
(lp3151
S'headers'
p3152
asbag49
(g70
g51
NtRp3153
(dp3154
g54
(dp3155
g81
g82
ssg63
g3144
sg56
(lp3156
S':'
asbag49
(g70
g51
NtRp3157
(dp3158
g54
(dp3159
sg63
g3144
sg56
(lp3160
g49
(g50
g51
NtRp3161
(dp3162
g54
(dp3163
g62
I5
ssg63
g3157
sg56
(lp3164
g49
(g58
g51
NtRp3165
(dp3166
g54
(dp3167
g62
I4
ssg63
Nsg56
(lp3168
g49
(g65
g51
NtRp3169
(dp3170
g54
(dp3171
sg63
g3165
sg56
(lp3172
g49
(g70
g51
NtRp3173
(dp3174
g54
(dp3175
g74
g75
ssg63
g3169
sg56
(lp3176
S'Cache-Control'
p3177
asbag49
(g70
g51
NtRp3178
(dp3179
g54
(dp3180
g81
g82
ssg63
g3169
sg56
(lp3181
S':'
asbag49
(g70
g51
NtRp3182
(dp3183
g54
(dp3184
sg63
g3169
sg56
(lp3185
g49
(g50
g51
NtRp3186
(dp3187
g54
(dp3188
g62
I4
ssg63
g3182
sg56
(lp3189
S'no-store, no-cache, must-revalidate, post-check=0, pre-check=0'
p3190
asbasbasbag49
(g65
g51
NtRp3191
(dp3192
g54
(dp3193
sg63
g3165
sg56
(lp3194
g49
(g70
g51
NtRp3195
(dp3196
g54
(dp3197
g74
g75
ssg63
g3191
sg56
(lp3198
S'Content-Type'
p3199
asbag49
(g70
g51
NtRp3200
(dp3201
g54
(dp3202
g81
g82
ssg63
g3191
sg56
(lp3203
S':'
asbag49
(g70
g51
NtRp3204
(dp3205
g54
(dp3206
sg63
g3191
sg56
(lp3207
g49
(g50
g51
NtRp3208
(dp3209
g54
(dp3210
g62
I4
ssg63
g3204
sg56
(lp3211
S'text/html; charset=utf-8'
p3212
asbasbasbag49
(g65
g51
NtRp3213
(dp3214
g54
(dp3215
sg63
g3165
sg56
(lp3216
g49
(g70
g51
NtRp3217
(dp3218
g54
(dp3219
g74
g75
ssg63
g3213
sg56
(lp3220
S'Expires'
p3221
asbag49
(g70
g51
NtRp3222
(dp3223
g54
(dp3224
g81
g82
ssg63
g3213
sg56
(lp3225
S':'
asbag49
(g70
g51
NtRp3226
(dp3227
g54
(dp3228
sg63
g3213
sg56
(lp3229
g49
(g50
g51
NtRp3230
(dp3231
g54
(dp3232
g62
I4
ssg63
g3226
sg56
(lp3233
S'Tue, 31 Jul 2012 18:42:27 GMT'
p3234
asbasbasbag49
(g65
g51
NtRp3235
(dp3236
g54
(dp3237
sg63
g3165
sg56
(lp3238
g49
(g70
g51
NtRp3239
(dp3240
g54
(dp3241
g74
g75
ssg63
g3235
sg56
(lp3242
S'Pragma'
p3243
asbag49
(g70
g51
NtRp3244
(dp3245
g54
(dp3246
g81
g82
ssg63
g3235
sg56
(lp3247
S':'
asbag49
(g70
g51
NtRp3248
(dp3249
g54
(dp3250
sg63
g3235
sg56
(lp3251
g49
(g50
g51
NtRp3252
(dp3253
g54
(dp3254
g62
I4
ssg63
g3248
sg56
(lp3255
S'no-cache'
p3256
asbasbasbag49
(g65
g51
NtRp3257
(dp3258
g54
(dp3259
sg63
g3165
sg56
(lp3260
g49
(g70
g51
NtRp3261
(dp3262
g54
(dp3263
g74
g75
ssg63
g3257
sg56
(lp3264
S'X-Powered-By'
p3265
asbag49
(g70
g51
NtRp3266
(dp3267
g54
(dp3268
g81
g82
ssg63
g3257
sg56
(lp3269
S':'
asbag49
(g70
g51
NtRp3270
(dp3271
g54
(dp3272
sg63
g3257
sg56
(lp3273
g49
(g50
g51
NtRp3274
(dp3275
g54
(dp3276
g62
I4
ssg63
g3270
sg56
(lp3277
S'web2py'
p3278
asbasbasbasbasbasbasbag49
(g65
g51
NtRp3279
(dp3280
g54
(dp3281
sg63
g2704
sg56
(lp3282
g49
(g70
g51
NtRp3283
(dp3284
g54
(dp3285
g74
g75
ssg63
g3279
sg56
(lp3286
S'menu'
p3287
asbag49
(g70
g51
NtRp3288
(dp3289
g54
(dp3290
g81
g82
ssg63
g3279
sg56
(lp3291
S':'
asbag49
(g70
g51
NtRp3292
(dp3293
g54
(dp3294
sg63
g3279
sg56
(lp3295
g49
(g50
g51
NtRp3296
(dp3297
g54
(dp3298
g62
I5
ssg63
g3292
sg56
(lp3299
g49
(g58
g51
NtRp3300
(dp3301
g54
(dp3302
g62
I4
ssg63
Nsg56
(lp3303
g49
(g65
g51
NtRp3304
(dp3305
g54
(dp3306
sg63
g3300
sg56
(lp3307
g49
(g70
g51
NtRp3308
(dp3309
g54
(dp3310
sg63
g3304
sg56
(lp3311
g49
(g50
g51
NtRp3312
(dp3313
g54
(dp3314
g62
I4
ssg63
g3308
sg56
(lp3315
g49
(g58
g51
NtRp3316
(dp3317
g54
(dp3318
g62
I3
ssg63
Nsg56
(lp3319
g49
(g65
g51
NtRp3320
(dp3321
g54
(dp3322
sg63
g3316
sg56
(lp3323
g49
(g70
g51
NtRp3324
(dp3325
g54
(dp3326
sg63
g3320
sg56
(lp3327
g49
(g50
g51
NtRp3328
(dp3329
g54
(dp3330
g62
I3
ssg63
g3324
sg56
(lp3331
cgluon.languages
lazyT_unpickle
p3332
(S't\x04\x00\x00\x00Home'
tRp3333
asbasbasbag49
(g65
g51
NtRp3334
(dp3335
g54
(dp3336
sg63
g3316
sg56
(lp3337
g49
(g70
g51
NtRp3338
(dp3339
g54
(dp3340
sg63
g3334
sg56
(lp3341
g49
(g50
g51
NtRp3342
(dp3343
g54
(dp3344
g62
I3
ssg63
g3338
sg56
(lp3345
g92
asbasbasbag49
(g65
g51
NtRp3346
(dp3347
g54
(dp3348
sg63
g3316
sg56
(lp3349
g49
(g70
g51
NtRp3350
(dp3351
g54
(dp3352
sg63
g3346
sg56
(lp3353
g49
(g50
g51
NtRp3354
(dp3355
g54
(dp3356
g62
I3
ssg63
g3350
sg56
(lp3357
S'/unioeste_code/default/index'
p3358
asbasbasbag49
(g65
g51
NtRp3359
(dp3360
g54
(dp3361
sg63
g3316
sg56
(lp3362
g49
(g70
g51
NtRp3363
(dp3364
g54
(dp3365
sg63
g3359
sg56
(lp3366
g49
(g50
g51
NtRp3367
(dp3368
g54
(dp3369
g62
I3
ssg63
g3363
sg56
(lp3370
g49
(g58
g51
NtRp3371
(dp3372
g54
(dp3373
g62
I2
ssg63
Nsg56
(lp3374
sbasbasbasbasbasbasbasbag49
(g65
g51
NtRp3375
(dp3376
g54
(dp3377
sg63
g3300
sg56
(lp3378
g49
(g70
g51
NtRp3379
(dp3380
g54
(dp3381
sg63
g3375
sg56
(lp3382
g49
(g50
g51
NtRp3383
(dp3384
g54
(dp3385
g62
I4
ssg63
g3379
sg56
(lp3386
g49
(g58
g51
NtRp3387
(dp3388
g54
(dp3389
g62
I3
ssg63
Nsg56
(lp3390
g49
(g65
g51
NtRp3391
(dp3392
g54
(dp3393
sg63
g3387
sg56
(lp3394
g49
(g70
g51
NtRp3395
(dp3396
g54
(dp3397
sg63
g3391
sg56
(lp3398
g49
(g50
g51
NtRp3399
(dp3400
g54
(dp3401
g62
I3
ssg63
g3395
sg56
(lp3402
g49
(cgluon.html
SPAN
p3403
g51
NtRp3404
(dp3405
g54
(dp3406
g74
S'color:yellow'
p3407
ssg63
g49
(cgluon.html
A
p3408
g51
NtRp3409
(dp3410
g54
(dp3411
S'_onclick'
p3412
S'javascript:void(0);return false;'
p3413
sS'_href'
p3414
S'#'
ssg63
g49
(cgluon.html
LI
p3415
g51
NtRp3416
(dp3417
g54
(dp3418
S'_class'
p3419
S'web2py-menu-expand'
p3420
ssg63
g49
(cgluon.html
UL
p3421
g51
NtRp3422
(dp3423
g54
(dp3424
S'mobile'
p3425
I00
sS'li_class'
p3426
g3420
sg3419
S'sf-menu'
p3427
sS'ul_class'
p3428
S'web2py-menu-vertical'
p3429
sS'li_active'
p3430
S'web2py-menu-active'
p3431
ssg63
Nsg56
(lp3432
g49
(g3415
g51
NtRp3433
(dp3434
g54
(dp3435
sg63
g3422
sg56
(lp3436
g49
(g3408
g51
NtRp3437
(dp3438
g54
(dp3439
g3414
g3358
ssg63
g3433
sg56
(lp3440
g3333
asbasbag3416
asbsg56
(lp3441
g3409
ag49
(g3421
g51
NtRp3442
(dp3443
g54
(dp3444
g3419
g3429
ssg63
g3416
sg56
(lp3445
g49
(g3415
g51
NtRp3446
(dp3447
g54
(dp3448
sg63
g3442
sg56
(lp3449
g49
(g3408
g51
NtRp3450
(dp3451
g54
(dp3452
g3414
S'/admin/default/site'
p3453
ssg63
g3446
sg56
(lp3454
g3332
(S's\x08\x00\x00\x00My Sites'
tRp3455
asbasbag49
(g3415
g51
NtRp3456
(dp3457
g54
(dp3458
g3419
g3420
ssg63
g3442
sg56
(lp3459
g49
(g3408
g51
NtRp3460
(dp3461
g54
(dp3462
g3414
S'/admin/default/design/unioeste_code'
p3463
ssg63
g3456
sg56
(lp3464
g3332
(S's\x08\x00\x00\x00This App'
tRp3465
asbag49
(g3421
g51
NtRp3466
(dp3467
g54
(dp3468
g3419
g3429
ssg63
g3456
sg56
(lp3469
g49
(g3415
g51
NtRp3470
(dp3471
g54
(dp3472
sg63
g3466
sg56
(lp3473
g49
(g3408
g51
NtRp3474
(dp3475
g54
(dp3476
g3414
S'/admin/default/edit/unioeste_code/controllers/default.py'
p3477
ssg63
g3470
sg56
(lp3478
g3332
(S't\x0b\x00\x00\x00Controlador'
tRp3479
asbasbag49
(g3415
g51
NtRp3480
(dp3481
g54
(dp3482
sg63
g3466
sg56
(lp3483
g49
(g3408
g51
NtRp3484
(dp3485
g54
(dp3486
g3414
S'/admin/default/edit/unioeste_code/views/default/index.html'
p3487
ssg63
g3480
sg56
(lp3488
g3332
(S's\x0e\x00\x00\x00Visualiza\xc3\xa7\xc3\xa3o'
tRp3489
asbasbag49
(g3415
g51
NtRp3490
(dp3491
g54
(dp3492
sg63
g3466
sg56
(lp3493
g49
(g3408
g51
NtRp3494
(dp3495
g54
(dp3496
g3414
S'/admin/default/edit/unioeste_code/views/layout.html'
p3497
ssg63
g3490
sg56
(lp3498
g3332
(S't\x06\x00\x00\x00Layout'
tRp3499
asbasbag49
(g3415
g51
NtRp3500
(dp3501
g54
(dp3502
sg63
g3466
sg56
(lp3503
g49
(g3408
g51
NtRp3504
(dp3505
g54
(dp3506
g3414
S'/admin/default/edit/unioeste_code/static/css/web2py.css'
p3507
ssg63
g3500
sg56
(lp3508
g3332
(S't\n\x00\x00\x00Stylesheet'
tRp3509
asbasbag49
(g3415
g51
NtRp3510
(dp3511
g54
(dp3512
sg63
g3466
sg56
(lp3513
g49
(g3408
g51
NtRp3514
(dp3515
g54
(dp3516
g3414
S'/admin/default/edit/unioeste_code/models/db.py'
p3517
ssg63
g3510
sg56
(lp3518
g3332
(S's\t\x00\x00\x00Modelo BD'
tRp3519
asbasbag49
(g3415
g51
NtRp3520
(dp3521
g54
(dp3522
sg63
g3466
sg56
(lp3523
g49
(g3408
g51
NtRp3524
(dp3525
g54
(dp3526
g3414
S'/admin/default/edit/unioeste_code/models/menu.py'
p3527
ssg63
g3520
sg56
(lp3528
g3332
(S's\x0e\x00\x00\x00Modelo de Menu'
tRp3529
asbasbag49
(g3415
g51
NtRp3530
(dp3531
g54
(dp3532
sg63
g3466
sg56
(lp3533
g49
(g3408
g51
NtRp3534
(dp3535
g54
(dp3536
g3414
S'/unioeste_code/appadmin/index'
p3537
ssg63
g3530
sg56
(lp3538
g3332
(S's\x0e\x00\x00\x00Banco de dados'
tRp3539
asbasbag49
(g3415
g51
NtRp3540
(dp3541
g54
(dp3542
sg63
g3466
sg56
(lp3543
g49
(g3408
g51
NtRp3544
(dp3545
g54
(dp3546
g3414
S'/admin/default/errors/unioeste_code'
p3547
ssg63
g3540
sg56
(lp3548
g3332
(S't\x06\x00\x00\x00Errors'
tRp3549
asbasbag49
(g3415
g51
NtRp3550
(dp3551
g54
(dp3552
sg63
g3466
sg56
(lp3553
g49
(g3408
g51
NtRp3554
(dp3555
g54
(dp3556
g3414
S'/admin/default/about/unioeste_code'
p3557
ssg63
g3550
sg56
(lp3558
g3332
(S't\x05\x00\x00\x00About'
tRp3559
asbasbasbasbag49
(g3415
g51
NtRp3560
(dp3561
g54
(dp3562
g3419
g3420
ssg63
g3442
sg56
(lp3563
g49
(g3408
g51
NtRp3564
(dp3565
g54
(dp3566
g3414
S'http://www.web2py.com'
p3567
ssg63
g3560
sg56
(lp3568
S'web2py.com'
p3569
asbag49
(g3421
g51
NtRp3570
(dp3571
g54
(dp3572
g3419
g3429
ssg63
g3560
sg56
(lp3573
g49
(g3415
g51
NtRp3574
(dp3575
g54
(dp3576
sg63
g3570
sg56
(lp3577
g49
(g3408
g51
NtRp3578
(dp3579
g54
(dp3580
g3414
S'http://www.web2py.com/examples/default/download'
p3581
ssg63
g3574
sg56
(lp3582
g3332
(S't\x08\x00\x00\x00Download'
tRp3583
asbasbag49
(g3415
g51
NtRp3584
(dp3585
g54
(dp3586
sg63
g3570
sg56
(lp3587
g49
(g3408
g51
NtRp3588
(dp3589
g54
(dp3590
g3414
S'http://www.web2py.com/examples/default/support'
p3591
ssg63
g3584
sg56
(lp3592
g3332
(S't\x07\x00\x00\x00Support'
tRp3593
asbasbag49
(g3415
g51
NtRp3594
(dp3595
g54
(dp3596
sg63
g3570
sg56
(lp3597
g49
(g3408
g51
NtRp3598
(dp3599
g54
(dp3600
g3414
S'http://web2py.com/demo_admin'
p3601
ssg63
g3594
sg56
(lp3602
g3332
(S't\x04\x00\x00\x00Demo'
tRp3603
asbasbag49
(g3415
g51
NtRp3604
(dp3605
g54
(dp3606
sg63
g3570
sg56
(lp3607
g49
(g3408
g51
NtRp3608
(dp3609
g54
(dp3610
g3414
S'http://web2py.com/examples/default/examples'
p3611
ssg63
g3604
sg56
(lp3612
g3332
(S's\x0e\x00\x00\x00Quick Examples'
tRp3613
asbasbag49
(g3415
g51
NtRp3614
(dp3615
g54
(dp3616
sg63
g3570
sg56
(lp3617
g49
(g3408
g51
NtRp3618
(dp3619
g54
(dp3620
g3414
S'http://web2py.com/AlterEgo'
p3621
ssg63
g3614
sg56
(lp3622
g3332
(S't\x03\x00\x00\x00FAQ'
tRp3623
asbasbag49
(g3415
g51
NtRp3624
(dp3625
g54
(dp3626
sg63
g3570
sg56
(lp3627
g49
(g3408
g51
NtRp3628
(dp3629
g54
(dp3630
g3414
S'http://www.web2py.com/examples/default/videos/'
p3631
ssg63
g3624
sg56
(lp3632
g3332
(S't\x06\x00\x00\x00Videos'
tRp3633
asbasbag49
(g3415
g51
NtRp3634
(dp3635
g54
(dp3636
sg63
g3570
sg56
(lp3637
g49
(g3408
g51
NtRp3638
(dp3639
g54
(dp3640
g3414
S'http://web2py.com/appliances'
p3641
ssg63
g3634
sg56
(lp3642
g3332
(S's\x11\x00\x00\x00Free Applications'
tRp3643
asbasbag49
(g3415
g51
NtRp3644
(dp3645
g54
(dp3646
sg63
g3570
sg56
(lp3647
g49
(g3408
g51
NtRp3648
(dp3649
g54
(dp3650
g3414
S'http://web2py.com/plugins'
p3651
ssg63
g3644
sg56
(lp3652
g3332
(S't\x07\x00\x00\x00Plugins'
tRp3653
asbasbag49
(g3415
g51
NtRp3654
(dp3655
g54
(dp3656
sg63
g3570
sg56
(lp3657
g49
(g3408
g51
NtRp3658
(dp3659
g54
(dp3660
g3414
S'http://web2py.com/layouts'
p3661
ssg63
g3654
sg56
(lp3662
g3332
(S't\x07\x00\x00\x00Layouts'
tRp3663
asbasbag49
(g3415
g51
NtRp3664
(dp3665
g54
(dp3666
sg63
g3570
sg56
(lp3667
g49
(g3408
g51
NtRp3668
(dp3669
g54
(dp3670
g3414
S'http://web2pyslices.com/'
p3671
ssg63
g3664
sg56
(lp3672
g3332
(S't\x07\x00\x00\x00Recipes'
tRp3673
asbasbag49
(g3415
g51
NtRp3674
(dp3675
g54
(dp3676
sg63
g3570
sg56
(lp3677
g49
(g3408
g51
NtRp3678
(dp3679
g54
(dp3680
g3414
S'http://web2py.com/semantic'
p3681
ssg63
g3674
sg56
(lp3682
g3332
(S't\x08\x00\x00\x00Semantic'
tRp3683
asbasbasbasbag49
(g3415
g51
NtRp3684
(dp3685
g54
(dp3686
g3419
g3420
ssg63
g3442
sg56
(lp3687
g49
(g3408
g51
NtRp3688
(dp3689
g54
(dp3690
g3414
S'http://www.web2py.com/book'
p3691
ssg63
g3684
sg56
(lp3692
g3332
(S't\r\x00\x00\x00Documentation'
tRp3693
asbag49
(g3421
g51
NtRp3694
(dp3695
g54
(dp3696
g3419
g3429
ssg63
g3684
sg56
(lp3697
g49
(g3415
g51
NtRp3698
(dp3699
g54
(dp3700
sg63
g3694
sg56
(lp3701
g49
(g3408
g51
NtRp3702
(dp3703
g54
(dp3704
g3414
S'http://www.web2py.com/book/default/chapter/00'
p3705
ssg63
g3698
sg56
(lp3706
g3332
(S't\x07\x00\x00\x00Preface'
tRp3707
asbasbag49
(g3415
g51
NtRp3708
(dp3709
g54
(dp3710
sg63
g3694
sg56
(lp3711
g49
(g3408
g51
NtRp3712
(dp3713
g54
(dp3714
g3414
S'http://www.web2py.com/book/default/chapter/01'
p3715
ssg63
g3708
sg56
(lp3716
g3332
(S't\x0c\x00\x00\x00Introduction'
tRp3717
asbasbag49
(g3415
g51
NtRp3718
(dp3719
g54
(dp3720
sg63
g3694
sg56
(lp3721
g49
(g3408
g51
NtRp3722
(dp3723
g54
(dp3724
g3414
S'http://www.web2py.com/book/default/chapter/02'
p3725
ssg63
g3718
sg56
(lp3726
g3332
(S't\x06\x00\x00\x00Python'
tRp3727
asbasbag49
(g3415
g51
NtRp3728
(dp3729
g54
(dp3730
sg63
g3694
sg56
(lp3731
g49
(g3408
g51
NtRp3732
(dp3733
g54
(dp3734
g3414
S'http://www.web2py.com/book/default/chapter/03'
p3735
ssg63
g3728
sg56
(lp3736
g3332
(S't\x08\x00\x00\x00Overview'
tRp3737
asbasbag49
(g3415
g51
NtRp3738
(dp3739
g54
(dp3740
sg63
g3694
sg56
(lp3741
g49
(g3408
g51
NtRp3742
(dp3743
g54
(dp3744
g3414
S'http://www.web2py.com/book/default/chapter/04'
p3745
ssg63
g3738
sg56
(lp3746
g3332
(S's\x08\x00\x00\x00The Core'
tRp3747
asbasbag49
(g3415
g51
NtRp3748
(dp3749
g54
(dp3750
sg63
g3694
sg56
(lp3751
g49
(g3408
g51
NtRp3752
(dp3753
g54
(dp3754
g3414
S'http://www.web2py.com/book/default/chapter/05'
p3755
ssg63
g3748
sg56
(lp3756
g3332
(S's\t\x00\x00\x00The Views'
tRp3757
asbasbag49
(g3415
g51
NtRp3758
(dp3759
g54
(dp3760
sg63
g3694
sg56
(lp3761
g49
(g3408
g51
NtRp3762
(dp3763
g54
(dp3764
g3414
S'http://www.web2py.com/book/default/chapter/06'
p3765
ssg63
g3758
sg56
(lp3766
g3332
(S's\x0e\x00\x00\x00Banco de dados'
tRp3767
asbasbag49
(g3415
g51
NtRp3768
(dp3769
g54
(dp3770
sg63
g3694
sg56
(lp3771
g49
(g3408
g51
NtRp3772
(dp3773
g54
(dp3774
g3414
S'http://www.web2py.com/book/default/chapter/07'
p3775
ssg63
g3768
sg56
(lp3776
g3332
(S's\x14\x00\x00\x00Forms and Validators'
tRp3777
asbasbag49
(g3415
g51
NtRp3778
(dp3779
g54
(dp3780
sg63
g3694
sg56
(lp3781
g49
(g3408
g51
NtRp3782
(dp3783
g54
(dp3784
g3414
S'http://www.web2py.com/book/default/chapter/08'
p3785
ssg63
g3778
sg56
(lp3786
g3332
(S's\r\x00\x00\x00Email and SMS'
tRp3787
asbasbag49
(g3415
g51
NtRp3788
(dp3789
g54
(dp3790
sg63
g3694
sg56
(lp3791
g49
(g3408
g51
NtRp3792
(dp3793
g54
(dp3794
g3414
S'http://www.web2py.com/book/default/chapter/09'
p3795
ssg63
g3788
sg56
(lp3796
g3332
(S's\x0e\x00\x00\x00Access Control'
tRp3797
asbasbag49
(g3415
g51
NtRp3798
(dp3799
g54
(dp3800
sg63
g3694
sg56
(lp3801
g49
(g3408
g51
NtRp3802
(dp3803
g54
(dp3804
g3414
S'http://www.web2py.com/book/default/chapter/10'
p3805
ssg63
g3798
sg56
(lp3806
g3332
(S't\x08\x00\x00\x00Services'
tRp3807
asbasbag49
(g3415
g51
NtRp3808
(dp3809
g54
(dp3810
sg63
g3694
sg56
(lp3811
g49
(g3408
g51
NtRp3812
(dp3813
g54
(dp3814
g3414
S'http://www.web2py.com/book/default/chapter/11'
p3815
ssg63
g3808
sg56
(lp3816
g3332
(S's\x0c\x00\x00\x00Ajax Recipes'
tRp3817
asbasbag49
(g3415
g51
NtRp3818
(dp3819
g54
(dp3820
sg63
g3694
sg56
(lp3821
g49
(g3408
g51
NtRp3822
(dp3823
g54
(dp3824
g3414
S'http://www.web2py.com/book/default/chapter/12'
p3825
ssg63
g3818
sg56
(lp3826
g3332
(S's\x16\x00\x00\x00Components and Plugins'
tRp3827
asbasbag49
(g3415
g51
NtRp3828
(dp3829
g54
(dp3830
sg63
g3694
sg56
(lp3831
g49
(g3408
g51
NtRp3832
(dp3833
g54
(dp3834
g3414
S'http://www.web2py.com/book/default/chapter/13'
p3835
ssg63
g3828
sg56
(lp3836
g3332
(S's\x12\x00\x00\x00Deployment Recipes'
tRp3837
asbasbag49
(g3415
g51
NtRp3838
(dp3839
g54
(dp3840
sg63
g3694
sg56
(lp3841
g49
(g3408
g51
NtRp3842
(dp3843
g54
(dp3844
g3414
S'http://www.web2py.com/book/default/chapter/14'
p3845
ssg63
g3838
sg56
(lp3846
g3332
(S's\r\x00\x00\x00Other Recipes'
tRp3847
asbasbag49
(g3415
g51
NtRp3848
(dp3849
g54
(dp3850
sg63
g3694
sg56
(lp3851
g49
(g3408
g51
NtRp3852
(dp3853
g54
(dp3854
g3414
S'http://stores.lulu.com/web2py'
p3855
ssg63
g3848
sg56
(lp3856
g3332
(S's\r\x00\x00\x00Buy this book'
tRp3857
asbasbasbasbag49
(g3415
g51
NtRp3858
(dp3859
g54
(dp3860
g3419
g3420
ssg63
g3442
sg56
(lp3861
g49
(g3408
g51
NtRp3862
(dp3863
g54
(dp3864
g3412
g3413
sg3414
S'#'
ssg63
g3858
sg56
(lp3865
g3332
(S't\t\x00\x00\x00Community'
tRp3866
asbag49
(g3421
g51
NtRp3867
(dp3868
g54
(dp3869
g3419
g3429
ssg63
g3858
sg56
(lp3870
g49
(g3415
g51
NtRp3871
(dp3872
g54
(dp3873
sg63
g3867
sg56
(lp3874
g49
(g3408
g51
NtRp3875
(dp3876
g54
(dp3877
g3414
S'http://www.web2py.com/examples/default/usergroups'
p3878
ssg63
g3871
sg56
(lp3879
g3332
(S't\x06\x00\x00\x00Groups'
tRp3880
asbasbag49
(g3415
g51
NtRp3881
(dp3882
g54
(dp3883
sg63
g3867
sg56
(lp3884
g49
(g3408
g51
NtRp3885
(dp3886
g54
(dp3887
g3414
S'http://twitter.com/web2py'
p3888
ssg63
g3881
sg56
(lp3889
g3332
(S't\x07\x00\x00\x00Twitter'
tRp3890
asbasbag49
(g3415
g51
NtRp3891
(dp3892
g54
(dp3893
sg63
g3867
sg56
(lp3894
g49
(g3408
g51
NtRp3895
(dp3896
g54
(dp3897
g3414
S'http://webchat.freenode.net/?channels=web2py'
p3898
ssg63
g3891
sg56
(lp3899
g3332
(S's\t\x00\x00\x00Live Chat'
tRp3900
asbasbasbasbag49
(g3415
g51
NtRp3901
(dp3902
g54
(dp3903
g3419
g3420
ssg63
g3442
sg56
(lp3904
g49
(g3408
g51
NtRp3905
(dp3906
g54
(dp3907
g3412
g3413
sg3414
S'#'
ssg63
g3901
sg56
(lp3908
g3332
(S't\x07\x00\x00\x00Plugins'
tRp3909
asbag49
(g3421
g51
NtRp3910
(dp3911
g54
(dp3912
g3419
g3429
ssg63
g3901
sg56
(lp3913
g49
(g3415
g51
NtRp3914
(dp3915
g54
(dp3916
sg63
g3910
sg56
(lp3917
g49
(g3408
g51
NtRp3918
(dp3919
g54
(dp3920
g3414
S'http://web2py.com/examples/default/download'
p3921
ssg63
g3914
sg56
(lp3922
S'plugin_wiki'
p3923
asbasbag49
(g3415
g51
NtRp3924
(dp3925
g54
(dp3926
sg63
g3910
sg56
(lp3927
g49
(g3408
g51
NtRp3928
(dp3929
g54
(dp3930
g3414
g3651
ssg63
g3924
sg56
(lp3931
g3332
(S's\r\x00\x00\x00Other Plugins'
tRp3932
asbasbag49
(g3415
g51
NtRp3933
(dp3934
g54
(dp3935
sg63
g3910
sg56
(lp3936
g49
(g3408
g51
NtRp3937
(dp3938
g54
(dp3939
g3414
g3661
ssg63
g3933
sg56
(lp3940
g3332
(S's\x0e\x00\x00\x00Layout Plugins'
tRp3941
asbasbasbasbasbasbsg56
(lp3942
g3404
asbsg56
(lp3943
g3278
asbasbasbasbag49
(g65
g51
NtRp3944
(dp3945
g54
(dp3946
sg63
g3387
sg56
(lp3947
g49
(g70
g51
NtRp3948
(dp3949
g54
(dp3950
sg63
g3944
sg56
(lp3951
g49
(g50
g51
NtRp3952
(dp3953
g54
(dp3954
g62
I3
ssg63
g3948
sg56
(lp3955
g92
asbasbasbag49
(g65
g51
NtRp3956
(dp3957
g54
(dp3958
sg63
g3387
sg56
(lp3959
g49
(g70
g51
NtRp3960
(dp3961
g54
(dp3962
sg63
g3956
sg56
(lp3963
g49
(g50
g51
NtRp3964
(dp3965
g54
(dp3966
g62
I3
ssg63
g3960
sg56
(lp3967
S'None'
p3968
asbasbasbag49
(g65
g51
NtRp3969
(dp3970
g54
(dp3971
sg63
g3387
sg56
(lp3972
g49
(g70
g51
NtRp3973
(dp3974
g54
(dp3975
sg63
g3969
sg56
(lp3976
g49
(g50
g51
NtRp3977
(dp3978
g54
(dp3979
g62
I3
ssg63
g3973
sg56
(lp3980
g49
(g58
g51
NtRp3981
(dp3982
g54
(dp3983
g62
I2
ssg63
Nsg56
(lp3984
g49
(g65
g51
NtRp3985
(dp3986
g54
(dp3987
sg63
g3981
sg56
(lp3988
g49
(g70
g51
NtRp3989
(dp3990
g54
(dp3991
sg63
g3985
sg56
(lp3992
g49
(g50
g51
NtRp3993
(dp3994
g54
(dp3995
g62
I2
ssg63
g3989
sg56
(lp3996
g49
(g58
g51
NtRp3997
(dp3998
g54
(dp3999
g62
I1
ssg63
Nsg56
(lp4000
g49
(g65
g51
NtRp4001
(dp4002
g54
(dp4003
sg63
g3997
sg56
(lp4004
g49
(g70
g51
NtRp4005
(dp4006
g54
(dp4007
sg63
g4001
sg56
(lp4008
g49
(g50
g51
NtRp4009
(dp4010
g54
(dp4011
g62
I1
ssg63
g4005
sg56
(lp4012
g3455
asbasbasbag49
(g65
g51
NtRp4013
(dp4014
g54
(dp4015
sg63
g3997
sg56
(lp4016
g49
(g70
g51
NtRp4017
(dp4018
g54
(dp4019
sg63
g4013
sg56
(lp4020
g49
(g50
g51
NtRp4021
(dp4022
g54
(dp4023
g62
I1
ssg63
g4017
sg56
(lp4024
I00
asbasbasbag49
(g65
g51
NtRp4025
(dp4026
g54
(dp4027
sg63
g3997
sg56
(lp4028
g49
(g70
g51
NtRp4029
(dp4030
g54
(dp4031
sg63
g4025
sg56
(lp4032
g49
(g50
g51
NtRp4033
(dp4034
g54
(dp4035
g62
I1
ssg63
g4029
sg56
(lp4036
g3453
asbasbasbasbasbasbasbag49
(g65
g51
NtRp4037
(dp4038
g54
(dp4039
sg63
g3981
sg56
(lp4040
g49
(g70
g51
NtRp4041
(dp4042
g54
(dp4043
sg63
g4037
sg56
(lp4044
g49
(g50
g51
NtRp4045
(dp4046
g54
(dp4047
g62
I2
ssg63
g4041
sg56
(lp4048
g49
(g58
g51
NtRp4049
(dp4050
g54
(dp4051
g62
I1
ssg63
Nsg56
(lp4052
g49
(g65
g51
NtRp4053
(dp4054
g54
(dp4055
sg63
g4049
sg56
(lp4056
g49
(g70
g51
NtRp4057
(dp4058
g54
(dp4059
sg63
g4053
sg56
(lp4060
g49
(g50
g51
NtRp4061
(dp4062
g54
(dp4063
g62
I1
ssg63
g4057
sg56
(lp4064
g3465
asbasbasbag49
(g65
g51
NtRp4065
(dp4066
g54
(dp4067
sg63
g4049
sg56
(lp4068
g49
(g70
g51
NtRp4069
(dp4070
g54
(dp4071
sg63
g4065
sg56
(lp4072
g49
(g50
g51
NtRp4073
(dp4074
g54
(dp4075
g62
I1
ssg63
g4069
sg56
(lp4076
I00
asbasbasbag49
(g65
g51
NtRp4077
(dp4078
g54
(dp4079
sg63
g4049
sg56
(lp4080
g49
(g70
g51
NtRp4081
(dp4082
g54
(dp4083
sg63
g4077
sg56
(lp4084
g49
(g50
g51
NtRp4085
(dp4086
g54
(dp4087
g62
I1
ssg63
g4081
sg56
(lp4088
g3463
asbasbasbag49
(g65
g51
NtRp4089
(dp4090
g54
(dp4091
sg63
g4049
sg56
(lp4092
g49
(g70
g51
NtRp4093
(dp4094
g54
(dp4095
sg63
g4089
sg56
(lp4096
g49
(g50
g51
NtRp4097
(dp4098
g54
(dp4099
g62
I1
ssg63
g4093
sg56
(lp4100
(lp4101
(g3479
I00
g3477
tp4102
a(g3489
I00
g3487
tp4103
a(g3499
I00
g3497
tp4104
a(g3509
I00
g3507
tp4105
a(g3519
I00
g3517
tp4106
a(g3529
I00
g3527
tp4107
a(g3539
I00
g3537
tp4108
a(g3549
I00
g3547
tp4109
a(g3559
I00
g3557
tp4110
aasbasbasbasbasbasbasbag49
(g65
g51
NtRp4111
(dp4112
g54
(dp4113
sg63
g3981
sg56
(lp4114
g49
(g70
g51
NtRp4115
(dp4116
g54
(dp4117
sg63
g4111
sg56
(lp4118
g49
(g50
g51
NtRp4119
(dp4120
g54
(dp4121
g62
I2
ssg63
g4115
sg56
(lp4122
g49
(g58
g51
NtRp4123
(dp4124
g54
(dp4125
g62
I1
ssg63
Nsg56
(lp4126
g49
(g65
g51
NtRp4127
(dp4128
g54
(dp4129
sg63
g4123
sg56
(lp4130
g49
(g70
g51
NtRp4131
(dp4132
g54
(dp4133
sg63
g4127
sg56
(lp4134
g49
(g50
g51
NtRp4135
(dp4136
g54
(dp4137
g62
I1
ssg63
g4131
sg56
(lp4138
g3569
asbasbasbag49
(g65
g51
NtRp4139
(dp4140
g54
(dp4141
sg63
g4123
sg56
(lp4142
g49
(g70
g51
NtRp4143
(dp4144
g54
(dp4145
sg63
g4139
sg56
(lp4146
g49
(g50
g51
NtRp4147
(dp4148
g54
(dp4149
g62
I1
ssg63
g4143
sg56
(lp4150
I00
asbasbasbag49
(g65
g51
NtRp4151
(dp4152
g54
(dp4153
sg63
g4123
sg56
(lp4154
g49
(g70
g51
NtRp4155
(dp4156
g54
(dp4157
sg63
g4151
sg56
(lp4158
g49
(g50
g51
NtRp4159
(dp4160
g54
(dp4161
g62
I1
ssg63
g4155
sg56
(lp4162
g3567
asbasbasbag49
(g65
g51
NtRp4163
(dp4164
g54
(dp4165
sg63
g4123
sg56
(lp4166
g49
(g70
g51
NtRp4167
(dp4168
g54
(dp4169
sg63
g4163
sg56
(lp4170
g49
(g50
g51
NtRp4171
(dp4172
g54
(dp4173
g62
I1
ssg63
g4167
sg56
(lp4174
(lp4175
(g3583
I00
g3581
tp4176
a(g3593
I00
g3591
tp4177
a(g3603
I00
g3601
tp4178
a(g3613
I00
g3611
tp4179
a(g3623
I00
g3621
tp4180
a(g3633
I00
g3631
tp4181
a(g3643
I00
g3641
tp4182
a(g3653
I00
g3651
tp4183
a(g3663
I00
g3661
tp4184
a(g3673
I00
g3671
tp4185
a(g3683
I00
g3681
tp4186
aasbasbasbasbasbasbasbag49
(g65
g51
NtRp4187
(dp4188
g54
(dp4189
sg63
g3981
sg56
(lp4190
g49
(g70
g51
NtRp4191
(dp4192
g54
(dp4193
sg63
g4187
sg56
(lp4194
g49
(g50
g51
NtRp4195
(dp4196
g54
(dp4197
g62
I2
ssg63
g4191
sg56
(lp4198
g49
(g58
g51
NtRp4199
(dp4200
g54
(dp4201
g62
I1
ssg63
Nsg56
(lp4202
g49
(g65
g51
NtRp4203
(dp4204
g54
(dp4205
sg63
g4199
sg56
(lp4206
g49
(g70
g51
NtRp4207
(dp4208
g54
(dp4209
sg63
g4203
sg56
(lp4210
g49
(g50
g51
NtRp4211
(dp4212
g54
(dp4213
g62
I1
ssg63
g4207
sg56
(lp4214
g3693
asbasbasbag49
(g65
g51
NtRp4215
(dp4216
g54
(dp4217
sg63
g4199
sg56
(lp4218
g49
(g70
g51
NtRp4219
(dp4220
g54
(dp4221
sg63
g4215
sg56
(lp4222
g49
(g50
g51
NtRp4223
(dp4224
g54
(dp4225
g62
I1
ssg63
g4219
sg56
(lp4226
I00
asbasbasbag49
(g65
g51
NtRp4227
(dp4228
g54
(dp4229
sg63
g4199
sg56
(lp4230
g49
(g70
g51
NtRp4231
(dp4232
g54
(dp4233
sg63
g4227
sg56
(lp4234
g49
(g50
g51
NtRp4235
(dp4236
g54
(dp4237
g62
I1
ssg63
g4231
sg56
(lp4238
g3691
asbasbasbag49
(g65
g51
NtRp4239
(dp4240
g54
(dp4241
sg63
g4199
sg56
(lp4242
g49
(g70
g51
NtRp4243
(dp4244
g54
(dp4245
sg63
g4239
sg56
(lp4246
g49
(g50
g51
NtRp4247
(dp4248
g54
(dp4249
g62
I1
ssg63
g4243
sg56
(lp4250
(lp4251
(g3707
I00
g3705
tp4252
a(g3717
I00
g3715
tp4253
a(g3727
I00
g3725
tp4254
a(g3737
I00
g3735
tp4255
a(g3747
I00
g3745
tp4256
a(g3757
I00
g3755
tp4257
a(g3767
I00
g3765
tp4258
a(g3777
I00
g3775
tp4259
a(g3787
I00
g3785
tp4260
a(g3797
I00
g3795
tp4261
a(g3807
I00
g3805
tp4262
a(g3817
I00
g3815
tp4263
a(g3827
I00
g3825
tp4264
a(g3837
I00
g3835
tp4265
a(g3847
I00
g3845
tp4266
a(g3857
I00
g3855
tp4267
aasbasbasbasbasbasbasbag49
(g65
g51
NtRp4268
(dp4269
g54
(dp4270
sg63
g3981
sg56
(lp4271
g49
(g70
g51
NtRp4272
(dp4273
g54
(dp4274
sg63
g4268
sg56
(lp4275
g49
(g50
g51
NtRp4276
(dp4277
g54
(dp4278
g62
I2
ssg63
g4272
sg56
(lp4279
g49
(g58
g51
NtRp4280
(dp4281
g54
(dp4282
g62
I1
ssg63
Nsg56
(lp4283
g49
(g65
g51
NtRp4284
(dp4285
g54
(dp4286
sg63
g4280
sg56
(lp4287
g49
(g70
g51
NtRp4288
(dp4289
g54
(dp4290
sg63
g4284
sg56
(lp4291
g49
(g50
g51
NtRp4292
(dp4293
g54
(dp4294
g62
I1
ssg63
g4288
sg56
(lp4295
g3866
asbasbasbag49
(g65
g51
NtRp4296
(dp4297
g54
(dp4298
sg63
g4280
sg56
(lp4299
g49
(g70
g51
NtRp4300
(dp4301
g54
(dp4302
sg63
g4296
sg56
(lp4303
g49
(g50
g51
NtRp4304
(dp4305
g54
(dp4306
g62
I1
ssg63
g4300
sg56
(lp4307
I00
asbasbasbag49
(g65
g51
NtRp4308
(dp4309
g54
(dp4310
sg63
g4280
sg56
(lp4311
g49
(g70
g51
NtRp4312
(dp4313
g54
(dp4314
sg63
g4308
sg56
(lp4315
g49
(g50
g51
NtRp4316
(dp4317
g54
(dp4318
g62
I1
ssg63
g4312
sg56
(lp4319
Nasbasbasbag49
(g65
g51
NtRp4320
(dp4321
g54
(dp4322
sg63
g4280
sg56
(lp4323
g49
(g70
g51
NtRp4324
(dp4325
g54
(dp4326
sg63
g4320
sg56
(lp4327
g49
(g50
g51
NtRp4328
(dp4329
g54
(dp4330
g62
I1
ssg63
g4324
sg56
(lp4331
(lp4332
(g3880
I00
g3878
tp4333
a(g3890
I00
g3888
tp4334
a(g3900
I00
g3898
tp4335
aasbasbasbasbasbasbasbag49
(g65
g51
NtRp4336
(dp4337
g54
(dp4338
sg63
g3981
sg56
(lp4339
g49
(g70
g51
NtRp4340
(dp4341
g54
(dp4342
sg63
g4336
sg56
(lp4343
g49
(g50
g51
NtRp4344
(dp4345
g54
(dp4346
g62
I2
ssg63
g4340
sg56
(lp4347
g49
(g58
g51
NtRp4348
(dp4349
g54
(dp4350
g62
I1
ssg63
Nsg56
(lp4351
g49
(g65
g51
NtRp4352
(dp4353
g54
(dp4354
sg63
g4348
sg56
(lp4355
g49
(g70
g51
NtRp4356
(dp4357
g54
(dp4358
sg63
g4352
sg56
(lp4359
g49
(g50
g51
NtRp4360
(dp4361
g54
(dp4362
g62
I1
ssg63
g4356
sg56
(lp4363
g3909
asbasbasbag49
(g65
g51
NtRp4364
(dp4365
g54
(dp4366
sg63
g4348
sg56
(lp4367
g49
(g70
g51
NtRp4368
(dp4369
g54
(dp4370
sg63
g4364
sg56
(lp4371
g49
(g50
g51
NtRp4372
(dp4373
g54
(dp4374
g62
I1
ssg63
g4368
sg56
(lp4375
I00
asbasbasbag49
(g65
g51
NtRp4376
(dp4377
g54
(dp4378
sg63
g4348
sg56
(lp4379
g49
(g70
g51
NtRp4380
(dp4381
g54
(dp4382
sg63
g4376
sg56
(lp4383
g49
(g50
g51
NtRp4384
(dp4385
g54
(dp4386
g62
I1
ssg63
g4380
sg56
(lp4387
Nasbasbasbag49
(g65
g51
NtRp4388
(dp4389
g54
(dp4390
sg63
g4348
sg56
(lp4391
g49
(g70
g51
NtRp4392
(dp4393
g54
(dp4394
sg63
g4388
sg56
(lp4395
g49
(g50
g51
NtRp4396
(dp4397
g54
(dp4398
g62
I1
ssg63
g4392
sg56
(lp4399
(lp4400
(g3923
I00
g3921
tp4401
a(g3932
I00
g3651
tp4402
a(g3941
I00
g3661
tp4403
aasbasbasbasbasbasbasbasbasbasbasbasbasbasbasbasbasbasbasbag49
(g65
g51
NtRp4404
(dp4405
g54
(dp4406
sg63
g2704
sg56
(lp4407
g49
(g70
g51
NtRp4408
(dp4409
g54
(dp4410
g74
g75
ssg63
g4404
sg56
(lp4411
S'meta'
p4412
asbag49
(g70
g51
NtRp4413
(dp4414
g54
(dp4415
g81
g82
ssg63
g4404
sg56
(lp4416
S':'
asbag49
(g70
g51
NtRp4417
(dp4418
g54
(dp4419
sg63
g4404
sg56
(lp4420
g49
(g50
g51
NtRp4421
(dp4422
g54
(dp4423
g62
I5
ssg63
g4417
sg56
(lp4424
g49
(g58
g51
NtRp4425
(dp4426
g54
(dp4427
g62
I4
ssg63
Nsg56
(lp4428
g49
(g65
g51
NtRp4429
(dp4430
g54
(dp4431
sg63
g4425
sg56
(lp4432
g49
(g70
g51
NtRp4433
(dp4434
g54
(dp4435
g74
g75
ssg63
g4429
sg56
(lp4436
S'author'
p4437
asbag49
(g70
g51
NtRp4438
(dp4439
g54
(dp4440
g81
g82
ssg63
g4429
sg56
(lp4441
S':'
asbag49
(g70
g51
NtRp4442
(dp4443
g54
(dp4444
sg63
g4429
sg56
(lp4445
g49
(g50
g51
NtRp4446
(dp4447
g54
(dp4448
g62
I4
ssg63
g4442
sg56
(lp4449
S'Your Name <you@example.com>'
p4450
asbasbasbag49
(g65
g51
NtRp4451
(dp4452
g54
(dp4453
sg63
g4425
sg56
(lp4454
g49
(g70
g51
NtRp4455
(dp4456
g54
(dp4457
g74
g75
ssg63
g4451
sg56
(lp4458
S'copyright'
p4459
asbag49
(g70
g51
NtRp4460
(dp4461
g54
(dp4462
g81
g82
ssg63
g4451
sg56
(lp4463
S':'
asbag49
(g70
g51
NtRp4464
(dp4465
g54
(dp4466
sg63
g4451
sg56
(lp4467
g49
(g50
g51
NtRp4468
(dp4469
g54
(dp4470
g62
I4
ssg63
g4464
sg56
(lp4471
S'Copyright 2011'
p4472
asbasbasbag49
(g65
g51
NtRp4473
(dp4474
g54
(dp4475
sg63
g4425
sg56
(lp4476
g49
(g70
g51
NtRp4477
(dp4478
g54
(dp4479
g74
g75
ssg63
g4473
sg56
(lp4480
S'description'
p4481
asbag49
(g70
g51
NtRp4482
(dp4483
g54
(dp4484
g81
g82
ssg63
g4473
sg56
(lp4485
S':'
asbag49
(g70
g51
NtRp4486
(dp4487
g54
(dp4488
sg63
g4473
sg56
(lp4489
g49
(g50
g51
NtRp4490
(dp4491
g54
(dp4492
g62
I4
ssg63
g4486
sg56
(lp4493
S'a cool new app'
p4494
asbasbasbag49
(g65
g51
NtRp4495
(dp4496
g54
(dp4497
sg63
g4425
sg56
(lp4498
g49
(g70
g51
NtRp4499
(dp4500
g54
(dp4501
g74
g75
ssg63
g4495
sg56
(lp4502
S'generator'
p4503
asbag49
(g70
g51
NtRp4504
(dp4505
g54
(dp4506
g81
g82
ssg63
g4495
sg56
(lp4507
S':'
asbag49
(g70
g51
NtRp4508
(dp4509
g54
(dp4510
sg63
g4495
sg56
(lp4511
g49
(g50
g51
NtRp4512
(dp4513
g54
(dp4514
g62
I4
ssg63
g4508
sg56
(lp4515
S'Web2py Web Framework'
p4516
asbasbasbag49
(g65
g51
NtRp4517
(dp4518
g54
(dp4519
sg63
g4425
sg56
(lp4520
g49
(g70
g51
NtRp4521
(dp4522
g54
(dp4523
g74
g75
ssg63
g4517
sg56
(lp4524
S'keywords'
p4525
asbag49
(g70
g51
NtRp4526
(dp4527
g54
(dp4528
g81
g82
ssg63
g4517
sg56
(lp4529
S':'
asbag49
(g70
g51
NtRp4530
(dp4531
g54
(dp4532
sg63
g4517
sg56
(lp4533
g49
(g50
g51
NtRp4534
(dp4535
g54
(dp4536
g62
I4
ssg63
g4530
sg56
(lp4537
S'web2py, python, framework'
p4538
asbasbasbasbasbasbasbag49
(g65
g51
NtRp4539
(dp4540
g54
(dp4541
sg63
g2704
sg56
(lp4542
g49
(g70
g51
NtRp4543
(dp4544
g54
(dp4545
g74
g75
ssg63
g4539
sg56
(lp4546
S'postprocessing'
p4547
asbag49
(g70
g51
NtRp4548
(dp4549
g54
(dp4550
g81
g82
ssg63
g4539
sg56
(lp4551
S':'
asbag49
(g70
g51
NtRp4552
(dp4553
g54
(dp4554
sg63
g4539
sg56
(lp4555
g49
(g50
g51
NtRp4556
(dp4557
g54
(dp4558
g62
I5
ssg63
g4552
sg56
(lp4559
g49
(g58
g51
NtRp4560
(dp4561
g54
(dp4562
g62
I4
ssg63
Nsg56
(lp4563
sbasbasbasbag49
(g65
g51
NtRp4564
(dp4565
g54
(dp4566
sg63
g2704
sg56
(lp4567
g49
(g70
g51
NtRp4568
(dp4569
g54
(dp4570
g74
g75
ssg63
g4564
sg56
(lp4571
S'session_file'
p4572
asbag49
(g70
g51
NtRp4573
(dp4574
g54
(dp4575
g81
g82
ssg63
g4564
sg56
(lp4576
S':'
asbag49
(g70
g51
NtRp4577
(dp4578
g54
(dp4579
sg63
g4564
sg56
(lp4580
g49
(g50
g51
NtRp4581
(dp4582
g54
(dp4583
g62
I5
ssg63
g4577
sg56
(lp4584
S"<open file 'C:\\web2py\\applications\\unioeste_code\\sessions\\127.0.0.1-d4490a4c-4db8-4f67-8e5c-3165535103a7', mode 'rb+' at 0x0601B5C0>"
p4585
asbasbasbag49
(g65
g51
NtRp4586
(dp4587
g54
(dp4588
sg63
g2704
sg56
(lp4589
g49
(g70
g51
NtRp4590
(dp4591
g54
(dp4592
g74
g75
ssg63
g4586
sg56
(lp4593
S'session_filename'
p4594
asbag49
(g70
g51
NtRp4595
(dp4596
g54
(dp4597
g81
g82
ssg63
g4586
sg56
(lp4598
S':'
asbag49
(g70
g51
NtRp4599
(dp4600
g54
(dp4601
sg63
g4586
sg56
(lp4602
g49
(g50
g51
NtRp4603
(dp4604
g54
(dp4605
g62
I5
ssg63
g4599
sg56
(lp4606
S'C:\\web2py\\applications\\unioeste_code\\sessions\\127.0.0.1-d4490a4c-4db8-4f67-8e5c-3165535103a7'
p4607
asbasbasbag49
(g65
g51
NtRp4608
(dp4609
g54
(dp4610
sg63
g2704
sg56
(lp4611
g49
(g70
g51
NtRp4612
(dp4613
g54
(dp4614
g74
g75
ssg63
g4608
sg56
(lp4615
S'session_id'
p4616
asbag49
(g70
g51
NtRp4617
(dp4618
g54
(dp4619
g81
g82
ssg63
g4608
sg56
(lp4620
S':'
asbag49
(g70
g51
NtRp4621
(dp4622
g54
(dp4623
sg63
g4608
sg56
(lp4624
g49
(g50
g51
NtRp4625
(dp4626
g54
(dp4627
g62
I5
ssg63
g4621
sg56
(lp4628
S'127.0.0.1-d4490a4c-4db8-4f67-8e5c-3165535103a7'
p4629
asbasbasbag49
(g65
g51
NtRp4630
(dp4631
g54
(dp4632
sg63
g2704
sg56
(lp4633
g49
(g70
g51
NtRp4634
(dp4635
g54
(dp4636
g74
g75
ssg63
g4630
sg56
(lp4637
S'session_id_name'
p4638
asbag49
(g70
g51
NtRp4639
(dp4640
g54
(dp4641
g81
g82
ssg63
g4630
sg56
(lp4642
S':'
asbag49
(g70
g51
NtRp4643
(dp4644
g54
(dp4645
sg63
g4630
sg56
(lp4646
g49
(g50
g51
NtRp4647
(dp4648
g54
(dp4649
g62
I5
ssg63
g4643
sg56
(lp4650
g2761
asbasbasbag49
(g65
g51
NtRp4651
(dp4652
g54
(dp4653
sg63
g2704
sg56
(lp4654
g49
(g70
g51
NtRp4655
(dp4656
g54
(dp4657
g74
g75
ssg63
g4651
sg56
(lp4658
S'session_locked'
p4659
asbag49
(g70
g51
NtRp4660
(dp4661
g54
(dp4662
g81
g82
ssg63
g4651
sg56
(lp4663
S':'
asbag49
(g70
g51
NtRp4664
(dp4665
g54
(dp4666
sg63
g4651
sg56
(lp4667
g49
(g50
g51
NtRp4668
(dp4669
g54
(dp4670
g62
I5
ssg63
g4664
sg56
(lp4671
g1300
asbasbasbag49
(g65
g51
NtRp4672
(dp4673
g54
(dp4674
sg63
g2704
sg56
(lp4675
g49
(g70
g51
NtRp4676
(dp4677
g54
(dp4678
g74
g75
ssg63
g4672
sg56
(lp4679
S'session_new'
p4680
asbag49
(g70
g51
NtRp4681
(dp4682
g54
(dp4683
g81
g82
ssg63
g4672
sg56
(lp4684
S':'
asbag49
(g70
g51
NtRp4685
(dp4686
g54
(dp4687
sg63
g4672
sg56
(lp4688
g49
(g50
g51
NtRp4689
(dp4690
g54
(dp4691
g62
I5
ssg63
g4685
sg56
(lp4692
g92
asbasbasbag49
(g65
g51
NtRp4693
(dp4694
g54
(dp4695
sg63
g2704
sg56
(lp4696
g49
(g70
g51
NtRp4697
(dp4698
g54
(dp4699
g74
g75
ssg63
g4693
sg56
(lp4700
S'status'
p4701
asbag49
(g70
g51
NtRp4702
(dp4703
g54
(dp4704
g81
g82
ssg63
g4693
sg56
(lp4705
S':'
asbag49
(g70
g51
NtRp4706
(dp4707
g54
(dp4708
sg63
g4693
sg56
(lp4709
g49
(g50
g51
NtRp4710
(dp4711
g54
(dp4712
g62
I5
ssg63
g4706
sg56
(lp4713
S'200'
p4714
asbasbasbag49
(g65
g51
NtRp4715
(dp4716
g54
(dp4717
sg63
g2704
sg56
(lp4718
g49
(g70
g51
NtRp4719
(dp4720
g54
(dp4721
g74
g75
ssg63
g4715
sg56
(lp4722
S'subtitle'
p4723
asbag49
(g70
g51
NtRp4724
(dp4725
g54
(dp4726
g81
g82
ssg63
g4715
sg56
(lp4727
S':'
asbag49
(g70
g51
NtRp4728
(dp4729
g54
(dp4730
sg63
g4715
sg56
(lp4731
g49
(g50
g51
NtRp4732
(dp4733
g54
(dp4734
g62
I5
ssg63
g4728
sg56
(lp4735
g3332
(S's\x0f\x00\x00\x00Personalize-me!'
tRp4736
asbasbasbag49
(g65
g51
NtRp4737
(dp4738
g54
(dp4739
sg63
g2704
sg56
(lp4740
g49
(g70
g51
NtRp4741
(dp4742
g54
(dp4743
g74
g75
ssg63
g4737
sg56
(lp4744
S'title'
p4745
asbag49
(g70
g51
NtRp4746
(dp4747
g54
(dp4748
g81
g82
ssg63
g4737
sg56
(lp4749
S':'
asbag49
(g70
g51
NtRp4750
(dp4751
g54
(dp4752
sg63
g4737
sg56
(lp4753
g49
(g50
g51
NtRp4754
(dp4755
g54
(dp4756
g62
I5
ssg63
g4750
sg56
(lp4757
S'Unioeste Code'
p4758
asbasbasbag49
(g65
g51
NtRp4759
(dp4760
g54
(dp4761
sg63
g2704
sg56
(lp4762
g49
(g70
g51
NtRp4763
(dp4764
g54
(dp4765
g74
g75
ssg63
g4759
sg56
(lp4766
g1964
asbag49
(g70
g51
NtRp4767
(dp4768
g54
(dp4769
g81
g82
ssg63
g4759
sg56
(lp4770
S':'
asbag49
(g70
g51
NtRp4771
(dp4772
g54
(dp4773
sg63
g4759
sg56
(lp4774
g49
(g50
g51
NtRp4775
(dp4776
g54
(dp4777
g62
I5
ssg63
g4771
sg56
(lp4778
g1977
asbasbasbag49
(g65
g51
NtRp4779
(dp4780
g54
(dp4781
sg63
g2704
sg56
(lp4782
g49
(g70
g51
NtRp4783
(dp4784
g54
(dp4785
g74
g75
ssg63
g4779
sg56
(lp4786
S'view'
p4787
asbag49
(g70
g51
NtRp4788
(dp4789
g54
(dp4790
g81
g82
ssg63
g4779
sg56
(lp4791
S':'
asbag49
(g70
g51
NtRp4792
(dp4793
g54
(dp4794
sg63
g4779
sg56
(lp4795
g49
(g50
g51
NtRp4796
(dp4797
g54
(dp4798
g62
I5
ssg63
g4792
sg56
(lp4799
S'default/index.html'
p4800
asbasbasbasbasbsS'locals'
p4801
(dp4802
S'Service'
p4803
S"<class 'gluon.tools.Service'>"
p4804
sS'OBJECT'
p4805
S"<class 'gluon.html.OBJECT'>"
p4806
sS'SQLDB'
p4807
S"<class 'gluon.dal.DAL'>"
p4808
sg2686
S"<Storage {'_auth_next': '/unioeste_code/default/... {'version': '20.0.1132.57', 'name': 'Chrome'}}}>"
p4809
sS'LINK'
p4810
S"<class 'gluon.html.LINK'>"
p4811
sS'BR'
p4812
S"<class 'gluon.html.BR'>"
p4813
sS'local_import'
p4814
S'<function <lambda> at 0x06252130>'
p4815
sS'OPTGROUP'
p4816
S"<class 'gluon.html.OPTGROUP'>"
p4817
sS'PRE'
p4818
S"<class 'gluon.html.PRE'>"
p4819
sS'IS_INT_IN_RANGE'
p4820
S"<class 'gluon.validators.IS_INT_IN_RANGE'>"
p4821
sS'IS_LOWER'
p4822
S"<class 'gluon.validators.IS_LOWER'>"
p4823
sS'IS_STRONG'
p4824
S"<class 'gluon.validators.IS_STRONG'>"
p4825
sS'Recaptcha'
p4826
S"<class 'gluon.tools.Recaptcha'>"
p4827
sS'cache'
p4828
S'<gluon.cache.Cache object at 0x06250DB0>'
p4829
sS'IS_IN_DB'
p4830
S"<class 'gluon.validators.IS_IN_DB'>"
p4831
sS'TAG'
p4832
S'<gluon.html.__TAG__ object at 0x025FBE30>'
p4833
sS'SQLField'
p4834
S"<class 'gluon.dal.Field'>"
p4835
sS'BODY'
p4836
S"<class 'gluon.html.BODY'>"
p4837
sS'IS_DATE_IN_RANGE'
p4838
S"<class 'gluon.validators.IS_DATE_IN_RANGE'>"
p4839
sS'TH'
p4840
S"<class 'gluon.html.TH'>"
p4841
sS'URL'
p4842
S'<function URL at 0x0265D8F0>'
p4843
sS'__file__'
p4844
S"r'C:\\web2py\\applications\\unioeste_code\\views\\default/index.html'"
p4845
sS'db'
p4846
S"<DAL {'comment': <Table {'body': <gluon.dal.Fiel...object at 0x06235570>, '_singular': 'Problem'}>}>"
p4847
sS'auth'
p4848
S'<gluon.tools.Auth object at 0x06348E30>'
p4849
sS'P'
S"<class 'gluon.html.P'>"
p4850
sS'TFOOT'
p4851
S"<class 'gluon.html.TFOOT'>"
p4852
sS'XHTML'
p4853
S"<class 'gluon.html.XHTML'>"
p4854
sS'ON'
p4855
g1300
sS'OL'
p4856
S"<class 'gluon.html.OL'>"
p4857
sS'TEXTAREA'
p4858
S"<class 'gluon.html.TEXTAREA'>"
p4859
sS'MENU'
p4860
S"<class 'gluon.html.MENU'>"
p4861
sS'LOAD'
p4862
S'<function LOAD at 0x028D54B0>'
p4863
sS'CODE'
p4864
S"<class 'gluon.html.CODE'>"
p4865
sS'HTTP'
p4866
S"<class 'gluon.http.HTTP'>"
p4867
sS'HR'
p4868
S"<class 'gluon.html.HR'>"
p4869
sS'IS_DATETIME'
p4870
S"<class 'gluon.validators.IS_DATETIME'>"
p4871
sS'HEAD'
p4872
S"<class 'gluon.html.HEAD'>"
p4873
sS'LABEL'
p4874
S"<class 'gluon.html.LABEL'>"
p4875
sS'CLEANUP'
p4876
S"<class 'gluon.validators.CLEANUP'>"
p4877
sS'SELECT'
p4878
S"<class 'gluon.html.SELECT'>"
p4879
sS'CENTER'
p4880
S"<class 'gluon.html.CENTER'>"
p4881
sS'prettydate'
p4882
S'<function prettydate at 0x0323EEB0>'
p4883
sS'Crud'
p4884
S"<class 'gluon.tools.Crud'>"
p4885
sS'Auth'
p4886
S"<class 'gluon.tools.Auth'>"
p4887
sS'__builtins__'
p4888
S"{'ArithmeticError': <type 'exceptions.ArithmeticError'>, 'AssertionError': <type 'exceptions.AssertionError'>, 'AttributeError': <type 'exceptions.AttributeError'>, 'BaseException': <type 'exceptions.BaseException'>, 'DeprecationWarning': <type 'exceptions.DeprecationWarning'>, 'EOFError': <type 'exceptions.EOFError'>, 'Ellipsis': Ellipsis, 'EnvironmentError': <type 'exceptions.EnvironmentError'>, 'Exception': <type 'exceptions.Exception'>, 'False': False, ...}"
p4889
sS'HTML'
p4890
S"<class 'gluon.html.HTML'>"
p4891
sS'SQLFORM'
p4892
S"<class 'gluon.sqlhtml.SQLFORM'>"
p4893
sS'EM'
p4894
S"<class 'gluon.html.EM'>"
p4895
sS'redirect'
p4896
S'<function redirect at 0x024D8F70>'
p4897
sS'FIELDSET'
p4898
S"<class 'gluon.html.FIELDSET'>"
p4899
sS'IS_EQUAL_TO'
p4900
S"<class 'gluon.validators.IS_EQUAL_TO'>"
p4901
sS'embed64'
p4902
S'<function embed64 at 0x02661430>'
p4903
sS'IS_LIST_OF'
p4904
S"<class 'gluon.validators.IS_LIST_OF'>"
p4905
sS'__name__'
p4906
S"'__restricted__'"
p4907
sS'EMBED'
p4908
S"<class 'gluon.html.EMBED'>"
p4909
sS'_'
S'<function _ at 0x062715F0>'
p4910
sS'FORM'
p4911
S"<class 'gluon.html.FORM'>"
p4912
sS'H2'
p4913
S"<class 'gluon.html.H2'>"
p4914
sS'H3'
p4915
S"<class 'gluon.html.H3'>"
p4916
sS'BUTTON'
p4917
S"<class 'gluon.html.BUTTON'>"
p4918
sS'H1'
p4919
S"<class 'gluon.html.H1'>"
p4920
sS'H6'
p4921
S"<class 'gluon.html.H6'>"
p4922
sS'H4'
p4923
S"<class 'gluon.html.H4'>"
p4924
sS'H5'
p4925
S"<class 'gluon.html.H5'>"
p4926
sS'UL'
p4927
S"<class 'gluon.html.UL'>"
p4928
sS'IS_UPPER'
p4929
S"<class 'gluon.validators.IS_UPPER'>"
p4930
sS'xmlescape'
p4931
S'<function xmlescape at 0x0265D870>'
p4932
sS'IS_TIME'
p4933
S"<class 'gluon.validators.IS_TIME'>"
p4934
sS'OPTION'
p4935
S"<class 'gluon.html.OPTION'>"
p4936
sS'TITLE'
p4937
S"<class 'gluon.html.TITLE'>"
p4938
sS'CRYPT'
p4939
S"<class 'gluon.validators.CRYPT'>"
p4940
sS'IS_EMPTY_OR'
p4941
S"<class 'gluon.validators.IS_EMPTY_OR'>"
p4942
sS'MARKMIN'
p4943
S"<class 'gluon.html.MARKMIN'>"
p4944
sS'INPUT'
p4945
S"<class 'gluon.html.INPUT'>"
p4946
sS'COL'
p4947
S"<class 'gluon.html.COL'>"
p4948
sS'SCRIPT'
p4949
S"<class 'gluon.html.SCRIPT'>"
p4950
sS'geocode'
p4951
S'<function geocode at 0x0323E7F0>'
p4952
sS'is_mobile'
p4953
g92
sS'TABLE'
p4954
S"<class 'gluon.html.TABLE'>"
p4955
sS'IS_IPV4'
p4956
S"<class 'gluon.validators.IS_IPV4'>"
p4957
sS'IS_LENGTH'
p4958
S"<class 'gluon.validators.IS_LENGTH'>"
p4959
sS'XML'
p4960
S"<class 'gluon.html.XML'>"
p4961
sS'B'
S"<class 'gluon.html.B'>"
p4962
sS'IMG'
p4963
S"<class 'gluon.html.IMG'>"
p4964
sS'SQLTABLE'
p4965
S"<class 'gluon.sqlhtml.SQLTABLE'>"
p4966
sS'IS_MATCH'
p4967
S"<class 'gluon.validators.IS_MATCH'>"
p4968
sS'IS_ALPHANUMERIC'
p4969
S"<class 'gluon.validators.IS_ALPHANUMERIC'>"
p4970
sS'SPAN'
p4971
S"<class 'gluon.html.SPAN'>"
p4972
sS'IS_SLUG'
p4973
S"<class 'gluon.validators.IS_SLUG'>"
p4974
sS'BEAUTIFY'
p4975
S"<class 'gluon.html.BEAUTIFY'>"
p4976
sS'META'
p4977
S"<class 'gluon.html.META'>"
p4978
sS'fetch'
p4979
S'<function fetch at 0x03239670>'
p4980
sS'IS_DATE'
p4981
S"<class 'gluon.validators.IS_DATE'>"
p4982
sS'IS_EMAIL'
p4983
S"<class 'gluon.validators.IS_EMAIL'>"
p4984
sS'IS_NOT_EMPTY'
p4985
S"<class 'gluon.validators.IS_NOT_EMPTY'>"
p4986
sg48
S"<Storage {'body': <cStringIO.StringO object at 0..._vars': <Storage {}>, 'post_vars': <Storage {}>}>"
p4987
sS'TBODY'
p4988
S"<class 'gluon.html.TBODY'>"
p4989
sS'CAT'
p4990
S"<class 'gluon.html.CAT'>"
p4991
sS'Field'
p4992
S"<class 'gluon.dal.Field'>"
p4993
sS'Mail'
p4994
S"<class 'gluon.tools.Mail'>"
p4995
sS'DIV'
p4996
S"<class 'gluon.html.DIV'>"
p4997
sS'LEGEND'
p4998
S"<class 'gluon.html.LEGEND'>"
p4999
sS'COLGROUP'
p5000
S"<class 'gluon.html.COLGROUP'>"
p5001
sS'DAL'
p5002
S"<class 'gluon.dal.DAL'>"
p5003
sS'TT'
p5004
S"<class 'gluon.html.TT'>"
p5005
sS'TR'
p5006
S"<class 'gluon.html.TR'>"
p5007
sS'LI'
p5008
S"<class 'gluon.html.LI'>"
p5009
sS'IFRAME'
p5010
S"<class 'gluon.html.IFRAME'>"
p5011
sS'TD'
p5012
S"<class 'gluon.html.TD'>"
p5013
sS'PluginManager'
p5014
S"<class 'gluon.tools.PluginManager'>"
p5015
sS'IS_URL'
p5016
S"<class 'gluon.validators.IS_URL'>"
p5017
sS'A'
S"<class 'gluon.html.A'>"
p5018
sS'STYLE'
p5019
S"<class 'gluon.html.STYLE'>"
p5020
sS'IS_DATETIME_IN_RANGE'
p5021
S"<class 'gluon.validators.IS_DATETIME_IN_RANGE'>"
p5022
sS'IS_IMAGE'
p5023
S"<class 'gluon.validators.IS_IMAGE'>"
p5024
sS'I'
S"<class 'gluon.html.I'>"
p5025
sS'crud'
p5026
S'<gluon.tools.Crud object at 0x06250910>'
p5027
sS'problems'
p5028
S'<gluon.dal.Rows object at 0x063480F0>'
p5029
sS'IS_NOT_IN_DB'
p5030
S"<class 'gluon.validators.IS_NOT_IN_DB'>"
p5031
sg2699
S"<Storage {'body': <cStringIO.StringO object at 0...a> at 0x061A8BF0>, 'view': 'default/index.html'}>"
p5032
sS'THEAD'
p5033
S"<class 'gluon.html.THEAD'>"
p5034
sS'IS_NULL_OR'
p5035
S"<class 'gluon.validators.IS_EMPTY_OR'>"
p5036
sS'IS_FLOAT_IN_RANGE'
p5037
S"<class 'gluon.validators.IS_FLOAT_IN_RANGE'>"
p5038
sS'IS_EXPR'
p5039
S"<class 'gluon.validators.IS_EXPR'>"
p5040
sS'T'
S'<gluon.languages.translator object at 0x06250A90>'
p5041
sS'IS_IN_SET'
p5042
S"<class 'gluon.validators.IS_IN_SET'>"
p5043
sS'IS_UPLOAD_FILENAME'
p5044
S"<class 'gluon.validators.IS_UPLOAD_FILENAME'>"
p5045
sS'IS_DECIMAL_IN_RANGE'
p5046
S"<class 'gluon.validators.IS_DECIMAL_IN_RANGE'>"
p5047
sssS'traceback'
p5048
S'Traceback (most recent call last):\n  File "gluon/restricted.py", line 205, in restricted\n  File "C:\\web2py\\applications\\unioeste_code\\views\\default/index.html", line 64, in <module>\nNameError: name \'left_sidebar_enabled\' is not defined\n'
p5049
s.