(dp1
S'output'
p2
S"<type 'exceptions.SyntaxError'> invalid syntax (db.py, line 19)"
p3
sS'layer'
p4
S'C:\\web2py\\applications\\unioeste_code\\models\\db.py'
p5
sS'code'
p6
S"from gluon.tools import *\n\n\ndb = DAL('sqlite://storage.sqlite')\n\nauth = Auth(db)\nauth.define_tables()\n\n\ndb.define_table('problem',\n    Field('title'),\n    Field('body','text'),\n    Field('created_on','datetime',default=request.now),\n    Field('created_by', db.auth_user, default=auth.user_id)\n    )\n\ndb.define_table('code',\n    Field('problem_id', db.problem)\n    Field('body','text'),\n    Field('created_on', 'datetime', default=request.now),\n    Field('created_by', db.auth_user, default=auth.user_id)\n    )\n\ndb.define_table('comment',\n    Field('code_id', db.code),\n    Field('body', 'text'),\n    Field('created_on','datetime', default=request.now),\n    Field('created_by', db.auth_user, default=auth.user_id)\n    )\n\ndb.problem.title.requires = IS_NOT_IN_DB(db, 'problem.title')\ndb.problem.body.requires = IS_NOT_EMPTY()\ndb.problem.created_by.readable = db.problem.created_by.writable = False\ndb.problem.created_on.readable = db.problem.created_on.writable = False\n\ndb.code.body.requires = IS_NOT_EMPTY()\ndb.code.problem_id.readable = db.code.problem_id.writable = False \ndb.code.created_by.readable = db.code.created_by.writable = False\ndb.code.created_on.readable = db.code.created_on.writable = False\n\ndb.comment.body.requires = IS_NOT_EMPTY()\ndb.comment.code_id.readable = db.comment.code_id.writable = False\ndb.comment.created_by.readable = db.comment.created_by.writable = False\ndb.comment.created_on.readable = db.comment.created_on.writable = False\n\n\n"
p7
sS'snapshot'
p8
(dp9
S'exception'
p10
(dp11
S'__getslice__'
p12
S"<method-wrapper '__getslice__' of exceptions.SyntaxError object at 0x05F5FF30>"
p13
sS'text'
p14
S'"    Field(\'body\',\'text\'),\\n"'
p15
sS'__str__'
p16
S"<method-wrapper '__str__' of exceptions.SyntaxError object at 0x05F5FF30>"
p17
sS'__reduce__'
p18
S'<built-in method __reduce__ of exceptions.SyntaxError object at 0x05F5FF30>'
p19
sS'__dict__'
p20
S'{}'
p21
sS'__init__'
p22
S"<method-wrapper '__init__' of exceptions.SyntaxError object at 0x05F5FF30>"
p23
sS'__setattr__'
p24
S"<method-wrapper '__setattr__' of exceptions.SyntaxError object at 0x05F5FF30>"
p25
sS'__reduce_ex__'
p26
S'<built-in method __reduce_ex__ of exceptions.SyntaxError object at 0x05F5FF30>'
p27
sS'__new__'
p28
S'<built-in method __new__ of type object at 0x1E1CDBD0>'
p29
sS'__class__'
p30
S"<type 'exceptions.SyntaxError'>"
p31
sS'filename'
p32
S"r'C:\\web2py\\applications\\unioeste_code\\models\\db.py'"
p33
sS'lineno'
p34
S'19'
p35
sS'msg'
p36
S"'invalid syntax'"
p37
sS'__doc__'
p38
S"'Invalid syntax.'"
p39
sS'__getitem__'
p40
S"<method-wrapper '__getitem__' of exceptions.SyntaxError object at 0x05F5FF30>"
p41
sS'__setstate__'
p42
S'<built-in method __setstate__ of exceptions.SyntaxError object at 0x05F5FF30>'
p43
sS'__getattribute__'
p44
S"<method-wrapper '__getattribute__' of exceptions.SyntaxError object at 0x05F5FF30>"
p45
sS'print_file_and_line'
p46
S'None'
p47
sS'args'
p48
S'(\'invalid syntax\', (r\'C:\\web2py\\applications\\unioeste_code\\models\\db.py\', 19, 9, "    Field(\'body\',\'text\'),\\n"))'
p49
sS'offset'
p50
S'9'
sS'__delattr__'
p51
S"<method-wrapper '__delattr__' of exceptions.SyntaxError object at 0x05F5FF30>"
p52
sS'__repr__'
p53
S"<method-wrapper '__repr__' of exceptions.SyntaxError object at 0x05F5FF30>"
p54
sS'__hash__'
p55
S"<method-wrapper '__hash__' of exceptions.SyntaxError object at 0x05F5FF30>"
p56
ssS'evalue'
p57
S'invalid syntax (db.py, line 19)'
p58
sS'request'
p59
ccopy_reg
_reconstructor
p60
(cgluon.html
BEAUTIFY
p61
c__builtin__
object
p62
NtRp63
(dp64
S'attributes'
p65
(dp66
sS'components'
p67
(lp68
g60
(cgluon.html
TABLE
p69
g62
NtRp70
(dp71
g65
(dp72
S'level'
p73
I5
ssS'parent'
p74
Nsg67
(lp75
g60
(cgluon.html
TR
p76
g62
NtRp77
(dp78
g65
(dp79
sg74
g70
sg67
(lp80
g60
(cgluon.html
TD
p81
g62
NtRp82
(dp83
g65
(dp84
S'_style'
p85
S'font-weight:bold;vertical-align:top'
p86
ssg74
g77
sg67
(lp87
S'ajax'
p88
asbag60
(g81
g62
NtRp89
(dp90
g65
(dp91
S'_valign'
p92
S'top'
p93
ssg74
g77
sg67
(lp94
S':'
asbag60
(g81
g62
NtRp95
(dp96
g65
(dp97
sg74
g77
sg67
(lp98
g60
(g61
g62
NtRp99
(dp100
g65
(dp101
g73
I5
ssg74
g95
sg67
(lp102
S'False'
p103
asbasbasbag60
(g76
g62
NtRp104
(dp105
g65
(dp106
sg74
g70
sg67
(lp107
g60
(g81
g62
NtRp108
(dp109
g65
(dp110
g85
g86
ssg74
g104
sg67
(lp111
S'application'
p112
asbag60
(g81
g62
NtRp113
(dp114
g65
(dp115
g92
g93
ssg74
g104
sg67
(lp116
S':'
asbag60
(g81
g62
NtRp117
(dp118
g65
(dp119
sg74
g104
sg67
(lp120
g60
(g61
g62
NtRp121
(dp122
g65
(dp123
g73
I5
ssg74
g117
sg67
(lp124
S'unioeste_code'
p125
asbasbasbag60
(g76
g62
NtRp126
(dp127
g65
(dp128
sg74
g70
sg67
(lp129
g60
(g81
g62
NtRp130
(dp131
g65
(dp132
g85
g86
ssg74
g126
sg67
(lp133
g48
asbag60
(g81
g62
NtRp134
(dp135
g65
(dp136
g92
g93
ssg74
g126
sg67
(lp137
S':'
asbag60
(g81
g62
NtRp138
(dp139
g65
(dp140
sg74
g126
sg67
(lp141
g60
(g61
g62
NtRp142
(dp143
g65
(dp144
g73
I5
ssg74
g138
sg67
(lp145
g60
(g69
g62
NtRp146
(dp147
g65
(dp148
g73
I4
ssg74
Nsg67
(lp149
sbasbasbasbag60
(g76
g62
NtRp150
(dp151
g65
(dp152
sg74
g70
sg67
(lp153
g60
(g81
g62
NtRp154
(dp155
g65
(dp156
g85
g86
ssg74
g150
sg67
(lp157
S'body'
p158
asbag60
(g81
g62
NtRp159
(dp160
g65
(dp161
g92
g93
ssg74
g150
sg67
(lp162
S':'
asbag60
(g81
g62
NtRp163
(dp164
g65
(dp165
sg74
g150
sg67
(lp166
g60
(g61
g62
NtRp167
(dp168
g65
(dp169
g73
I5
ssg74
g163
sg67
(lp170
S'<cStringIO.StringO object at 0x0623AC80>'
p171
asbasbasbag60
(g76
g62
NtRp172
(dp173
g65
(dp174
sg74
g70
sg67
(lp175
g60
(g81
g62
NtRp176
(dp177
g65
(dp178
g85
g86
ssg74
g172
sg67
(lp179
S'client'
p180
asbag60
(g81
g62
NtRp181
(dp182
g65
(dp183
g92
g93
ssg74
g172
sg67
(lp184
S':'
asbag60
(g81
g62
NtRp185
(dp186
g65
(dp187
sg74
g172
sg67
(lp188
g60
(g61
g62
NtRp189
(dp190
g65
(dp191
g73
I5
ssg74
g185
sg67
(lp192
S'127.0.0.1'
p193
asbasbasbag60
(g76
g62
NtRp194
(dp195
g65
(dp196
sg74
g70
sg67
(lp197
g60
(g81
g62
NtRp198
(dp199
g65
(dp200
g85
g86
ssg74
g194
sg67
(lp201
S'controller'
p202
asbag60
(g81
g62
NtRp203
(dp204
g65
(dp205
g92
g93
ssg74
g194
sg67
(lp206
S':'
asbag60
(g81
g62
NtRp207
(dp208
g65
(dp209
sg74
g194
sg67
(lp210
g60
(g61
g62
NtRp211
(dp212
g65
(dp213
g73
I5
ssg74
g207
sg67
(lp214
S'appadmin'
p215
asbasbasbag60
(g76
g62
NtRp216
(dp217
g65
(dp218
sg74
g70
sg67
(lp219
g60
(g81
g62
NtRp220
(dp221
g65
(dp222
g85
g86
ssg74
g216
sg67
(lp223
S'cookies'
p224
asbag60
(g81
g62
NtRp225
(dp226
g65
(dp227
g92
g93
ssg74
g216
sg67
(lp228
S':'
asbag60
(g81
g62
NtRp229
(dp230
g65
(dp231
sg74
g216
sg67
(lp232
g60
(g61
g62
NtRp233
(dp234
g65
(dp235
g73
I5
ssg74
g229
sg67
(lp236
g60
(g69
g62
NtRp237
(dp238
g65
(dp239
g73
I4
ssg74
Nsg67
(lp240
g60
(g76
g62
NtRp241
(dp242
g65
(dp243
sg74
g237
sg67
(lp244
g60
(g81
g62
NtRp245
(dp246
g65
(dp247
g85
g86
ssg74
g241
sg67
(lp248
S'session_id_admin'
p249
asbag60
(g81
g62
NtRp250
(dp251
g65
(dp252
g92
g93
ssg74
g241
sg67
(lp253
S':'
asbag60
(g81
g62
NtRp254
(dp255
g65
(dp256
sg74
g241
sg67
(lp257
g60
(g61
g62
NtRp258
(dp259
g65
(dp260
g73
I4
ssg74
g254
sg67
(lp261
g60
(g69
g62
NtRp262
(dp263
g65
(dp264
g73
I3
ssg74
Nsg67
(lp265
g60
(g76
g62
NtRp266
(dp267
g65
(dp268
sg74
g262
sg67
(lp269
g60
(g81
g62
NtRp270
(dp271
g65
(dp272
g85
g86
ssg74
g266
sg67
(lp273
S'comment'
p274
asbag60
(g81
g62
NtRp275
(dp276
g65
(dp277
g92
g93
ssg74
g266
sg67
(lp278
S':'
asbag60
(g81
g62
NtRp279
(dp280
g65
(dp281
sg74
g266
sg67
(lp282
g60
(g61
g62
NtRp283
(dp284
g65
(dp285
g73
I3
ssg74
g279
sg67
(lp286
S''
asbasbasbag60
(g76
g62
NtRp287
(dp288
g65
(dp289
sg74
g262
sg67
(lp290
g60
(g81
g62
NtRp291
(dp292
g65
(dp293
g85
g86
ssg74
g287
sg67
(lp294
S'domain'
p295
asbag60
(g81
g62
NtRp296
(dp297
g65
(dp298
g92
g93
ssg74
g287
sg67
(lp299
S':'
asbag60
(g81
g62
NtRp300
(dp301
g65
(dp302
sg74
g287
sg67
(lp303
g60
(g61
g62
NtRp304
(dp305
g65
(dp306
g73
I3
ssg74
g300
sg67
(lp307
S''
asbasbasbag60
(g76
g62
NtRp308
(dp309
g65
(dp310
sg74
g262
sg67
(lp311
g60
(g81
g62
NtRp312
(dp313
g65
(dp314
g85
g86
ssg74
g308
sg67
(lp315
S'expires'
p316
asbag60
(g81
g62
NtRp317
(dp318
g65
(dp319
g92
g93
ssg74
g308
sg67
(lp320
S':'
asbag60
(g81
g62
NtRp321
(dp322
g65
(dp323
sg74
g308
sg67
(lp324
g60
(g61
g62
NtRp325
(dp326
g65
(dp327
g73
I3
ssg74
g321
sg67
(lp328
S''
asbasbasbag60
(g76
g62
NtRp329
(dp330
g65
(dp331
sg74
g262
sg67
(lp332
g60
(g81
g62
NtRp333
(dp334
g65
(dp335
g85
g86
ssg74
g329
sg67
(lp336
S'max-age'
p337
asbag60
(g81
g62
NtRp338
(dp339
g65
(dp340
g92
g93
ssg74
g329
sg67
(lp341
S':'
asbag60
(g81
g62
NtRp342
(dp343
g65
(dp344
sg74
g329
sg67
(lp345
g60
(g61
g62
NtRp346
(dp347
g65
(dp348
g73
I3
ssg74
g342
sg67
(lp349
S''
asbasbasbag60
(g76
g62
NtRp350
(dp351
g65
(dp352
sg74
g262
sg67
(lp353
g60
(g81
g62
NtRp354
(dp355
g65
(dp356
g85
g86
ssg74
g350
sg67
(lp357
S'path'
p358
asbag60
(g81
g62
NtRp359
(dp360
g65
(dp361
g92
g93
ssg74
g350
sg67
(lp362
S':'
asbag60
(g81
g62
NtRp363
(dp364
g65
(dp365
sg74
g350
sg67
(lp366
g60
(g61
g62
NtRp367
(dp368
g65
(dp369
g73
I3
ssg74
g363
sg67
(lp370
S''
asbasbasbag60
(g76
g62
NtRp371
(dp372
g65
(dp373
sg74
g262
sg67
(lp374
g60
(g81
g62
NtRp375
(dp376
g65
(dp377
g85
g86
ssg74
g371
sg67
(lp378
S'secure'
p379
asbag60
(g81
g62
NtRp380
(dp381
g65
(dp382
g92
g93
ssg74
g371
sg67
(lp383
S':'
asbag60
(g81
g62
NtRp384
(dp385
g65
(dp386
sg74
g371
sg67
(lp387
g60
(g61
g62
NtRp388
(dp389
g65
(dp390
g73
I3
ssg74
g384
sg67
(lp391
S''
asbasbasbag60
(g76
g62
NtRp392
(dp393
g65
(dp394
sg74
g262
sg67
(lp395
g60
(g81
g62
NtRp396
(dp397
g65
(dp398
g85
g86
ssg74
g392
sg67
(lp399
S'version'
p400
asbag60
(g81
g62
NtRp401
(dp402
g65
(dp403
g92
g93
ssg74
g392
sg67
(lp404
S':'
asbag60
(g81
g62
NtRp405
(dp406
g65
(dp407
sg74
g392
sg67
(lp408
g60
(g61
g62
NtRp409
(dp410
g65
(dp411
g73
I3
ssg74
g405
sg67
(lp412
S''
asbasbasbasbasbasbasbag60
(g76
g62
NtRp413
(dp414
g65
(dp415
sg74
g237
sg67
(lp416
g60
(g81
g62
NtRp417
(dp418
g65
(dp419
g85
g86
ssg74
g413
sg67
(lp420
S'session_id_unioeste_code'
p421
asbag60
(g81
g62
NtRp422
(dp423
g65
(dp424
g92
g93
ssg74
g413
sg67
(lp425
S':'
asbag60
(g81
g62
NtRp426
(dp427
g65
(dp428
sg74
g413
sg67
(lp429
g60
(g61
g62
NtRp430
(dp431
g65
(dp432
g73
I4
ssg74
g426
sg67
(lp433
g60
(g69
g62
NtRp434
(dp435
g65
(dp436
g73
I3
ssg74
Nsg67
(lp437
g60
(g76
g62
NtRp438
(dp439
g65
(dp440
sg74
g434
sg67
(lp441
g60
(g81
g62
NtRp442
(dp443
g65
(dp444
g85
g86
ssg74
g438
sg67
(lp445
g274
asbag60
(g81
g62
NtRp446
(dp447
g65
(dp448
g92
g93
ssg74
g438
sg67
(lp449
S':'
asbag60
(g81
g62
NtRp450
(dp451
g65
(dp452
sg74
g438
sg67
(lp453
g60
(g61
g62
NtRp454
(dp455
g65
(dp456
g73
I3
ssg74
g450
sg67
(lp457
S''
asbasbasbag60
(g76
g62
NtRp458
(dp459
g65
(dp460
sg74
g434
sg67
(lp461
g60
(g81
g62
NtRp462
(dp463
g65
(dp464
g85
g86
ssg74
g458
sg67
(lp465
g295
asbag60
(g81
g62
NtRp466
(dp467
g65
(dp468
g92
g93
ssg74
g458
sg67
(lp469
S':'
asbag60
(g81
g62
NtRp470
(dp471
g65
(dp472
sg74
g458
sg67
(lp473
g60
(g61
g62
NtRp474
(dp475
g65
(dp476
g73
I3
ssg74
g470
sg67
(lp477
S''
asbasbasbag60
(g76
g62
NtRp478
(dp479
g65
(dp480
sg74
g434
sg67
(lp481
g60
(g81
g62
NtRp482
(dp483
g65
(dp484
g85
g86
ssg74
g478
sg67
(lp485
g316
asbag60
(g81
g62
NtRp486
(dp487
g65
(dp488
g92
g93
ssg74
g478
sg67
(lp489
S':'
asbag60
(g81
g62
NtRp490
(dp491
g65
(dp492
sg74
g478
sg67
(lp493
g60
(g61
g62
NtRp494
(dp495
g65
(dp496
g73
I3
ssg74
g490
sg67
(lp497
S''
asbasbasbag60
(g76
g62
NtRp498
(dp499
g65
(dp500
sg74
g434
sg67
(lp501
g60
(g81
g62
NtRp502
(dp503
g65
(dp504
g85
g86
ssg74
g498
sg67
(lp505
g337
asbag60
(g81
g62
NtRp506
(dp507
g65
(dp508
g92
g93
ssg74
g498
sg67
(lp509
S':'
asbag60
(g81
g62
NtRp510
(dp511
g65
(dp512
sg74
g498
sg67
(lp513
g60
(g61
g62
NtRp514
(dp515
g65
(dp516
g73
I3
ssg74
g510
sg67
(lp517
S''
asbasbasbag60
(g76
g62
NtRp518
(dp519
g65
(dp520
sg74
g434
sg67
(lp521
g60
(g81
g62
NtRp522
(dp523
g65
(dp524
g85
g86
ssg74
g518
sg67
(lp525
g358
asbag60
(g81
g62
NtRp526
(dp527
g65
(dp528
g92
g93
ssg74
g518
sg67
(lp529
S':'
asbag60
(g81
g62
NtRp530
(dp531
g65
(dp532
sg74
g518
sg67
(lp533
g60
(g61
g62
NtRp534
(dp535
g65
(dp536
g73
I3
ssg74
g530
sg67
(lp537
S''
asbasbasbag60
(g76
g62
NtRp538
(dp539
g65
(dp540
sg74
g434
sg67
(lp541
g60
(g81
g62
NtRp542
(dp543
g65
(dp544
g85
g86
ssg74
g538
sg67
(lp545
g379
asbag60
(g81
g62
NtRp546
(dp547
g65
(dp548
g92
g93
ssg74
g538
sg67
(lp549
S':'
asbag60
(g81
g62
NtRp550
(dp551
g65
(dp552
sg74
g538
sg67
(lp553
g60
(g61
g62
NtRp554
(dp555
g65
(dp556
g73
I3
ssg74
g550
sg67
(lp557
S''
asbasbasbag60
(g76
g62
NtRp558
(dp559
g65
(dp560
sg74
g434
sg67
(lp561
g60
(g81
g62
NtRp562
(dp563
g65
(dp564
g85
g86
ssg74
g558
sg67
(lp565
g400
asbag60
(g81
g62
NtRp566
(dp567
g65
(dp568
g92
g93
ssg74
g558
sg67
(lp569
S':'
asbag60
(g81
g62
NtRp570
(dp571
g65
(dp572
sg74
g558
sg67
(lp573
g60
(g61
g62
NtRp574
(dp575
g65
(dp576
g73
I3
ssg74
g570
sg67
(lp577
S''
asbasbasbasbasbasbasbag60
(g76
g62
NtRp578
(dp579
g65
(dp580
sg74
g237
sg67
(lp581
g60
(g81
g62
NtRp582
(dp583
g65
(dp584
g85
g86
ssg74
g578
sg67
(lp585
S'session_id_welcome'
p586
asbag60
(g81
g62
NtRp587
(dp588
g65
(dp589
g92
g93
ssg74
g578
sg67
(lp590
S':'
asbag60
(g81
g62
NtRp591
(dp592
g65
(dp593
sg74
g578
sg67
(lp594
g60
(g61
g62
NtRp595
(dp596
g65
(dp597
g73
I4
ssg74
g591
sg67
(lp598
g60
(g69
g62
NtRp599
(dp600
g65
(dp601
g73
I3
ssg74
Nsg67
(lp602
g60
(g76
g62
NtRp603
(dp604
g65
(dp605
sg74
g599
sg67
(lp606
g60
(g81
g62
NtRp607
(dp608
g65
(dp609
g85
g86
ssg74
g603
sg67
(lp610
g274
asbag60
(g81
g62
NtRp611
(dp612
g65
(dp613
g92
g93
ssg74
g603
sg67
(lp614
S':'
asbag60
(g81
g62
NtRp615
(dp616
g65
(dp617
sg74
g603
sg67
(lp618
g60
(g61
g62
NtRp619
(dp620
g65
(dp621
g73
I3
ssg74
g615
sg67
(lp622
S''
asbasbasbag60
(g76
g62
NtRp623
(dp624
g65
(dp625
sg74
g599
sg67
(lp626
g60
(g81
g62
NtRp627
(dp628
g65
(dp629
g85
g86
ssg74
g623
sg67
(lp630
g295
asbag60
(g81
g62
NtRp631
(dp632
g65
(dp633
g92
g93
ssg74
g623
sg67
(lp634
S':'
asbag60
(g81
g62
NtRp635
(dp636
g65
(dp637
sg74
g623
sg67
(lp638
g60
(g61
g62
NtRp639
(dp640
g65
(dp641
g73
I3
ssg74
g635
sg67
(lp642
S''
asbasbasbag60
(g76
g62
NtRp643
(dp644
g65
(dp645
sg74
g599
sg67
(lp646
g60
(g81
g62
NtRp647
(dp648
g65
(dp649
g85
g86
ssg74
g643
sg67
(lp650
g316
asbag60
(g81
g62
NtRp651
(dp652
g65
(dp653
g92
g93
ssg74
g643
sg67
(lp654
S':'
asbag60
(g81
g62
NtRp655
(dp656
g65
(dp657
sg74
g643
sg67
(lp658
g60
(g61
g62
NtRp659
(dp660
g65
(dp661
g73
I3
ssg74
g655
sg67
(lp662
S''
asbasbasbag60
(g76
g62
NtRp663
(dp664
g65
(dp665
sg74
g599
sg67
(lp666
g60
(g81
g62
NtRp667
(dp668
g65
(dp669
g85
g86
ssg74
g663
sg67
(lp670
g337
asbag60
(g81
g62
NtRp671
(dp672
g65
(dp673
g92
g93
ssg74
g663
sg67
(lp674
S':'
asbag60
(g81
g62
NtRp675
(dp676
g65
(dp677
sg74
g663
sg67
(lp678
g60
(g61
g62
NtRp679
(dp680
g65
(dp681
g73
I3
ssg74
g675
sg67
(lp682
S''
asbasbasbag60
(g76
g62
NtRp683
(dp684
g65
(dp685
sg74
g599
sg67
(lp686
g60
(g81
g62
NtRp687
(dp688
g65
(dp689
g85
g86
ssg74
g683
sg67
(lp690
g358
asbag60
(g81
g62
NtRp691
(dp692
g65
(dp693
g92
g93
ssg74
g683
sg67
(lp694
S':'
asbag60
(g81
g62
NtRp695
(dp696
g65
(dp697
sg74
g683
sg67
(lp698
g60
(g61
g62
NtRp699
(dp700
g65
(dp701
g73
I3
ssg74
g695
sg67
(lp702
S''
asbasbasbag60
(g76
g62
NtRp703
(dp704
g65
(dp705
sg74
g599
sg67
(lp706
g60
(g81
g62
NtRp707
(dp708
g65
(dp709
g85
g86
ssg74
g703
sg67
(lp710
g379
asbag60
(g81
g62
NtRp711
(dp712
g65
(dp713
g92
g93
ssg74
g703
sg67
(lp714
S':'
asbag60
(g81
g62
NtRp715
(dp716
g65
(dp717
sg74
g703
sg67
(lp718
g60
(g61
g62
NtRp719
(dp720
g65
(dp721
g73
I3
ssg74
g715
sg67
(lp722
S''
asbasbasbag60
(g76
g62
NtRp723
(dp724
g65
(dp725
sg74
g599
sg67
(lp726
g60
(g81
g62
NtRp727
(dp728
g65
(dp729
g85
g86
ssg74
g723
sg67
(lp730
g400
asbag60
(g81
g62
NtRp731
(dp732
g65
(dp733
g92
g93
ssg74
g723
sg67
(lp734
S':'
asbag60
(g81
g62
NtRp735
(dp736
g65
(dp737
sg74
g723
sg67
(lp738
g60
(g61
g62
NtRp739
(dp740
g65
(dp741
g73
I3
ssg74
g735
sg67
(lp742
S''
asbasbasbasbasbasbasbasbasbasbasbag60
(g76
g62
NtRp743
(dp744
g65
(dp745
sg74
g70
sg67
(lp746
g60
(g81
g62
NtRp747
(dp748
g65
(dp749
g85
g86
ssg74
g743
sg67
(lp750
S'env'
p751
asbag60
(g81
g62
NtRp752
(dp753
g65
(dp754
g92
g93
ssg74
g743
sg67
(lp755
S':'
asbag60
(g81
g62
NtRp756
(dp757
g65
(dp758
sg74
g743
sg67
(lp759
g60
(g61
g62
NtRp760
(dp761
g65
(dp762
g73
I5
ssg74
g756
sg67
(lp763
g60
(g69
g62
NtRp764
(dp765
g65
(dp766
g73
I4
ssg74
Nsg67
(lp767
g60
(g76
g62
NtRp768
(dp769
g65
(dp770
sg74
g764
sg67
(lp771
g60
(g81
g62
NtRp772
(dp773
g65
(dp774
g85
g86
ssg74
g768
sg67
(lp775
S'app_folders'
p776
asbag60
(g81
g62
NtRp777
(dp778
g65
(dp779
g92
g93
ssg74
g768
sg67
(lp780
S':'
asbag60
(g81
g62
NtRp781
(dp782
g65
(dp783
sg74
g768
sg67
(lp784
g60
(g61
g62
NtRp785
(dp786
g65
(dp787
g73
I4
ssg74
g781
sg67
(lp788
S"set(['C:\\\\web2py\\\\applications\\\\admin\\\\', 'C:\\\\web2py\\\\applications\\\\welcome\\\\', 'C:\\\\web2py\\\\applications\\\\unioeste_code\\\\'])"
p789
asbasbasbag60
(g76
g62
NtRp790
(dp791
g65
(dp792
sg74
g764
sg67
(lp793
g60
(g81
g62
NtRp794
(dp795
g65
(dp796
g85
g86
ssg74
g790
sg67
(lp797
S'applications_parent'
p798
asbag60
(g81
g62
NtRp799
(dp800
g65
(dp801
g92
g93
ssg74
g790
sg67
(lp802
S':'
asbag60
(g81
g62
NtRp803
(dp804
g65
(dp805
sg74
g790
sg67
(lp806
g60
(g61
g62
NtRp807
(dp808
g65
(dp809
g73
I4
ssg74
g803
sg67
(lp810
S'C:\\web2py'
p811
asbasbasbag60
(g76
g62
NtRp812
(dp813
g65
(dp814
sg74
g764
sg67
(lp815
g60
(g81
g62
NtRp816
(dp817
g65
(dp818
g85
g86
ssg74
g812
sg67
(lp819
S'cmd_args'
p820
asbag60
(g81
g62
NtRp821
(dp822
g65
(dp823
g92
g93
ssg74
g812
sg67
(lp824
S':'
asbag60
(g81
g62
NtRp825
(dp826
g65
(dp827
sg74
g812
sg67
(lp828
g60
(g61
g62
NtRp829
(dp830
g65
(dp831
g73
I4
ssg74
g825
sg67
(lp832
g60
(g69
g62
NtRp833
(dp834
g65
(dp835
g73
I3
ssg74
Nsg67
(lp836
sbasbasbasbag60
(g76
g62
NtRp837
(dp838
g65
(dp839
sg74
g764
sg67
(lp840
g60
(g81
g62
NtRp841
(dp842
g65
(dp843
g85
g86
ssg74
g837
sg67
(lp844
S'cmd_options'
p845
asbag60
(g81
g62
NtRp846
(dp847
g65
(dp848
g92
g93
ssg74
g837
sg67
(lp849
S':'
asbag60
(g81
g62
NtRp850
(dp851
g65
(dp852
sg74
g837
sg67
(lp853
g60
(g61
g62
NtRp854
(dp855
g65
(dp856
g73
I4
ssg74
g850
sg67
(lp857
S"<Values at 0x309c300: {'verbose': False, 'ip': '127.0.0.1', 'shutdown_timeout': 5, 'taskbar': False, 'nocron': False, 'pid_filename': 'httpserver.pid', 'maxthreads': None, 'softcron': False, 'server_name': 'Pedro-PC', 'bpython': False, 'nogui': False, 'port': 8000, 'extcron': False, 'debuglevel': 30, 'test': None, 'folder': 'C:\\\\web2py', 'config': '', 'import_models': False, 'winservice': '', 'shell': None, 'run': '', 'log_filename': 'httpserver.log', 'args': [''], 'socket_timeout': 5, 'ssl_ca_certificate': None, 'scheduler': None, 'profiler_filename': None, 'ssl_private_key': '', 'password': '<ask>', 'request_queue_size': 5, 'ssl_certificate': '', 'cronjob': False, 'numthreads': None, 'quiet': False, 'interfaces': None, 'minthreads': None, 'timeout': 10, 'plain': False, 'nobanner': False}>"
p858
asbasbasbag60
(g76
g62
NtRp859
(dp860
g65
(dp861
sg74
g764
sg67
(lp862
g60
(g81
g62
NtRp863
(dp864
g65
(dp865
g85
g86
ssg74
g859
sg67
(lp866
S'db_sessions'
p867
asbag60
(g81
g62
NtRp868
(dp869
g65
(dp870
g92
g93
ssg74
g859
sg67
(lp871
S':'
asbag60
(g81
g62
NtRp872
(dp873
g65
(dp874
sg74
g859
sg67
(lp875
g60
(g61
g62
NtRp876
(dp877
g65
(dp878
g73
I4
ssg74
g872
sg67
(lp879
S'set([])'
p880
asbasbasbag60
(g76
g62
NtRp881
(dp882
g65
(dp883
sg74
g764
sg67
(lp884
g60
(g81
g62
NtRp885
(dp886
g65
(dp887
g85
g86
ssg74
g881
sg67
(lp888
S'debugging'
p889
asbag60
(g81
g62
NtRp890
(dp891
g65
(dp892
g92
g93
ssg74
g881
sg67
(lp893
S':'
asbag60
(g81
g62
NtRp894
(dp895
g65
(dp896
sg74
g881
sg67
(lp897
g60
(g61
g62
NtRp898
(dp899
g65
(dp900
g73
I4
ssg74
g894
sg67
(lp901
g103
asbasbasbag60
(g76
g62
NtRp902
(dp903
g65
(dp904
sg74
g764
sg67
(lp905
g60
(g81
g62
NtRp906
(dp907
g65
(dp908
g85
g86
ssg74
g902
sg67
(lp909
S'gluon_parent'
p910
asbag60
(g81
g62
NtRp911
(dp912
g65
(dp913
g92
g93
ssg74
g902
sg67
(lp914
S':'
asbag60
(g81
g62
NtRp915
(dp916
g65
(dp917
sg74
g902
sg67
(lp918
g60
(g61
g62
NtRp919
(dp920
g65
(dp921
g73
I4
ssg74
g915
sg67
(lp922
S'C:\\web2py'
p923
asbasbasbag60
(g76
g62
NtRp924
(dp925
g65
(dp926
sg74
g764
sg67
(lp927
g60
(g81
g62
NtRp928
(dp929
g65
(dp930
g85
g86
ssg74
g924
sg67
(lp931
S'http_accept'
p932
asbag60
(g81
g62
NtRp933
(dp934
g65
(dp935
g92
g93
ssg74
g924
sg67
(lp936
S':'
asbag60
(g81
g62
NtRp937
(dp938
g65
(dp939
sg74
g924
sg67
(lp940
g60
(g61
g62
NtRp941
(dp942
g65
(dp943
g73
I4
ssg74
g937
sg67
(lp944
S'text/html,application/xhtml+xml,application/xml;q=0.9,*/*;q=0.8'
p945
asbasbasbag60
(g76
g62
NtRp946
(dp947
g65
(dp948
sg74
g764
sg67
(lp949
g60
(g81
g62
NtRp950
(dp951
g65
(dp952
g85
g86
ssg74
g946
sg67
(lp953
S'http_accept_charset'
p954
asbag60
(g81
g62
NtRp955
(dp956
g65
(dp957
g92
g93
ssg74
g946
sg67
(lp958
S':'
asbag60
(g81
g62
NtRp959
(dp960
g65
(dp961
sg74
g946
sg67
(lp962
g60
(g61
g62
NtRp963
(dp964
g65
(dp965
g73
I4
ssg74
g959
sg67
(lp966
S'ISO-8859-1,utf-8;q=0.7,*;q=0.3'
p967
asbasbasbag60
(g76
g62
NtRp968
(dp969
g65
(dp970
sg74
g764
sg67
(lp971
g60
(g81
g62
NtRp972
(dp973
g65
(dp974
g85
g86
ssg74
g968
sg67
(lp975
S'http_accept_encoding'
p976
asbag60
(g81
g62
NtRp977
(dp978
g65
(dp979
g92
g93
ssg74
g968
sg67
(lp980
S':'
asbag60
(g81
g62
NtRp981
(dp982
g65
(dp983
sg74
g968
sg67
(lp984
g60
(g61
g62
NtRp985
(dp986
g65
(dp987
g73
I4
ssg74
g981
sg67
(lp988
S'gzip,deflate,sdch'
p989
asbasbasbag60
(g76
g62
NtRp990
(dp991
g65
(dp992
sg74
g764
sg67
(lp993
g60
(g81
g62
NtRp994
(dp995
g65
(dp996
g85
g86
ssg74
g990
sg67
(lp997
S'http_accept_language'
p998
asbag60
(g81
g62
NtRp999
(dp1000
g65
(dp1001
g92
g93
ssg74
g990
sg67
(lp1002
S':'
asbag60
(g81
g62
NtRp1003
(dp1004
g65
(dp1005
sg74
g990
sg67
(lp1006
g60
(g61
g62
NtRp1007
(dp1008
g65
(dp1009
g73
I4
ssg74
g1003
sg67
(lp1010
S'pt-BR,pt;q=0.8,en-US;q=0.6,en;q=0.4'
p1011
asbasbasbag60
(g76
g62
NtRp1012
(dp1013
g65
(dp1014
sg74
g764
sg67
(lp1015
g60
(g81
g62
NtRp1016
(dp1017
g65
(dp1018
g85
g86
ssg74
g1012
sg67
(lp1019
S'http_cache_control'
p1020
asbag60
(g81
g62
NtRp1021
(dp1022
g65
(dp1023
g92
g93
ssg74
g1012
sg67
(lp1024
S':'
asbag60
(g81
g62
NtRp1025
(dp1026
g65
(dp1027
sg74
g1012
sg67
(lp1028
g60
(g61
g62
NtRp1029
(dp1030
g65
(dp1031
g73
I4
ssg74
g1025
sg67
(lp1032
S'max-age=0'
p1033
asbasbasbag60
(g76
g62
NtRp1034
(dp1035
g65
(dp1036
sg74
g764
sg67
(lp1037
g60
(g81
g62
NtRp1038
(dp1039
g65
(dp1040
g85
g86
ssg74
g1034
sg67
(lp1041
S'http_connection'
p1042
asbag60
(g81
g62
NtRp1043
(dp1044
g65
(dp1045
g92
g93
ssg74
g1034
sg67
(lp1046
S':'
asbag60
(g81
g62
NtRp1047
(dp1048
g65
(dp1049
sg74
g1034
sg67
(lp1050
g60
(g61
g62
NtRp1051
(dp1052
g65
(dp1053
g73
I4
ssg74
g1047
sg67
(lp1054
S'keep-alive'
p1055
asbasbasbag60
(g76
g62
NtRp1056
(dp1057
g65
(dp1058
sg74
g764
sg67
(lp1059
g60
(g81
g62
NtRp1060
(dp1061
g65
(dp1062
g85
g86
ssg74
g1056
sg67
(lp1063
S'http_cookie'
p1064
asbag60
(g81
g62
NtRp1065
(dp1066
g65
(dp1067
g92
g93
ssg74
g1056
sg67
(lp1068
S':'
asbag60
(g81
g62
NtRp1069
(dp1070
g65
(dp1071
sg74
g1056
sg67
(lp1072
g60
(g61
g62
NtRp1073
(dp1074
g65
(dp1075
g73
I4
ssg74
g1069
sg67
(lp1076
S'session_id_welcome=127.0.0.1-1a92f181-8ff8-45e5-a5ea-67695bf9cf4b; session_id_admin=127.0.0.1-74314c3a-3fdd-4faa-80a4-9a8219ae5070; session_id_unioeste_code=127.0.0.1-87142505-8d38-426f-afb9-e3f36884a384'
p1077
asbasbasbag60
(g76
g62
NtRp1078
(dp1079
g65
(dp1080
sg74
g764
sg67
(lp1081
g60
(g81
g62
NtRp1082
(dp1083
g65
(dp1084
g85
g86
ssg74
g1078
sg67
(lp1085
S'http_dnt'
p1086
asbag60
(g81
g62
NtRp1087
(dp1088
g65
(dp1089
g92
g93
ssg74
g1078
sg67
(lp1090
S':'
asbag60
(g81
g62
NtRp1091
(dp1092
g65
(dp1093
sg74
g1078
sg67
(lp1094
g60
(g61
g62
NtRp1095
(dp1096
g65
(dp1097
g73
I4
ssg74
g1091
sg67
(lp1098
S'1'
asbasbasbag60
(g76
g62
NtRp1099
(dp1100
g65
(dp1101
sg74
g764
sg67
(lp1102
g60
(g81
g62
NtRp1103
(dp1104
g65
(dp1105
g85
g86
ssg74
g1099
sg67
(lp1106
S'http_host'
p1107
asbag60
(g81
g62
NtRp1108
(dp1109
g65
(dp1110
g92
g93
ssg74
g1099
sg67
(lp1111
S':'
asbag60
(g81
g62
NtRp1112
(dp1113
g65
(dp1114
sg74
g1099
sg67
(lp1115
g60
(g61
g62
NtRp1116
(dp1117
g65
(dp1118
g73
I4
ssg74
g1112
sg67
(lp1119
S'localhost:8000'
p1120
asbasbasbag60
(g76
g62
NtRp1121
(dp1122
g65
(dp1123
sg74
g764
sg67
(lp1124
g60
(g81
g62
NtRp1125
(dp1126
g65
(dp1127
g85
g86
ssg74
g1121
sg67
(lp1128
S'http_user_agent'
p1129
asbag60
(g81
g62
NtRp1130
(dp1131
g65
(dp1132
g92
g93
ssg74
g1121
sg67
(lp1133
S':'
asbag60
(g81
g62
NtRp1134
(dp1135
g65
(dp1136
sg74
g1121
sg67
(lp1137
g60
(g61
g62
NtRp1138
(dp1139
g65
(dp1140
g73
I4
ssg74
g1134
sg67
(lp1141
S'Mozilla/5.0 (Windows NT 6.1; WOW64) AppleWebKit/536.11 (KHTML, like Gecko) Chrome/20.0.1132.57 Safari/536.11'
p1142
asbasbasbag60
(g76
g62
NtRp1143
(dp1144
g65
(dp1145
sg74
g764
sg67
(lp1146
g60
(g81
g62
NtRp1147
(dp1148
g65
(dp1149
g85
g86
ssg74
g1143
sg67
(lp1150
S'is_jython'
p1151
asbag60
(g81
g62
NtRp1152
(dp1153
g65
(dp1154
g92
g93
ssg74
g1143
sg67
(lp1155
S':'
asbag60
(g81
g62
NtRp1156
(dp1157
g65
(dp1158
sg74
g1143
sg67
(lp1159
g60
(g61
g62
NtRp1160
(dp1161
g65
(dp1162
g73
I4
ssg74
g1156
sg67
(lp1163
g103
asbasbasbag60
(g76
g62
NtRp1164
(dp1165
g65
(dp1166
sg74
g764
sg67
(lp1167
g60
(g81
g62
NtRp1168
(dp1169
g65
(dp1170
g85
g86
ssg74
g1164
sg67
(lp1171
S'is_pypy'
p1172
asbag60
(g81
g62
NtRp1173
(dp1174
g65
(dp1175
g92
g93
ssg74
g1164
sg67
(lp1176
S':'
asbag60
(g81
g62
NtRp1177
(dp1178
g65
(dp1179
sg74
g1164
sg67
(lp1180
g60
(g61
g62
NtRp1181
(dp1182
g65
(dp1183
g73
I4
ssg74
g1177
sg67
(lp1184
g103
asbasbasbag60
(g76
g62
NtRp1185
(dp1186
g65
(dp1187
sg74
g764
sg67
(lp1188
g60
(g81
g62
NtRp1189
(dp1190
g65
(dp1191
g85
g86
ssg74
g1185
sg67
(lp1192
S'path_info'
p1193
asbag60
(g81
g62
NtRp1194
(dp1195
g65
(dp1196
g92
g93
ssg74
g1185
sg67
(lp1197
S':'
asbag60
(g81
g62
NtRp1198
(dp1199
g65
(dp1200
sg74
g1185
sg67
(lp1201
g60
(g61
g62
NtRp1202
(dp1203
g65
(dp1204
g73
I4
ssg74
g1198
sg67
(lp1205
S'/unioeste_code/appadmin'
p1206
asbasbasbag60
(g76
g62
NtRp1207
(dp1208
g65
(dp1209
sg74
g764
sg67
(lp1210
g60
(g81
g62
NtRp1211
(dp1212
g65
(dp1213
g85
g86
ssg74
g1207
sg67
(lp1214
S'query_string'
p1215
asbag60
(g81
g62
NtRp1216
(dp1217
g65
(dp1218
g92
g93
ssg74
g1207
sg67
(lp1219
S':'
asbag60
(g81
g62
NtRp1220
(dp1221
g65
(dp1222
sg74
g1207
sg67
(lp1223
g60
(g61
g62
NtRp1224
(dp1225
g65
(dp1226
g73
I4
ssg74
g1220
sg67
(lp1227
S''
asbasbasbag60
(g76
g62
NtRp1228
(dp1229
g65
(dp1230
sg74
g764
sg67
(lp1231
g60
(g81
g62
NtRp1232
(dp1233
g65
(dp1234
g85
g86
ssg74
g1228
sg67
(lp1235
S'remote_addr'
p1236
asbag60
(g81
g62
NtRp1237
(dp1238
g65
(dp1239
g92
g93
ssg74
g1228
sg67
(lp1240
S':'
asbag60
(g81
g62
NtRp1241
(dp1242
g65
(dp1243
sg74
g1228
sg67
(lp1244
g60
(g61
g62
NtRp1245
(dp1246
g65
(dp1247
g73
I4
ssg74
g1241
sg67
(lp1248
g193
asbasbasbag60
(g76
g62
NtRp1249
(dp1250
g65
(dp1251
sg74
g764
sg67
(lp1252
g60
(g81
g62
NtRp1253
(dp1254
g65
(dp1255
g85
g86
ssg74
g1249
sg67
(lp1256
S'remote_port'
p1257
asbag60
(g81
g62
NtRp1258
(dp1259
g65
(dp1260
g92
g93
ssg74
g1249
sg67
(lp1261
S':'
asbag60
(g81
g62
NtRp1262
(dp1263
g65
(dp1264
sg74
g1249
sg67
(lp1265
g60
(g61
g62
NtRp1266
(dp1267
g65
(dp1268
g73
I4
ssg74
g1262
sg67
(lp1269
S'2205'
p1270
asbasbasbag60
(g76
g62
NtRp1271
(dp1272
g65
(dp1273
sg74
g764
sg67
(lp1274
g60
(g81
g62
NtRp1275
(dp1276
g65
(dp1277
g85
g86
ssg74
g1271
sg67
(lp1278
S'request_method'
p1279
asbag60
(g81
g62
NtRp1280
(dp1281
g65
(dp1282
g92
g93
ssg74
g1271
sg67
(lp1283
S':'
asbag60
(g81
g62
NtRp1284
(dp1285
g65
(dp1286
sg74
g1271
sg67
(lp1287
g60
(g61
g62
NtRp1288
(dp1289
g65
(dp1290
g73
I4
ssg74
g1284
sg67
(lp1291
S'GET'
p1292
asbasbasbag60
(g76
g62
NtRp1293
(dp1294
g65
(dp1295
sg74
g764
sg67
(lp1296
g60
(g81
g62
NtRp1297
(dp1298
g65
(dp1299
g85
g86
ssg74
g1293
sg67
(lp1300
S'script_name'
p1301
asbag60
(g81
g62
NtRp1302
(dp1303
g65
(dp1304
g92
g93
ssg74
g1293
sg67
(lp1305
S':'
asbag60
(g81
g62
NtRp1306
(dp1307
g65
(dp1308
sg74
g1293
sg67
(lp1309
g60
(g61
g62
NtRp1310
(dp1311
g65
(dp1312
g73
I4
ssg74
g1306
sg67
(lp1313
S''
asbasbasbag60
(g76
g62
NtRp1314
(dp1315
g65
(dp1316
sg74
g764
sg67
(lp1317
g60
(g81
g62
NtRp1318
(dp1319
g65
(dp1320
g85
g86
ssg74
g1314
sg67
(lp1321
S'server_name'
p1322
asbag60
(g81
g62
NtRp1323
(dp1324
g65
(dp1325
g92
g93
ssg74
g1314
sg67
(lp1326
S':'
asbag60
(g81
g62
NtRp1327
(dp1328
g65
(dp1329
sg74
g1314
sg67
(lp1330
g60
(g61
g62
NtRp1331
(dp1332
g65
(dp1333
g73
I4
ssg74
g1327
sg67
(lp1334
S'Pedro-PC'
p1335
asbasbasbag60
(g76
g62
NtRp1336
(dp1337
g65
(dp1338
sg74
g764
sg67
(lp1339
g60
(g81
g62
NtRp1340
(dp1341
g65
(dp1342
g85
g86
ssg74
g1336
sg67
(lp1343
S'server_port'
p1344
asbag60
(g81
g62
NtRp1345
(dp1346
g65
(dp1347
g92
g93
ssg74
g1336
sg67
(lp1348
S':'
asbag60
(g81
g62
NtRp1349
(dp1350
g65
(dp1351
sg74
g1336
sg67
(lp1352
g60
(g61
g62
NtRp1353
(dp1354
g65
(dp1355
g73
I4
ssg74
g1349
sg67
(lp1356
S'8000'
p1357
asbasbasbag60
(g76
g62
NtRp1358
(dp1359
g65
(dp1360
sg74
g764
sg67
(lp1361
g60
(g81
g62
NtRp1362
(dp1363
g65
(dp1364
g85
g86
ssg74
g1358
sg67
(lp1365
S'server_protocol'
p1366
asbag60
(g81
g62
NtRp1367
(dp1368
g65
(dp1369
g92
g93
ssg74
g1358
sg67
(lp1370
S':'
asbag60
(g81
g62
NtRp1371
(dp1372
g65
(dp1373
sg74
g1358
sg67
(lp1374
g60
(g61
g62
NtRp1375
(dp1376
g65
(dp1377
g73
I4
ssg74
g1371
sg67
(lp1378
S'HTTP/1.1'
p1379
asbasbasbag60
(g76
g62
NtRp1380
(dp1381
g65
(dp1382
sg74
g764
sg67
(lp1383
g60
(g81
g62
NtRp1384
(dp1385
g65
(dp1386
g85
g86
ssg74
g1380
sg67
(lp1387
S'server_software'
p1388
asbag60
(g81
g62
NtRp1389
(dp1390
g65
(dp1391
g92
g93
ssg74
g1380
sg67
(lp1392
S':'
asbag60
(g81
g62
NtRp1393
(dp1394
g65
(dp1395
sg74
g1380
sg67
(lp1396
g60
(g61
g62
NtRp1397
(dp1398
g65
(dp1399
g73
I4
ssg74
g1393
sg67
(lp1400
S'Rocket 1.2.4'
p1401
asbasbasbag60
(g76
g62
NtRp1402
(dp1403
g65
(dp1404
sg74
g764
sg67
(lp1405
g60
(g81
g62
NtRp1406
(dp1407
g65
(dp1408
g85
g86
ssg74
g1402
sg67
(lp1409
S'web2py_crontype'
p1410
asbag60
(g81
g62
NtRp1411
(dp1412
g65
(dp1413
g92
g93
ssg74
g1402
sg67
(lp1414
S':'
asbag60
(g81
g62
NtRp1415
(dp1416
g65
(dp1417
sg74
g1402
sg67
(lp1418
g60
(g61
g62
NtRp1419
(dp1420
g65
(dp1421
g73
I4
ssg74
g1415
sg67
(lp1422
S'hard'
p1423
asbasbasbag60
(g76
g62
NtRp1424
(dp1425
g65
(dp1426
sg74
g764
sg67
(lp1427
g60
(g81
g62
NtRp1428
(dp1429
g65
(dp1430
g85
g86
ssg74
g1424
sg67
(lp1431
S'web2py_path'
p1432
asbag60
(g81
g62
NtRp1433
(dp1434
g65
(dp1435
g92
g93
ssg74
g1424
sg67
(lp1436
S':'
asbag60
(g81
g62
NtRp1437
(dp1438
g65
(dp1439
sg74
g1424
sg67
(lp1440
g60
(g61
g62
NtRp1441
(dp1442
g65
(dp1443
g73
I4
ssg74
g1437
sg67
(lp1444
g811
asbasbasbag60
(g76
g62
NtRp1445
(dp1446
g65
(dp1447
sg74
g764
sg67
(lp1448
g60
(g81
g62
NtRp1449
(dp1450
g65
(dp1451
g85
g86
ssg74
g1445
sg67
(lp1452
S'web2py_version'
p1453
asbag60
(g81
g62
NtRp1454
(dp1455
g65
(dp1456
g92
g93
ssg74
g1445
sg67
(lp1457
S':'
asbag60
(g81
g62
NtRp1458
(dp1459
g65
(dp1460
sg74
g1445
sg67
(lp1461
g60
(g61
g62
NtRp1462
(dp1463
g65
(dp1464
g73
I4
ssg74
g1458
sg67
(lp1465
g60
(g69
g62
NtRp1466
(dp1467
g65
(dp1468
g73
I3
ssg74
Nsg67
(lp1469
g60
(g76
g62
NtRp1470
(dp1471
g65
(dp1472
sg74
g1466
sg67
(lp1473
g60
(g81
g62
NtRp1474
(dp1475
g65
(dp1476
sg74
g1470
sg67
(lp1477
g60
(g61
g62
NtRp1478
(dp1479
g65
(dp1480
g73
I3
ssg74
g1474
sg67
(lp1481
S'1'
asbasbasbag60
(g76
g62
NtRp1482
(dp1483
g65
(dp1484
sg74
g1466
sg67
(lp1485
g60
(g81
g62
NtRp1486
(dp1487
g65
(dp1488
sg74
g1482
sg67
(lp1489
g60
(g61
g62
NtRp1490
(dp1491
g65
(dp1492
g73
I3
ssg74
g1486
sg67
(lp1493
S'99'
p1494
asbasbasbag60
(g76
g62
NtRp1495
(dp1496
g65
(dp1497
sg74
g1466
sg67
(lp1498
g60
(g81
g62
NtRp1499
(dp1500
g65
(dp1501
sg74
g1495
sg67
(lp1502
g60
(g61
g62
NtRp1503
(dp1504
g65
(dp1505
g73
I3
ssg74
g1499
sg67
(lp1506
S'7'
asbasbasbag60
(g76
g62
NtRp1507
(dp1508
g65
(dp1509
sg74
g1466
sg67
(lp1510
g60
(g81
g62
NtRp1511
(dp1512
g65
(dp1513
sg74
g1507
sg67
(lp1514
g60
(g61
g62
NtRp1515
(dp1516
g65
(dp1517
g73
I3
ssg74
g1511
sg67
(lp1518
S'datetime.datetime(2012, 3, 4, 22, 12, 8)'
p1519
asbasbasbag60
(g76
g62
NtRp1520
(dp1521
g65
(dp1522
sg74
g1466
sg67
(lp1523
g60
(g81
g62
NtRp1524
(dp1525
g65
(dp1526
sg74
g1520
sg67
(lp1527
g60
(g61
g62
NtRp1528
(dp1529
g65
(dp1530
g73
I3
ssg74
g1524
sg67
(lp1531
S'stable'
p1532
asbasbasbasbasbasbasbag60
(g76
g62
NtRp1533
(dp1534
g65
(dp1535
sg74
g764
sg67
(lp1536
g60
(g81
g62
NtRp1537
(dp1538
g65
(dp1539
g85
g86
ssg74
g1533
sg67
(lp1540
S'wsgi_errors'
p1541
asbag60
(g81
g62
NtRp1542
(dp1543
g65
(dp1544
g92
g93
ssg74
g1533
sg67
(lp1545
S':'
asbag60
(g81
g62
NtRp1546
(dp1547
g65
(dp1548
sg74
g1533
sg67
(lp1549
g60
(g61
g62
NtRp1550
(dp1551
g65
(dp1552
g73
I4
ssg74
g1546
sg67
(lp1553
S'<__main__.Stderr object at 0x006F6670>'
p1554
asbasbasbag60
(g76
g62
NtRp1555
(dp1556
g65
(dp1557
sg74
g764
sg67
(lp1558
g60
(g81
g62
NtRp1559
(dp1560
g65
(dp1561
g85
g86
ssg74
g1555
sg67
(lp1562
S'wsgi_file_wrapper'
p1563
asbag60
(g81
g62
NtRp1564
(dp1565
g65
(dp1566
g92
g93
ssg74
g1555
sg67
(lp1567
S':'
asbag60
(g81
g62
NtRp1568
(dp1569
g65
(dp1570
sg74
g1555
sg67
(lp1571
g60
(g61
g62
NtRp1572
(dp1573
g65
(dp1574
g73
I4
ssg74
g1568
sg67
(lp1575
S'<class wsgiref.util.FileWrapper at 0x02E8DE10>'
p1576
asbasbasbag60
(g76
g62
NtRp1577
(dp1578
g65
(dp1579
sg74
g764
sg67
(lp1580
g60
(g81
g62
NtRp1581
(dp1582
g65
(dp1583
g85
g86
ssg74
g1577
sg67
(lp1584
S'wsgi_input'
p1585
asbag60
(g81
g62
NtRp1586
(dp1587
g65
(dp1588
g92
g93
ssg74
g1577
sg67
(lp1589
S':'
asbag60
(g81
g62
NtRp1590
(dp1591
g65
(dp1592
sg74
g1577
sg67
(lp1593
g60
(g61
g62
NtRp1594
(dp1595
g65
(dp1596
g73
I4
ssg74
g1590
sg67
(lp1597
S'<socket._fileobject object at 0x05F692F0>'
p1598
asbasbasbag60
(g76
g62
NtRp1599
(dp1600
g65
(dp1601
sg74
g764
sg67
(lp1602
g60
(g81
g62
NtRp1603
(dp1604
g65
(dp1605
g85
g86
ssg74
g1599
sg67
(lp1606
S'wsgi_multiprocess'
p1607
asbag60
(g81
g62
NtRp1608
(dp1609
g65
(dp1610
g92
g93
ssg74
g1599
sg67
(lp1611
S':'
asbag60
(g81
g62
NtRp1612
(dp1613
g65
(dp1614
sg74
g1599
sg67
(lp1615
g60
(g61
g62
NtRp1616
(dp1617
g65
(dp1618
g73
I4
ssg74
g1612
sg67
(lp1619
g103
asbasbasbag60
(g76
g62
NtRp1620
(dp1621
g65
(dp1622
sg74
g764
sg67
(lp1623
g60
(g81
g62
NtRp1624
(dp1625
g65
(dp1626
g85
g86
ssg74
g1620
sg67
(lp1627
S'wsgi_multithread'
p1628
asbag60
(g81
g62
NtRp1629
(dp1630
g65
(dp1631
g92
g93
ssg74
g1620
sg67
(lp1632
S':'
asbag60
(g81
g62
NtRp1633
(dp1634
g65
(dp1635
sg74
g1620
sg67
(lp1636
g60
(g61
g62
NtRp1637
(dp1638
g65
(dp1639
g73
I4
ssg74
g1633
sg67
(lp1640
S'True'
p1641
asbasbasbag60
(g76
g62
NtRp1642
(dp1643
g65
(dp1644
sg74
g764
sg67
(lp1645
g60
(g81
g62
NtRp1646
(dp1647
g65
(dp1648
g85
g86
ssg74
g1642
sg67
(lp1649
S'wsgi_run_once'
p1650
asbag60
(g81
g62
NtRp1651
(dp1652
g65
(dp1653
g92
g93
ssg74
g1642
sg67
(lp1654
S':'
asbag60
(g81
g62
NtRp1655
(dp1656
g65
(dp1657
sg74
g1642
sg67
(lp1658
g60
(g61
g62
NtRp1659
(dp1660
g65
(dp1661
g73
I4
ssg74
g1655
sg67
(lp1662
g103
asbasbasbag60
(g76
g62
NtRp1663
(dp1664
g65
(dp1665
sg74
g764
sg67
(lp1666
g60
(g81
g62
NtRp1667
(dp1668
g65
(dp1669
g85
g86
ssg74
g1663
sg67
(lp1670
S'wsgi_url_scheme'
p1671
asbag60
(g81
g62
NtRp1672
(dp1673
g65
(dp1674
g92
g93
ssg74
g1663
sg67
(lp1675
S':'
asbag60
(g81
g62
NtRp1676
(dp1677
g65
(dp1678
sg74
g1663
sg67
(lp1679
g60
(g61
g62
NtRp1680
(dp1681
g65
(dp1682
g73
I4
ssg74
g1676
sg67
(lp1683
S'http'
p1684
asbasbasbag60
(g76
g62
NtRp1685
(dp1686
g65
(dp1687
sg74
g764
sg67
(lp1688
g60
(g81
g62
NtRp1689
(dp1690
g65
(dp1691
g85
g86
ssg74
g1685
sg67
(lp1692
S'wsgi_version'
p1693
asbag60
(g81
g62
NtRp1694
(dp1695
g65
(dp1696
g92
g93
ssg74
g1685
sg67
(lp1697
S':'
asbag60
(g81
g62
NtRp1698
(dp1699
g65
(dp1700
sg74
g1685
sg67
(lp1701
g60
(g61
g62
NtRp1702
(dp1703
g65
(dp1704
g73
I4
ssg74
g1698
sg67
(lp1705
g60
(g69
g62
NtRp1706
(dp1707
g65
(dp1708
g73
I3
ssg74
Nsg67
(lp1709
g60
(g76
g62
NtRp1710
(dp1711
g65
(dp1712
sg74
g1706
sg67
(lp1713
g60
(g81
g62
NtRp1714
(dp1715
g65
(dp1716
sg74
g1710
sg67
(lp1717
g60
(g61
g62
NtRp1718
(dp1719
g65
(dp1720
g73
I3
ssg74
g1714
sg67
(lp1721
S'1'
asbasbasbag60
(g76
g62
NtRp1722
(dp1723
g65
(dp1724
sg74
g1706
sg67
(lp1725
g60
(g81
g62
NtRp1726
(dp1727
g65
(dp1728
sg74
g1722
sg67
(lp1729
g60
(g61
g62
NtRp1730
(dp1731
g65
(dp1732
g73
I3
ssg74
g1726
sg67
(lp1733
S'0'
asbasbasbasbasbasbasbasbasbasbasbag60
(g76
g62
NtRp1734
(dp1735
g65
(dp1736
sg74
g70
sg67
(lp1737
g60
(g81
g62
NtRp1738
(dp1739
g65
(dp1740
g85
g86
ssg74
g1734
sg67
(lp1741
S'extension'
p1742
asbag60
(g81
g62
NtRp1743
(dp1744
g65
(dp1745
g92
g93
ssg74
g1734
sg67
(lp1746
S':'
asbag60
(g81
g62
NtRp1747
(dp1748
g65
(dp1749
sg74
g1734
sg67
(lp1750
g60
(g61
g62
NtRp1751
(dp1752
g65
(dp1753
g73
I5
ssg74
g1747
sg67
(lp1754
S'html'
p1755
asbasbasbag60
(g76
g62
NtRp1756
(dp1757
g65
(dp1758
sg74
g70
sg67
(lp1759
g60
(g81
g62
NtRp1760
(dp1761
g65
(dp1762
g85
g86
ssg74
g1756
sg67
(lp1763
S'folder'
p1764
asbag60
(g81
g62
NtRp1765
(dp1766
g65
(dp1767
g92
g93
ssg74
g1756
sg67
(lp1768
S':'
asbag60
(g81
g62
NtRp1769
(dp1770
g65
(dp1771
sg74
g1756
sg67
(lp1772
g60
(g61
g62
NtRp1773
(dp1774
g65
(dp1775
g73
I5
ssg74
g1769
sg67
(lp1776
S'C:\\web2py\\applications\\unioeste_code\\'
p1777
asbasbasbag60
(g76
g62
NtRp1778
(dp1779
g65
(dp1780
sg74
g70
sg67
(lp1781
g60
(g81
g62
NtRp1782
(dp1783
g65
(dp1784
g85
g86
ssg74
g1778
sg67
(lp1785
S'function'
p1786
asbag60
(g81
g62
NtRp1787
(dp1788
g65
(dp1789
g92
g93
ssg74
g1778
sg67
(lp1790
S':'
asbag60
(g81
g62
NtRp1791
(dp1792
g65
(dp1793
sg74
g1778
sg67
(lp1794
g60
(g61
g62
NtRp1795
(dp1796
g65
(dp1797
g73
I5
ssg74
g1791
sg67
(lp1798
S'index'
p1799
asbasbasbag60
(g76
g62
NtRp1800
(dp1801
g65
(dp1802
sg74
g70
sg67
(lp1803
g60
(g81
g62
NtRp1804
(dp1805
g65
(dp1806
g85
g86
ssg74
g1800
sg67
(lp1807
S'get_vars'
p1808
asbag60
(g81
g62
NtRp1809
(dp1810
g65
(dp1811
g92
g93
ssg74
g1800
sg67
(lp1812
S':'
asbag60
(g81
g62
NtRp1813
(dp1814
g65
(dp1815
sg74
g1800
sg67
(lp1816
g60
(g61
g62
NtRp1817
(dp1818
g65
(dp1819
g73
I5
ssg74
g1813
sg67
(lp1820
g60
(g69
g62
NtRp1821
(dp1822
g65
(dp1823
g73
I4
ssg74
Nsg67
(lp1824
sbasbasbasbag60
(g76
g62
NtRp1825
(dp1826
g65
(dp1827
sg74
g70
sg67
(lp1828
g60
(g81
g62
NtRp1829
(dp1830
g65
(dp1831
g85
g86
ssg74
g1825
sg67
(lp1832
S'global_settings'
p1833
asbag60
(g81
g62
NtRp1834
(dp1835
g65
(dp1836
g92
g93
ssg74
g1825
sg67
(lp1837
S':'
asbag60
(g81
g62
NtRp1838
(dp1839
g65
(dp1840
sg74
g1825
sg67
(lp1841
g60
(g61
g62
NtRp1842
(dp1843
g65
(dp1844
g73
I5
ssg74
g1838
sg67
(lp1845
g60
(g69
g62
NtRp1846
(dp1847
g65
(dp1848
g73
I4
ssg74
Nsg67
(lp1849
g60
(g76
g62
NtRp1850
(dp1851
g65
(dp1852
sg74
g1846
sg67
(lp1853
g60
(g81
g62
NtRp1854
(dp1855
g65
(dp1856
g85
g86
ssg74
g1850
sg67
(lp1857
g776
asbag60
(g81
g62
NtRp1858
(dp1859
g65
(dp1860
g92
g93
ssg74
g1850
sg67
(lp1861
S':'
asbag60
(g81
g62
NtRp1862
(dp1863
g65
(dp1864
sg74
g1850
sg67
(lp1865
g60
(g61
g62
NtRp1866
(dp1867
g65
(dp1868
g73
I4
ssg74
g1862
sg67
(lp1869
S"set(['C:\\\\web2py\\\\applications\\\\admin\\\\', 'C:\\\\web2py\\\\applications\\\\welcome\\\\', 'C:\\\\web2py\\\\applications\\\\unioeste_code\\\\'])"
p1870
asbasbasbag60
(g76
g62
NtRp1871
(dp1872
g65
(dp1873
sg74
g1846
sg67
(lp1874
g60
(g81
g62
NtRp1875
(dp1876
g65
(dp1877
g85
g86
ssg74
g1871
sg67
(lp1878
g798
asbag60
(g81
g62
NtRp1879
(dp1880
g65
(dp1881
g92
g93
ssg74
g1871
sg67
(lp1882
S':'
asbag60
(g81
g62
NtRp1883
(dp1884
g65
(dp1885
sg74
g1871
sg67
(lp1886
g60
(g61
g62
NtRp1887
(dp1888
g65
(dp1889
g73
I4
ssg74
g1883
sg67
(lp1890
g811
asbasbasbag60
(g76
g62
NtRp1891
(dp1892
g65
(dp1893
sg74
g1846
sg67
(lp1894
g60
(g81
g62
NtRp1895
(dp1896
g65
(dp1897
g85
g86
ssg74
g1891
sg67
(lp1898
g820
asbag60
(g81
g62
NtRp1899
(dp1900
g65
(dp1901
g92
g93
ssg74
g1891
sg67
(lp1902
S':'
asbag60
(g81
g62
NtRp1903
(dp1904
g65
(dp1905
sg74
g1891
sg67
(lp1906
g60
(g61
g62
NtRp1907
(dp1908
g65
(dp1909
g73
I4
ssg74
g1903
sg67
(lp1910
g60
(g69
g62
NtRp1911
(dp1912
g65
(dp1913
g73
I3
ssg74
Nsg67
(lp1914
sbasbasbasbag60
(g76
g62
NtRp1915
(dp1916
g65
(dp1917
sg74
g1846
sg67
(lp1918
g60
(g81
g62
NtRp1919
(dp1920
g65
(dp1921
g85
g86
ssg74
g1915
sg67
(lp1922
g845
asbag60
(g81
g62
NtRp1923
(dp1924
g65
(dp1925
g92
g93
ssg74
g1915
sg67
(lp1926
S':'
asbag60
(g81
g62
NtRp1927
(dp1928
g65
(dp1929
sg74
g1915
sg67
(lp1930
g60
(g61
g62
NtRp1931
(dp1932
g65
(dp1933
g73
I4
ssg74
g1927
sg67
(lp1934
S"<Values at 0x309c300: {'verbose': False, 'ip': '127.0.0.1', 'shutdown_timeout': 5, 'taskbar': False, 'nocron': False, 'pid_filename': 'httpserver.pid', 'maxthreads': None, 'softcron': False, 'server_name': 'Pedro-PC', 'bpython': False, 'nogui': False, 'port': 8000, 'extcron': False, 'debuglevel': 30, 'test': None, 'folder': 'C:\\\\web2py', 'config': '', 'import_models': False, 'winservice': '', 'shell': None, 'run': '', 'log_filename': 'httpserver.log', 'args': [''], 'socket_timeout': 5, 'ssl_ca_certificate': None, 'scheduler': None, 'profiler_filename': None, 'ssl_private_key': '', 'password': '<ask>', 'request_queue_size': 5, 'ssl_certificate': '', 'cronjob': False, 'numthreads': None, 'quiet': False, 'interfaces': None, 'minthreads': None, 'timeout': 10, 'plain': False, 'nobanner': False}>"
p1935
asbasbasbag60
(g76
g62
NtRp1936
(dp1937
g65
(dp1938
sg74
g1846
sg67
(lp1939
g60
(g81
g62
NtRp1940
(dp1941
g65
(dp1942
g85
g86
ssg74
g1936
sg67
(lp1943
g867
asbag60
(g81
g62
NtRp1944
(dp1945
g65
(dp1946
g92
g93
ssg74
g1936
sg67
(lp1947
S':'
asbag60
(g81
g62
NtRp1948
(dp1949
g65
(dp1950
sg74
g1936
sg67
(lp1951
g60
(g61
g62
NtRp1952
(dp1953
g65
(dp1954
g73
I4
ssg74
g1948
sg67
(lp1955
S'set([])'
p1956
asbasbasbag60
(g76
g62
NtRp1957
(dp1958
g65
(dp1959
sg74
g1846
sg67
(lp1960
g60
(g81
g62
NtRp1961
(dp1962
g65
(dp1963
g85
g86
ssg74
g1957
sg67
(lp1964
g889
asbag60
(g81
g62
NtRp1965
(dp1966
g65
(dp1967
g92
g93
ssg74
g1957
sg67
(lp1968
S':'
asbag60
(g81
g62
NtRp1969
(dp1970
g65
(dp1971
sg74
g1957
sg67
(lp1972
g60
(g61
g62
NtRp1973
(dp1974
g65
(dp1975
g73
I4
ssg74
g1969
sg67
(lp1976
g103
asbasbasbag60
(g76
g62
NtRp1977
(dp1978
g65
(dp1979
sg74
g1846
sg67
(lp1980
g60
(g81
g62
NtRp1981
(dp1982
g65
(dp1983
g85
g86
ssg74
g1977
sg67
(lp1984
g910
asbag60
(g81
g62
NtRp1985
(dp1986
g65
(dp1987
g92
g93
ssg74
g1977
sg67
(lp1988
S':'
asbag60
(g81
g62
NtRp1989
(dp1990
g65
(dp1991
sg74
g1977
sg67
(lp1992
g60
(g61
g62
NtRp1993
(dp1994
g65
(dp1995
g73
I4
ssg74
g1989
sg67
(lp1996
g923
asbasbasbag60
(g76
g62
NtRp1997
(dp1998
g65
(dp1999
sg74
g1846
sg67
(lp2000
g60
(g81
g62
NtRp2001
(dp2002
g65
(dp2003
g85
g86
ssg74
g1997
sg67
(lp2004
g1151
asbag60
(g81
g62
NtRp2005
(dp2006
g65
(dp2007
g92
g93
ssg74
g1997
sg67
(lp2008
S':'
asbag60
(g81
g62
NtRp2009
(dp2010
g65
(dp2011
sg74
g1997
sg67
(lp2012
g60
(g61
g62
NtRp2013
(dp2014
g65
(dp2015
g73
I4
ssg74
g2009
sg67
(lp2016
g103
asbasbasbag60
(g76
g62
NtRp2017
(dp2018
g65
(dp2019
sg74
g1846
sg67
(lp2020
g60
(g81
g62
NtRp2021
(dp2022
g65
(dp2023
g85
g86
ssg74
g2017
sg67
(lp2024
g1172
asbag60
(g81
g62
NtRp2025
(dp2026
g65
(dp2027
g92
g93
ssg74
g2017
sg67
(lp2028
S':'
asbag60
(g81
g62
NtRp2029
(dp2030
g65
(dp2031
sg74
g2017
sg67
(lp2032
g60
(g61
g62
NtRp2033
(dp2034
g65
(dp2035
g73
I4
ssg74
g2029
sg67
(lp2036
g103
asbasbasbag60
(g76
g62
NtRp2037
(dp2038
g65
(dp2039
sg74
g1846
sg67
(lp2040
g60
(g81
g62
NtRp2041
(dp2042
g65
(dp2043
g85
g86
ssg74
g2037
sg67
(lp2044
g1410
asbag60
(g81
g62
NtRp2045
(dp2046
g65
(dp2047
g92
g93
ssg74
g2037
sg67
(lp2048
S':'
asbag60
(g81
g62
NtRp2049
(dp2050
g65
(dp2051
sg74
g2037
sg67
(lp2052
g60
(g61
g62
NtRp2053
(dp2054
g65
(dp2055
g73
I4
ssg74
g2049
sg67
(lp2056
g1423
asbasbasbag60
(g76
g62
NtRp2057
(dp2058
g65
(dp2059
sg74
g1846
sg67
(lp2060
g60
(g81
g62
NtRp2061
(dp2062
g65
(dp2063
g85
g86
ssg74
g2057
sg67
(lp2064
g1453
asbag60
(g81
g62
NtRp2065
(dp2066
g65
(dp2067
g92
g93
ssg74
g2057
sg67
(lp2068
S':'
asbag60
(g81
g62
NtRp2069
(dp2070
g65
(dp2071
sg74
g2057
sg67
(lp2072
g60
(g61
g62
NtRp2073
(dp2074
g65
(dp2075
g73
I4
ssg74
g2069
sg67
(lp2076
g60
(g69
g62
NtRp2077
(dp2078
g65
(dp2079
g73
I3
ssg74
Nsg67
(lp2080
g60
(g76
g62
NtRp2081
(dp2082
g65
(dp2083
sg74
g2077
sg67
(lp2084
g60
(g81
g62
NtRp2085
(dp2086
g65
(dp2087
sg74
g2081
sg67
(lp2088
g60
(g61
g62
NtRp2089
(dp2090
g65
(dp2091
g73
I3
ssg74
g2085
sg67
(lp2092
S'1'
asbasbasbag60
(g76
g62
NtRp2093
(dp2094
g65
(dp2095
sg74
g2077
sg67
(lp2096
g60
(g81
g62
NtRp2097
(dp2098
g65
(dp2099
sg74
g2093
sg67
(lp2100
g60
(g61
g62
NtRp2101
(dp2102
g65
(dp2103
g73
I3
ssg74
g2097
sg67
(lp2104
S'99'
p2105
asbasbasbag60
(g76
g62
NtRp2106
(dp2107
g65
(dp2108
sg74
g2077
sg67
(lp2109
g60
(g81
g62
NtRp2110
(dp2111
g65
(dp2112
sg74
g2106
sg67
(lp2113
g60
(g61
g62
NtRp2114
(dp2115
g65
(dp2116
g73
I3
ssg74
g2110
sg67
(lp2117
S'7'
asbasbasbag60
(g76
g62
NtRp2118
(dp2119
g65
(dp2120
sg74
g2077
sg67
(lp2121
g60
(g81
g62
NtRp2122
(dp2123
g65
(dp2124
sg74
g2118
sg67
(lp2125
g60
(g61
g62
NtRp2126
(dp2127
g65
(dp2128
g73
I3
ssg74
g2122
sg67
(lp2129
S'datetime.datetime(2012, 3, 4, 22, 12, 8)'
p2130
asbasbasbag60
(g76
g62
NtRp2131
(dp2132
g65
(dp2133
sg74
g2077
sg67
(lp2134
g60
(g81
g62
NtRp2135
(dp2136
g65
(dp2137
sg74
g2131
sg67
(lp2138
g60
(g61
g62
NtRp2139
(dp2140
g65
(dp2141
g73
I3
ssg74
g2135
sg67
(lp2142
g1532
asbasbasbasbasbasbasbasbasbasbasbag60
(g76
g62
NtRp2143
(dp2144
g65
(dp2145
sg74
g70
sg67
(lp2146
g60
(g81
g62
NtRp2147
(dp2148
g65
(dp2149
g85
g86
ssg74
g2143
sg67
(lp2150
S'is_https'
p2151
asbag60
(g81
g62
NtRp2152
(dp2153
g65
(dp2154
g92
g93
ssg74
g2143
sg67
(lp2155
S':'
asbag60
(g81
g62
NtRp2156
(dp2157
g65
(dp2158
sg74
g2143
sg67
(lp2159
g60
(g61
g62
NtRp2160
(dp2161
g65
(dp2162
g73
I5
ssg74
g2156
sg67
(lp2163
g103
asbasbasbag60
(g76
g62
NtRp2164
(dp2165
g65
(dp2166
sg74
g70
sg67
(lp2167
g60
(g81
g62
NtRp2168
(dp2169
g65
(dp2170
g85
g86
ssg74
g2164
sg67
(lp2171
S'is_local'
p2172
asbag60
(g81
g62
NtRp2173
(dp2174
g65
(dp2175
g92
g93
ssg74
g2164
sg67
(lp2176
S':'
asbag60
(g81
g62
NtRp2177
(dp2178
g65
(dp2179
sg74
g2164
sg67
(lp2180
g60
(g61
g62
NtRp2181
(dp2182
g65
(dp2183
g73
I5
ssg74
g2177
sg67
(lp2184
g1641
asbasbasbag60
(g76
g62
NtRp2185
(dp2186
g65
(dp2187
sg74
g70
sg67
(lp2188
g60
(g81
g62
NtRp2189
(dp2190
g65
(dp2191
g85
g86
ssg74
g2185
sg67
(lp2192
S'is_restful'
p2193
asbag60
(g81
g62
NtRp2194
(dp2195
g65
(dp2196
g92
g93
ssg74
g2185
sg67
(lp2197
S':'
asbag60
(g81
g62
NtRp2198
(dp2199
g65
(dp2200
sg74
g2185
sg67
(lp2201
g60
(g61
g62
NtRp2202
(dp2203
g65
(dp2204
g73
I5
ssg74
g2198
sg67
(lp2205
g103
asbasbasbag60
(g76
g62
NtRp2206
(dp2207
g65
(dp2208
sg74
g70
sg67
(lp2209
g60
(g81
g62
NtRp2210
(dp2211
g65
(dp2212
g85
g86
ssg74
g2206
sg67
(lp2213
S'now'
p2214
asbag60
(g81
g62
NtRp2215
(dp2216
g65
(dp2217
g92
g93
ssg74
g2206
sg67
(lp2218
S':'
asbag60
(g81
g62
NtRp2219
(dp2220
g65
(dp2221
sg74
g2206
sg67
(lp2222
g60
(g61
g62
NtRp2223
(dp2224
g65
(dp2225
g73
I5
ssg74
g2219
sg67
(lp2226
S'datetime.datetime(2012, 7, 28, 15, 11, 42, 774000)'
p2227
asbasbasbag60
(g76
g62
NtRp2228
(dp2229
g65
(dp2230
sg74
g70
sg67
(lp2231
g60
(g81
g62
NtRp2232
(dp2233
g65
(dp2234
g85
g86
ssg74
g2228
sg67
(lp2235
S'post_vars'
p2236
asbag60
(g81
g62
NtRp2237
(dp2238
g65
(dp2239
g92
g93
ssg74
g2228
sg67
(lp2240
S':'
asbag60
(g81
g62
NtRp2241
(dp2242
g65
(dp2243
sg74
g2228
sg67
(lp2244
g60
(g61
g62
NtRp2245
(dp2246
g65
(dp2247
g73
I5
ssg74
g2241
sg67
(lp2248
g60
(g69
g62
NtRp2249
(dp2250
g65
(dp2251
g73
I4
ssg74
Nsg67
(lp2252
sbasbasbasbag60
(g76
g62
NtRp2253
(dp2254
g65
(dp2255
sg74
g70
sg67
(lp2256
g60
(g81
g62
NtRp2257
(dp2258
g65
(dp2259
g85
g86
ssg74
g2253
sg67
(lp2260
S'url'
p2261
asbag60
(g81
g62
NtRp2262
(dp2263
g65
(dp2264
g92
g93
ssg74
g2253
sg67
(lp2265
S':'
asbag60
(g81
g62
NtRp2266
(dp2267
g65
(dp2268
sg74
g2253
sg67
(lp2269
g60
(g61
g62
NtRp2270
(dp2271
g65
(dp2272
g73
I5
ssg74
g2266
sg67
(lp2273
S'/unioeste_code/appadmin/index'
p2274
asbasbasbag60
(g76
g62
NtRp2275
(dp2276
g65
(dp2277
sg74
g70
sg67
(lp2278
g60
(g81
g62
NtRp2279
(dp2280
g65
(dp2281
g85
g86
ssg74
g2275
sg67
(lp2282
S'utcnow'
p2283
asbag60
(g81
g62
NtRp2284
(dp2285
g65
(dp2286
g92
g93
ssg74
g2275
sg67
(lp2287
S':'
asbag60
(g81
g62
NtRp2288
(dp2289
g65
(dp2290
sg74
g2275
sg67
(lp2291
g60
(g61
g62
NtRp2292
(dp2293
g65
(dp2294
g73
I5
ssg74
g2288
sg67
(lp2295
S'datetime.datetime(2012, 7, 28, 18, 11, 42, 774000)'
p2296
asbasbasbag60
(g76
g62
NtRp2297
(dp2298
g65
(dp2299
sg74
g70
sg67
(lp2300
g60
(g81
g62
NtRp2301
(dp2302
g65
(dp2303
g85
g86
ssg74
g2297
sg67
(lp2304
S'uuid'
p2305
asbag60
(g81
g62
NtRp2306
(dp2307
g65
(dp2308
g92
g93
ssg74
g2297
sg67
(lp2309
S':'
asbag60
(g81
g62
NtRp2310
(dp2311
g65
(dp2312
sg74
g2297
sg67
(lp2313
g60
(g61
g62
NtRp2314
(dp2315
g65
(dp2316
g73
I5
ssg74
g2310
sg67
(lp2317
S'unioeste_code/127.0.0.1.2012-07-28.15-11-42.7858971c-ae6e-4173-aa79-fee35bec1df4'
p2318
asbasbasbag60
(g76
g62
NtRp2319
(dp2320
g65
(dp2321
sg74
g70
sg67
(lp2322
g60
(g81
g62
NtRp2323
(dp2324
g65
(dp2325
g85
g86
ssg74
g2319
sg67
(lp2326
S'vars'
p2327
asbag60
(g81
g62
NtRp2328
(dp2329
g65
(dp2330
g92
g93
ssg74
g2319
sg67
(lp2331
S':'
asbag60
(g81
g62
NtRp2332
(dp2333
g65
(dp2334
sg74
g2319
sg67
(lp2335
g60
(g61
g62
NtRp2336
(dp2337
g65
(dp2338
g73
I5
ssg74
g2332
sg67
(lp2339
g60
(g69
g62
NtRp2340
(dp2341
g65
(dp2342
g73
I4
ssg74
Nsg67
(lp2343
sbasbasbasbag60
(g76
g62
NtRp2344
(dp2345
g65
(dp2346
sg74
g70
sg67
(lp2347
g60
(g81
g62
NtRp2348
(dp2349
g65
(dp2350
g85
g86
ssg74
g2344
sg67
(lp2351
S'wsgi'
p2352
asbag60
(g81
g62
NtRp2353
(dp2354
g65
(dp2355
g92
g93
ssg74
g2344
sg67
(lp2356
S':'
asbag60
(g81
g62
NtRp2357
(dp2358
g65
(dp2359
sg74
g2344
sg67
(lp2360
g60
(g61
g62
NtRp2361
(dp2362
g65
(dp2363
g73
I5
ssg74
g2357
sg67
(lp2364
g60
(g69
g62
NtRp2365
(dp2366
g65
(dp2367
g73
I4
ssg74
Nsg67
(lp2368
g60
(g76
g62
NtRp2369
(dp2370
g65
(dp2371
sg74
g2365
sg67
(lp2372
g60
(g81
g62
NtRp2373
(dp2374
g65
(dp2375
g85
g86
ssg74
g2369
sg67
(lp2376
S'environ'
p2377
asbag60
(g81
g62
NtRp2378
(dp2379
g65
(dp2380
g92
g93
ssg74
g2369
sg67
(lp2381
S':'
asbag60
(g81
g62
NtRp2382
(dp2383
g65
(dp2384
sg74
g2369
sg67
(lp2385
g60
(g61
g62
NtRp2386
(dp2387
g65
(dp2388
g73
I4
ssg74
g2382
sg67
(lp2389
g60
(g69
g62
NtRp2390
(dp2391
g65
(dp2392
g73
I3
ssg74
Nsg67
(lp2393
g60
(g76
g62
NtRp2394
(dp2395
g65
(dp2396
sg74
g2390
sg67
(lp2397
g60
(g81
g62
NtRp2398
(dp2399
g65
(dp2400
g85
g86
ssg74
g2394
sg67
(lp2401
S'HTTP_ACCEPT'
p2402
asbag60
(g81
g62
NtRp2403
(dp2404
g65
(dp2405
g92
g93
ssg74
g2394
sg67
(lp2406
S':'
asbag60
(g81
g62
NtRp2407
(dp2408
g65
(dp2409
sg74
g2394
sg67
(lp2410
g60
(g61
g62
NtRp2411
(dp2412
g65
(dp2413
g73
I3
ssg74
g2407
sg67
(lp2414
g945
asbasbasbag60
(g76
g62
NtRp2415
(dp2416
g65
(dp2417
sg74
g2390
sg67
(lp2418
g60
(g81
g62
NtRp2419
(dp2420
g65
(dp2421
g85
g86
ssg74
g2415
sg67
(lp2422
S'HTTP_ACCEPT_CHARSET'
p2423
asbag60
(g81
g62
NtRp2424
(dp2425
g65
(dp2426
g92
g93
ssg74
g2415
sg67
(lp2427
S':'
asbag60
(g81
g62
NtRp2428
(dp2429
g65
(dp2430
sg74
g2415
sg67
(lp2431
g60
(g61
g62
NtRp2432
(dp2433
g65
(dp2434
g73
I3
ssg74
g2428
sg67
(lp2435
g967
asbasbasbag60
(g76
g62
NtRp2436
(dp2437
g65
(dp2438
sg74
g2390
sg67
(lp2439
g60
(g81
g62
NtRp2440
(dp2441
g65
(dp2442
g85
g86
ssg74
g2436
sg67
(lp2443
S'HTTP_ACCEPT_ENCODING'
p2444
asbag60
(g81
g62
NtRp2445
(dp2446
g65
(dp2447
g92
g93
ssg74
g2436
sg67
(lp2448
S':'
asbag60
(g81
g62
NtRp2449
(dp2450
g65
(dp2451
sg74
g2436
sg67
(lp2452
g60
(g61
g62
NtRp2453
(dp2454
g65
(dp2455
g73
I3
ssg74
g2449
sg67
(lp2456
g989
asbasbasbag60
(g76
g62
NtRp2457
(dp2458
g65
(dp2459
sg74
g2390
sg67
(lp2460
g60
(g81
g62
NtRp2461
(dp2462
g65
(dp2463
g85
g86
ssg74
g2457
sg67
(lp2464
S'HTTP_ACCEPT_LANGUAGE'
p2465
asbag60
(g81
g62
NtRp2466
(dp2467
g65
(dp2468
g92
g93
ssg74
g2457
sg67
(lp2469
S':'
asbag60
(g81
g62
NtRp2470
(dp2471
g65
(dp2472
sg74
g2457
sg67
(lp2473
g60
(g61
g62
NtRp2474
(dp2475
g65
(dp2476
g73
I3
ssg74
g2470
sg67
(lp2477
g1011
asbasbasbag60
(g76
g62
NtRp2478
(dp2479
g65
(dp2480
sg74
g2390
sg67
(lp2481
g60
(g81
g62
NtRp2482
(dp2483
g65
(dp2484
g85
g86
ssg74
g2478
sg67
(lp2485
S'HTTP_CACHE_CONTROL'
p2486
asbag60
(g81
g62
NtRp2487
(dp2488
g65
(dp2489
g92
g93
ssg74
g2478
sg67
(lp2490
S':'
asbag60
(g81
g62
NtRp2491
(dp2492
g65
(dp2493
sg74
g2478
sg67
(lp2494
g60
(g61
g62
NtRp2495
(dp2496
g65
(dp2497
g73
I3
ssg74
g2491
sg67
(lp2498
g1033
asbasbasbag60
(g76
g62
NtRp2499
(dp2500
g65
(dp2501
sg74
g2390
sg67
(lp2502
g60
(g81
g62
NtRp2503
(dp2504
g65
(dp2505
g85
g86
ssg74
g2499
sg67
(lp2506
S'HTTP_CONNECTION'
p2507
asbag60
(g81
g62
NtRp2508
(dp2509
g65
(dp2510
g92
g93
ssg74
g2499
sg67
(lp2511
S':'
asbag60
(g81
g62
NtRp2512
(dp2513
g65
(dp2514
sg74
g2499
sg67
(lp2515
g60
(g61
g62
NtRp2516
(dp2517
g65
(dp2518
g73
I3
ssg74
g2512
sg67
(lp2519
g1055
asbasbasbag60
(g76
g62
NtRp2520
(dp2521
g65
(dp2522
sg74
g2390
sg67
(lp2523
g60
(g81
g62
NtRp2524
(dp2525
g65
(dp2526
g85
g86
ssg74
g2520
sg67
(lp2527
S'HTTP_COOKIE'
p2528
asbag60
(g81
g62
NtRp2529
(dp2530
g65
(dp2531
g92
g93
ssg74
g2520
sg67
(lp2532
S':'
asbag60
(g81
g62
NtRp2533
(dp2534
g65
(dp2535
sg74
g2520
sg67
(lp2536
g60
(g61
g62
NtRp2537
(dp2538
g65
(dp2539
g73
I3
ssg74
g2533
sg67
(lp2540
g1077
asbasbasbag60
(g76
g62
NtRp2541
(dp2542
g65
(dp2543
sg74
g2390
sg67
(lp2544
g60
(g81
g62
NtRp2545
(dp2546
g65
(dp2547
g85
g86
ssg74
g2541
sg67
(lp2548
S'HTTP_DNT'
p2549
asbag60
(g81
g62
NtRp2550
(dp2551
g65
(dp2552
g92
g93
ssg74
g2541
sg67
(lp2553
S':'
asbag60
(g81
g62
NtRp2554
(dp2555
g65
(dp2556
sg74
g2541
sg67
(lp2557
g60
(g61
g62
NtRp2558
(dp2559
g65
(dp2560
g73
I3
ssg74
g2554
sg67
(lp2561
S'1'
asbasbasbag60
(g76
g62
NtRp2562
(dp2563
g65
(dp2564
sg74
g2390
sg67
(lp2565
g60
(g81
g62
NtRp2566
(dp2567
g65
(dp2568
g85
g86
ssg74
g2562
sg67
(lp2569
S'HTTP_HOST'
p2570
asbag60
(g81
g62
NtRp2571
(dp2572
g65
(dp2573
g92
g93
ssg74
g2562
sg67
(lp2574
S':'
asbag60
(g81
g62
NtRp2575
(dp2576
g65
(dp2577
sg74
g2562
sg67
(lp2578
g60
(g61
g62
NtRp2579
(dp2580
g65
(dp2581
g73
I3
ssg74
g2575
sg67
(lp2582
g1120
asbasbasbag60
(g76
g62
NtRp2583
(dp2584
g65
(dp2585
sg74
g2390
sg67
(lp2586
g60
(g81
g62
NtRp2587
(dp2588
g65
(dp2589
g85
g86
ssg74
g2583
sg67
(lp2590
S'HTTP_USER_AGENT'
p2591
asbag60
(g81
g62
NtRp2592
(dp2593
g65
(dp2594
g92
g93
ssg74
g2583
sg67
(lp2595
S':'
asbag60
(g81
g62
NtRp2596
(dp2597
g65
(dp2598
sg74
g2583
sg67
(lp2599
g60
(g61
g62
NtRp2600
(dp2601
g65
(dp2602
g73
I3
ssg74
g2596
sg67
(lp2603
g1142
asbasbasbag60
(g76
g62
NtRp2604
(dp2605
g65
(dp2606
sg74
g2390
sg67
(lp2607
g60
(g81
g62
NtRp2608
(dp2609
g65
(dp2610
g85
g86
ssg74
g2604
sg67
(lp2611
S'PATH_INFO'
p2612
asbag60
(g81
g62
NtRp2613
(dp2614
g65
(dp2615
g92
g93
ssg74
g2604
sg67
(lp2616
S':'
asbag60
(g81
g62
NtRp2617
(dp2618
g65
(dp2619
sg74
g2604
sg67
(lp2620
g60
(g61
g62
NtRp2621
(dp2622
g65
(dp2623
g73
I3
ssg74
g2617
sg67
(lp2624
g1206
asbasbasbag60
(g76
g62
NtRp2625
(dp2626
g65
(dp2627
sg74
g2390
sg67
(lp2628
g60
(g81
g62
NtRp2629
(dp2630
g65
(dp2631
g85
g86
ssg74
g2625
sg67
(lp2632
S'QUERY_STRING'
p2633
asbag60
(g81
g62
NtRp2634
(dp2635
g65
(dp2636
g92
g93
ssg74
g2625
sg67
(lp2637
S':'
asbag60
(g81
g62
NtRp2638
(dp2639
g65
(dp2640
sg74
g2625
sg67
(lp2641
g60
(g61
g62
NtRp2642
(dp2643
g65
(dp2644
g73
I3
ssg74
g2638
sg67
(lp2645
S''
asbasbasbag60
(g76
g62
NtRp2646
(dp2647
g65
(dp2648
sg74
g2390
sg67
(lp2649
g60
(g81
g62
NtRp2650
(dp2651
g65
(dp2652
g85
g86
ssg74
g2646
sg67
(lp2653
S'REMOTE_ADDR'
p2654
asbag60
(g81
g62
NtRp2655
(dp2656
g65
(dp2657
g92
g93
ssg74
g2646
sg67
(lp2658
S':'
asbag60
(g81
g62
NtRp2659
(dp2660
g65
(dp2661
sg74
g2646
sg67
(lp2662
g60
(g61
g62
NtRp2663
(dp2664
g65
(dp2665
g73
I3
ssg74
g2659
sg67
(lp2666
g193
asbasbasbag60
(g76
g62
NtRp2667
(dp2668
g65
(dp2669
sg74
g2390
sg67
(lp2670
g60
(g81
g62
NtRp2671
(dp2672
g65
(dp2673
g85
g86
ssg74
g2667
sg67
(lp2674
S'REMOTE_PORT'
p2675
asbag60
(g81
g62
NtRp2676
(dp2677
g65
(dp2678
g92
g93
ssg74
g2667
sg67
(lp2679
S':'
asbag60
(g81
g62
NtRp2680
(dp2681
g65
(dp2682
sg74
g2667
sg67
(lp2683
g60
(g61
g62
NtRp2684
(dp2685
g65
(dp2686
g73
I3
ssg74
g2680
sg67
(lp2687
g1270
asbasbasbag60
(g76
g62
NtRp2688
(dp2689
g65
(dp2690
sg74
g2390
sg67
(lp2691
g60
(g81
g62
NtRp2692
(dp2693
g65
(dp2694
g85
g86
ssg74
g2688
sg67
(lp2695
S'REQUEST_METHOD'
p2696
asbag60
(g81
g62
NtRp2697
(dp2698
g65
(dp2699
g92
g93
ssg74
g2688
sg67
(lp2700
S':'
asbag60
(g81
g62
NtRp2701
(dp2702
g65
(dp2703
sg74
g2688
sg67
(lp2704
g60
(g61
g62
NtRp2705
(dp2706
g65
(dp2707
g73
I3
ssg74
g2701
sg67
(lp2708
g1292
asbasbasbag60
(g76
g62
NtRp2709
(dp2710
g65
(dp2711
sg74
g2390
sg67
(lp2712
g60
(g81
g62
NtRp2713
(dp2714
g65
(dp2715
g85
g86
ssg74
g2709
sg67
(lp2716
S'SCRIPT_NAME'
p2717
asbag60
(g81
g62
NtRp2718
(dp2719
g65
(dp2720
g92
g93
ssg74
g2709
sg67
(lp2721
S':'
asbag60
(g81
g62
NtRp2722
(dp2723
g65
(dp2724
sg74
g2709
sg67
(lp2725
g60
(g61
g62
NtRp2726
(dp2727
g65
(dp2728
g73
I3
ssg74
g2722
sg67
(lp2729
S''
asbasbasbag60
(g76
g62
NtRp2730
(dp2731
g65
(dp2732
sg74
g2390
sg67
(lp2733
g60
(g81
g62
NtRp2734
(dp2735
g65
(dp2736
g85
g86
ssg74
g2730
sg67
(lp2737
S'SERVER_NAME'
p2738
asbag60
(g81
g62
NtRp2739
(dp2740
g65
(dp2741
g92
g93
ssg74
g2730
sg67
(lp2742
S':'
asbag60
(g81
g62
NtRp2743
(dp2744
g65
(dp2745
sg74
g2730
sg67
(lp2746
g60
(g61
g62
NtRp2747
(dp2748
g65
(dp2749
g73
I3
ssg74
g2743
sg67
(lp2750
g1335
asbasbasbag60
(g76
g62
NtRp2751
(dp2752
g65
(dp2753
sg74
g2390
sg67
(lp2754
g60
(g81
g62
NtRp2755
(dp2756
g65
(dp2757
g85
g86
ssg74
g2751
sg67
(lp2758
S'SERVER_PORT'
p2759
asbag60
(g81
g62
NtRp2760
(dp2761
g65
(dp2762
g92
g93
ssg74
g2751
sg67
(lp2763
S':'
asbag60
(g81
g62
NtRp2764
(dp2765
g65
(dp2766
sg74
g2751
sg67
(lp2767
g60
(g61
g62
NtRp2768
(dp2769
g65
(dp2770
g73
I3
ssg74
g2764
sg67
(lp2771
g1357
asbasbasbag60
(g76
g62
NtRp2772
(dp2773
g65
(dp2774
sg74
g2390
sg67
(lp2775
g60
(g81
g62
NtRp2776
(dp2777
g65
(dp2778
g85
g86
ssg74
g2772
sg67
(lp2779
S'SERVER_PROTOCOL'
p2780
asbag60
(g81
g62
NtRp2781
(dp2782
g65
(dp2783
g92
g93
ssg74
g2772
sg67
(lp2784
S':'
asbag60
(g81
g62
NtRp2785
(dp2786
g65
(dp2787
sg74
g2772
sg67
(lp2788
g60
(g61
g62
NtRp2789
(dp2790
g65
(dp2791
g73
I3
ssg74
g2785
sg67
(lp2792
g1379
asbasbasbag60
(g76
g62
NtRp2793
(dp2794
g65
(dp2795
sg74
g2390
sg67
(lp2796
g60
(g81
g62
NtRp2797
(dp2798
g65
(dp2799
g85
g86
ssg74
g2793
sg67
(lp2800
S'SERVER_SOFTWARE'
p2801
asbag60
(g81
g62
NtRp2802
(dp2803
g65
(dp2804
g92
g93
ssg74
g2793
sg67
(lp2805
S':'
asbag60
(g81
g62
NtRp2806
(dp2807
g65
(dp2808
sg74
g2793
sg67
(lp2809
g60
(g61
g62
NtRp2810
(dp2811
g65
(dp2812
g73
I3
ssg74
g2806
sg67
(lp2813
g1401
asbasbasbag60
(g76
g62
NtRp2814
(dp2815
g65
(dp2816
sg74
g2390
sg67
(lp2817
g60
(g81
g62
NtRp2818
(dp2819
g65
(dp2820
g85
g86
ssg74
g2814
sg67
(lp2821
S'wsgi.errors'
p2822
asbag60
(g81
g62
NtRp2823
(dp2824
g65
(dp2825
g92
g93
ssg74
g2814
sg67
(lp2826
S':'
asbag60
(g81
g62
NtRp2827
(dp2828
g65
(dp2829
sg74
g2814
sg67
(lp2830
g60
(g61
g62
NtRp2831
(dp2832
g65
(dp2833
g73
I3
ssg74
g2827
sg67
(lp2834
S'<__main__.Stderr object at 0x006F6670>'
p2835
asbasbasbag60
(g76
g62
NtRp2836
(dp2837
g65
(dp2838
sg74
g2390
sg67
(lp2839
g60
(g81
g62
NtRp2840
(dp2841
g65
(dp2842
g85
g86
ssg74
g2836
sg67
(lp2843
S'wsgi.file_wrapper'
p2844
asbag60
(g81
g62
NtRp2845
(dp2846
g65
(dp2847
g92
g93
ssg74
g2836
sg67
(lp2848
S':'
asbag60
(g81
g62
NtRp2849
(dp2850
g65
(dp2851
sg74
g2836
sg67
(lp2852
g60
(g61
g62
NtRp2853
(dp2854
g65
(dp2855
g73
I3
ssg74
g2849
sg67
(lp2856
S'<class wsgiref.util.FileWrapper at 0x02E8DE10>'
p2857
asbasbasbag60
(g76
g62
NtRp2858
(dp2859
g65
(dp2860
sg74
g2390
sg67
(lp2861
g60
(g81
g62
NtRp2862
(dp2863
g65
(dp2864
g85
g86
ssg74
g2858
sg67
(lp2865
S'wsgi.input'
p2866
asbag60
(g81
g62
NtRp2867
(dp2868
g65
(dp2869
g92
g93
ssg74
g2858
sg67
(lp2870
S':'
asbag60
(g81
g62
NtRp2871
(dp2872
g65
(dp2873
sg74
g2858
sg67
(lp2874
g60
(g61
g62
NtRp2875
(dp2876
g65
(dp2877
g73
I3
ssg74
g2871
sg67
(lp2878
S'<cStringIO.StringO object at 0x0623AC80>'
p2879
asbasbasbag60
(g76
g62
NtRp2880
(dp2881
g65
(dp2882
sg74
g2390
sg67
(lp2883
g60
(g81
g62
NtRp2884
(dp2885
g65
(dp2886
g85
g86
ssg74
g2880
sg67
(lp2887
S'wsgi.multiprocess'
p2888
asbag60
(g81
g62
NtRp2889
(dp2890
g65
(dp2891
g92
g93
ssg74
g2880
sg67
(lp2892
S':'
asbag60
(g81
g62
NtRp2893
(dp2894
g65
(dp2895
sg74
g2880
sg67
(lp2896
g60
(g61
g62
NtRp2897
(dp2898
g65
(dp2899
g73
I3
ssg74
g2893
sg67
(lp2900
g103
asbasbasbag60
(g76
g62
NtRp2901
(dp2902
g65
(dp2903
sg74
g2390
sg67
(lp2904
g60
(g81
g62
NtRp2905
(dp2906
g65
(dp2907
g85
g86
ssg74
g2901
sg67
(lp2908
S'wsgi.multithread'
p2909
asbag60
(g81
g62
NtRp2910
(dp2911
g65
(dp2912
g92
g93
ssg74
g2901
sg67
(lp2913
S':'
asbag60
(g81
g62
NtRp2914
(dp2915
g65
(dp2916
sg74
g2901
sg67
(lp2917
g60
(g61
g62
NtRp2918
(dp2919
g65
(dp2920
g73
I3
ssg74
g2914
sg67
(lp2921
g1641
asbasbasbag60
(g76
g62
NtRp2922
(dp2923
g65
(dp2924
sg74
g2390
sg67
(lp2925
g60
(g81
g62
NtRp2926
(dp2927
g65
(dp2928
g85
g86
ssg74
g2922
sg67
(lp2929
S'wsgi.run_once'
p2930
asbag60
(g81
g62
NtRp2931
(dp2932
g65
(dp2933
g92
g93
ssg74
g2922
sg67
(lp2934
S':'
asbag60
(g81
g62
NtRp2935
(dp2936
g65
(dp2937
sg74
g2922
sg67
(lp2938
g60
(g61
g62
NtRp2939
(dp2940
g65
(dp2941
g73
I3
ssg74
g2935
sg67
(lp2942
g103
asbasbasbag60
(g76
g62
NtRp2943
(dp2944
g65
(dp2945
sg74
g2390
sg67
(lp2946
g60
(g81
g62
NtRp2947
(dp2948
g65
(dp2949
g85
g86
ssg74
g2943
sg67
(lp2950
S'wsgi.url_scheme'
p2951
asbag60
(g81
g62
NtRp2952
(dp2953
g65
(dp2954
g92
g93
ssg74
g2943
sg67
(lp2955
S':'
asbag60
(g81
g62
NtRp2956
(dp2957
g65
(dp2958
sg74
g2943
sg67
(lp2959
g60
(g61
g62
NtRp2960
(dp2961
g65
(dp2962
g73
I3
ssg74
g2956
sg67
(lp2963
g1684
asbasbasbag60
(g76
g62
NtRp2964
(dp2965
g65
(dp2966
sg74
g2390
sg67
(lp2967
g60
(g81
g62
NtRp2968
(dp2969
g65
(dp2970
g85
g86
ssg74
g2964
sg67
(lp2971
S'wsgi.version'
p2972
asbag60
(g81
g62
NtRp2973
(dp2974
g65
(dp2975
g92
g93
ssg74
g2964
sg67
(lp2976
S':'
asbag60
(g81
g62
NtRp2977
(dp2978
g65
(dp2979
sg74
g2964
sg67
(lp2980
g60
(g61
g62
NtRp2981
(dp2982
g65
(dp2983
g73
I3
ssg74
g2977
sg67
(lp2984
S'1'
asbasbasbasbasbasbasbasbasbasbasbasbasbsS'frames'
p2985
(lp2986
(dp2987
S'file'
p2988
S'C:\\web2py\\gluon\\restricted.py'
p2989
sS'dump'
p2990
(dp2991
sS'lnum'
p2992
I204
sS'lines'
p2993
(dp2994
sS'call'
p2995
S'(code="from gluon.tools import *\\n\\n\\ndb = DAL(\'sqlite://s...dable = db.comment.created_on.writable = False\\n\\n\\n", environment={\'A\': <class \'gluon.html.A\'>, \'B\': <class \'gluon.html.B\'>, \'BEAUTIFY\': <class \'gluon.html.BEAUTIFY\'>, \'BODY\': <class \'gluon.html.BODY\'>, \'BR\': <class \'gluon.html.BR\'>, \'BUTTON\': <class \'gluon.html.BUTTON\'>, \'CAT\': <class \'gluon.html.CAT\'>, \'CENTER\': <class \'gluon.html.CENTER\'>, \'CLEANUP\': <class \'gluon.validators.CLEANUP\'>, \'CODE\': <class \'gluon.html.CODE\'>, ...}, layer=r\'C:\\web2py\\applications\\unioeste_code\\models\\db.py\')'
p2996
sS'func'
p2997
S'restricted'
p2998
sa(dp2999
g2988
S'C:\\web2py\\gluon\\restricted.py'
p3000
sg2990
(dp3001
sg2992
I189
sg2993
(dp3002
sg2995
S'(code="from gluon.tools import *\\n\\n\\ndb = DAL(\'sqlite://s...dable = db.comment.created_on.writable = False\\n\\n\\n", layer=r\'C:\\web2py\\applications\\unioeste_code\\models\\db.py\')'
p3003
sg2997
S'compile2'
p3004
sasS'pyver'
p3005
S'Python 2.5.4: C:\\web2py\\web2py_no_console.exe'
p3006
sS'session'
p3007
g60
(g61
g62
NtRp3008
(dp3009
g65
(dp3010
sg67
(lp3011
g60
(g69
g62
NtRp3012
(dp3013
g65
(dp3014
g73
I5
ssg74
Nsg67
(lp3015
sbasbsS'etype'
p3016
S"<type 'exceptions.SyntaxError'>"
p3017
sS'date'
p3018
S'Sat Jul 28 15:11:42 2012'
p3019
sS'response'
p3020
g60
(g61
g62
NtRp3021
(dp3022
g65
(dp3023
sg67
(lp3024
g60
(g69
g62
NtRp3025
(dp3026
g65
(dp3027
g73
I5
ssg74
Nsg67
(lp3028
g60
(g76
g62
NtRp3029
(dp3030
g65
(dp3031
sg74
g3025
sg67
(lp3032
g60
(g81
g62
NtRp3033
(dp3034
g65
(dp3035
g85
g86
ssg74
g3029
sg67
(lp3036
g158
asbag60
(g81
g62
NtRp3037
(dp3038
g65
(dp3039
g92
g93
ssg74
g3029
sg67
(lp3040
S':'
asbag60
(g81
g62
NtRp3041
(dp3042
g65
(dp3043
sg74
g3029
sg67
(lp3044
g60
(g61
g62
NtRp3045
(dp3046
g65
(dp3047
g73
I5
ssg74
g3041
sg67
(lp3048
S'<cStringIO.StringO object at 0x0623A800>'
p3049
asbasbasbag60
(g76
g62
NtRp3050
(dp3051
g65
(dp3052
sg74
g3025
sg67
(lp3053
g60
(g81
g62
NtRp3054
(dp3055
g65
(dp3056
g85
g86
ssg74
g3050
sg67
(lp3057
g224
asbag60
(g81
g62
NtRp3058
(dp3059
g65
(dp3060
g92
g93
ssg74
g3050
sg67
(lp3061
S':'
asbag60
(g81
g62
NtRp3062
(dp3063
g65
(dp3064
sg74
g3050
sg67
(lp3065
g60
(g61
g62
NtRp3066
(dp3067
g65
(dp3068
g73
I5
ssg74
g3062
sg67
(lp3069
g60
(g69
g62
NtRp3070
(dp3071
g65
(dp3072
g73
I4
ssg74
Nsg67
(lp3073
g60
(g76
g62
NtRp3074
(dp3075
g65
(dp3076
sg74
g3070
sg67
(lp3077
g60
(g81
g62
NtRp3078
(dp3079
g65
(dp3080
g85
g86
ssg74
g3074
sg67
(lp3081
S'session_id_unioeste_code'
p3082
asbag60
(g81
g62
NtRp3083
(dp3084
g65
(dp3085
g92
g93
ssg74
g3074
sg67
(lp3086
S':'
asbag60
(g81
g62
NtRp3087
(dp3088
g65
(dp3089
sg74
g3074
sg67
(lp3090
g60
(g61
g62
NtRp3091
(dp3092
g65
(dp3093
g73
I4
ssg74
g3087
sg67
(lp3094
g60
(g69
g62
NtRp3095
(dp3096
g65
(dp3097
g73
I3
ssg74
Nsg67
(lp3098
g60
(g76
g62
NtRp3099
(dp3100
g65
(dp3101
sg74
g3095
sg67
(lp3102
g60
(g81
g62
NtRp3103
(dp3104
g65
(dp3105
g85
g86
ssg74
g3099
sg67
(lp3106
g274
asbag60
(g81
g62
NtRp3107
(dp3108
g65
(dp3109
g92
g93
ssg74
g3099
sg67
(lp3110
S':'
asbag60
(g81
g62
NtRp3111
(dp3112
g65
(dp3113
sg74
g3099
sg67
(lp3114
g60
(g61
g62
NtRp3115
(dp3116
g65
(dp3117
g73
I3
ssg74
g3111
sg67
(lp3118
S''
asbasbasbag60
(g76
g62
NtRp3119
(dp3120
g65
(dp3121
sg74
g3095
sg67
(lp3122
g60
(g81
g62
NtRp3123
(dp3124
g65
(dp3125
g85
g86
ssg74
g3119
sg67
(lp3126
g295
asbag60
(g81
g62
NtRp3127
(dp3128
g65
(dp3129
g92
g93
ssg74
g3119
sg67
(lp3130
S':'
asbag60
(g81
g62
NtRp3131
(dp3132
g65
(dp3133
sg74
g3119
sg67
(lp3134
g60
(g61
g62
NtRp3135
(dp3136
g65
(dp3137
g73
I3
ssg74
g3131
sg67
(lp3138
S''
asbasbasbag60
(g76
g62
NtRp3139
(dp3140
g65
(dp3141
sg74
g3095
sg67
(lp3142
g60
(g81
g62
NtRp3143
(dp3144
g65
(dp3145
g85
g86
ssg74
g3139
sg67
(lp3146
g316
asbag60
(g81
g62
NtRp3147
(dp3148
g65
(dp3149
g92
g93
ssg74
g3139
sg67
(lp3150
S':'
asbag60
(g81
g62
NtRp3151
(dp3152
g65
(dp3153
sg74
g3139
sg67
(lp3154
g60
(g61
g62
NtRp3155
(dp3156
g65
(dp3157
g73
I3
ssg74
g3151
sg67
(lp3158
S''
asbasbasbag60
(g76
g62
NtRp3159
(dp3160
g65
(dp3161
sg74
g3095
sg67
(lp3162
g60
(g81
g62
NtRp3163
(dp3164
g65
(dp3165
g85
g86
ssg74
g3159
sg67
(lp3166
g337
asbag60
(g81
g62
NtRp3167
(dp3168
g65
(dp3169
g92
g93
ssg74
g3159
sg67
(lp3170
S':'
asbag60
(g81
g62
NtRp3171
(dp3172
g65
(dp3173
sg74
g3159
sg67
(lp3174
g60
(g61
g62
NtRp3175
(dp3176
g65
(dp3177
g73
I3
ssg74
g3171
sg67
(lp3178
S''
asbasbasbag60
(g76
g62
NtRp3179
(dp3180
g65
(dp3181
sg74
g3095
sg67
(lp3182
g60
(g81
g62
NtRp3183
(dp3184
g65
(dp3185
g85
g86
ssg74
g3179
sg67
(lp3186
g358
asbag60
(g81
g62
NtRp3187
(dp3188
g65
(dp3189
g92
g93
ssg74
g3179
sg67
(lp3190
S':'
asbag60
(g81
g62
NtRp3191
(dp3192
g65
(dp3193
sg74
g3179
sg67
(lp3194
g60
(g61
g62
NtRp3195
(dp3196
g65
(dp3197
g73
I3
ssg74
g3191
sg67
(lp3198
S'/'
asbasbasbag60
(g76
g62
NtRp3199
(dp3200
g65
(dp3201
sg74
g3095
sg67
(lp3202
g60
(g81
g62
NtRp3203
(dp3204
g65
(dp3205
g85
g86
ssg74
g3199
sg67
(lp3206
g379
asbag60
(g81
g62
NtRp3207
(dp3208
g65
(dp3209
g92
g93
ssg74
g3199
sg67
(lp3210
S':'
asbag60
(g81
g62
NtRp3211
(dp3212
g65
(dp3213
sg74
g3199
sg67
(lp3214
g60
(g61
g62
NtRp3215
(dp3216
g65
(dp3217
g73
I3
ssg74
g3211
sg67
(lp3218
S''
asbasbasbag60
(g76
g62
NtRp3219
(dp3220
g65
(dp3221
sg74
g3095
sg67
(lp3222
g60
(g81
g62
NtRp3223
(dp3224
g65
(dp3225
g85
g86
ssg74
g3219
sg67
(lp3226
g400
asbag60
(g81
g62
NtRp3227
(dp3228
g65
(dp3229
g92
g93
ssg74
g3219
sg67
(lp3230
S':'
asbag60
(g81
g62
NtRp3231
(dp3232
g65
(dp3233
sg74
g3219
sg67
(lp3234
g60
(g61
g62
NtRp3235
(dp3236
g65
(dp3237
g73
I3
ssg74
g3231
sg67
(lp3238
S''
asbasbasbasbasbasbasbasbasbasbasbag60
(g76
g62
NtRp3239
(dp3240
g65
(dp3241
sg74
g3025
sg67
(lp3242
g60
(g81
g62
NtRp3243
(dp3244
g65
(dp3245
g85
g86
ssg74
g3239
sg67
(lp3246
S'delimiters'
p3247
asbag60
(g81
g62
NtRp3248
(dp3249
g65
(dp3250
g92
g93
ssg74
g3239
sg67
(lp3251
S':'
asbag60
(g81
g62
NtRp3252
(dp3253
g65
(dp3254
sg74
g3239
sg67
(lp3255
g60
(g61
g62
NtRp3256
(dp3257
g65
(dp3258
g73
I5
ssg74
g3252
sg67
(lp3259
g60
(g69
g62
NtRp3260
(dp3261
g65
(dp3262
g73
I4
ssg74
Nsg67
(lp3263
g60
(g76
g62
NtRp3264
(dp3265
g65
(dp3266
sg74
g3260
sg67
(lp3267
g60
(g81
g62
NtRp3268
(dp3269
g65
(dp3270
sg74
g3264
sg67
(lp3271
g60
(g61
g62
NtRp3272
(dp3273
g65
(dp3274
g73
I4
ssg74
g3268
sg67
(lp3275
S'{{'
p3276
asbasbasbag60
(g76
g62
NtRp3277
(dp3278
g65
(dp3279
sg74
g3260
sg67
(lp3280
g60
(g81
g62
NtRp3281
(dp3282
g65
(dp3283
sg74
g3277
sg67
(lp3284
g60
(g61
g62
NtRp3285
(dp3286
g65
(dp3287
g73
I4
ssg74
g3281
sg67
(lp3288
S'}}'
p3289
asbasbasbasbasbasbasbag60
(g76
g62
NtRp3290
(dp3291
g65
(dp3292
sg74
g3025
sg67
(lp3293
g60
(g81
g62
NtRp3294
(dp3295
g65
(dp3296
g85
g86
ssg74
g3290
sg67
(lp3297
S'files'
p3298
asbag60
(g81
g62
NtRp3299
(dp3300
g65
(dp3301
g92
g93
ssg74
g3290
sg67
(lp3302
S':'
asbag60
(g81
g62
NtRp3303
(dp3304
g65
(dp3305
sg74
g3290
sg67
(lp3306
g60
(g61
g62
NtRp3307
(dp3308
g65
(dp3309
g73
I5
ssg74
g3303
sg67
(lp3310
g60
(g69
g62
NtRp3311
(dp3312
g65
(dp3313
g73
I4
ssg74
Nsg67
(lp3314
sbasbasbasbag60
(g76
g62
NtRp3315
(dp3316
g65
(dp3317
sg74
g3025
sg67
(lp3318
g60
(g81
g62
NtRp3319
(dp3320
g65
(dp3321
g85
g86
ssg74
g3315
sg67
(lp3322
S'flash'
p3323
asbag60
(g81
g62
NtRp3324
(dp3325
g65
(dp3326
g92
g93
ssg74
g3315
sg67
(lp3327
S':'
asbag60
(g81
g62
NtRp3328
(dp3329
g65
(dp3330
sg74
g3315
sg67
(lp3331
g60
(g61
g62
NtRp3332
(dp3333
g65
(dp3334
g73
I5
ssg74
g3328
sg67
(lp3335
S''
asbasbasbag60
(g76
g62
NtRp3336
(dp3337
g65
(dp3338
sg74
g3025
sg67
(lp3339
g60
(g81
g62
NtRp3340
(dp3341
g65
(dp3342
g85
g86
ssg74
g3336
sg67
(lp3343
S'generic_patterns'
p3344
asbag60
(g81
g62
NtRp3345
(dp3346
g65
(dp3347
g92
g93
ssg74
g3336
sg67
(lp3348
S':'
asbag60
(g81
g62
NtRp3349
(dp3350
g65
(dp3351
sg74
g3336
sg67
(lp3352
g60
(g61
g62
NtRp3353
(dp3354
g65
(dp3355
g73
I5
ssg74
g3349
sg67
(lp3356
g60
(g69
g62
NtRp3357
(dp3358
g65
(dp3359
g73
I4
ssg74
Nsg67
(lp3360
sbasbasbasbag60
(g76
g62
NtRp3361
(dp3362
g65
(dp3363
sg74
g3025
sg67
(lp3364
g60
(g81
g62
NtRp3365
(dp3366
g65
(dp3367
g85
g86
ssg74
g3361
sg67
(lp3368
S'headers'
p3369
asbag60
(g81
g62
NtRp3370
(dp3371
g65
(dp3372
g92
g93
ssg74
g3361
sg67
(lp3373
S':'
asbag60
(g81
g62
NtRp3374
(dp3375
g65
(dp3376
sg74
g3361
sg67
(lp3377
g60
(g61
g62
NtRp3378
(dp3379
g65
(dp3380
g73
I5
ssg74
g3374
sg67
(lp3381
g60
(g69
g62
NtRp3382
(dp3383
g65
(dp3384
g73
I4
ssg74
Nsg67
(lp3385
g60
(g76
g62
NtRp3386
(dp3387
g65
(dp3388
sg74
g3382
sg67
(lp3389
g60
(g81
g62
NtRp3390
(dp3391
g65
(dp3392
g85
g86
ssg74
g3386
sg67
(lp3393
S'Cache-Control'
p3394
asbag60
(g81
g62
NtRp3395
(dp3396
g65
(dp3397
g92
g93
ssg74
g3386
sg67
(lp3398
S':'
asbag60
(g81
g62
NtRp3399
(dp3400
g65
(dp3401
sg74
g3386
sg67
(lp3402
g60
(g61
g62
NtRp3403
(dp3404
g65
(dp3405
g73
I4
ssg74
g3399
sg67
(lp3406
S'no-store, no-cache, must-revalidate, post-check=0, pre-check=0'
p3407
asbasbasbag60
(g76
g62
NtRp3408
(dp3409
g65
(dp3410
sg74
g3382
sg67
(lp3411
g60
(g81
g62
NtRp3412
(dp3413
g65
(dp3414
g85
g86
ssg74
g3408
sg67
(lp3415
S'Content-Type'
p3416
asbag60
(g81
g62
NtRp3417
(dp3418
g65
(dp3419
g92
g93
ssg74
g3408
sg67
(lp3420
S':'
asbag60
(g81
g62
NtRp3421
(dp3422
g65
(dp3423
sg74
g3408
sg67
(lp3424
g60
(g61
g62
NtRp3425
(dp3426
g65
(dp3427
g73
I4
ssg74
g3421
sg67
(lp3428
S'text/html; charset=utf-8'
p3429
asbasbasbag60
(g76
g62
NtRp3430
(dp3431
g65
(dp3432
sg74
g3382
sg67
(lp3433
g60
(g81
g62
NtRp3434
(dp3435
g65
(dp3436
g85
g86
ssg74
g3430
sg67
(lp3437
S'Expires'
p3438
asbag60
(g81
g62
NtRp3439
(dp3440
g65
(dp3441
g92
g93
ssg74
g3430
sg67
(lp3442
S':'
asbag60
(g81
g62
NtRp3443
(dp3444
g65
(dp3445
sg74
g3430
sg67
(lp3446
g60
(g61
g62
NtRp3447
(dp3448
g65
(dp3449
g73
I4
ssg74
g3443
sg67
(lp3450
S'Sat, 28 Jul 2012 18:11:42 GMT'
p3451
asbasbasbag60
(g76
g62
NtRp3452
(dp3453
g65
(dp3454
sg74
g3382
sg67
(lp3455
g60
(g81
g62
NtRp3456
(dp3457
g65
(dp3458
g85
g86
ssg74
g3452
sg67
(lp3459
S'Pragma'
p3460
asbag60
(g81
g62
NtRp3461
(dp3462
g65
(dp3463
g92
g93
ssg74
g3452
sg67
(lp3464
S':'
asbag60
(g81
g62
NtRp3465
(dp3466
g65
(dp3467
sg74
g3452
sg67
(lp3468
g60
(g61
g62
NtRp3469
(dp3470
g65
(dp3471
g73
I4
ssg74
g3465
sg67
(lp3472
S'no-cache'
p3473
asbasbasbag60
(g76
g62
NtRp3474
(dp3475
g65
(dp3476
sg74
g3382
sg67
(lp3477
g60
(g81
g62
NtRp3478
(dp3479
g65
(dp3480
g85
g86
ssg74
g3474
sg67
(lp3481
S'X-Powered-By'
p3482
asbag60
(g81
g62
NtRp3483
(dp3484
g65
(dp3485
g92
g93
ssg74
g3474
sg67
(lp3486
S':'
asbag60
(g81
g62
NtRp3487
(dp3488
g65
(dp3489
sg74
g3474
sg67
(lp3490
g60
(g61
g62
NtRp3491
(dp3492
g65
(dp3493
g73
I4
ssg74
g3487
sg67
(lp3494
S'web2py'
p3495
asbasbasbasbasbasbasbag60
(g76
g62
NtRp3496
(dp3497
g65
(dp3498
sg74
g3025
sg67
(lp3499
g60
(g81
g62
NtRp3500
(dp3501
g65
(dp3502
g85
g86
ssg74
g3496
sg67
(lp3503
S'menu'
p3504
asbag60
(g81
g62
NtRp3505
(dp3506
g65
(dp3507
g92
g93
ssg74
g3496
sg67
(lp3508
S':'
asbag60
(g81
g62
NtRp3509
(dp3510
g65
(dp3511
sg74
g3496
sg67
(lp3512
g60
(g61
g62
NtRp3513
(dp3514
g65
(dp3515
g73
I5
ssg74
g3509
sg67
(lp3516
g60
(g69
g62
NtRp3517
(dp3518
g65
(dp3519
g73
I4
ssg74
Nsg67
(lp3520
sbasbasbasbag60
(g76
g62
NtRp3521
(dp3522
g65
(dp3523
sg74
g3025
sg67
(lp3524
g60
(g81
g62
NtRp3525
(dp3526
g65
(dp3527
g85
g86
ssg74
g3521
sg67
(lp3528
S'meta'
p3529
asbag60
(g81
g62
NtRp3530
(dp3531
g65
(dp3532
g92
g93
ssg74
g3521
sg67
(lp3533
S':'
asbag60
(g81
g62
NtRp3534
(dp3535
g65
(dp3536
sg74
g3521
sg67
(lp3537
g60
(g61
g62
NtRp3538
(dp3539
g65
(dp3540
g73
I5
ssg74
g3534
sg67
(lp3541
g60
(g69
g62
NtRp3542
(dp3543
g65
(dp3544
g73
I4
ssg74
Nsg67
(lp3545
sbasbasbasbag60
(g76
g62
NtRp3546
(dp3547
g65
(dp3548
sg74
g3025
sg67
(lp3549
g60
(g81
g62
NtRp3550
(dp3551
g65
(dp3552
g85
g86
ssg74
g3546
sg67
(lp3553
S'postprocessing'
p3554
asbag60
(g81
g62
NtRp3555
(dp3556
g65
(dp3557
g92
g93
ssg74
g3546
sg67
(lp3558
S':'
asbag60
(g81
g62
NtRp3559
(dp3560
g65
(dp3561
sg74
g3546
sg67
(lp3562
g60
(g61
g62
NtRp3563
(dp3564
g65
(dp3565
g73
I5
ssg74
g3559
sg67
(lp3566
g60
(g69
g62
NtRp3567
(dp3568
g65
(dp3569
g73
I4
ssg74
Nsg67
(lp3570
sbasbasbasbag60
(g76
g62
NtRp3571
(dp3572
g65
(dp3573
sg74
g3025
sg67
(lp3574
g60
(g81
g62
NtRp3575
(dp3576
g65
(dp3577
g85
g86
ssg74
g3571
sg67
(lp3578
S'session_file'
p3579
asbag60
(g81
g62
NtRp3580
(dp3581
g65
(dp3582
g92
g93
ssg74
g3571
sg67
(lp3583
S':'
asbag60
(g81
g62
NtRp3584
(dp3585
g65
(dp3586
sg74
g3571
sg67
(lp3587
g60
(g61
g62
NtRp3588
(dp3589
g65
(dp3590
g73
I5
ssg74
g3584
sg67
(lp3591
S"<open file 'C:\\web2py\\applications\\unioeste_code\\sessions\\127.0.0.1-87142505-8d38-426f-afb9-e3f36884a384', mode 'rb+' at 0x03265E30>"
p3592
asbasbasbag60
(g76
g62
NtRp3593
(dp3594
g65
(dp3595
sg74
g3025
sg67
(lp3596
g60
(g81
g62
NtRp3597
(dp3598
g65
(dp3599
g85
g86
ssg74
g3593
sg67
(lp3600
S'session_filename'
p3601
asbag60
(g81
g62
NtRp3602
(dp3603
g65
(dp3604
g92
g93
ssg74
g3593
sg67
(lp3605
S':'
asbag60
(g81
g62
NtRp3606
(dp3607
g65
(dp3608
sg74
g3593
sg67
(lp3609
g60
(g61
g62
NtRp3610
(dp3611
g65
(dp3612
g73
I5
ssg74
g3606
sg67
(lp3613
S'C:\\web2py\\applications\\unioeste_code\\sessions\\127.0.0.1-87142505-8d38-426f-afb9-e3f36884a384'
p3614
asbasbasbag60
(g76
g62
NtRp3615
(dp3616
g65
(dp3617
sg74
g3025
sg67
(lp3618
g60
(g81
g62
NtRp3619
(dp3620
g65
(dp3621
g85
g86
ssg74
g3615
sg67
(lp3622
S'session_id'
p3623
asbag60
(g81
g62
NtRp3624
(dp3625
g65
(dp3626
g92
g93
ssg74
g3615
sg67
(lp3627
S':'
asbag60
(g81
g62
NtRp3628
(dp3629
g65
(dp3630
sg74
g3615
sg67
(lp3631
g60
(g61
g62
NtRp3632
(dp3633
g65
(dp3634
g73
I5
ssg74
g3628
sg67
(lp3635
S'127.0.0.1-87142505-8d38-426f-afb9-e3f36884a384'
p3636
asbasbasbag60
(g76
g62
NtRp3637
(dp3638
g65
(dp3639
sg74
g3025
sg67
(lp3640
g60
(g81
g62
NtRp3641
(dp3642
g65
(dp3643
g85
g86
ssg74
g3637
sg67
(lp3644
S'session_id_name'
p3645
asbag60
(g81
g62
NtRp3646
(dp3647
g65
(dp3648
g92
g93
ssg74
g3637
sg67
(lp3649
S':'
asbag60
(g81
g62
NtRp3650
(dp3651
g65
(dp3652
sg74
g3637
sg67
(lp3653
g60
(g61
g62
NtRp3654
(dp3655
g65
(dp3656
g73
I5
ssg74
g3650
sg67
(lp3657
g3082
asbasbasbag60
(g76
g62
NtRp3658
(dp3659
g65
(dp3660
sg74
g3025
sg67
(lp3661
g60
(g81
g62
NtRp3662
(dp3663
g65
(dp3664
g85
g86
ssg74
g3658
sg67
(lp3665
S'session_locked'
p3666
asbag60
(g81
g62
NtRp3667
(dp3668
g65
(dp3669
g92
g93
ssg74
g3658
sg67
(lp3670
S':'
asbag60
(g81
g62
NtRp3671
(dp3672
g65
(dp3673
sg74
g3658
sg67
(lp3674
g60
(g61
g62
NtRp3675
(dp3676
g65
(dp3677
g73
I5
ssg74
g3671
sg67
(lp3678
g1641
asbasbasbag60
(g76
g62
NtRp3679
(dp3680
g65
(dp3681
sg74
g3025
sg67
(lp3682
g60
(g81
g62
NtRp3683
(dp3684
g65
(dp3685
g85
g86
ssg74
g3679
sg67
(lp3686
S'session_new'
p3687
asbag60
(g81
g62
NtRp3688
(dp3689
g65
(dp3690
g92
g93
ssg74
g3679
sg67
(lp3691
S':'
asbag60
(g81
g62
NtRp3692
(dp3693
g65
(dp3694
sg74
g3679
sg67
(lp3695
g60
(g61
g62
NtRp3696
(dp3697
g65
(dp3698
g73
I5
ssg74
g3692
sg67
(lp3699
g103
asbasbasbag60
(g76
g62
NtRp3700
(dp3701
g65
(dp3702
sg74
g3025
sg67
(lp3703
g60
(g81
g62
NtRp3704
(dp3705
g65
(dp3706
g85
g86
ssg74
g3700
sg67
(lp3707
S'status'
p3708
asbag60
(g81
g62
NtRp3709
(dp3710
g65
(dp3711
g92
g93
ssg74
g3700
sg67
(lp3712
S':'
asbag60
(g81
g62
NtRp3713
(dp3714
g65
(dp3715
sg74
g3700
sg67
(lp3716
g60
(g61
g62
NtRp3717
(dp3718
g65
(dp3719
g73
I5
ssg74
g3713
sg67
(lp3720
S'200'
p3721
asbasbasbag60
(g76
g62
NtRp3722
(dp3723
g65
(dp3724
sg74
g3025
sg67
(lp3725
g60
(g81
g62
NtRp3726
(dp3727
g65
(dp3728
g85
g86
ssg74
g3722
sg67
(lp3729
g2305
asbag60
(g81
g62
NtRp3730
(dp3731
g65
(dp3732
g92
g93
ssg74
g3722
sg67
(lp3733
S':'
asbag60
(g81
g62
NtRp3734
(dp3735
g65
(dp3736
sg74
g3722
sg67
(lp3737
g60
(g61
g62
NtRp3738
(dp3739
g65
(dp3740
g73
I5
ssg74
g3734
sg67
(lp3741
g2318
asbasbasbag60
(g76
g62
NtRp3742
(dp3743
g65
(dp3744
sg74
g3025
sg67
(lp3745
g60
(g81
g62
NtRp3746
(dp3747
g65
(dp3748
g85
g86
ssg74
g3742
sg67
(lp3749
S'view'
p3750
asbag60
(g81
g62
NtRp3751
(dp3752
g65
(dp3753
g92
g93
ssg74
g3742
sg67
(lp3754
S':'
asbag60
(g81
g62
NtRp3755
(dp3756
g65
(dp3757
sg74
g3742
sg67
(lp3758
g60
(g61
g62
NtRp3759
(dp3760
g65
(dp3761
g73
I5
ssg74
g3755
sg67
(lp3762
S'appadmin/index.html'
p3763
asbasbasbasbasbsS'locals'
p3764
(dp3765
g4
S"r'C:\\web2py\\applications\\unioeste_code\\models\\db.py'"
p3766
sg6
S'"from gluon.tools import *\\n\\n\\ndb = DAL(\'sqlite://s...dable = db.comment.created_on.writable = False\\n\\n\\n"'
p3767
sssS'traceback'
p3768
S'Traceback (most recent call last):\n  File "gluon/restricted.py", line 204, in restricted\n  File "gluon/restricted.py", line 189, in compile2\n  File "C:\\web2py\\applications\\unioeste_code\\models\\db.py", line 19\n    Field(\'body\',\'text\'),\n        ^\nSyntaxError: invalid syntax\n'
p3769
s.