(dp1
S'output'
p2
S"<type 'exceptions.ImportError'> No module named gravatar"
p3
sS'layer'
p4
S'C:\\web2py\\applications\\unioeste_code\\views\\default/index.html'
p5
sS'code'
p6
S'response.write(\'<!DOCTYPE html>\\n<!-- paulirish.com/2008/conditional-stylesheets-vs-css-hacks-answer-neither/ -->\\n<!--[if lt IE 7]><html class="ie ie6 ie-lte9 ie-lte8 ie-lte7 no-js" lang="\', escape=False)\nresponse.write(T.accepted_language or \'en\')\nresponse.write(\'"> <![endif]-->\\n<!--[if IE 7]><html class="ie ie7 ie-lte9 ie-lte8 ie-lte7 no-js" lang="\', escape=False)\nresponse.write(T.accepted_language or \'en\')\nresponse.write(\'"> <![endif]-->\\n<!--[if IE 8]><html class="ie ie8 ie-lte9 ie-lte8 no-js" lang="\', escape=False)\nresponse.write(T.accepted_language or \'en\')\nresponse.write(\'"> <![endif]-->\\n<!--[if IE 9]><html class="ie9 ie-lte9 no-js" lang="\', escape=False)\nresponse.write(T.accepted_language or \'en\')\nresponse.write(\'"> <![endif]-->\\n<!--[if (gt IE 9)|!(IE)]><!--> <html class="no-js" lang="\', escape=False)\nresponse.write(T.accepted_language or \'en\')\nresponse.write(\'"> <!--<![endif]-->\\n<head>\\n  <meta charset="utf-8" />\\n  <!-- www.phpied.com/conditional-comments-block-downloads/ -->\\n  <!-- Always force latest IE rendering engine\\n\\t   (even in intranet) & Chrome Frame\\n\\t   Remove this if you use the .htaccess -->\\n  <!--[if IE]>\\n    <meta http-equiv="X-UA-Compatible" content="IE=edge\', escape=False)\nresponse.write(not request.is_local and \',chrome=1\' or \'\')\nresponse.write(\'">\\n  <![endif]-->\\n  \\n  <title>\', escape=False)\nresponse.write(response.title or request.application)\nresponse.write(\'</title>\\n  \\n  <!-- http://dev.w3.org/html5/markup/meta.name.html -->\\n  <meta name="application-name" content="\', escape=False)\nresponse.write(request.application)\nresponse.write(\'" />\\n  \\n  <!-- Speaking of Google, don\\\'t forget to set your site up:\\n\\t   http://google.com/webmasters -->\\n  <meta name="google-site-verification" content="" />\\n\\n  <!--  Mobile Viewport Fix\\n\\t  j.mp/mobileviewport & davidbcalhoun.com/2010/viewport-metatag\\n\\t  device-width: Occupy full width of the screen in its current orientation\\n\\t  initial-scale = 1.0 retains dimensions instead of zooming out if page height > device height\\n\\t  user-scalable = yes allows the user to zoom in -->\\n  <meta name="viewport" content="width=device-width, initial-scale=1.0, user-scalable=yes">\\n  \\n  <!-- Place favicon.ico and apple-touch-icon.png in the root of your domain and delete these references -->\\n  <link rel="shortcut icon" href="\', escape=False)\nresponse.write(URL(\'static\',\'favicon.ico\'))\nresponse.write(\'" type="image/x-icon">\\n  <link rel="apple-touch-icon" href="\', escape=False)\nresponse.write(URL(\'static\',\'favicon.png\'))\nresponse.write(\'">\\n\\n  <!-- All JavaScript at the bottom, except for Modernizr which enables \\n\\t   HTML5 elements & feature detects -->\\n  <script src="\', escape=False)\nresponse.write(URL(\'static\',\'js/modernizr.custom.js\'))\nresponse.write(\'"></script>  \\n\\n  <!-- include stylesheets -->\\n  \', escape=False)\nresponse.files.append(URL(\'static\',\'css/skeleton.css\'))\nresponse.files.append(URL(\'static\',\'css/web2py.css\'))\nif response.menu:\n    response.files.append(URL(\'static\',\'css/superfish.css\'))\n    response.files.append(URL(\'static\',\'js/superfish.js\'))\n    pass\nresponse.write(\'\\n\\n  \', escape=False)\nresponse.write(\'<script type="text/javascript"><!--\\n    // These variables are used by the web2py_ajax_init function in web2py_ajax.js (which is loaded below).\\n    var w2p_ajax_confirm_message = "\', escape=False)\nresponse.write(T(\'Are you sure you want to delete this object?\'))\nresponse.write(\'";\\n    var w2p_ajax_date_format = "\', escape=False)\nresponse.write(T(\'%Y-%m-%d\'))\nresponse.write(\'";\\n    var w2p_ajax_datetime_format = "\', escape=False)\nresponse.write(T(\'%Y-%m-%d %H:%M:%S\'))\nresponse.write(\'";\\n    //--></script>\\n\', escape=False)\nresponse.files.insert(0,URL(\'static\',\'js/jquery.js\'))\nresponse.files.insert(1,URL(\'static\',\'css/calendar.css\'))\nresponse.files.insert(2,URL(\'static\',\'js/calendar.js\'))\nresponse.files.insert(3,URL(\'static\',\'js/web2py.js\'))\nresponse.include_meta()\nresponse.include_files()\nresponse.write(\'\\n\', escape=False)\nresponse.write(\'\\n\\n  \', escape=False)\nif response.menu:\n    response.write(\'\\n  <script type="text/javascript">\\n    jQuery(function(){ jQuery(\\\'ul.sf-menu\\\').supersubs({minWidth:12,maxWidth:30,extraWidth:3}).superfish(); });\\n  </script>\\n  \', escape=False)\n    pass\nresponse.write(\'\\n\\n  \', escape=False)\n# using sidebars need to know what sidebar you want to use\nleft_sidebar_enabled = globals().get(\'left_sidebar_enabled\',False)\nright_sidebar_enabled = globals().get(\'right_sidebar_enabled\',False)\nmiddle_columns = {0:\'sixteen\',1:\'twelve\',2:\'eight\'}[\n(left_sidebar_enabled and 1 or 0)+(right_sidebar_enabled and 1 or 0)]\nresponse.write(\'\\n\\n  <!-- uncomment here to load jquery-ui\\n  <link rel="stylesheet" href="http://ajax.googleapis.com/ajax/libs/jqueryui/1.8.16/themes/base/jquery-ui.css" type="text/css" media="all" />\\n  <script src="http://ajax.googleapis.com/ajax/libs/jqueryui/1.8.16/jquery-ui.min.js" type="text/javascript"></script>\\n  uncomment to load jquery-ui //-->\\n</head>\\n<body>\\n  <div class="wrapper"><!-- for sticky footer -->\\n  \\n    <div class="topbar">\\n      <div class="container">    \\n        <div class="sixteen columns">\\n          <div id="navbar">\', escape=False)\nresponse.write(\'auth\' in globals() and auth.navbar(separators=(\' \',\' | \',\'\')))\nresponse.write(\'</div>\\n          \', escape=False)\nis_mobile=request.user_agent().is_mobile\nresponse.write(\'\\n\\t  \', escape=False)\nif response.menu:\n    response.write(\'\\n          <div id="menu">\\n             \', escape=False)\n    response.write(MENU(response.menu, _class=\'mobile-menu\' if is_mobile else \'sf-menu\',mobile=is_mobile))\n    response.write(\'\\n          </div>\\n          \', escape=False)\n    pass\nresponse.write(\'\\n        </div>\\n      </div>\\n    </div><!-- topbar -->\\n    \\n    <div class="flash">\', escape=False)\nresponse.write(response.flash or \'\')\nresponse.write(\'</div>\\n    \\n    <div class="header">\\n      <div class="container">         \\n        <div class="sixteen columns">\\n          <img src="\', escape=False)\nresponse.write(URL(\'static\',\'images/logo-code.png\'))\nresponse.write(\'" class="remove-bottom" style="margin-top: .5em;" />\\n          <!-- H5 subtitle-->\\n        </div>\\n        <div class="sixteen columns">\\n          <div style="border: 1px solid #000000; ">\\n            <div style="float:right; padding-top: .25em;" class="a2a_kit a2a_default_style">\\n            <a class="a2a_dd" href="http://www.addtoany.com/share_save">Share</a></div>\\n            <script type="text/javascript" src="http://static.addtoany.com/menu/page.js"></script>\\n          </div>\\n        </div>\\n      </div>\\n    </div>\\n\\n    <div class="main">\\n      <div class="container">                 \\n        \', escape=False)\nif left_sidebar_enabled:\n    response.write(\'\\n        <div class="four columns left-sidebar">\\n          \', escape=False)\n    response.write(\'\\n          <h3>Left Sidebar</h3>\\n          <p></p>\\n          \', escape=False)\n    response.write(\'\\n        </div>\\n        \', escape=False)\n    pass\nresponse.write(\'\\n        \\n        <div class="\', escape=False)\nresponse.write(middle_columns)\nresponse.write(\' columns center">\\n          \', escape=False)\nresponse.write(\'\\n          \', escape=False)\nresponse.write(\'\\n\\n\\n\', escape=False)\nresponse.write(H1(T("Current Problems")))\nresponse.write(\'\\n<ul>\\n\', escape=False)\nfor problem in problems:\n    response.write(\'\\n\', escape=False)\n    user = db(db.auth_user.id==problem.created_by).select().first()\n    response.write(\'\\n\', escape=False)\n    response.write(LI(A(problem.title, _style="font-weight:bold;",_href=URL("Problem", args=problem.id)), " by " + user.first_name + " " + user.last_name + " ", SPAN(prettydate(problem.created_on), _style="color:green;font-weight:bold;")))\n    response.write(\'\\n\', escape=False)\n    pass\nresponse.write(\'\\n\\n\', escape=False)\nfrom gravatar import Gravatar\nresponse.write(\'\\n\', escape=False)\nIMG(_src=Gravatar(\'pedrolacerda88@hotmail.com\')._link_to_image())\nresponse.write(\'\\n\\n</ul>\', escape=False)\nresponse.write(\'\\n          \', escape=False)\nresponse.write(\'\\n        </div>\\n        \\n        \', escape=False)\nif right_sidebar_enabled:\n    response.write(\'\\n        <div class="four columns">\\n          \', escape=False)\n    response.write(\'\\n          <h3>Right Sidebar</h3>\\n          <p></p>\\n          \', escape=False)\n    response.write(\'\\n        </div>    \\n        \', escape=False)\n    pass\nresponse.write(\'\\n        \\n      </div><!-- container -->\\n    </div><!-- main -->\\n    \\n    <div class="push"></div>\\n  </div><!-- wrapper -->\\n\\n  <div class="footer">\\n    <div class="container">    \\n      <div class="sixteen columns">\\n        \', escape=False)\nresponse.write(\' <!-- this is default footer -->\\n        <div class="footer-content clearfix">\\n            <div style="float: left;">\\n            <a href="https://developers.google.com//"> \\n            <img style="padding-left: 8em; padding-bottom:1em; " src="https://developers.google.com/appengine/images/appengine-noborder-120x30.gif" alt="Powered by Google App Engine"/>\\n            </a>\\n          </div>\\n          <div class="footer-content clearfix">\\n            <div style="float: left;   ">\\n            <a href="http://www.python.org/"> \\n            <img style="" src="http://www.python.org/community/logos/python-powered-w-70x28.png" alt="Powered by Python"/>\\n            </a>\\n          </div>\\n          <div style="padding-left: 19.5em; padding-top: 0.25em;">\\n            <a href="http://www.web2py.com/">\\n            <img style="" src="\', escape=False)\nresponse.write(URL(\'static\',\'images/poweredby.png\'))\nresponse.write(\'"/>\\n            </a>\\n          </div>\\n        </div>\\n        \', escape=False)\nresponse.write(\'\\t\\n      </div>\\n    </div><!-- container -->\\n  </div><!-- footer -->\\n  \\n  <!--[if lt IE 7 ]>\\n\\t<script src="\', escape=False)\nresponse.write(URL(\'static\',\'js/dd_belatedpng.js\'))\nresponse.write(\'"></script>\\n\\t<script> DD_belatedPNG.fix(\\\'img, .png_bg\\\'); //fix any <img> or .png_bg background-images </script>\\n\\t<![endif]-->\\n  \', escape=False)\nif response.google_analytics_id:\n    response.write(\'<script type="text/javascript"> var _gaq = _gaq || []; _gaq.push([\\\'_setAccount\\\', \\\'\', escape=False)\n    response.write(response.google_analytics_id)\n    response.write("\']); _gaq.push([\'_trackPageview\']); (function() { var ga = document.createElement(\'script\'); ga.type = \'text/javascript\'; ga.async = true; ga.src = (\'https:\' == document.location.protocol ? \'https://ssl\' : \'http://www\') + \'.google-analytics.com/ga.js\'; var s = document.getElementsByTagName(\'script\')[0]; s.parentNode.insertBefore(ga, s); })(); </script> ", escape=False)\n    pass\nresponse.write(\'\\n</body>\\n</html>\\n\', escape=False)'
p7
sS'snapshot'
p8
(dp9
S'exception'
p10
(dp11
S'__hash__'
p12
S"<method-wrapper '__hash__' of exceptions.ImportError object at 0x0658F620>"
p13
sS'__setattr__'
p14
S"<method-wrapper '__setattr__' of exceptions.ImportError object at 0x0658F620>"
p15
sS'__reduce_ex__'
p16
S'<built-in method __reduce_ex__ of exceptions.ImportError object at 0x0658F620>'
p17
sS'__getslice__'
p18
S"<method-wrapper '__getslice__' of exceptions.ImportError object at 0x0658F620>"
p19
sS'__getitem__'
p20
S"<method-wrapper '__getitem__' of exceptions.ImportError object at 0x0658F620>"
p21
sS'__setstate__'
p22
S'<built-in method __setstate__ of exceptions.ImportError object at 0x0658F620>'
p23
sS'__reduce__'
p24
S'<built-in method __reduce__ of exceptions.ImportError object at 0x0658F620>'
p25
sS'__str__'
p26
S"<method-wrapper '__str__' of exceptions.ImportError object at 0x0658F620>"
p27
sS'args'
p28
S"('No module named gravatar',)"
p29
sS'__getattribute__'
p30
S"<method-wrapper '__getattribute__' of exceptions.ImportError object at 0x0658F620>"
p31
sS'__class__'
p32
S"<type 'exceptions.ImportError'>"
p33
sS'__delattr__'
p34
S"<method-wrapper '__delattr__' of exceptions.ImportError object at 0x0658F620>"
p35
sS'__repr__'
p36
S"<method-wrapper '__repr__' of exceptions.ImportError object at 0x0658F620>"
p37
sS'__dict__'
p38
S'{}'
p39
sS'__doc__'
p40
S'"Import can\'t find module, or can\'t find name in module."'
p41
sS'__init__'
p42
S"<method-wrapper '__init__' of exceptions.ImportError object at 0x0658F620>"
p43
sS'__new__'
p44
S'<built-in method __new__ of type object at 0x1E1CD198>'
p45
ssS'evalue'
p46
S'No module named gravatar'
p47
sS'request'
p48
ccopy_reg
_reconstructor
p49
(cgluon.html
BEAUTIFY
p50
c__builtin__
object
p51
NtRp52
(dp53
S'attributes'
p54
(dp55
sS'components'
p56
(lp57
g49
(cgluon.html
TABLE
p58
g51
NtRp59
(dp60
g54
(dp61
S'level'
p62
I5
ssS'parent'
p63
Nsg56
(lp64
g49
(cgluon.html
TR
p65
g51
NtRp66
(dp67
g54
(dp68
sg63
g59
sg56
(lp69
g49
(cgluon.html
TD
p70
g51
NtRp71
(dp72
g54
(dp73
S'_style'
p74
S'font-weight:bold;vertical-align:top'
p75
ssg63
g66
sg56
(lp76
S'ajax'
p77
asbag49
(g70
g51
NtRp78
(dp79
g54
(dp80
S'_valign'
p81
S'top'
p82
ssg63
g66
sg56
(lp83
S':'
asbag49
(g70
g51
NtRp84
(dp85
g54
(dp86
sg63
g66
sg56
(lp87
g49
(g50
g51
NtRp88
(dp89
g54
(dp90
g62
I5
ssg63
g84
sg56
(lp91
S'False'
p92
asbasbasbag49
(g65
g51
NtRp93
(dp94
g54
(dp95
sg63
g59
sg56
(lp96
g49
(g70
g51
NtRp97
(dp98
g54
(dp99
g74
g75
ssg63
g93
sg56
(lp100
S'application'
p101
asbag49
(g70
g51
NtRp102
(dp103
g54
(dp104
g81
g82
ssg63
g93
sg56
(lp105
S':'
asbag49
(g70
g51
NtRp106
(dp107
g54
(dp108
sg63
g93
sg56
(lp109
g49
(g50
g51
NtRp110
(dp111
g54
(dp112
g62
I5
ssg63
g106
sg56
(lp113
S'unioeste_code'
p114
asbasbasbag49
(g65
g51
NtRp115
(dp116
g54
(dp117
sg63
g59
sg56
(lp118
g49
(g70
g51
NtRp119
(dp120
g54
(dp121
g74
g75
ssg63
g115
sg56
(lp122
g28
asbag49
(g70
g51
NtRp123
(dp124
g54
(dp125
g81
g82
ssg63
g115
sg56
(lp126
S':'
asbag49
(g70
g51
NtRp127
(dp128
g54
(dp129
sg63
g115
sg56
(lp130
g49
(g50
g51
NtRp131
(dp132
g54
(dp133
g62
I5
ssg63
g127
sg56
(lp134
g49
(g58
g51
NtRp135
(dp136
g54
(dp137
g62
I4
ssg63
Nsg56
(lp138
sbasbasbasbag49
(g65
g51
NtRp139
(dp140
g54
(dp141
sg63
g59
sg56
(lp142
g49
(g70
g51
NtRp143
(dp144
g54
(dp145
g74
g75
ssg63
g139
sg56
(lp146
S'body'
p147
asbag49
(g70
g51
NtRp148
(dp149
g54
(dp150
g81
g82
ssg63
g139
sg56
(lp151
S':'
asbag49
(g70
g51
NtRp152
(dp153
g54
(dp154
sg63
g139
sg56
(lp155
g49
(g50
g51
NtRp156
(dp157
g54
(dp158
g62
I5
ssg63
g152
sg56
(lp159
S'<cStringIO.StringO object at 0x06509760>'
p160
asbasbasbag49
(g65
g51
NtRp161
(dp162
g54
(dp163
sg63
g59
sg56
(lp164
g49
(g70
g51
NtRp165
(dp166
g54
(dp167
g74
g75
ssg63
g161
sg56
(lp168
S'client'
p169
asbag49
(g70
g51
NtRp170
(dp171
g54
(dp172
g81
g82
ssg63
g161
sg56
(lp173
S':'
asbag49
(g70
g51
NtRp174
(dp175
g54
(dp176
sg63
g161
sg56
(lp177
g49
(g50
g51
NtRp178
(dp179
g54
(dp180
g62
I5
ssg63
g174
sg56
(lp181
S'127.0.0.1'
p182
asbasbasbag49
(g65
g51
NtRp183
(dp184
g54
(dp185
sg63
g59
sg56
(lp186
g49
(g70
g51
NtRp187
(dp188
g54
(dp189
g74
g75
ssg63
g183
sg56
(lp190
S'controller'
p191
asbag49
(g70
g51
NtRp192
(dp193
g54
(dp194
g81
g82
ssg63
g183
sg56
(lp195
S':'
asbag49
(g70
g51
NtRp196
(dp197
g54
(dp198
sg63
g183
sg56
(lp199
g49
(g50
g51
NtRp200
(dp201
g54
(dp202
g62
I5
ssg63
g196
sg56
(lp203
S'default'
p204
asbasbasbag49
(g65
g51
NtRp205
(dp206
g54
(dp207
sg63
g59
sg56
(lp208
g49
(g70
g51
NtRp209
(dp210
g54
(dp211
g74
g75
ssg63
g205
sg56
(lp212
S'cookies'
p213
asbag49
(g70
g51
NtRp214
(dp215
g54
(dp216
g81
g82
ssg63
g205
sg56
(lp217
S':'
asbag49
(g70
g51
NtRp218
(dp219
g54
(dp220
sg63
g205
sg56
(lp221
g49
(g50
g51
NtRp222
(dp223
g54
(dp224
g62
I5
ssg63
g218
sg56
(lp225
g49
(g58
g51
NtRp226
(dp227
g54
(dp228
g62
I4
ssg63
Nsg56
(lp229
g49
(g65
g51
NtRp230
(dp231
g54
(dp232
sg63
g226
sg56
(lp233
g49
(g70
g51
NtRp234
(dp235
g54
(dp236
g74
g75
ssg63
g230
sg56
(lp237
S'session_id_admin'
p238
asbag49
(g70
g51
NtRp239
(dp240
g54
(dp241
g81
g82
ssg63
g230
sg56
(lp242
S':'
asbag49
(g70
g51
NtRp243
(dp244
g54
(dp245
sg63
g230
sg56
(lp246
g49
(g50
g51
NtRp247
(dp248
g54
(dp249
g62
I4
ssg63
g243
sg56
(lp250
g49
(g58
g51
NtRp251
(dp252
g54
(dp253
g62
I3
ssg63
Nsg56
(lp254
g49
(g65
g51
NtRp255
(dp256
g54
(dp257
sg63
g251
sg56
(lp258
g49
(g70
g51
NtRp259
(dp260
g54
(dp261
g74
g75
ssg63
g255
sg56
(lp262
S'comment'
p263
asbag49
(g70
g51
NtRp264
(dp265
g54
(dp266
g81
g82
ssg63
g255
sg56
(lp267
S':'
asbag49
(g70
g51
NtRp268
(dp269
g54
(dp270
sg63
g255
sg56
(lp271
g49
(g50
g51
NtRp272
(dp273
g54
(dp274
g62
I3
ssg63
g268
sg56
(lp275
S''
asbasbasbag49
(g65
g51
NtRp276
(dp277
g54
(dp278
sg63
g251
sg56
(lp279
g49
(g70
g51
NtRp280
(dp281
g54
(dp282
g74
g75
ssg63
g276
sg56
(lp283
S'domain'
p284
asbag49
(g70
g51
NtRp285
(dp286
g54
(dp287
g81
g82
ssg63
g276
sg56
(lp288
S':'
asbag49
(g70
g51
NtRp289
(dp290
g54
(dp291
sg63
g276
sg56
(lp292
g49
(g50
g51
NtRp293
(dp294
g54
(dp295
g62
I3
ssg63
g289
sg56
(lp296
S''
asbasbasbag49
(g65
g51
NtRp297
(dp298
g54
(dp299
sg63
g251
sg56
(lp300
g49
(g70
g51
NtRp301
(dp302
g54
(dp303
g74
g75
ssg63
g297
sg56
(lp304
S'expires'
p305
asbag49
(g70
g51
NtRp306
(dp307
g54
(dp308
g81
g82
ssg63
g297
sg56
(lp309
S':'
asbag49
(g70
g51
NtRp310
(dp311
g54
(dp312
sg63
g297
sg56
(lp313
g49
(g50
g51
NtRp314
(dp315
g54
(dp316
g62
I3
ssg63
g310
sg56
(lp317
S''
asbasbasbag49
(g65
g51
NtRp318
(dp319
g54
(dp320
sg63
g251
sg56
(lp321
g49
(g70
g51
NtRp322
(dp323
g54
(dp324
g74
g75
ssg63
g318
sg56
(lp325
S'max-age'
p326
asbag49
(g70
g51
NtRp327
(dp328
g54
(dp329
g81
g82
ssg63
g318
sg56
(lp330
S':'
asbag49
(g70
g51
NtRp331
(dp332
g54
(dp333
sg63
g318
sg56
(lp334
g49
(g50
g51
NtRp335
(dp336
g54
(dp337
g62
I3
ssg63
g331
sg56
(lp338
S''
asbasbasbag49
(g65
g51
NtRp339
(dp340
g54
(dp341
sg63
g251
sg56
(lp342
g49
(g70
g51
NtRp343
(dp344
g54
(dp345
g74
g75
ssg63
g339
sg56
(lp346
S'path'
p347
asbag49
(g70
g51
NtRp348
(dp349
g54
(dp350
g81
g82
ssg63
g339
sg56
(lp351
S':'
asbag49
(g70
g51
NtRp352
(dp353
g54
(dp354
sg63
g339
sg56
(lp355
g49
(g50
g51
NtRp356
(dp357
g54
(dp358
g62
I3
ssg63
g352
sg56
(lp359
S''
asbasbasbag49
(g65
g51
NtRp360
(dp361
g54
(dp362
sg63
g251
sg56
(lp363
g49
(g70
g51
NtRp364
(dp365
g54
(dp366
g74
g75
ssg63
g360
sg56
(lp367
S'secure'
p368
asbag49
(g70
g51
NtRp369
(dp370
g54
(dp371
g81
g82
ssg63
g360
sg56
(lp372
S':'
asbag49
(g70
g51
NtRp373
(dp374
g54
(dp375
sg63
g360
sg56
(lp376
g49
(g50
g51
NtRp377
(dp378
g54
(dp379
g62
I3
ssg63
g373
sg56
(lp380
S''
asbasbasbag49
(g65
g51
NtRp381
(dp382
g54
(dp383
sg63
g251
sg56
(lp384
g49
(g70
g51
NtRp385
(dp386
g54
(dp387
g74
g75
ssg63
g381
sg56
(lp388
S'version'
p389
asbag49
(g70
g51
NtRp390
(dp391
g54
(dp392
g81
g82
ssg63
g381
sg56
(lp393
S':'
asbag49
(g70
g51
NtRp394
(dp395
g54
(dp396
sg63
g381
sg56
(lp397
g49
(g50
g51
NtRp398
(dp399
g54
(dp400
g62
I3
ssg63
g394
sg56
(lp401
S''
asbasbasbasbasbasbasbag49
(g65
g51
NtRp402
(dp403
g54
(dp404
sg63
g226
sg56
(lp405
g49
(g70
g51
NtRp406
(dp407
g54
(dp408
g74
g75
ssg63
g402
sg56
(lp409
S'session_id_welcome'
p410
asbag49
(g70
g51
NtRp411
(dp412
g54
(dp413
g81
g82
ssg63
g402
sg56
(lp414
S':'
asbag49
(g70
g51
NtRp415
(dp416
g54
(dp417
sg63
g402
sg56
(lp418
g49
(g50
g51
NtRp419
(dp420
g54
(dp421
g62
I4
ssg63
g415
sg56
(lp422
g49
(g58
g51
NtRp423
(dp424
g54
(dp425
g62
I3
ssg63
Nsg56
(lp426
g49
(g65
g51
NtRp427
(dp428
g54
(dp429
sg63
g423
sg56
(lp430
g49
(g70
g51
NtRp431
(dp432
g54
(dp433
g74
g75
ssg63
g427
sg56
(lp434
g263
asbag49
(g70
g51
NtRp435
(dp436
g54
(dp437
g81
g82
ssg63
g427
sg56
(lp438
S':'
asbag49
(g70
g51
NtRp439
(dp440
g54
(dp441
sg63
g427
sg56
(lp442
g49
(g50
g51
NtRp443
(dp444
g54
(dp445
g62
I3
ssg63
g439
sg56
(lp446
S''
asbasbasbag49
(g65
g51
NtRp447
(dp448
g54
(dp449
sg63
g423
sg56
(lp450
g49
(g70
g51
NtRp451
(dp452
g54
(dp453
g74
g75
ssg63
g447
sg56
(lp454
g284
asbag49
(g70
g51
NtRp455
(dp456
g54
(dp457
g81
g82
ssg63
g447
sg56
(lp458
S':'
asbag49
(g70
g51
NtRp459
(dp460
g54
(dp461
sg63
g447
sg56
(lp462
g49
(g50
g51
NtRp463
(dp464
g54
(dp465
g62
I3
ssg63
g459
sg56
(lp466
S''
asbasbasbag49
(g65
g51
NtRp467
(dp468
g54
(dp469
sg63
g423
sg56
(lp470
g49
(g70
g51
NtRp471
(dp472
g54
(dp473
g74
g75
ssg63
g467
sg56
(lp474
g305
asbag49
(g70
g51
NtRp475
(dp476
g54
(dp477
g81
g82
ssg63
g467
sg56
(lp478
S':'
asbag49
(g70
g51
NtRp479
(dp480
g54
(dp481
sg63
g467
sg56
(lp482
g49
(g50
g51
NtRp483
(dp484
g54
(dp485
g62
I3
ssg63
g479
sg56
(lp486
S''
asbasbasbag49
(g65
g51
NtRp487
(dp488
g54
(dp489
sg63
g423
sg56
(lp490
g49
(g70
g51
NtRp491
(dp492
g54
(dp493
g74
g75
ssg63
g487
sg56
(lp494
g326
asbag49
(g70
g51
NtRp495
(dp496
g54
(dp497
g81
g82
ssg63
g487
sg56
(lp498
S':'
asbag49
(g70
g51
NtRp499
(dp500
g54
(dp501
sg63
g487
sg56
(lp502
g49
(g50
g51
NtRp503
(dp504
g54
(dp505
g62
I3
ssg63
g499
sg56
(lp506
S''
asbasbasbag49
(g65
g51
NtRp507
(dp508
g54
(dp509
sg63
g423
sg56
(lp510
g49
(g70
g51
NtRp511
(dp512
g54
(dp513
g74
g75
ssg63
g507
sg56
(lp514
g347
asbag49
(g70
g51
NtRp515
(dp516
g54
(dp517
g81
g82
ssg63
g507
sg56
(lp518
S':'
asbag49
(g70
g51
NtRp519
(dp520
g54
(dp521
sg63
g507
sg56
(lp522
g49
(g50
g51
NtRp523
(dp524
g54
(dp525
g62
I3
ssg63
g519
sg56
(lp526
S''
asbasbasbag49
(g65
g51
NtRp527
(dp528
g54
(dp529
sg63
g423
sg56
(lp530
g49
(g70
g51
NtRp531
(dp532
g54
(dp533
g74
g75
ssg63
g527
sg56
(lp534
g368
asbag49
(g70
g51
NtRp535
(dp536
g54
(dp537
g81
g82
ssg63
g527
sg56
(lp538
S':'
asbag49
(g70
g51
NtRp539
(dp540
g54
(dp541
sg63
g527
sg56
(lp542
g49
(g50
g51
NtRp543
(dp544
g54
(dp545
g62
I3
ssg63
g539
sg56
(lp546
S''
asbasbasbag49
(g65
g51
NtRp547
(dp548
g54
(dp549
sg63
g423
sg56
(lp550
g49
(g70
g51
NtRp551
(dp552
g54
(dp553
g74
g75
ssg63
g547
sg56
(lp554
g389
asbag49
(g70
g51
NtRp555
(dp556
g54
(dp557
g81
g82
ssg63
g547
sg56
(lp558
S':'
asbag49
(g70
g51
NtRp559
(dp560
g54
(dp561
sg63
g547
sg56
(lp562
g49
(g50
g51
NtRp563
(dp564
g54
(dp565
g62
I3
ssg63
g559
sg56
(lp566
S''
asbasbasbasbasbasbasbasbasbasbasbag49
(g65
g51
NtRp567
(dp568
g54
(dp569
sg63
g59
sg56
(lp570
g49
(g70
g51
NtRp571
(dp572
g54
(dp573
g74
g75
ssg63
g567
sg56
(lp574
S'env'
p575
asbag49
(g70
g51
NtRp576
(dp577
g54
(dp578
g81
g82
ssg63
g567
sg56
(lp579
S':'
asbag49
(g70
g51
NtRp580
(dp581
g54
(dp582
sg63
g567
sg56
(lp583
g49
(g50
g51
NtRp584
(dp585
g54
(dp586
g62
I5
ssg63
g580
sg56
(lp587
g49
(g58
g51
NtRp588
(dp589
g54
(dp590
g62
I4
ssg63
Nsg56
(lp591
g49
(g65
g51
NtRp592
(dp593
g54
(dp594
sg63
g588
sg56
(lp595
g49
(g70
g51
NtRp596
(dp597
g54
(dp598
g74
g75
ssg63
g592
sg56
(lp599
S'app_folders'
p600
asbag49
(g70
g51
NtRp601
(dp602
g54
(dp603
g81
g82
ssg63
g592
sg56
(lp604
S':'
asbag49
(g70
g51
NtRp605
(dp606
g54
(dp607
sg63
g592
sg56
(lp608
g49
(g50
g51
NtRp609
(dp610
g54
(dp611
g62
I4
ssg63
g605
sg56
(lp612
S"set(['C:\\\\web2py\\\\applications\\\\admin\\\\', 'C:\\\\web2py\\\\applications\\\\welcome\\\\', 'C:\\\\web2py\\\\applications\\\\unioeste_code\\\\'])"
p613
asbasbasbag49
(g65
g51
NtRp614
(dp615
g54
(dp616
sg63
g588
sg56
(lp617
g49
(g70
g51
NtRp618
(dp619
g54
(dp620
g74
g75
ssg63
g614
sg56
(lp621
S'applications_parent'
p622
asbag49
(g70
g51
NtRp623
(dp624
g54
(dp625
g81
g82
ssg63
g614
sg56
(lp626
S':'
asbag49
(g70
g51
NtRp627
(dp628
g54
(dp629
sg63
g614
sg56
(lp630
g49
(g50
g51
NtRp631
(dp632
g54
(dp633
g62
I4
ssg63
g627
sg56
(lp634
S'C:\\web2py'
p635
asbasbasbag49
(g65
g51
NtRp636
(dp637
g54
(dp638
sg63
g588
sg56
(lp639
g49
(g70
g51
NtRp640
(dp641
g54
(dp642
g74
g75
ssg63
g636
sg56
(lp643
S'cmd_args'
p644
asbag49
(g70
g51
NtRp645
(dp646
g54
(dp647
g81
g82
ssg63
g636
sg56
(lp648
S':'
asbag49
(g70
g51
NtRp649
(dp650
g54
(dp651
sg63
g636
sg56
(lp652
g49
(g50
g51
NtRp653
(dp654
g54
(dp655
g62
I4
ssg63
g649
sg56
(lp656
g49
(g58
g51
NtRp657
(dp658
g54
(dp659
g62
I3
ssg63
Nsg56
(lp660
sbasbasbasbag49
(g65
g51
NtRp661
(dp662
g54
(dp663
sg63
g588
sg56
(lp664
g49
(g70
g51
NtRp665
(dp666
g54
(dp667
g74
g75
ssg63
g661
sg56
(lp668
S'cmd_options'
p669
asbag49
(g70
g51
NtRp670
(dp671
g54
(dp672
g81
g82
ssg63
g661
sg56
(lp673
S':'
asbag49
(g70
g51
NtRp674
(dp675
g54
(dp676
sg63
g661
sg56
(lp677
g49
(g50
g51
NtRp678
(dp679
g54
(dp680
g62
I4
ssg63
g674
sg56
(lp681
S"<Values at 0x31dc300: {'verbose': False, 'ip': '127.0.0.1', 'shutdown_timeout': 5, 'taskbar': False, 'nocron': False, 'pid_filename': 'httpserver.pid', 'maxthreads': None, 'softcron': False, 'server_name': 'Pedro-PC', 'bpython': False, 'nogui': False, 'port': 8000, 'extcron': False, 'debuglevel': 30, 'test': None, 'folder': 'C:\\\\web2py', 'config': '', 'import_models': False, 'winservice': '', 'shell': None, 'run': '', 'log_filename': 'httpserver.log', 'args': [''], 'socket_timeout': 5, 'ssl_ca_certificate': None, 'scheduler': None, 'profiler_filename': None, 'ssl_private_key': '', 'password': '<ask>', 'request_queue_size': 5, 'ssl_certificate': '', 'cronjob': False, 'numthreads': None, 'quiet': False, 'interfaces': None, 'minthreads': None, 'timeout': 10, 'plain': False, 'nobanner': False}>"
p682
asbasbasbag49
(g65
g51
NtRp683
(dp684
g54
(dp685
sg63
g588
sg56
(lp686
g49
(g70
g51
NtRp687
(dp688
g54
(dp689
g74
g75
ssg63
g683
sg56
(lp690
S'db_sessions'
p691
asbag49
(g70
g51
NtRp692
(dp693
g54
(dp694
g81
g82
ssg63
g683
sg56
(lp695
S':'
asbag49
(g70
g51
NtRp696
(dp697
g54
(dp698
sg63
g683
sg56
(lp699
g49
(g50
g51
NtRp700
(dp701
g54
(dp702
g62
I4
ssg63
g696
sg56
(lp703
S'set([])'
p704
asbasbasbag49
(g65
g51
NtRp705
(dp706
g54
(dp707
sg63
g588
sg56
(lp708
g49
(g70
g51
NtRp709
(dp710
g54
(dp711
g74
g75
ssg63
g705
sg56
(lp712
S'debugging'
p713
asbag49
(g70
g51
NtRp714
(dp715
g54
(dp716
g81
g82
ssg63
g705
sg56
(lp717
S':'
asbag49
(g70
g51
NtRp718
(dp719
g54
(dp720
sg63
g705
sg56
(lp721
g49
(g50
g51
NtRp722
(dp723
g54
(dp724
g62
I4
ssg63
g718
sg56
(lp725
g92
asbasbasbag49
(g65
g51
NtRp726
(dp727
g54
(dp728
sg63
g588
sg56
(lp729
g49
(g70
g51
NtRp730
(dp731
g54
(dp732
g74
g75
ssg63
g726
sg56
(lp733
S'gluon_parent'
p734
asbag49
(g70
g51
NtRp735
(dp736
g54
(dp737
g81
g82
ssg63
g726
sg56
(lp738
S':'
asbag49
(g70
g51
NtRp739
(dp740
g54
(dp741
sg63
g726
sg56
(lp742
g49
(g50
g51
NtRp743
(dp744
g54
(dp745
g62
I4
ssg63
g739
sg56
(lp746
S'C:\\web2py'
p747
asbasbasbag49
(g65
g51
NtRp748
(dp749
g54
(dp750
sg63
g588
sg56
(lp751
g49
(g70
g51
NtRp752
(dp753
g54
(dp754
g74
g75
ssg63
g748
sg56
(lp755
S'http_accept'
p756
asbag49
(g70
g51
NtRp757
(dp758
g54
(dp759
g81
g82
ssg63
g748
sg56
(lp760
S':'
asbag49
(g70
g51
NtRp761
(dp762
g54
(dp763
sg63
g748
sg56
(lp764
g49
(g50
g51
NtRp765
(dp766
g54
(dp767
g62
I4
ssg63
g761
sg56
(lp768
S'text/html,application/xhtml+xml,application/xml;q=0.9,*/*;q=0.8'
p769
asbasbasbag49
(g65
g51
NtRp770
(dp771
g54
(dp772
sg63
g588
sg56
(lp773
g49
(g70
g51
NtRp774
(dp775
g54
(dp776
g74
g75
ssg63
g770
sg56
(lp777
S'http_accept_charset'
p778
asbag49
(g70
g51
NtRp779
(dp780
g54
(dp781
g81
g82
ssg63
g770
sg56
(lp782
S':'
asbag49
(g70
g51
NtRp783
(dp784
g54
(dp785
sg63
g770
sg56
(lp786
g49
(g50
g51
NtRp787
(dp788
g54
(dp789
g62
I4
ssg63
g783
sg56
(lp790
S'ISO-8859-1,utf-8;q=0.7,*;q=0.3'
p791
asbasbasbag49
(g65
g51
NtRp792
(dp793
g54
(dp794
sg63
g588
sg56
(lp795
g49
(g70
g51
NtRp796
(dp797
g54
(dp798
g74
g75
ssg63
g792
sg56
(lp799
S'http_accept_encoding'
p800
asbag49
(g70
g51
NtRp801
(dp802
g54
(dp803
g81
g82
ssg63
g792
sg56
(lp804
S':'
asbag49
(g70
g51
NtRp805
(dp806
g54
(dp807
sg63
g792
sg56
(lp808
g49
(g50
g51
NtRp809
(dp810
g54
(dp811
g62
I4
ssg63
g805
sg56
(lp812
S'gzip,deflate,sdch'
p813
asbasbasbag49
(g65
g51
NtRp814
(dp815
g54
(dp816
sg63
g588
sg56
(lp817
g49
(g70
g51
NtRp818
(dp819
g54
(dp820
g74
g75
ssg63
g814
sg56
(lp821
S'http_accept_language'
p822
asbag49
(g70
g51
NtRp823
(dp824
g54
(dp825
g81
g82
ssg63
g814
sg56
(lp826
S':'
asbag49
(g70
g51
NtRp827
(dp828
g54
(dp829
sg63
g814
sg56
(lp830
g49
(g50
g51
NtRp831
(dp832
g54
(dp833
g62
I4
ssg63
g827
sg56
(lp834
S'pt-BR,pt;q=0.8,en-US;q=0.6,en;q=0.4'
p835
asbasbasbag49
(g65
g51
NtRp836
(dp837
g54
(dp838
sg63
g588
sg56
(lp839
g49
(g70
g51
NtRp840
(dp841
g54
(dp842
g74
g75
ssg63
g836
sg56
(lp843
S'http_connection'
p844
asbag49
(g70
g51
NtRp845
(dp846
g54
(dp847
g81
g82
ssg63
g836
sg56
(lp848
S':'
asbag49
(g70
g51
NtRp849
(dp850
g54
(dp851
sg63
g836
sg56
(lp852
g49
(g50
g51
NtRp853
(dp854
g54
(dp855
g62
I4
ssg63
g849
sg56
(lp856
S'keep-alive'
p857
asbasbasbag49
(g65
g51
NtRp858
(dp859
g54
(dp860
sg63
g588
sg56
(lp861
g49
(g70
g51
NtRp862
(dp863
g54
(dp864
g74
g75
ssg63
g858
sg56
(lp865
S'http_cookie'
p866
asbag49
(g70
g51
NtRp867
(dp868
g54
(dp869
g81
g82
ssg63
g858
sg56
(lp870
S':'
asbag49
(g70
g51
NtRp871
(dp872
g54
(dp873
sg63
g858
sg56
(lp874
g49
(g50
g51
NtRp875
(dp876
g54
(dp877
g62
I4
ssg63
g871
sg56
(lp878
S'session_id_admin=127.0.0.1-b030b836-135a-4bad-8831-8a062289d8a4; session_id_welcome=127.0.0.1-76f3c1b1-2d56-4011-a35f-e7072ae8a814'
p879
asbasbasbag49
(g65
g51
NtRp880
(dp881
g54
(dp882
sg63
g588
sg56
(lp883
g49
(g70
g51
NtRp884
(dp885
g54
(dp886
g74
g75
ssg63
g880
sg56
(lp887
S'http_dnt'
p888
asbag49
(g70
g51
NtRp889
(dp890
g54
(dp891
g81
g82
ssg63
g880
sg56
(lp892
S':'
asbag49
(g70
g51
NtRp893
(dp894
g54
(dp895
sg63
g880
sg56
(lp896
g49
(g50
g51
NtRp897
(dp898
g54
(dp899
g62
I4
ssg63
g893
sg56
(lp900
S'1'
asbasbasbag49
(g65
g51
NtRp901
(dp902
g54
(dp903
sg63
g588
sg56
(lp904
g49
(g70
g51
NtRp905
(dp906
g54
(dp907
g74
g75
ssg63
g901
sg56
(lp908
S'http_host'
p909
asbag49
(g70
g51
NtRp910
(dp911
g54
(dp912
g81
g82
ssg63
g901
sg56
(lp913
S':'
asbag49
(g70
g51
NtRp914
(dp915
g54
(dp916
sg63
g901
sg56
(lp917
g49
(g50
g51
NtRp918
(dp919
g54
(dp920
g62
I4
ssg63
g914
sg56
(lp921
S'127.0.0.1:8000'
p922
asbasbasbag49
(g65
g51
NtRp923
(dp924
g54
(dp925
sg63
g588
sg56
(lp926
g49
(g70
g51
NtRp927
(dp928
g54
(dp929
g74
g75
ssg63
g923
sg56
(lp930
S'http_user_agent'
p931
asbag49
(g70
g51
NtRp932
(dp933
g54
(dp934
g81
g82
ssg63
g923
sg56
(lp935
S':'
asbag49
(g70
g51
NtRp936
(dp937
g54
(dp938
sg63
g923
sg56
(lp939
g49
(g50
g51
NtRp940
(dp941
g54
(dp942
g62
I4
ssg63
g936
sg56
(lp943
S'Mozilla/5.0 (Windows NT 6.1; WOW64) AppleWebKit/536.11 (KHTML, like Gecko) Chrome/20.0.1132.57 Safari/536.11'
p944
asbasbasbag49
(g65
g51
NtRp945
(dp946
g54
(dp947
sg63
g588
sg56
(lp948
g49
(g70
g51
NtRp949
(dp950
g54
(dp951
g74
g75
ssg63
g945
sg56
(lp952
S'is_jython'
p953
asbag49
(g70
g51
NtRp954
(dp955
g54
(dp956
g81
g82
ssg63
g945
sg56
(lp957
S':'
asbag49
(g70
g51
NtRp958
(dp959
g54
(dp960
sg63
g945
sg56
(lp961
g49
(g50
g51
NtRp962
(dp963
g54
(dp964
g62
I4
ssg63
g958
sg56
(lp965
g92
asbasbasbag49
(g65
g51
NtRp966
(dp967
g54
(dp968
sg63
g588
sg56
(lp969
g49
(g70
g51
NtRp970
(dp971
g54
(dp972
g74
g75
ssg63
g966
sg56
(lp973
S'is_pypy'
p974
asbag49
(g70
g51
NtRp975
(dp976
g54
(dp977
g81
g82
ssg63
g966
sg56
(lp978
S':'
asbag49
(g70
g51
NtRp979
(dp980
g54
(dp981
sg63
g966
sg56
(lp982
g49
(g50
g51
NtRp983
(dp984
g54
(dp985
g62
I4
ssg63
g979
sg56
(lp986
g92
asbasbasbag49
(g65
g51
NtRp987
(dp988
g54
(dp989
sg63
g588
sg56
(lp990
g49
(g70
g51
NtRp991
(dp992
g54
(dp993
g74
g75
ssg63
g987
sg56
(lp994
S'path_info'
p995
asbag49
(g70
g51
NtRp996
(dp997
g54
(dp998
g81
g82
ssg63
g987
sg56
(lp999
S':'
asbag49
(g70
g51
NtRp1000
(dp1001
g54
(dp1002
sg63
g987
sg56
(lp1003
g49
(g50
g51
NtRp1004
(dp1005
g54
(dp1006
g62
I4
ssg63
g1000
sg56
(lp1007
S'/unioeste_code/'
p1008
asbasbasbag49
(g65
g51
NtRp1009
(dp1010
g54
(dp1011
sg63
g588
sg56
(lp1012
g49
(g70
g51
NtRp1013
(dp1014
g54
(dp1015
g74
g75
ssg63
g1009
sg56
(lp1016
S'query_string'
p1017
asbag49
(g70
g51
NtRp1018
(dp1019
g54
(dp1020
g81
g82
ssg63
g1009
sg56
(lp1021
S':'
asbag49
(g70
g51
NtRp1022
(dp1023
g54
(dp1024
sg63
g1009
sg56
(lp1025
g49
(g50
g51
NtRp1026
(dp1027
g54
(dp1028
g62
I4
ssg63
g1022
sg56
(lp1029
S''
asbasbasbag49
(g65
g51
NtRp1030
(dp1031
g54
(dp1032
sg63
g588
sg56
(lp1033
g49
(g70
g51
NtRp1034
(dp1035
g54
(dp1036
g74
g75
ssg63
g1030
sg56
(lp1037
S'remote_addr'
p1038
asbag49
(g70
g51
NtRp1039
(dp1040
g54
(dp1041
g81
g82
ssg63
g1030
sg56
(lp1042
S':'
asbag49
(g70
g51
NtRp1043
(dp1044
g54
(dp1045
sg63
g1030
sg56
(lp1046
g49
(g50
g51
NtRp1047
(dp1048
g54
(dp1049
g62
I4
ssg63
g1043
sg56
(lp1050
g182
asbasbasbag49
(g65
g51
NtRp1051
(dp1052
g54
(dp1053
sg63
g588
sg56
(lp1054
g49
(g70
g51
NtRp1055
(dp1056
g54
(dp1057
g74
g75
ssg63
g1051
sg56
(lp1058
S'remote_port'
p1059
asbag49
(g70
g51
NtRp1060
(dp1061
g54
(dp1062
g81
g82
ssg63
g1051
sg56
(lp1063
S':'
asbag49
(g70
g51
NtRp1064
(dp1065
g54
(dp1066
sg63
g1051
sg56
(lp1067
g49
(g50
g51
NtRp1068
(dp1069
g54
(dp1070
g62
I4
ssg63
g1064
sg56
(lp1071
S'2085'
p1072
asbasbasbag49
(g65
g51
NtRp1073
(dp1074
g54
(dp1075
sg63
g588
sg56
(lp1076
g49
(g70
g51
NtRp1077
(dp1078
g54
(dp1079
g74
g75
ssg63
g1073
sg56
(lp1080
S'request_method'
p1081
asbag49
(g70
g51
NtRp1082
(dp1083
g54
(dp1084
g81
g82
ssg63
g1073
sg56
(lp1085
S':'
asbag49
(g70
g51
NtRp1086
(dp1087
g54
(dp1088
sg63
g1073
sg56
(lp1089
g49
(g50
g51
NtRp1090
(dp1091
g54
(dp1092
g62
I4
ssg63
g1086
sg56
(lp1093
S'GET'
p1094
asbasbasbag49
(g65
g51
NtRp1095
(dp1096
g54
(dp1097
sg63
g588
sg56
(lp1098
g49
(g70
g51
NtRp1099
(dp1100
g54
(dp1101
g74
g75
ssg63
g1095
sg56
(lp1102
S'script_name'
p1103
asbag49
(g70
g51
NtRp1104
(dp1105
g54
(dp1106
g81
g82
ssg63
g1095
sg56
(lp1107
S':'
asbag49
(g70
g51
NtRp1108
(dp1109
g54
(dp1110
sg63
g1095
sg56
(lp1111
g49
(g50
g51
NtRp1112
(dp1113
g54
(dp1114
g62
I4
ssg63
g1108
sg56
(lp1115
S''
asbasbasbag49
(g65
g51
NtRp1116
(dp1117
g54
(dp1118
sg63
g588
sg56
(lp1119
g49
(g70
g51
NtRp1120
(dp1121
g54
(dp1122
g74
g75
ssg63
g1116
sg56
(lp1123
S'server_name'
p1124
asbag49
(g70
g51
NtRp1125
(dp1126
g54
(dp1127
g81
g82
ssg63
g1116
sg56
(lp1128
S':'
asbag49
(g70
g51
NtRp1129
(dp1130
g54
(dp1131
sg63
g1116
sg56
(lp1132
g49
(g50
g51
NtRp1133
(dp1134
g54
(dp1135
g62
I4
ssg63
g1129
sg56
(lp1136
S'Pedro-PC'
p1137
asbasbasbag49
(g65
g51
NtRp1138
(dp1139
g54
(dp1140
sg63
g588
sg56
(lp1141
g49
(g70
g51
NtRp1142
(dp1143
g54
(dp1144
g74
g75
ssg63
g1138
sg56
(lp1145
S'server_port'
p1146
asbag49
(g70
g51
NtRp1147
(dp1148
g54
(dp1149
g81
g82
ssg63
g1138
sg56
(lp1150
S':'
asbag49
(g70
g51
NtRp1151
(dp1152
g54
(dp1153
sg63
g1138
sg56
(lp1154
g49
(g50
g51
NtRp1155
(dp1156
g54
(dp1157
g62
I4
ssg63
g1151
sg56
(lp1158
S'8000'
p1159
asbasbasbag49
(g65
g51
NtRp1160
(dp1161
g54
(dp1162
sg63
g588
sg56
(lp1163
g49
(g70
g51
NtRp1164
(dp1165
g54
(dp1166
g74
g75
ssg63
g1160
sg56
(lp1167
S'server_protocol'
p1168
asbag49
(g70
g51
NtRp1169
(dp1170
g54
(dp1171
g81
g82
ssg63
g1160
sg56
(lp1172
S':'
asbag49
(g70
g51
NtRp1173
(dp1174
g54
(dp1175
sg63
g1160
sg56
(lp1176
g49
(g50
g51
NtRp1177
(dp1178
g54
(dp1179
g62
I4
ssg63
g1173
sg56
(lp1180
S'HTTP/1.1'
p1181
asbasbasbag49
(g65
g51
NtRp1182
(dp1183
g54
(dp1184
sg63
g588
sg56
(lp1185
g49
(g70
g51
NtRp1186
(dp1187
g54
(dp1188
g74
g75
ssg63
g1182
sg56
(lp1189
S'server_software'
p1190
asbag49
(g70
g51
NtRp1191
(dp1192
g54
(dp1193
g81
g82
ssg63
g1182
sg56
(lp1194
S':'
asbag49
(g70
g51
NtRp1195
(dp1196
g54
(dp1197
sg63
g1182
sg56
(lp1198
g49
(g50
g51
NtRp1199
(dp1200
g54
(dp1201
g62
I4
ssg63
g1195
sg56
(lp1202
S'Rocket 1.2.4'
p1203
asbasbasbag49
(g65
g51
NtRp1204
(dp1205
g54
(dp1206
sg63
g588
sg56
(lp1207
g49
(g70
g51
NtRp1208
(dp1209
g54
(dp1210
g74
g75
ssg63
g1204
sg56
(lp1211
S'web2py_crontype'
p1212
asbag49
(g70
g51
NtRp1213
(dp1214
g54
(dp1215
g81
g82
ssg63
g1204
sg56
(lp1216
S':'
asbag49
(g70
g51
NtRp1217
(dp1218
g54
(dp1219
sg63
g1204
sg56
(lp1220
g49
(g50
g51
NtRp1221
(dp1222
g54
(dp1223
g62
I4
ssg63
g1217
sg56
(lp1224
S'hard'
p1225
asbasbasbag49
(g65
g51
NtRp1226
(dp1227
g54
(dp1228
sg63
g588
sg56
(lp1229
g49
(g70
g51
NtRp1230
(dp1231
g54
(dp1232
g74
g75
ssg63
g1226
sg56
(lp1233
S'web2py_path'
p1234
asbag49
(g70
g51
NtRp1235
(dp1236
g54
(dp1237
g81
g82
ssg63
g1226
sg56
(lp1238
S':'
asbag49
(g70
g51
NtRp1239
(dp1240
g54
(dp1241
sg63
g1226
sg56
(lp1242
g49
(g50
g51
NtRp1243
(dp1244
g54
(dp1245
g62
I4
ssg63
g1239
sg56
(lp1246
g635
asbasbasbag49
(g65
g51
NtRp1247
(dp1248
g54
(dp1249
sg63
g588
sg56
(lp1250
g49
(g70
g51
NtRp1251
(dp1252
g54
(dp1253
g74
g75
ssg63
g1247
sg56
(lp1254
S'web2py_version'
p1255
asbag49
(g70
g51
NtRp1256
(dp1257
g54
(dp1258
g81
g82
ssg63
g1247
sg56
(lp1259
S':'
asbag49
(g70
g51
NtRp1260
(dp1261
g54
(dp1262
sg63
g1247
sg56
(lp1263
g49
(g50
g51
NtRp1264
(dp1265
g54
(dp1266
g62
I4
ssg63
g1260
sg56
(lp1267
g49
(g58
g51
NtRp1268
(dp1269
g54
(dp1270
g62
I3
ssg63
Nsg56
(lp1271
g49
(g65
g51
NtRp1272
(dp1273
g54
(dp1274
sg63
g1268
sg56
(lp1275
g49
(g70
g51
NtRp1276
(dp1277
g54
(dp1278
sg63
g1272
sg56
(lp1279
g49
(g50
g51
NtRp1280
(dp1281
g54
(dp1282
g62
I3
ssg63
g1276
sg56
(lp1283
S'1'
asbasbasbag49
(g65
g51
NtRp1284
(dp1285
g54
(dp1286
sg63
g1268
sg56
(lp1287
g49
(g70
g51
NtRp1288
(dp1289
g54
(dp1290
sg63
g1284
sg56
(lp1291
g49
(g50
g51
NtRp1292
(dp1293
g54
(dp1294
g62
I3
ssg63
g1288
sg56
(lp1295
S'99'
p1296
asbasbasbag49
(g65
g51
NtRp1297
(dp1298
g54
(dp1299
sg63
g1268
sg56
(lp1300
g49
(g70
g51
NtRp1301
(dp1302
g54
(dp1303
sg63
g1297
sg56
(lp1304
g49
(g50
g51
NtRp1305
(dp1306
g54
(dp1307
g62
I3
ssg63
g1301
sg56
(lp1308
S'7'
asbasbasbag49
(g65
g51
NtRp1309
(dp1310
g54
(dp1311
sg63
g1268
sg56
(lp1312
g49
(g70
g51
NtRp1313
(dp1314
g54
(dp1315
sg63
g1309
sg56
(lp1316
g49
(g50
g51
NtRp1317
(dp1318
g54
(dp1319
g62
I3
ssg63
g1313
sg56
(lp1320
S'datetime.datetime(2012, 3, 4, 22, 12, 8)'
p1321
asbasbasbag49
(g65
g51
NtRp1322
(dp1323
g54
(dp1324
sg63
g1268
sg56
(lp1325
g49
(g70
g51
NtRp1326
(dp1327
g54
(dp1328
sg63
g1322
sg56
(lp1329
g49
(g50
g51
NtRp1330
(dp1331
g54
(dp1332
g62
I3
ssg63
g1326
sg56
(lp1333
S'stable'
p1334
asbasbasbasbasbasbasbag49
(g65
g51
NtRp1335
(dp1336
g54
(dp1337
sg63
g588
sg56
(lp1338
g49
(g70
g51
NtRp1339
(dp1340
g54
(dp1341
g74
g75
ssg63
g1335
sg56
(lp1342
S'wsgi_errors'
p1343
asbag49
(g70
g51
NtRp1344
(dp1345
g54
(dp1346
g81
g82
ssg63
g1335
sg56
(lp1347
S':'
asbag49
(g70
g51
NtRp1348
(dp1349
g54
(dp1350
sg63
g1335
sg56
(lp1351
g49
(g50
g51
NtRp1352
(dp1353
g54
(dp1354
g62
I4
ssg63
g1348
sg56
(lp1355
S'<__main__.Stderr object at 0x00356670>'
p1356
asbasbasbag49
(g65
g51
NtRp1357
(dp1358
g54
(dp1359
sg63
g588
sg56
(lp1360
g49
(g70
g51
NtRp1361
(dp1362
g54
(dp1363
g74
g75
ssg63
g1357
sg56
(lp1364
S'wsgi_file_wrapper'
p1365
asbag49
(g70
g51
NtRp1366
(dp1367
g54
(dp1368
g81
g82
ssg63
g1357
sg56
(lp1369
S':'
asbag49
(g70
g51
NtRp1370
(dp1371
g54
(dp1372
sg63
g1357
sg56
(lp1373
g49
(g50
g51
NtRp1374
(dp1375
g54
(dp1376
g62
I4
ssg63
g1370
sg56
(lp1377
S'<class wsgiref.util.FileWrapper at 0x02FCDE10>'
p1378
asbasbasbag49
(g65
g51
NtRp1379
(dp1380
g54
(dp1381
sg63
g588
sg56
(lp1382
g49
(g70
g51
NtRp1383
(dp1384
g54
(dp1385
g74
g75
ssg63
g1379
sg56
(lp1386
S'wsgi_input'
p1387
asbag49
(g70
g51
NtRp1388
(dp1389
g54
(dp1390
g81
g82
ssg63
g1379
sg56
(lp1391
S':'
asbag49
(g70
g51
NtRp1392
(dp1393
g54
(dp1394
sg63
g1379
sg56
(lp1395
g49
(g50
g51
NtRp1396
(dp1397
g54
(dp1398
g62
I4
ssg63
g1392
sg56
(lp1399
S'<socket._fileobject object at 0x066303F0>'
p1400
asbasbasbag49
(g65
g51
NtRp1401
(dp1402
g54
(dp1403
sg63
g588
sg56
(lp1404
g49
(g70
g51
NtRp1405
(dp1406
g54
(dp1407
g74
g75
ssg63
g1401
sg56
(lp1408
S'wsgi_multiprocess'
p1409
asbag49
(g70
g51
NtRp1410
(dp1411
g54
(dp1412
g81
g82
ssg63
g1401
sg56
(lp1413
S':'
asbag49
(g70
g51
NtRp1414
(dp1415
g54
(dp1416
sg63
g1401
sg56
(lp1417
g49
(g50
g51
NtRp1418
(dp1419
g54
(dp1420
g62
I4
ssg63
g1414
sg56
(lp1421
g92
asbasbasbag49
(g65
g51
NtRp1422
(dp1423
g54
(dp1424
sg63
g588
sg56
(lp1425
g49
(g70
g51
NtRp1426
(dp1427
g54
(dp1428
g74
g75
ssg63
g1422
sg56
(lp1429
S'wsgi_multithread'
p1430
asbag49
(g70
g51
NtRp1431
(dp1432
g54
(dp1433
g81
g82
ssg63
g1422
sg56
(lp1434
S':'
asbag49
(g70
g51
NtRp1435
(dp1436
g54
(dp1437
sg63
g1422
sg56
(lp1438
g49
(g50
g51
NtRp1439
(dp1440
g54
(dp1441
g62
I4
ssg63
g1435
sg56
(lp1442
S'True'
p1443
asbasbasbag49
(g65
g51
NtRp1444
(dp1445
g54
(dp1446
sg63
g588
sg56
(lp1447
g49
(g70
g51
NtRp1448
(dp1449
g54
(dp1450
g74
g75
ssg63
g1444
sg56
(lp1451
S'wsgi_run_once'
p1452
asbag49
(g70
g51
NtRp1453
(dp1454
g54
(dp1455
g81
g82
ssg63
g1444
sg56
(lp1456
S':'
asbag49
(g70
g51
NtRp1457
(dp1458
g54
(dp1459
sg63
g1444
sg56
(lp1460
g49
(g50
g51
NtRp1461
(dp1462
g54
(dp1463
g62
I4
ssg63
g1457
sg56
(lp1464
g92
asbasbasbag49
(g65
g51
NtRp1465
(dp1466
g54
(dp1467
sg63
g588
sg56
(lp1468
g49
(g70
g51
NtRp1469
(dp1470
g54
(dp1471
g74
g75
ssg63
g1465
sg56
(lp1472
S'wsgi_url_scheme'
p1473
asbag49
(g70
g51
NtRp1474
(dp1475
g54
(dp1476
g81
g82
ssg63
g1465
sg56
(lp1477
S':'
asbag49
(g70
g51
NtRp1478
(dp1479
g54
(dp1480
sg63
g1465
sg56
(lp1481
g49
(g50
g51
NtRp1482
(dp1483
g54
(dp1484
g62
I4
ssg63
g1478
sg56
(lp1485
S'http'
p1486
asbasbasbag49
(g65
g51
NtRp1487
(dp1488
g54
(dp1489
sg63
g588
sg56
(lp1490
g49
(g70
g51
NtRp1491
(dp1492
g54
(dp1493
g74
g75
ssg63
g1487
sg56
(lp1494
S'wsgi_version'
p1495
asbag49
(g70
g51
NtRp1496
(dp1497
g54
(dp1498
g81
g82
ssg63
g1487
sg56
(lp1499
S':'
asbag49
(g70
g51
NtRp1500
(dp1501
g54
(dp1502
sg63
g1487
sg56
(lp1503
g49
(g50
g51
NtRp1504
(dp1505
g54
(dp1506
g62
I4
ssg63
g1500
sg56
(lp1507
g49
(g58
g51
NtRp1508
(dp1509
g54
(dp1510
g62
I3
ssg63
Nsg56
(lp1511
g49
(g65
g51
NtRp1512
(dp1513
g54
(dp1514
sg63
g1508
sg56
(lp1515
g49
(g70
g51
NtRp1516
(dp1517
g54
(dp1518
sg63
g1512
sg56
(lp1519
g49
(g50
g51
NtRp1520
(dp1521
g54
(dp1522
g62
I3
ssg63
g1516
sg56
(lp1523
S'1'
asbasbasbag49
(g65
g51
NtRp1524
(dp1525
g54
(dp1526
sg63
g1508
sg56
(lp1527
g49
(g70
g51
NtRp1528
(dp1529
g54
(dp1530
sg63
g1524
sg56
(lp1531
g49
(g50
g51
NtRp1532
(dp1533
g54
(dp1534
g62
I3
ssg63
g1528
sg56
(lp1535
S'0'
asbasbasbasbasbasbasbasbasbasbasbag49
(g65
g51
NtRp1536
(dp1537
g54
(dp1538
sg63
g59
sg56
(lp1539
g49
(g70
g51
NtRp1540
(dp1541
g54
(dp1542
g74
g75
ssg63
g1536
sg56
(lp1543
S'extension'
p1544
asbag49
(g70
g51
NtRp1545
(dp1546
g54
(dp1547
g81
g82
ssg63
g1536
sg56
(lp1548
S':'
asbag49
(g70
g51
NtRp1549
(dp1550
g54
(dp1551
sg63
g1536
sg56
(lp1552
g49
(g50
g51
NtRp1553
(dp1554
g54
(dp1555
g62
I5
ssg63
g1549
sg56
(lp1556
S'html'
p1557
asbasbasbag49
(g65
g51
NtRp1558
(dp1559
g54
(dp1560
sg63
g59
sg56
(lp1561
g49
(g70
g51
NtRp1562
(dp1563
g54
(dp1564
g74
g75
ssg63
g1558
sg56
(lp1565
S'folder'
p1566
asbag49
(g70
g51
NtRp1567
(dp1568
g54
(dp1569
g81
g82
ssg63
g1558
sg56
(lp1570
S':'
asbag49
(g70
g51
NtRp1571
(dp1572
g54
(dp1573
sg63
g1558
sg56
(lp1574
g49
(g50
g51
NtRp1575
(dp1576
g54
(dp1577
g62
I5
ssg63
g1571
sg56
(lp1578
S'C:\\web2py\\applications\\unioeste_code\\'
p1579
asbasbasbag49
(g65
g51
NtRp1580
(dp1581
g54
(dp1582
sg63
g59
sg56
(lp1583
g49
(g70
g51
NtRp1584
(dp1585
g54
(dp1586
g74
g75
ssg63
g1580
sg56
(lp1587
S'function'
p1588
asbag49
(g70
g51
NtRp1589
(dp1590
g54
(dp1591
g81
g82
ssg63
g1580
sg56
(lp1592
S':'
asbag49
(g70
g51
NtRp1593
(dp1594
g54
(dp1595
sg63
g1580
sg56
(lp1596
g49
(g50
g51
NtRp1597
(dp1598
g54
(dp1599
g62
I5
ssg63
g1593
sg56
(lp1600
S'index'
p1601
asbasbasbag49
(g65
g51
NtRp1602
(dp1603
g54
(dp1604
sg63
g59
sg56
(lp1605
g49
(g70
g51
NtRp1606
(dp1607
g54
(dp1608
g74
g75
ssg63
g1602
sg56
(lp1609
S'get_vars'
p1610
asbag49
(g70
g51
NtRp1611
(dp1612
g54
(dp1613
g81
g82
ssg63
g1602
sg56
(lp1614
S':'
asbag49
(g70
g51
NtRp1615
(dp1616
g54
(dp1617
sg63
g1602
sg56
(lp1618
g49
(g50
g51
NtRp1619
(dp1620
g54
(dp1621
g62
I5
ssg63
g1615
sg56
(lp1622
g49
(g58
g51
NtRp1623
(dp1624
g54
(dp1625
g62
I4
ssg63
Nsg56
(lp1626
sbasbasbasbag49
(g65
g51
NtRp1627
(dp1628
g54
(dp1629
sg63
g59
sg56
(lp1630
g49
(g70
g51
NtRp1631
(dp1632
g54
(dp1633
g74
g75
ssg63
g1627
sg56
(lp1634
S'global_settings'
p1635
asbag49
(g70
g51
NtRp1636
(dp1637
g54
(dp1638
g81
g82
ssg63
g1627
sg56
(lp1639
S':'
asbag49
(g70
g51
NtRp1640
(dp1641
g54
(dp1642
sg63
g1627
sg56
(lp1643
g49
(g50
g51
NtRp1644
(dp1645
g54
(dp1646
g62
I5
ssg63
g1640
sg56
(lp1647
g49
(g58
g51
NtRp1648
(dp1649
g54
(dp1650
g62
I4
ssg63
Nsg56
(lp1651
g49
(g65
g51
NtRp1652
(dp1653
g54
(dp1654
sg63
g1648
sg56
(lp1655
g49
(g70
g51
NtRp1656
(dp1657
g54
(dp1658
g74
g75
ssg63
g1652
sg56
(lp1659
g600
asbag49
(g70
g51
NtRp1660
(dp1661
g54
(dp1662
g81
g82
ssg63
g1652
sg56
(lp1663
S':'
asbag49
(g70
g51
NtRp1664
(dp1665
g54
(dp1666
sg63
g1652
sg56
(lp1667
g49
(g50
g51
NtRp1668
(dp1669
g54
(dp1670
g62
I4
ssg63
g1664
sg56
(lp1671
S"set(['C:\\\\web2py\\\\applications\\\\admin\\\\', 'C:\\\\web2py\\\\applications\\\\welcome\\\\', 'C:\\\\web2py\\\\applications\\\\unioeste_code\\\\'])"
p1672
asbasbasbag49
(g65
g51
NtRp1673
(dp1674
g54
(dp1675
sg63
g1648
sg56
(lp1676
g49
(g70
g51
NtRp1677
(dp1678
g54
(dp1679
g74
g75
ssg63
g1673
sg56
(lp1680
g622
asbag49
(g70
g51
NtRp1681
(dp1682
g54
(dp1683
g81
g82
ssg63
g1673
sg56
(lp1684
S':'
asbag49
(g70
g51
NtRp1685
(dp1686
g54
(dp1687
sg63
g1673
sg56
(lp1688
g49
(g50
g51
NtRp1689
(dp1690
g54
(dp1691
g62
I4
ssg63
g1685
sg56
(lp1692
g635
asbasbasbag49
(g65
g51
NtRp1693
(dp1694
g54
(dp1695
sg63
g1648
sg56
(lp1696
g49
(g70
g51
NtRp1697
(dp1698
g54
(dp1699
g74
g75
ssg63
g1693
sg56
(lp1700
g644
asbag49
(g70
g51
NtRp1701
(dp1702
g54
(dp1703
g81
g82
ssg63
g1693
sg56
(lp1704
S':'
asbag49
(g70
g51
NtRp1705
(dp1706
g54
(dp1707
sg63
g1693
sg56
(lp1708
g49
(g50
g51
NtRp1709
(dp1710
g54
(dp1711
g62
I4
ssg63
g1705
sg56
(lp1712
g49
(g58
g51
NtRp1713
(dp1714
g54
(dp1715
g62
I3
ssg63
Nsg56
(lp1716
sbasbasbasbag49
(g65
g51
NtRp1717
(dp1718
g54
(dp1719
sg63
g1648
sg56
(lp1720
g49
(g70
g51
NtRp1721
(dp1722
g54
(dp1723
g74
g75
ssg63
g1717
sg56
(lp1724
g669
asbag49
(g70
g51
NtRp1725
(dp1726
g54
(dp1727
g81
g82
ssg63
g1717
sg56
(lp1728
S':'
asbag49
(g70
g51
NtRp1729
(dp1730
g54
(dp1731
sg63
g1717
sg56
(lp1732
g49
(g50
g51
NtRp1733
(dp1734
g54
(dp1735
g62
I4
ssg63
g1729
sg56
(lp1736
S"<Values at 0x31dc300: {'verbose': False, 'ip': '127.0.0.1', 'shutdown_timeout': 5, 'taskbar': False, 'nocron': False, 'pid_filename': 'httpserver.pid', 'maxthreads': None, 'softcron': False, 'server_name': 'Pedro-PC', 'bpython': False, 'nogui': False, 'port': 8000, 'extcron': False, 'debuglevel': 30, 'test': None, 'folder': 'C:\\\\web2py', 'config': '', 'import_models': False, 'winservice': '', 'shell': None, 'run': '', 'log_filename': 'httpserver.log', 'args': [''], 'socket_timeout': 5, 'ssl_ca_certificate': None, 'scheduler': None, 'profiler_filename': None, 'ssl_private_key': '', 'password': '<ask>', 'request_queue_size': 5, 'ssl_certificate': '', 'cronjob': False, 'numthreads': None, 'quiet': False, 'interfaces': None, 'minthreads': None, 'timeout': 10, 'plain': False, 'nobanner': False}>"
p1737
asbasbasbag49
(g65
g51
NtRp1738
(dp1739
g54
(dp1740
sg63
g1648
sg56
(lp1741
g49
(g70
g51
NtRp1742
(dp1743
g54
(dp1744
g74
g75
ssg63
g1738
sg56
(lp1745
g691
asbag49
(g70
g51
NtRp1746
(dp1747
g54
(dp1748
g81
g82
ssg63
g1738
sg56
(lp1749
S':'
asbag49
(g70
g51
NtRp1750
(dp1751
g54
(dp1752
sg63
g1738
sg56
(lp1753
g49
(g50
g51
NtRp1754
(dp1755
g54
(dp1756
g62
I4
ssg63
g1750
sg56
(lp1757
S'set([])'
p1758
asbasbasbag49
(g65
g51
NtRp1759
(dp1760
g54
(dp1761
sg63
g1648
sg56
(lp1762
g49
(g70
g51
NtRp1763
(dp1764
g54
(dp1765
g74
g75
ssg63
g1759
sg56
(lp1766
g713
asbag49
(g70
g51
NtRp1767
(dp1768
g54
(dp1769
g81
g82
ssg63
g1759
sg56
(lp1770
S':'
asbag49
(g70
g51
NtRp1771
(dp1772
g54
(dp1773
sg63
g1759
sg56
(lp1774
g49
(g50
g51
NtRp1775
(dp1776
g54
(dp1777
g62
I4
ssg63
g1771
sg56
(lp1778
g92
asbasbasbag49
(g65
g51
NtRp1779
(dp1780
g54
(dp1781
sg63
g1648
sg56
(lp1782
g49
(g70
g51
NtRp1783
(dp1784
g54
(dp1785
g74
g75
ssg63
g1779
sg56
(lp1786
g734
asbag49
(g70
g51
NtRp1787
(dp1788
g54
(dp1789
g81
g82
ssg63
g1779
sg56
(lp1790
S':'
asbag49
(g70
g51
NtRp1791
(dp1792
g54
(dp1793
sg63
g1779
sg56
(lp1794
g49
(g50
g51
NtRp1795
(dp1796
g54
(dp1797
g62
I4
ssg63
g1791
sg56
(lp1798
g747
asbasbasbag49
(g65
g51
NtRp1799
(dp1800
g54
(dp1801
sg63
g1648
sg56
(lp1802
g49
(g70
g51
NtRp1803
(dp1804
g54
(dp1805
g74
g75
ssg63
g1799
sg56
(lp1806
g953
asbag49
(g70
g51
NtRp1807
(dp1808
g54
(dp1809
g81
g82
ssg63
g1799
sg56
(lp1810
S':'
asbag49
(g70
g51
NtRp1811
(dp1812
g54
(dp1813
sg63
g1799
sg56
(lp1814
g49
(g50
g51
NtRp1815
(dp1816
g54
(dp1817
g62
I4
ssg63
g1811
sg56
(lp1818
g92
asbasbasbag49
(g65
g51
NtRp1819
(dp1820
g54
(dp1821
sg63
g1648
sg56
(lp1822
g49
(g70
g51
NtRp1823
(dp1824
g54
(dp1825
g74
g75
ssg63
g1819
sg56
(lp1826
g974
asbag49
(g70
g51
NtRp1827
(dp1828
g54
(dp1829
g81
g82
ssg63
g1819
sg56
(lp1830
S':'
asbag49
(g70
g51
NtRp1831
(dp1832
g54
(dp1833
sg63
g1819
sg56
(lp1834
g49
(g50
g51
NtRp1835
(dp1836
g54
(dp1837
g62
I4
ssg63
g1831
sg56
(lp1838
g92
asbasbasbag49
(g65
g51
NtRp1839
(dp1840
g54
(dp1841
sg63
g1648
sg56
(lp1842
g49
(g70
g51
NtRp1843
(dp1844
g54
(dp1845
g74
g75
ssg63
g1839
sg56
(lp1846
g1212
asbag49
(g70
g51
NtRp1847
(dp1848
g54
(dp1849
g81
g82
ssg63
g1839
sg56
(lp1850
S':'
asbag49
(g70
g51
NtRp1851
(dp1852
g54
(dp1853
sg63
g1839
sg56
(lp1854
g49
(g50
g51
NtRp1855
(dp1856
g54
(dp1857
g62
I4
ssg63
g1851
sg56
(lp1858
g1225
asbasbasbag49
(g65
g51
NtRp1859
(dp1860
g54
(dp1861
sg63
g1648
sg56
(lp1862
g49
(g70
g51
NtRp1863
(dp1864
g54
(dp1865
g74
g75
ssg63
g1859
sg56
(lp1866
g1255
asbag49
(g70
g51
NtRp1867
(dp1868
g54
(dp1869
g81
g82
ssg63
g1859
sg56
(lp1870
S':'
asbag49
(g70
g51
NtRp1871
(dp1872
g54
(dp1873
sg63
g1859
sg56
(lp1874
g49
(g50
g51
NtRp1875
(dp1876
g54
(dp1877
g62
I4
ssg63
g1871
sg56
(lp1878
g49
(g58
g51
NtRp1879
(dp1880
g54
(dp1881
g62
I3
ssg63
Nsg56
(lp1882
g49
(g65
g51
NtRp1883
(dp1884
g54
(dp1885
sg63
g1879
sg56
(lp1886
g49
(g70
g51
NtRp1887
(dp1888
g54
(dp1889
sg63
g1883
sg56
(lp1890
g49
(g50
g51
NtRp1891
(dp1892
g54
(dp1893
g62
I3
ssg63
g1887
sg56
(lp1894
S'1'
asbasbasbag49
(g65
g51
NtRp1895
(dp1896
g54
(dp1897
sg63
g1879
sg56
(lp1898
g49
(g70
g51
NtRp1899
(dp1900
g54
(dp1901
sg63
g1895
sg56
(lp1902
g49
(g50
g51
NtRp1903
(dp1904
g54
(dp1905
g62
I3
ssg63
g1899
sg56
(lp1906
S'99'
p1907
asbasbasbag49
(g65
g51
NtRp1908
(dp1909
g54
(dp1910
sg63
g1879
sg56
(lp1911
g49
(g70
g51
NtRp1912
(dp1913
g54
(dp1914
sg63
g1908
sg56
(lp1915
g49
(g50
g51
NtRp1916
(dp1917
g54
(dp1918
g62
I3
ssg63
g1912
sg56
(lp1919
S'7'
asbasbasbag49
(g65
g51
NtRp1920
(dp1921
g54
(dp1922
sg63
g1879
sg56
(lp1923
g49
(g70
g51
NtRp1924
(dp1925
g54
(dp1926
sg63
g1920
sg56
(lp1927
g49
(g50
g51
NtRp1928
(dp1929
g54
(dp1930
g62
I3
ssg63
g1924
sg56
(lp1931
S'datetime.datetime(2012, 3, 4, 22, 12, 8)'
p1932
asbasbasbag49
(g65
g51
NtRp1933
(dp1934
g54
(dp1935
sg63
g1879
sg56
(lp1936
g49
(g70
g51
NtRp1937
(dp1938
g54
(dp1939
sg63
g1933
sg56
(lp1940
g49
(g50
g51
NtRp1941
(dp1942
g54
(dp1943
g62
I3
ssg63
g1937
sg56
(lp1944
g1334
asbasbasbasbasbasbasbasbasbasbasbag49
(g65
g51
NtRp1945
(dp1946
g54
(dp1947
sg63
g59
sg56
(lp1948
g49
(g70
g51
NtRp1949
(dp1950
g54
(dp1951
g74
g75
ssg63
g1945
sg56
(lp1952
S'is_https'
p1953
asbag49
(g70
g51
NtRp1954
(dp1955
g54
(dp1956
g81
g82
ssg63
g1945
sg56
(lp1957
S':'
asbag49
(g70
g51
NtRp1958
(dp1959
g54
(dp1960
sg63
g1945
sg56
(lp1961
g49
(g50
g51
NtRp1962
(dp1963
g54
(dp1964
g62
I5
ssg63
g1958
sg56
(lp1965
g92
asbasbasbag49
(g65
g51
NtRp1966
(dp1967
g54
(dp1968
sg63
g59
sg56
(lp1969
g49
(g70
g51
NtRp1970
(dp1971
g54
(dp1972
g74
g75
ssg63
g1966
sg56
(lp1973
S'is_local'
p1974
asbag49
(g70
g51
NtRp1975
(dp1976
g54
(dp1977
g81
g82
ssg63
g1966
sg56
(lp1978
S':'
asbag49
(g70
g51
NtRp1979
(dp1980
g54
(dp1981
sg63
g1966
sg56
(lp1982
g49
(g50
g51
NtRp1983
(dp1984
g54
(dp1985
g62
I5
ssg63
g1979
sg56
(lp1986
g1443
asbasbasbag49
(g65
g51
NtRp1987
(dp1988
g54
(dp1989
sg63
g59
sg56
(lp1990
g49
(g70
g51
NtRp1991
(dp1992
g54
(dp1993
g74
g75
ssg63
g1987
sg56
(lp1994
S'is_restful'
p1995
asbag49
(g70
g51
NtRp1996
(dp1997
g54
(dp1998
g81
g82
ssg63
g1987
sg56
(lp1999
S':'
asbag49
(g70
g51
NtRp2000
(dp2001
g54
(dp2002
sg63
g1987
sg56
(lp2003
g49
(g50
g51
NtRp2004
(dp2005
g54
(dp2006
g62
I5
ssg63
g2000
sg56
(lp2007
g92
asbasbasbag49
(g65
g51
NtRp2008
(dp2009
g54
(dp2010
sg63
g59
sg56
(lp2011
g49
(g70
g51
NtRp2012
(dp2013
g54
(dp2014
g74
g75
ssg63
g2008
sg56
(lp2015
S'now'
p2016
asbag49
(g70
g51
NtRp2017
(dp2018
g54
(dp2019
g81
g82
ssg63
g2008
sg56
(lp2020
S':'
asbag49
(g70
g51
NtRp2021
(dp2022
g54
(dp2023
sg63
g2008
sg56
(lp2024
g49
(g50
g51
NtRp2025
(dp2026
g54
(dp2027
g62
I5
ssg63
g2021
sg56
(lp2028
S'datetime.datetime(2012, 7, 30, 20, 28, 51, 947000)'
p2029
asbasbasbag49
(g65
g51
NtRp2030
(dp2031
g54
(dp2032
sg63
g59
sg56
(lp2033
g49
(g70
g51
NtRp2034
(dp2035
g54
(dp2036
g74
g75
ssg63
g2030
sg56
(lp2037
S'post_vars'
p2038
asbag49
(g70
g51
NtRp2039
(dp2040
g54
(dp2041
g81
g82
ssg63
g2030
sg56
(lp2042
S':'
asbag49
(g70
g51
NtRp2043
(dp2044
g54
(dp2045
sg63
g2030
sg56
(lp2046
g49
(g50
g51
NtRp2047
(dp2048
g54
(dp2049
g62
I5
ssg63
g2043
sg56
(lp2050
g49
(g58
g51
NtRp2051
(dp2052
g54
(dp2053
g62
I4
ssg63
Nsg56
(lp2054
sbasbasbasbag49
(g65
g51
NtRp2055
(dp2056
g54
(dp2057
sg63
g59
sg56
(lp2058
g49
(g70
g51
NtRp2059
(dp2060
g54
(dp2061
g74
g75
ssg63
g2055
sg56
(lp2062
S'url'
p2063
asbag49
(g70
g51
NtRp2064
(dp2065
g54
(dp2066
g81
g82
ssg63
g2055
sg56
(lp2067
S':'
asbag49
(g70
g51
NtRp2068
(dp2069
g54
(dp2070
sg63
g2055
sg56
(lp2071
g49
(g50
g51
NtRp2072
(dp2073
g54
(dp2074
g62
I5
ssg63
g2068
sg56
(lp2075
S'/unioeste_code/default/index'
p2076
asbasbasbag49
(g65
g51
NtRp2077
(dp2078
g54
(dp2079
sg63
g59
sg56
(lp2080
g49
(g70
g51
NtRp2081
(dp2082
g54
(dp2083
g74
g75
ssg63
g2077
sg56
(lp2084
S'utcnow'
p2085
asbag49
(g70
g51
NtRp2086
(dp2087
g54
(dp2088
g81
g82
ssg63
g2077
sg56
(lp2089
S':'
asbag49
(g70
g51
NtRp2090
(dp2091
g54
(dp2092
sg63
g2077
sg56
(lp2093
g49
(g50
g51
NtRp2094
(dp2095
g54
(dp2096
g62
I5
ssg63
g2090
sg56
(lp2097
S'datetime.datetime(2012, 7, 30, 23, 28, 51, 947000)'
p2098
asbasbasbag49
(g65
g51
NtRp2099
(dp2100
g54
(dp2101
sg63
g59
sg56
(lp2102
g49
(g70
g51
NtRp2103
(dp2104
g54
(dp2105
g74
g75
ssg63
g2099
sg56
(lp2106
S'uuid'
p2107
asbag49
(g70
g51
NtRp2108
(dp2109
g54
(dp2110
g81
g82
ssg63
g2099
sg56
(lp2111
S':'
asbag49
(g70
g51
NtRp2112
(dp2113
g54
(dp2114
sg63
g2099
sg56
(lp2115
g49
(g50
g51
NtRp2116
(dp2117
g54
(dp2118
g62
I5
ssg63
g2112
sg56
(lp2119
S'unioeste_code/127.0.0.1.2012-07-30.20-28-51.4e414544-59e0-4aec-a4b7-78072acf167d'
p2120
asbasbasbag49
(g65
g51
NtRp2121
(dp2122
g54
(dp2123
sg63
g59
sg56
(lp2124
g49
(g70
g51
NtRp2125
(dp2126
g54
(dp2127
g74
g75
ssg63
g2121
sg56
(lp2128
S'vars'
p2129
asbag49
(g70
g51
NtRp2130
(dp2131
g54
(dp2132
g81
g82
ssg63
g2121
sg56
(lp2133
S':'
asbag49
(g70
g51
NtRp2134
(dp2135
g54
(dp2136
sg63
g2121
sg56
(lp2137
g49
(g50
g51
NtRp2138
(dp2139
g54
(dp2140
g62
I5
ssg63
g2134
sg56
(lp2141
g49
(g58
g51
NtRp2142
(dp2143
g54
(dp2144
g62
I4
ssg63
Nsg56
(lp2145
sbasbasbasbag49
(g65
g51
NtRp2146
(dp2147
g54
(dp2148
sg63
g59
sg56
(lp2149
g49
(g70
g51
NtRp2150
(dp2151
g54
(dp2152
g74
g75
ssg63
g2146
sg56
(lp2153
S'wsgi'
p2154
asbag49
(g70
g51
NtRp2155
(dp2156
g54
(dp2157
g81
g82
ssg63
g2146
sg56
(lp2158
S':'
asbag49
(g70
g51
NtRp2159
(dp2160
g54
(dp2161
sg63
g2146
sg56
(lp2162
g49
(g50
g51
NtRp2163
(dp2164
g54
(dp2165
g62
I5
ssg63
g2159
sg56
(lp2166
g49
(g58
g51
NtRp2167
(dp2168
g54
(dp2169
g62
I4
ssg63
Nsg56
(lp2170
g49
(g65
g51
NtRp2171
(dp2172
g54
(dp2173
sg63
g2167
sg56
(lp2174
g49
(g70
g51
NtRp2175
(dp2176
g54
(dp2177
g74
g75
ssg63
g2171
sg56
(lp2178
S'environ'
p2179
asbag49
(g70
g51
NtRp2180
(dp2181
g54
(dp2182
g81
g82
ssg63
g2171
sg56
(lp2183
S':'
asbag49
(g70
g51
NtRp2184
(dp2185
g54
(dp2186
sg63
g2171
sg56
(lp2187
g49
(g50
g51
NtRp2188
(dp2189
g54
(dp2190
g62
I4
ssg63
g2184
sg56
(lp2191
g49
(g58
g51
NtRp2192
(dp2193
g54
(dp2194
g62
I3
ssg63
Nsg56
(lp2195
g49
(g65
g51
NtRp2196
(dp2197
g54
(dp2198
sg63
g2192
sg56
(lp2199
g49
(g70
g51
NtRp2200
(dp2201
g54
(dp2202
g74
g75
ssg63
g2196
sg56
(lp2203
S'HTTP_ACCEPT'
p2204
asbag49
(g70
g51
NtRp2205
(dp2206
g54
(dp2207
g81
g82
ssg63
g2196
sg56
(lp2208
S':'
asbag49
(g70
g51
NtRp2209
(dp2210
g54
(dp2211
sg63
g2196
sg56
(lp2212
g49
(g50
g51
NtRp2213
(dp2214
g54
(dp2215
g62
I3
ssg63
g2209
sg56
(lp2216
g769
asbasbasbag49
(g65
g51
NtRp2217
(dp2218
g54
(dp2219
sg63
g2192
sg56
(lp2220
g49
(g70
g51
NtRp2221
(dp2222
g54
(dp2223
g74
g75
ssg63
g2217
sg56
(lp2224
S'HTTP_ACCEPT_CHARSET'
p2225
asbag49
(g70
g51
NtRp2226
(dp2227
g54
(dp2228
g81
g82
ssg63
g2217
sg56
(lp2229
S':'
asbag49
(g70
g51
NtRp2230
(dp2231
g54
(dp2232
sg63
g2217
sg56
(lp2233
g49
(g50
g51
NtRp2234
(dp2235
g54
(dp2236
g62
I3
ssg63
g2230
sg56
(lp2237
g791
asbasbasbag49
(g65
g51
NtRp2238
(dp2239
g54
(dp2240
sg63
g2192
sg56
(lp2241
g49
(g70
g51
NtRp2242
(dp2243
g54
(dp2244
g74
g75
ssg63
g2238
sg56
(lp2245
S'HTTP_ACCEPT_ENCODING'
p2246
asbag49
(g70
g51
NtRp2247
(dp2248
g54
(dp2249
g81
g82
ssg63
g2238
sg56
(lp2250
S':'
asbag49
(g70
g51
NtRp2251
(dp2252
g54
(dp2253
sg63
g2238
sg56
(lp2254
g49
(g50
g51
NtRp2255
(dp2256
g54
(dp2257
g62
I3
ssg63
g2251
sg56
(lp2258
g813
asbasbasbag49
(g65
g51
NtRp2259
(dp2260
g54
(dp2261
sg63
g2192
sg56
(lp2262
g49
(g70
g51
NtRp2263
(dp2264
g54
(dp2265
g74
g75
ssg63
g2259
sg56
(lp2266
S'HTTP_ACCEPT_LANGUAGE'
p2267
asbag49
(g70
g51
NtRp2268
(dp2269
g54
(dp2270
g81
g82
ssg63
g2259
sg56
(lp2271
S':'
asbag49
(g70
g51
NtRp2272
(dp2273
g54
(dp2274
sg63
g2259
sg56
(lp2275
g49
(g50
g51
NtRp2276
(dp2277
g54
(dp2278
g62
I3
ssg63
g2272
sg56
(lp2279
g835
asbasbasbag49
(g65
g51
NtRp2280
(dp2281
g54
(dp2282
sg63
g2192
sg56
(lp2283
g49
(g70
g51
NtRp2284
(dp2285
g54
(dp2286
g74
g75
ssg63
g2280
sg56
(lp2287
S'HTTP_CONNECTION'
p2288
asbag49
(g70
g51
NtRp2289
(dp2290
g54
(dp2291
g81
g82
ssg63
g2280
sg56
(lp2292
S':'
asbag49
(g70
g51
NtRp2293
(dp2294
g54
(dp2295
sg63
g2280
sg56
(lp2296
g49
(g50
g51
NtRp2297
(dp2298
g54
(dp2299
g62
I3
ssg63
g2293
sg56
(lp2300
g857
asbasbasbag49
(g65
g51
NtRp2301
(dp2302
g54
(dp2303
sg63
g2192
sg56
(lp2304
g49
(g70
g51
NtRp2305
(dp2306
g54
(dp2307
g74
g75
ssg63
g2301
sg56
(lp2308
S'HTTP_COOKIE'
p2309
asbag49
(g70
g51
NtRp2310
(dp2311
g54
(dp2312
g81
g82
ssg63
g2301
sg56
(lp2313
S':'
asbag49
(g70
g51
NtRp2314
(dp2315
g54
(dp2316
sg63
g2301
sg56
(lp2317
g49
(g50
g51
NtRp2318
(dp2319
g54
(dp2320
g62
I3
ssg63
g2314
sg56
(lp2321
g879
asbasbasbag49
(g65
g51
NtRp2322
(dp2323
g54
(dp2324
sg63
g2192
sg56
(lp2325
g49
(g70
g51
NtRp2326
(dp2327
g54
(dp2328
g74
g75
ssg63
g2322
sg56
(lp2329
S'HTTP_DNT'
p2330
asbag49
(g70
g51
NtRp2331
(dp2332
g54
(dp2333
g81
g82
ssg63
g2322
sg56
(lp2334
S':'
asbag49
(g70
g51
NtRp2335
(dp2336
g54
(dp2337
sg63
g2322
sg56
(lp2338
g49
(g50
g51
NtRp2339
(dp2340
g54
(dp2341
g62
I3
ssg63
g2335
sg56
(lp2342
S'1'
asbasbasbag49
(g65
g51
NtRp2343
(dp2344
g54
(dp2345
sg63
g2192
sg56
(lp2346
g49
(g70
g51
NtRp2347
(dp2348
g54
(dp2349
g74
g75
ssg63
g2343
sg56
(lp2350
S'HTTP_HOST'
p2351
asbag49
(g70
g51
NtRp2352
(dp2353
g54
(dp2354
g81
g82
ssg63
g2343
sg56
(lp2355
S':'
asbag49
(g70
g51
NtRp2356
(dp2357
g54
(dp2358
sg63
g2343
sg56
(lp2359
g49
(g50
g51
NtRp2360
(dp2361
g54
(dp2362
g62
I3
ssg63
g2356
sg56
(lp2363
g922
asbasbasbag49
(g65
g51
NtRp2364
(dp2365
g54
(dp2366
sg63
g2192
sg56
(lp2367
g49
(g70
g51
NtRp2368
(dp2369
g54
(dp2370
g74
g75
ssg63
g2364
sg56
(lp2371
S'HTTP_USER_AGENT'
p2372
asbag49
(g70
g51
NtRp2373
(dp2374
g54
(dp2375
g81
g82
ssg63
g2364
sg56
(lp2376
S':'
asbag49
(g70
g51
NtRp2377
(dp2378
g54
(dp2379
sg63
g2364
sg56
(lp2380
g49
(g50
g51
NtRp2381
(dp2382
g54
(dp2383
g62
I3
ssg63
g2377
sg56
(lp2384
g944
asbasbasbag49
(g65
g51
NtRp2385
(dp2386
g54
(dp2387
sg63
g2192
sg56
(lp2388
g49
(g70
g51
NtRp2389
(dp2390
g54
(dp2391
g74
g75
ssg63
g2385
sg56
(lp2392
S'PATH_INFO'
p2393
asbag49
(g70
g51
NtRp2394
(dp2395
g54
(dp2396
g81
g82
ssg63
g2385
sg56
(lp2397
S':'
asbag49
(g70
g51
NtRp2398
(dp2399
g54
(dp2400
sg63
g2385
sg56
(lp2401
g49
(g50
g51
NtRp2402
(dp2403
g54
(dp2404
g62
I3
ssg63
g2398
sg56
(lp2405
g1008
asbasbasbag49
(g65
g51
NtRp2406
(dp2407
g54
(dp2408
sg63
g2192
sg56
(lp2409
g49
(g70
g51
NtRp2410
(dp2411
g54
(dp2412
g74
g75
ssg63
g2406
sg56
(lp2413
S'QUERY_STRING'
p2414
asbag49
(g70
g51
NtRp2415
(dp2416
g54
(dp2417
g81
g82
ssg63
g2406
sg56
(lp2418
S':'
asbag49
(g70
g51
NtRp2419
(dp2420
g54
(dp2421
sg63
g2406
sg56
(lp2422
g49
(g50
g51
NtRp2423
(dp2424
g54
(dp2425
g62
I3
ssg63
g2419
sg56
(lp2426
S''
asbasbasbag49
(g65
g51
NtRp2427
(dp2428
g54
(dp2429
sg63
g2192
sg56
(lp2430
g49
(g70
g51
NtRp2431
(dp2432
g54
(dp2433
g74
g75
ssg63
g2427
sg56
(lp2434
S'REMOTE_ADDR'
p2435
asbag49
(g70
g51
NtRp2436
(dp2437
g54
(dp2438
g81
g82
ssg63
g2427
sg56
(lp2439
S':'
asbag49
(g70
g51
NtRp2440
(dp2441
g54
(dp2442
sg63
g2427
sg56
(lp2443
g49
(g50
g51
NtRp2444
(dp2445
g54
(dp2446
g62
I3
ssg63
g2440
sg56
(lp2447
g182
asbasbasbag49
(g65
g51
NtRp2448
(dp2449
g54
(dp2450
sg63
g2192
sg56
(lp2451
g49
(g70
g51
NtRp2452
(dp2453
g54
(dp2454
g74
g75
ssg63
g2448
sg56
(lp2455
S'REMOTE_PORT'
p2456
asbag49
(g70
g51
NtRp2457
(dp2458
g54
(dp2459
g81
g82
ssg63
g2448
sg56
(lp2460
S':'
asbag49
(g70
g51
NtRp2461
(dp2462
g54
(dp2463
sg63
g2448
sg56
(lp2464
g49
(g50
g51
NtRp2465
(dp2466
g54
(dp2467
g62
I3
ssg63
g2461
sg56
(lp2468
g1072
asbasbasbag49
(g65
g51
NtRp2469
(dp2470
g54
(dp2471
sg63
g2192
sg56
(lp2472
g49
(g70
g51
NtRp2473
(dp2474
g54
(dp2475
g74
g75
ssg63
g2469
sg56
(lp2476
S'REQUEST_METHOD'
p2477
asbag49
(g70
g51
NtRp2478
(dp2479
g54
(dp2480
g81
g82
ssg63
g2469
sg56
(lp2481
S':'
asbag49
(g70
g51
NtRp2482
(dp2483
g54
(dp2484
sg63
g2469
sg56
(lp2485
g49
(g50
g51
NtRp2486
(dp2487
g54
(dp2488
g62
I3
ssg63
g2482
sg56
(lp2489
g1094
asbasbasbag49
(g65
g51
NtRp2490
(dp2491
g54
(dp2492
sg63
g2192
sg56
(lp2493
g49
(g70
g51
NtRp2494
(dp2495
g54
(dp2496
g74
g75
ssg63
g2490
sg56
(lp2497
S'SCRIPT_NAME'
p2498
asbag49
(g70
g51
NtRp2499
(dp2500
g54
(dp2501
g81
g82
ssg63
g2490
sg56
(lp2502
S':'
asbag49
(g70
g51
NtRp2503
(dp2504
g54
(dp2505
sg63
g2490
sg56
(lp2506
g49
(g50
g51
NtRp2507
(dp2508
g54
(dp2509
g62
I3
ssg63
g2503
sg56
(lp2510
S''
asbasbasbag49
(g65
g51
NtRp2511
(dp2512
g54
(dp2513
sg63
g2192
sg56
(lp2514
g49
(g70
g51
NtRp2515
(dp2516
g54
(dp2517
g74
g75
ssg63
g2511
sg56
(lp2518
S'SERVER_NAME'
p2519
asbag49
(g70
g51
NtRp2520
(dp2521
g54
(dp2522
g81
g82
ssg63
g2511
sg56
(lp2523
S':'
asbag49
(g70
g51
NtRp2524
(dp2525
g54
(dp2526
sg63
g2511
sg56
(lp2527
g49
(g50
g51
NtRp2528
(dp2529
g54
(dp2530
g62
I3
ssg63
g2524
sg56
(lp2531
g1137
asbasbasbag49
(g65
g51
NtRp2532
(dp2533
g54
(dp2534
sg63
g2192
sg56
(lp2535
g49
(g70
g51
NtRp2536
(dp2537
g54
(dp2538
g74
g75
ssg63
g2532
sg56
(lp2539
S'SERVER_PORT'
p2540
asbag49
(g70
g51
NtRp2541
(dp2542
g54
(dp2543
g81
g82
ssg63
g2532
sg56
(lp2544
S':'
asbag49
(g70
g51
NtRp2545
(dp2546
g54
(dp2547
sg63
g2532
sg56
(lp2548
g49
(g50
g51
NtRp2549
(dp2550
g54
(dp2551
g62
I3
ssg63
g2545
sg56
(lp2552
g1159
asbasbasbag49
(g65
g51
NtRp2553
(dp2554
g54
(dp2555
sg63
g2192
sg56
(lp2556
g49
(g70
g51
NtRp2557
(dp2558
g54
(dp2559
g74
g75
ssg63
g2553
sg56
(lp2560
S'SERVER_PROTOCOL'
p2561
asbag49
(g70
g51
NtRp2562
(dp2563
g54
(dp2564
g81
g82
ssg63
g2553
sg56
(lp2565
S':'
asbag49
(g70
g51
NtRp2566
(dp2567
g54
(dp2568
sg63
g2553
sg56
(lp2569
g49
(g50
g51
NtRp2570
(dp2571
g54
(dp2572
g62
I3
ssg63
g2566
sg56
(lp2573
g1181
asbasbasbag49
(g65
g51
NtRp2574
(dp2575
g54
(dp2576
sg63
g2192
sg56
(lp2577
g49
(g70
g51
NtRp2578
(dp2579
g54
(dp2580
g74
g75
ssg63
g2574
sg56
(lp2581
S'SERVER_SOFTWARE'
p2582
asbag49
(g70
g51
NtRp2583
(dp2584
g54
(dp2585
g81
g82
ssg63
g2574
sg56
(lp2586
S':'
asbag49
(g70
g51
NtRp2587
(dp2588
g54
(dp2589
sg63
g2574
sg56
(lp2590
g49
(g50
g51
NtRp2591
(dp2592
g54
(dp2593
g62
I3
ssg63
g2587
sg56
(lp2594
g1203
asbasbasbag49
(g65
g51
NtRp2595
(dp2596
g54
(dp2597
sg63
g2192
sg56
(lp2598
g49
(g70
g51
NtRp2599
(dp2600
g54
(dp2601
g74
g75
ssg63
g2595
sg56
(lp2602
S'wsgi.errors'
p2603
asbag49
(g70
g51
NtRp2604
(dp2605
g54
(dp2606
g81
g82
ssg63
g2595
sg56
(lp2607
S':'
asbag49
(g70
g51
NtRp2608
(dp2609
g54
(dp2610
sg63
g2595
sg56
(lp2611
g49
(g50
g51
NtRp2612
(dp2613
g54
(dp2614
g62
I3
ssg63
g2608
sg56
(lp2615
S'<__main__.Stderr object at 0x00356670>'
p2616
asbasbasbag49
(g65
g51
NtRp2617
(dp2618
g54
(dp2619
sg63
g2192
sg56
(lp2620
g49
(g70
g51
NtRp2621
(dp2622
g54
(dp2623
g74
g75
ssg63
g2617
sg56
(lp2624
S'wsgi.file_wrapper'
p2625
asbag49
(g70
g51
NtRp2626
(dp2627
g54
(dp2628
g81
g82
ssg63
g2617
sg56
(lp2629
S':'
asbag49
(g70
g51
NtRp2630
(dp2631
g54
(dp2632
sg63
g2617
sg56
(lp2633
g49
(g50
g51
NtRp2634
(dp2635
g54
(dp2636
g62
I3
ssg63
g2630
sg56
(lp2637
S'<class wsgiref.util.FileWrapper at 0x02FCDE10>'
p2638
asbasbasbag49
(g65
g51
NtRp2639
(dp2640
g54
(dp2641
sg63
g2192
sg56
(lp2642
g49
(g70
g51
NtRp2643
(dp2644
g54
(dp2645
g74
g75
ssg63
g2639
sg56
(lp2646
S'wsgi.input'
p2647
asbag49
(g70
g51
NtRp2648
(dp2649
g54
(dp2650
g81
g82
ssg63
g2639
sg56
(lp2651
S':'
asbag49
(g70
g51
NtRp2652
(dp2653
g54
(dp2654
sg63
g2639
sg56
(lp2655
g49
(g50
g51
NtRp2656
(dp2657
g54
(dp2658
g62
I3
ssg63
g2652
sg56
(lp2659
S'<cStringIO.StringO object at 0x06509760>'
p2660
asbasbasbag49
(g65
g51
NtRp2661
(dp2662
g54
(dp2663
sg63
g2192
sg56
(lp2664
g49
(g70
g51
NtRp2665
(dp2666
g54
(dp2667
g74
g75
ssg63
g2661
sg56
(lp2668
S'wsgi.multiprocess'
p2669
asbag49
(g70
g51
NtRp2670
(dp2671
g54
(dp2672
g81
g82
ssg63
g2661
sg56
(lp2673
S':'
asbag49
(g70
g51
NtRp2674
(dp2675
g54
(dp2676
sg63
g2661
sg56
(lp2677
g49
(g50
g51
NtRp2678
(dp2679
g54
(dp2680
g62
I3
ssg63
g2674
sg56
(lp2681
g92
asbasbasbag49
(g65
g51
NtRp2682
(dp2683
g54
(dp2684
sg63
g2192
sg56
(lp2685
g49
(g70
g51
NtRp2686
(dp2687
g54
(dp2688
g74
g75
ssg63
g2682
sg56
(lp2689
S'wsgi.multithread'
p2690
asbag49
(g70
g51
NtRp2691
(dp2692
g54
(dp2693
g81
g82
ssg63
g2682
sg56
(lp2694
S':'
asbag49
(g70
g51
NtRp2695
(dp2696
g54
(dp2697
sg63
g2682
sg56
(lp2698
g49
(g50
g51
NtRp2699
(dp2700
g54
(dp2701
g62
I3
ssg63
g2695
sg56
(lp2702
g1443
asbasbasbag49
(g65
g51
NtRp2703
(dp2704
g54
(dp2705
sg63
g2192
sg56
(lp2706
g49
(g70
g51
NtRp2707
(dp2708
g54
(dp2709
g74
g75
ssg63
g2703
sg56
(lp2710
S'wsgi.run_once'
p2711
asbag49
(g70
g51
NtRp2712
(dp2713
g54
(dp2714
g81
g82
ssg63
g2703
sg56
(lp2715
S':'
asbag49
(g70
g51
NtRp2716
(dp2717
g54
(dp2718
sg63
g2703
sg56
(lp2719
g49
(g50
g51
NtRp2720
(dp2721
g54
(dp2722
g62
I3
ssg63
g2716
sg56
(lp2723
g92
asbasbasbag49
(g65
g51
NtRp2724
(dp2725
g54
(dp2726
sg63
g2192
sg56
(lp2727
g49
(g70
g51
NtRp2728
(dp2729
g54
(dp2730
g74
g75
ssg63
g2724
sg56
(lp2731
S'wsgi.url_scheme'
p2732
asbag49
(g70
g51
NtRp2733
(dp2734
g54
(dp2735
g81
g82
ssg63
g2724
sg56
(lp2736
S':'
asbag49
(g70
g51
NtRp2737
(dp2738
g54
(dp2739
sg63
g2724
sg56
(lp2740
g49
(g50
g51
NtRp2741
(dp2742
g54
(dp2743
g62
I3
ssg63
g2737
sg56
(lp2744
g1486
asbasbasbag49
(g65
g51
NtRp2745
(dp2746
g54
(dp2747
sg63
g2192
sg56
(lp2748
g49
(g70
g51
NtRp2749
(dp2750
g54
(dp2751
g74
g75
ssg63
g2745
sg56
(lp2752
S'wsgi.version'
p2753
asbag49
(g70
g51
NtRp2754
(dp2755
g54
(dp2756
g81
g82
ssg63
g2745
sg56
(lp2757
S':'
asbag49
(g70
g51
NtRp2758
(dp2759
g54
(dp2760
sg63
g2745
sg56
(lp2761
g49
(g50
g51
NtRp2762
(dp2763
g54
(dp2764
g62
I3
ssg63
g2758
sg56
(lp2765
S'1'
asbasbasbasbasbasbasbasbasbasbasbasbasbsS'frames'
p2766
(lp2767
(dp2768
S'file'
p2769
S'C:\\web2py\\gluon\\restricted.py'
p2770
sS'dump'
p2771
(dp2772
sS'lnum'
p2773
I205
sS'lines'
p2774
(dp2775
sS'call'
p2776
S'(code=r"response.write(\'<!DOCTYPE html>\\n<!-- paulirish....ponse.write(\'\\n</body>\\n</html>\\n\', escape=False)", environment={\'A\': <class \'gluon.html.A\'>, \'Auth\': <class \'gluon.tools.Auth\'>, \'B\': <class \'gluon.html.B\'>, \'BEAUTIFY\': <class \'gluon.html.BEAUTIFY\'>, \'BODY\': <class \'gluon.html.BODY\'>, \'BR\': <class \'gluon.html.BR\'>, \'BUTTON\': <class \'gluon.html.BUTTON\'>, \'CAT\': <class \'gluon.html.CAT\'>, \'CENTER\': <class \'gluon.html.CENTER\'>, \'CLEANUP\': <class \'gluon.validators.CLEANUP\'>, ...}, layer=r\'C:\\web2py\\applications\\unioeste_code\\views\\default/index.html\')'
p2777
sS'func'
p2778
S'restricted'
p2779
sa(dp2780
g2769
S'C:\\web2py\\applications\\unioeste_code\\views\\default\\index.html'
p2781
sg2771
(dp2782
sg2773
I90
sg2774
(dp2783
I96
S'if right_sidebar_enabled:'
p2784
sI97
S'    response.write(\'\\n        <div class="four columns">\\n          \', escape=False)'
p2785
sI98
S"    response.write('\\n          <h3>Right Sidebar</h3>\\n          <p></p>\\n          ', escape=False)"
p2786
sI99
S"    response.write('\\n        </div>    \\n        ', escape=False)"
p2787
sI100
S'    pass'
p2788
sI81
S"response.write('\\n<ul>\\n', escape=False)"
p2789
sI82
S'for problem in problems:'
p2790
sI83
S"    response.write('\\n', escape=False)"
p2791
sI84
S'    user = db(db.auth_user.id==problem.created_by).select().first()'
p2792
sI85
S"    response.write('\\n', escape=False)"
p2793
sI86
S'    response.write(LI(A(problem.title, _style="font-weight:bold;",_href=URL("Problem", args=problem.id)), " by " + user.first_name + " " + user.last_name + " ", SPAN(prettydate(problem.created_on), _style="color:green;font-weight:bold;")))'
p2794
sI87
S"    response.write('\\n', escape=False)"
p2795
sI88
S'    pass'
p2796
sI89
S"response.write('\\n\\n', escape=False)"
p2797
sI90
S'from gravatar import Gravatar'
p2798
sI91
S"response.write('\\n', escape=False)"
p2799
sI92
S"IMG(_src=Gravatar('pedrolacerda88@hotmail.com')._link_to_image())"
p2800
sI93
S"response.write('\\n\\n</ul>', escape=False)"
p2801
sI94
S"response.write('\\n          ', escape=False)"
p2802
sI95
S"response.write('\\n        </div>\\n        \\n        ', escape=False)"
p2803
ssg2776
S'()'
p2804
sg2778
S'<module>'
p2805
sa(dp2806
g2769
S'C:\\web2py\\gluon\\custom_import.py'
p2807
sg2771
(dp2808
sg2773
I293
sg2774
(dp2809
sg2776
S"(self=<gluon.custom_import._Web2pyImporter object at 0x030613B0>, name='gravatar', globals={'A': <class 'gluon.html.A'>, 'Auth': <class 'gluon.tools.Auth'>, 'B': <class 'gluon.html.B'>, 'BEAUTIFY': <class 'gluon.html.BEAUTIFY'>, 'BODY': <class 'gluon.html.BODY'>, 'BR': <class 'gluon.html.BR'>, 'BUTTON': <class 'gluon.html.BUTTON'>, 'CAT': <class 'gluon.html.CAT'>, 'CENTER': <class 'gluon.html.CENTER'>, 'CLEANUP': <class 'gluon.validators.CLEANUP'>, ...}, locals={'A': <class 'gluon.html.A'>, 'Auth': <class 'gluon.tools.Auth'>, 'B': <class 'gluon.html.B'>, 'BEAUTIFY': <class 'gluon.html.BEAUTIFY'>, 'BODY': <class 'gluon.html.BODY'>, 'BR': <class 'gluon.html.BR'>, 'BUTTON': <class 'gluon.html.BUTTON'>, 'CAT': <class 'gluon.html.CAT'>, 'CENTER': <class 'gluon.html.CENTER'>, 'CLEANUP': <class 'gluon.validators.CLEANUP'>, ...}, fromlist=('Gravatar',), level=-1)"
p2810
sg2778
S'__call__'
p2811
sa(dp2812
g2769
S'C:\\web2py\\gluon\\custom_import.py'
p2813
sg2771
(dp2814
sg2773
I78
sg2774
(dp2815
sg2776
S"(self=<gluon.custom_import._Web2pyImporter object at 0x030613B0>, name='gravatar', globals={'A': <class 'gluon.html.A'>, 'Auth': <class 'gluon.tools.Auth'>, 'B': <class 'gluon.html.B'>, 'BEAUTIFY': <class 'gluon.html.BEAUTIFY'>, 'BODY': <class 'gluon.html.BODY'>, 'BR': <class 'gluon.html.BR'>, 'BUTTON': <class 'gluon.html.BUTTON'>, 'CAT': <class 'gluon.html.CAT'>, 'CENTER': <class 'gluon.html.CENTER'>, 'CLEANUP': <class 'gluon.validators.CLEANUP'>, ...}, locals={'A': <class 'gluon.html.A'>, 'Auth': <class 'gluon.tools.Auth'>, 'B': <class 'gluon.html.B'>, 'BEAUTIFY': <class 'gluon.html.BEAUTIFY'>, 'BODY': <class 'gluon.html.BODY'>, 'BR': <class 'gluon.html.BR'>, 'BUTTON': <class 'gluon.html.BUTTON'>, 'CAT': <class 'gluon.html.CAT'>, 'CENTER': <class 'gluon.html.CENTER'>, 'CLEANUP': <class 'gluon.validators.CLEANUP'>, ...}, fromlist=('Gravatar',), level=-1)"
p2816
sg2778
g2811
sasS'pyver'
p2817
S'Python 2.5.4: C:\\web2py\\web2py_no_console.exe'
p2818
sS'session'
p2819
g49
(g50
g51
NtRp2820
(dp2821
g54
(dp2822
sg56
(lp2823
g49
(g58
g51
NtRp2824
(dp2825
g54
(dp2826
g62
I5
ssg63
Nsg56
(lp2827
sbasbsS'etype'
p2828
S"<type 'exceptions.ImportError'>"
p2829
sS'date'
p2830
S'Mon Jul 30 20:28:52 2012'
p2831
sS'response'
p2832
g49
(g50
g51
NtRp2833
(dp2834
g54
(dp2835
sg56
(lp2836
g49
(g58
g51
NtRp2837
(dp2838
g54
(dp2839
g62
I5
ssg63
Nsg56
(lp2840
g49
(g65
g51
NtRp2841
(dp2842
g54
(dp2843
sg63
g2837
sg56
(lp2844
g49
(g70
g51
NtRp2845
(dp2846
g54
(dp2847
g74
g75
ssg63
g2841
sg56
(lp2848
g147
asbag49
(g70
g51
NtRp2849
(dp2850
g54
(dp2851
g81
g82
ssg63
g2841
sg56
(lp2852
S':'
asbag49
(g70
g51
NtRp2853
(dp2854
g54
(dp2855
sg63
g2841
sg56
(lp2856
g49
(g50
g51
NtRp2857
(dp2858
g54
(dp2859
g62
I5
ssg63
g2853
sg56
(lp2860
S'<cStringIO.StringO object at 0x06501460>'
p2861
asbasbasbag49
(g65
g51
NtRp2862
(dp2863
g54
(dp2864
sg63
g2837
sg56
(lp2865
g49
(g70
g51
NtRp2866
(dp2867
g54
(dp2868
g74
g75
ssg63
g2862
sg56
(lp2869
g213
asbag49
(g70
g51
NtRp2870
(dp2871
g54
(dp2872
g81
g82
ssg63
g2862
sg56
(lp2873
S':'
asbag49
(g70
g51
NtRp2874
(dp2875
g54
(dp2876
sg63
g2862
sg56
(lp2877
g49
(g50
g51
NtRp2878
(dp2879
g54
(dp2880
g62
I5
ssg63
g2874
sg56
(lp2881
g49
(g58
g51
NtRp2882
(dp2883
g54
(dp2884
g62
I4
ssg63
Nsg56
(lp2885
g49
(g65
g51
NtRp2886
(dp2887
g54
(dp2888
sg63
g2882
sg56
(lp2889
g49
(g70
g51
NtRp2890
(dp2891
g54
(dp2892
g74
g75
ssg63
g2886
sg56
(lp2893
S'session_id_unioeste_code'
p2894
asbag49
(g70
g51
NtRp2895
(dp2896
g54
(dp2897
g81
g82
ssg63
g2886
sg56
(lp2898
S':'
asbag49
(g70
g51
NtRp2899
(dp2900
g54
(dp2901
sg63
g2886
sg56
(lp2902
g49
(g50
g51
NtRp2903
(dp2904
g54
(dp2905
g62
I4
ssg63
g2899
sg56
(lp2906
g49
(g58
g51
NtRp2907
(dp2908
g54
(dp2909
g62
I3
ssg63
Nsg56
(lp2910
g49
(g65
g51
NtRp2911
(dp2912
g54
(dp2913
sg63
g2907
sg56
(lp2914
g49
(g70
g51
NtRp2915
(dp2916
g54
(dp2917
g74
g75
ssg63
g2911
sg56
(lp2918
g263
asbag49
(g70
g51
NtRp2919
(dp2920
g54
(dp2921
g81
g82
ssg63
g2911
sg56
(lp2922
S':'
asbag49
(g70
g51
NtRp2923
(dp2924
g54
(dp2925
sg63
g2911
sg56
(lp2926
g49
(g50
g51
NtRp2927
(dp2928
g54
(dp2929
g62
I3
ssg63
g2923
sg56
(lp2930
S''
asbasbasbag49
(g65
g51
NtRp2931
(dp2932
g54
(dp2933
sg63
g2907
sg56
(lp2934
g49
(g70
g51
NtRp2935
(dp2936
g54
(dp2937
g74
g75
ssg63
g2931
sg56
(lp2938
g284
asbag49
(g70
g51
NtRp2939
(dp2940
g54
(dp2941
g81
g82
ssg63
g2931
sg56
(lp2942
S':'
asbag49
(g70
g51
NtRp2943
(dp2944
g54
(dp2945
sg63
g2931
sg56
(lp2946
g49
(g50
g51
NtRp2947
(dp2948
g54
(dp2949
g62
I3
ssg63
g2943
sg56
(lp2950
S''
asbasbasbag49
(g65
g51
NtRp2951
(dp2952
g54
(dp2953
sg63
g2907
sg56
(lp2954
g49
(g70
g51
NtRp2955
(dp2956
g54
(dp2957
g74
g75
ssg63
g2951
sg56
(lp2958
g305
asbag49
(g70
g51
NtRp2959
(dp2960
g54
(dp2961
g81
g82
ssg63
g2951
sg56
(lp2962
S':'
asbag49
(g70
g51
NtRp2963
(dp2964
g54
(dp2965
sg63
g2951
sg56
(lp2966
g49
(g50
g51
NtRp2967
(dp2968
g54
(dp2969
g62
I3
ssg63
g2963
sg56
(lp2970
S''
asbasbasbag49
(g65
g51
NtRp2971
(dp2972
g54
(dp2973
sg63
g2907
sg56
(lp2974
g49
(g70
g51
NtRp2975
(dp2976
g54
(dp2977
g74
g75
ssg63
g2971
sg56
(lp2978
g326
asbag49
(g70
g51
NtRp2979
(dp2980
g54
(dp2981
g81
g82
ssg63
g2971
sg56
(lp2982
S':'
asbag49
(g70
g51
NtRp2983
(dp2984
g54
(dp2985
sg63
g2971
sg56
(lp2986
g49
(g50
g51
NtRp2987
(dp2988
g54
(dp2989
g62
I3
ssg63
g2983
sg56
(lp2990
S''
asbasbasbag49
(g65
g51
NtRp2991
(dp2992
g54
(dp2993
sg63
g2907
sg56
(lp2994
g49
(g70
g51
NtRp2995
(dp2996
g54
(dp2997
g74
g75
ssg63
g2991
sg56
(lp2998
g347
asbag49
(g70
g51
NtRp2999
(dp3000
g54
(dp3001
g81
g82
ssg63
g2991
sg56
(lp3002
S':'
asbag49
(g70
g51
NtRp3003
(dp3004
g54
(dp3005
sg63
g2991
sg56
(lp3006
g49
(g50
g51
NtRp3007
(dp3008
g54
(dp3009
g62
I3
ssg63
g3003
sg56
(lp3010
S'/'
asbasbasbag49
(g65
g51
NtRp3011
(dp3012
g54
(dp3013
sg63
g2907
sg56
(lp3014
g49
(g70
g51
NtRp3015
(dp3016
g54
(dp3017
g74
g75
ssg63
g3011
sg56
(lp3018
g368
asbag49
(g70
g51
NtRp3019
(dp3020
g54
(dp3021
g81
g82
ssg63
g3011
sg56
(lp3022
S':'
asbag49
(g70
g51
NtRp3023
(dp3024
g54
(dp3025
sg63
g3011
sg56
(lp3026
g49
(g50
g51
NtRp3027
(dp3028
g54
(dp3029
g62
I3
ssg63
g3023
sg56
(lp3030
S''
asbasbasbag49
(g65
g51
NtRp3031
(dp3032
g54
(dp3033
sg63
g2907
sg56
(lp3034
g49
(g70
g51
NtRp3035
(dp3036
g54
(dp3037
g74
g75
ssg63
g3031
sg56
(lp3038
g389
asbag49
(g70
g51
NtRp3039
(dp3040
g54
(dp3041
g81
g82
ssg63
g3031
sg56
(lp3042
S':'
asbag49
(g70
g51
NtRp3043
(dp3044
g54
(dp3045
sg63
g3031
sg56
(lp3046
g49
(g50
g51
NtRp3047
(dp3048
g54
(dp3049
g62
I3
ssg63
g3043
sg56
(lp3050
S''
asbasbasbasbasbasbasbasbasbasbasbag49
(g65
g51
NtRp3051
(dp3052
g54
(dp3053
sg63
g2837
sg56
(lp3054
g49
(g70
g51
NtRp3055
(dp3056
g54
(dp3057
g74
g75
ssg63
g3051
sg56
(lp3058
S'delimiters'
p3059
asbag49
(g70
g51
NtRp3060
(dp3061
g54
(dp3062
g81
g82
ssg63
g3051
sg56
(lp3063
S':'
asbag49
(g70
g51
NtRp3064
(dp3065
g54
(dp3066
sg63
g3051
sg56
(lp3067
g49
(g50
g51
NtRp3068
(dp3069
g54
(dp3070
g62
I5
ssg63
g3064
sg56
(lp3071
g49
(g58
g51
NtRp3072
(dp3073
g54
(dp3074
g62
I4
ssg63
Nsg56
(lp3075
g49
(g65
g51
NtRp3076
(dp3077
g54
(dp3078
sg63
g3072
sg56
(lp3079
g49
(g70
g51
NtRp3080
(dp3081
g54
(dp3082
sg63
g3076
sg56
(lp3083
g49
(g50
g51
NtRp3084
(dp3085
g54
(dp3086
g62
I4
ssg63
g3080
sg56
(lp3087
S'{{'
p3088
asbasbasbag49
(g65
g51
NtRp3089
(dp3090
g54
(dp3091
sg63
g3072
sg56
(lp3092
g49
(g70
g51
NtRp3093
(dp3094
g54
(dp3095
sg63
g3089
sg56
(lp3096
g49
(g50
g51
NtRp3097
(dp3098
g54
(dp3099
g62
I4
ssg63
g3093
sg56
(lp3100
S'}}'
p3101
asbasbasbasbasbasbasbag49
(g65
g51
NtRp3102
(dp3103
g54
(dp3104
sg63
g2837
sg56
(lp3105
g49
(g70
g51
NtRp3106
(dp3107
g54
(dp3108
g74
g75
ssg63
g3102
sg56
(lp3109
S'files'
p3110
asbag49
(g70
g51
NtRp3111
(dp3112
g54
(dp3113
g81
g82
ssg63
g3102
sg56
(lp3114
S':'
asbag49
(g70
g51
NtRp3115
(dp3116
g54
(dp3117
sg63
g3102
sg56
(lp3118
g49
(g50
g51
NtRp3119
(dp3120
g54
(dp3121
g62
I5
ssg63
g3115
sg56
(lp3122
g49
(g58
g51
NtRp3123
(dp3124
g54
(dp3125
g62
I4
ssg63
Nsg56
(lp3126
g49
(g65
g51
NtRp3127
(dp3128
g54
(dp3129
sg63
g3123
sg56
(lp3130
g49
(g70
g51
NtRp3131
(dp3132
g54
(dp3133
sg63
g3127
sg56
(lp3134
g49
(g50
g51
NtRp3135
(dp3136
g54
(dp3137
g62
I4
ssg63
g3131
sg56
(lp3138
S'/unioeste_code/static/js/jquery.js'
p3139
asbasbasbag49
(g65
g51
NtRp3140
(dp3141
g54
(dp3142
sg63
g3123
sg56
(lp3143
g49
(g70
g51
NtRp3144
(dp3145
g54
(dp3146
sg63
g3140
sg56
(lp3147
g49
(g50
g51
NtRp3148
(dp3149
g54
(dp3150
g62
I4
ssg63
g3144
sg56
(lp3151
S'/unioeste_code/static/css/calendar.css'
p3152
asbasbasbag49
(g65
g51
NtRp3153
(dp3154
g54
(dp3155
sg63
g3123
sg56
(lp3156
g49
(g70
g51
NtRp3157
(dp3158
g54
(dp3159
sg63
g3153
sg56
(lp3160
g49
(g50
g51
NtRp3161
(dp3162
g54
(dp3163
g62
I4
ssg63
g3157
sg56
(lp3164
S'/unioeste_code/static/js/calendar.js'
p3165
asbasbasbag49
(g65
g51
NtRp3166
(dp3167
g54
(dp3168
sg63
g3123
sg56
(lp3169
g49
(g70
g51
NtRp3170
(dp3171
g54
(dp3172
sg63
g3166
sg56
(lp3173
g49
(g50
g51
NtRp3174
(dp3175
g54
(dp3176
g62
I4
ssg63
g3170
sg56
(lp3177
S'/unioeste_code/static/js/web2py.js'
p3178
asbasbasbag49
(g65
g51
NtRp3179
(dp3180
g54
(dp3181
sg63
g3123
sg56
(lp3182
g49
(g70
g51
NtRp3183
(dp3184
g54
(dp3185
sg63
g3179
sg56
(lp3186
g49
(g50
g51
NtRp3187
(dp3188
g54
(dp3189
g62
I4
ssg63
g3183
sg56
(lp3190
S'/unioeste_code/static/css/skeleton.css'
p3191
asbasbasbag49
(g65
g51
NtRp3192
(dp3193
g54
(dp3194
sg63
g3123
sg56
(lp3195
g49
(g70
g51
NtRp3196
(dp3197
g54
(dp3198
sg63
g3192
sg56
(lp3199
g49
(g50
g51
NtRp3200
(dp3201
g54
(dp3202
g62
I4
ssg63
g3196
sg56
(lp3203
S'/unioeste_code/static/css/web2py.css'
p3204
asbasbasbag49
(g65
g51
NtRp3205
(dp3206
g54
(dp3207
sg63
g3123
sg56
(lp3208
g49
(g70
g51
NtRp3209
(dp3210
g54
(dp3211
sg63
g3205
sg56
(lp3212
g49
(g50
g51
NtRp3213
(dp3214
g54
(dp3215
g62
I4
ssg63
g3209
sg56
(lp3216
S'/unioeste_code/static/css/superfish.css'
p3217
asbasbasbag49
(g65
g51
NtRp3218
(dp3219
g54
(dp3220
sg63
g3123
sg56
(lp3221
g49
(g70
g51
NtRp3222
(dp3223
g54
(dp3224
sg63
g3218
sg56
(lp3225
g49
(g50
g51
NtRp3226
(dp3227
g54
(dp3228
g62
I4
ssg63
g3222
sg56
(lp3229
S'/unioeste_code/static/js/superfish.js'
p3230
asbasbasbasbasbasbasbag49
(g65
g51
NtRp3231
(dp3232
g54
(dp3233
sg63
g2837
sg56
(lp3234
g49
(g70
g51
NtRp3235
(dp3236
g54
(dp3237
g74
g75
ssg63
g3231
sg56
(lp3238
S'flash'
p3239
asbag49
(g70
g51
NtRp3240
(dp3241
g54
(dp3242
g81
g82
ssg63
g3231
sg56
(lp3243
S':'
asbag49
(g70
g51
NtRp3244
(dp3245
g54
(dp3246
sg63
g3231
sg56
(lp3247
g49
(g50
g51
NtRp3248
(dp3249
g54
(dp3250
g62
I5
ssg63
g3244
sg56
(lp3251
S''
asbasbasbag49
(g65
g51
NtRp3252
(dp3253
g54
(dp3254
sg63
g2837
sg56
(lp3255
g49
(g70
g51
NtRp3256
(dp3257
g54
(dp3258
g74
g75
ssg63
g3252
sg56
(lp3259
S'generic_patterns'
p3260
asbag49
(g70
g51
NtRp3261
(dp3262
g54
(dp3263
g81
g82
ssg63
g3252
sg56
(lp3264
S':'
asbag49
(g70
g51
NtRp3265
(dp3266
g54
(dp3267
sg63
g3252
sg56
(lp3268
g49
(g50
g51
NtRp3269
(dp3270
g54
(dp3271
g62
I5
ssg63
g3265
sg56
(lp3272
g49
(g58
g51
NtRp3273
(dp3274
g54
(dp3275
g62
I4
ssg63
Nsg56
(lp3276
sbasbasbasbag49
(g65
g51
NtRp3277
(dp3278
g54
(dp3279
sg63
g2837
sg56
(lp3280
g49
(g70
g51
NtRp3281
(dp3282
g54
(dp3283
g74
g75
ssg63
g3277
sg56
(lp3284
S'headers'
p3285
asbag49
(g70
g51
NtRp3286
(dp3287
g54
(dp3288
g81
g82
ssg63
g3277
sg56
(lp3289
S':'
asbag49
(g70
g51
NtRp3290
(dp3291
g54
(dp3292
sg63
g3277
sg56
(lp3293
g49
(g50
g51
NtRp3294
(dp3295
g54
(dp3296
g62
I5
ssg63
g3290
sg56
(lp3297
g49
(g58
g51
NtRp3298
(dp3299
g54
(dp3300
g62
I4
ssg63
Nsg56
(lp3301
g49
(g65
g51
NtRp3302
(dp3303
g54
(dp3304
sg63
g3298
sg56
(lp3305
g49
(g70
g51
NtRp3306
(dp3307
g54
(dp3308
g74
g75
ssg63
g3302
sg56
(lp3309
S'Cache-Control'
p3310
asbag49
(g70
g51
NtRp3311
(dp3312
g54
(dp3313
g81
g82
ssg63
g3302
sg56
(lp3314
S':'
asbag49
(g70
g51
NtRp3315
(dp3316
g54
(dp3317
sg63
g3302
sg56
(lp3318
g49
(g50
g51
NtRp3319
(dp3320
g54
(dp3321
g62
I4
ssg63
g3315
sg56
(lp3322
S'no-store, no-cache, must-revalidate, post-check=0, pre-check=0'
p3323
asbasbasbag49
(g65
g51
NtRp3324
(dp3325
g54
(dp3326
sg63
g3298
sg56
(lp3327
g49
(g70
g51
NtRp3328
(dp3329
g54
(dp3330
g74
g75
ssg63
g3324
sg56
(lp3331
S'Content-Type'
p3332
asbag49
(g70
g51
NtRp3333
(dp3334
g54
(dp3335
g81
g82
ssg63
g3324
sg56
(lp3336
S':'
asbag49
(g70
g51
NtRp3337
(dp3338
g54
(dp3339
sg63
g3324
sg56
(lp3340
g49
(g50
g51
NtRp3341
(dp3342
g54
(dp3343
g62
I4
ssg63
g3337
sg56
(lp3344
S'text/html; charset=utf-8'
p3345
asbasbasbag49
(g65
g51
NtRp3346
(dp3347
g54
(dp3348
sg63
g3298
sg56
(lp3349
g49
(g70
g51
NtRp3350
(dp3351
g54
(dp3352
g74
g75
ssg63
g3346
sg56
(lp3353
S'Expires'
p3354
asbag49
(g70
g51
NtRp3355
(dp3356
g54
(dp3357
g81
g82
ssg63
g3346
sg56
(lp3358
S':'
asbag49
(g70
g51
NtRp3359
(dp3360
g54
(dp3361
sg63
g3346
sg56
(lp3362
g49
(g50
g51
NtRp3363
(dp3364
g54
(dp3365
g62
I4
ssg63
g3359
sg56
(lp3366
S'Mon, 30 Jul 2012 23:28:51 GMT'
p3367
asbasbasbag49
(g65
g51
NtRp3368
(dp3369
g54
(dp3370
sg63
g3298
sg56
(lp3371
g49
(g70
g51
NtRp3372
(dp3373
g54
(dp3374
g74
g75
ssg63
g3368
sg56
(lp3375
S'Pragma'
p3376
asbag49
(g70
g51
NtRp3377
(dp3378
g54
(dp3379
g81
g82
ssg63
g3368
sg56
(lp3380
S':'
asbag49
(g70
g51
NtRp3381
(dp3382
g54
(dp3383
sg63
g3368
sg56
(lp3384
g49
(g50
g51
NtRp3385
(dp3386
g54
(dp3387
g62
I4
ssg63
g3381
sg56
(lp3388
S'no-cache'
p3389
asbasbasbag49
(g65
g51
NtRp3390
(dp3391
g54
(dp3392
sg63
g3298
sg56
(lp3393
g49
(g70
g51
NtRp3394
(dp3395
g54
(dp3396
g74
g75
ssg63
g3390
sg56
(lp3397
S'X-Powered-By'
p3398
asbag49
(g70
g51
NtRp3399
(dp3400
g54
(dp3401
g81
g82
ssg63
g3390
sg56
(lp3402
S':'
asbag49
(g70
g51
NtRp3403
(dp3404
g54
(dp3405
sg63
g3390
sg56
(lp3406
g49
(g50
g51
NtRp3407
(dp3408
g54
(dp3409
g62
I4
ssg63
g3403
sg56
(lp3410
S'web2py'
p3411
asbasbasbasbasbasbasbag49
(g65
g51
NtRp3412
(dp3413
g54
(dp3414
sg63
g2837
sg56
(lp3415
g49
(g70
g51
NtRp3416
(dp3417
g54
(dp3418
g74
g75
ssg63
g3412
sg56
(lp3419
S'menu'
p3420
asbag49
(g70
g51
NtRp3421
(dp3422
g54
(dp3423
g81
g82
ssg63
g3412
sg56
(lp3424
S':'
asbag49
(g70
g51
NtRp3425
(dp3426
g54
(dp3427
sg63
g3412
sg56
(lp3428
g49
(g50
g51
NtRp3429
(dp3430
g54
(dp3431
g62
I5
ssg63
g3425
sg56
(lp3432
g49
(g58
g51
NtRp3433
(dp3434
g54
(dp3435
g62
I4
ssg63
Nsg56
(lp3436
g49
(g65
g51
NtRp3437
(dp3438
g54
(dp3439
sg63
g3433
sg56
(lp3440
g49
(g70
g51
NtRp3441
(dp3442
g54
(dp3443
sg63
g3437
sg56
(lp3444
g49
(g50
g51
NtRp3445
(dp3446
g54
(dp3447
g62
I4
ssg63
g3441
sg56
(lp3448
g49
(g58
g51
NtRp3449
(dp3450
g54
(dp3451
g62
I3
ssg63
Nsg56
(lp3452
g49
(g65
g51
NtRp3453
(dp3454
g54
(dp3455
sg63
g3449
sg56
(lp3456
g49
(g70
g51
NtRp3457
(dp3458
g54
(dp3459
sg63
g3453
sg56
(lp3460
g49
(g50
g51
NtRp3461
(dp3462
g54
(dp3463
g62
I3
ssg63
g3457
sg56
(lp3464
cgluon.languages
lazyT_unpickle
p3465
(S't\x04\x00\x00\x00Home'
tRp3466
asbasbasbag49
(g65
g51
NtRp3467
(dp3468
g54
(dp3469
sg63
g3449
sg56
(lp3470
g49
(g70
g51
NtRp3471
(dp3472
g54
(dp3473
sg63
g3467
sg56
(lp3474
g49
(g50
g51
NtRp3475
(dp3476
g54
(dp3477
g62
I3
ssg63
g3471
sg56
(lp3478
g92
asbasbasbag49
(g65
g51
NtRp3479
(dp3480
g54
(dp3481
sg63
g3449
sg56
(lp3482
g49
(g70
g51
NtRp3483
(dp3484
g54
(dp3485
sg63
g3479
sg56
(lp3486
g49
(g50
g51
NtRp3487
(dp3488
g54
(dp3489
g62
I3
ssg63
g3483
sg56
(lp3490
S'/unioeste_code/default/index'
p3491
asbasbasbag49
(g65
g51
NtRp3492
(dp3493
g54
(dp3494
sg63
g3449
sg56
(lp3495
g49
(g70
g51
NtRp3496
(dp3497
g54
(dp3498
sg63
g3492
sg56
(lp3499
g49
(g50
g51
NtRp3500
(dp3501
g54
(dp3502
g62
I3
ssg63
g3496
sg56
(lp3503
g49
(g58
g51
NtRp3504
(dp3505
g54
(dp3506
g62
I2
ssg63
Nsg56
(lp3507
sbasbasbasbasbasbasbasbag49
(g65
g51
NtRp3508
(dp3509
g54
(dp3510
sg63
g3433
sg56
(lp3511
g49
(g70
g51
NtRp3512
(dp3513
g54
(dp3514
sg63
g3508
sg56
(lp3515
g49
(g50
g51
NtRp3516
(dp3517
g54
(dp3518
g62
I4
ssg63
g3512
sg56
(lp3519
g49
(g58
g51
NtRp3520
(dp3521
g54
(dp3522
g62
I3
ssg63
Nsg56
(lp3523
g49
(g65
g51
NtRp3524
(dp3525
g54
(dp3526
sg63
g3520
sg56
(lp3527
g49
(g70
g51
NtRp3528
(dp3529
g54
(dp3530
sg63
g3524
sg56
(lp3531
g49
(g50
g51
NtRp3532
(dp3533
g54
(dp3534
g62
I3
ssg63
g3528
sg56
(lp3535
g49
(cgluon.html
SPAN
p3536
g51
NtRp3537
(dp3538
g54
(dp3539
g74
S'color:yellow'
p3540
ssg63
g49
(cgluon.html
A
p3541
g51
NtRp3542
(dp3543
g54
(dp3544
S'_onclick'
p3545
S'javascript:void(0);return false;'
p3546
sS'_href'
p3547
S'#'
ssg63
g49
(cgluon.html
LI
p3548
g51
NtRp3549
(dp3550
g54
(dp3551
S'_class'
p3552
S'web2py-menu-expand'
p3553
ssg63
g49
(cgluon.html
UL
p3554
g51
NtRp3555
(dp3556
g54
(dp3557
S'mobile'
p3558
I00
sS'li_class'
p3559
g3553
sg3552
S'sf-menu'
p3560
sS'ul_class'
p3561
S'web2py-menu-vertical'
p3562
sS'li_active'
p3563
S'web2py-menu-active'
p3564
ssg63
Nsg56
(lp3565
g49
(g3548
g51
NtRp3566
(dp3567
g54
(dp3568
sg63
g3555
sg56
(lp3569
g49
(g3541
g51
NtRp3570
(dp3571
g54
(dp3572
g3547
g3491
ssg63
g3566
sg56
(lp3573
g3466
asbasbag3549
asbsg56
(lp3574
g3542
ag49
(g3554
g51
NtRp3575
(dp3576
g54
(dp3577
g3552
g3562
ssg63
g3549
sg56
(lp3578
g49
(g3548
g51
NtRp3579
(dp3580
g54
(dp3581
sg63
g3575
sg56
(lp3582
g49
(g3541
g51
NtRp3583
(dp3584
g54
(dp3585
g3547
S'/admin/default/site'
p3586
ssg63
g3579
sg56
(lp3587
g3465
(S's\x08\x00\x00\x00My Sites'
tRp3588
asbasbag49
(g3548
g51
NtRp3589
(dp3590
g54
(dp3591
g3552
g3553
ssg63
g3575
sg56
(lp3592
g49
(g3541
g51
NtRp3593
(dp3594
g54
(dp3595
g3547
S'/admin/default/design/unioeste_code'
p3596
ssg63
g3589
sg56
(lp3597
g3465
(S's\x08\x00\x00\x00This App'
tRp3598
asbag49
(g3554
g51
NtRp3599
(dp3600
g54
(dp3601
g3552
g3562
ssg63
g3589
sg56
(lp3602
g49
(g3548
g51
NtRp3603
(dp3604
g54
(dp3605
sg63
g3599
sg56
(lp3606
g49
(g3541
g51
NtRp3607
(dp3608
g54
(dp3609
g3547
S'/admin/default/edit/unioeste_code/controllers/default.py'
p3610
ssg63
g3603
sg56
(lp3611
g3465
(S't\x0b\x00\x00\x00Controlador'
tRp3612
asbasbag49
(g3548
g51
NtRp3613
(dp3614
g54
(dp3615
sg63
g3599
sg56
(lp3616
g49
(g3541
g51
NtRp3617
(dp3618
g54
(dp3619
g3547
S'/admin/default/edit/unioeste_code/views/default/index.html'
p3620
ssg63
g3613
sg56
(lp3621
g3465
(S's\x0e\x00\x00\x00Visualiza\xc3\xa7\xc3\xa3o'
tRp3622
asbasbag49
(g3548
g51
NtRp3623
(dp3624
g54
(dp3625
sg63
g3599
sg56
(lp3626
g49
(g3541
g51
NtRp3627
(dp3628
g54
(dp3629
g3547
S'/admin/default/edit/unioeste_code/views/layout.html'
p3630
ssg63
g3623
sg56
(lp3631
g3465
(S't\x06\x00\x00\x00Layout'
tRp3632
asbasbag49
(g3548
g51
NtRp3633
(dp3634
g54
(dp3635
sg63
g3599
sg56
(lp3636
g49
(g3541
g51
NtRp3637
(dp3638
g54
(dp3639
g3547
S'/admin/default/edit/unioeste_code/static/css/web2py.css'
p3640
ssg63
g3633
sg56
(lp3641
g3465
(S't\n\x00\x00\x00Stylesheet'
tRp3642
asbasbag49
(g3548
g51
NtRp3643
(dp3644
g54
(dp3645
sg63
g3599
sg56
(lp3646
g49
(g3541
g51
NtRp3647
(dp3648
g54
(dp3649
g3547
S'/admin/default/edit/unioeste_code/models/db.py'
p3650
ssg63
g3643
sg56
(lp3651
g3465
(S's\t\x00\x00\x00Modelo BD'
tRp3652
asbasbag49
(g3548
g51
NtRp3653
(dp3654
g54
(dp3655
sg63
g3599
sg56
(lp3656
g49
(g3541
g51
NtRp3657
(dp3658
g54
(dp3659
g3547
S'/admin/default/edit/unioeste_code/models/menu.py'
p3660
ssg63
g3653
sg56
(lp3661
g3465
(S's\x0e\x00\x00\x00Modelo de Menu'
tRp3662
asbasbag49
(g3548
g51
NtRp3663
(dp3664
g54
(dp3665
sg63
g3599
sg56
(lp3666
g49
(g3541
g51
NtRp3667
(dp3668
g54
(dp3669
g3547
S'/unioeste_code/appadmin/index'
p3670
ssg63
g3663
sg56
(lp3671
g3465
(S's\x0e\x00\x00\x00Banco de dados'
tRp3672
asbasbag49
(g3548
g51
NtRp3673
(dp3674
g54
(dp3675
sg63
g3599
sg56
(lp3676
g49
(g3541
g51
NtRp3677
(dp3678
g54
(dp3679
g3547
S'/admin/default/errors/unioeste_code'
p3680
ssg63
g3673
sg56
(lp3681
g3465
(S't\x06\x00\x00\x00Errors'
tRp3682
asbasbag49
(g3548
g51
NtRp3683
(dp3684
g54
(dp3685
sg63
g3599
sg56
(lp3686
g49
(g3541
g51
NtRp3687
(dp3688
g54
(dp3689
g3547
S'/admin/default/about/unioeste_code'
p3690
ssg63
g3683
sg56
(lp3691
g3465
(S't\x05\x00\x00\x00About'
tRp3692
asbasbasbasbag49
(g3548
g51
NtRp3693
(dp3694
g54
(dp3695
g3552
g3553
ssg63
g3575
sg56
(lp3696
g49
(g3541
g51
NtRp3697
(dp3698
g54
(dp3699
g3547
S'http://www.web2py.com'
p3700
ssg63
g3693
sg56
(lp3701
S'web2py.com'
p3702
asbag49
(g3554
g51
NtRp3703
(dp3704
g54
(dp3705
g3552
g3562
ssg63
g3693
sg56
(lp3706
g49
(g3548
g51
NtRp3707
(dp3708
g54
(dp3709
sg63
g3703
sg56
(lp3710
g49
(g3541
g51
NtRp3711
(dp3712
g54
(dp3713
g3547
S'http://www.web2py.com/examples/default/download'
p3714
ssg63
g3707
sg56
(lp3715
g3465
(S't\x08\x00\x00\x00Download'
tRp3716
asbasbag49
(g3548
g51
NtRp3717
(dp3718
g54
(dp3719
sg63
g3703
sg56
(lp3720
g49
(g3541
g51
NtRp3721
(dp3722
g54
(dp3723
g3547
S'http://www.web2py.com/examples/default/support'
p3724
ssg63
g3717
sg56
(lp3725
g3465
(S't\x07\x00\x00\x00Support'
tRp3726
asbasbag49
(g3548
g51
NtRp3727
(dp3728
g54
(dp3729
sg63
g3703
sg56
(lp3730
g49
(g3541
g51
NtRp3731
(dp3732
g54
(dp3733
g3547
S'http://web2py.com/demo_admin'
p3734
ssg63
g3727
sg56
(lp3735
g3465
(S't\x04\x00\x00\x00Demo'
tRp3736
asbasbag49
(g3548
g51
NtRp3737
(dp3738
g54
(dp3739
sg63
g3703
sg56
(lp3740
g49
(g3541
g51
NtRp3741
(dp3742
g54
(dp3743
g3547
S'http://web2py.com/examples/default/examples'
p3744
ssg63
g3737
sg56
(lp3745
g3465
(S's\x0e\x00\x00\x00Quick Examples'
tRp3746
asbasbag49
(g3548
g51
NtRp3747
(dp3748
g54
(dp3749
sg63
g3703
sg56
(lp3750
g49
(g3541
g51
NtRp3751
(dp3752
g54
(dp3753
g3547
S'http://web2py.com/AlterEgo'
p3754
ssg63
g3747
sg56
(lp3755
g3465
(S't\x03\x00\x00\x00FAQ'
tRp3756
asbasbag49
(g3548
g51
NtRp3757
(dp3758
g54
(dp3759
sg63
g3703
sg56
(lp3760
g49
(g3541
g51
NtRp3761
(dp3762
g54
(dp3763
g3547
S'http://www.web2py.com/examples/default/videos/'
p3764
ssg63
g3757
sg56
(lp3765
g3465
(S't\x06\x00\x00\x00Videos'
tRp3766
asbasbag49
(g3548
g51
NtRp3767
(dp3768
g54
(dp3769
sg63
g3703
sg56
(lp3770
g49
(g3541
g51
NtRp3771
(dp3772
g54
(dp3773
g3547
S'http://web2py.com/appliances'
p3774
ssg63
g3767
sg56
(lp3775
g3465
(S's\x11\x00\x00\x00Free Applications'
tRp3776
asbasbag49
(g3548
g51
NtRp3777
(dp3778
g54
(dp3779
sg63
g3703
sg56
(lp3780
g49
(g3541
g51
NtRp3781
(dp3782
g54
(dp3783
g3547
S'http://web2py.com/plugins'
p3784
ssg63
g3777
sg56
(lp3785
g3465
(S't\x07\x00\x00\x00Plugins'
tRp3786
asbasbag49
(g3548
g51
NtRp3787
(dp3788
g54
(dp3789
sg63
g3703
sg56
(lp3790
g49
(g3541
g51
NtRp3791
(dp3792
g54
(dp3793
g3547
S'http://web2py.com/layouts'
p3794
ssg63
g3787
sg56
(lp3795
g3465
(S't\x07\x00\x00\x00Layouts'
tRp3796
asbasbag49
(g3548
g51
NtRp3797
(dp3798
g54
(dp3799
sg63
g3703
sg56
(lp3800
g49
(g3541
g51
NtRp3801
(dp3802
g54
(dp3803
g3547
S'http://web2pyslices.com/'
p3804
ssg63
g3797
sg56
(lp3805
g3465
(S't\x07\x00\x00\x00Recipes'
tRp3806
asbasbag49
(g3548
g51
NtRp3807
(dp3808
g54
(dp3809
sg63
g3703
sg56
(lp3810
g49
(g3541
g51
NtRp3811
(dp3812
g54
(dp3813
g3547
S'http://web2py.com/semantic'
p3814
ssg63
g3807
sg56
(lp3815
g3465
(S't\x08\x00\x00\x00Semantic'
tRp3816
asbasbasbasbag49
(g3548
g51
NtRp3817
(dp3818
g54
(dp3819
g3552
g3553
ssg63
g3575
sg56
(lp3820
g49
(g3541
g51
NtRp3821
(dp3822
g54
(dp3823
g3547
S'http://www.web2py.com/book'
p3824
ssg63
g3817
sg56
(lp3825
g3465
(S't\r\x00\x00\x00Documentation'
tRp3826
asbag49
(g3554
g51
NtRp3827
(dp3828
g54
(dp3829
g3552
g3562
ssg63
g3817
sg56
(lp3830
g49
(g3548
g51
NtRp3831
(dp3832
g54
(dp3833
sg63
g3827
sg56
(lp3834
g49
(g3541
g51
NtRp3835
(dp3836
g54
(dp3837
g3547
S'http://www.web2py.com/book/default/chapter/00'
p3838
ssg63
g3831
sg56
(lp3839
g3465
(S't\x07\x00\x00\x00Preface'
tRp3840
asbasbag49
(g3548
g51
NtRp3841
(dp3842
g54
(dp3843
sg63
g3827
sg56
(lp3844
g49
(g3541
g51
NtRp3845
(dp3846
g54
(dp3847
g3547
S'http://www.web2py.com/book/default/chapter/01'
p3848
ssg63
g3841
sg56
(lp3849
g3465
(S't\x0c\x00\x00\x00Introduction'
tRp3850
asbasbag49
(g3548
g51
NtRp3851
(dp3852
g54
(dp3853
sg63
g3827
sg56
(lp3854
g49
(g3541
g51
NtRp3855
(dp3856
g54
(dp3857
g3547
S'http://www.web2py.com/book/default/chapter/02'
p3858
ssg63
g3851
sg56
(lp3859
g3465
(S't\x06\x00\x00\x00Python'
tRp3860
asbasbag49
(g3548
g51
NtRp3861
(dp3862
g54
(dp3863
sg63
g3827
sg56
(lp3864
g49
(g3541
g51
NtRp3865
(dp3866
g54
(dp3867
g3547
S'http://www.web2py.com/book/default/chapter/03'
p3868
ssg63
g3861
sg56
(lp3869
g3465
(S't\x08\x00\x00\x00Overview'
tRp3870
asbasbag49
(g3548
g51
NtRp3871
(dp3872
g54
(dp3873
sg63
g3827
sg56
(lp3874
g49
(g3541
g51
NtRp3875
(dp3876
g54
(dp3877
g3547
S'http://www.web2py.com/book/default/chapter/04'
p3878
ssg63
g3871
sg56
(lp3879
g3465
(S's\x08\x00\x00\x00The Core'
tRp3880
asbasbag49
(g3548
g51
NtRp3881
(dp3882
g54
(dp3883
sg63
g3827
sg56
(lp3884
g49
(g3541
g51
NtRp3885
(dp3886
g54
(dp3887
g3547
S'http://www.web2py.com/book/default/chapter/05'
p3888
ssg63
g3881
sg56
(lp3889
g3465
(S's\t\x00\x00\x00The Views'
tRp3890
asbasbag49
(g3548
g51
NtRp3891
(dp3892
g54
(dp3893
sg63
g3827
sg56
(lp3894
g49
(g3541
g51
NtRp3895
(dp3896
g54
(dp3897
g3547
S'http://www.web2py.com/book/default/chapter/06'
p3898
ssg63
g3891
sg56
(lp3899
g3465
(S's\x0e\x00\x00\x00Banco de dados'
tRp3900
asbasbag49
(g3548
g51
NtRp3901
(dp3902
g54
(dp3903
sg63
g3827
sg56
(lp3904
g49
(g3541
g51
NtRp3905
(dp3906
g54
(dp3907
g3547
S'http://www.web2py.com/book/default/chapter/07'
p3908
ssg63
g3901
sg56
(lp3909
g3465
(S's\x14\x00\x00\x00Forms and Validators'
tRp3910
asbasbag49
(g3548
g51
NtRp3911
(dp3912
g54
(dp3913
sg63
g3827
sg56
(lp3914
g49
(g3541
g51
NtRp3915
(dp3916
g54
(dp3917
g3547
S'http://www.web2py.com/book/default/chapter/08'
p3918
ssg63
g3911
sg56
(lp3919
g3465
(S's\r\x00\x00\x00Email and SMS'
tRp3920
asbasbag49
(g3548
g51
NtRp3921
(dp3922
g54
(dp3923
sg63
g3827
sg56
(lp3924
g49
(g3541
g51
NtRp3925
(dp3926
g54
(dp3927
g3547
S'http://www.web2py.com/book/default/chapter/09'
p3928
ssg63
g3921
sg56
(lp3929
g3465
(S's\x0e\x00\x00\x00Access Control'
tRp3930
asbasbag49
(g3548
g51
NtRp3931
(dp3932
g54
(dp3933
sg63
g3827
sg56
(lp3934
g49
(g3541
g51
NtRp3935
(dp3936
g54
(dp3937
g3547
S'http://www.web2py.com/book/default/chapter/10'
p3938
ssg63
g3931
sg56
(lp3939
g3465
(S't\x08\x00\x00\x00Services'
tRp3940
asbasbag49
(g3548
g51
NtRp3941
(dp3942
g54
(dp3943
sg63
g3827
sg56
(lp3944
g49
(g3541
g51
NtRp3945
(dp3946
g54
(dp3947
g3547
S'http://www.web2py.com/book/default/chapter/11'
p3948
ssg63
g3941
sg56
(lp3949
g3465
(S's\x0c\x00\x00\x00Ajax Recipes'
tRp3950
asbasbag49
(g3548
g51
NtRp3951
(dp3952
g54
(dp3953
sg63
g3827
sg56
(lp3954
g49
(g3541
g51
NtRp3955
(dp3956
g54
(dp3957
g3547
S'http://www.web2py.com/book/default/chapter/12'
p3958
ssg63
g3951
sg56
(lp3959
g3465
(S's\x16\x00\x00\x00Components and Plugins'
tRp3960
asbasbag49
(g3548
g51
NtRp3961
(dp3962
g54
(dp3963
sg63
g3827
sg56
(lp3964
g49
(g3541
g51
NtRp3965
(dp3966
g54
(dp3967
g3547
S'http://www.web2py.com/book/default/chapter/13'
p3968
ssg63
g3961
sg56
(lp3969
g3465
(S's\x12\x00\x00\x00Deployment Recipes'
tRp3970
asbasbag49
(g3548
g51
NtRp3971
(dp3972
g54
(dp3973
sg63
g3827
sg56
(lp3974
g49
(g3541
g51
NtRp3975
(dp3976
g54
(dp3977
g3547
S'http://www.web2py.com/book/default/chapter/14'
p3978
ssg63
g3971
sg56
(lp3979
g3465
(S's\r\x00\x00\x00Other Recipes'
tRp3980
asbasbag49
(g3548
g51
NtRp3981
(dp3982
g54
(dp3983
sg63
g3827
sg56
(lp3984
g49
(g3541
g51
NtRp3985
(dp3986
g54
(dp3987
g3547
S'http://stores.lulu.com/web2py'
p3988
ssg63
g3981
sg56
(lp3989
g3465
(S's\r\x00\x00\x00Buy this book'
tRp3990
asbasbasbasbag49
(g3548
g51
NtRp3991
(dp3992
g54
(dp3993
g3552
g3553
ssg63
g3575
sg56
(lp3994
g49
(g3541
g51
NtRp3995
(dp3996
g54
(dp3997
g3545
g3546
sg3547
S'#'
ssg63
g3991
sg56
(lp3998
g3465
(S't\t\x00\x00\x00Community'
tRp3999
asbag49
(g3554
g51
NtRp4000
(dp4001
g54
(dp4002
g3552
g3562
ssg63
g3991
sg56
(lp4003
g49
(g3548
g51
NtRp4004
(dp4005
g54
(dp4006
sg63
g4000
sg56
(lp4007
g49
(g3541
g51
NtRp4008
(dp4009
g54
(dp4010
g3547
S'http://www.web2py.com/examples/default/usergroups'
p4011
ssg63
g4004
sg56
(lp4012
g3465
(S't\x06\x00\x00\x00Groups'
tRp4013
asbasbag49
(g3548
g51
NtRp4014
(dp4015
g54
(dp4016
sg63
g4000
sg56
(lp4017
g49
(g3541
g51
NtRp4018
(dp4019
g54
(dp4020
g3547
S'http://twitter.com/web2py'
p4021
ssg63
g4014
sg56
(lp4022
g3465
(S't\x07\x00\x00\x00Twitter'
tRp4023
asbasbag49
(g3548
g51
NtRp4024
(dp4025
g54
(dp4026
sg63
g4000
sg56
(lp4027
g49
(g3541
g51
NtRp4028
(dp4029
g54
(dp4030
g3547
S'http://webchat.freenode.net/?channels=web2py'
p4031
ssg63
g4024
sg56
(lp4032
g3465
(S's\t\x00\x00\x00Live Chat'
tRp4033
asbasbasbasbag49
(g3548
g51
NtRp4034
(dp4035
g54
(dp4036
g3552
g3553
ssg63
g3575
sg56
(lp4037
g49
(g3541
g51
NtRp4038
(dp4039
g54
(dp4040
g3545
g3546
sg3547
S'#'
ssg63
g4034
sg56
(lp4041
g3465
(S't\x07\x00\x00\x00Plugins'
tRp4042
asbag49
(g3554
g51
NtRp4043
(dp4044
g54
(dp4045
g3552
g3562
ssg63
g4034
sg56
(lp4046
g49
(g3548
g51
NtRp4047
(dp4048
g54
(dp4049
sg63
g4043
sg56
(lp4050
g49
(g3541
g51
NtRp4051
(dp4052
g54
(dp4053
g3547
S'http://web2py.com/examples/default/download'
p4054
ssg63
g4047
sg56
(lp4055
S'plugin_wiki'
p4056
asbasbag49
(g3548
g51
NtRp4057
(dp4058
g54
(dp4059
sg63
g4043
sg56
(lp4060
g49
(g3541
g51
NtRp4061
(dp4062
g54
(dp4063
g3547
g3784
ssg63
g4057
sg56
(lp4064
g3465
(S's\r\x00\x00\x00Other Plugins'
tRp4065
asbasbag49
(g3548
g51
NtRp4066
(dp4067
g54
(dp4068
sg63
g4043
sg56
(lp4069
g49
(g3541
g51
NtRp4070
(dp4071
g54
(dp4072
g3547
g3794
ssg63
g4066
sg56
(lp4073
g3465
(S's\x0e\x00\x00\x00Layout Plugins'
tRp4074
asbasbasbasbasbasbsg56
(lp4075
g3537
asbsg56
(lp4076
g3411
asbasbasbasbag49
(g65
g51
NtRp4077
(dp4078
g54
(dp4079
sg63
g3520
sg56
(lp4080
g49
(g70
g51
NtRp4081
(dp4082
g54
(dp4083
sg63
g4077
sg56
(lp4084
g49
(g50
g51
NtRp4085
(dp4086
g54
(dp4087
g62
I3
ssg63
g4081
sg56
(lp4088
g92
asbasbasbag49
(g65
g51
NtRp4089
(dp4090
g54
(dp4091
sg63
g3520
sg56
(lp4092
g49
(g70
g51
NtRp4093
(dp4094
g54
(dp4095
sg63
g4089
sg56
(lp4096
g49
(g50
g51
NtRp4097
(dp4098
g54
(dp4099
g62
I3
ssg63
g4093
sg56
(lp4100
S'None'
p4101
asbasbasbag49
(g65
g51
NtRp4102
(dp4103
g54
(dp4104
sg63
g3520
sg56
(lp4105
g49
(g70
g51
NtRp4106
(dp4107
g54
(dp4108
sg63
g4102
sg56
(lp4109
g49
(g50
g51
NtRp4110
(dp4111
g54
(dp4112
g62
I3
ssg63
g4106
sg56
(lp4113
g49
(g58
g51
NtRp4114
(dp4115
g54
(dp4116
g62
I2
ssg63
Nsg56
(lp4117
g49
(g65
g51
NtRp4118
(dp4119
g54
(dp4120
sg63
g4114
sg56
(lp4121
g49
(g70
g51
NtRp4122
(dp4123
g54
(dp4124
sg63
g4118
sg56
(lp4125
g49
(g50
g51
NtRp4126
(dp4127
g54
(dp4128
g62
I2
ssg63
g4122
sg56
(lp4129
g49
(g58
g51
NtRp4130
(dp4131
g54
(dp4132
g62
I1
ssg63
Nsg56
(lp4133
g49
(g65
g51
NtRp4134
(dp4135
g54
(dp4136
sg63
g4130
sg56
(lp4137
g49
(g70
g51
NtRp4138
(dp4139
g54
(dp4140
sg63
g4134
sg56
(lp4141
g49
(g50
g51
NtRp4142
(dp4143
g54
(dp4144
g62
I1
ssg63
g4138
sg56
(lp4145
g3588
asbasbasbag49
(g65
g51
NtRp4146
(dp4147
g54
(dp4148
sg63
g4130
sg56
(lp4149
g49
(g70
g51
NtRp4150
(dp4151
g54
(dp4152
sg63
g4146
sg56
(lp4153
g49
(g50
g51
NtRp4154
(dp4155
g54
(dp4156
g62
I1
ssg63
g4150
sg56
(lp4157
I00
asbasbasbag49
(g65
g51
NtRp4158
(dp4159
g54
(dp4160
sg63
g4130
sg56
(lp4161
g49
(g70
g51
NtRp4162
(dp4163
g54
(dp4164
sg63
g4158
sg56
(lp4165
g49
(g50
g51
NtRp4166
(dp4167
g54
(dp4168
g62
I1
ssg63
g4162
sg56
(lp4169
g3586
asbasbasbasbasbasbasbag49
(g65
g51
NtRp4170
(dp4171
g54
(dp4172
sg63
g4114
sg56
(lp4173
g49
(g70
g51
NtRp4174
(dp4175
g54
(dp4176
sg63
g4170
sg56
(lp4177
g49
(g50
g51
NtRp4178
(dp4179
g54
(dp4180
g62
I2
ssg63
g4174
sg56
(lp4181
g49
(g58
g51
NtRp4182
(dp4183
g54
(dp4184
g62
I1
ssg63
Nsg56
(lp4185
g49
(g65
g51
NtRp4186
(dp4187
g54
(dp4188
sg63
g4182
sg56
(lp4189
g49
(g70
g51
NtRp4190
(dp4191
g54
(dp4192
sg63
g4186
sg56
(lp4193
g49
(g50
g51
NtRp4194
(dp4195
g54
(dp4196
g62
I1
ssg63
g4190
sg56
(lp4197
g3598
asbasbasbag49
(g65
g51
NtRp4198
(dp4199
g54
(dp4200
sg63
g4182
sg56
(lp4201
g49
(g70
g51
NtRp4202
(dp4203
g54
(dp4204
sg63
g4198
sg56
(lp4205
g49
(g50
g51
NtRp4206
(dp4207
g54
(dp4208
g62
I1
ssg63
g4202
sg56
(lp4209
I00
asbasbasbag49
(g65
g51
NtRp4210
(dp4211
g54
(dp4212
sg63
g4182
sg56
(lp4213
g49
(g70
g51
NtRp4214
(dp4215
g54
(dp4216
sg63
g4210
sg56
(lp4217
g49
(g50
g51
NtRp4218
(dp4219
g54
(dp4220
g62
I1
ssg63
g4214
sg56
(lp4221
g3596
asbasbasbag49
(g65
g51
NtRp4222
(dp4223
g54
(dp4224
sg63
g4182
sg56
(lp4225
g49
(g70
g51
NtRp4226
(dp4227
g54
(dp4228
sg63
g4222
sg56
(lp4229
g49
(g50
g51
NtRp4230
(dp4231
g54
(dp4232
g62
I1
ssg63
g4226
sg56
(lp4233
(lp4234
(g3612
I00
g3610
tp4235
a(g3622
I00
g3620
tp4236
a(g3632
I00
g3630
tp4237
a(g3642
I00
g3640
tp4238
a(g3652
I00
g3650
tp4239
a(g3662
I00
g3660
tp4240
a(g3672
I00
g3670
tp4241
a(g3682
I00
g3680
tp4242
a(g3692
I00
g3690
tp4243
aasbasbasbasbasbasbasbag49
(g65
g51
NtRp4244
(dp4245
g54
(dp4246
sg63
g4114
sg56
(lp4247
g49
(g70
g51
NtRp4248
(dp4249
g54
(dp4250
sg63
g4244
sg56
(lp4251
g49
(g50
g51
NtRp4252
(dp4253
g54
(dp4254
g62
I2
ssg63
g4248
sg56
(lp4255
g49
(g58
g51
NtRp4256
(dp4257
g54
(dp4258
g62
I1
ssg63
Nsg56
(lp4259
g49
(g65
g51
NtRp4260
(dp4261
g54
(dp4262
sg63
g4256
sg56
(lp4263
g49
(g70
g51
NtRp4264
(dp4265
g54
(dp4266
sg63
g4260
sg56
(lp4267
g49
(g50
g51
NtRp4268
(dp4269
g54
(dp4270
g62
I1
ssg63
g4264
sg56
(lp4271
g3702
asbasbasbag49
(g65
g51
NtRp4272
(dp4273
g54
(dp4274
sg63
g4256
sg56
(lp4275
g49
(g70
g51
NtRp4276
(dp4277
g54
(dp4278
sg63
g4272
sg56
(lp4279
g49
(g50
g51
NtRp4280
(dp4281
g54
(dp4282
g62
I1
ssg63
g4276
sg56
(lp4283
I00
asbasbasbag49
(g65
g51
NtRp4284
(dp4285
g54
(dp4286
sg63
g4256
sg56
(lp4287
g49
(g70
g51
NtRp4288
(dp4289
g54
(dp4290
sg63
g4284
sg56
(lp4291
g49
(g50
g51
NtRp4292
(dp4293
g54
(dp4294
g62
I1
ssg63
g4288
sg56
(lp4295
g3700
asbasbasbag49
(g65
g51
NtRp4296
(dp4297
g54
(dp4298
sg63
g4256
sg56
(lp4299
g49
(g70
g51
NtRp4300
(dp4301
g54
(dp4302
sg63
g4296
sg56
(lp4303
g49
(g50
g51
NtRp4304
(dp4305
g54
(dp4306
g62
I1
ssg63
g4300
sg56
(lp4307
(lp4308
(g3716
I00
g3714
tp4309
a(g3726
I00
g3724
tp4310
a(g3736
I00
g3734
tp4311
a(g3746
I00
g3744
tp4312
a(g3756
I00
g3754
tp4313
a(g3766
I00
g3764
tp4314
a(g3776
I00
g3774
tp4315
a(g3786
I00
g3784
tp4316
a(g3796
I00
g3794
tp4317
a(g3806
I00
g3804
tp4318
a(g3816
I00
g3814
tp4319
aasbasbasbasbasbasbasbag49
(g65
g51
NtRp4320
(dp4321
g54
(dp4322
sg63
g4114
sg56
(lp4323
g49
(g70
g51
NtRp4324
(dp4325
g54
(dp4326
sg63
g4320
sg56
(lp4327
g49
(g50
g51
NtRp4328
(dp4329
g54
(dp4330
g62
I2
ssg63
g4324
sg56
(lp4331
g49
(g58
g51
NtRp4332
(dp4333
g54
(dp4334
g62
I1
ssg63
Nsg56
(lp4335
g49
(g65
g51
NtRp4336
(dp4337
g54
(dp4338
sg63
g4332
sg56
(lp4339
g49
(g70
g51
NtRp4340
(dp4341
g54
(dp4342
sg63
g4336
sg56
(lp4343
g49
(g50
g51
NtRp4344
(dp4345
g54
(dp4346
g62
I1
ssg63
g4340
sg56
(lp4347
g3826
asbasbasbag49
(g65
g51
NtRp4348
(dp4349
g54
(dp4350
sg63
g4332
sg56
(lp4351
g49
(g70
g51
NtRp4352
(dp4353
g54
(dp4354
sg63
g4348
sg56
(lp4355
g49
(g50
g51
NtRp4356
(dp4357
g54
(dp4358
g62
I1
ssg63
g4352
sg56
(lp4359
I00
asbasbasbag49
(g65
g51
NtRp4360
(dp4361
g54
(dp4362
sg63
g4332
sg56
(lp4363
g49
(g70
g51
NtRp4364
(dp4365
g54
(dp4366
sg63
g4360
sg56
(lp4367
g49
(g50
g51
NtRp4368
(dp4369
g54
(dp4370
g62
I1
ssg63
g4364
sg56
(lp4371
g3824
asbasbasbag49
(g65
g51
NtRp4372
(dp4373
g54
(dp4374
sg63
g4332
sg56
(lp4375
g49
(g70
g51
NtRp4376
(dp4377
g54
(dp4378
sg63
g4372
sg56
(lp4379
g49
(g50
g51
NtRp4380
(dp4381
g54
(dp4382
g62
I1
ssg63
g4376
sg56
(lp4383
(lp4384
(g3840
I00
g3838
tp4385
a(g3850
I00
g3848
tp4386
a(g3860
I00
g3858
tp4387
a(g3870
I00
g3868
tp4388
a(g3880
I00
g3878
tp4389
a(g3890
I00
g3888
tp4390
a(g3900
I00
g3898
tp4391
a(g3910
I00
g3908
tp4392
a(g3920
I00
g3918
tp4393
a(g3930
I00
g3928
tp4394
a(g3940
I00
g3938
tp4395
a(g3950
I00
g3948
tp4396
a(g3960
I00
g3958
tp4397
a(g3970
I00
g3968
tp4398
a(g3980
I00
g3978
tp4399
a(g3990
I00
g3988
tp4400
aasbasbasbasbasbasbasbag49
(g65
g51
NtRp4401
(dp4402
g54
(dp4403
sg63
g4114
sg56
(lp4404
g49
(g70
g51
NtRp4405
(dp4406
g54
(dp4407
sg63
g4401
sg56
(lp4408
g49
(g50
g51
NtRp4409
(dp4410
g54
(dp4411
g62
I2
ssg63
g4405
sg56
(lp4412
g49
(g58
g51
NtRp4413
(dp4414
g54
(dp4415
g62
I1
ssg63
Nsg56
(lp4416
g49
(g65
g51
NtRp4417
(dp4418
g54
(dp4419
sg63
g4413
sg56
(lp4420
g49
(g70
g51
NtRp4421
(dp4422
g54
(dp4423
sg63
g4417
sg56
(lp4424
g49
(g50
g51
NtRp4425
(dp4426
g54
(dp4427
g62
I1
ssg63
g4421
sg56
(lp4428
g3999
asbasbasbag49
(g65
g51
NtRp4429
(dp4430
g54
(dp4431
sg63
g4413
sg56
(lp4432
g49
(g70
g51
NtRp4433
(dp4434
g54
(dp4435
sg63
g4429
sg56
(lp4436
g49
(g50
g51
NtRp4437
(dp4438
g54
(dp4439
g62
I1
ssg63
g4433
sg56
(lp4440
I00
asbasbasbag49
(g65
g51
NtRp4441
(dp4442
g54
(dp4443
sg63
g4413
sg56
(lp4444
g49
(g70
g51
NtRp4445
(dp4446
g54
(dp4447
sg63
g4441
sg56
(lp4448
g49
(g50
g51
NtRp4449
(dp4450
g54
(dp4451
g62
I1
ssg63
g4445
sg56
(lp4452
Nasbasbasbag49
(g65
g51
NtRp4453
(dp4454
g54
(dp4455
sg63
g4413
sg56
(lp4456
g49
(g70
g51
NtRp4457
(dp4458
g54
(dp4459
sg63
g4453
sg56
(lp4460
g49
(g50
g51
NtRp4461
(dp4462
g54
(dp4463
g62
I1
ssg63
g4457
sg56
(lp4464
(lp4465
(g4013
I00
g4011
tp4466
a(g4023
I00
g4021
tp4467
a(g4033
I00
g4031
tp4468
aasbasbasbasbasbasbasbag49
(g65
g51
NtRp4469
(dp4470
g54
(dp4471
sg63
g4114
sg56
(lp4472
g49
(g70
g51
NtRp4473
(dp4474
g54
(dp4475
sg63
g4469
sg56
(lp4476
g49
(g50
g51
NtRp4477
(dp4478
g54
(dp4479
g62
I2
ssg63
g4473
sg56
(lp4480
g49
(g58
g51
NtRp4481
(dp4482
g54
(dp4483
g62
I1
ssg63
Nsg56
(lp4484
g49
(g65
g51
NtRp4485
(dp4486
g54
(dp4487
sg63
g4481
sg56
(lp4488
g49
(g70
g51
NtRp4489
(dp4490
g54
(dp4491
sg63
g4485
sg56
(lp4492
g49
(g50
g51
NtRp4493
(dp4494
g54
(dp4495
g62
I1
ssg63
g4489
sg56
(lp4496
g4042
asbasbasbag49
(g65
g51
NtRp4497
(dp4498
g54
(dp4499
sg63
g4481
sg56
(lp4500
g49
(g70
g51
NtRp4501
(dp4502
g54
(dp4503
sg63
g4497
sg56
(lp4504
g49
(g50
g51
NtRp4505
(dp4506
g54
(dp4507
g62
I1
ssg63
g4501
sg56
(lp4508
I00
asbasbasbag49
(g65
g51
NtRp4509
(dp4510
g54
(dp4511
sg63
g4481
sg56
(lp4512
g49
(g70
g51
NtRp4513
(dp4514
g54
(dp4515
sg63
g4509
sg56
(lp4516
g49
(g50
g51
NtRp4517
(dp4518
g54
(dp4519
g62
I1
ssg63
g4513
sg56
(lp4520
Nasbasbasbag49
(g65
g51
NtRp4521
(dp4522
g54
(dp4523
sg63
g4481
sg56
(lp4524
g49
(g70
g51
NtRp4525
(dp4526
g54
(dp4527
sg63
g4521
sg56
(lp4528
g49
(g50
g51
NtRp4529
(dp4530
g54
(dp4531
g62
I1
ssg63
g4525
sg56
(lp4532
(lp4533
(g4056
I00
g4054
tp4534
a(g4065
I00
g3784
tp4535
a(g4074
I00
g3794
tp4536
aasbasbasbasbasbasbasbasbasbasbasbasbasbasbasbasbasbasbasbag49
(g65
g51
NtRp4537
(dp4538
g54
(dp4539
sg63
g2837
sg56
(lp4540
g49
(g70
g51
NtRp4541
(dp4542
g54
(dp4543
g74
g75
ssg63
g4537
sg56
(lp4544
S'meta'
p4545
asbag49
(g70
g51
NtRp4546
(dp4547
g54
(dp4548
g81
g82
ssg63
g4537
sg56
(lp4549
S':'
asbag49
(g70
g51
NtRp4550
(dp4551
g54
(dp4552
sg63
g4537
sg56
(lp4553
g49
(g50
g51
NtRp4554
(dp4555
g54
(dp4556
g62
I5
ssg63
g4550
sg56
(lp4557
g49
(g58
g51
NtRp4558
(dp4559
g54
(dp4560
g62
I4
ssg63
Nsg56
(lp4561
g49
(g65
g51
NtRp4562
(dp4563
g54
(dp4564
sg63
g4558
sg56
(lp4565
g49
(g70
g51
NtRp4566
(dp4567
g54
(dp4568
g74
g75
ssg63
g4562
sg56
(lp4569
S'author'
p4570
asbag49
(g70
g51
NtRp4571
(dp4572
g54
(dp4573
g81
g82
ssg63
g4562
sg56
(lp4574
S':'
asbag49
(g70
g51
NtRp4575
(dp4576
g54
(dp4577
sg63
g4562
sg56
(lp4578
g49
(g50
g51
NtRp4579
(dp4580
g54
(dp4581
g62
I4
ssg63
g4575
sg56
(lp4582
S'Your Name <you@example.com>'
p4583
asbasbasbag49
(g65
g51
NtRp4584
(dp4585
g54
(dp4586
sg63
g4558
sg56
(lp4587
g49
(g70
g51
NtRp4588
(dp4589
g54
(dp4590
g74
g75
ssg63
g4584
sg56
(lp4591
S'copyright'
p4592
asbag49
(g70
g51
NtRp4593
(dp4594
g54
(dp4595
g81
g82
ssg63
g4584
sg56
(lp4596
S':'
asbag49
(g70
g51
NtRp4597
(dp4598
g54
(dp4599
sg63
g4584
sg56
(lp4600
g49
(g50
g51
NtRp4601
(dp4602
g54
(dp4603
g62
I4
ssg63
g4597
sg56
(lp4604
S'Copyright 2011'
p4605
asbasbasbag49
(g65
g51
NtRp4606
(dp4607
g54
(dp4608
sg63
g4558
sg56
(lp4609
g49
(g70
g51
NtRp4610
(dp4611
g54
(dp4612
g74
g75
ssg63
g4606
sg56
(lp4613
S'description'
p4614
asbag49
(g70
g51
NtRp4615
(dp4616
g54
(dp4617
g81
g82
ssg63
g4606
sg56
(lp4618
S':'
asbag49
(g70
g51
NtRp4619
(dp4620
g54
(dp4621
sg63
g4606
sg56
(lp4622
g49
(g50
g51
NtRp4623
(dp4624
g54
(dp4625
g62
I4
ssg63
g4619
sg56
(lp4626
S'a cool new app'
p4627
asbasbasbag49
(g65
g51
NtRp4628
(dp4629
g54
(dp4630
sg63
g4558
sg56
(lp4631
g49
(g70
g51
NtRp4632
(dp4633
g54
(dp4634
g74
g75
ssg63
g4628
sg56
(lp4635
S'generator'
p4636
asbag49
(g70
g51
NtRp4637
(dp4638
g54
(dp4639
g81
g82
ssg63
g4628
sg56
(lp4640
S':'
asbag49
(g70
g51
NtRp4641
(dp4642
g54
(dp4643
sg63
g4628
sg56
(lp4644
g49
(g50
g51
NtRp4645
(dp4646
g54
(dp4647
g62
I4
ssg63
g4641
sg56
(lp4648
S'Web2py Web Framework'
p4649
asbasbasbag49
(g65
g51
NtRp4650
(dp4651
g54
(dp4652
sg63
g4558
sg56
(lp4653
g49
(g70
g51
NtRp4654
(dp4655
g54
(dp4656
g74
g75
ssg63
g4650
sg56
(lp4657
S'keywords'
p4658
asbag49
(g70
g51
NtRp4659
(dp4660
g54
(dp4661
g81
g82
ssg63
g4650
sg56
(lp4662
S':'
asbag49
(g70
g51
NtRp4663
(dp4664
g54
(dp4665
sg63
g4650
sg56
(lp4666
g49
(g50
g51
NtRp4667
(dp4668
g54
(dp4669
g62
I4
ssg63
g4663
sg56
(lp4670
S'web2py, python, framework'
p4671
asbasbasbasbasbasbasbag49
(g65
g51
NtRp4672
(dp4673
g54
(dp4674
sg63
g2837
sg56
(lp4675
g49
(g70
g51
NtRp4676
(dp4677
g54
(dp4678
g74
g75
ssg63
g4672
sg56
(lp4679
S'postprocessing'
p4680
asbag49
(g70
g51
NtRp4681
(dp4682
g54
(dp4683
g81
g82
ssg63
g4672
sg56
(lp4684
S':'
asbag49
(g70
g51
NtRp4685
(dp4686
g54
(dp4687
sg63
g4672
sg56
(lp4688
g49
(g50
g51
NtRp4689
(dp4690
g54
(dp4691
g62
I5
ssg63
g4685
sg56
(lp4692
g49
(g58
g51
NtRp4693
(dp4694
g54
(dp4695
g62
I4
ssg63
Nsg56
(lp4696
sbasbasbasbag49
(g65
g51
NtRp4697
(dp4698
g54
(dp4699
sg63
g2837
sg56
(lp4700
g49
(g70
g51
NtRp4701
(dp4702
g54
(dp4703
g74
g75
ssg63
g4697
sg56
(lp4704
S'session_filename'
p4705
asbag49
(g70
g51
NtRp4706
(dp4707
g54
(dp4708
g81
g82
ssg63
g4697
sg56
(lp4709
S':'
asbag49
(g70
g51
NtRp4710
(dp4711
g54
(dp4712
sg63
g4697
sg56
(lp4713
g49
(g50
g51
NtRp4714
(dp4715
g54
(dp4716
g62
I5
ssg63
g4710
sg56
(lp4717
S'C:\\web2py\\applications\\unioeste_code\\sessions\\127.0.0.1-6eade083-00a4-4790-8aef-675f7890e2c6'
p4718
asbasbasbag49
(g65
g51
NtRp4719
(dp4720
g54
(dp4721
sg63
g2837
sg56
(lp4722
g49
(g70
g51
NtRp4723
(dp4724
g54
(dp4725
g74
g75
ssg63
g4719
sg56
(lp4726
S'session_id'
p4727
asbag49
(g70
g51
NtRp4728
(dp4729
g54
(dp4730
g81
g82
ssg63
g4719
sg56
(lp4731
S':'
asbag49
(g70
g51
NtRp4732
(dp4733
g54
(dp4734
sg63
g4719
sg56
(lp4735
g49
(g50
g51
NtRp4736
(dp4737
g54
(dp4738
g62
I5
ssg63
g4732
sg56
(lp4739
S'127.0.0.1-6eade083-00a4-4790-8aef-675f7890e2c6'
p4740
asbasbasbag49
(g65
g51
NtRp4741
(dp4742
g54
(dp4743
sg63
g2837
sg56
(lp4744
g49
(g70
g51
NtRp4745
(dp4746
g54
(dp4747
g74
g75
ssg63
g4741
sg56
(lp4748
S'session_id_name'
p4749
asbag49
(g70
g51
NtRp4750
(dp4751
g54
(dp4752
g81
g82
ssg63
g4741
sg56
(lp4753
S':'
asbag49
(g70
g51
NtRp4754
(dp4755
g54
(dp4756
sg63
g4741
sg56
(lp4757
g49
(g50
g51
NtRp4758
(dp4759
g54
(dp4760
g62
I5
ssg63
g4754
sg56
(lp4761
g2894
asbasbasbag49
(g65
g51
NtRp4762
(dp4763
g54
(dp4764
sg63
g2837
sg56
(lp4765
g49
(g70
g51
NtRp4766
(dp4767
g54
(dp4768
g74
g75
ssg63
g4762
sg56
(lp4769
S'session_new'
p4770
asbag49
(g70
g51
NtRp4771
(dp4772
g54
(dp4773
g81
g82
ssg63
g4762
sg56
(lp4774
S':'
asbag49
(g70
g51
NtRp4775
(dp4776
g54
(dp4777
sg63
g4762
sg56
(lp4778
g49
(g50
g51
NtRp4779
(dp4780
g54
(dp4781
g62
I5
ssg63
g4775
sg56
(lp4782
g1443
asbasbasbag49
(g65
g51
NtRp4783
(dp4784
g54
(dp4785
sg63
g2837
sg56
(lp4786
g49
(g70
g51
NtRp4787
(dp4788
g54
(dp4789
g74
g75
ssg63
g4783
sg56
(lp4790
S'status'
p4791
asbag49
(g70
g51
NtRp4792
(dp4793
g54
(dp4794
g81
g82
ssg63
g4783
sg56
(lp4795
S':'
asbag49
(g70
g51
NtRp4796
(dp4797
g54
(dp4798
sg63
g4783
sg56
(lp4799
g49
(g50
g51
NtRp4800
(dp4801
g54
(dp4802
g62
I5
ssg63
g4796
sg56
(lp4803
S'200'
p4804
asbasbasbag49
(g65
g51
NtRp4805
(dp4806
g54
(dp4807
sg63
g2837
sg56
(lp4808
g49
(g70
g51
NtRp4809
(dp4810
g54
(dp4811
g74
g75
ssg63
g4805
sg56
(lp4812
S'subtitle'
p4813
asbag49
(g70
g51
NtRp4814
(dp4815
g54
(dp4816
g81
g82
ssg63
g4805
sg56
(lp4817
S':'
asbag49
(g70
g51
NtRp4818
(dp4819
g54
(dp4820
sg63
g4805
sg56
(lp4821
g49
(g50
g51
NtRp4822
(dp4823
g54
(dp4824
g62
I5
ssg63
g4818
sg56
(lp4825
g3465
(S's\x0f\x00\x00\x00Personalize-me!'
tRp4826
asbasbasbag49
(g65
g51
NtRp4827
(dp4828
g54
(dp4829
sg63
g2837
sg56
(lp4830
g49
(g70
g51
NtRp4831
(dp4832
g54
(dp4833
g74
g75
ssg63
g4827
sg56
(lp4834
S'title'
p4835
asbag49
(g70
g51
NtRp4836
(dp4837
g54
(dp4838
g81
g82
ssg63
g4827
sg56
(lp4839
S':'
asbag49
(g70
g51
NtRp4840
(dp4841
g54
(dp4842
sg63
g4827
sg56
(lp4843
g49
(g50
g51
NtRp4844
(dp4845
g54
(dp4846
g62
I5
ssg63
g4840
sg56
(lp4847
S'Unioeste Code'
p4848
asbasbasbag49
(g65
g51
NtRp4849
(dp4850
g54
(dp4851
sg63
g2837
sg56
(lp4852
g49
(g70
g51
NtRp4853
(dp4854
g54
(dp4855
g74
g75
ssg63
g4849
sg56
(lp4856
g2107
asbag49
(g70
g51
NtRp4857
(dp4858
g54
(dp4859
g81
g82
ssg63
g4849
sg56
(lp4860
S':'
asbag49
(g70
g51
NtRp4861
(dp4862
g54
(dp4863
sg63
g4849
sg56
(lp4864
g49
(g50
g51
NtRp4865
(dp4866
g54
(dp4867
g62
I5
ssg63
g4861
sg56
(lp4868
g2120
asbasbasbag49
(g65
g51
NtRp4869
(dp4870
g54
(dp4871
sg63
g2837
sg56
(lp4872
g49
(g70
g51
NtRp4873
(dp4874
g54
(dp4875
g74
g75
ssg63
g4869
sg56
(lp4876
S'view'
p4877
asbag49
(g70
g51
NtRp4878
(dp4879
g54
(dp4880
g81
g82
ssg63
g4869
sg56
(lp4881
S':'
asbag49
(g70
g51
NtRp4882
(dp4883
g54
(dp4884
sg63
g4869
sg56
(lp4885
g49
(g50
g51
NtRp4886
(dp4887
g54
(dp4888
g62
I5
ssg63
g4882
sg56
(lp4889
S'default/index.html'
p4890
asbasbasbasbasbsS'locals'
p4891
(dp4892
S'fromlist'
p4893
S"('Gravatar',)"
p4894
sS'name'
p4895
S"'gravatar'"
p4896
sg62
S'-1'
p4897
sS'self'
p4898
S'<gluon.custom_import._Web2pyImporter object at 0x030613B0>'
p4899
sS'globals'
p4900
S"{'A': <class 'gluon.html.A'>, 'Auth': <class 'gluon.tools.Auth'>, 'B': <class 'gluon.html.B'>, 'BEAUTIFY': <class 'gluon.html.BEAUTIFY'>, 'BODY': <class 'gluon.html.BODY'>, 'BR': <class 'gluon.html.BR'>, 'BUTTON': <class 'gluon.html.BUTTON'>, 'CAT': <class 'gluon.html.CAT'>, 'CENTER': <class 'gluon.html.CENTER'>, 'CLEANUP': <class 'gluon.validators.CLEANUP'>, ...}"
p4901
sg4891
S"{'A': <class 'gluon.html.A'>, 'Auth': <class 'gluon.tools.Auth'>, 'B': <class 'gluon.html.B'>, 'BEAUTIFY': <class 'gluon.html.BEAUTIFY'>, 'BODY': <class 'gluon.html.BODY'>, 'BR': <class 'gluon.html.BR'>, 'BUTTON': <class 'gluon.html.BUTTON'>, 'CAT': <class 'gluon.html.CAT'>, 'CENTER': <class 'gluon.html.CENTER'>, 'CLEANUP': <class 'gluon.validators.CLEANUP'>, ...}"
p4902
sssS'traceback'
p4903
S'Traceback (most recent call last):\n  File "gluon/restricted.py", line 205, in restricted\n  File "C:\\web2py\\applications\\unioeste_code\\views\\default/index.html", line 90, in <module>\n  File "gluon/custom_import.py", line 293, in __call__\n  File "gluon/custom_import.py", line 78, in __call__\nImportError: No module named gravatar\n'
p4904
s.