(dp1
S'output'
p2
S"<type 'exceptions.SyntaxError'> invalid syntax (default/Problem.html, line 10)"
p3
sS'layer'
p4
S'C:\\web2py\\applications\\unioeste_code\\views\\default/Problem.html'
p5
sS'code'
p6
S'response.write(\' \', escape=False)\nresponse.write(\'<!DOCTYPE html>\\r\\n<html lang="en">\\r\\n  <head>\\r\\n    <meta charset="utf-8">\\r\\n    <title>\', escape=False)\nresponse.write(response.title or request.application)\nresponse.write(\'</title>\\r\\n    <meta name="viewport" content="width=device-width, initial-scale=1.0">\\r\\n    <meta name="description" content="">\\r\\n    <meta name="author" content="">\\r\\n\\r\\n    <!-- Le HTML5 shim, for IE6-8 support of HTML5 elements -->\\r\\n    <!--[if lt IE 9]>\\r\\n      <script src="http://html5shim.googlecode.com/svn/trunk/html5.js"></script>\\r\\n    <![endif]-->\\r\\n\\r\\n    <!-- Le fav and touch icons -->\\r\\n    <link rel="shortcut icon" href="../assets/ico/favicon.ico">\\r\\n    <link rel="apple-touch-icon-precomposed" sizes="144x144" href="../assets/ico/apple-touch-icon-144-precomposed.png">\\r\\n    <link rel="apple-touch-icon-precomposed" sizes="114x114" href="../assets/ico/apple-touch-icon-114-precomposed.png">\\r\\n    <link rel="apple-touch-icon-precomposed" sizes="72x72" href="../assets/ico/apple-touch-icon-72-precomposed.png">\\r\\n    <link rel="apple-touch-icon-precomposed" href="../assets/ico/apple-touch-icon-57-precomposed.png">\\r\\n\\r\\n    <!-- include stylesheets -->\\r\\n\\r\\n    <link href="/unioeste_code/static/css/bootstrap.css" rel="stylesheet">\\r\\n    <link href="/unioeste_code/static/css/bootstrap-responsive.css" rel="stylesheet">\\r\\n    <script src="/unioeste_code/static/js/jquery.js" type="text/javascript"></script>\\r\\n    <script src="/unioeste_code/static/js/bootstrap.js" type="text/javascript"></script>\\r\\n\\r\\n    <!-- Distancia do topo pro layout-->\\r\\n      <style>\\r\\n      body {\\r\\n        padding-top: 60px; /* 60px to make the container go all the way to the bottom of the topbar */\\r\\n      }\\r\\n      </style>\\r\\n\\r\\n      <!-- Le CSS customizado, font e tals-->\\r\\n      <link href="/unioeste_code/static/css/font_style.css" rel="stylesheet">\\r\\n\\r\\n  </head>\\r\\n\\r\\n  <body>\\r\\n\\r\\n    <div class="navbar navbar-fixed-top">\\r\\n      <div class="navbar-inner">\\r\\n        <div class="container">\\r\\n          <a class="btn btn-navbar" data-toggle="collapse" data-target=".nav-collapse">\\r\\n            <span class="icon-bar"></span>\\r\\n            <span class="icon-bar"></span>\\r\\n            <span class="icon-bar"></span>\\r\\n          </a>\\r\\n          <a class="brand" href="\', escape=False)\nresponse.write(URL(\'index\'))\nresponse.write(\'">\', escape=False)\nresponse.write(response.title or request.application)\nresponse.write(\'</a>\\r\\n          <div class="nav-collapse">\\r\\n          <ul class="nav pull-right">\\r\\n            <li class="divider-vertical"></li>\\r\\n            <li class="uc_topbar"><a href="#">Sobre</a></li>\\r\\n            <li class="divider-vertical"></li>\\r\\n            <li class="uc_topbar"><a href="#">Login!</a></li>\\r\\n            <li class="divider-vertical"></li>\\r\\n\\r\\n<!-- Drop Down Login\\r\\n            <li class="dropdown">\\r\\n              <a href="#" class="dropdown-toggle" data-toggle="dropdown">Dropdown <b class="caret"></b></a>\\r\\n              <ul class="dropdown-menu">\\r\\n                <li><a href="#">Action</a></li>\\r\\n                <li><a href="#">Another action</a></li>\\r\\n                <li><a href="#">Something else here</a></li>\\r\\n                <li class="divider"></li>\\r\\n                <li><a href="#">Separated link</a></li>\\r\\n              </ul>\\r\\n            </li>\\r\\n          </ul>\\r\\n-->\\r\\n          </div><!--/.nav-collapse -->\\r\\n        </div>\\r\\n      </div>\\r\\n    </div>\\r\\n\\r\\n<!-- Corpo principal da p\\xc3\\xa1gina! -->\\r\\n  \\r\\n    <div class="container">\\r\\n      \', escape=False)\nresponse.write(\'auth\' in globals() and auth.navbar(prefix="")\nresponse.write(\'\\r\\n\\r\\n      \', escape=False)\nresponse.write(\'\\r\\n      \', escape=False)\nresponse.write(\'\\r\\n\\r\\n\\r\\n <head>\\r\\n <script src="../../static/lib/codemirror.js"></script>\\r\\n <link rel="stylesheet" href="../../static/lib/codemirror.css">\\r\\n <script src="../../static/mode/clike.js"></script>\\r\\n <style>.CodeMirror {border: 3px solid #cccccc;}</style>\\r\\n\\r\\n\\r\\n    <style type="text/css">\\r\\n      .CodeMirror-fullscreen {\\r\\n        display: block;\\r\\n        position: absolute;\\r\\n        top: 0; left: 0;\\r\\n        width: 100%;\\r\\n        z-index: 9999;\\r\\n      }\\r\\n    </style>\\r\\n\\r\\n</head>\\r\\n\\r\\n\\r\\n\', escape=False)\nfrom uc_utils import shortify\nresponse.write(\'\\r\\n\\r\\n\', escape=False)\nresponse.write(H1(problem.title))\nresponse.write(\'\\r\\n\\r\\n<div class="hero-unit" style="border: 1em dotted #fff">\\r\\n\', escape=False)\nresponse.write(problem.body)\nresponse.write(\'\\t\\r\\n</div>\\r\\n\\r\\n\', escape=False)\nresponse.write(H2("C\xc3\xb3digos postados", _style="color:green"))\nresponse.write(\'\\r\\n<div>\\r\\n<ul class="nav nav-list">\\r\\n\', escape=False)\nfor code in codes:\n    response.write(\'\\r\\n\', escape=False)\n    user = db(db.auth_user.id==code.created_by).select().first()\n    response.write(\'\\r\\n\\r\\n<li>\\r\\n      \\r\\n  <div>\\r\\n  <i class="icon-flag">\\r\\n  \\r\\n  </i>\\r\\n       \', escape=False)\n    response.write(A(B(shortify(user)),_href=URL("Code", args=code.id)))\n    response.write(\'\\r\\n       \', escape=False)\n    response.write(SPAN(prettydate(code.created_on),_style="font-size: 80%"))\n    response.write(\'\\r\\n</div>\\r\\n</li>\\r\\n\\r\\n\', escape=False)\n    pass\nresponse.write(\'\\r\\n</ul>\\r\\n</div>\\r\\n\\r\\n\', escape=False)\nresponse.write(H2(T("Post your code!")))\nresponse.write(\'\\r\\n\', escape=False)\nresponse.write(form.custom.begin)\nresponse.write(\'\\r\\n<div>\\r\\n\', escape=False)\nresponse.write(form.custom.widget.body)\nresponse.write(\'\\r\\n</div>\\r\\n\\r\\n<script type="text/javascript">\\r\\n      var editor = CodeMirror.fromTextArea(document.getElementById("code_body"), {\\r\\n        lineNumbers: true,\\r\\n        matchBrackets: true,\\r\\n        mode: "text/x-c++src"\\r\\n      });\\r\\n</script>\\r\\n <p style="float: center;">Press <strong>F11</strong> when cursor is in the editor to toggle full screen editing. <strong>Esc</strong> can also be used to <i>exit</i> full screen editing.</p>\\r\\n<input type="submit" class="btn btn-primary btn-large pull-right" value=\', escape=False)\nresponse.write(T("Submit"))\nresponse.write(\'>\\r\\n\', escape=False)\nresponse.write(form.custom.end)\nresponse.write(\'\\r\\n\\r\\n\\r\\n\\r\\n\', escape=False)\nresponse.write(\'\\r\\n      \', escape=False)\nresponse.write(\'\\r\\n\\r\\n    </div> <!-- /container -->\\r\\n\\r\\n  </body>\\r\\n</html>\\r\\n\\r\\n\', escape=False)'
p7
sS'snapshot'
p8
(dp9
S'exception'
p10
(dp11
S'__getslice__'
p12
S"<method-wrapper '__getslice__' of exceptions.SyntaxError object at 0x06725DB0>"
p13
sS'text'
p14
S'"response.write(\'\\\\r\\\\n\\\\r\\\\n      \', escape=False)\\n"'
p15
sS'__str__'
p16
S"<method-wrapper '__str__' of exceptions.SyntaxError object at 0x06725DB0>"
p17
sS'__reduce__'
p18
S'<built-in method __reduce__ of exceptions.SyntaxError object at 0x06725DB0>'
p19
sS'__dict__'
p20
S'{}'
p21
sS'__init__'
p22
S"<method-wrapper '__init__' of exceptions.SyntaxError object at 0x06725DB0>"
p23
sS'__setattr__'
p24
S"<method-wrapper '__setattr__' of exceptions.SyntaxError object at 0x06725DB0>"
p25
sS'__reduce_ex__'
p26
S'<built-in method __reduce_ex__ of exceptions.SyntaxError object at 0x06725DB0>'
p27
sS'__new__'
p28
S'<built-in method __new__ of type object at 0x1E1CDBD0>'
p29
sS'__class__'
p30
S"<type 'exceptions.SyntaxError'>"
p31
sS'filename'
p32
S"r'C:\\web2py\\applications\\unioeste_code\\views\\default/Problem.html'"
p33
sS'lineno'
p34
S'10'
p35
sS'msg'
p36
S"'invalid syntax'"
p37
sS'__doc__'
p38
S"'Invalid syntax.'"
p39
sS'__getitem__'
p40
S"<method-wrapper '__getitem__' of exceptions.SyntaxError object at 0x06725DB0>"
p41
sS'__setstate__'
p42
S'<built-in method __setstate__ of exceptions.SyntaxError object at 0x06725DB0>'
p43
sS'__getattribute__'
p44
S"<method-wrapper '__getattribute__' of exceptions.SyntaxError object at 0x06725DB0>"
p45
sS'print_file_and_line'
p46
S'None'
p47
sS'args'
p48
S'(\'invalid syntax\', (r\'C:\\web2py\\applications\\unioeste_code\\views\\default/Problem.html\', 10, 8, "response.write(\'\\\\r\\\\n\\\\r\\\\n      \', escape=False)\\n"))'
p49
sS'offset'
p50
S'8'
sS'__delattr__'
p51
S"<method-wrapper '__delattr__' of exceptions.SyntaxError object at 0x06725DB0>"
p52
sS'__repr__'
p53
S"<method-wrapper '__repr__' of exceptions.SyntaxError object at 0x06725DB0>"
p54
sS'__hash__'
p55
S"<method-wrapper '__hash__' of exceptions.SyntaxError object at 0x06725DB0>"
p56
ssS'evalue'
p57
S'invalid syntax (default/Problem.html, line 10)'
p58
sS'request'
p59
ccopy_reg
_reconstructor
p60
(cgluon.html
BEAUTIFY
p61
c__builtin__
object
p62
NtRp63
(dp64
S'attributes'
p65
(dp66
sS'components'
p67
(lp68
g60
(cgluon.html
TABLE
p69
g62
NtRp70
(dp71
g65
(dp72
S'level'
p73
I5
ssS'parent'
p74
Nsg67
(lp75
g60
(cgluon.html
TR
p76
g62
NtRp77
(dp78
g65
(dp79
sg74
g70
sg67
(lp80
g60
(cgluon.html
TD
p81
g62
NtRp82
(dp83
g65
(dp84
S'_style'
p85
S'font-weight:bold;vertical-align:top'
p86
ssg74
g77
sg67
(lp87
S'ajax'
p88
asbag60
(g81
g62
NtRp89
(dp90
g65
(dp91
S'_valign'
p92
S'top'
p93
ssg74
g77
sg67
(lp94
S':'
asbag60
(g81
g62
NtRp95
(dp96
g65
(dp97
sg74
g77
sg67
(lp98
g60
(g61
g62
NtRp99
(dp100
g65
(dp101
g73
I5
ssg74
g95
sg67
(lp102
S'False'
p103
asbasbasbag60
(g76
g62
NtRp104
(dp105
g65
(dp106
sg74
g70
sg67
(lp107
g60
(g81
g62
NtRp108
(dp109
g65
(dp110
g85
g86
ssg74
g104
sg67
(lp111
S'application'
p112
asbag60
(g81
g62
NtRp113
(dp114
g65
(dp115
g92
g93
ssg74
g104
sg67
(lp116
S':'
asbag60
(g81
g62
NtRp117
(dp118
g65
(dp119
sg74
g104
sg67
(lp120
g60
(g61
g62
NtRp121
(dp122
g65
(dp123
g73
I5
ssg74
g117
sg67
(lp124
S'unioeste_code'
p125
asbasbasbag60
(g76
g62
NtRp126
(dp127
g65
(dp128
sg74
g70
sg67
(lp129
g60
(g81
g62
NtRp130
(dp131
g65
(dp132
g85
g86
ssg74
g126
sg67
(lp133
g48
asbag60
(g81
g62
NtRp134
(dp135
g65
(dp136
g92
g93
ssg74
g126
sg67
(lp137
S':'
asbag60
(g81
g62
NtRp138
(dp139
g65
(dp140
sg74
g126
sg67
(lp141
g60
(g61
g62
NtRp142
(dp143
g65
(dp144
g73
I5
ssg74
g138
sg67
(lp145
g60
(g69
g62
NtRp146
(dp147
g65
(dp148
g73
I4
ssg74
Nsg67
(lp149
g60
(g76
g62
NtRp150
(dp151
g65
(dp152
sg74
g146
sg67
(lp153
g60
(g81
g62
NtRp154
(dp155
g65
(dp156
sg74
g150
sg67
(lp157
g60
(g61
g62
NtRp158
(dp159
g65
(dp160
g73
I4
ssg74
g154
sg67
(lp161
S'1'
asbasbasbasbasbasbasbag60
(g76
g62
NtRp162
(dp163
g65
(dp164
sg74
g70
sg67
(lp165
g60
(g81
g62
NtRp166
(dp167
g65
(dp168
g85
g86
ssg74
g162
sg67
(lp169
S'body'
p170
asbag60
(g81
g62
NtRp171
(dp172
g65
(dp173
g92
g93
ssg74
g162
sg67
(lp174
S':'
asbag60
(g81
g62
NtRp175
(dp176
g65
(dp177
sg74
g162
sg67
(lp178
g60
(g61
g62
NtRp179
(dp180
g65
(dp181
g73
I5
ssg74
g175
sg67
(lp182
S'<cStringIO.StringO object at 0x06369D00>'
p183
asbasbasbag60
(g76
g62
NtRp184
(dp185
g65
(dp186
sg74
g70
sg67
(lp187
g60
(g81
g62
NtRp188
(dp189
g65
(dp190
g85
g86
ssg74
g184
sg67
(lp191
S'client'
p192
asbag60
(g81
g62
NtRp193
(dp194
g65
(dp195
g92
g93
ssg74
g184
sg67
(lp196
S':'
asbag60
(g81
g62
NtRp197
(dp198
g65
(dp199
sg74
g184
sg67
(lp200
g60
(g61
g62
NtRp201
(dp202
g65
(dp203
g73
I5
ssg74
g197
sg67
(lp204
S'127.0.0.1'
p205
asbasbasbag60
(g76
g62
NtRp206
(dp207
g65
(dp208
sg74
g70
sg67
(lp209
g60
(g81
g62
NtRp210
(dp211
g65
(dp212
g85
g86
ssg74
g206
sg67
(lp213
S'controller'
p214
asbag60
(g81
g62
NtRp215
(dp216
g65
(dp217
g92
g93
ssg74
g206
sg67
(lp218
S':'
asbag60
(g81
g62
NtRp219
(dp220
g65
(dp221
sg74
g206
sg67
(lp222
g60
(g61
g62
NtRp223
(dp224
g65
(dp225
g73
I5
ssg74
g219
sg67
(lp226
S'default'
p227
asbasbasbag60
(g76
g62
NtRp228
(dp229
g65
(dp230
sg74
g70
sg67
(lp231
g60
(g81
g62
NtRp232
(dp233
g65
(dp234
g85
g86
ssg74
g228
sg67
(lp235
S'cookies'
p236
asbag60
(g81
g62
NtRp237
(dp238
g65
(dp239
g92
g93
ssg74
g228
sg67
(lp240
S':'
asbag60
(g81
g62
NtRp241
(dp242
g65
(dp243
sg74
g228
sg67
(lp244
g60
(g61
g62
NtRp245
(dp246
g65
(dp247
g73
I5
ssg74
g241
sg67
(lp248
g60
(g69
g62
NtRp249
(dp250
g65
(dp251
g73
I4
ssg74
Nsg67
(lp252
g60
(g76
g62
NtRp253
(dp254
g65
(dp255
sg74
g249
sg67
(lp256
g60
(g81
g62
NtRp257
(dp258
g65
(dp259
g85
g86
ssg74
g253
sg67
(lp260
S'session_id_unioeste_code'
p261
asbag60
(g81
g62
NtRp262
(dp263
g65
(dp264
g92
g93
ssg74
g253
sg67
(lp265
S':'
asbag60
(g81
g62
NtRp266
(dp267
g65
(dp268
sg74
g253
sg67
(lp269
g60
(g61
g62
NtRp270
(dp271
g65
(dp272
g73
I4
ssg74
g266
sg67
(lp273
g60
(g69
g62
NtRp274
(dp275
g65
(dp276
g73
I3
ssg74
Nsg67
(lp277
g60
(g76
g62
NtRp278
(dp279
g65
(dp280
sg74
g274
sg67
(lp281
g60
(g81
g62
NtRp282
(dp283
g65
(dp284
g85
g86
ssg74
g278
sg67
(lp285
S'comment'
p286
asbag60
(g81
g62
NtRp287
(dp288
g65
(dp289
g92
g93
ssg74
g278
sg67
(lp290
S':'
asbag60
(g81
g62
NtRp291
(dp292
g65
(dp293
sg74
g278
sg67
(lp294
g60
(g61
g62
NtRp295
(dp296
g65
(dp297
g73
I3
ssg74
g291
sg67
(lp298
S''
asbasbasbag60
(g76
g62
NtRp299
(dp300
g65
(dp301
sg74
g274
sg67
(lp302
g60
(g81
g62
NtRp303
(dp304
g65
(dp305
g85
g86
ssg74
g299
sg67
(lp306
S'domain'
p307
asbag60
(g81
g62
NtRp308
(dp309
g65
(dp310
g92
g93
ssg74
g299
sg67
(lp311
S':'
asbag60
(g81
g62
NtRp312
(dp313
g65
(dp314
sg74
g299
sg67
(lp315
g60
(g61
g62
NtRp316
(dp317
g65
(dp318
g73
I3
ssg74
g312
sg67
(lp319
S''
asbasbasbag60
(g76
g62
NtRp320
(dp321
g65
(dp322
sg74
g274
sg67
(lp323
g60
(g81
g62
NtRp324
(dp325
g65
(dp326
g85
g86
ssg74
g320
sg67
(lp327
S'expires'
p328
asbag60
(g81
g62
NtRp329
(dp330
g65
(dp331
g92
g93
ssg74
g320
sg67
(lp332
S':'
asbag60
(g81
g62
NtRp333
(dp334
g65
(dp335
sg74
g320
sg67
(lp336
g60
(g61
g62
NtRp337
(dp338
g65
(dp339
g73
I3
ssg74
g333
sg67
(lp340
S''
asbasbasbag60
(g76
g62
NtRp341
(dp342
g65
(dp343
sg74
g274
sg67
(lp344
g60
(g81
g62
NtRp345
(dp346
g65
(dp347
g85
g86
ssg74
g341
sg67
(lp348
S'max-age'
p349
asbag60
(g81
g62
NtRp350
(dp351
g65
(dp352
g92
g93
ssg74
g341
sg67
(lp353
S':'
asbag60
(g81
g62
NtRp354
(dp355
g65
(dp356
sg74
g341
sg67
(lp357
g60
(g61
g62
NtRp358
(dp359
g65
(dp360
g73
I3
ssg74
g354
sg67
(lp361
S''
asbasbasbag60
(g76
g62
NtRp362
(dp363
g65
(dp364
sg74
g274
sg67
(lp365
g60
(g81
g62
NtRp366
(dp367
g65
(dp368
g85
g86
ssg74
g362
sg67
(lp369
S'path'
p370
asbag60
(g81
g62
NtRp371
(dp372
g65
(dp373
g92
g93
ssg74
g362
sg67
(lp374
S':'
asbag60
(g81
g62
NtRp375
(dp376
g65
(dp377
sg74
g362
sg67
(lp378
g60
(g61
g62
NtRp379
(dp380
g65
(dp381
g73
I3
ssg74
g375
sg67
(lp382
S''
asbasbasbag60
(g76
g62
NtRp383
(dp384
g65
(dp385
sg74
g274
sg67
(lp386
g60
(g81
g62
NtRp387
(dp388
g65
(dp389
g85
g86
ssg74
g383
sg67
(lp390
S'secure'
p391
asbag60
(g81
g62
NtRp392
(dp393
g65
(dp394
g92
g93
ssg74
g383
sg67
(lp395
S':'
asbag60
(g81
g62
NtRp396
(dp397
g65
(dp398
sg74
g383
sg67
(lp399
g60
(g61
g62
NtRp400
(dp401
g65
(dp402
g73
I3
ssg74
g396
sg67
(lp403
S''
asbasbasbag60
(g76
g62
NtRp404
(dp405
g65
(dp406
sg74
g274
sg67
(lp407
g60
(g81
g62
NtRp408
(dp409
g65
(dp410
g85
g86
ssg74
g404
sg67
(lp411
S'version'
p412
asbag60
(g81
g62
NtRp413
(dp414
g65
(dp415
g92
g93
ssg74
g404
sg67
(lp416
S':'
asbag60
(g81
g62
NtRp417
(dp418
g65
(dp419
sg74
g404
sg67
(lp420
g60
(g61
g62
NtRp421
(dp422
g65
(dp423
g73
I3
ssg74
g417
sg67
(lp424
S''
asbasbasbasbasbasbasbag60
(g76
g62
NtRp425
(dp426
g65
(dp427
sg74
g249
sg67
(lp428
g60
(g81
g62
NtRp429
(dp430
g65
(dp431
g85
g86
ssg74
g425
sg67
(lp432
S'session_id_welcome'
p433
asbag60
(g81
g62
NtRp434
(dp435
g65
(dp436
g92
g93
ssg74
g425
sg67
(lp437
S':'
asbag60
(g81
g62
NtRp438
(dp439
g65
(dp440
sg74
g425
sg67
(lp441
g60
(g61
g62
NtRp442
(dp443
g65
(dp444
g73
I4
ssg74
g438
sg67
(lp445
g60
(g69
g62
NtRp446
(dp447
g65
(dp448
g73
I3
ssg74
Nsg67
(lp449
g60
(g76
g62
NtRp450
(dp451
g65
(dp452
sg74
g446
sg67
(lp453
g60
(g81
g62
NtRp454
(dp455
g65
(dp456
g85
g86
ssg74
g450
sg67
(lp457
g286
asbag60
(g81
g62
NtRp458
(dp459
g65
(dp460
g92
g93
ssg74
g450
sg67
(lp461
S':'
asbag60
(g81
g62
NtRp462
(dp463
g65
(dp464
sg74
g450
sg67
(lp465
g60
(g61
g62
NtRp466
(dp467
g65
(dp468
g73
I3
ssg74
g462
sg67
(lp469
S''
asbasbasbag60
(g76
g62
NtRp470
(dp471
g65
(dp472
sg74
g446
sg67
(lp473
g60
(g81
g62
NtRp474
(dp475
g65
(dp476
g85
g86
ssg74
g470
sg67
(lp477
g307
asbag60
(g81
g62
NtRp478
(dp479
g65
(dp480
g92
g93
ssg74
g470
sg67
(lp481
S':'
asbag60
(g81
g62
NtRp482
(dp483
g65
(dp484
sg74
g470
sg67
(lp485
g60
(g61
g62
NtRp486
(dp487
g65
(dp488
g73
I3
ssg74
g482
sg67
(lp489
S''
asbasbasbag60
(g76
g62
NtRp490
(dp491
g65
(dp492
sg74
g446
sg67
(lp493
g60
(g81
g62
NtRp494
(dp495
g65
(dp496
g85
g86
ssg74
g490
sg67
(lp497
g328
asbag60
(g81
g62
NtRp498
(dp499
g65
(dp500
g92
g93
ssg74
g490
sg67
(lp501
S':'
asbag60
(g81
g62
NtRp502
(dp503
g65
(dp504
sg74
g490
sg67
(lp505
g60
(g61
g62
NtRp506
(dp507
g65
(dp508
g73
I3
ssg74
g502
sg67
(lp509
S''
asbasbasbag60
(g76
g62
NtRp510
(dp511
g65
(dp512
sg74
g446
sg67
(lp513
g60
(g81
g62
NtRp514
(dp515
g65
(dp516
g85
g86
ssg74
g510
sg67
(lp517
g349
asbag60
(g81
g62
NtRp518
(dp519
g65
(dp520
g92
g93
ssg74
g510
sg67
(lp521
S':'
asbag60
(g81
g62
NtRp522
(dp523
g65
(dp524
sg74
g510
sg67
(lp525
g60
(g61
g62
NtRp526
(dp527
g65
(dp528
g73
I3
ssg74
g522
sg67
(lp529
S''
asbasbasbag60
(g76
g62
NtRp530
(dp531
g65
(dp532
sg74
g446
sg67
(lp533
g60
(g81
g62
NtRp534
(dp535
g65
(dp536
g85
g86
ssg74
g530
sg67
(lp537
g370
asbag60
(g81
g62
NtRp538
(dp539
g65
(dp540
g92
g93
ssg74
g530
sg67
(lp541
S':'
asbag60
(g81
g62
NtRp542
(dp543
g65
(dp544
sg74
g530
sg67
(lp545
g60
(g61
g62
NtRp546
(dp547
g65
(dp548
g73
I3
ssg74
g542
sg67
(lp549
S''
asbasbasbag60
(g76
g62
NtRp550
(dp551
g65
(dp552
sg74
g446
sg67
(lp553
g60
(g81
g62
NtRp554
(dp555
g65
(dp556
g85
g86
ssg74
g550
sg67
(lp557
g391
asbag60
(g81
g62
NtRp558
(dp559
g65
(dp560
g92
g93
ssg74
g550
sg67
(lp561
S':'
asbag60
(g81
g62
NtRp562
(dp563
g65
(dp564
sg74
g550
sg67
(lp565
g60
(g61
g62
NtRp566
(dp567
g65
(dp568
g73
I3
ssg74
g562
sg67
(lp569
S''
asbasbasbag60
(g76
g62
NtRp570
(dp571
g65
(dp572
sg74
g446
sg67
(lp573
g60
(g81
g62
NtRp574
(dp575
g65
(dp576
g85
g86
ssg74
g570
sg67
(lp577
g412
asbag60
(g81
g62
NtRp578
(dp579
g65
(dp580
g92
g93
ssg74
g570
sg67
(lp581
S':'
asbag60
(g81
g62
NtRp582
(dp583
g65
(dp584
sg74
g570
sg67
(lp585
g60
(g61
g62
NtRp586
(dp587
g65
(dp588
g73
I3
ssg74
g582
sg67
(lp589
S''
asbasbasbasbasbasbasbasbasbasbasbag60
(g76
g62
NtRp590
(dp591
g65
(dp592
sg74
g70
sg67
(lp593
g60
(g81
g62
NtRp594
(dp595
g65
(dp596
g85
g86
ssg74
g590
sg67
(lp597
S'env'
p598
asbag60
(g81
g62
NtRp599
(dp600
g65
(dp601
g92
g93
ssg74
g590
sg67
(lp602
S':'
asbag60
(g81
g62
NtRp603
(dp604
g65
(dp605
sg74
g590
sg67
(lp606
g60
(g61
g62
NtRp607
(dp608
g65
(dp609
g73
I5
ssg74
g603
sg67
(lp610
g60
(g69
g62
NtRp611
(dp612
g65
(dp613
g73
I4
ssg74
Nsg67
(lp614
g60
(g76
g62
NtRp615
(dp616
g65
(dp617
sg74
g611
sg67
(lp618
g60
(g81
g62
NtRp619
(dp620
g65
(dp621
g85
g86
ssg74
g615
sg67
(lp622
S'app_folders'
p623
asbag60
(g81
g62
NtRp624
(dp625
g65
(dp626
g92
g93
ssg74
g615
sg67
(lp627
S':'
asbag60
(g81
g62
NtRp628
(dp629
g65
(dp630
sg74
g615
sg67
(lp631
g60
(g61
g62
NtRp632
(dp633
g65
(dp634
g73
I4
ssg74
g628
sg67
(lp635
S"set(['C:\\\\web2py\\\\applications\\\\welcome\\\\', 'C:\\\\web2py\\\\applications\\\\unioeste_code\\\\'])"
p636
asbasbasbag60
(g76
g62
NtRp637
(dp638
g65
(dp639
sg74
g611
sg67
(lp640
g60
(g81
g62
NtRp641
(dp642
g65
(dp643
g85
g86
ssg74
g637
sg67
(lp644
S'applications_parent'
p645
asbag60
(g81
g62
NtRp646
(dp647
g65
(dp648
g92
g93
ssg74
g637
sg67
(lp649
S':'
asbag60
(g81
g62
NtRp650
(dp651
g65
(dp652
sg74
g637
sg67
(lp653
g60
(g61
g62
NtRp654
(dp655
g65
(dp656
g73
I4
ssg74
g650
sg67
(lp657
S'C:\\web2py'
p658
asbasbasbag60
(g76
g62
NtRp659
(dp660
g65
(dp661
sg74
g611
sg67
(lp662
g60
(g81
g62
NtRp663
(dp664
g65
(dp665
g85
g86
ssg74
g659
sg67
(lp666
S'cmd_args'
p667
asbag60
(g81
g62
NtRp668
(dp669
g65
(dp670
g92
g93
ssg74
g659
sg67
(lp671
S':'
asbag60
(g81
g62
NtRp672
(dp673
g65
(dp674
sg74
g659
sg67
(lp675
g60
(g61
g62
NtRp676
(dp677
g65
(dp678
g73
I4
ssg74
g672
sg67
(lp679
g60
(g69
g62
NtRp680
(dp681
g65
(dp682
g73
I3
ssg74
Nsg67
(lp683
sbasbasbasbag60
(g76
g62
NtRp684
(dp685
g65
(dp686
sg74
g611
sg67
(lp687
g60
(g81
g62
NtRp688
(dp689
g65
(dp690
g85
g86
ssg74
g684
sg67
(lp691
S'cmd_options'
p692
asbag60
(g81
g62
NtRp693
(dp694
g65
(dp695
g92
g93
ssg74
g684
sg67
(lp696
S':'
asbag60
(g81
g62
NtRp697
(dp698
g65
(dp699
sg74
g684
sg67
(lp700
g60
(g61
g62
NtRp701
(dp702
g65
(dp703
g73
I4
ssg74
g697
sg67
(lp704
S"<Values at 0x314c300: {'verbose': False, 'ip': '127.0.0.1', 'shutdown_timeout': 5, 'taskbar': False, 'nocron': False, 'pid_filename': 'httpserver.pid', 'maxthreads': None, 'softcron': False, 'server_name': 'Pedro-PC', 'bpython': False, 'nogui': False, 'port': 8000, 'extcron': False, 'debuglevel': 30, 'test': None, 'folder': 'C:\\\\web2py', 'config': '', 'import_models': False, 'winservice': '', 'shell': None, 'run': '', 'log_filename': 'httpserver.log', 'args': [''], 'socket_timeout': 5, 'ssl_ca_certificate': None, 'scheduler': None, 'profiler_filename': None, 'ssl_private_key': '', 'password': '<ask>', 'request_queue_size': 5, 'ssl_certificate': '', 'cronjob': False, 'numthreads': None, 'quiet': False, 'interfaces': None, 'minthreads': None, 'timeout': 10, 'plain': False, 'nobanner': False}>"
p705
asbasbasbag60
(g76
g62
NtRp706
(dp707
g65
(dp708
sg74
g611
sg67
(lp709
g60
(g81
g62
NtRp710
(dp711
g65
(dp712
g85
g86
ssg74
g706
sg67
(lp713
S'db_sessions'
p714
asbag60
(g81
g62
NtRp715
(dp716
g65
(dp717
g92
g93
ssg74
g706
sg67
(lp718
S':'
asbag60
(g81
g62
NtRp719
(dp720
g65
(dp721
sg74
g706
sg67
(lp722
g60
(g61
g62
NtRp723
(dp724
g65
(dp725
g73
I4
ssg74
g719
sg67
(lp726
S'set([])'
p727
asbasbasbag60
(g76
g62
NtRp728
(dp729
g65
(dp730
sg74
g611
sg67
(lp731
g60
(g81
g62
NtRp732
(dp733
g65
(dp734
g85
g86
ssg74
g728
sg67
(lp735
S'debugging'
p736
asbag60
(g81
g62
NtRp737
(dp738
g65
(dp739
g92
g93
ssg74
g728
sg67
(lp740
S':'
asbag60
(g81
g62
NtRp741
(dp742
g65
(dp743
sg74
g728
sg67
(lp744
g60
(g61
g62
NtRp745
(dp746
g65
(dp747
g73
I4
ssg74
g741
sg67
(lp748
g103
asbasbasbag60
(g76
g62
NtRp749
(dp750
g65
(dp751
sg74
g611
sg67
(lp752
g60
(g81
g62
NtRp753
(dp754
g65
(dp755
g85
g86
ssg74
g749
sg67
(lp756
S'gluon_parent'
p757
asbag60
(g81
g62
NtRp758
(dp759
g65
(dp760
g92
g93
ssg74
g749
sg67
(lp761
S':'
asbag60
(g81
g62
NtRp762
(dp763
g65
(dp764
sg74
g749
sg67
(lp765
g60
(g61
g62
NtRp766
(dp767
g65
(dp768
g73
I4
ssg74
g762
sg67
(lp769
S'C:\\web2py'
p770
asbasbasbag60
(g76
g62
NtRp771
(dp772
g65
(dp773
sg74
g611
sg67
(lp774
g60
(g81
g62
NtRp775
(dp776
g65
(dp777
g85
g86
ssg74
g771
sg67
(lp778
S'http_accept'
p779
asbag60
(g81
g62
NtRp780
(dp781
g65
(dp782
g92
g93
ssg74
g771
sg67
(lp783
S':'
asbag60
(g81
g62
NtRp784
(dp785
g65
(dp786
sg74
g771
sg67
(lp787
g60
(g61
g62
NtRp788
(dp789
g65
(dp790
g73
I4
ssg74
g784
sg67
(lp791
S'text/html,application/xhtml+xml,application/xml;q=0.9,*/*;q=0.8'
p792
asbasbasbag60
(g76
g62
NtRp793
(dp794
g65
(dp795
sg74
g611
sg67
(lp796
g60
(g81
g62
NtRp797
(dp798
g65
(dp799
g85
g86
ssg74
g793
sg67
(lp800
S'http_accept_charset'
p801
asbag60
(g81
g62
NtRp802
(dp803
g65
(dp804
g92
g93
ssg74
g793
sg67
(lp805
S':'
asbag60
(g81
g62
NtRp806
(dp807
g65
(dp808
sg74
g793
sg67
(lp809
g60
(g61
g62
NtRp810
(dp811
g65
(dp812
g73
I4
ssg74
g806
sg67
(lp813
S'ISO-8859-1,utf-8;q=0.7,*;q=0.3'
p814
asbasbasbag60
(g76
g62
NtRp815
(dp816
g65
(dp817
sg74
g611
sg67
(lp818
g60
(g81
g62
NtRp819
(dp820
g65
(dp821
g85
g86
ssg74
g815
sg67
(lp822
S'http_accept_encoding'
p823
asbag60
(g81
g62
NtRp824
(dp825
g65
(dp826
g92
g93
ssg74
g815
sg67
(lp827
S':'
asbag60
(g81
g62
NtRp828
(dp829
g65
(dp830
sg74
g815
sg67
(lp831
g60
(g61
g62
NtRp832
(dp833
g65
(dp834
g73
I4
ssg74
g828
sg67
(lp835
S'gzip,deflate,sdch'
p836
asbasbasbag60
(g76
g62
NtRp837
(dp838
g65
(dp839
sg74
g611
sg67
(lp840
g60
(g81
g62
NtRp841
(dp842
g65
(dp843
g85
g86
ssg74
g837
sg67
(lp844
S'http_accept_language'
p845
asbag60
(g81
g62
NtRp846
(dp847
g65
(dp848
g92
g93
ssg74
g837
sg67
(lp849
S':'
asbag60
(g81
g62
NtRp850
(dp851
g65
(dp852
sg74
g837
sg67
(lp853
g60
(g61
g62
NtRp854
(dp855
g65
(dp856
g73
I4
ssg74
g850
sg67
(lp857
S'pt-BR,pt;q=0.8,en-US;q=0.6,en;q=0.4'
p858
asbasbasbag60
(g76
g62
NtRp859
(dp860
g65
(dp861
sg74
g611
sg67
(lp862
g60
(g81
g62
NtRp863
(dp864
g65
(dp865
g85
g86
ssg74
g859
sg67
(lp866
S'http_cache_control'
p867
asbag60
(g81
g62
NtRp868
(dp869
g65
(dp870
g92
g93
ssg74
g859
sg67
(lp871
S':'
asbag60
(g81
g62
NtRp872
(dp873
g65
(dp874
sg74
g859
sg67
(lp875
g60
(g61
g62
NtRp876
(dp877
g65
(dp878
g73
I4
ssg74
g872
sg67
(lp879
S'max-age=0'
p880
asbasbasbag60
(g76
g62
NtRp881
(dp882
g65
(dp883
sg74
g611
sg67
(lp884
g60
(g81
g62
NtRp885
(dp886
g65
(dp887
g85
g86
ssg74
g881
sg67
(lp888
S'http_connection'
p889
asbag60
(g81
g62
NtRp890
(dp891
g65
(dp892
g92
g93
ssg74
g881
sg67
(lp893
S':'
asbag60
(g81
g62
NtRp894
(dp895
g65
(dp896
sg74
g881
sg67
(lp897
g60
(g61
g62
NtRp898
(dp899
g65
(dp900
g73
I4
ssg74
g894
sg67
(lp901
S'keep-alive'
p902
asbasbasbag60
(g76
g62
NtRp903
(dp904
g65
(dp905
sg74
g611
sg67
(lp906
g60
(g81
g62
NtRp907
(dp908
g65
(dp909
g85
g86
ssg74
g903
sg67
(lp910
S'http_cookie'
p911
asbag60
(g81
g62
NtRp912
(dp913
g65
(dp914
g92
g93
ssg74
g903
sg67
(lp915
S':'
asbag60
(g81
g62
NtRp916
(dp917
g65
(dp918
sg74
g903
sg67
(lp919
g60
(g61
g62
NtRp920
(dp921
g65
(dp922
g73
I4
ssg74
g916
sg67
(lp923
S'session_id_welcome=127.0.0.1-8c1e7b0b-efab-4a1b-a824-79b2fdf9399f; session_id_unioeste_code=127.0.0.1-6a17e692-996f-4fa9-84f1-38283f8585af'
p924
asbasbasbag60
(g76
g62
NtRp925
(dp926
g65
(dp927
sg74
g611
sg67
(lp928
g60
(g81
g62
NtRp929
(dp930
g65
(dp931
g85
g86
ssg74
g925
sg67
(lp932
S'http_dnt'
p933
asbag60
(g81
g62
NtRp934
(dp935
g65
(dp936
g92
g93
ssg74
g925
sg67
(lp937
S':'
asbag60
(g81
g62
NtRp938
(dp939
g65
(dp940
sg74
g925
sg67
(lp941
g60
(g61
g62
NtRp942
(dp943
g65
(dp944
g73
I4
ssg74
g938
sg67
(lp945
S'1'
asbasbasbag60
(g76
g62
NtRp946
(dp947
g65
(dp948
sg74
g611
sg67
(lp949
g60
(g81
g62
NtRp950
(dp951
g65
(dp952
g85
g86
ssg74
g946
sg67
(lp953
S'http_host'
p954
asbag60
(g81
g62
NtRp955
(dp956
g65
(dp957
g92
g93
ssg74
g946
sg67
(lp958
S':'
asbag60
(g81
g62
NtRp959
(dp960
g65
(dp961
sg74
g946
sg67
(lp962
g60
(g61
g62
NtRp963
(dp964
g65
(dp965
g73
I4
ssg74
g959
sg67
(lp966
S'127.0.0.1:8000'
p967
asbasbasbag60
(g76
g62
NtRp968
(dp969
g65
(dp970
sg74
g611
sg67
(lp971
g60
(g81
g62
NtRp972
(dp973
g65
(dp974
g85
g86
ssg74
g968
sg67
(lp975
S'http_user_agent'
p976
asbag60
(g81
g62
NtRp977
(dp978
g65
(dp979
g92
g93
ssg74
g968
sg67
(lp980
S':'
asbag60
(g81
g62
NtRp981
(dp982
g65
(dp983
sg74
g968
sg67
(lp984
g60
(g61
g62
NtRp985
(dp986
g65
(dp987
g73
I4
ssg74
g981
sg67
(lp988
S'Mozilla/5.0 (Windows NT 6.1; WOW64) AppleWebKit/536.11 (KHTML, like Gecko) Chrome/20.0.1132.57 Safari/536.11'
p989
asbasbasbag60
(g76
g62
NtRp990
(dp991
g65
(dp992
sg74
g611
sg67
(lp993
g60
(g81
g62
NtRp994
(dp995
g65
(dp996
g85
g86
ssg74
g990
sg67
(lp997
S'is_jython'
p998
asbag60
(g81
g62
NtRp999
(dp1000
g65
(dp1001
g92
g93
ssg74
g990
sg67
(lp1002
S':'
asbag60
(g81
g62
NtRp1003
(dp1004
g65
(dp1005
sg74
g990
sg67
(lp1006
g60
(g61
g62
NtRp1007
(dp1008
g65
(dp1009
g73
I4
ssg74
g1003
sg67
(lp1010
g103
asbasbasbag60
(g76
g62
NtRp1011
(dp1012
g65
(dp1013
sg74
g611
sg67
(lp1014
g60
(g81
g62
NtRp1015
(dp1016
g65
(dp1017
g85
g86
ssg74
g1011
sg67
(lp1018
S'is_pypy'
p1019
asbag60
(g81
g62
NtRp1020
(dp1021
g65
(dp1022
g92
g93
ssg74
g1011
sg67
(lp1023
S':'
asbag60
(g81
g62
NtRp1024
(dp1025
g65
(dp1026
sg74
g1011
sg67
(lp1027
g60
(g61
g62
NtRp1028
(dp1029
g65
(dp1030
g73
I4
ssg74
g1024
sg67
(lp1031
g103
asbasbasbag60
(g76
g62
NtRp1032
(dp1033
g65
(dp1034
sg74
g611
sg67
(lp1035
g60
(g81
g62
NtRp1036
(dp1037
g65
(dp1038
g85
g86
ssg74
g1032
sg67
(lp1039
S'path_info'
p1040
asbag60
(g81
g62
NtRp1041
(dp1042
g65
(dp1043
g92
g93
ssg74
g1032
sg67
(lp1044
S':'
asbag60
(g81
g62
NtRp1045
(dp1046
g65
(dp1047
sg74
g1032
sg67
(lp1048
g60
(g61
g62
NtRp1049
(dp1050
g65
(dp1051
g73
I4
ssg74
g1045
sg67
(lp1052
S'/unioeste_code/default/Problem/1'
p1053
asbasbasbag60
(g76
g62
NtRp1054
(dp1055
g65
(dp1056
sg74
g611
sg67
(lp1057
g60
(g81
g62
NtRp1058
(dp1059
g65
(dp1060
g85
g86
ssg74
g1054
sg67
(lp1061
S'query_string'
p1062
asbag60
(g81
g62
NtRp1063
(dp1064
g65
(dp1065
g92
g93
ssg74
g1054
sg67
(lp1066
S':'
asbag60
(g81
g62
NtRp1067
(dp1068
g65
(dp1069
sg74
g1054
sg67
(lp1070
g60
(g61
g62
NtRp1071
(dp1072
g65
(dp1073
g73
I4
ssg74
g1067
sg67
(lp1074
S''
asbasbasbag60
(g76
g62
NtRp1075
(dp1076
g65
(dp1077
sg74
g611
sg67
(lp1078
g60
(g81
g62
NtRp1079
(dp1080
g65
(dp1081
g85
g86
ssg74
g1075
sg67
(lp1082
S'remote_addr'
p1083
asbag60
(g81
g62
NtRp1084
(dp1085
g65
(dp1086
g92
g93
ssg74
g1075
sg67
(lp1087
S':'
asbag60
(g81
g62
NtRp1088
(dp1089
g65
(dp1090
sg74
g1075
sg67
(lp1091
g60
(g61
g62
NtRp1092
(dp1093
g65
(dp1094
g73
I4
ssg74
g1088
sg67
(lp1095
g205
asbasbasbag60
(g76
g62
NtRp1096
(dp1097
g65
(dp1098
sg74
g611
sg67
(lp1099
g60
(g81
g62
NtRp1100
(dp1101
g65
(dp1102
g85
g86
ssg74
g1096
sg67
(lp1103
S'remote_port'
p1104
asbag60
(g81
g62
NtRp1105
(dp1106
g65
(dp1107
g92
g93
ssg74
g1096
sg67
(lp1108
S':'
asbag60
(g81
g62
NtRp1109
(dp1110
g65
(dp1111
sg74
g1096
sg67
(lp1112
g60
(g61
g62
NtRp1113
(dp1114
g65
(dp1115
g73
I4
ssg74
g1109
sg67
(lp1116
S'1373'
p1117
asbasbasbag60
(g76
g62
NtRp1118
(dp1119
g65
(dp1120
sg74
g611
sg67
(lp1121
g60
(g81
g62
NtRp1122
(dp1123
g65
(dp1124
g85
g86
ssg74
g1118
sg67
(lp1125
S'request_method'
p1126
asbag60
(g81
g62
NtRp1127
(dp1128
g65
(dp1129
g92
g93
ssg74
g1118
sg67
(lp1130
S':'
asbag60
(g81
g62
NtRp1131
(dp1132
g65
(dp1133
sg74
g1118
sg67
(lp1134
g60
(g61
g62
NtRp1135
(dp1136
g65
(dp1137
g73
I4
ssg74
g1131
sg67
(lp1138
S'GET'
p1139
asbasbasbag60
(g76
g62
NtRp1140
(dp1141
g65
(dp1142
sg74
g611
sg67
(lp1143
g60
(g81
g62
NtRp1144
(dp1145
g65
(dp1146
g85
g86
ssg74
g1140
sg67
(lp1147
S'script_name'
p1148
asbag60
(g81
g62
NtRp1149
(dp1150
g65
(dp1151
g92
g93
ssg74
g1140
sg67
(lp1152
S':'
asbag60
(g81
g62
NtRp1153
(dp1154
g65
(dp1155
sg74
g1140
sg67
(lp1156
g60
(g61
g62
NtRp1157
(dp1158
g65
(dp1159
g73
I4
ssg74
g1153
sg67
(lp1160
S''
asbasbasbag60
(g76
g62
NtRp1161
(dp1162
g65
(dp1163
sg74
g611
sg67
(lp1164
g60
(g81
g62
NtRp1165
(dp1166
g65
(dp1167
g85
g86
ssg74
g1161
sg67
(lp1168
S'server_name'
p1169
asbag60
(g81
g62
NtRp1170
(dp1171
g65
(dp1172
g92
g93
ssg74
g1161
sg67
(lp1173
S':'
asbag60
(g81
g62
NtRp1174
(dp1175
g65
(dp1176
sg74
g1161
sg67
(lp1177
g60
(g61
g62
NtRp1178
(dp1179
g65
(dp1180
g73
I4
ssg74
g1174
sg67
(lp1181
S'Pedro-PC'
p1182
asbasbasbag60
(g76
g62
NtRp1183
(dp1184
g65
(dp1185
sg74
g611
sg67
(lp1186
g60
(g81
g62
NtRp1187
(dp1188
g65
(dp1189
g85
g86
ssg74
g1183
sg67
(lp1190
S'server_port'
p1191
asbag60
(g81
g62
NtRp1192
(dp1193
g65
(dp1194
g92
g93
ssg74
g1183
sg67
(lp1195
S':'
asbag60
(g81
g62
NtRp1196
(dp1197
g65
(dp1198
sg74
g1183
sg67
(lp1199
g60
(g61
g62
NtRp1200
(dp1201
g65
(dp1202
g73
I4
ssg74
g1196
sg67
(lp1203
S'8000'
p1204
asbasbasbag60
(g76
g62
NtRp1205
(dp1206
g65
(dp1207
sg74
g611
sg67
(lp1208
g60
(g81
g62
NtRp1209
(dp1210
g65
(dp1211
g85
g86
ssg74
g1205
sg67
(lp1212
S'server_protocol'
p1213
asbag60
(g81
g62
NtRp1214
(dp1215
g65
(dp1216
g92
g93
ssg74
g1205
sg67
(lp1217
S':'
asbag60
(g81
g62
NtRp1218
(dp1219
g65
(dp1220
sg74
g1205
sg67
(lp1221
g60
(g61
g62
NtRp1222
(dp1223
g65
(dp1224
g73
I4
ssg74
g1218
sg67
(lp1225
S'HTTP/1.1'
p1226
asbasbasbag60
(g76
g62
NtRp1227
(dp1228
g65
(dp1229
sg74
g611
sg67
(lp1230
g60
(g81
g62
NtRp1231
(dp1232
g65
(dp1233
g85
g86
ssg74
g1227
sg67
(lp1234
S'server_software'
p1235
asbag60
(g81
g62
NtRp1236
(dp1237
g65
(dp1238
g92
g93
ssg74
g1227
sg67
(lp1239
S':'
asbag60
(g81
g62
NtRp1240
(dp1241
g65
(dp1242
sg74
g1227
sg67
(lp1243
g60
(g61
g62
NtRp1244
(dp1245
g65
(dp1246
g73
I4
ssg74
g1240
sg67
(lp1247
S'Rocket 1.2.4'
p1248
asbasbasbag60
(g76
g62
NtRp1249
(dp1250
g65
(dp1251
sg74
g611
sg67
(lp1252
g60
(g81
g62
NtRp1253
(dp1254
g65
(dp1255
g85
g86
ssg74
g1249
sg67
(lp1256
S'web2py_crontype'
p1257
asbag60
(g81
g62
NtRp1258
(dp1259
g65
(dp1260
g92
g93
ssg74
g1249
sg67
(lp1261
S':'
asbag60
(g81
g62
NtRp1262
(dp1263
g65
(dp1264
sg74
g1249
sg67
(lp1265
g60
(g61
g62
NtRp1266
(dp1267
g65
(dp1268
g73
I4
ssg74
g1262
sg67
(lp1269
S'hard'
p1270
asbasbasbag60
(g76
g62
NtRp1271
(dp1272
g65
(dp1273
sg74
g611
sg67
(lp1274
g60
(g81
g62
NtRp1275
(dp1276
g65
(dp1277
g85
g86
ssg74
g1271
sg67
(lp1278
S'web2py_path'
p1279
asbag60
(g81
g62
NtRp1280
(dp1281
g65
(dp1282
g92
g93
ssg74
g1271
sg67
(lp1283
S':'
asbag60
(g81
g62
NtRp1284
(dp1285
g65
(dp1286
sg74
g1271
sg67
(lp1287
g60
(g61
g62
NtRp1288
(dp1289
g65
(dp1290
g73
I4
ssg74
g1284
sg67
(lp1291
g658
asbasbasbag60
(g76
g62
NtRp1292
(dp1293
g65
(dp1294
sg74
g611
sg67
(lp1295
g60
(g81
g62
NtRp1296
(dp1297
g65
(dp1298
g85
g86
ssg74
g1292
sg67
(lp1299
S'web2py_version'
p1300
asbag60
(g81
g62
NtRp1301
(dp1302
g65
(dp1303
g92
g93
ssg74
g1292
sg67
(lp1304
S':'
asbag60
(g81
g62
NtRp1305
(dp1306
g65
(dp1307
sg74
g1292
sg67
(lp1308
g60
(g61
g62
NtRp1309
(dp1310
g65
(dp1311
g73
I4
ssg74
g1305
sg67
(lp1312
g60
(g69
g62
NtRp1313
(dp1314
g65
(dp1315
g73
I3
ssg74
Nsg67
(lp1316
g60
(g76
g62
NtRp1317
(dp1318
g65
(dp1319
sg74
g1313
sg67
(lp1320
g60
(g81
g62
NtRp1321
(dp1322
g65
(dp1323
sg74
g1317
sg67
(lp1324
g60
(g61
g62
NtRp1325
(dp1326
g65
(dp1327
g73
I3
ssg74
g1321
sg67
(lp1328
S'1'
asbasbasbag60
(g76
g62
NtRp1329
(dp1330
g65
(dp1331
sg74
g1313
sg67
(lp1332
g60
(g81
g62
NtRp1333
(dp1334
g65
(dp1335
sg74
g1329
sg67
(lp1336
g60
(g61
g62
NtRp1337
(dp1338
g65
(dp1339
g73
I3
ssg74
g1333
sg67
(lp1340
S'99'
p1341
asbasbasbag60
(g76
g62
NtRp1342
(dp1343
g65
(dp1344
sg74
g1313
sg67
(lp1345
g60
(g81
g62
NtRp1346
(dp1347
g65
(dp1348
sg74
g1342
sg67
(lp1349
g60
(g61
g62
NtRp1350
(dp1351
g65
(dp1352
g73
I3
ssg74
g1346
sg67
(lp1353
S'7'
asbasbasbag60
(g76
g62
NtRp1354
(dp1355
g65
(dp1356
sg74
g1313
sg67
(lp1357
g60
(g81
g62
NtRp1358
(dp1359
g65
(dp1360
sg74
g1354
sg67
(lp1361
g60
(g61
g62
NtRp1362
(dp1363
g65
(dp1364
g73
I3
ssg74
g1358
sg67
(lp1365
S'datetime.datetime(2012, 3, 4, 22, 12, 8)'
p1366
asbasbasbag60
(g76
g62
NtRp1367
(dp1368
g65
(dp1369
sg74
g1313
sg67
(lp1370
g60
(g81
g62
NtRp1371
(dp1372
g65
(dp1373
sg74
g1367
sg67
(lp1374
g60
(g61
g62
NtRp1375
(dp1376
g65
(dp1377
g73
I3
ssg74
g1371
sg67
(lp1378
S'stable'
p1379
asbasbasbasbasbasbasbag60
(g76
g62
NtRp1380
(dp1381
g65
(dp1382
sg74
g611
sg67
(lp1383
g60
(g81
g62
NtRp1384
(dp1385
g65
(dp1386
g85
g86
ssg74
g1380
sg67
(lp1387
S'wsgi_errors'
p1388
asbag60
(g81
g62
NtRp1389
(dp1390
g65
(dp1391
g92
g93
ssg74
g1380
sg67
(lp1392
S':'
asbag60
(g81
g62
NtRp1393
(dp1394
g65
(dp1395
sg74
g1380
sg67
(lp1396
g60
(g61
g62
NtRp1397
(dp1398
g65
(dp1399
g73
I4
ssg74
g1393
sg67
(lp1400
S'<__main__.Stderr object at 0x00296670>'
p1401
asbasbasbag60
(g76
g62
NtRp1402
(dp1403
g65
(dp1404
sg74
g611
sg67
(lp1405
g60
(g81
g62
NtRp1406
(dp1407
g65
(dp1408
g85
g86
ssg74
g1402
sg67
(lp1409
S'wsgi_file_wrapper'
p1410
asbag60
(g81
g62
NtRp1411
(dp1412
g65
(dp1413
g92
g93
ssg74
g1402
sg67
(lp1414
S':'
asbag60
(g81
g62
NtRp1415
(dp1416
g65
(dp1417
sg74
g1402
sg67
(lp1418
g60
(g61
g62
NtRp1419
(dp1420
g65
(dp1421
g73
I4
ssg74
g1415
sg67
(lp1422
S'<class wsgiref.util.FileWrapper at 0x02F3DE10>'
p1423
asbasbasbag60
(g76
g62
NtRp1424
(dp1425
g65
(dp1426
sg74
g611
sg67
(lp1427
g60
(g81
g62
NtRp1428
(dp1429
g65
(dp1430
g85
g86
ssg74
g1424
sg67
(lp1431
S'wsgi_input'
p1432
asbag60
(g81
g62
NtRp1433
(dp1434
g65
(dp1435
g92
g93
ssg74
g1424
sg67
(lp1436
S':'
asbag60
(g81
g62
NtRp1437
(dp1438
g65
(dp1439
sg74
g1424
sg67
(lp1440
g60
(g61
g62
NtRp1441
(dp1442
g65
(dp1443
g73
I4
ssg74
g1437
sg67
(lp1444
S'<socket._fileobject object at 0x0637F0B0>'
p1445
asbasbasbag60
(g76
g62
NtRp1446
(dp1447
g65
(dp1448
sg74
g611
sg67
(lp1449
g60
(g81
g62
NtRp1450
(dp1451
g65
(dp1452
g85
g86
ssg74
g1446
sg67
(lp1453
S'wsgi_multiprocess'
p1454
asbag60
(g81
g62
NtRp1455
(dp1456
g65
(dp1457
g92
g93
ssg74
g1446
sg67
(lp1458
S':'
asbag60
(g81
g62
NtRp1459
(dp1460
g65
(dp1461
sg74
g1446
sg67
(lp1462
g60
(g61
g62
NtRp1463
(dp1464
g65
(dp1465
g73
I4
ssg74
g1459
sg67
(lp1466
g103
asbasbasbag60
(g76
g62
NtRp1467
(dp1468
g65
(dp1469
sg74
g611
sg67
(lp1470
g60
(g81
g62
NtRp1471
(dp1472
g65
(dp1473
g85
g86
ssg74
g1467
sg67
(lp1474
S'wsgi_multithread'
p1475
asbag60
(g81
g62
NtRp1476
(dp1477
g65
(dp1478
g92
g93
ssg74
g1467
sg67
(lp1479
S':'
asbag60
(g81
g62
NtRp1480
(dp1481
g65
(dp1482
sg74
g1467
sg67
(lp1483
g60
(g61
g62
NtRp1484
(dp1485
g65
(dp1486
g73
I4
ssg74
g1480
sg67
(lp1487
S'True'
p1488
asbasbasbag60
(g76
g62
NtRp1489
(dp1490
g65
(dp1491
sg74
g611
sg67
(lp1492
g60
(g81
g62
NtRp1493
(dp1494
g65
(dp1495
g85
g86
ssg74
g1489
sg67
(lp1496
S'wsgi_run_once'
p1497
asbag60
(g81
g62
NtRp1498
(dp1499
g65
(dp1500
g92
g93
ssg74
g1489
sg67
(lp1501
S':'
asbag60
(g81
g62
NtRp1502
(dp1503
g65
(dp1504
sg74
g1489
sg67
(lp1505
g60
(g61
g62
NtRp1506
(dp1507
g65
(dp1508
g73
I4
ssg74
g1502
sg67
(lp1509
g103
asbasbasbag60
(g76
g62
NtRp1510
(dp1511
g65
(dp1512
sg74
g611
sg67
(lp1513
g60
(g81
g62
NtRp1514
(dp1515
g65
(dp1516
g85
g86
ssg74
g1510
sg67
(lp1517
S'wsgi_url_scheme'
p1518
asbag60
(g81
g62
NtRp1519
(dp1520
g65
(dp1521
g92
g93
ssg74
g1510
sg67
(lp1522
S':'
asbag60
(g81
g62
NtRp1523
(dp1524
g65
(dp1525
sg74
g1510
sg67
(lp1526
g60
(g61
g62
NtRp1527
(dp1528
g65
(dp1529
g73
I4
ssg74
g1523
sg67
(lp1530
S'http'
p1531
asbasbasbag60
(g76
g62
NtRp1532
(dp1533
g65
(dp1534
sg74
g611
sg67
(lp1535
g60
(g81
g62
NtRp1536
(dp1537
g65
(dp1538
g85
g86
ssg74
g1532
sg67
(lp1539
S'wsgi_version'
p1540
asbag60
(g81
g62
NtRp1541
(dp1542
g65
(dp1543
g92
g93
ssg74
g1532
sg67
(lp1544
S':'
asbag60
(g81
g62
NtRp1545
(dp1546
g65
(dp1547
sg74
g1532
sg67
(lp1548
g60
(g61
g62
NtRp1549
(dp1550
g65
(dp1551
g73
I4
ssg74
g1545
sg67
(lp1552
g60
(g69
g62
NtRp1553
(dp1554
g65
(dp1555
g73
I3
ssg74
Nsg67
(lp1556
g60
(g76
g62
NtRp1557
(dp1558
g65
(dp1559
sg74
g1553
sg67
(lp1560
g60
(g81
g62
NtRp1561
(dp1562
g65
(dp1563
sg74
g1557
sg67
(lp1564
g60
(g61
g62
NtRp1565
(dp1566
g65
(dp1567
g73
I3
ssg74
g1561
sg67
(lp1568
S'1'
asbasbasbag60
(g76
g62
NtRp1569
(dp1570
g65
(dp1571
sg74
g1553
sg67
(lp1572
g60
(g81
g62
NtRp1573
(dp1574
g65
(dp1575
sg74
g1569
sg67
(lp1576
g60
(g61
g62
NtRp1577
(dp1578
g65
(dp1579
g73
I3
ssg74
g1573
sg67
(lp1580
S'0'
asbasbasbasbasbasbasbasbasbasbasbag60
(g76
g62
NtRp1581
(dp1582
g65
(dp1583
sg74
g70
sg67
(lp1584
g60
(g81
g62
NtRp1585
(dp1586
g65
(dp1587
g85
g86
ssg74
g1581
sg67
(lp1588
S'extension'
p1589
asbag60
(g81
g62
NtRp1590
(dp1591
g65
(dp1592
g92
g93
ssg74
g1581
sg67
(lp1593
S':'
asbag60
(g81
g62
NtRp1594
(dp1595
g65
(dp1596
sg74
g1581
sg67
(lp1597
g60
(g61
g62
NtRp1598
(dp1599
g65
(dp1600
g73
I5
ssg74
g1594
sg67
(lp1601
S'html'
p1602
asbasbasbag60
(g76
g62
NtRp1603
(dp1604
g65
(dp1605
sg74
g70
sg67
(lp1606
g60
(g81
g62
NtRp1607
(dp1608
g65
(dp1609
g85
g86
ssg74
g1603
sg67
(lp1610
S'folder'
p1611
asbag60
(g81
g62
NtRp1612
(dp1613
g65
(dp1614
g92
g93
ssg74
g1603
sg67
(lp1615
S':'
asbag60
(g81
g62
NtRp1616
(dp1617
g65
(dp1618
sg74
g1603
sg67
(lp1619
g60
(g61
g62
NtRp1620
(dp1621
g65
(dp1622
g73
I5
ssg74
g1616
sg67
(lp1623
S'C:\\web2py\\applications\\unioeste_code\\'
p1624
asbasbasbag60
(g76
g62
NtRp1625
(dp1626
g65
(dp1627
sg74
g70
sg67
(lp1628
g60
(g81
g62
NtRp1629
(dp1630
g65
(dp1631
g85
g86
ssg74
g1625
sg67
(lp1632
S'function'
p1633
asbag60
(g81
g62
NtRp1634
(dp1635
g65
(dp1636
g92
g93
ssg74
g1625
sg67
(lp1637
S':'
asbag60
(g81
g62
NtRp1638
(dp1639
g65
(dp1640
sg74
g1625
sg67
(lp1641
g60
(g61
g62
NtRp1642
(dp1643
g65
(dp1644
g73
I5
ssg74
g1638
sg67
(lp1645
S'Problem'
p1646
asbasbasbag60
(g76
g62
NtRp1647
(dp1648
g65
(dp1649
sg74
g70
sg67
(lp1650
g60
(g81
g62
NtRp1651
(dp1652
g65
(dp1653
g85
g86
ssg74
g1647
sg67
(lp1654
S'get_vars'
p1655
asbag60
(g81
g62
NtRp1656
(dp1657
g65
(dp1658
g92
g93
ssg74
g1647
sg67
(lp1659
S':'
asbag60
(g81
g62
NtRp1660
(dp1661
g65
(dp1662
sg74
g1647
sg67
(lp1663
g60
(g61
g62
NtRp1664
(dp1665
g65
(dp1666
g73
I5
ssg74
g1660
sg67
(lp1667
g60
(g69
g62
NtRp1668
(dp1669
g65
(dp1670
g73
I4
ssg74
Nsg67
(lp1671
sbasbasbasbag60
(g76
g62
NtRp1672
(dp1673
g65
(dp1674
sg74
g70
sg67
(lp1675
g60
(g81
g62
NtRp1676
(dp1677
g65
(dp1678
g85
g86
ssg74
g1672
sg67
(lp1679
S'global_settings'
p1680
asbag60
(g81
g62
NtRp1681
(dp1682
g65
(dp1683
g92
g93
ssg74
g1672
sg67
(lp1684
S':'
asbag60
(g81
g62
NtRp1685
(dp1686
g65
(dp1687
sg74
g1672
sg67
(lp1688
g60
(g61
g62
NtRp1689
(dp1690
g65
(dp1691
g73
I5
ssg74
g1685
sg67
(lp1692
g60
(g69
g62
NtRp1693
(dp1694
g65
(dp1695
g73
I4
ssg74
Nsg67
(lp1696
g60
(g76
g62
NtRp1697
(dp1698
g65
(dp1699
sg74
g1693
sg67
(lp1700
g60
(g81
g62
NtRp1701
(dp1702
g65
(dp1703
g85
g86
ssg74
g1697
sg67
(lp1704
g623
asbag60
(g81
g62
NtRp1705
(dp1706
g65
(dp1707
g92
g93
ssg74
g1697
sg67
(lp1708
S':'
asbag60
(g81
g62
NtRp1709
(dp1710
g65
(dp1711
sg74
g1697
sg67
(lp1712
g60
(g61
g62
NtRp1713
(dp1714
g65
(dp1715
g73
I4
ssg74
g1709
sg67
(lp1716
S"set(['C:\\\\web2py\\\\applications\\\\welcome\\\\', 'C:\\\\web2py\\\\applications\\\\unioeste_code\\\\'])"
p1717
asbasbasbag60
(g76
g62
NtRp1718
(dp1719
g65
(dp1720
sg74
g1693
sg67
(lp1721
g60
(g81
g62
NtRp1722
(dp1723
g65
(dp1724
g85
g86
ssg74
g1718
sg67
(lp1725
g645
asbag60
(g81
g62
NtRp1726
(dp1727
g65
(dp1728
g92
g93
ssg74
g1718
sg67
(lp1729
S':'
asbag60
(g81
g62
NtRp1730
(dp1731
g65
(dp1732
sg74
g1718
sg67
(lp1733
g60
(g61
g62
NtRp1734
(dp1735
g65
(dp1736
g73
I4
ssg74
g1730
sg67
(lp1737
g658
asbasbasbag60
(g76
g62
NtRp1738
(dp1739
g65
(dp1740
sg74
g1693
sg67
(lp1741
g60
(g81
g62
NtRp1742
(dp1743
g65
(dp1744
g85
g86
ssg74
g1738
sg67
(lp1745
g667
asbag60
(g81
g62
NtRp1746
(dp1747
g65
(dp1748
g92
g93
ssg74
g1738
sg67
(lp1749
S':'
asbag60
(g81
g62
NtRp1750
(dp1751
g65
(dp1752
sg74
g1738
sg67
(lp1753
g60
(g61
g62
NtRp1754
(dp1755
g65
(dp1756
g73
I4
ssg74
g1750
sg67
(lp1757
g60
(g69
g62
NtRp1758
(dp1759
g65
(dp1760
g73
I3
ssg74
Nsg67
(lp1761
sbasbasbasbag60
(g76
g62
NtRp1762
(dp1763
g65
(dp1764
sg74
g1693
sg67
(lp1765
g60
(g81
g62
NtRp1766
(dp1767
g65
(dp1768
g85
g86
ssg74
g1762
sg67
(lp1769
g692
asbag60
(g81
g62
NtRp1770
(dp1771
g65
(dp1772
g92
g93
ssg74
g1762
sg67
(lp1773
S':'
asbag60
(g81
g62
NtRp1774
(dp1775
g65
(dp1776
sg74
g1762
sg67
(lp1777
g60
(g61
g62
NtRp1778
(dp1779
g65
(dp1780
g73
I4
ssg74
g1774
sg67
(lp1781
S"<Values at 0x314c300: {'verbose': False, 'ip': '127.0.0.1', 'shutdown_timeout': 5, 'taskbar': False, 'nocron': False, 'pid_filename': 'httpserver.pid', 'maxthreads': None, 'softcron': False, 'server_name': 'Pedro-PC', 'bpython': False, 'nogui': False, 'port': 8000, 'extcron': False, 'debuglevel': 30, 'test': None, 'folder': 'C:\\\\web2py', 'config': '', 'import_models': False, 'winservice': '', 'shell': None, 'run': '', 'log_filename': 'httpserver.log', 'args': [''], 'socket_timeout': 5, 'ssl_ca_certificate': None, 'scheduler': None, 'profiler_filename': None, 'ssl_private_key': '', 'password': '<ask>', 'request_queue_size': 5, 'ssl_certificate': '', 'cronjob': False, 'numthreads': None, 'quiet': False, 'interfaces': None, 'minthreads': None, 'timeout': 10, 'plain': False, 'nobanner': False}>"
p1782
asbasbasbag60
(g76
g62
NtRp1783
(dp1784
g65
(dp1785
sg74
g1693
sg67
(lp1786
g60
(g81
g62
NtRp1787
(dp1788
g65
(dp1789
g85
g86
ssg74
g1783
sg67
(lp1790
g714
asbag60
(g81
g62
NtRp1791
(dp1792
g65
(dp1793
g92
g93
ssg74
g1783
sg67
(lp1794
S':'
asbag60
(g81
g62
NtRp1795
(dp1796
g65
(dp1797
sg74
g1783
sg67
(lp1798
g60
(g61
g62
NtRp1799
(dp1800
g65
(dp1801
g73
I4
ssg74
g1795
sg67
(lp1802
S'set([])'
p1803
asbasbasbag60
(g76
g62
NtRp1804
(dp1805
g65
(dp1806
sg74
g1693
sg67
(lp1807
g60
(g81
g62
NtRp1808
(dp1809
g65
(dp1810
g85
g86
ssg74
g1804
sg67
(lp1811
g736
asbag60
(g81
g62
NtRp1812
(dp1813
g65
(dp1814
g92
g93
ssg74
g1804
sg67
(lp1815
S':'
asbag60
(g81
g62
NtRp1816
(dp1817
g65
(dp1818
sg74
g1804
sg67
(lp1819
g60
(g61
g62
NtRp1820
(dp1821
g65
(dp1822
g73
I4
ssg74
g1816
sg67
(lp1823
g103
asbasbasbag60
(g76
g62
NtRp1824
(dp1825
g65
(dp1826
sg74
g1693
sg67
(lp1827
g60
(g81
g62
NtRp1828
(dp1829
g65
(dp1830
g85
g86
ssg74
g1824
sg67
(lp1831
g757
asbag60
(g81
g62
NtRp1832
(dp1833
g65
(dp1834
g92
g93
ssg74
g1824
sg67
(lp1835
S':'
asbag60
(g81
g62
NtRp1836
(dp1837
g65
(dp1838
sg74
g1824
sg67
(lp1839
g60
(g61
g62
NtRp1840
(dp1841
g65
(dp1842
g73
I4
ssg74
g1836
sg67
(lp1843
g770
asbasbasbag60
(g76
g62
NtRp1844
(dp1845
g65
(dp1846
sg74
g1693
sg67
(lp1847
g60
(g81
g62
NtRp1848
(dp1849
g65
(dp1850
g85
g86
ssg74
g1844
sg67
(lp1851
g998
asbag60
(g81
g62
NtRp1852
(dp1853
g65
(dp1854
g92
g93
ssg74
g1844
sg67
(lp1855
S':'
asbag60
(g81
g62
NtRp1856
(dp1857
g65
(dp1858
sg74
g1844
sg67
(lp1859
g60
(g61
g62
NtRp1860
(dp1861
g65
(dp1862
g73
I4
ssg74
g1856
sg67
(lp1863
g103
asbasbasbag60
(g76
g62
NtRp1864
(dp1865
g65
(dp1866
sg74
g1693
sg67
(lp1867
g60
(g81
g62
NtRp1868
(dp1869
g65
(dp1870
g85
g86
ssg74
g1864
sg67
(lp1871
g1019
asbag60
(g81
g62
NtRp1872
(dp1873
g65
(dp1874
g92
g93
ssg74
g1864
sg67
(lp1875
S':'
asbag60
(g81
g62
NtRp1876
(dp1877
g65
(dp1878
sg74
g1864
sg67
(lp1879
g60
(g61
g62
NtRp1880
(dp1881
g65
(dp1882
g73
I4
ssg74
g1876
sg67
(lp1883
g103
asbasbasbag60
(g76
g62
NtRp1884
(dp1885
g65
(dp1886
sg74
g1693
sg67
(lp1887
g60
(g81
g62
NtRp1888
(dp1889
g65
(dp1890
g85
g86
ssg74
g1884
sg67
(lp1891
g1257
asbag60
(g81
g62
NtRp1892
(dp1893
g65
(dp1894
g92
g93
ssg74
g1884
sg67
(lp1895
S':'
asbag60
(g81
g62
NtRp1896
(dp1897
g65
(dp1898
sg74
g1884
sg67
(lp1899
g60
(g61
g62
NtRp1900
(dp1901
g65
(dp1902
g73
I4
ssg74
g1896
sg67
(lp1903
g1270
asbasbasbag60
(g76
g62
NtRp1904
(dp1905
g65
(dp1906
sg74
g1693
sg67
(lp1907
g60
(g81
g62
NtRp1908
(dp1909
g65
(dp1910
g85
g86
ssg74
g1904
sg67
(lp1911
g1300
asbag60
(g81
g62
NtRp1912
(dp1913
g65
(dp1914
g92
g93
ssg74
g1904
sg67
(lp1915
S':'
asbag60
(g81
g62
NtRp1916
(dp1917
g65
(dp1918
sg74
g1904
sg67
(lp1919
g60
(g61
g62
NtRp1920
(dp1921
g65
(dp1922
g73
I4
ssg74
g1916
sg67
(lp1923
g60
(g69
g62
NtRp1924
(dp1925
g65
(dp1926
g73
I3
ssg74
Nsg67
(lp1927
g60
(g76
g62
NtRp1928
(dp1929
g65
(dp1930
sg74
g1924
sg67
(lp1931
g60
(g81
g62
NtRp1932
(dp1933
g65
(dp1934
sg74
g1928
sg67
(lp1935
g60
(g61
g62
NtRp1936
(dp1937
g65
(dp1938
g73
I3
ssg74
g1932
sg67
(lp1939
S'1'
asbasbasbag60
(g76
g62
NtRp1940
(dp1941
g65
(dp1942
sg74
g1924
sg67
(lp1943
g60
(g81
g62
NtRp1944
(dp1945
g65
(dp1946
sg74
g1940
sg67
(lp1947
g60
(g61
g62
NtRp1948
(dp1949
g65
(dp1950
g73
I3
ssg74
g1944
sg67
(lp1951
S'99'
p1952
asbasbasbag60
(g76
g62
NtRp1953
(dp1954
g65
(dp1955
sg74
g1924
sg67
(lp1956
g60
(g81
g62
NtRp1957
(dp1958
g65
(dp1959
sg74
g1953
sg67
(lp1960
g60
(g61
g62
NtRp1961
(dp1962
g65
(dp1963
g73
I3
ssg74
g1957
sg67
(lp1964
S'7'
asbasbasbag60
(g76
g62
NtRp1965
(dp1966
g65
(dp1967
sg74
g1924
sg67
(lp1968
g60
(g81
g62
NtRp1969
(dp1970
g65
(dp1971
sg74
g1965
sg67
(lp1972
g60
(g61
g62
NtRp1973
(dp1974
g65
(dp1975
g73
I3
ssg74
g1969
sg67
(lp1976
S'datetime.datetime(2012, 3, 4, 22, 12, 8)'
p1977
asbasbasbag60
(g76
g62
NtRp1978
(dp1979
g65
(dp1980
sg74
g1924
sg67
(lp1981
g60
(g81
g62
NtRp1982
(dp1983
g65
(dp1984
sg74
g1978
sg67
(lp1985
g60
(g61
g62
NtRp1986
(dp1987
g65
(dp1988
g73
I3
ssg74
g1982
sg67
(lp1989
g1379
asbasbasbasbasbasbasbasbasbasbasbag60
(g76
g62
NtRp1990
(dp1991
g65
(dp1992
sg74
g70
sg67
(lp1993
g60
(g81
g62
NtRp1994
(dp1995
g65
(dp1996
g85
g86
ssg74
g1990
sg67
(lp1997
S'is_https'
p1998
asbag60
(g81
g62
NtRp1999
(dp2000
g65
(dp2001
g92
g93
ssg74
g1990
sg67
(lp2002
S':'
asbag60
(g81
g62
NtRp2003
(dp2004
g65
(dp2005
sg74
g1990
sg67
(lp2006
g60
(g61
g62
NtRp2007
(dp2008
g65
(dp2009
g73
I5
ssg74
g2003
sg67
(lp2010
g103
asbasbasbag60
(g76
g62
NtRp2011
(dp2012
g65
(dp2013
sg74
g70
sg67
(lp2014
g60
(g81
g62
NtRp2015
(dp2016
g65
(dp2017
g85
g86
ssg74
g2011
sg67
(lp2018
S'is_local'
p2019
asbag60
(g81
g62
NtRp2020
(dp2021
g65
(dp2022
g92
g93
ssg74
g2011
sg67
(lp2023
S':'
asbag60
(g81
g62
NtRp2024
(dp2025
g65
(dp2026
sg74
g2011
sg67
(lp2027
g60
(g61
g62
NtRp2028
(dp2029
g65
(dp2030
g73
I5
ssg74
g2024
sg67
(lp2031
g1488
asbasbasbag60
(g76
g62
NtRp2032
(dp2033
g65
(dp2034
sg74
g70
sg67
(lp2035
g60
(g81
g62
NtRp2036
(dp2037
g65
(dp2038
g85
g86
ssg74
g2032
sg67
(lp2039
S'is_restful'
p2040
asbag60
(g81
g62
NtRp2041
(dp2042
g65
(dp2043
g92
g93
ssg74
g2032
sg67
(lp2044
S':'
asbag60
(g81
g62
NtRp2045
(dp2046
g65
(dp2047
sg74
g2032
sg67
(lp2048
g60
(g61
g62
NtRp2049
(dp2050
g65
(dp2051
g73
I5
ssg74
g2045
sg67
(lp2052
g103
asbasbasbag60
(g76
g62
NtRp2053
(dp2054
g65
(dp2055
sg74
g70
sg67
(lp2056
g60
(g81
g62
NtRp2057
(dp2058
g65
(dp2059
g85
g86
ssg74
g2053
sg67
(lp2060
S'now'
p2061
asbag60
(g81
g62
NtRp2062
(dp2063
g65
(dp2064
g92
g93
ssg74
g2053
sg67
(lp2065
S':'
asbag60
(g81
g62
NtRp2066
(dp2067
g65
(dp2068
sg74
g2053
sg67
(lp2069
g60
(g61
g62
NtRp2070
(dp2071
g65
(dp2072
g73
I5
ssg74
g2066
sg67
(lp2073
S'datetime.datetime(2012, 8, 2, 13, 30, 11, 613000)'
p2074
asbasbasbag60
(g76
g62
NtRp2075
(dp2076
g65
(dp2077
sg74
g70
sg67
(lp2078
g60
(g81
g62
NtRp2079
(dp2080
g65
(dp2081
g85
g86
ssg74
g2075
sg67
(lp2082
S'post_vars'
p2083
asbag60
(g81
g62
NtRp2084
(dp2085
g65
(dp2086
g92
g93
ssg74
g2075
sg67
(lp2087
S':'
asbag60
(g81
g62
NtRp2088
(dp2089
g65
(dp2090
sg74
g2075
sg67
(lp2091
g60
(g61
g62
NtRp2092
(dp2093
g65
(dp2094
g73
I5
ssg74
g2088
sg67
(lp2095
g60
(g69
g62
NtRp2096
(dp2097
g65
(dp2098
g73
I4
ssg74
Nsg67
(lp2099
sbasbasbasbag60
(g76
g62
NtRp2100
(dp2101
g65
(dp2102
sg74
g70
sg67
(lp2103
g60
(g81
g62
NtRp2104
(dp2105
g65
(dp2106
g85
g86
ssg74
g2100
sg67
(lp2107
S'raw_args'
p2108
asbag60
(g81
g62
NtRp2109
(dp2110
g65
(dp2111
g92
g93
ssg74
g2100
sg67
(lp2112
S':'
asbag60
(g81
g62
NtRp2113
(dp2114
g65
(dp2115
sg74
g2100
sg67
(lp2116
g60
(g61
g62
NtRp2117
(dp2118
g65
(dp2119
g73
I5
ssg74
g2113
sg67
(lp2120
S'1'
asbasbasbag60
(g76
g62
NtRp2121
(dp2122
g65
(dp2123
sg74
g70
sg67
(lp2124
g60
(g81
g62
NtRp2125
(dp2126
g65
(dp2127
g85
g86
ssg74
g2121
sg67
(lp2128
S'url'
p2129
asbag60
(g81
g62
NtRp2130
(dp2131
g65
(dp2132
g92
g93
ssg74
g2121
sg67
(lp2133
S':'
asbag60
(g81
g62
NtRp2134
(dp2135
g65
(dp2136
sg74
g2121
sg67
(lp2137
g60
(g61
g62
NtRp2138
(dp2139
g65
(dp2140
g73
I5
ssg74
g2134
sg67
(lp2141
S'/unioeste_code/default/Problem/1'
p2142
asbasbasbag60
(g76
g62
NtRp2143
(dp2144
g65
(dp2145
sg74
g70
sg67
(lp2146
g60
(g81
g62
NtRp2147
(dp2148
g65
(dp2149
g85
g86
ssg74
g2143
sg67
(lp2150
S'utcnow'
p2151
asbag60
(g81
g62
NtRp2152
(dp2153
g65
(dp2154
g92
g93
ssg74
g2143
sg67
(lp2155
S':'
asbag60
(g81
g62
NtRp2156
(dp2157
g65
(dp2158
sg74
g2143
sg67
(lp2159
g60
(g61
g62
NtRp2160
(dp2161
g65
(dp2162
g73
I5
ssg74
g2156
sg67
(lp2163
S'datetime.datetime(2012, 8, 2, 16, 30, 11, 613000)'
p2164
asbasbasbag60
(g76
g62
NtRp2165
(dp2166
g65
(dp2167
sg74
g70
sg67
(lp2168
g60
(g81
g62
NtRp2169
(dp2170
g65
(dp2171
g85
g86
ssg74
g2165
sg67
(lp2172
S'uuid'
p2173
asbag60
(g81
g62
NtRp2174
(dp2175
g65
(dp2176
g92
g93
ssg74
g2165
sg67
(lp2177
S':'
asbag60
(g81
g62
NtRp2178
(dp2179
g65
(dp2180
sg74
g2165
sg67
(lp2181
g60
(g61
g62
NtRp2182
(dp2183
g65
(dp2184
g73
I5
ssg74
g2178
sg67
(lp2185
S'unioeste_code/127.0.0.1.2012-08-02.13-30-11.99e90ce9-9f36-4243-adc5-481320528338'
p2186
asbasbasbag60
(g76
g62
NtRp2187
(dp2188
g65
(dp2189
sg74
g70
sg67
(lp2190
g60
(g81
g62
NtRp2191
(dp2192
g65
(dp2193
g85
g86
ssg74
g2187
sg67
(lp2194
S'vars'
p2195
asbag60
(g81
g62
NtRp2196
(dp2197
g65
(dp2198
g92
g93
ssg74
g2187
sg67
(lp2199
S':'
asbag60
(g81
g62
NtRp2200
(dp2201
g65
(dp2202
sg74
g2187
sg67
(lp2203
g60
(g61
g62
NtRp2204
(dp2205
g65
(dp2206
g73
I5
ssg74
g2200
sg67
(lp2207
g60
(g69
g62
NtRp2208
(dp2209
g65
(dp2210
g73
I4
ssg74
Nsg67
(lp2211
sbasbasbasbag60
(g76
g62
NtRp2212
(dp2213
g65
(dp2214
sg74
g70
sg67
(lp2215
g60
(g81
g62
NtRp2216
(dp2217
g65
(dp2218
g85
g86
ssg74
g2212
sg67
(lp2219
S'wsgi'
p2220
asbag60
(g81
g62
NtRp2221
(dp2222
g65
(dp2223
g92
g93
ssg74
g2212
sg67
(lp2224
S':'
asbag60
(g81
g62
NtRp2225
(dp2226
g65
(dp2227
sg74
g2212
sg67
(lp2228
g60
(g61
g62
NtRp2229
(dp2230
g65
(dp2231
g73
I5
ssg74
g2225
sg67
(lp2232
g60
(g69
g62
NtRp2233
(dp2234
g65
(dp2235
g73
I4
ssg74
Nsg67
(lp2236
g60
(g76
g62
NtRp2237
(dp2238
g65
(dp2239
sg74
g2233
sg67
(lp2240
g60
(g81
g62
NtRp2241
(dp2242
g65
(dp2243
g85
g86
ssg74
g2237
sg67
(lp2244
S'environ'
p2245
asbag60
(g81
g62
NtRp2246
(dp2247
g65
(dp2248
g92
g93
ssg74
g2237
sg67
(lp2249
S':'
asbag60
(g81
g62
NtRp2250
(dp2251
g65
(dp2252
sg74
g2237
sg67
(lp2253
g60
(g61
g62
NtRp2254
(dp2255
g65
(dp2256
g73
I4
ssg74
g2250
sg67
(lp2257
g60
(g69
g62
NtRp2258
(dp2259
g65
(dp2260
g73
I3
ssg74
Nsg67
(lp2261
g60
(g76
g62
NtRp2262
(dp2263
g65
(dp2264
sg74
g2258
sg67
(lp2265
g60
(g81
g62
NtRp2266
(dp2267
g65
(dp2268
g85
g86
ssg74
g2262
sg67
(lp2269
S'HTTP_ACCEPT'
p2270
asbag60
(g81
g62
NtRp2271
(dp2272
g65
(dp2273
g92
g93
ssg74
g2262
sg67
(lp2274
S':'
asbag60
(g81
g62
NtRp2275
(dp2276
g65
(dp2277
sg74
g2262
sg67
(lp2278
g60
(g61
g62
NtRp2279
(dp2280
g65
(dp2281
g73
I3
ssg74
g2275
sg67
(lp2282
g792
asbasbasbag60
(g76
g62
NtRp2283
(dp2284
g65
(dp2285
sg74
g2258
sg67
(lp2286
g60
(g81
g62
NtRp2287
(dp2288
g65
(dp2289
g85
g86
ssg74
g2283
sg67
(lp2290
S'HTTP_ACCEPT_CHARSET'
p2291
asbag60
(g81
g62
NtRp2292
(dp2293
g65
(dp2294
g92
g93
ssg74
g2283
sg67
(lp2295
S':'
asbag60
(g81
g62
NtRp2296
(dp2297
g65
(dp2298
sg74
g2283
sg67
(lp2299
g60
(g61
g62
NtRp2300
(dp2301
g65
(dp2302
g73
I3
ssg74
g2296
sg67
(lp2303
g814
asbasbasbag60
(g76
g62
NtRp2304
(dp2305
g65
(dp2306
sg74
g2258
sg67
(lp2307
g60
(g81
g62
NtRp2308
(dp2309
g65
(dp2310
g85
g86
ssg74
g2304
sg67
(lp2311
S'HTTP_ACCEPT_ENCODING'
p2312
asbag60
(g81
g62
NtRp2313
(dp2314
g65
(dp2315
g92
g93
ssg74
g2304
sg67
(lp2316
S':'
asbag60
(g81
g62
NtRp2317
(dp2318
g65
(dp2319
sg74
g2304
sg67
(lp2320
g60
(g61
g62
NtRp2321
(dp2322
g65
(dp2323
g73
I3
ssg74
g2317
sg67
(lp2324
g836
asbasbasbag60
(g76
g62
NtRp2325
(dp2326
g65
(dp2327
sg74
g2258
sg67
(lp2328
g60
(g81
g62
NtRp2329
(dp2330
g65
(dp2331
g85
g86
ssg74
g2325
sg67
(lp2332
S'HTTP_ACCEPT_LANGUAGE'
p2333
asbag60
(g81
g62
NtRp2334
(dp2335
g65
(dp2336
g92
g93
ssg74
g2325
sg67
(lp2337
S':'
asbag60
(g81
g62
NtRp2338
(dp2339
g65
(dp2340
sg74
g2325
sg67
(lp2341
g60
(g61
g62
NtRp2342
(dp2343
g65
(dp2344
g73
I3
ssg74
g2338
sg67
(lp2345
g858
asbasbasbag60
(g76
g62
NtRp2346
(dp2347
g65
(dp2348
sg74
g2258
sg67
(lp2349
g60
(g81
g62
NtRp2350
(dp2351
g65
(dp2352
g85
g86
ssg74
g2346
sg67
(lp2353
S'HTTP_CACHE_CONTROL'
p2354
asbag60
(g81
g62
NtRp2355
(dp2356
g65
(dp2357
g92
g93
ssg74
g2346
sg67
(lp2358
S':'
asbag60
(g81
g62
NtRp2359
(dp2360
g65
(dp2361
sg74
g2346
sg67
(lp2362
g60
(g61
g62
NtRp2363
(dp2364
g65
(dp2365
g73
I3
ssg74
g2359
sg67
(lp2366
g880
asbasbasbag60
(g76
g62
NtRp2367
(dp2368
g65
(dp2369
sg74
g2258
sg67
(lp2370
g60
(g81
g62
NtRp2371
(dp2372
g65
(dp2373
g85
g86
ssg74
g2367
sg67
(lp2374
S'HTTP_CONNECTION'
p2375
asbag60
(g81
g62
NtRp2376
(dp2377
g65
(dp2378
g92
g93
ssg74
g2367
sg67
(lp2379
S':'
asbag60
(g81
g62
NtRp2380
(dp2381
g65
(dp2382
sg74
g2367
sg67
(lp2383
g60
(g61
g62
NtRp2384
(dp2385
g65
(dp2386
g73
I3
ssg74
g2380
sg67
(lp2387
g902
asbasbasbag60
(g76
g62
NtRp2388
(dp2389
g65
(dp2390
sg74
g2258
sg67
(lp2391
g60
(g81
g62
NtRp2392
(dp2393
g65
(dp2394
g85
g86
ssg74
g2388
sg67
(lp2395
S'HTTP_COOKIE'
p2396
asbag60
(g81
g62
NtRp2397
(dp2398
g65
(dp2399
g92
g93
ssg74
g2388
sg67
(lp2400
S':'
asbag60
(g81
g62
NtRp2401
(dp2402
g65
(dp2403
sg74
g2388
sg67
(lp2404
g60
(g61
g62
NtRp2405
(dp2406
g65
(dp2407
g73
I3
ssg74
g2401
sg67
(lp2408
g924
asbasbasbag60
(g76
g62
NtRp2409
(dp2410
g65
(dp2411
sg74
g2258
sg67
(lp2412
g60
(g81
g62
NtRp2413
(dp2414
g65
(dp2415
g85
g86
ssg74
g2409
sg67
(lp2416
S'HTTP_DNT'
p2417
asbag60
(g81
g62
NtRp2418
(dp2419
g65
(dp2420
g92
g93
ssg74
g2409
sg67
(lp2421
S':'
asbag60
(g81
g62
NtRp2422
(dp2423
g65
(dp2424
sg74
g2409
sg67
(lp2425
g60
(g61
g62
NtRp2426
(dp2427
g65
(dp2428
g73
I3
ssg74
g2422
sg67
(lp2429
S'1'
asbasbasbag60
(g76
g62
NtRp2430
(dp2431
g65
(dp2432
sg74
g2258
sg67
(lp2433
g60
(g81
g62
NtRp2434
(dp2435
g65
(dp2436
g85
g86
ssg74
g2430
sg67
(lp2437
S'HTTP_HOST'
p2438
asbag60
(g81
g62
NtRp2439
(dp2440
g65
(dp2441
g92
g93
ssg74
g2430
sg67
(lp2442
S':'
asbag60
(g81
g62
NtRp2443
(dp2444
g65
(dp2445
sg74
g2430
sg67
(lp2446
g60
(g61
g62
NtRp2447
(dp2448
g65
(dp2449
g73
I3
ssg74
g2443
sg67
(lp2450
g967
asbasbasbag60
(g76
g62
NtRp2451
(dp2452
g65
(dp2453
sg74
g2258
sg67
(lp2454
g60
(g81
g62
NtRp2455
(dp2456
g65
(dp2457
g85
g86
ssg74
g2451
sg67
(lp2458
S'HTTP_USER_AGENT'
p2459
asbag60
(g81
g62
NtRp2460
(dp2461
g65
(dp2462
g92
g93
ssg74
g2451
sg67
(lp2463
S':'
asbag60
(g81
g62
NtRp2464
(dp2465
g65
(dp2466
sg74
g2451
sg67
(lp2467
g60
(g61
g62
NtRp2468
(dp2469
g65
(dp2470
g73
I3
ssg74
g2464
sg67
(lp2471
g989
asbasbasbag60
(g76
g62
NtRp2472
(dp2473
g65
(dp2474
sg74
g2258
sg67
(lp2475
g60
(g81
g62
NtRp2476
(dp2477
g65
(dp2478
g85
g86
ssg74
g2472
sg67
(lp2479
S'PATH_INFO'
p2480
asbag60
(g81
g62
NtRp2481
(dp2482
g65
(dp2483
g92
g93
ssg74
g2472
sg67
(lp2484
S':'
asbag60
(g81
g62
NtRp2485
(dp2486
g65
(dp2487
sg74
g2472
sg67
(lp2488
g60
(g61
g62
NtRp2489
(dp2490
g65
(dp2491
g73
I3
ssg74
g2485
sg67
(lp2492
g1053
asbasbasbag60
(g76
g62
NtRp2493
(dp2494
g65
(dp2495
sg74
g2258
sg67
(lp2496
g60
(g81
g62
NtRp2497
(dp2498
g65
(dp2499
g85
g86
ssg74
g2493
sg67
(lp2500
S'QUERY_STRING'
p2501
asbag60
(g81
g62
NtRp2502
(dp2503
g65
(dp2504
g92
g93
ssg74
g2493
sg67
(lp2505
S':'
asbag60
(g81
g62
NtRp2506
(dp2507
g65
(dp2508
sg74
g2493
sg67
(lp2509
g60
(g61
g62
NtRp2510
(dp2511
g65
(dp2512
g73
I3
ssg74
g2506
sg67
(lp2513
S''
asbasbasbag60
(g76
g62
NtRp2514
(dp2515
g65
(dp2516
sg74
g2258
sg67
(lp2517
g60
(g81
g62
NtRp2518
(dp2519
g65
(dp2520
g85
g86
ssg74
g2514
sg67
(lp2521
S'REMOTE_ADDR'
p2522
asbag60
(g81
g62
NtRp2523
(dp2524
g65
(dp2525
g92
g93
ssg74
g2514
sg67
(lp2526
S':'
asbag60
(g81
g62
NtRp2527
(dp2528
g65
(dp2529
sg74
g2514
sg67
(lp2530
g60
(g61
g62
NtRp2531
(dp2532
g65
(dp2533
g73
I3
ssg74
g2527
sg67
(lp2534
g205
asbasbasbag60
(g76
g62
NtRp2535
(dp2536
g65
(dp2537
sg74
g2258
sg67
(lp2538
g60
(g81
g62
NtRp2539
(dp2540
g65
(dp2541
g85
g86
ssg74
g2535
sg67
(lp2542
S'REMOTE_PORT'
p2543
asbag60
(g81
g62
NtRp2544
(dp2545
g65
(dp2546
g92
g93
ssg74
g2535
sg67
(lp2547
S':'
asbag60
(g81
g62
NtRp2548
(dp2549
g65
(dp2550
sg74
g2535
sg67
(lp2551
g60
(g61
g62
NtRp2552
(dp2553
g65
(dp2554
g73
I3
ssg74
g2548
sg67
(lp2555
g1117
asbasbasbag60
(g76
g62
NtRp2556
(dp2557
g65
(dp2558
sg74
g2258
sg67
(lp2559
g60
(g81
g62
NtRp2560
(dp2561
g65
(dp2562
g85
g86
ssg74
g2556
sg67
(lp2563
S'REQUEST_METHOD'
p2564
asbag60
(g81
g62
NtRp2565
(dp2566
g65
(dp2567
g92
g93
ssg74
g2556
sg67
(lp2568
S':'
asbag60
(g81
g62
NtRp2569
(dp2570
g65
(dp2571
sg74
g2556
sg67
(lp2572
g60
(g61
g62
NtRp2573
(dp2574
g65
(dp2575
g73
I3
ssg74
g2569
sg67
(lp2576
g1139
asbasbasbag60
(g76
g62
NtRp2577
(dp2578
g65
(dp2579
sg74
g2258
sg67
(lp2580
g60
(g81
g62
NtRp2581
(dp2582
g65
(dp2583
g85
g86
ssg74
g2577
sg67
(lp2584
S'SCRIPT_NAME'
p2585
asbag60
(g81
g62
NtRp2586
(dp2587
g65
(dp2588
g92
g93
ssg74
g2577
sg67
(lp2589
S':'
asbag60
(g81
g62
NtRp2590
(dp2591
g65
(dp2592
sg74
g2577
sg67
(lp2593
g60
(g61
g62
NtRp2594
(dp2595
g65
(dp2596
g73
I3
ssg74
g2590
sg67
(lp2597
S''
asbasbasbag60
(g76
g62
NtRp2598
(dp2599
g65
(dp2600
sg74
g2258
sg67
(lp2601
g60
(g81
g62
NtRp2602
(dp2603
g65
(dp2604
g85
g86
ssg74
g2598
sg67
(lp2605
S'SERVER_NAME'
p2606
asbag60
(g81
g62
NtRp2607
(dp2608
g65
(dp2609
g92
g93
ssg74
g2598
sg67
(lp2610
S':'
asbag60
(g81
g62
NtRp2611
(dp2612
g65
(dp2613
sg74
g2598
sg67
(lp2614
g60
(g61
g62
NtRp2615
(dp2616
g65
(dp2617
g73
I3
ssg74
g2611
sg67
(lp2618
g1182
asbasbasbag60
(g76
g62
NtRp2619
(dp2620
g65
(dp2621
sg74
g2258
sg67
(lp2622
g60
(g81
g62
NtRp2623
(dp2624
g65
(dp2625
g85
g86
ssg74
g2619
sg67
(lp2626
S'SERVER_PORT'
p2627
asbag60
(g81
g62
NtRp2628
(dp2629
g65
(dp2630
g92
g93
ssg74
g2619
sg67
(lp2631
S':'
asbag60
(g81
g62
NtRp2632
(dp2633
g65
(dp2634
sg74
g2619
sg67
(lp2635
g60
(g61
g62
NtRp2636
(dp2637
g65
(dp2638
g73
I3
ssg74
g2632
sg67
(lp2639
g1204
asbasbasbag60
(g76
g62
NtRp2640
(dp2641
g65
(dp2642
sg74
g2258
sg67
(lp2643
g60
(g81
g62
NtRp2644
(dp2645
g65
(dp2646
g85
g86
ssg74
g2640
sg67
(lp2647
S'SERVER_PROTOCOL'
p2648
asbag60
(g81
g62
NtRp2649
(dp2650
g65
(dp2651
g92
g93
ssg74
g2640
sg67
(lp2652
S':'
asbag60
(g81
g62
NtRp2653
(dp2654
g65
(dp2655
sg74
g2640
sg67
(lp2656
g60
(g61
g62
NtRp2657
(dp2658
g65
(dp2659
g73
I3
ssg74
g2653
sg67
(lp2660
g1226
asbasbasbag60
(g76
g62
NtRp2661
(dp2662
g65
(dp2663
sg74
g2258
sg67
(lp2664
g60
(g81
g62
NtRp2665
(dp2666
g65
(dp2667
g85
g86
ssg74
g2661
sg67
(lp2668
S'SERVER_SOFTWARE'
p2669
asbag60
(g81
g62
NtRp2670
(dp2671
g65
(dp2672
g92
g93
ssg74
g2661
sg67
(lp2673
S':'
asbag60
(g81
g62
NtRp2674
(dp2675
g65
(dp2676
sg74
g2661
sg67
(lp2677
g60
(g61
g62
NtRp2678
(dp2679
g65
(dp2680
g73
I3
ssg74
g2674
sg67
(lp2681
g1248
asbasbasbag60
(g76
g62
NtRp2682
(dp2683
g65
(dp2684
sg74
g2258
sg67
(lp2685
g60
(g81
g62
NtRp2686
(dp2687
g65
(dp2688
g85
g86
ssg74
g2682
sg67
(lp2689
S'wsgi.errors'
p2690
asbag60
(g81
g62
NtRp2691
(dp2692
g65
(dp2693
g92
g93
ssg74
g2682
sg67
(lp2694
S':'
asbag60
(g81
g62
NtRp2695
(dp2696
g65
(dp2697
sg74
g2682
sg67
(lp2698
g60
(g61
g62
NtRp2699
(dp2700
g65
(dp2701
g73
I3
ssg74
g2695
sg67
(lp2702
S'<__main__.Stderr object at 0x00296670>'
p2703
asbasbasbag60
(g76
g62
NtRp2704
(dp2705
g65
(dp2706
sg74
g2258
sg67
(lp2707
g60
(g81
g62
NtRp2708
(dp2709
g65
(dp2710
g85
g86
ssg74
g2704
sg67
(lp2711
S'wsgi.file_wrapper'
p2712
asbag60
(g81
g62
NtRp2713
(dp2714
g65
(dp2715
g92
g93
ssg74
g2704
sg67
(lp2716
S':'
asbag60
(g81
g62
NtRp2717
(dp2718
g65
(dp2719
sg74
g2704
sg67
(lp2720
g60
(g61
g62
NtRp2721
(dp2722
g65
(dp2723
g73
I3
ssg74
g2717
sg67
(lp2724
S'<class wsgiref.util.FileWrapper at 0x02F3DE10>'
p2725
asbasbasbag60
(g76
g62
NtRp2726
(dp2727
g65
(dp2728
sg74
g2258
sg67
(lp2729
g60
(g81
g62
NtRp2730
(dp2731
g65
(dp2732
g85
g86
ssg74
g2726
sg67
(lp2733
S'wsgi.input'
p2734
asbag60
(g81
g62
NtRp2735
(dp2736
g65
(dp2737
g92
g93
ssg74
g2726
sg67
(lp2738
S':'
asbag60
(g81
g62
NtRp2739
(dp2740
g65
(dp2741
sg74
g2726
sg67
(lp2742
g60
(g61
g62
NtRp2743
(dp2744
g65
(dp2745
g73
I3
ssg74
g2739
sg67
(lp2746
S'<cStringIO.StringO object at 0x06369D00>'
p2747
asbasbasbag60
(g76
g62
NtRp2748
(dp2749
g65
(dp2750
sg74
g2258
sg67
(lp2751
g60
(g81
g62
NtRp2752
(dp2753
g65
(dp2754
g85
g86
ssg74
g2748
sg67
(lp2755
S'wsgi.multiprocess'
p2756
asbag60
(g81
g62
NtRp2757
(dp2758
g65
(dp2759
g92
g93
ssg74
g2748
sg67
(lp2760
S':'
asbag60
(g81
g62
NtRp2761
(dp2762
g65
(dp2763
sg74
g2748
sg67
(lp2764
g60
(g61
g62
NtRp2765
(dp2766
g65
(dp2767
g73
I3
ssg74
g2761
sg67
(lp2768
g103
asbasbasbag60
(g76
g62
NtRp2769
(dp2770
g65
(dp2771
sg74
g2258
sg67
(lp2772
g60
(g81
g62
NtRp2773
(dp2774
g65
(dp2775
g85
g86
ssg74
g2769
sg67
(lp2776
S'wsgi.multithread'
p2777
asbag60
(g81
g62
NtRp2778
(dp2779
g65
(dp2780
g92
g93
ssg74
g2769
sg67
(lp2781
S':'
asbag60
(g81
g62
NtRp2782
(dp2783
g65
(dp2784
sg74
g2769
sg67
(lp2785
g60
(g61
g62
NtRp2786
(dp2787
g65
(dp2788
g73
I3
ssg74
g2782
sg67
(lp2789
g1488
asbasbasbag60
(g76
g62
NtRp2790
(dp2791
g65
(dp2792
sg74
g2258
sg67
(lp2793
g60
(g81
g62
NtRp2794
(dp2795
g65
(dp2796
g85
g86
ssg74
g2790
sg67
(lp2797
S'wsgi.run_once'
p2798
asbag60
(g81
g62
NtRp2799
(dp2800
g65
(dp2801
g92
g93
ssg74
g2790
sg67
(lp2802
S':'
asbag60
(g81
g62
NtRp2803
(dp2804
g65
(dp2805
sg74
g2790
sg67
(lp2806
g60
(g61
g62
NtRp2807
(dp2808
g65
(dp2809
g73
I3
ssg74
g2803
sg67
(lp2810
g103
asbasbasbag60
(g76
g62
NtRp2811
(dp2812
g65
(dp2813
sg74
g2258
sg67
(lp2814
g60
(g81
g62
NtRp2815
(dp2816
g65
(dp2817
g85
g86
ssg74
g2811
sg67
(lp2818
S'wsgi.url_scheme'
p2819
asbag60
(g81
g62
NtRp2820
(dp2821
g65
(dp2822
g92
g93
ssg74
g2811
sg67
(lp2823
S':'
asbag60
(g81
g62
NtRp2824
(dp2825
g65
(dp2826
sg74
g2811
sg67
(lp2827
g60
(g61
g62
NtRp2828
(dp2829
g65
(dp2830
g73
I3
ssg74
g2824
sg67
(lp2831
g1531
asbasbasbag60
(g76
g62
NtRp2832
(dp2833
g65
(dp2834
sg74
g2258
sg67
(lp2835
g60
(g81
g62
NtRp2836
(dp2837
g65
(dp2838
g85
g86
ssg74
g2832
sg67
(lp2839
S'wsgi.version'
p2840
asbag60
(g81
g62
NtRp2841
(dp2842
g65
(dp2843
g92
g93
ssg74
g2832
sg67
(lp2844
S':'
asbag60
(g81
g62
NtRp2845
(dp2846
g65
(dp2847
sg74
g2832
sg67
(lp2848
g60
(g61
g62
NtRp2849
(dp2850
g65
(dp2851
g73
I3
ssg74
g2845
sg67
(lp2852
S'1'
asbasbasbasbasbasbasbasbasbasbasbasbasbsS'frames'
p2853
(lp2854
(dp2855
S'file'
p2856
S'C:\\web2py\\gluon\\restricted.py'
p2857
sS'dump'
p2858
(dp2859
sS'lnum'
p2860
I204
sS'lines'
p2861
(dp2862
sS'call'
p2863
S'(code="response.write(\' \', escape=False)\\nresponse.write...n\\\\r\\\\n  </body>\\\\r\\\\n</html>\\\\r\\\\n\\\\r\\\\n\', escape=False)", environment={\'A\': <class \'gluon.html.A\'>, \'Auth\': <class \'gluon.tools.Auth\'>, \'B\': <class \'gluon.html.B\'>, \'BEAUTIFY\': <class \'gluon.html.BEAUTIFY\'>, \'BODY\': <class \'gluon.html.BODY\'>, \'BR\': <class \'gluon.html.BR\'>, \'BUTTON\': <class \'gluon.html.BUTTON\'>, \'CAT\': <class \'gluon.html.CAT\'>, \'CENTER\': <class \'gluon.html.CENTER\'>, \'CLEANUP\': <class \'gluon.validators.CLEANUP\'>, ...}, layer=r\'C:\\web2py\\applications\\unioeste_code\\views\\default/Problem.html\')'
p2864
sS'func'
p2865
S'restricted'
p2866
sa(dp2867
g2856
S'C:\\web2py\\gluon\\restricted.py'
p2868
sg2858
(dp2869
sg2860
I189
sg2861
(dp2870
sg2863
S'(code="response.write(\' \', escape=False)\\nresponse.write...n\\\\r\\\\n  </body>\\\\r\\\\n</html>\\\\r\\\\n\\\\r\\\\n\', escape=False)", layer=r\'C:\\web2py\\applications\\unioeste_code\\views\\default/Problem.html\')'
p2871
sg2865
S'compile2'
p2872
sasS'pyver'
p2873
S'Python 2.5.4: C:\\web2py\\web2py_no_console.exe'
p2874
sS'session'
p2875
g60
(g61
g62
NtRp2876
(dp2877
g65
(dp2878
sg67
(lp2879
g60
(g69
g62
NtRp2880
(dp2881
g65
(dp2882
g73
I5
ssg74
Nsg67
(lp2883
g60
(g76
g62
NtRp2884
(dp2885
g65
(dp2886
sg74
g2880
sg67
(lp2887
g60
(g81
g62
NtRp2888
(dp2889
g65
(dp2890
g85
g86
ssg74
g2884
sg67
(lp2891
S'auth'
p2892
asbag60
(g81
g62
NtRp2893
(dp2894
g65
(dp2895
g92
g93
ssg74
g2884
sg67
(lp2896
S':'
asbag60
(g81
g62
NtRp2897
(dp2898
g65
(dp2899
sg74
g2884
sg67
(lp2900
g60
(g61
g62
NtRp2901
(dp2902
g65
(dp2903
g73
I5
ssg74
g2897
sg67
(lp2904
g60
(g69
g62
NtRp2905
(dp2906
g65
(dp2907
g73
I4
ssg74
Nsg67
(lp2908
g60
(g76
g62
NtRp2909
(dp2910
g65
(dp2911
sg74
g2905
sg67
(lp2912
g60
(g81
g62
NtRp2913
(dp2914
g65
(dp2915
g85
g86
ssg74
g2909
sg67
(lp2916
S'expiration'
p2917
asbag60
(g81
g62
NtRp2918
(dp2919
g65
(dp2920
g92
g93
ssg74
g2909
sg67
(lp2921
S':'
asbag60
(g81
g62
NtRp2922
(dp2923
g65
(dp2924
sg74
g2909
sg67
(lp2925
g60
(g61
g62
NtRp2926
(dp2927
g65
(dp2928
g73
I4
ssg74
g2922
sg67
(lp2929
S'3600'
p2930
asbasbasbag60
(g76
g62
NtRp2931
(dp2932
g65
(dp2933
sg74
g2905
sg67
(lp2934
g60
(g81
g62
NtRp2935
(dp2936
g65
(dp2937
g85
g86
ssg74
g2931
sg67
(lp2938
S'hmac_key'
p2939
asbag60
(g81
g62
NtRp2940
(dp2941
g65
(dp2942
g92
g93
ssg74
g2931
sg67
(lp2943
S':'
asbag60
(g81
g62
NtRp2944
(dp2945
g65
(dp2946
sg74
g2931
sg67
(lp2947
g60
(g61
g62
NtRp2948
(dp2949
g65
(dp2950
g73
I4
ssg74
g2944
sg67
(lp2951
S'6bf00636-5e98-4287-a7e3-a357097f7d5f'
p2952
asbasbasbag60
(g76
g62
NtRp2953
(dp2954
g65
(dp2955
sg74
g2905
sg67
(lp2956
g60
(g81
g62
NtRp2957
(dp2958
g65
(dp2959
g85
g86
ssg74
g2953
sg67
(lp2960
S'last_visit'
p2961
asbag60
(g81
g62
NtRp2962
(dp2963
g65
(dp2964
g92
g93
ssg74
g2953
sg67
(lp2965
S':'
asbag60
(g81
g62
NtRp2966
(dp2967
g65
(dp2968
sg74
g2953
sg67
(lp2969
g60
(g61
g62
NtRp2970
(dp2971
g65
(dp2972
g73
I4
ssg74
g2966
sg67
(lp2973
S'datetime.datetime(2012, 8, 2, 13, 27, 29, 582000)'
p2974
asbasbasbag60
(g76
g62
NtRp2975
(dp2976
g65
(dp2977
sg74
g2905
sg67
(lp2978
g60
(g81
g62
NtRp2979
(dp2980
g65
(dp2981
g85
g86
ssg74
g2975
sg67
(lp2982
S'remember'
p2983
asbag60
(g81
g62
NtRp2984
(dp2985
g65
(dp2986
g92
g93
ssg74
g2975
sg67
(lp2987
S':'
asbag60
(g81
g62
NtRp2988
(dp2989
g65
(dp2990
sg74
g2975
sg67
(lp2991
g60
(g61
g62
NtRp2992
(dp2993
g65
(dp2994
g73
I4
ssg74
g2988
sg67
(lp2995
g103
asbasbasbag60
(g76
g62
NtRp2996
(dp2997
g65
(dp2998
sg74
g2905
sg67
(lp2999
g60
(g81
g62
NtRp3000
(dp3001
g65
(dp3002
g85
g86
ssg74
g2996
sg67
(lp3003
S'user'
p3004
asbag60
(g81
g62
NtRp3005
(dp3006
g65
(dp3007
g92
g93
ssg74
g2996
sg67
(lp3008
S':'
asbag60
(g81
g62
NtRp3009
(dp3010
g65
(dp3011
sg74
g2996
sg67
(lp3012
g60
(g61
g62
NtRp3013
(dp3014
g65
(dp3015
g73
I4
ssg74
g3009
sg67
(lp3016
g60
(g69
g62
NtRp3017
(dp3018
g65
(dp3019
g73
I3
ssg74
Nsg67
(lp3020
g60
(g76
g62
NtRp3021
(dp3022
g65
(dp3023
sg74
g3017
sg67
(lp3024
g60
(g81
g62
NtRp3025
(dp3026
g65
(dp3027
g85
g86
ssg74
g3021
sg67
(lp3028
S'email'
p3029
asbag60
(g81
g62
NtRp3030
(dp3031
g65
(dp3032
g92
g93
ssg74
g3021
sg67
(lp3033
S':'
asbag60
(g81
g62
NtRp3034
(dp3035
g65
(dp3036
sg74
g3021
sg67
(lp3037
g60
(g61
g62
NtRp3038
(dp3039
g65
(dp3040
g73
I3
ssg74
g3034
sg67
(lp3041
S'scmirror1@gmail.com'
p3042
asbasbasbag60
(g76
g62
NtRp3043
(dp3044
g65
(dp3045
sg74
g3017
sg67
(lp3046
g60
(g81
g62
NtRp3047
(dp3048
g65
(dp3049
g85
g86
ssg74
g3043
sg67
(lp3050
S'first_name'
p3051
asbag60
(g81
g62
NtRp3052
(dp3053
g65
(dp3054
g92
g93
ssg74
g3043
sg67
(lp3055
S':'
asbag60
(g81
g62
NtRp3056
(dp3057
g65
(dp3058
sg74
g3043
sg67
(lp3059
g60
(g61
g62
NtRp3060
(dp3061
g65
(dp3062
g73
I3
ssg74
g3056
sg67
(lp3063
S'Pedro'
p3064
asbasbasbag60
(g76
g62
NtRp3065
(dp3066
g65
(dp3067
sg74
g3017
sg67
(lp3068
g60
(g81
g62
NtRp3069
(dp3070
g65
(dp3071
g85
g86
ssg74
g3065
sg67
(lp3072
S'id'
p3073
asbag60
(g81
g62
NtRp3074
(dp3075
g65
(dp3076
g92
g93
ssg74
g3065
sg67
(lp3077
S':'
asbag60
(g81
g62
NtRp3078
(dp3079
g65
(dp3080
sg74
g3065
sg67
(lp3081
g60
(g61
g62
NtRp3082
(dp3083
g65
(dp3084
g73
I3
ssg74
g3078
sg67
(lp3085
S'1'
asbasbasbag60
(g76
g62
NtRp3086
(dp3087
g65
(dp3088
sg74
g3017
sg67
(lp3089
g60
(g81
g62
NtRp3090
(dp3091
g65
(dp3092
g85
g86
ssg74
g3086
sg67
(lp3093
S'last_name'
p3094
asbag60
(g81
g62
NtRp3095
(dp3096
g65
(dp3097
g92
g93
ssg74
g3086
sg67
(lp3098
S':'
asbag60
(g81
g62
NtRp3099
(dp3100
g65
(dp3101
sg74
g3086
sg67
(lp3102
g60
(g61
g62
NtRp3103
(dp3104
g65
(dp3105
g73
I3
ssg74
g3099
sg67
(lp3106
S'Lacerda'
p3107
asbasbasbag60
(g76
g62
NtRp3108
(dp3109
g65
(dp3110
sg74
g3017
sg67
(lp3111
g60
(g81
g62
NtRp3112
(dp3113
g65
(dp3114
g85
g86
ssg74
g3108
sg67
(lp3115
S'password'
p3116
asbag60
(g81
g62
NtRp3117
(dp3118
g65
(dp3119
g92
g93
ssg74
g3108
sg67
(lp3120
S':'
asbag60
(g81
g62
NtRp3121
(dp3122
g65
(dp3123
sg74
g3108
sg67
(lp3124
g60
(g61
g62
NtRp3125
(dp3126
g65
(dp3127
g73
I3
ssg74
g3121
sg67
(lp3128
S'4297f44b13955235245b2497399d7a93'
p3129
asbasbasbag60
(g76
g62
NtRp3130
(dp3131
g65
(dp3132
sg74
g3017
sg67
(lp3133
g60
(g81
g62
NtRp3134
(dp3135
g65
(dp3136
g85
g86
ssg74
g3130
sg67
(lp3137
S'registration_id'
p3138
asbag60
(g81
g62
NtRp3139
(dp3140
g65
(dp3141
g92
g93
ssg74
g3130
sg67
(lp3142
S':'
asbag60
(g81
g62
NtRp3143
(dp3144
g65
(dp3145
sg74
g3130
sg67
(lp3146
g60
(g61
g62
NtRp3147
(dp3148
g65
(dp3149
g73
I3
ssg74
g3143
sg67
(lp3150
S''
asbasbasbag60
(g76
g62
NtRp3151
(dp3152
g65
(dp3153
sg74
g3017
sg67
(lp3154
g60
(g81
g62
NtRp3155
(dp3156
g65
(dp3157
g85
g86
ssg74
g3151
sg67
(lp3158
S'registration_key'
p3159
asbag60
(g81
g62
NtRp3160
(dp3161
g65
(dp3162
g92
g93
ssg74
g3151
sg67
(lp3163
S':'
asbag60
(g81
g62
NtRp3164
(dp3165
g65
(dp3166
sg74
g3151
sg67
(lp3167
g60
(g61
g62
NtRp3168
(dp3169
g65
(dp3170
g73
I3
ssg74
g3164
sg67
(lp3171
S''
asbasbasbag60
(g76
g62
NtRp3172
(dp3173
g65
(dp3174
sg74
g3017
sg67
(lp3175
g60
(g81
g62
NtRp3176
(dp3177
g65
(dp3178
g85
g86
ssg74
g3172
sg67
(lp3179
S'reset_password_key'
p3180
asbag60
(g81
g62
NtRp3181
(dp3182
g65
(dp3183
g92
g93
ssg74
g3172
sg67
(lp3184
S':'
asbag60
(g81
g62
NtRp3185
(dp3186
g65
(dp3187
sg74
g3172
sg67
(lp3188
g60
(g61
g62
NtRp3189
(dp3190
g65
(dp3191
g73
I3
ssg74
g3185
sg67
(lp3192
S''
asbasbasbasbasbasbasbag60
(g76
g62
NtRp3193
(dp3194
g65
(dp3195
sg74
g2905
sg67
(lp3196
g60
(g81
g62
NtRp3197
(dp3198
g65
(dp3199
g85
g86
ssg74
g3193
sg67
(lp3200
S'user_groups'
p3201
asbag60
(g81
g62
NtRp3202
(dp3203
g65
(dp3204
g92
g93
ssg74
g3193
sg67
(lp3205
S':'
asbag60
(g81
g62
NtRp3206
(dp3207
g65
(dp3208
sg74
g3193
sg67
(lp3209
g60
(g61
g62
NtRp3210
(dp3211
g65
(dp3212
g73
I4
ssg74
g3206
sg67
(lp3213
g60
(g69
g62
NtRp3214
(dp3215
g65
(dp3216
g73
I3
ssg74
Nsg67
(lp3217
g60
(g76
g62
NtRp3218
(dp3219
g65
(dp3220
sg74
g3214
sg67
(lp3221
g60
(g81
g62
NtRp3222
(dp3223
g65
(dp3224
g85
g86
ssg74
g3218
sg67
(lp3225
S'1'
asbag60
(g81
g62
NtRp3226
(dp3227
g65
(dp3228
g92
g93
ssg74
g3218
sg67
(lp3229
S':'
asbag60
(g81
g62
NtRp3230
(dp3231
g65
(dp3232
sg74
g3218
sg67
(lp3233
g60
(g61
g62
NtRp3234
(dp3235
g65
(dp3236
g73
I3
ssg74
g3230
sg67
(lp3237
S'user_1'
p3238
asbasbasbag60
(g76
g62
NtRp3239
(dp3240
g65
(dp3241
sg74
g3214
sg67
(lp3242
g60
(g81
g62
NtRp3243
(dp3244
g65
(dp3245
g85
g86
ssg74
g3239
sg67
(lp3246
S'2'
asbag60
(g81
g62
NtRp3247
(dp3248
g65
(dp3249
g92
g93
ssg74
g3239
sg67
(lp3250
S':'
asbag60
(g81
g62
NtRp3251
(dp3252
g65
(dp3253
sg74
g3239
sg67
(lp3254
g60
(g61
g62
NtRp3255
(dp3256
g65
(dp3257
g73
I3
ssg74
g3251
sg67
(lp3258
S'manager'
p3259
asbasbasbasbasbasbasbasbasbasbasbasbasbsS'etype'
p3260
S"<type 'exceptions.SyntaxError'>"
p3261
sS'date'
p3262
S'Thu Aug 02 13:30:11 2012'
p3263
sS'response'
p3264
g60
(g61
g62
NtRp3265
(dp3266
g65
(dp3267
sg67
(lp3268
g60
(g69
g62
NtRp3269
(dp3270
g65
(dp3271
g73
I5
ssg74
Nsg67
(lp3272
g60
(g76
g62
NtRp3273
(dp3274
g65
(dp3275
sg74
g3269
sg67
(lp3276
g60
(g81
g62
NtRp3277
(dp3278
g65
(dp3279
g85
g86
ssg74
g3273
sg67
(lp3280
g170
asbag60
(g81
g62
NtRp3281
(dp3282
g65
(dp3283
g92
g93
ssg74
g3273
sg67
(lp3284
S':'
asbag60
(g81
g62
NtRp3285
(dp3286
g65
(dp3287
sg74
g3273
sg67
(lp3288
g60
(g61
g62
NtRp3289
(dp3290
g65
(dp3291
g73
I5
ssg74
g3285
sg67
(lp3292
S'<cStringIO.StringO object at 0x06369BE0>'
p3293
asbasbasbag60
(g76
g62
NtRp3294
(dp3295
g65
(dp3296
sg74
g3269
sg67
(lp3297
g60
(g81
g62
NtRp3298
(dp3299
g65
(dp3300
g85
g86
ssg74
g3294
sg67
(lp3301
g236
asbag60
(g81
g62
NtRp3302
(dp3303
g65
(dp3304
g92
g93
ssg74
g3294
sg67
(lp3305
S':'
asbag60
(g81
g62
NtRp3306
(dp3307
g65
(dp3308
sg74
g3294
sg67
(lp3309
g60
(g61
g62
NtRp3310
(dp3311
g65
(dp3312
g73
I5
ssg74
g3306
sg67
(lp3313
g60
(g69
g62
NtRp3314
(dp3315
g65
(dp3316
g73
I4
ssg74
Nsg67
(lp3317
g60
(g76
g62
NtRp3318
(dp3319
g65
(dp3320
sg74
g3314
sg67
(lp3321
g60
(g81
g62
NtRp3322
(dp3323
g65
(dp3324
g85
g86
ssg74
g3318
sg67
(lp3325
S'session_id_unioeste_code'
p3326
asbag60
(g81
g62
NtRp3327
(dp3328
g65
(dp3329
g92
g93
ssg74
g3318
sg67
(lp3330
S':'
asbag60
(g81
g62
NtRp3331
(dp3332
g65
(dp3333
sg74
g3318
sg67
(lp3334
g60
(g61
g62
NtRp3335
(dp3336
g65
(dp3337
g73
I4
ssg74
g3331
sg67
(lp3338
g60
(g69
g62
NtRp3339
(dp3340
g65
(dp3341
g73
I3
ssg74
Nsg67
(lp3342
g60
(g76
g62
NtRp3343
(dp3344
g65
(dp3345
sg74
g3339
sg67
(lp3346
g60
(g81
g62
NtRp3347
(dp3348
g65
(dp3349
g85
g86
ssg74
g3343
sg67
(lp3350
g286
asbag60
(g81
g62
NtRp3351
(dp3352
g65
(dp3353
g92
g93
ssg74
g3343
sg67
(lp3354
S':'
asbag60
(g81
g62
NtRp3355
(dp3356
g65
(dp3357
sg74
g3343
sg67
(lp3358
g60
(g61
g62
NtRp3359
(dp3360
g65
(dp3361
g73
I3
ssg74
g3355
sg67
(lp3362
S''
asbasbasbag60
(g76
g62
NtRp3363
(dp3364
g65
(dp3365
sg74
g3339
sg67
(lp3366
g60
(g81
g62
NtRp3367
(dp3368
g65
(dp3369
g85
g86
ssg74
g3363
sg67
(lp3370
g307
asbag60
(g81
g62
NtRp3371
(dp3372
g65
(dp3373
g92
g93
ssg74
g3363
sg67
(lp3374
S':'
asbag60
(g81
g62
NtRp3375
(dp3376
g65
(dp3377
sg74
g3363
sg67
(lp3378
g60
(g61
g62
NtRp3379
(dp3380
g65
(dp3381
g73
I3
ssg74
g3375
sg67
(lp3382
S''
asbasbasbag60
(g76
g62
NtRp3383
(dp3384
g65
(dp3385
sg74
g3339
sg67
(lp3386
g60
(g81
g62
NtRp3387
(dp3388
g65
(dp3389
g85
g86
ssg74
g3383
sg67
(lp3390
g328
asbag60
(g81
g62
NtRp3391
(dp3392
g65
(dp3393
g92
g93
ssg74
g3383
sg67
(lp3394
S':'
asbag60
(g81
g62
NtRp3395
(dp3396
g65
(dp3397
sg74
g3383
sg67
(lp3398
g60
(g61
g62
NtRp3399
(dp3400
g65
(dp3401
g73
I3
ssg74
g3395
sg67
(lp3402
S''
asbasbasbag60
(g76
g62
NtRp3403
(dp3404
g65
(dp3405
sg74
g3339
sg67
(lp3406
g60
(g81
g62
NtRp3407
(dp3408
g65
(dp3409
g85
g86
ssg74
g3403
sg67
(lp3410
g349
asbag60
(g81
g62
NtRp3411
(dp3412
g65
(dp3413
g92
g93
ssg74
g3403
sg67
(lp3414
S':'
asbag60
(g81
g62
NtRp3415
(dp3416
g65
(dp3417
sg74
g3403
sg67
(lp3418
g60
(g61
g62
NtRp3419
(dp3420
g65
(dp3421
g73
I3
ssg74
g3415
sg67
(lp3422
S''
asbasbasbag60
(g76
g62
NtRp3423
(dp3424
g65
(dp3425
sg74
g3339
sg67
(lp3426
g60
(g81
g62
NtRp3427
(dp3428
g65
(dp3429
g85
g86
ssg74
g3423
sg67
(lp3430
g370
asbag60
(g81
g62
NtRp3431
(dp3432
g65
(dp3433
g92
g93
ssg74
g3423
sg67
(lp3434
S':'
asbag60
(g81
g62
NtRp3435
(dp3436
g65
(dp3437
sg74
g3423
sg67
(lp3438
g60
(g61
g62
NtRp3439
(dp3440
g65
(dp3441
g73
I3
ssg74
g3435
sg67
(lp3442
S'/'
asbasbasbag60
(g76
g62
NtRp3443
(dp3444
g65
(dp3445
sg74
g3339
sg67
(lp3446
g60
(g81
g62
NtRp3447
(dp3448
g65
(dp3449
g85
g86
ssg74
g3443
sg67
(lp3450
g391
asbag60
(g81
g62
NtRp3451
(dp3452
g65
(dp3453
g92
g93
ssg74
g3443
sg67
(lp3454
S':'
asbag60
(g81
g62
NtRp3455
(dp3456
g65
(dp3457
sg74
g3443
sg67
(lp3458
g60
(g61
g62
NtRp3459
(dp3460
g65
(dp3461
g73
I3
ssg74
g3455
sg67
(lp3462
S''
asbasbasbag60
(g76
g62
NtRp3463
(dp3464
g65
(dp3465
sg74
g3339
sg67
(lp3466
g60
(g81
g62
NtRp3467
(dp3468
g65
(dp3469
g85
g86
ssg74
g3463
sg67
(lp3470
g412
asbag60
(g81
g62
NtRp3471
(dp3472
g65
(dp3473
g92
g93
ssg74
g3463
sg67
(lp3474
S':'
asbag60
(g81
g62
NtRp3475
(dp3476
g65
(dp3477
sg74
g3463
sg67
(lp3478
g60
(g61
g62
NtRp3479
(dp3480
g65
(dp3481
g73
I3
ssg74
g3475
sg67
(lp3482
S''
asbasbasbasbasbasbasbasbasbasbasbag60
(g76
g62
NtRp3483
(dp3484
g65
(dp3485
sg74
g3269
sg67
(lp3486
g60
(g81
g62
NtRp3487
(dp3488
g65
(dp3489
g85
g86
ssg74
g3483
sg67
(lp3490
S'delimiters'
p3491
asbag60
(g81
g62
NtRp3492
(dp3493
g65
(dp3494
g92
g93
ssg74
g3483
sg67
(lp3495
S':'
asbag60
(g81
g62
NtRp3496
(dp3497
g65
(dp3498
sg74
g3483
sg67
(lp3499
g60
(g61
g62
NtRp3500
(dp3501
g65
(dp3502
g73
I5
ssg74
g3496
sg67
(lp3503
g60
(g69
g62
NtRp3504
(dp3505
g65
(dp3506
g73
I4
ssg74
Nsg67
(lp3507
g60
(g76
g62
NtRp3508
(dp3509
g65
(dp3510
sg74
g3504
sg67
(lp3511
g60
(g81
g62
NtRp3512
(dp3513
g65
(dp3514
sg74
g3508
sg67
(lp3515
g60
(g61
g62
NtRp3516
(dp3517
g65
(dp3518
g73
I4
ssg74
g3512
sg67
(lp3519
S'{{'
p3520
asbasbasbag60
(g76
g62
NtRp3521
(dp3522
g65
(dp3523
sg74
g3504
sg67
(lp3524
g60
(g81
g62
NtRp3525
(dp3526
g65
(dp3527
sg74
g3521
sg67
(lp3528
g60
(g61
g62
NtRp3529
(dp3530
g65
(dp3531
g73
I4
ssg74
g3525
sg67
(lp3532
S'}}'
p3533
asbasbasbasbasbasbasbag60
(g76
g62
NtRp3534
(dp3535
g65
(dp3536
sg74
g3269
sg67
(lp3537
g60
(g81
g62
NtRp3538
(dp3539
g65
(dp3540
g85
g86
ssg74
g3534
sg67
(lp3541
S'files'
p3542
asbag60
(g81
g62
NtRp3543
(dp3544
g65
(dp3545
g92
g93
ssg74
g3534
sg67
(lp3546
S':'
asbag60
(g81
g62
NtRp3547
(dp3548
g65
(dp3549
sg74
g3534
sg67
(lp3550
g60
(g61
g62
NtRp3551
(dp3552
g65
(dp3553
g73
I5
ssg74
g3547
sg67
(lp3554
g60
(g69
g62
NtRp3555
(dp3556
g65
(dp3557
g73
I4
ssg74
Nsg67
(lp3558
sbasbasbasbag60
(g76
g62
NtRp3559
(dp3560
g65
(dp3561
sg74
g3269
sg67
(lp3562
g60
(g81
g62
NtRp3563
(dp3564
g65
(dp3565
g85
g86
ssg74
g3559
sg67
(lp3566
S'flash'
p3567
asbag60
(g81
g62
NtRp3568
(dp3569
g65
(dp3570
g92
g93
ssg74
g3559
sg67
(lp3571
S':'
asbag60
(g81
g62
NtRp3572
(dp3573
g65
(dp3574
sg74
g3559
sg67
(lp3575
g60
(g61
g62
NtRp3576
(dp3577
g65
(dp3578
g73
I5
ssg74
g3572
sg67
(lp3579
S''
asbasbasbag60
(g76
g62
NtRp3580
(dp3581
g65
(dp3582
sg74
g3269
sg67
(lp3583
g60
(g81
g62
NtRp3584
(dp3585
g65
(dp3586
g85
g86
ssg74
g3580
sg67
(lp3587
S'generic_patterns'
p3588
asbag60
(g81
g62
NtRp3589
(dp3590
g65
(dp3591
g92
g93
ssg74
g3580
sg67
(lp3592
S':'
asbag60
(g81
g62
NtRp3593
(dp3594
g65
(dp3595
sg74
g3580
sg67
(lp3596
g60
(g61
g62
NtRp3597
(dp3598
g65
(dp3599
g73
I5
ssg74
g3593
sg67
(lp3600
g60
(g69
g62
NtRp3601
(dp3602
g65
(dp3603
g73
I4
ssg74
Nsg67
(lp3604
sbasbasbasbag60
(g76
g62
NtRp3605
(dp3606
g65
(dp3607
sg74
g3269
sg67
(lp3608
g60
(g81
g62
NtRp3609
(dp3610
g65
(dp3611
g85
g86
ssg74
g3605
sg67
(lp3612
S'headers'
p3613
asbag60
(g81
g62
NtRp3614
(dp3615
g65
(dp3616
g92
g93
ssg74
g3605
sg67
(lp3617
S':'
asbag60
(g81
g62
NtRp3618
(dp3619
g65
(dp3620
sg74
g3605
sg67
(lp3621
g60
(g61
g62
NtRp3622
(dp3623
g65
(dp3624
g73
I5
ssg74
g3618
sg67
(lp3625
g60
(g69
g62
NtRp3626
(dp3627
g65
(dp3628
g73
I4
ssg74
Nsg67
(lp3629
g60
(g76
g62
NtRp3630
(dp3631
g65
(dp3632
sg74
g3626
sg67
(lp3633
g60
(g81
g62
NtRp3634
(dp3635
g65
(dp3636
g85
g86
ssg74
g3630
sg67
(lp3637
S'Cache-Control'
p3638
asbag60
(g81
g62
NtRp3639
(dp3640
g65
(dp3641
g92
g93
ssg74
g3630
sg67
(lp3642
S':'
asbag60
(g81
g62
NtRp3643
(dp3644
g65
(dp3645
sg74
g3630
sg67
(lp3646
g60
(g61
g62
NtRp3647
(dp3648
g65
(dp3649
g73
I4
ssg74
g3643
sg67
(lp3650
S'no-store, no-cache, must-revalidate, post-check=0, pre-check=0'
p3651
asbasbasbag60
(g76
g62
NtRp3652
(dp3653
g65
(dp3654
sg74
g3626
sg67
(lp3655
g60
(g81
g62
NtRp3656
(dp3657
g65
(dp3658
g85
g86
ssg74
g3652
sg67
(lp3659
S'Content-Type'
p3660
asbag60
(g81
g62
NtRp3661
(dp3662
g65
(dp3663
g92
g93
ssg74
g3652
sg67
(lp3664
S':'
asbag60
(g81
g62
NtRp3665
(dp3666
g65
(dp3667
sg74
g3652
sg67
(lp3668
g60
(g61
g62
NtRp3669
(dp3670
g65
(dp3671
g73
I4
ssg74
g3665
sg67
(lp3672
S'text/html; charset=utf-8'
p3673
asbasbasbag60
(g76
g62
NtRp3674
(dp3675
g65
(dp3676
sg74
g3626
sg67
(lp3677
g60
(g81
g62
NtRp3678
(dp3679
g65
(dp3680
g85
g86
ssg74
g3674
sg67
(lp3681
S'Expires'
p3682
asbag60
(g81
g62
NtRp3683
(dp3684
g65
(dp3685
g92
g93
ssg74
g3674
sg67
(lp3686
S':'
asbag60
(g81
g62
NtRp3687
(dp3688
g65
(dp3689
sg74
g3674
sg67
(lp3690
g60
(g61
g62
NtRp3691
(dp3692
g65
(dp3693
g73
I4
ssg74
g3687
sg67
(lp3694
S'Thu, 02 Aug 2012 16:30:11 GMT'
p3695
asbasbasbag60
(g76
g62
NtRp3696
(dp3697
g65
(dp3698
sg74
g3626
sg67
(lp3699
g60
(g81
g62
NtRp3700
(dp3701
g65
(dp3702
g85
g86
ssg74
g3696
sg67
(lp3703
S'Pragma'
p3704
asbag60
(g81
g62
NtRp3705
(dp3706
g65
(dp3707
g92
g93
ssg74
g3696
sg67
(lp3708
S':'
asbag60
(g81
g62
NtRp3709
(dp3710
g65
(dp3711
sg74
g3696
sg67
(lp3712
g60
(g61
g62
NtRp3713
(dp3714
g65
(dp3715
g73
I4
ssg74
g3709
sg67
(lp3716
S'no-cache'
p3717
asbasbasbag60
(g76
g62
NtRp3718
(dp3719
g65
(dp3720
sg74
g3626
sg67
(lp3721
g60
(g81
g62
NtRp3722
(dp3723
g65
(dp3724
g85
g86
ssg74
g3718
sg67
(lp3725
S'X-Powered-By'
p3726
asbag60
(g81
g62
NtRp3727
(dp3728
g65
(dp3729
g92
g93
ssg74
g3718
sg67
(lp3730
S':'
asbag60
(g81
g62
NtRp3731
(dp3732
g65
(dp3733
sg74
g3718
sg67
(lp3734
g60
(g61
g62
NtRp3735
(dp3736
g65
(dp3737
g73
I4
ssg74
g3731
sg67
(lp3738
S'web2py'
p3739
asbasbasbasbasbasbasbag60
(g76
g62
NtRp3740
(dp3741
g65
(dp3742
sg74
g3269
sg67
(lp3743
g60
(g81
g62
NtRp3744
(dp3745
g65
(dp3746
g85
g86
ssg74
g3740
sg67
(lp3747
S'menu'
p3748
asbag60
(g81
g62
NtRp3749
(dp3750
g65
(dp3751
g92
g93
ssg74
g3740
sg67
(lp3752
S':'
asbag60
(g81
g62
NtRp3753
(dp3754
g65
(dp3755
sg74
g3740
sg67
(lp3756
g60
(g61
g62
NtRp3757
(dp3758
g65
(dp3759
g73
I5
ssg74
g3753
sg67
(lp3760
g60
(g69
g62
NtRp3761
(dp3762
g65
(dp3763
g73
I4
ssg74
Nsg67
(lp3764
g60
(g76
g62
NtRp3765
(dp3766
g65
(dp3767
sg74
g3761
sg67
(lp3768
g60
(g81
g62
NtRp3769
(dp3770
g65
(dp3771
sg74
g3765
sg67
(lp3772
g60
(g61
g62
NtRp3773
(dp3774
g65
(dp3775
g73
I4
ssg74
g3769
sg67
(lp3776
g60
(g69
g62
NtRp3777
(dp3778
g65
(dp3779
g73
I3
ssg74
Nsg67
(lp3780
g60
(g76
g62
NtRp3781
(dp3782
g65
(dp3783
sg74
g3777
sg67
(lp3784
g60
(g81
g62
NtRp3785
(dp3786
g65
(dp3787
sg74
g3781
sg67
(lp3788
g60
(g61
g62
NtRp3789
(dp3790
g65
(dp3791
g73
I3
ssg74
g3785
sg67
(lp3792
cgluon.languages
lazyT_unpickle
p3793
(S't\x04\x00\x00\x00Home'
tRp3794
asbasbasbag60
(g76
g62
NtRp3795
(dp3796
g65
(dp3797
sg74
g3777
sg67
(lp3798
g60
(g81
g62
NtRp3799
(dp3800
g65
(dp3801
sg74
g3795
sg67
(lp3802
g60
(g61
g62
NtRp3803
(dp3804
g65
(dp3805
g73
I3
ssg74
g3799
sg67
(lp3806
g103
asbasbasbag60
(g76
g62
NtRp3807
(dp3808
g65
(dp3809
sg74
g3777
sg67
(lp3810
g60
(g81
g62
NtRp3811
(dp3812
g65
(dp3813
sg74
g3807
sg67
(lp3814
g60
(g61
g62
NtRp3815
(dp3816
g65
(dp3817
g73
I3
ssg74
g3811
sg67
(lp3818
S'/unioeste_code/default/index'
p3819
asbasbasbag60
(g76
g62
NtRp3820
(dp3821
g65
(dp3822
sg74
g3777
sg67
(lp3823
g60
(g81
g62
NtRp3824
(dp3825
g65
(dp3826
sg74
g3820
sg67
(lp3827
g60
(g61
g62
NtRp3828
(dp3829
g65
(dp3830
g73
I3
ssg74
g3824
sg67
(lp3831
g60
(g69
g62
NtRp3832
(dp3833
g65
(dp3834
g73
I2
ssg74
Nsg67
(lp3835
sbasbasbasbasbasbasbasbag60
(g76
g62
NtRp3836
(dp3837
g65
(dp3838
sg74
g3761
sg67
(lp3839
g60
(g81
g62
NtRp3840
(dp3841
g65
(dp3842
sg74
g3836
sg67
(lp3843
g60
(g61
g62
NtRp3844
(dp3845
g65
(dp3846
g73
I4
ssg74
g3840
sg67
(lp3847
g60
(g69
g62
NtRp3848
(dp3849
g65
(dp3850
g73
I3
ssg74
Nsg67
(lp3851
g60
(g76
g62
NtRp3852
(dp3853
g65
(dp3854
sg74
g3848
sg67
(lp3855
g60
(g81
g62
NtRp3856
(dp3857
g65
(dp3858
sg74
g3852
sg67
(lp3859
g60
(g61
g62
NtRp3860
(dp3861
g65
(dp3862
g73
I3
ssg74
g3856
sg67
(lp3863
g60
(cgluon.html
SPAN
p3864
g62
NtRp3865
(dp3866
g65
(dp3867
g85
S'color:yellow'
p3868
ssg74
Nsg67
(lp3869
g3739
asbasbasbasbag60
(g76
g62
NtRp3870
(dp3871
g65
(dp3872
sg74
g3848
sg67
(lp3873
g60
(g81
g62
NtRp3874
(dp3875
g65
(dp3876
sg74
g3870
sg67
(lp3877
g60
(g61
g62
NtRp3878
(dp3879
g65
(dp3880
g73
I3
ssg74
g3874
sg67
(lp3881
g103
asbasbasbag60
(g76
g62
NtRp3882
(dp3883
g65
(dp3884
sg74
g3848
sg67
(lp3885
g60
(g81
g62
NtRp3886
(dp3887
g65
(dp3888
sg74
g3882
sg67
(lp3889
g60
(g61
g62
NtRp3890
(dp3891
g65
(dp3892
g73
I3
ssg74
g3886
sg67
(lp3893
S'None'
p3894
asbasbasbag60
(g76
g62
NtRp3895
(dp3896
g65
(dp3897
sg74
g3848
sg67
(lp3898
g60
(g81
g62
NtRp3899
(dp3900
g65
(dp3901
sg74
g3895
sg67
(lp3902
g60
(g61
g62
NtRp3903
(dp3904
g65
(dp3905
g73
I3
ssg74
g3899
sg67
(lp3906
g60
(g69
g62
NtRp3907
(dp3908
g65
(dp3909
g73
I2
ssg74
Nsg67
(lp3910
g60
(g76
g62
NtRp3911
(dp3912
g65
(dp3913
sg74
g3907
sg67
(lp3914
g60
(g81
g62
NtRp3915
(dp3916
g65
(dp3917
sg74
g3911
sg67
(lp3918
g60
(g61
g62
NtRp3919
(dp3920
g65
(dp3921
g73
I2
ssg74
g3915
sg67
(lp3922
g60
(g69
g62
NtRp3923
(dp3924
g65
(dp3925
g73
I1
ssg74
Nsg67
(lp3926
g60
(g76
g62
NtRp3927
(dp3928
g65
(dp3929
sg74
g3923
sg67
(lp3930
g60
(g81
g62
NtRp3931
(dp3932
g65
(dp3933
sg74
g3927
sg67
(lp3934
g60
(g61
g62
NtRp3935
(dp3936
g65
(dp3937
g73
I1
ssg74
g3931
sg67
(lp3938
g3793
(S's\x08\x00\x00\x00My Sites'
tRp3939
asbasbasbag60
(g76
g62
NtRp3940
(dp3941
g65
(dp3942
sg74
g3923
sg67
(lp3943
g60
(g81
g62
NtRp3944
(dp3945
g65
(dp3946
sg74
g3940
sg67
(lp3947
g60
(g61
g62
NtRp3948
(dp3949
g65
(dp3950
g73
I1
ssg74
g3944
sg67
(lp3951
I00
asbasbasbag60
(g76
g62
NtRp3952
(dp3953
g65
(dp3954
sg74
g3923
sg67
(lp3955
g60
(g81
g62
NtRp3956
(dp3957
g65
(dp3958
sg74
g3952
sg67
(lp3959
g60
(g61
g62
NtRp3960
(dp3961
g65
(dp3962
g73
I1
ssg74
g3956
sg67
(lp3963
S'/admin/default/site'
p3964
asbasbasbasbasbasbasbag60
(g76
g62
NtRp3965
(dp3966
g65
(dp3967
sg74
g3907
sg67
(lp3968
g60
(g81
g62
NtRp3969
(dp3970
g65
(dp3971
sg74
g3965
sg67
(lp3972
g60
(g61
g62
NtRp3973
(dp3974
g65
(dp3975
g73
I2
ssg74
g3969
sg67
(lp3976
g60
(g69
g62
NtRp3977
(dp3978
g65
(dp3979
g73
I1
ssg74
Nsg67
(lp3980
g60
(g76
g62
NtRp3981
(dp3982
g65
(dp3983
sg74
g3977
sg67
(lp3984
g60
(g81
g62
NtRp3985
(dp3986
g65
(dp3987
sg74
g3981
sg67
(lp3988
g60
(g61
g62
NtRp3989
(dp3990
g65
(dp3991
g73
I1
ssg74
g3985
sg67
(lp3992
g3793
(S's\x08\x00\x00\x00This App'
tRp3993
asbasbasbag60
(g76
g62
NtRp3994
(dp3995
g65
(dp3996
sg74
g3977
sg67
(lp3997
g60
(g81
g62
NtRp3998
(dp3999
g65
(dp4000
sg74
g3994
sg67
(lp4001
g60
(g61
g62
NtRp4002
(dp4003
g65
(dp4004
g73
I1
ssg74
g3998
sg67
(lp4005
I00
asbasbasbag60
(g76
g62
NtRp4006
(dp4007
g65
(dp4008
sg74
g3977
sg67
(lp4009
g60
(g81
g62
NtRp4010
(dp4011
g65
(dp4012
sg74
g4006
sg67
(lp4013
g60
(g61
g62
NtRp4014
(dp4015
g65
(dp4016
g73
I1
ssg74
g4010
sg67
(lp4017
S'/admin/default/design/unioeste_code'
p4018
asbasbasbag60
(g76
g62
NtRp4019
(dp4020
g65
(dp4021
sg74
g3977
sg67
(lp4022
g60
(g81
g62
NtRp4023
(dp4024
g65
(dp4025
sg74
g4019
sg67
(lp4026
g60
(g61
g62
NtRp4027
(dp4028
g65
(dp4029
g73
I1
ssg74
g4023
sg67
(lp4030
(lp4031
(g3793
(S't\x0b\x00\x00\x00Controlador'
tRp4032
I00
S'/admin/default/edit/unioeste_code/controllers/default.py'
tp4033
a(g3793
(S's\x0e\x00\x00\x00Visualiza\xc3\xa7\xc3\xa3o'
tRp4034
I00
S'/admin/default/edit/unioeste_code/views/default/Problem.html'
tp4035
a(g3793
(S't\x06\x00\x00\x00Layout'
tRp4036
I00
S'/admin/default/edit/unioeste_code/views/layout.html'
tp4037
a(g3793
(S't\n\x00\x00\x00Stylesheet'
tRp4038
I00
S'/admin/default/edit/unioeste_code/static/css/web2py.css'
tp4039
a(g3793
(S's\t\x00\x00\x00Modelo BD'
tRp4040
I00
S'/admin/default/edit/unioeste_code/models/db.py'
tp4041
a(g3793
(S's\x0e\x00\x00\x00Modelo de Menu'
tRp4042
I00
S'/admin/default/edit/unioeste_code/models/menu.py'
tp4043
a(g3793
(S's\x0e\x00\x00\x00Banco de dados'
tRp4044
I00
S'/unioeste_code/appadmin/index'
tp4045
a(g3793
(S't\x06\x00\x00\x00Errors'
tRp4046
I00
S'/admin/default/errors/unioeste_code'
tp4047
a(g3793
(S't\x05\x00\x00\x00About'
tRp4048
I00
S'/admin/default/about/unioeste_code'
tp4049
aasbasbasbasbasbasbasbag60
(g76
g62
NtRp4050
(dp4051
g65
(dp4052
sg74
g3907
sg67
(lp4053
g60
(g81
g62
NtRp4054
(dp4055
g65
(dp4056
sg74
g4050
sg67
(lp4057
g60
(g61
g62
NtRp4058
(dp4059
g65
(dp4060
g73
I2
ssg74
g4054
sg67
(lp4061
g60
(g69
g62
NtRp4062
(dp4063
g65
(dp4064
g73
I1
ssg74
Nsg67
(lp4065
g60
(g76
g62
NtRp4066
(dp4067
g65
(dp4068
sg74
g4062
sg67
(lp4069
g60
(g81
g62
NtRp4070
(dp4071
g65
(dp4072
sg74
g4066
sg67
(lp4073
g60
(g61
g62
NtRp4074
(dp4075
g65
(dp4076
g73
I1
ssg74
g4070
sg67
(lp4077
S'web2py.com'
p4078
asbasbasbag60
(g76
g62
NtRp4079
(dp4080
g65
(dp4081
sg74
g4062
sg67
(lp4082
g60
(g81
g62
NtRp4083
(dp4084
g65
(dp4085
sg74
g4079
sg67
(lp4086
g60
(g61
g62
NtRp4087
(dp4088
g65
(dp4089
g73
I1
ssg74
g4083
sg67
(lp4090
I00
asbasbasbag60
(g76
g62
NtRp4091
(dp4092
g65
(dp4093
sg74
g4062
sg67
(lp4094
g60
(g81
g62
NtRp4095
(dp4096
g65
(dp4097
sg74
g4091
sg67
(lp4098
g60
(g61
g62
NtRp4099
(dp4100
g65
(dp4101
g73
I1
ssg74
g4095
sg67
(lp4102
S'http://www.web2py.com'
p4103
asbasbasbag60
(g76
g62
NtRp4104
(dp4105
g65
(dp4106
sg74
g4062
sg67
(lp4107
g60
(g81
g62
NtRp4108
(dp4109
g65
(dp4110
sg74
g4104
sg67
(lp4111
g60
(g61
g62
NtRp4112
(dp4113
g65
(dp4114
g73
I1
ssg74
g4108
sg67
(lp4115
(lp4116
(g3793
(S't\x08\x00\x00\x00Download'
tRp4117
I00
S'http://www.web2py.com/examples/default/download'
p4118
tp4119
a(g3793
(S't\x07\x00\x00\x00Support'
tRp4120
I00
S'http://www.web2py.com/examples/default/support'
p4121
tp4122
a(g3793
(S't\x04\x00\x00\x00Demo'
tRp4123
I00
S'http://web2py.com/demo_admin'
p4124
tp4125
a(g3793
(S's\x0e\x00\x00\x00Quick Examples'
tRp4126
I00
S'http://web2py.com/examples/default/examples'
p4127
tp4128
a(g3793
(S't\x03\x00\x00\x00FAQ'
tRp4129
I00
S'http://web2py.com/AlterEgo'
p4130
tp4131
a(g3793
(S't\x06\x00\x00\x00Videos'
tRp4132
I00
S'http://www.web2py.com/examples/default/videos/'
p4133
tp4134
a(g3793
(S's\x11\x00\x00\x00Free Applications'
tRp4135
I00
S'http://web2py.com/appliances'
p4136
tp4137
a(g3793
(S't\x07\x00\x00\x00Plugins'
tRp4138
I00
S'http://web2py.com/plugins'
p4139
tp4140
a(g3793
(S't\x07\x00\x00\x00Layouts'
tRp4141
I00
S'http://web2py.com/layouts'
p4142
tp4143
a(g3793
(S't\x07\x00\x00\x00Recipes'
tRp4144
I00
S'http://web2pyslices.com/'
p4145
tp4146
a(g3793
(S't\x08\x00\x00\x00Semantic'
tRp4147
I00
S'http://web2py.com/semantic'
p4148
tp4149
aasbasbasbasbasbasbasbag60
(g76
g62
NtRp4150
(dp4151
g65
(dp4152
sg74
g3907
sg67
(lp4153
g60
(g81
g62
NtRp4154
(dp4155
g65
(dp4156
sg74
g4150
sg67
(lp4157
g60
(g61
g62
NtRp4158
(dp4159
g65
(dp4160
g73
I2
ssg74
g4154
sg67
(lp4161
g60
(g69
g62
NtRp4162
(dp4163
g65
(dp4164
g73
I1
ssg74
Nsg67
(lp4165
g60
(g76
g62
NtRp4166
(dp4167
g65
(dp4168
sg74
g4162
sg67
(lp4169
g60
(g81
g62
NtRp4170
(dp4171
g65
(dp4172
sg74
g4166
sg67
(lp4173
g60
(g61
g62
NtRp4174
(dp4175
g65
(dp4176
g73
I1
ssg74
g4170
sg67
(lp4177
g3793
(S't\r\x00\x00\x00Documentation'
tRp4178
asbasbasbag60
(g76
g62
NtRp4179
(dp4180
g65
(dp4181
sg74
g4162
sg67
(lp4182
g60
(g81
g62
NtRp4183
(dp4184
g65
(dp4185
sg74
g4179
sg67
(lp4186
g60
(g61
g62
NtRp4187
(dp4188
g65
(dp4189
g73
I1
ssg74
g4183
sg67
(lp4190
I00
asbasbasbag60
(g76
g62
NtRp4191
(dp4192
g65
(dp4193
sg74
g4162
sg67
(lp4194
g60
(g81
g62
NtRp4195
(dp4196
g65
(dp4197
sg74
g4191
sg67
(lp4198
g60
(g61
g62
NtRp4199
(dp4200
g65
(dp4201
g73
I1
ssg74
g4195
sg67
(lp4202
S'http://www.web2py.com/book'
p4203
asbasbasbag60
(g76
g62
NtRp4204
(dp4205
g65
(dp4206
sg74
g4162
sg67
(lp4207
g60
(g81
g62
NtRp4208
(dp4209
g65
(dp4210
sg74
g4204
sg67
(lp4211
g60
(g61
g62
NtRp4212
(dp4213
g65
(dp4214
g73
I1
ssg74
g4208
sg67
(lp4215
(lp4216
(g3793
(S't\x07\x00\x00\x00Preface'
tRp4217
I00
S'http://www.web2py.com/book/default/chapter/00'
p4218
tp4219
a(g3793
(S't\x0c\x00\x00\x00Introduction'
tRp4220
I00
S'http://www.web2py.com/book/default/chapter/01'
p4221
tp4222
a(g3793
(S't\x06\x00\x00\x00Python'
tRp4223
I00
S'http://www.web2py.com/book/default/chapter/02'
p4224
tp4225
a(g3793
(S't\x08\x00\x00\x00Overview'
tRp4226
I00
S'http://www.web2py.com/book/default/chapter/03'
p4227
tp4228
a(g3793
(S's\x08\x00\x00\x00The Core'
tRp4229
I00
S'http://www.web2py.com/book/default/chapter/04'
p4230
tp4231
a(g3793
(S's\t\x00\x00\x00The Views'
tRp4232
I00
S'http://www.web2py.com/book/default/chapter/05'
p4233
tp4234
a(g3793
(S's\x0e\x00\x00\x00Banco de dados'
tRp4235
I00
S'http://www.web2py.com/book/default/chapter/06'
p4236
tp4237
a(g3793
(S's\x14\x00\x00\x00Forms and Validators'
tRp4238
I00
S'http://www.web2py.com/book/default/chapter/07'
p4239
tp4240
a(g3793
(S's\r\x00\x00\x00Email and SMS'
tRp4241
I00
S'http://www.web2py.com/book/default/chapter/08'
p4242
tp4243
a(g3793
(S's\x0e\x00\x00\x00Access Control'
tRp4244
I00
S'http://www.web2py.com/book/default/chapter/09'
p4245
tp4246
a(g3793
(S't\x08\x00\x00\x00Services'
tRp4247
I00
S'http://www.web2py.com/book/default/chapter/10'
p4248
tp4249
a(g3793
(S's\x0c\x00\x00\x00Ajax Recipes'
tRp4250
I00
S'http://www.web2py.com/book/default/chapter/11'
p4251
tp4252
a(g3793
(S's\x16\x00\x00\x00Components and Plugins'
tRp4253
I00
S'http://www.web2py.com/book/default/chapter/12'
p4254
tp4255
a(g3793
(S's\x12\x00\x00\x00Deployment Recipes'
tRp4256
I00
S'http://www.web2py.com/book/default/chapter/13'
p4257
tp4258
a(g3793
(S's\r\x00\x00\x00Other Recipes'
tRp4259
I00
S'http://www.web2py.com/book/default/chapter/14'
p4260
tp4261
a(g3793
(S's\r\x00\x00\x00Buy this book'
tRp4262
I00
S'http://stores.lulu.com/web2py'
p4263
tp4264
aasbasbasbasbasbasbasbag60
(g76
g62
NtRp4265
(dp4266
g65
(dp4267
sg74
g3907
sg67
(lp4268
g60
(g81
g62
NtRp4269
(dp4270
g65
(dp4271
sg74
g4265
sg67
(lp4272
g60
(g61
g62
NtRp4273
(dp4274
g65
(dp4275
g73
I2
ssg74
g4269
sg67
(lp4276
g60
(g69
g62
NtRp4277
(dp4278
g65
(dp4279
g73
I1
ssg74
Nsg67
(lp4280
g60
(g76
g62
NtRp4281
(dp4282
g65
(dp4283
sg74
g4277
sg67
(lp4284
g60
(g81
g62
NtRp4285
(dp4286
g65
(dp4287
sg74
g4281
sg67
(lp4288
g60
(g61
g62
NtRp4289
(dp4290
g65
(dp4291
g73
I1
ssg74
g4285
sg67
(lp4292
g3793
(S't\t\x00\x00\x00Community'
tRp4293
asbasbasbag60
(g76
g62
NtRp4294
(dp4295
g65
(dp4296
sg74
g4277
sg67
(lp4297
g60
(g81
g62
NtRp4298
(dp4299
g65
(dp4300
sg74
g4294
sg67
(lp4301
g60
(g61
g62
NtRp4302
(dp4303
g65
(dp4304
g73
I1
ssg74
g4298
sg67
(lp4305
I00
asbasbasbag60
(g76
g62
NtRp4306
(dp4307
g65
(dp4308
sg74
g4277
sg67
(lp4309
g60
(g81
g62
NtRp4310
(dp4311
g65
(dp4312
sg74
g4306
sg67
(lp4313
g60
(g61
g62
NtRp4314
(dp4315
g65
(dp4316
g73
I1
ssg74
g4310
sg67
(lp4317
Nasbasbasbag60
(g76
g62
NtRp4318
(dp4319
g65
(dp4320
sg74
g4277
sg67
(lp4321
g60
(g81
g62
NtRp4322
(dp4323
g65
(dp4324
sg74
g4318
sg67
(lp4325
g60
(g61
g62
NtRp4326
(dp4327
g65
(dp4328
g73
I1
ssg74
g4322
sg67
(lp4329
(lp4330
(g3793
(S't\x06\x00\x00\x00Groups'
tRp4331
I00
S'http://www.web2py.com/examples/default/usergroups'
p4332
tp4333
a(g3793
(S't\x07\x00\x00\x00Twitter'
tRp4334
I00
S'http://twitter.com/web2py'
p4335
tp4336
a(g3793
(S's\t\x00\x00\x00Live Chat'
tRp4337
I00
S'http://webchat.freenode.net/?channels=web2py'
p4338
tp4339
aasbasbasbasbasbasbasbag60
(g76
g62
NtRp4340
(dp4341
g65
(dp4342
sg74
g3907
sg67
(lp4343
g60
(g81
g62
NtRp4344
(dp4345
g65
(dp4346
sg74
g4340
sg67
(lp4347
g60
(g61
g62
NtRp4348
(dp4349
g65
(dp4350
g73
I2
ssg74
g4344
sg67
(lp4351
g60
(g69
g62
NtRp4352
(dp4353
g65
(dp4354
g73
I1
ssg74
Nsg67
(lp4355
g60
(g76
g62
NtRp4356
(dp4357
g65
(dp4358
sg74
g4352
sg67
(lp4359
g60
(g81
g62
NtRp4360
(dp4361
g65
(dp4362
sg74
g4356
sg67
(lp4363
g60
(g61
g62
NtRp4364
(dp4365
g65
(dp4366
g73
I1
ssg74
g4360
sg67
(lp4367
g3793
(S't\x07\x00\x00\x00Plugins'
tRp4368
asbasbasbag60
(g76
g62
NtRp4369
(dp4370
g65
(dp4371
sg74
g4352
sg67
(lp4372
g60
(g81
g62
NtRp4373
(dp4374
g65
(dp4375
sg74
g4369
sg67
(lp4376
g60
(g61
g62
NtRp4377
(dp4378
g65
(dp4379
g73
I1
ssg74
g4373
sg67
(lp4380
I00
asbasbasbag60
(g76
g62
NtRp4381
(dp4382
g65
(dp4383
sg74
g4352
sg67
(lp4384
g60
(g81
g62
NtRp4385
(dp4386
g65
(dp4387
sg74
g4381
sg67
(lp4388
g60
(g61
g62
NtRp4389
(dp4390
g65
(dp4391
g73
I1
ssg74
g4385
sg67
(lp4392
Nasbasbasbag60
(g76
g62
NtRp4393
(dp4394
g65
(dp4395
sg74
g4352
sg67
(lp4396
g60
(g81
g62
NtRp4397
(dp4398
g65
(dp4399
sg74
g4393
sg67
(lp4400
g60
(g61
g62
NtRp4401
(dp4402
g65
(dp4403
g73
I1
ssg74
g4397
sg67
(lp4404
(lp4405
(S'plugin_wiki'
p4406
I00
S'http://web2py.com/examples/default/download'
p4407
tp4408
a(g3793
(S's\r\x00\x00\x00Other Plugins'
tRp4409
I00
g4139
tp4410
a(g3793
(S's\x0e\x00\x00\x00Layout Plugins'
tRp4411
I00
g4142
tp4412
aasbasbasbasbasbasbasbasbasbasbasbasbasbasbasbasbasbasbasbag60
(g76
g62
NtRp4413
(dp4414
g65
(dp4415
sg74
g3269
sg67
(lp4416
g60
(g81
g62
NtRp4417
(dp4418
g65
(dp4419
g85
g86
ssg74
g4413
sg67
(lp4420
S'meta'
p4421
asbag60
(g81
g62
NtRp4422
(dp4423
g65
(dp4424
g92
g93
ssg74
g4413
sg67
(lp4425
S':'
asbag60
(g81
g62
NtRp4426
(dp4427
g65
(dp4428
sg74
g4413
sg67
(lp4429
g60
(g61
g62
NtRp4430
(dp4431
g65
(dp4432
g73
I5
ssg74
g4426
sg67
(lp4433
g60
(g69
g62
NtRp4434
(dp4435
g65
(dp4436
g73
I4
ssg74
Nsg67
(lp4437
g60
(g76
g62
NtRp4438
(dp4439
g65
(dp4440
sg74
g4434
sg67
(lp4441
g60
(g81
g62
NtRp4442
(dp4443
g65
(dp4444
g85
g86
ssg74
g4438
sg67
(lp4445
S'author'
p4446
asbag60
(g81
g62
NtRp4447
(dp4448
g65
(dp4449
g92
g93
ssg74
g4438
sg67
(lp4450
S':'
asbag60
(g81
g62
NtRp4451
(dp4452
g65
(dp4453
sg74
g4438
sg67
(lp4454
g60
(g61
g62
NtRp4455
(dp4456
g65
(dp4457
g73
I4
ssg74
g4451
sg67
(lp4458
S'Your Name <you@example.com>'
p4459
asbasbasbag60
(g76
g62
NtRp4460
(dp4461
g65
(dp4462
sg74
g4434
sg67
(lp4463
g60
(g81
g62
NtRp4464
(dp4465
g65
(dp4466
g85
g86
ssg74
g4460
sg67
(lp4467
S'copyright'
p4468
asbag60
(g81
g62
NtRp4469
(dp4470
g65
(dp4471
g92
g93
ssg74
g4460
sg67
(lp4472
S':'
asbag60
(g81
g62
NtRp4473
(dp4474
g65
(dp4475
sg74
g4460
sg67
(lp4476
g60
(g61
g62
NtRp4477
(dp4478
g65
(dp4479
g73
I4
ssg74
g4473
sg67
(lp4480
S'Copyright 2011'
p4481
asbasbasbag60
(g76
g62
NtRp4482
(dp4483
g65
(dp4484
sg74
g4434
sg67
(lp4485
g60
(g81
g62
NtRp4486
(dp4487
g65
(dp4488
g85
g86
ssg74
g4482
sg67
(lp4489
S'description'
p4490
asbag60
(g81
g62
NtRp4491
(dp4492
g65
(dp4493
g92
g93
ssg74
g4482
sg67
(lp4494
S':'
asbag60
(g81
g62
NtRp4495
(dp4496
g65
(dp4497
sg74
g4482
sg67
(lp4498
g60
(g61
g62
NtRp4499
(dp4500
g65
(dp4501
g73
I4
ssg74
g4495
sg67
(lp4502
S'a cool new app'
p4503
asbasbasbag60
(g76
g62
NtRp4504
(dp4505
g65
(dp4506
sg74
g4434
sg67
(lp4507
g60
(g81
g62
NtRp4508
(dp4509
g65
(dp4510
g85
g86
ssg74
g4504
sg67
(lp4511
S'generator'
p4512
asbag60
(g81
g62
NtRp4513
(dp4514
g65
(dp4515
g92
g93
ssg74
g4504
sg67
(lp4516
S':'
asbag60
(g81
g62
NtRp4517
(dp4518
g65
(dp4519
sg74
g4504
sg67
(lp4520
g60
(g61
g62
NtRp4521
(dp4522
g65
(dp4523
g73
I4
ssg74
g4517
sg67
(lp4524
S'Web2py Web Framework'
p4525
asbasbasbag60
(g76
g62
NtRp4526
(dp4527
g65
(dp4528
sg74
g4434
sg67
(lp4529
g60
(g81
g62
NtRp4530
(dp4531
g65
(dp4532
g85
g86
ssg74
g4526
sg67
(lp4533
S'keywords'
p4534
asbag60
(g81
g62
NtRp4535
(dp4536
g65
(dp4537
g92
g93
ssg74
g4526
sg67
(lp4538
S':'
asbag60
(g81
g62
NtRp4539
(dp4540
g65
(dp4541
sg74
g4526
sg67
(lp4542
g60
(g61
g62
NtRp4543
(dp4544
g65
(dp4545
g73
I4
ssg74
g4539
sg67
(lp4546
S'web2py, python, framework'
p4547
asbasbasbasbasbasbasbag60
(g76
g62
NtRp4548
(dp4549
g65
(dp4550
sg74
g3269
sg67
(lp4551
g60
(g81
g62
NtRp4552
(dp4553
g65
(dp4554
g85
g86
ssg74
g4548
sg67
(lp4555
S'postprocessing'
p4556
asbag60
(g81
g62
NtRp4557
(dp4558
g65
(dp4559
g92
g93
ssg74
g4548
sg67
(lp4560
S':'
asbag60
(g81
g62
NtRp4561
(dp4562
g65
(dp4563
sg74
g4548
sg67
(lp4564
g60
(g61
g62
NtRp4565
(dp4566
g65
(dp4567
g73
I5
ssg74
g4561
sg67
(lp4568
g60
(g69
g62
NtRp4569
(dp4570
g65
(dp4571
g73
I4
ssg74
Nsg67
(lp4572
sbasbasbasbag60
(g76
g62
NtRp4573
(dp4574
g65
(dp4575
sg74
g3269
sg67
(lp4576
g60
(g81
g62
NtRp4577
(dp4578
g65
(dp4579
g85
g86
ssg74
g4573
sg67
(lp4580
S'session_file'
p4581
asbag60
(g81
g62
NtRp4582
(dp4583
g65
(dp4584
g92
g93
ssg74
g4573
sg67
(lp4585
S':'
asbag60
(g81
g62
NtRp4586
(dp4587
g65
(dp4588
sg74
g4573
sg67
(lp4589
g60
(g61
g62
NtRp4590
(dp4591
g65
(dp4592
g73
I5
ssg74
g4586
sg67
(lp4593
S"<open file 'C:\\web2py\\applications\\unioeste_code\\sessions\\127.0.0.1-6a17e692-996f-4fa9-84f1-38283f8585af', mode 'rb+' at 0x06508A40>"
p4594
asbasbasbag60
(g76
g62
NtRp4595
(dp4596
g65
(dp4597
sg74
g3269
sg67
(lp4598
g60
(g81
g62
NtRp4599
(dp4600
g65
(dp4601
g85
g86
ssg74
g4595
sg67
(lp4602
S'session_filename'
p4603
asbag60
(g81
g62
NtRp4604
(dp4605
g65
(dp4606
g92
g93
ssg74
g4595
sg67
(lp4607
S':'
asbag60
(g81
g62
NtRp4608
(dp4609
g65
(dp4610
sg74
g4595
sg67
(lp4611
g60
(g61
g62
NtRp4612
(dp4613
g65
(dp4614
g73
I5
ssg74
g4608
sg67
(lp4615
S'C:\\web2py\\applications\\unioeste_code\\sessions\\127.0.0.1-6a17e692-996f-4fa9-84f1-38283f8585af'
p4616
asbasbasbag60
(g76
g62
NtRp4617
(dp4618
g65
(dp4619
sg74
g3269
sg67
(lp4620
g60
(g81
g62
NtRp4621
(dp4622
g65
(dp4623
g85
g86
ssg74
g4617
sg67
(lp4624
S'session_id'
p4625
asbag60
(g81
g62
NtRp4626
(dp4627
g65
(dp4628
g92
g93
ssg74
g4617
sg67
(lp4629
S':'
asbag60
(g81
g62
NtRp4630
(dp4631
g65
(dp4632
sg74
g4617
sg67
(lp4633
g60
(g61
g62
NtRp4634
(dp4635
g65
(dp4636
g73
I5
ssg74
g4630
sg67
(lp4637
S'127.0.0.1-6a17e692-996f-4fa9-84f1-38283f8585af'
p4638
asbasbasbag60
(g76
g62
NtRp4639
(dp4640
g65
(dp4641
sg74
g3269
sg67
(lp4642
g60
(g81
g62
NtRp4643
(dp4644
g65
(dp4645
g85
g86
ssg74
g4639
sg67
(lp4646
S'session_id_name'
p4647
asbag60
(g81
g62
NtRp4648
(dp4649
g65
(dp4650
g92
g93
ssg74
g4639
sg67
(lp4651
S':'
asbag60
(g81
g62
NtRp4652
(dp4653
g65
(dp4654
sg74
g4639
sg67
(lp4655
g60
(g61
g62
NtRp4656
(dp4657
g65
(dp4658
g73
I5
ssg74
g4652
sg67
(lp4659
g3326
asbasbasbag60
(g76
g62
NtRp4660
(dp4661
g65
(dp4662
sg74
g3269
sg67
(lp4663
g60
(g81
g62
NtRp4664
(dp4665
g65
(dp4666
g85
g86
ssg74
g4660
sg67
(lp4667
S'session_locked'
p4668
asbag60
(g81
g62
NtRp4669
(dp4670
g65
(dp4671
g92
g93
ssg74
g4660
sg67
(lp4672
S':'
asbag60
(g81
g62
NtRp4673
(dp4674
g65
(dp4675
sg74
g4660
sg67
(lp4676
g60
(g61
g62
NtRp4677
(dp4678
g65
(dp4679
g73
I5
ssg74
g4673
sg67
(lp4680
g1488
asbasbasbag60
(g76
g62
NtRp4681
(dp4682
g65
(dp4683
sg74
g3269
sg67
(lp4684
g60
(g81
g62
NtRp4685
(dp4686
g65
(dp4687
g85
g86
ssg74
g4681
sg67
(lp4688
S'session_new'
p4689
asbag60
(g81
g62
NtRp4690
(dp4691
g65
(dp4692
g92
g93
ssg74
g4681
sg67
(lp4693
S':'
asbag60
(g81
g62
NtRp4694
(dp4695
g65
(dp4696
sg74
g4681
sg67
(lp4697
g60
(g61
g62
NtRp4698
(dp4699
g65
(dp4700
g73
I5
ssg74
g4694
sg67
(lp4701
g103
asbasbasbag60
(g76
g62
NtRp4702
(dp4703
g65
(dp4704
sg74
g3269
sg67
(lp4705
g60
(g81
g62
NtRp4706
(dp4707
g65
(dp4708
g85
g86
ssg74
g4702
sg67
(lp4709
S'status'
p4710
asbag60
(g81
g62
NtRp4711
(dp4712
g65
(dp4713
g92
g93
ssg74
g4702
sg67
(lp4714
S':'
asbag60
(g81
g62
NtRp4715
(dp4716
g65
(dp4717
sg74
g4702
sg67
(lp4718
g60
(g61
g62
NtRp4719
(dp4720
g65
(dp4721
g73
I5
ssg74
g4715
sg67
(lp4722
S'200'
p4723
asbasbasbag60
(g76
g62
NtRp4724
(dp4725
g65
(dp4726
sg74
g3269
sg67
(lp4727
g60
(g81
g62
NtRp4728
(dp4729
g65
(dp4730
g85
g86
ssg74
g4724
sg67
(lp4731
S'subtitle'
p4732
asbag60
(g81
g62
NtRp4733
(dp4734
g65
(dp4735
g92
g93
ssg74
g4724
sg67
(lp4736
S':'
asbag60
(g81
g62
NtRp4737
(dp4738
g65
(dp4739
sg74
g4724
sg67
(lp4740
g60
(g61
g62
NtRp4741
(dp4742
g65
(dp4743
g73
I5
ssg74
g4737
sg67
(lp4744
g3793
(S's\x0f\x00\x00\x00Personalize-me!'
tRp4745
asbasbasbag60
(g76
g62
NtRp4746
(dp4747
g65
(dp4748
sg74
g3269
sg67
(lp4749
g60
(g81
g62
NtRp4750
(dp4751
g65
(dp4752
g85
g86
ssg74
g4746
sg67
(lp4753
S'title'
p4754
asbag60
(g81
g62
NtRp4755
(dp4756
g65
(dp4757
g92
g93
ssg74
g4746
sg67
(lp4758
S':'
asbag60
(g81
g62
NtRp4759
(dp4760
g65
(dp4761
sg74
g4746
sg67
(lp4762
g60
(g61
g62
NtRp4763
(dp4764
g65
(dp4765
g73
I5
ssg74
g4759
sg67
(lp4766
S'Unioeste Code'
p4767
asbasbasbag60
(g76
g62
NtRp4768
(dp4769
g65
(dp4770
sg74
g3269
sg67
(lp4771
g60
(g81
g62
NtRp4772
(dp4773
g65
(dp4774
g85
g86
ssg74
g4768
sg67
(lp4775
g2173
asbag60
(g81
g62
NtRp4776
(dp4777
g65
(dp4778
g92
g93
ssg74
g4768
sg67
(lp4779
S':'
asbag60
(g81
g62
NtRp4780
(dp4781
g65
(dp4782
sg74
g4768
sg67
(lp4783
g60
(g61
g62
NtRp4784
(dp4785
g65
(dp4786
g73
I5
ssg74
g4780
sg67
(lp4787
g2186
asbasbasbag60
(g76
g62
NtRp4788
(dp4789
g65
(dp4790
sg74
g3269
sg67
(lp4791
g60
(g81
g62
NtRp4792
(dp4793
g65
(dp4794
g85
g86
ssg74
g4788
sg67
(lp4795
S'view'
p4796
asbag60
(g81
g62
NtRp4797
(dp4798
g65
(dp4799
g92
g93
ssg74
g4788
sg67
(lp4800
S':'
asbag60
(g81
g62
NtRp4801
(dp4802
g65
(dp4803
sg74
g4788
sg67
(lp4804
g60
(g61
g62
NtRp4805
(dp4806
g65
(dp4807
g73
I5
ssg74
g4801
sg67
(lp4808
S'default/Problem.html'
p4809
asbasbasbasbasbsS'locals'
p4810
(dp4811
g4
S"r'C:\\web2py\\applications\\unioeste_code\\views\\default/Problem.html'"
p4812
sg6
S'"response.write(\' \', escape=False)\\nresponse.write...n\\\\r\\\\n  </body>\\\\r\\\\n</html>\\\\r\\\\n\\\\r\\\\n\', escape=False)"'
p4813
sssS'traceback'
p4814
S'Traceback (most recent call last):\n  File "gluon/restricted.py", line 204, in restricted\n  File "gluon/restricted.py", line 189, in compile2\n  File "C:\\web2py\\applications\\unioeste_code\\views\\default/Problem.html", line 10\n    response.write(\'\\r\\n\\r\\n      \', escape=False)\n           ^\nSyntaxError: invalid syntax\n'
p4815
s.