(dp1
S'output'
p2
S"<type 'exceptions.AttributeError'> 'module' object has no attribute 'shortUser'"
p3
sS'layer'
p4
S'C:\\web2py\\applications\\unioeste_code\\views\\default/Code.html'
p5
sS'code'
p6
S'response.write(\' \', escape=False)\nresponse.write(\'<!DOCTYPE html>\\n<!-- paulirish.com/2008/conditional-stylesheets-vs-css-hacks-answer-neither/ -->\\n<!--[if lt IE 7]><html class="ie ie6 ie-lte9 ie-lte8 ie-lte7 no-js" lang="\', escape=False)\nresponse.write(T.accepted_language or \'en\')\nresponse.write(\'"> <![endif]-->\\n<!--[if IE 7]><html class="ie ie7 ie-lte9 ie-lte8 ie-lte7 no-js" lang="\', escape=False)\nresponse.write(T.accepted_language or \'en\')\nresponse.write(\'"> <![endif]-->\\n<!--[if IE 8]><html class="ie ie8 ie-lte9 ie-lte8 no-js" lang="\', escape=False)\nresponse.write(T.accepted_language or \'en\')\nresponse.write(\'"> <![endif]-->\\n<!--[if IE 9]><html class="ie9 ie-lte9 no-js" lang="\', escape=False)\nresponse.write(T.accepted_language or \'en\')\nresponse.write(\'"> <![endif]-->\\n<!--[if (gt IE 9)|!(IE)]><!--> <html class="no-js" lang="\', escape=False)\nresponse.write(T.accepted_language or \'en\')\nresponse.write(\'"> <!--<![endif]-->\\n<head>\\n  <meta charset="utf-8" />\\n  <!-- www.phpied.com/conditional-comments-block-downloads/ -->\\n  <!-- Always force latest IE rendering engine\\n\\t   (even in intranet) & Chrome Frame\\n\\t   Remove this if you use the .htaccess -->\\n  <!--[if IE]>\\n    <meta http-equiv="X-UA-Compatible" content="IE=edge\', escape=False)\nresponse.write(not request.is_local and \',chrome=1\' or \'\')\nresponse.write(\'">\\n  <![endif]-->\\n  \\n  <title>\', escape=False)\nresponse.write(response.title or request.application)\nresponse.write(\'</title>\\n  \\n  <!-- http://dev.w3.org/html5/markup/meta.name.html -->\\n  <meta name="application-name" content="\', escape=False)\nresponse.write(request.application)\nresponse.write(\'" />\\n  \\n  <!-- Speaking of Google, don\\\'t forget to set your site up:\\n\\t   http://google.com/webmasters -->\\n  <meta name="google-site-verification" content="" />\\n\\n  <!--  Mobile Viewport Fix\\n\\t  j.mp/mobileviewport & davidbcalhoun.com/2010/viewport-metatag\\n\\t  device-width: Occupy full width of the screen in its current orientation\\n\\t  initial-scale = 1.0 retains dimensions instead of zooming out if page height > device height\\n\\t  user-scalable = yes allows the user to zoom in -->\\n  <meta name="viewport" content="width=device-width, initial-scale=1.0, user-scalable=yes">\\n  \\n  <!-- Place favicon.ico and apple-touch-icon.png in the root of your domain and delete these references -->\\n  <link rel="shortcut icon" href="\', escape=False)\nresponse.write(URL(\'static\',\'favicon.ico\'))\nresponse.write(\'" type="image/x-icon">\\n  <link rel="apple-touch-icon" href="\', escape=False)\nresponse.write(URL(\'static\',\'favicon.png\'))\nresponse.write(\'">\\n\\n  <!-- All JavaScript at the bottom, except for Modernizr which enables \\n\\t   HTML5 elements & feature detects -->\\n  <script src="\', escape=False)\nresponse.write(URL(\'static\',\'js/modernizr.custom.js\'))\nresponse.write(\'"></script>  \\n\\n  <!-- include stylesheets -->\\n  \', escape=False)\nresponse.files.append(URL(\'static\',\'css/skeleton.css\'))\nresponse.files.append(URL(\'static\',\'css/web2py.css\'))\nif response.menu:\n    response.files.append(URL(\'static\',\'css/superfish.css\'))\n    response.files.append(URL(\'static\',\'js/superfish.js\'))\n    pass\nresponse.write(\'\\n\\n  \', escape=False)\nresponse.write(\'<script type="text/javascript"><!--\\n    // These variables are used by the web2py_ajax_init function in web2py_ajax.js (which is loaded below).\\n    var w2p_ajax_confirm_message = "\', escape=False)\nresponse.write(T(\'Are you sure you want to delete this object?\'))\nresponse.write(\'";\\n    var w2p_ajax_date_format = "\', escape=False)\nresponse.write(T(\'%Y-%m-%d\'))\nresponse.write(\'";\\n    var w2p_ajax_datetime_format = "\', escape=False)\nresponse.write(T(\'%Y-%m-%d %H:%M:%S\'))\nresponse.write(\'";\\n    //--></script>\\n\', escape=False)\nresponse.files.insert(0,URL(\'static\',\'js/jquery.js\'))\nresponse.files.insert(1,URL(\'static\',\'css/calendar.css\'))\nresponse.files.insert(2,URL(\'static\',\'js/calendar.js\'))\nresponse.files.insert(3,URL(\'static\',\'js/web2py.js\'))\nresponse.include_meta()\nresponse.include_files()\nresponse.write(\'\\n\', escape=False)\nresponse.write(\'\\n\\n  \', escape=False)\nif response.menu:\n    response.write(\'\\n  <script type="text/javascript">\\n    jQuery(function(){ jQuery(\\\'ul.sf-menu\\\').supersubs({minWidth:12,maxWidth:30,extraWidth:3}).superfish(); });\\n  </script>\\n  \', escape=False)\n    pass\nresponse.write(\'\\n\\n  \', escape=False)\n# using sidebars need to know what sidebar you want to use\nleft_sidebar_enabled = globals().get(\'left_sidebar_enabled\',False)\nright_sidebar_enabled = globals().get(\'right_sidebar_enabled\',False)\nmiddle_columns = {0:\'sixteen\',1:\'twelve\',2:\'eight\'}[\n(left_sidebar_enabled and 1 or 0)+(right_sidebar_enabled and 1 or 0)]\nresponse.write(\'\\n\\n  <!-- uncomment here to load jquery-ui\\n  <link rel="stylesheet" href="http://ajax.googleapis.com/ajax/libs/jqueryui/1.8.16/themes/base/jquery-ui.css" type="text/css" media="all" />\\n  <script src="http://ajax.googleapis.com/ajax/libs/jqueryui/1.8.16/jquery-ui.min.js" type="text/javascript"></script>\\n  uncomment to load jquery-ui //-->\\n</head>\\n<body>\\n  <div class="wrapper"><!-- for sticky footer -->\\n  \\n    <div class="topbar">\\n      <div class="container">    \\n        <div class="sixteen columns">\\n          <div id="navbar">\', escape=False)\nresponse.write(\'auth\' in globals() and auth.navbar(separators=(\' \',\' | \',\'\')))\nresponse.write(\'</div>\\n          \', escape=False)\nis_mobile=request.user_agent().is_mobile\nresponse.write(\'\\n\\t  \', escape=False)\nif response.menu:\n    response.write(\'\\n          <div id="menu">\\n             \', escape=False)\n    response.write(MENU(response.menu, _class=\'mobile-menu\' if is_mobile else \'sf-menu\',mobile=is_mobile))\n    response.write(\'\\n          </div>\\n          \', escape=False)\n    pass\nresponse.write(\'\\n        </div>\\n      </div>\\n    </div><!-- topbar -->\\n    \\n    <div class="flash">\', escape=False)\nresponse.write(response.flash or \'\')\nresponse.write(\'</div>\\n    \\n    <div class="header">\\n      <div class="container">         \\n        <div class="sixteen columns">\\n          <h1 class="remove-bottom" style="margin-top: .5em;">\\n          \', escape=False)\nresponse.write(response.title or request.application)\nresponse.write(\'\\n          </h1>\\n          <h5>\', escape=False)\nresponse.write(response.subtitle or \'\')\nresponse.write(\'</h5>\\n        </div>\\n        <div class="sixteen columns">\\n          <div class="statusbar clearfix">\\n            \', escape=False)\nresponse.write(\'\\n            <div class="breadcrumbs">\', escape=False)\nresponse.write(request.function.replace(\'_\', \' \').title())\nresponse.write(\'</div>\\n            \', escape=False)\nresponse.write(\'\\n            <!-- AddToAny BEGIN -->\\n            <div style="float:right; padding-top: .25em;" class="a2a_kit a2a_default_style">\\n            <a class="a2a_dd" href="http://www.addtoany.com/share_save">Share</a></div>\\n            <script type="text/javascript" src="http://static.addtoany.com/menu/page.js"></script>\\n            <!-- AddToAny END -->\\n          </div>\\n        </div>\\n      </div>\\n    </div>\\n\\n    <div class="main">\\n      <div class="container">                 \\n        \', escape=False)\nif left_sidebar_enabled:\n    response.write(\'\\n        <div class="four columns left-sidebar">\\n          \', escape=False)\n    response.write(\'\\n          <h3>Left Sidebar</h3>\\n          <p></p>\\n          \', escape=False)\n    response.write(\'\\n        </div>\\n        \', escape=False)\n    pass\nresponse.write(\'\\n        \\n        <div class="\', escape=False)\nresponse.write(middle_columns)\nresponse.write(\' columns center">\\n          \', escape=False)\nresponse.write(\'\\n          \', escape=False)\nresponse.write(\'\\r\\n\\r\\n <head>\\r\\n <script src="../../static/lib/codemirror.js"></script>\\r\\n <link rel="stylesheet" href="../../static/lib/codemirror.css">\\r\\n <script src="../../static/mode/clike.js"></script>\\r\\n <style>.CodeMirror {border: 3px solid #cccccc;}</style>\\r\\n</head>\\r\\n\\r\\n\\r\\n\', escape=False)\nimport base\nresponse.write(\'\\r\\n\', escape=False)\nresponse.write(H1(T("Solution by")))\nresponse.write(\'\\r\\n\', escape=False)\nresponse.write(base.hey())\nresponse.write(\'\\r\\n\\r\\n\\r\\n<textarea id="code_body">\\r\\n\', escape=False)\nresponse.write(code.body)\nresponse.write(\'\\r\\n</textarea>\\r\\n\\r\\n\', escape=False)\nresponse.write(H3(T("Comments"), _style="color:green"))\nresponse.write(\'\\r\\n\\r\\n\', escape=False)\nfor comment in comments:\n    response.write(\'\\r\\n\', escape=False)\n    user = db(db.auth_user.id==comment.created_by).select().first()\n    response.write(\'\\r\\n\', escape=False)\n    s = user.first_name + " " + user.last_name + " - (" + user.email + ")"\n    response.write(\'\\r\\n<div class="statusbar">\\r\\n\\t<p>\', escape=False)\n    response.write(base.shortUser(user))\n    response.write(prettydate(code.created_on))\n    response.write(\'</p>\\r\\n\\t\', escape=False)\n    response.write(comment.body)\n    response.write(\'\\r\\n</div>\\r\\n\', escape=False)\n    pass\nresponse.write(\'\\r\\n\\r\\n\\r\\n\', escape=False)\nresponse.write(H2(T("Post your comment!")))\nresponse.write(\'\\r\\n\', escape=False)\nresponse.write(form)\nresponse.write(\'\\r\\n\\r\\n\\r\\n\\r\\n\\r\\n<script type="text/javascript">\\r\\n      var editor = CodeMirror.fromTextArea(document.getElementById("code_body"), {\\r\\n        lineNumbers: true,\\r\\n        matchBrackets: true,\\r\\n        mode: "text/x-c++src",\\r\\n        reardOnly: true\\r\\n      });\\r\\n</script>\\r\\n\\r\\n\', escape=False)\nresponse.write(\'\\n          \', escape=False)\nresponse.write(\'\\n        </div>\\n        \\n        \', escape=False)\nif right_sidebar_enabled:\n    response.write(\'\\n        <div class="four columns">\\n          \', escape=False)\n    response.write(\'\\n          <h3>Right Sidebar</h3>\\n          <p></p>\\n          \', escape=False)\n    response.write(\'\\n        </div>    \\n        \', escape=False)\n    pass\nresponse.write(\'\\n        \\n      </div><!-- container -->\\n    </div><!-- main -->\\n    \\n    <div class="push"></div>\\n  </div><!-- wrapper -->\\n\\n  <div class="footer">\\n    <div class="container">    \\n      <div class="sixteen columns">\\n        \', escape=False)\nresponse.write(\' <!-- this is default footer -->\\n        <div class="footer-content clearfix">\\n          <div class="copyright">\', escape=False)\nresponse.write(T(\'Copyright\'))\nresponse.write(\' &#169; 2011</div>\\n          <div style="float: right;">\\n            <a href="http://www.web2py.com/">\\n            <img style="padding-bottom: 0;" src="\', escape=False)\nresponse.write(URL(\'static\',\'images/poweredby.png\'))\nresponse.write(\'"/>\\n            </a>\\n          </div>\\n        </div>\\n        \', escape=False)\nresponse.write(\'\\t\\n      </div>\\n    </div><!-- container -->\\n  </div><!-- footer -->\\n  \\n  <!--[if lt IE 7 ]>\\n\\t<script src="\', escape=False)\nresponse.write(URL(\'static\',\'js/dd_belatedpng.js\'))\nresponse.write(\'"></script>\\n\\t<script> DD_belatedPNG.fix(\\\'img, .png_bg\\\'); //fix any <img> or .png_bg background-images </script>\\n\\t<![endif]-->\\n  \', escape=False)\nif response.google_analytics_id:\n    response.write(\'<script type="text/javascript"> var _gaq = _gaq || []; _gaq.push([\\\'_setAccount\\\', \\\'\', escape=False)\n    response.write(response.google_analytics_id)\n    response.write("\']); _gaq.push([\'_trackPageview\']); (function() { var ga = document.createElement(\'script\'); ga.type = \'text/javascript\'; ga.async = true; ga.src = (\'https:\' == document.location.protocol ? \'https://ssl\' : \'http://www\') + \'.google-analytics.com/ga.js\'; var s = document.getElementsByTagName(\'script\')[0]; s.parentNode.insertBefore(ga, s); })(); </script> ", escape=False)\n    pass\nresponse.write(\'\\n</body>\\n</html>\\n\', escape=False)'
p7
sS'snapshot'
p8
(dp9
S'exception'
p10
(dp11
S'__hash__'
p12
S"<method-wrapper '__hash__' of exceptions.AttributeError object at 0x06072D00>"
p13
sS'__setattr__'
p14
S"<method-wrapper '__setattr__' of exceptions.AttributeError object at 0x06072D00>"
p15
sS'__reduce_ex__'
p16
S'<built-in method __reduce_ex__ of exceptions.AttributeError object at 0x06072D00>'
p17
sS'__getslice__'
p18
S"<method-wrapper '__getslice__' of exceptions.AttributeError object at 0x06072D00>"
p19
sS'__getitem__'
p20
S"<method-wrapper '__getitem__' of exceptions.AttributeError object at 0x06072D00>"
p21
sS'__setstate__'
p22
S'<built-in method __setstate__ of exceptions.AttributeError object at 0x06072D00>'
p23
sS'__reduce__'
p24
S'<built-in method __reduce__ of exceptions.AttributeError object at 0x06072D00>'
p25
sS'__str__'
p26
S"<method-wrapper '__str__' of exceptions.AttributeError object at 0x06072D00>"
p27
sS'args'
p28
S'("\'module\' object has no attribute \'shortUser\'",)'
p29
sS'__getattribute__'
p30
S"<method-wrapper '__getattribute__' of exceptions.AttributeError object at 0x06072D00>"
p31
sS'__class__'
p32
S"<type 'exceptions.AttributeError'>"
p33
sS'__delattr__'
p34
S"<method-wrapper '__delattr__' of exceptions.AttributeError object at 0x06072D00>"
p35
sS'__repr__'
p36
S"<method-wrapper '__repr__' of exceptions.AttributeError object at 0x06072D00>"
p37
sS'__dict__'
p38
S'{}'
p39
sS'__doc__'
p40
S"'Attribute not found.'"
p41
sS'__init__'
p42
S"<method-wrapper '__init__' of exceptions.AttributeError object at 0x06072D00>"
p43
sS'__new__'
p44
S'<built-in method __new__ of type object at 0x1E1CDA68>'
p45
ssS'evalue'
p46
S"'module' object has no attribute 'shortUser'"
p47
sS'request'
p48
ccopy_reg
_reconstructor
p49
(cgluon.html
BEAUTIFY
p50
c__builtin__
object
p51
NtRp52
(dp53
S'attributes'
p54
(dp55
sS'components'
p56
(lp57
g49
(cgluon.html
TABLE
p58
g51
NtRp59
(dp60
g54
(dp61
S'level'
p62
I5
ssS'parent'
p63
Nsg56
(lp64
g49
(cgluon.html
TR
p65
g51
NtRp66
(dp67
g54
(dp68
sg63
g59
sg56
(lp69
g49
(cgluon.html
TD
p70
g51
NtRp71
(dp72
g54
(dp73
S'_style'
p74
S'font-weight:bold;vertical-align:top'
p75
ssg63
g66
sg56
(lp76
S'ajax'
p77
asbag49
(g70
g51
NtRp78
(dp79
g54
(dp80
S'_valign'
p81
S'top'
p82
ssg63
g66
sg56
(lp83
S':'
asbag49
(g70
g51
NtRp84
(dp85
g54
(dp86
sg63
g66
sg56
(lp87
g49
(g50
g51
NtRp88
(dp89
g54
(dp90
g62
I5
ssg63
g84
sg56
(lp91
S'False'
p92
asbasbasbag49
(g65
g51
NtRp93
(dp94
g54
(dp95
sg63
g59
sg56
(lp96
g49
(g70
g51
NtRp97
(dp98
g54
(dp99
g74
g75
ssg63
g93
sg56
(lp100
S'application'
p101
asbag49
(g70
g51
NtRp102
(dp103
g54
(dp104
g81
g82
ssg63
g93
sg56
(lp105
S':'
asbag49
(g70
g51
NtRp106
(dp107
g54
(dp108
sg63
g93
sg56
(lp109
g49
(g50
g51
NtRp110
(dp111
g54
(dp112
g62
I5
ssg63
g106
sg56
(lp113
S'unioeste_code'
p114
asbasbasbag49
(g65
g51
NtRp115
(dp116
g54
(dp117
sg63
g59
sg56
(lp118
g49
(g70
g51
NtRp119
(dp120
g54
(dp121
g74
g75
ssg63
g115
sg56
(lp122
g28
asbag49
(g70
g51
NtRp123
(dp124
g54
(dp125
g81
g82
ssg63
g115
sg56
(lp126
S':'
asbag49
(g70
g51
NtRp127
(dp128
g54
(dp129
sg63
g115
sg56
(lp130
g49
(g50
g51
NtRp131
(dp132
g54
(dp133
g62
I5
ssg63
g127
sg56
(lp134
g49
(g58
g51
NtRp135
(dp136
g54
(dp137
g62
I4
ssg63
Nsg56
(lp138
g49
(g65
g51
NtRp139
(dp140
g54
(dp141
sg63
g135
sg56
(lp142
g49
(g70
g51
NtRp143
(dp144
g54
(dp145
sg63
g139
sg56
(lp146
g49
(g50
g51
NtRp147
(dp148
g54
(dp149
g62
I4
ssg63
g143
sg56
(lp150
S'2'
asbasbasbasbasbasbasbag49
(g65
g51
NtRp151
(dp152
g54
(dp153
sg63
g59
sg56
(lp154
g49
(g70
g51
NtRp155
(dp156
g54
(dp157
g74
g75
ssg63
g151
sg56
(lp158
S'body'
p159
asbag49
(g70
g51
NtRp160
(dp161
g54
(dp162
g81
g82
ssg63
g151
sg56
(lp163
S':'
asbag49
(g70
g51
NtRp164
(dp165
g54
(dp166
sg63
g151
sg56
(lp167
g49
(g50
g51
NtRp168
(dp169
g54
(dp170
g62
I5
ssg63
g164
sg56
(lp171
S'<cStringIO.StringO object at 0x069E49E0>'
p172
asbasbasbag49
(g65
g51
NtRp173
(dp174
g54
(dp175
sg63
g59
sg56
(lp176
g49
(g70
g51
NtRp177
(dp178
g54
(dp179
g74
g75
ssg63
g173
sg56
(lp180
S'client'
p181
asbag49
(g70
g51
NtRp182
(dp183
g54
(dp184
g81
g82
ssg63
g173
sg56
(lp185
S':'
asbag49
(g70
g51
NtRp186
(dp187
g54
(dp188
sg63
g173
sg56
(lp189
g49
(g50
g51
NtRp190
(dp191
g54
(dp192
g62
I5
ssg63
g186
sg56
(lp193
S'127.0.0.1'
p194
asbasbasbag49
(g65
g51
NtRp195
(dp196
g54
(dp197
sg63
g59
sg56
(lp198
g49
(g70
g51
NtRp199
(dp200
g54
(dp201
g74
g75
ssg63
g195
sg56
(lp202
S'controller'
p203
asbag49
(g70
g51
NtRp204
(dp205
g54
(dp206
g81
g82
ssg63
g195
sg56
(lp207
S':'
asbag49
(g70
g51
NtRp208
(dp209
g54
(dp210
sg63
g195
sg56
(lp211
g49
(g50
g51
NtRp212
(dp213
g54
(dp214
g62
I5
ssg63
g208
sg56
(lp215
S'default'
p216
asbasbasbag49
(g65
g51
NtRp217
(dp218
g54
(dp219
sg63
g59
sg56
(lp220
g49
(g70
g51
NtRp221
(dp222
g54
(dp223
g74
g75
ssg63
g217
sg56
(lp224
S'cookies'
p225
asbag49
(g70
g51
NtRp226
(dp227
g54
(dp228
g81
g82
ssg63
g217
sg56
(lp229
S':'
asbag49
(g70
g51
NtRp230
(dp231
g54
(dp232
sg63
g217
sg56
(lp233
g49
(g50
g51
NtRp234
(dp235
g54
(dp236
g62
I5
ssg63
g230
sg56
(lp237
g49
(g58
g51
NtRp238
(dp239
g54
(dp240
g62
I4
ssg63
Nsg56
(lp241
g49
(g65
g51
NtRp242
(dp243
g54
(dp244
sg63
g238
sg56
(lp245
g49
(g70
g51
NtRp246
(dp247
g54
(dp248
g74
g75
ssg63
g242
sg56
(lp249
S'session_id_admin'
p250
asbag49
(g70
g51
NtRp251
(dp252
g54
(dp253
g81
g82
ssg63
g242
sg56
(lp254
S':'
asbag49
(g70
g51
NtRp255
(dp256
g54
(dp257
sg63
g242
sg56
(lp258
g49
(g50
g51
NtRp259
(dp260
g54
(dp261
g62
I4
ssg63
g255
sg56
(lp262
g49
(g58
g51
NtRp263
(dp264
g54
(dp265
g62
I3
ssg63
Nsg56
(lp266
g49
(g65
g51
NtRp267
(dp268
g54
(dp269
sg63
g263
sg56
(lp270
g49
(g70
g51
NtRp271
(dp272
g54
(dp273
g74
g75
ssg63
g267
sg56
(lp274
S'comment'
p275
asbag49
(g70
g51
NtRp276
(dp277
g54
(dp278
g81
g82
ssg63
g267
sg56
(lp279
S':'
asbag49
(g70
g51
NtRp280
(dp281
g54
(dp282
sg63
g267
sg56
(lp283
g49
(g50
g51
NtRp284
(dp285
g54
(dp286
g62
I3
ssg63
g280
sg56
(lp287
S''
asbasbasbag49
(g65
g51
NtRp288
(dp289
g54
(dp290
sg63
g263
sg56
(lp291
g49
(g70
g51
NtRp292
(dp293
g54
(dp294
g74
g75
ssg63
g288
sg56
(lp295
S'domain'
p296
asbag49
(g70
g51
NtRp297
(dp298
g54
(dp299
g81
g82
ssg63
g288
sg56
(lp300
S':'
asbag49
(g70
g51
NtRp301
(dp302
g54
(dp303
sg63
g288
sg56
(lp304
g49
(g50
g51
NtRp305
(dp306
g54
(dp307
g62
I3
ssg63
g301
sg56
(lp308
S''
asbasbasbag49
(g65
g51
NtRp309
(dp310
g54
(dp311
sg63
g263
sg56
(lp312
g49
(g70
g51
NtRp313
(dp314
g54
(dp315
g74
g75
ssg63
g309
sg56
(lp316
S'expires'
p317
asbag49
(g70
g51
NtRp318
(dp319
g54
(dp320
g81
g82
ssg63
g309
sg56
(lp321
S':'
asbag49
(g70
g51
NtRp322
(dp323
g54
(dp324
sg63
g309
sg56
(lp325
g49
(g50
g51
NtRp326
(dp327
g54
(dp328
g62
I3
ssg63
g322
sg56
(lp329
S''
asbasbasbag49
(g65
g51
NtRp330
(dp331
g54
(dp332
sg63
g263
sg56
(lp333
g49
(g70
g51
NtRp334
(dp335
g54
(dp336
g74
g75
ssg63
g330
sg56
(lp337
S'max-age'
p338
asbag49
(g70
g51
NtRp339
(dp340
g54
(dp341
g81
g82
ssg63
g330
sg56
(lp342
S':'
asbag49
(g70
g51
NtRp343
(dp344
g54
(dp345
sg63
g330
sg56
(lp346
g49
(g50
g51
NtRp347
(dp348
g54
(dp349
g62
I3
ssg63
g343
sg56
(lp350
S''
asbasbasbag49
(g65
g51
NtRp351
(dp352
g54
(dp353
sg63
g263
sg56
(lp354
g49
(g70
g51
NtRp355
(dp356
g54
(dp357
g74
g75
ssg63
g351
sg56
(lp358
S'path'
p359
asbag49
(g70
g51
NtRp360
(dp361
g54
(dp362
g81
g82
ssg63
g351
sg56
(lp363
S':'
asbag49
(g70
g51
NtRp364
(dp365
g54
(dp366
sg63
g351
sg56
(lp367
g49
(g50
g51
NtRp368
(dp369
g54
(dp370
g62
I3
ssg63
g364
sg56
(lp371
S''
asbasbasbag49
(g65
g51
NtRp372
(dp373
g54
(dp374
sg63
g263
sg56
(lp375
g49
(g70
g51
NtRp376
(dp377
g54
(dp378
g74
g75
ssg63
g372
sg56
(lp379
S'secure'
p380
asbag49
(g70
g51
NtRp381
(dp382
g54
(dp383
g81
g82
ssg63
g372
sg56
(lp384
S':'
asbag49
(g70
g51
NtRp385
(dp386
g54
(dp387
sg63
g372
sg56
(lp388
g49
(g50
g51
NtRp389
(dp390
g54
(dp391
g62
I3
ssg63
g385
sg56
(lp392
S''
asbasbasbag49
(g65
g51
NtRp393
(dp394
g54
(dp395
sg63
g263
sg56
(lp396
g49
(g70
g51
NtRp397
(dp398
g54
(dp399
g74
g75
ssg63
g393
sg56
(lp400
S'version'
p401
asbag49
(g70
g51
NtRp402
(dp403
g54
(dp404
g81
g82
ssg63
g393
sg56
(lp405
S':'
asbag49
(g70
g51
NtRp406
(dp407
g54
(dp408
sg63
g393
sg56
(lp409
g49
(g50
g51
NtRp410
(dp411
g54
(dp412
g62
I3
ssg63
g406
sg56
(lp413
S''
asbasbasbasbasbasbasbag49
(g65
g51
NtRp414
(dp415
g54
(dp416
sg63
g238
sg56
(lp417
g49
(g70
g51
NtRp418
(dp419
g54
(dp420
g74
g75
ssg63
g414
sg56
(lp421
S'session_id_unioeste_code'
p422
asbag49
(g70
g51
NtRp423
(dp424
g54
(dp425
g81
g82
ssg63
g414
sg56
(lp426
S':'
asbag49
(g70
g51
NtRp427
(dp428
g54
(dp429
sg63
g414
sg56
(lp430
g49
(g50
g51
NtRp431
(dp432
g54
(dp433
g62
I4
ssg63
g427
sg56
(lp434
g49
(g58
g51
NtRp435
(dp436
g54
(dp437
g62
I3
ssg63
Nsg56
(lp438
g49
(g65
g51
NtRp439
(dp440
g54
(dp441
sg63
g435
sg56
(lp442
g49
(g70
g51
NtRp443
(dp444
g54
(dp445
g74
g75
ssg63
g439
sg56
(lp446
g275
asbag49
(g70
g51
NtRp447
(dp448
g54
(dp449
g81
g82
ssg63
g439
sg56
(lp450
S':'
asbag49
(g70
g51
NtRp451
(dp452
g54
(dp453
sg63
g439
sg56
(lp454
g49
(g50
g51
NtRp455
(dp456
g54
(dp457
g62
I3
ssg63
g451
sg56
(lp458
S''
asbasbasbag49
(g65
g51
NtRp459
(dp460
g54
(dp461
sg63
g435
sg56
(lp462
g49
(g70
g51
NtRp463
(dp464
g54
(dp465
g74
g75
ssg63
g459
sg56
(lp466
g296
asbag49
(g70
g51
NtRp467
(dp468
g54
(dp469
g81
g82
ssg63
g459
sg56
(lp470
S':'
asbag49
(g70
g51
NtRp471
(dp472
g54
(dp473
sg63
g459
sg56
(lp474
g49
(g50
g51
NtRp475
(dp476
g54
(dp477
g62
I3
ssg63
g471
sg56
(lp478
S''
asbasbasbag49
(g65
g51
NtRp479
(dp480
g54
(dp481
sg63
g435
sg56
(lp482
g49
(g70
g51
NtRp483
(dp484
g54
(dp485
g74
g75
ssg63
g479
sg56
(lp486
g317
asbag49
(g70
g51
NtRp487
(dp488
g54
(dp489
g81
g82
ssg63
g479
sg56
(lp490
S':'
asbag49
(g70
g51
NtRp491
(dp492
g54
(dp493
sg63
g479
sg56
(lp494
g49
(g50
g51
NtRp495
(dp496
g54
(dp497
g62
I3
ssg63
g491
sg56
(lp498
S''
asbasbasbag49
(g65
g51
NtRp499
(dp500
g54
(dp501
sg63
g435
sg56
(lp502
g49
(g70
g51
NtRp503
(dp504
g54
(dp505
g74
g75
ssg63
g499
sg56
(lp506
g338
asbag49
(g70
g51
NtRp507
(dp508
g54
(dp509
g81
g82
ssg63
g499
sg56
(lp510
S':'
asbag49
(g70
g51
NtRp511
(dp512
g54
(dp513
sg63
g499
sg56
(lp514
g49
(g50
g51
NtRp515
(dp516
g54
(dp517
g62
I3
ssg63
g511
sg56
(lp518
S''
asbasbasbag49
(g65
g51
NtRp519
(dp520
g54
(dp521
sg63
g435
sg56
(lp522
g49
(g70
g51
NtRp523
(dp524
g54
(dp525
g74
g75
ssg63
g519
sg56
(lp526
g359
asbag49
(g70
g51
NtRp527
(dp528
g54
(dp529
g81
g82
ssg63
g519
sg56
(lp530
S':'
asbag49
(g70
g51
NtRp531
(dp532
g54
(dp533
sg63
g519
sg56
(lp534
g49
(g50
g51
NtRp535
(dp536
g54
(dp537
g62
I3
ssg63
g531
sg56
(lp538
S''
asbasbasbag49
(g65
g51
NtRp539
(dp540
g54
(dp541
sg63
g435
sg56
(lp542
g49
(g70
g51
NtRp543
(dp544
g54
(dp545
g74
g75
ssg63
g539
sg56
(lp546
g380
asbag49
(g70
g51
NtRp547
(dp548
g54
(dp549
g81
g82
ssg63
g539
sg56
(lp550
S':'
asbag49
(g70
g51
NtRp551
(dp552
g54
(dp553
sg63
g539
sg56
(lp554
g49
(g50
g51
NtRp555
(dp556
g54
(dp557
g62
I3
ssg63
g551
sg56
(lp558
S''
asbasbasbag49
(g65
g51
NtRp559
(dp560
g54
(dp561
sg63
g435
sg56
(lp562
g49
(g70
g51
NtRp563
(dp564
g54
(dp565
g74
g75
ssg63
g559
sg56
(lp566
g401
asbag49
(g70
g51
NtRp567
(dp568
g54
(dp569
g81
g82
ssg63
g559
sg56
(lp570
S':'
asbag49
(g70
g51
NtRp571
(dp572
g54
(dp573
sg63
g559
sg56
(lp574
g49
(g50
g51
NtRp575
(dp576
g54
(dp577
g62
I3
ssg63
g571
sg56
(lp578
S''
asbasbasbasbasbasbasbasbasbasbasbag49
(g65
g51
NtRp579
(dp580
g54
(dp581
sg63
g59
sg56
(lp582
g49
(g70
g51
NtRp583
(dp584
g54
(dp585
g74
g75
ssg63
g579
sg56
(lp586
S'env'
p587
asbag49
(g70
g51
NtRp588
(dp589
g54
(dp590
g81
g82
ssg63
g579
sg56
(lp591
S':'
asbag49
(g70
g51
NtRp592
(dp593
g54
(dp594
sg63
g579
sg56
(lp595
g49
(g50
g51
NtRp596
(dp597
g54
(dp598
g62
I5
ssg63
g592
sg56
(lp599
g49
(g58
g51
NtRp600
(dp601
g54
(dp602
g62
I4
ssg63
Nsg56
(lp603
g49
(g65
g51
NtRp604
(dp605
g54
(dp606
sg63
g600
sg56
(lp607
g49
(g70
g51
NtRp608
(dp609
g54
(dp610
g74
g75
ssg63
g604
sg56
(lp611
S'app_folders'
p612
asbag49
(g70
g51
NtRp613
(dp614
g54
(dp615
g81
g82
ssg63
g604
sg56
(lp616
S':'
asbag49
(g70
g51
NtRp617
(dp618
g54
(dp619
sg63
g604
sg56
(lp620
g49
(g50
g51
NtRp621
(dp622
g54
(dp623
g62
I4
ssg63
g617
sg56
(lp624
S"set(['C:\\\\web2py\\\\applications\\\\admin\\\\', 'C:\\\\web2py\\\\applications\\\\welcome\\\\', 'C:\\\\web2py\\\\applications\\\\unioeste_code\\\\'])"
p625
asbasbasbag49
(g65
g51
NtRp626
(dp627
g54
(dp628
sg63
g600
sg56
(lp629
g49
(g70
g51
NtRp630
(dp631
g54
(dp632
g74
g75
ssg63
g626
sg56
(lp633
S'applications_parent'
p634
asbag49
(g70
g51
NtRp635
(dp636
g54
(dp637
g81
g82
ssg63
g626
sg56
(lp638
S':'
asbag49
(g70
g51
NtRp639
(dp640
g54
(dp641
sg63
g626
sg56
(lp642
g49
(g50
g51
NtRp643
(dp644
g54
(dp645
g62
I4
ssg63
g639
sg56
(lp646
S'C:\\web2py'
p647
asbasbasbag49
(g65
g51
NtRp648
(dp649
g54
(dp650
sg63
g600
sg56
(lp651
g49
(g70
g51
NtRp652
(dp653
g54
(dp654
g74
g75
ssg63
g648
sg56
(lp655
S'cmd_args'
p656
asbag49
(g70
g51
NtRp657
(dp658
g54
(dp659
g81
g82
ssg63
g648
sg56
(lp660
S':'
asbag49
(g70
g51
NtRp661
(dp662
g54
(dp663
sg63
g648
sg56
(lp664
g49
(g50
g51
NtRp665
(dp666
g54
(dp667
g62
I4
ssg63
g661
sg56
(lp668
g49
(g58
g51
NtRp669
(dp670
g54
(dp671
g62
I3
ssg63
Nsg56
(lp672
sbasbasbasbag49
(g65
g51
NtRp673
(dp674
g54
(dp675
sg63
g600
sg56
(lp676
g49
(g70
g51
NtRp677
(dp678
g54
(dp679
g74
g75
ssg63
g673
sg56
(lp680
S'cmd_options'
p681
asbag49
(g70
g51
NtRp682
(dp683
g54
(dp684
g81
g82
ssg63
g673
sg56
(lp685
S':'
asbag49
(g70
g51
NtRp686
(dp687
g54
(dp688
sg63
g673
sg56
(lp689
g49
(g50
g51
NtRp690
(dp691
g54
(dp692
g62
I4
ssg63
g686
sg56
(lp693
S"<Values at 0x309c300: {'verbose': False, 'ip': '127.0.0.1', 'shutdown_timeout': 5, 'taskbar': False, 'nocron': False, 'pid_filename': 'httpserver.pid', 'maxthreads': None, 'softcron': False, 'server_name': 'Pedro-PC', 'bpython': False, 'nogui': False, 'port': 8000, 'extcron': False, 'debuglevel': 30, 'test': None, 'folder': 'C:\\\\web2py', 'config': '', 'import_models': False, 'winservice': '', 'shell': None, 'run': '', 'log_filename': 'httpserver.log', 'args': [''], 'socket_timeout': 5, 'ssl_ca_certificate': None, 'scheduler': None, 'profiler_filename': None, 'ssl_private_key': '', 'password': '<ask>', 'request_queue_size': 5, 'ssl_certificate': '', 'cronjob': False, 'numthreads': None, 'quiet': False, 'interfaces': None, 'minthreads': None, 'timeout': 10, 'plain': False, 'nobanner': False}>"
p694
asbasbasbag49
(g65
g51
NtRp695
(dp696
g54
(dp697
sg63
g600
sg56
(lp698
g49
(g70
g51
NtRp699
(dp700
g54
(dp701
g74
g75
ssg63
g695
sg56
(lp702
S'db_sessions'
p703
asbag49
(g70
g51
NtRp704
(dp705
g54
(dp706
g81
g82
ssg63
g695
sg56
(lp707
S':'
asbag49
(g70
g51
NtRp708
(dp709
g54
(dp710
sg63
g695
sg56
(lp711
g49
(g50
g51
NtRp712
(dp713
g54
(dp714
g62
I4
ssg63
g708
sg56
(lp715
S'set([])'
p716
asbasbasbag49
(g65
g51
NtRp717
(dp718
g54
(dp719
sg63
g600
sg56
(lp720
g49
(g70
g51
NtRp721
(dp722
g54
(dp723
g74
g75
ssg63
g717
sg56
(lp724
S'debugging'
p725
asbag49
(g70
g51
NtRp726
(dp727
g54
(dp728
g81
g82
ssg63
g717
sg56
(lp729
S':'
asbag49
(g70
g51
NtRp730
(dp731
g54
(dp732
sg63
g717
sg56
(lp733
g49
(g50
g51
NtRp734
(dp735
g54
(dp736
g62
I4
ssg63
g730
sg56
(lp737
g92
asbasbasbag49
(g65
g51
NtRp738
(dp739
g54
(dp740
sg63
g600
sg56
(lp741
g49
(g70
g51
NtRp742
(dp743
g54
(dp744
g74
g75
ssg63
g738
sg56
(lp745
S'gluon_parent'
p746
asbag49
(g70
g51
NtRp747
(dp748
g54
(dp749
g81
g82
ssg63
g738
sg56
(lp750
S':'
asbag49
(g70
g51
NtRp751
(dp752
g54
(dp753
sg63
g738
sg56
(lp754
g49
(g50
g51
NtRp755
(dp756
g54
(dp757
g62
I4
ssg63
g751
sg56
(lp758
S'C:\\web2py'
p759
asbasbasbag49
(g65
g51
NtRp760
(dp761
g54
(dp762
sg63
g600
sg56
(lp763
g49
(g70
g51
NtRp764
(dp765
g54
(dp766
g74
g75
ssg63
g760
sg56
(lp767
S'http_accept'
p768
asbag49
(g70
g51
NtRp769
(dp770
g54
(dp771
g81
g82
ssg63
g760
sg56
(lp772
S':'
asbag49
(g70
g51
NtRp773
(dp774
g54
(dp775
sg63
g760
sg56
(lp776
g49
(g50
g51
NtRp777
(dp778
g54
(dp779
g62
I4
ssg63
g773
sg56
(lp780
S'text/html,application/xhtml+xml,application/xml;q=0.9,*/*;q=0.8'
p781
asbasbasbag49
(g65
g51
NtRp782
(dp783
g54
(dp784
sg63
g600
sg56
(lp785
g49
(g70
g51
NtRp786
(dp787
g54
(dp788
g74
g75
ssg63
g782
sg56
(lp789
S'http_accept_charset'
p790
asbag49
(g70
g51
NtRp791
(dp792
g54
(dp793
g81
g82
ssg63
g782
sg56
(lp794
S':'
asbag49
(g70
g51
NtRp795
(dp796
g54
(dp797
sg63
g782
sg56
(lp798
g49
(g50
g51
NtRp799
(dp800
g54
(dp801
g62
I4
ssg63
g795
sg56
(lp802
S'ISO-8859-1,utf-8;q=0.7,*;q=0.3'
p803
asbasbasbag49
(g65
g51
NtRp804
(dp805
g54
(dp806
sg63
g600
sg56
(lp807
g49
(g70
g51
NtRp808
(dp809
g54
(dp810
g74
g75
ssg63
g804
sg56
(lp811
S'http_accept_encoding'
p812
asbag49
(g70
g51
NtRp813
(dp814
g54
(dp815
g81
g82
ssg63
g804
sg56
(lp816
S':'
asbag49
(g70
g51
NtRp817
(dp818
g54
(dp819
sg63
g804
sg56
(lp820
g49
(g50
g51
NtRp821
(dp822
g54
(dp823
g62
I4
ssg63
g817
sg56
(lp824
S'gzip,deflate,sdch'
p825
asbasbasbag49
(g65
g51
NtRp826
(dp827
g54
(dp828
sg63
g600
sg56
(lp829
g49
(g70
g51
NtRp830
(dp831
g54
(dp832
g74
g75
ssg63
g826
sg56
(lp833
S'http_accept_language'
p834
asbag49
(g70
g51
NtRp835
(dp836
g54
(dp837
g81
g82
ssg63
g826
sg56
(lp838
S':'
asbag49
(g70
g51
NtRp839
(dp840
g54
(dp841
sg63
g826
sg56
(lp842
g49
(g50
g51
NtRp843
(dp844
g54
(dp845
g62
I4
ssg63
g839
sg56
(lp846
S'pt-BR,pt;q=0.8,en-US;q=0.6,en;q=0.4'
p847
asbasbasbag49
(g65
g51
NtRp848
(dp849
g54
(dp850
sg63
g600
sg56
(lp851
g49
(g70
g51
NtRp852
(dp853
g54
(dp854
g74
g75
ssg63
g848
sg56
(lp855
S'http_cache_control'
p856
asbag49
(g70
g51
NtRp857
(dp858
g54
(dp859
g81
g82
ssg63
g848
sg56
(lp860
S':'
asbag49
(g70
g51
NtRp861
(dp862
g54
(dp863
sg63
g848
sg56
(lp864
g49
(g50
g51
NtRp865
(dp866
g54
(dp867
g62
I4
ssg63
g861
sg56
(lp868
S'max-age=0'
p869
asbasbasbag49
(g65
g51
NtRp870
(dp871
g54
(dp872
sg63
g600
sg56
(lp873
g49
(g70
g51
NtRp874
(dp875
g54
(dp876
g74
g75
ssg63
g870
sg56
(lp877
S'http_connection'
p878
asbag49
(g70
g51
NtRp879
(dp880
g54
(dp881
g81
g82
ssg63
g870
sg56
(lp882
S':'
asbag49
(g70
g51
NtRp883
(dp884
g54
(dp885
sg63
g870
sg56
(lp886
g49
(g50
g51
NtRp887
(dp888
g54
(dp889
g62
I4
ssg63
g883
sg56
(lp890
S'keep-alive'
p891
asbasbasbag49
(g65
g51
NtRp892
(dp893
g54
(dp894
sg63
g600
sg56
(lp895
g49
(g70
g51
NtRp896
(dp897
g54
(dp898
g74
g75
ssg63
g892
sg56
(lp899
S'http_cookie'
p900
asbag49
(g70
g51
NtRp901
(dp902
g54
(dp903
g81
g82
ssg63
g892
sg56
(lp904
S':'
asbag49
(g70
g51
NtRp905
(dp906
g54
(dp907
sg63
g892
sg56
(lp908
g49
(g50
g51
NtRp909
(dp910
g54
(dp911
g62
I4
ssg63
g905
sg56
(lp912
S'session_id_admin=127.0.0.1-5b5708ff-f236-440a-9e31-904908de9b24; session_id_unioeste_code=127.0.0.1-ac0e57bf-2a61-4ff7-b75a-c2e830b4787a'
p913
asbasbasbag49
(g65
g51
NtRp914
(dp915
g54
(dp916
sg63
g600
sg56
(lp917
g49
(g70
g51
NtRp918
(dp919
g54
(dp920
g74
g75
ssg63
g914
sg56
(lp921
S'http_dnt'
p922
asbag49
(g70
g51
NtRp923
(dp924
g54
(dp925
g81
g82
ssg63
g914
sg56
(lp926
S':'
asbag49
(g70
g51
NtRp927
(dp928
g54
(dp929
sg63
g914
sg56
(lp930
g49
(g50
g51
NtRp931
(dp932
g54
(dp933
g62
I4
ssg63
g927
sg56
(lp934
S'1'
asbasbasbag49
(g65
g51
NtRp935
(dp936
g54
(dp937
sg63
g600
sg56
(lp938
g49
(g70
g51
NtRp939
(dp940
g54
(dp941
g74
g75
ssg63
g935
sg56
(lp942
S'http_host'
p943
asbag49
(g70
g51
NtRp944
(dp945
g54
(dp946
g81
g82
ssg63
g935
sg56
(lp947
S':'
asbag49
(g70
g51
NtRp948
(dp949
g54
(dp950
sg63
g935
sg56
(lp951
g49
(g50
g51
NtRp952
(dp953
g54
(dp954
g62
I4
ssg63
g948
sg56
(lp955
S'localhost:8000'
p956
asbasbasbag49
(g65
g51
NtRp957
(dp958
g54
(dp959
sg63
g600
sg56
(lp960
g49
(g70
g51
NtRp961
(dp962
g54
(dp963
g74
g75
ssg63
g957
sg56
(lp964
S'http_user_agent'
p965
asbag49
(g70
g51
NtRp966
(dp967
g54
(dp968
g81
g82
ssg63
g957
sg56
(lp969
S':'
asbag49
(g70
g51
NtRp970
(dp971
g54
(dp972
sg63
g957
sg56
(lp973
g49
(g50
g51
NtRp974
(dp975
g54
(dp976
g62
I4
ssg63
g970
sg56
(lp977
S'Mozilla/5.0 (Windows NT 6.1; WOW64) AppleWebKit/536.11 (KHTML, like Gecko) Chrome/20.0.1132.57 Safari/536.11'
p978
asbasbasbag49
(g65
g51
NtRp979
(dp980
g54
(dp981
sg63
g600
sg56
(lp982
g49
(g70
g51
NtRp983
(dp984
g54
(dp985
g74
g75
ssg63
g979
sg56
(lp986
S'is_jython'
p987
asbag49
(g70
g51
NtRp988
(dp989
g54
(dp990
g81
g82
ssg63
g979
sg56
(lp991
S':'
asbag49
(g70
g51
NtRp992
(dp993
g54
(dp994
sg63
g979
sg56
(lp995
g49
(g50
g51
NtRp996
(dp997
g54
(dp998
g62
I4
ssg63
g992
sg56
(lp999
g92
asbasbasbag49
(g65
g51
NtRp1000
(dp1001
g54
(dp1002
sg63
g600
sg56
(lp1003
g49
(g70
g51
NtRp1004
(dp1005
g54
(dp1006
g74
g75
ssg63
g1000
sg56
(lp1007
S'is_pypy'
p1008
asbag49
(g70
g51
NtRp1009
(dp1010
g54
(dp1011
g81
g82
ssg63
g1000
sg56
(lp1012
S':'
asbag49
(g70
g51
NtRp1013
(dp1014
g54
(dp1015
sg63
g1000
sg56
(lp1016
g49
(g50
g51
NtRp1017
(dp1018
g54
(dp1019
g62
I4
ssg63
g1013
sg56
(lp1020
g92
asbasbasbag49
(g65
g51
NtRp1021
(dp1022
g54
(dp1023
sg63
g600
sg56
(lp1024
g49
(g70
g51
NtRp1025
(dp1026
g54
(dp1027
g74
g75
ssg63
g1021
sg56
(lp1028
S'path_info'
p1029
asbag49
(g70
g51
NtRp1030
(dp1031
g54
(dp1032
g81
g82
ssg63
g1021
sg56
(lp1033
S':'
asbag49
(g70
g51
NtRp1034
(dp1035
g54
(dp1036
sg63
g1021
sg56
(lp1037
g49
(g50
g51
NtRp1038
(dp1039
g54
(dp1040
g62
I4
ssg63
g1034
sg56
(lp1041
S'/unioeste_code/default/Code/2'
p1042
asbasbasbag49
(g65
g51
NtRp1043
(dp1044
g54
(dp1045
sg63
g600
sg56
(lp1046
g49
(g70
g51
NtRp1047
(dp1048
g54
(dp1049
g74
g75
ssg63
g1043
sg56
(lp1050
S'query_string'
p1051
asbag49
(g70
g51
NtRp1052
(dp1053
g54
(dp1054
g81
g82
ssg63
g1043
sg56
(lp1055
S':'
asbag49
(g70
g51
NtRp1056
(dp1057
g54
(dp1058
sg63
g1043
sg56
(lp1059
g49
(g50
g51
NtRp1060
(dp1061
g54
(dp1062
g62
I4
ssg63
g1056
sg56
(lp1063
S''
asbasbasbag49
(g65
g51
NtRp1064
(dp1065
g54
(dp1066
sg63
g600
sg56
(lp1067
g49
(g70
g51
NtRp1068
(dp1069
g54
(dp1070
g74
g75
ssg63
g1064
sg56
(lp1071
S'remote_addr'
p1072
asbag49
(g70
g51
NtRp1073
(dp1074
g54
(dp1075
g81
g82
ssg63
g1064
sg56
(lp1076
S':'
asbag49
(g70
g51
NtRp1077
(dp1078
g54
(dp1079
sg63
g1064
sg56
(lp1080
g49
(g50
g51
NtRp1081
(dp1082
g54
(dp1083
g62
I4
ssg63
g1077
sg56
(lp1084
g194
asbasbasbag49
(g65
g51
NtRp1085
(dp1086
g54
(dp1087
sg63
g600
sg56
(lp1088
g49
(g70
g51
NtRp1089
(dp1090
g54
(dp1091
g74
g75
ssg63
g1085
sg56
(lp1092
S'remote_port'
p1093
asbag49
(g70
g51
NtRp1094
(dp1095
g54
(dp1096
g81
g82
ssg63
g1085
sg56
(lp1097
S':'
asbag49
(g70
g51
NtRp1098
(dp1099
g54
(dp1100
sg63
g1085
sg56
(lp1101
g49
(g50
g51
NtRp1102
(dp1103
g54
(dp1104
g62
I4
ssg63
g1098
sg56
(lp1105
S'8136'
p1106
asbasbasbag49
(g65
g51
NtRp1107
(dp1108
g54
(dp1109
sg63
g600
sg56
(lp1110
g49
(g70
g51
NtRp1111
(dp1112
g54
(dp1113
g74
g75
ssg63
g1107
sg56
(lp1114
S'request_method'
p1115
asbag49
(g70
g51
NtRp1116
(dp1117
g54
(dp1118
g81
g82
ssg63
g1107
sg56
(lp1119
S':'
asbag49
(g70
g51
NtRp1120
(dp1121
g54
(dp1122
sg63
g1107
sg56
(lp1123
g49
(g50
g51
NtRp1124
(dp1125
g54
(dp1126
g62
I4
ssg63
g1120
sg56
(lp1127
S'GET'
p1128
asbasbasbag49
(g65
g51
NtRp1129
(dp1130
g54
(dp1131
sg63
g600
sg56
(lp1132
g49
(g70
g51
NtRp1133
(dp1134
g54
(dp1135
g74
g75
ssg63
g1129
sg56
(lp1136
S'script_name'
p1137
asbag49
(g70
g51
NtRp1138
(dp1139
g54
(dp1140
g81
g82
ssg63
g1129
sg56
(lp1141
S':'
asbag49
(g70
g51
NtRp1142
(dp1143
g54
(dp1144
sg63
g1129
sg56
(lp1145
g49
(g50
g51
NtRp1146
(dp1147
g54
(dp1148
g62
I4
ssg63
g1142
sg56
(lp1149
S''
asbasbasbag49
(g65
g51
NtRp1150
(dp1151
g54
(dp1152
sg63
g600
sg56
(lp1153
g49
(g70
g51
NtRp1154
(dp1155
g54
(dp1156
g74
g75
ssg63
g1150
sg56
(lp1157
S'server_name'
p1158
asbag49
(g70
g51
NtRp1159
(dp1160
g54
(dp1161
g81
g82
ssg63
g1150
sg56
(lp1162
S':'
asbag49
(g70
g51
NtRp1163
(dp1164
g54
(dp1165
sg63
g1150
sg56
(lp1166
g49
(g50
g51
NtRp1167
(dp1168
g54
(dp1169
g62
I4
ssg63
g1163
sg56
(lp1170
S'Pedro-PC'
p1171
asbasbasbag49
(g65
g51
NtRp1172
(dp1173
g54
(dp1174
sg63
g600
sg56
(lp1175
g49
(g70
g51
NtRp1176
(dp1177
g54
(dp1178
g74
g75
ssg63
g1172
sg56
(lp1179
S'server_port'
p1180
asbag49
(g70
g51
NtRp1181
(dp1182
g54
(dp1183
g81
g82
ssg63
g1172
sg56
(lp1184
S':'
asbag49
(g70
g51
NtRp1185
(dp1186
g54
(dp1187
sg63
g1172
sg56
(lp1188
g49
(g50
g51
NtRp1189
(dp1190
g54
(dp1191
g62
I4
ssg63
g1185
sg56
(lp1192
S'8000'
p1193
asbasbasbag49
(g65
g51
NtRp1194
(dp1195
g54
(dp1196
sg63
g600
sg56
(lp1197
g49
(g70
g51
NtRp1198
(dp1199
g54
(dp1200
g74
g75
ssg63
g1194
sg56
(lp1201
S'server_protocol'
p1202
asbag49
(g70
g51
NtRp1203
(dp1204
g54
(dp1205
g81
g82
ssg63
g1194
sg56
(lp1206
S':'
asbag49
(g70
g51
NtRp1207
(dp1208
g54
(dp1209
sg63
g1194
sg56
(lp1210
g49
(g50
g51
NtRp1211
(dp1212
g54
(dp1213
g62
I4
ssg63
g1207
sg56
(lp1214
S'HTTP/1.1'
p1215
asbasbasbag49
(g65
g51
NtRp1216
(dp1217
g54
(dp1218
sg63
g600
sg56
(lp1219
g49
(g70
g51
NtRp1220
(dp1221
g54
(dp1222
g74
g75
ssg63
g1216
sg56
(lp1223
S'server_software'
p1224
asbag49
(g70
g51
NtRp1225
(dp1226
g54
(dp1227
g81
g82
ssg63
g1216
sg56
(lp1228
S':'
asbag49
(g70
g51
NtRp1229
(dp1230
g54
(dp1231
sg63
g1216
sg56
(lp1232
g49
(g50
g51
NtRp1233
(dp1234
g54
(dp1235
g62
I4
ssg63
g1229
sg56
(lp1236
S'Rocket 1.2.4'
p1237
asbasbasbag49
(g65
g51
NtRp1238
(dp1239
g54
(dp1240
sg63
g600
sg56
(lp1241
g49
(g70
g51
NtRp1242
(dp1243
g54
(dp1244
g74
g75
ssg63
g1238
sg56
(lp1245
S'web2py_crontype'
p1246
asbag49
(g70
g51
NtRp1247
(dp1248
g54
(dp1249
g81
g82
ssg63
g1238
sg56
(lp1250
S':'
asbag49
(g70
g51
NtRp1251
(dp1252
g54
(dp1253
sg63
g1238
sg56
(lp1254
g49
(g50
g51
NtRp1255
(dp1256
g54
(dp1257
g62
I4
ssg63
g1251
sg56
(lp1258
S'hard'
p1259
asbasbasbag49
(g65
g51
NtRp1260
(dp1261
g54
(dp1262
sg63
g600
sg56
(lp1263
g49
(g70
g51
NtRp1264
(dp1265
g54
(dp1266
g74
g75
ssg63
g1260
sg56
(lp1267
S'web2py_path'
p1268
asbag49
(g70
g51
NtRp1269
(dp1270
g54
(dp1271
g81
g82
ssg63
g1260
sg56
(lp1272
S':'
asbag49
(g70
g51
NtRp1273
(dp1274
g54
(dp1275
sg63
g1260
sg56
(lp1276
g49
(g50
g51
NtRp1277
(dp1278
g54
(dp1279
g62
I4
ssg63
g1273
sg56
(lp1280
g647
asbasbasbag49
(g65
g51
NtRp1281
(dp1282
g54
(dp1283
sg63
g600
sg56
(lp1284
g49
(g70
g51
NtRp1285
(dp1286
g54
(dp1287
g74
g75
ssg63
g1281
sg56
(lp1288
S'web2py_version'
p1289
asbag49
(g70
g51
NtRp1290
(dp1291
g54
(dp1292
g81
g82
ssg63
g1281
sg56
(lp1293
S':'
asbag49
(g70
g51
NtRp1294
(dp1295
g54
(dp1296
sg63
g1281
sg56
(lp1297
g49
(g50
g51
NtRp1298
(dp1299
g54
(dp1300
g62
I4
ssg63
g1294
sg56
(lp1301
g49
(g58
g51
NtRp1302
(dp1303
g54
(dp1304
g62
I3
ssg63
Nsg56
(lp1305
g49
(g65
g51
NtRp1306
(dp1307
g54
(dp1308
sg63
g1302
sg56
(lp1309
g49
(g70
g51
NtRp1310
(dp1311
g54
(dp1312
sg63
g1306
sg56
(lp1313
g49
(g50
g51
NtRp1314
(dp1315
g54
(dp1316
g62
I3
ssg63
g1310
sg56
(lp1317
S'1'
asbasbasbag49
(g65
g51
NtRp1318
(dp1319
g54
(dp1320
sg63
g1302
sg56
(lp1321
g49
(g70
g51
NtRp1322
(dp1323
g54
(dp1324
sg63
g1318
sg56
(lp1325
g49
(g50
g51
NtRp1326
(dp1327
g54
(dp1328
g62
I3
ssg63
g1322
sg56
(lp1329
S'99'
p1330
asbasbasbag49
(g65
g51
NtRp1331
(dp1332
g54
(dp1333
sg63
g1302
sg56
(lp1334
g49
(g70
g51
NtRp1335
(dp1336
g54
(dp1337
sg63
g1331
sg56
(lp1338
g49
(g50
g51
NtRp1339
(dp1340
g54
(dp1341
g62
I3
ssg63
g1335
sg56
(lp1342
S'7'
asbasbasbag49
(g65
g51
NtRp1343
(dp1344
g54
(dp1345
sg63
g1302
sg56
(lp1346
g49
(g70
g51
NtRp1347
(dp1348
g54
(dp1349
sg63
g1343
sg56
(lp1350
g49
(g50
g51
NtRp1351
(dp1352
g54
(dp1353
g62
I3
ssg63
g1347
sg56
(lp1354
S'datetime.datetime(2012, 3, 4, 22, 12, 8)'
p1355
asbasbasbag49
(g65
g51
NtRp1356
(dp1357
g54
(dp1358
sg63
g1302
sg56
(lp1359
g49
(g70
g51
NtRp1360
(dp1361
g54
(dp1362
sg63
g1356
sg56
(lp1363
g49
(g50
g51
NtRp1364
(dp1365
g54
(dp1366
g62
I3
ssg63
g1360
sg56
(lp1367
S'stable'
p1368
asbasbasbasbasbasbasbag49
(g65
g51
NtRp1369
(dp1370
g54
(dp1371
sg63
g600
sg56
(lp1372
g49
(g70
g51
NtRp1373
(dp1374
g54
(dp1375
g74
g75
ssg63
g1369
sg56
(lp1376
S'wsgi_errors'
p1377
asbag49
(g70
g51
NtRp1378
(dp1379
g54
(dp1380
g81
g82
ssg63
g1369
sg56
(lp1381
S':'
asbag49
(g70
g51
NtRp1382
(dp1383
g54
(dp1384
sg63
g1369
sg56
(lp1385
g49
(g50
g51
NtRp1386
(dp1387
g54
(dp1388
g62
I4
ssg63
g1382
sg56
(lp1389
S'<__main__.Stderr object at 0x00486670>'
p1390
asbasbasbag49
(g65
g51
NtRp1391
(dp1392
g54
(dp1393
sg63
g600
sg56
(lp1394
g49
(g70
g51
NtRp1395
(dp1396
g54
(dp1397
g74
g75
ssg63
g1391
sg56
(lp1398
S'wsgi_file_wrapper'
p1399
asbag49
(g70
g51
NtRp1400
(dp1401
g54
(dp1402
g81
g82
ssg63
g1391
sg56
(lp1403
S':'
asbag49
(g70
g51
NtRp1404
(dp1405
g54
(dp1406
sg63
g1391
sg56
(lp1407
g49
(g50
g51
NtRp1408
(dp1409
g54
(dp1410
g62
I4
ssg63
g1404
sg56
(lp1411
S'<class wsgiref.util.FileWrapper at 0x02E8DE10>'
p1412
asbasbasbag49
(g65
g51
NtRp1413
(dp1414
g54
(dp1415
sg63
g600
sg56
(lp1416
g49
(g70
g51
NtRp1417
(dp1418
g54
(dp1419
g74
g75
ssg63
g1413
sg56
(lp1420
S'wsgi_input'
p1421
asbag49
(g70
g51
NtRp1422
(dp1423
g54
(dp1424
g81
g82
ssg63
g1413
sg56
(lp1425
S':'
asbag49
(g70
g51
NtRp1426
(dp1427
g54
(dp1428
sg63
g1413
sg56
(lp1429
g49
(g50
g51
NtRp1430
(dp1431
g54
(dp1432
g62
I4
ssg63
g1426
sg56
(lp1433
S'<socket._fileobject object at 0x068CC170>'
p1434
asbasbasbag49
(g65
g51
NtRp1435
(dp1436
g54
(dp1437
sg63
g600
sg56
(lp1438
g49
(g70
g51
NtRp1439
(dp1440
g54
(dp1441
g74
g75
ssg63
g1435
sg56
(lp1442
S'wsgi_multiprocess'
p1443
asbag49
(g70
g51
NtRp1444
(dp1445
g54
(dp1446
g81
g82
ssg63
g1435
sg56
(lp1447
S':'
asbag49
(g70
g51
NtRp1448
(dp1449
g54
(dp1450
sg63
g1435
sg56
(lp1451
g49
(g50
g51
NtRp1452
(dp1453
g54
(dp1454
g62
I4
ssg63
g1448
sg56
(lp1455
g92
asbasbasbag49
(g65
g51
NtRp1456
(dp1457
g54
(dp1458
sg63
g600
sg56
(lp1459
g49
(g70
g51
NtRp1460
(dp1461
g54
(dp1462
g74
g75
ssg63
g1456
sg56
(lp1463
S'wsgi_multithread'
p1464
asbag49
(g70
g51
NtRp1465
(dp1466
g54
(dp1467
g81
g82
ssg63
g1456
sg56
(lp1468
S':'
asbag49
(g70
g51
NtRp1469
(dp1470
g54
(dp1471
sg63
g1456
sg56
(lp1472
g49
(g50
g51
NtRp1473
(dp1474
g54
(dp1475
g62
I4
ssg63
g1469
sg56
(lp1476
S'True'
p1477
asbasbasbag49
(g65
g51
NtRp1478
(dp1479
g54
(dp1480
sg63
g600
sg56
(lp1481
g49
(g70
g51
NtRp1482
(dp1483
g54
(dp1484
g74
g75
ssg63
g1478
sg56
(lp1485
S'wsgi_run_once'
p1486
asbag49
(g70
g51
NtRp1487
(dp1488
g54
(dp1489
g81
g82
ssg63
g1478
sg56
(lp1490
S':'
asbag49
(g70
g51
NtRp1491
(dp1492
g54
(dp1493
sg63
g1478
sg56
(lp1494
g49
(g50
g51
NtRp1495
(dp1496
g54
(dp1497
g62
I4
ssg63
g1491
sg56
(lp1498
g92
asbasbasbag49
(g65
g51
NtRp1499
(dp1500
g54
(dp1501
sg63
g600
sg56
(lp1502
g49
(g70
g51
NtRp1503
(dp1504
g54
(dp1505
g74
g75
ssg63
g1499
sg56
(lp1506
S'wsgi_url_scheme'
p1507
asbag49
(g70
g51
NtRp1508
(dp1509
g54
(dp1510
g81
g82
ssg63
g1499
sg56
(lp1511
S':'
asbag49
(g70
g51
NtRp1512
(dp1513
g54
(dp1514
sg63
g1499
sg56
(lp1515
g49
(g50
g51
NtRp1516
(dp1517
g54
(dp1518
g62
I4
ssg63
g1512
sg56
(lp1519
S'http'
p1520
asbasbasbag49
(g65
g51
NtRp1521
(dp1522
g54
(dp1523
sg63
g600
sg56
(lp1524
g49
(g70
g51
NtRp1525
(dp1526
g54
(dp1527
g74
g75
ssg63
g1521
sg56
(lp1528
S'wsgi_version'
p1529
asbag49
(g70
g51
NtRp1530
(dp1531
g54
(dp1532
g81
g82
ssg63
g1521
sg56
(lp1533
S':'
asbag49
(g70
g51
NtRp1534
(dp1535
g54
(dp1536
sg63
g1521
sg56
(lp1537
g49
(g50
g51
NtRp1538
(dp1539
g54
(dp1540
g62
I4
ssg63
g1534
sg56
(lp1541
g49
(g58
g51
NtRp1542
(dp1543
g54
(dp1544
g62
I3
ssg63
Nsg56
(lp1545
g49
(g65
g51
NtRp1546
(dp1547
g54
(dp1548
sg63
g1542
sg56
(lp1549
g49
(g70
g51
NtRp1550
(dp1551
g54
(dp1552
sg63
g1546
sg56
(lp1553
g49
(g50
g51
NtRp1554
(dp1555
g54
(dp1556
g62
I3
ssg63
g1550
sg56
(lp1557
S'1'
asbasbasbag49
(g65
g51
NtRp1558
(dp1559
g54
(dp1560
sg63
g1542
sg56
(lp1561
g49
(g70
g51
NtRp1562
(dp1563
g54
(dp1564
sg63
g1558
sg56
(lp1565
g49
(g50
g51
NtRp1566
(dp1567
g54
(dp1568
g62
I3
ssg63
g1562
sg56
(lp1569
S'0'
asbasbasbasbasbasbasbasbasbasbasbag49
(g65
g51
NtRp1570
(dp1571
g54
(dp1572
sg63
g59
sg56
(lp1573
g49
(g70
g51
NtRp1574
(dp1575
g54
(dp1576
g74
g75
ssg63
g1570
sg56
(lp1577
S'extension'
p1578
asbag49
(g70
g51
NtRp1579
(dp1580
g54
(dp1581
g81
g82
ssg63
g1570
sg56
(lp1582
S':'
asbag49
(g70
g51
NtRp1583
(dp1584
g54
(dp1585
sg63
g1570
sg56
(lp1586
g49
(g50
g51
NtRp1587
(dp1588
g54
(dp1589
g62
I5
ssg63
g1583
sg56
(lp1590
S'html'
p1591
asbasbasbag49
(g65
g51
NtRp1592
(dp1593
g54
(dp1594
sg63
g59
sg56
(lp1595
g49
(g70
g51
NtRp1596
(dp1597
g54
(dp1598
g74
g75
ssg63
g1592
sg56
(lp1599
S'folder'
p1600
asbag49
(g70
g51
NtRp1601
(dp1602
g54
(dp1603
g81
g82
ssg63
g1592
sg56
(lp1604
S':'
asbag49
(g70
g51
NtRp1605
(dp1606
g54
(dp1607
sg63
g1592
sg56
(lp1608
g49
(g50
g51
NtRp1609
(dp1610
g54
(dp1611
g62
I5
ssg63
g1605
sg56
(lp1612
S'C:\\web2py\\applications\\unioeste_code\\'
p1613
asbasbasbag49
(g65
g51
NtRp1614
(dp1615
g54
(dp1616
sg63
g59
sg56
(lp1617
g49
(g70
g51
NtRp1618
(dp1619
g54
(dp1620
g74
g75
ssg63
g1614
sg56
(lp1621
S'function'
p1622
asbag49
(g70
g51
NtRp1623
(dp1624
g54
(dp1625
g81
g82
ssg63
g1614
sg56
(lp1626
S':'
asbag49
(g70
g51
NtRp1627
(dp1628
g54
(dp1629
sg63
g1614
sg56
(lp1630
g49
(g50
g51
NtRp1631
(dp1632
g54
(dp1633
g62
I5
ssg63
g1627
sg56
(lp1634
S'Code'
p1635
asbasbasbag49
(g65
g51
NtRp1636
(dp1637
g54
(dp1638
sg63
g59
sg56
(lp1639
g49
(g70
g51
NtRp1640
(dp1641
g54
(dp1642
g74
g75
ssg63
g1636
sg56
(lp1643
S'get_vars'
p1644
asbag49
(g70
g51
NtRp1645
(dp1646
g54
(dp1647
g81
g82
ssg63
g1636
sg56
(lp1648
S':'
asbag49
(g70
g51
NtRp1649
(dp1650
g54
(dp1651
sg63
g1636
sg56
(lp1652
g49
(g50
g51
NtRp1653
(dp1654
g54
(dp1655
g62
I5
ssg63
g1649
sg56
(lp1656
g49
(g58
g51
NtRp1657
(dp1658
g54
(dp1659
g62
I4
ssg63
Nsg56
(lp1660
sbasbasbasbag49
(g65
g51
NtRp1661
(dp1662
g54
(dp1663
sg63
g59
sg56
(lp1664
g49
(g70
g51
NtRp1665
(dp1666
g54
(dp1667
g74
g75
ssg63
g1661
sg56
(lp1668
S'global_settings'
p1669
asbag49
(g70
g51
NtRp1670
(dp1671
g54
(dp1672
g81
g82
ssg63
g1661
sg56
(lp1673
S':'
asbag49
(g70
g51
NtRp1674
(dp1675
g54
(dp1676
sg63
g1661
sg56
(lp1677
g49
(g50
g51
NtRp1678
(dp1679
g54
(dp1680
g62
I5
ssg63
g1674
sg56
(lp1681
g49
(g58
g51
NtRp1682
(dp1683
g54
(dp1684
g62
I4
ssg63
Nsg56
(lp1685
g49
(g65
g51
NtRp1686
(dp1687
g54
(dp1688
sg63
g1682
sg56
(lp1689
g49
(g70
g51
NtRp1690
(dp1691
g54
(dp1692
g74
g75
ssg63
g1686
sg56
(lp1693
g612
asbag49
(g70
g51
NtRp1694
(dp1695
g54
(dp1696
g81
g82
ssg63
g1686
sg56
(lp1697
S':'
asbag49
(g70
g51
NtRp1698
(dp1699
g54
(dp1700
sg63
g1686
sg56
(lp1701
g49
(g50
g51
NtRp1702
(dp1703
g54
(dp1704
g62
I4
ssg63
g1698
sg56
(lp1705
S"set(['C:\\\\web2py\\\\applications\\\\admin\\\\', 'C:\\\\web2py\\\\applications\\\\welcome\\\\', 'C:\\\\web2py\\\\applications\\\\unioeste_code\\\\'])"
p1706
asbasbasbag49
(g65
g51
NtRp1707
(dp1708
g54
(dp1709
sg63
g1682
sg56
(lp1710
g49
(g70
g51
NtRp1711
(dp1712
g54
(dp1713
g74
g75
ssg63
g1707
sg56
(lp1714
g634
asbag49
(g70
g51
NtRp1715
(dp1716
g54
(dp1717
g81
g82
ssg63
g1707
sg56
(lp1718
S':'
asbag49
(g70
g51
NtRp1719
(dp1720
g54
(dp1721
sg63
g1707
sg56
(lp1722
g49
(g50
g51
NtRp1723
(dp1724
g54
(dp1725
g62
I4
ssg63
g1719
sg56
(lp1726
g647
asbasbasbag49
(g65
g51
NtRp1727
(dp1728
g54
(dp1729
sg63
g1682
sg56
(lp1730
g49
(g70
g51
NtRp1731
(dp1732
g54
(dp1733
g74
g75
ssg63
g1727
sg56
(lp1734
g656
asbag49
(g70
g51
NtRp1735
(dp1736
g54
(dp1737
g81
g82
ssg63
g1727
sg56
(lp1738
S':'
asbag49
(g70
g51
NtRp1739
(dp1740
g54
(dp1741
sg63
g1727
sg56
(lp1742
g49
(g50
g51
NtRp1743
(dp1744
g54
(dp1745
g62
I4
ssg63
g1739
sg56
(lp1746
g49
(g58
g51
NtRp1747
(dp1748
g54
(dp1749
g62
I3
ssg63
Nsg56
(lp1750
sbasbasbasbag49
(g65
g51
NtRp1751
(dp1752
g54
(dp1753
sg63
g1682
sg56
(lp1754
g49
(g70
g51
NtRp1755
(dp1756
g54
(dp1757
g74
g75
ssg63
g1751
sg56
(lp1758
g681
asbag49
(g70
g51
NtRp1759
(dp1760
g54
(dp1761
g81
g82
ssg63
g1751
sg56
(lp1762
S':'
asbag49
(g70
g51
NtRp1763
(dp1764
g54
(dp1765
sg63
g1751
sg56
(lp1766
g49
(g50
g51
NtRp1767
(dp1768
g54
(dp1769
g62
I4
ssg63
g1763
sg56
(lp1770
S"<Values at 0x309c300: {'verbose': False, 'ip': '127.0.0.1', 'shutdown_timeout': 5, 'taskbar': False, 'nocron': False, 'pid_filename': 'httpserver.pid', 'maxthreads': None, 'softcron': False, 'server_name': 'Pedro-PC', 'bpython': False, 'nogui': False, 'port': 8000, 'extcron': False, 'debuglevel': 30, 'test': None, 'folder': 'C:\\\\web2py', 'config': '', 'import_models': False, 'winservice': '', 'shell': None, 'run': '', 'log_filename': 'httpserver.log', 'args': [''], 'socket_timeout': 5, 'ssl_ca_certificate': None, 'scheduler': None, 'profiler_filename': None, 'ssl_private_key': '', 'password': '<ask>', 'request_queue_size': 5, 'ssl_certificate': '', 'cronjob': False, 'numthreads': None, 'quiet': False, 'interfaces': None, 'minthreads': None, 'timeout': 10, 'plain': False, 'nobanner': False}>"
p1771
asbasbasbag49
(g65
g51
NtRp1772
(dp1773
g54
(dp1774
sg63
g1682
sg56
(lp1775
g49
(g70
g51
NtRp1776
(dp1777
g54
(dp1778
g74
g75
ssg63
g1772
sg56
(lp1779
g703
asbag49
(g70
g51
NtRp1780
(dp1781
g54
(dp1782
g81
g82
ssg63
g1772
sg56
(lp1783
S':'
asbag49
(g70
g51
NtRp1784
(dp1785
g54
(dp1786
sg63
g1772
sg56
(lp1787
g49
(g50
g51
NtRp1788
(dp1789
g54
(dp1790
g62
I4
ssg63
g1784
sg56
(lp1791
S'set([])'
p1792
asbasbasbag49
(g65
g51
NtRp1793
(dp1794
g54
(dp1795
sg63
g1682
sg56
(lp1796
g49
(g70
g51
NtRp1797
(dp1798
g54
(dp1799
g74
g75
ssg63
g1793
sg56
(lp1800
g725
asbag49
(g70
g51
NtRp1801
(dp1802
g54
(dp1803
g81
g82
ssg63
g1793
sg56
(lp1804
S':'
asbag49
(g70
g51
NtRp1805
(dp1806
g54
(dp1807
sg63
g1793
sg56
(lp1808
g49
(g50
g51
NtRp1809
(dp1810
g54
(dp1811
g62
I4
ssg63
g1805
sg56
(lp1812
g92
asbasbasbag49
(g65
g51
NtRp1813
(dp1814
g54
(dp1815
sg63
g1682
sg56
(lp1816
g49
(g70
g51
NtRp1817
(dp1818
g54
(dp1819
g74
g75
ssg63
g1813
sg56
(lp1820
g746
asbag49
(g70
g51
NtRp1821
(dp1822
g54
(dp1823
g81
g82
ssg63
g1813
sg56
(lp1824
S':'
asbag49
(g70
g51
NtRp1825
(dp1826
g54
(dp1827
sg63
g1813
sg56
(lp1828
g49
(g50
g51
NtRp1829
(dp1830
g54
(dp1831
g62
I4
ssg63
g1825
sg56
(lp1832
g759
asbasbasbag49
(g65
g51
NtRp1833
(dp1834
g54
(dp1835
sg63
g1682
sg56
(lp1836
g49
(g70
g51
NtRp1837
(dp1838
g54
(dp1839
g74
g75
ssg63
g1833
sg56
(lp1840
g987
asbag49
(g70
g51
NtRp1841
(dp1842
g54
(dp1843
g81
g82
ssg63
g1833
sg56
(lp1844
S':'
asbag49
(g70
g51
NtRp1845
(dp1846
g54
(dp1847
sg63
g1833
sg56
(lp1848
g49
(g50
g51
NtRp1849
(dp1850
g54
(dp1851
g62
I4
ssg63
g1845
sg56
(lp1852
g92
asbasbasbag49
(g65
g51
NtRp1853
(dp1854
g54
(dp1855
sg63
g1682
sg56
(lp1856
g49
(g70
g51
NtRp1857
(dp1858
g54
(dp1859
g74
g75
ssg63
g1853
sg56
(lp1860
g1008
asbag49
(g70
g51
NtRp1861
(dp1862
g54
(dp1863
g81
g82
ssg63
g1853
sg56
(lp1864
S':'
asbag49
(g70
g51
NtRp1865
(dp1866
g54
(dp1867
sg63
g1853
sg56
(lp1868
g49
(g50
g51
NtRp1869
(dp1870
g54
(dp1871
g62
I4
ssg63
g1865
sg56
(lp1872
g92
asbasbasbag49
(g65
g51
NtRp1873
(dp1874
g54
(dp1875
sg63
g1682
sg56
(lp1876
g49
(g70
g51
NtRp1877
(dp1878
g54
(dp1879
g74
g75
ssg63
g1873
sg56
(lp1880
g1246
asbag49
(g70
g51
NtRp1881
(dp1882
g54
(dp1883
g81
g82
ssg63
g1873
sg56
(lp1884
S':'
asbag49
(g70
g51
NtRp1885
(dp1886
g54
(dp1887
sg63
g1873
sg56
(lp1888
g49
(g50
g51
NtRp1889
(dp1890
g54
(dp1891
g62
I4
ssg63
g1885
sg56
(lp1892
g1259
asbasbasbag49
(g65
g51
NtRp1893
(dp1894
g54
(dp1895
sg63
g1682
sg56
(lp1896
g49
(g70
g51
NtRp1897
(dp1898
g54
(dp1899
g74
g75
ssg63
g1893
sg56
(lp1900
g1289
asbag49
(g70
g51
NtRp1901
(dp1902
g54
(dp1903
g81
g82
ssg63
g1893
sg56
(lp1904
S':'
asbag49
(g70
g51
NtRp1905
(dp1906
g54
(dp1907
sg63
g1893
sg56
(lp1908
g49
(g50
g51
NtRp1909
(dp1910
g54
(dp1911
g62
I4
ssg63
g1905
sg56
(lp1912
g49
(g58
g51
NtRp1913
(dp1914
g54
(dp1915
g62
I3
ssg63
Nsg56
(lp1916
g49
(g65
g51
NtRp1917
(dp1918
g54
(dp1919
sg63
g1913
sg56
(lp1920
g49
(g70
g51
NtRp1921
(dp1922
g54
(dp1923
sg63
g1917
sg56
(lp1924
g49
(g50
g51
NtRp1925
(dp1926
g54
(dp1927
g62
I3
ssg63
g1921
sg56
(lp1928
S'1'
asbasbasbag49
(g65
g51
NtRp1929
(dp1930
g54
(dp1931
sg63
g1913
sg56
(lp1932
g49
(g70
g51
NtRp1933
(dp1934
g54
(dp1935
sg63
g1929
sg56
(lp1936
g49
(g50
g51
NtRp1937
(dp1938
g54
(dp1939
g62
I3
ssg63
g1933
sg56
(lp1940
S'99'
p1941
asbasbasbag49
(g65
g51
NtRp1942
(dp1943
g54
(dp1944
sg63
g1913
sg56
(lp1945
g49
(g70
g51
NtRp1946
(dp1947
g54
(dp1948
sg63
g1942
sg56
(lp1949
g49
(g50
g51
NtRp1950
(dp1951
g54
(dp1952
g62
I3
ssg63
g1946
sg56
(lp1953
S'7'
asbasbasbag49
(g65
g51
NtRp1954
(dp1955
g54
(dp1956
sg63
g1913
sg56
(lp1957
g49
(g70
g51
NtRp1958
(dp1959
g54
(dp1960
sg63
g1954
sg56
(lp1961
g49
(g50
g51
NtRp1962
(dp1963
g54
(dp1964
g62
I3
ssg63
g1958
sg56
(lp1965
S'datetime.datetime(2012, 3, 4, 22, 12, 8)'
p1966
asbasbasbag49
(g65
g51
NtRp1967
(dp1968
g54
(dp1969
sg63
g1913
sg56
(lp1970
g49
(g70
g51
NtRp1971
(dp1972
g54
(dp1973
sg63
g1967
sg56
(lp1974
g49
(g50
g51
NtRp1975
(dp1976
g54
(dp1977
g62
I3
ssg63
g1971
sg56
(lp1978
g1368
asbasbasbasbasbasbasbasbasbasbasbag49
(g65
g51
NtRp1979
(dp1980
g54
(dp1981
sg63
g59
sg56
(lp1982
g49
(g70
g51
NtRp1983
(dp1984
g54
(dp1985
g74
g75
ssg63
g1979
sg56
(lp1986
S'is_https'
p1987
asbag49
(g70
g51
NtRp1988
(dp1989
g54
(dp1990
g81
g82
ssg63
g1979
sg56
(lp1991
S':'
asbag49
(g70
g51
NtRp1992
(dp1993
g54
(dp1994
sg63
g1979
sg56
(lp1995
g49
(g50
g51
NtRp1996
(dp1997
g54
(dp1998
g62
I5
ssg63
g1992
sg56
(lp1999
g92
asbasbasbag49
(g65
g51
NtRp2000
(dp2001
g54
(dp2002
sg63
g59
sg56
(lp2003
g49
(g70
g51
NtRp2004
(dp2005
g54
(dp2006
g74
g75
ssg63
g2000
sg56
(lp2007
S'is_local'
p2008
asbag49
(g70
g51
NtRp2009
(dp2010
g54
(dp2011
g81
g82
ssg63
g2000
sg56
(lp2012
S':'
asbag49
(g70
g51
NtRp2013
(dp2014
g54
(dp2015
sg63
g2000
sg56
(lp2016
g49
(g50
g51
NtRp2017
(dp2018
g54
(dp2019
g62
I5
ssg63
g2013
sg56
(lp2020
g1477
asbasbasbag49
(g65
g51
NtRp2021
(dp2022
g54
(dp2023
sg63
g59
sg56
(lp2024
g49
(g70
g51
NtRp2025
(dp2026
g54
(dp2027
g74
g75
ssg63
g2021
sg56
(lp2028
S'is_restful'
p2029
asbag49
(g70
g51
NtRp2030
(dp2031
g54
(dp2032
g81
g82
ssg63
g2021
sg56
(lp2033
S':'
asbag49
(g70
g51
NtRp2034
(dp2035
g54
(dp2036
sg63
g2021
sg56
(lp2037
g49
(g50
g51
NtRp2038
(dp2039
g54
(dp2040
g62
I5
ssg63
g2034
sg56
(lp2041
g92
asbasbasbag49
(g65
g51
NtRp2042
(dp2043
g54
(dp2044
sg63
g59
sg56
(lp2045
g49
(g70
g51
NtRp2046
(dp2047
g54
(dp2048
g74
g75
ssg63
g2042
sg56
(lp2049
S'now'
p2050
asbag49
(g70
g51
NtRp2051
(dp2052
g54
(dp2053
g81
g82
ssg63
g2042
sg56
(lp2054
S':'
asbag49
(g70
g51
NtRp2055
(dp2056
g54
(dp2057
sg63
g2042
sg56
(lp2058
g49
(g50
g51
NtRp2059
(dp2060
g54
(dp2061
g62
I5
ssg63
g2055
sg56
(lp2062
S'datetime.datetime(2012, 7, 30, 1, 58, 19, 570000)'
p2063
asbasbasbag49
(g65
g51
NtRp2064
(dp2065
g54
(dp2066
sg63
g59
sg56
(lp2067
g49
(g70
g51
NtRp2068
(dp2069
g54
(dp2070
g74
g75
ssg63
g2064
sg56
(lp2071
S'post_vars'
p2072
asbag49
(g70
g51
NtRp2073
(dp2074
g54
(dp2075
g81
g82
ssg63
g2064
sg56
(lp2076
S':'
asbag49
(g70
g51
NtRp2077
(dp2078
g54
(dp2079
sg63
g2064
sg56
(lp2080
g49
(g50
g51
NtRp2081
(dp2082
g54
(dp2083
g62
I5
ssg63
g2077
sg56
(lp2084
g49
(g58
g51
NtRp2085
(dp2086
g54
(dp2087
g62
I4
ssg63
Nsg56
(lp2088
sbasbasbasbag49
(g65
g51
NtRp2089
(dp2090
g54
(dp2091
sg63
g59
sg56
(lp2092
g49
(g70
g51
NtRp2093
(dp2094
g54
(dp2095
g74
g75
ssg63
g2089
sg56
(lp2096
S'raw_args'
p2097
asbag49
(g70
g51
NtRp2098
(dp2099
g54
(dp2100
g81
g82
ssg63
g2089
sg56
(lp2101
S':'
asbag49
(g70
g51
NtRp2102
(dp2103
g54
(dp2104
sg63
g2089
sg56
(lp2105
g49
(g50
g51
NtRp2106
(dp2107
g54
(dp2108
g62
I5
ssg63
g2102
sg56
(lp2109
S'2'
asbasbasbag49
(g65
g51
NtRp2110
(dp2111
g54
(dp2112
sg63
g59
sg56
(lp2113
g49
(g70
g51
NtRp2114
(dp2115
g54
(dp2116
g74
g75
ssg63
g2110
sg56
(lp2117
S'url'
p2118
asbag49
(g70
g51
NtRp2119
(dp2120
g54
(dp2121
g81
g82
ssg63
g2110
sg56
(lp2122
S':'
asbag49
(g70
g51
NtRp2123
(dp2124
g54
(dp2125
sg63
g2110
sg56
(lp2126
g49
(g50
g51
NtRp2127
(dp2128
g54
(dp2129
g62
I5
ssg63
g2123
sg56
(lp2130
S'/unioeste_code/default/Code/2'
p2131
asbasbasbag49
(g65
g51
NtRp2132
(dp2133
g54
(dp2134
sg63
g59
sg56
(lp2135
g49
(g70
g51
NtRp2136
(dp2137
g54
(dp2138
g74
g75
ssg63
g2132
sg56
(lp2139
S'utcnow'
p2140
asbag49
(g70
g51
NtRp2141
(dp2142
g54
(dp2143
g81
g82
ssg63
g2132
sg56
(lp2144
S':'
asbag49
(g70
g51
NtRp2145
(dp2146
g54
(dp2147
sg63
g2132
sg56
(lp2148
g49
(g50
g51
NtRp2149
(dp2150
g54
(dp2151
g62
I5
ssg63
g2145
sg56
(lp2152
S'datetime.datetime(2012, 7, 30, 4, 58, 19, 570000)'
p2153
asbasbasbag49
(g65
g51
NtRp2154
(dp2155
g54
(dp2156
sg63
g59
sg56
(lp2157
g49
(g70
g51
NtRp2158
(dp2159
g54
(dp2160
g74
g75
ssg63
g2154
sg56
(lp2161
S'uuid'
p2162
asbag49
(g70
g51
NtRp2163
(dp2164
g54
(dp2165
g81
g82
ssg63
g2154
sg56
(lp2166
S':'
asbag49
(g70
g51
NtRp2167
(dp2168
g54
(dp2169
sg63
g2154
sg56
(lp2170
g49
(g50
g51
NtRp2171
(dp2172
g54
(dp2173
g62
I5
ssg63
g2167
sg56
(lp2174
S'unioeste_code/127.0.0.1.2012-07-30.01-58-19.3a83a3c3-ecaf-4ada-98a5-c3633817664c'
p2175
asbasbasbag49
(g65
g51
NtRp2176
(dp2177
g54
(dp2178
sg63
g59
sg56
(lp2179
g49
(g70
g51
NtRp2180
(dp2181
g54
(dp2182
g74
g75
ssg63
g2176
sg56
(lp2183
S'vars'
p2184
asbag49
(g70
g51
NtRp2185
(dp2186
g54
(dp2187
g81
g82
ssg63
g2176
sg56
(lp2188
S':'
asbag49
(g70
g51
NtRp2189
(dp2190
g54
(dp2191
sg63
g2176
sg56
(lp2192
g49
(g50
g51
NtRp2193
(dp2194
g54
(dp2195
g62
I5
ssg63
g2189
sg56
(lp2196
g49
(g58
g51
NtRp2197
(dp2198
g54
(dp2199
g62
I4
ssg63
Nsg56
(lp2200
sbasbasbasbag49
(g65
g51
NtRp2201
(dp2202
g54
(dp2203
sg63
g59
sg56
(lp2204
g49
(g70
g51
NtRp2205
(dp2206
g54
(dp2207
g74
g75
ssg63
g2201
sg56
(lp2208
S'wsgi'
p2209
asbag49
(g70
g51
NtRp2210
(dp2211
g54
(dp2212
g81
g82
ssg63
g2201
sg56
(lp2213
S':'
asbag49
(g70
g51
NtRp2214
(dp2215
g54
(dp2216
sg63
g2201
sg56
(lp2217
g49
(g50
g51
NtRp2218
(dp2219
g54
(dp2220
g62
I5
ssg63
g2214
sg56
(lp2221
g49
(g58
g51
NtRp2222
(dp2223
g54
(dp2224
g62
I4
ssg63
Nsg56
(lp2225
g49
(g65
g51
NtRp2226
(dp2227
g54
(dp2228
sg63
g2222
sg56
(lp2229
g49
(g70
g51
NtRp2230
(dp2231
g54
(dp2232
g74
g75
ssg63
g2226
sg56
(lp2233
S'environ'
p2234
asbag49
(g70
g51
NtRp2235
(dp2236
g54
(dp2237
g81
g82
ssg63
g2226
sg56
(lp2238
S':'
asbag49
(g70
g51
NtRp2239
(dp2240
g54
(dp2241
sg63
g2226
sg56
(lp2242
g49
(g50
g51
NtRp2243
(dp2244
g54
(dp2245
g62
I4
ssg63
g2239
sg56
(lp2246
g49
(g58
g51
NtRp2247
(dp2248
g54
(dp2249
g62
I3
ssg63
Nsg56
(lp2250
g49
(g65
g51
NtRp2251
(dp2252
g54
(dp2253
sg63
g2247
sg56
(lp2254
g49
(g70
g51
NtRp2255
(dp2256
g54
(dp2257
g74
g75
ssg63
g2251
sg56
(lp2258
S'HTTP_ACCEPT'
p2259
asbag49
(g70
g51
NtRp2260
(dp2261
g54
(dp2262
g81
g82
ssg63
g2251
sg56
(lp2263
S':'
asbag49
(g70
g51
NtRp2264
(dp2265
g54
(dp2266
sg63
g2251
sg56
(lp2267
g49
(g50
g51
NtRp2268
(dp2269
g54
(dp2270
g62
I3
ssg63
g2264
sg56
(lp2271
g781
asbasbasbag49
(g65
g51
NtRp2272
(dp2273
g54
(dp2274
sg63
g2247
sg56
(lp2275
g49
(g70
g51
NtRp2276
(dp2277
g54
(dp2278
g74
g75
ssg63
g2272
sg56
(lp2279
S'HTTP_ACCEPT_CHARSET'
p2280
asbag49
(g70
g51
NtRp2281
(dp2282
g54
(dp2283
g81
g82
ssg63
g2272
sg56
(lp2284
S':'
asbag49
(g70
g51
NtRp2285
(dp2286
g54
(dp2287
sg63
g2272
sg56
(lp2288
g49
(g50
g51
NtRp2289
(dp2290
g54
(dp2291
g62
I3
ssg63
g2285
sg56
(lp2292
g803
asbasbasbag49
(g65
g51
NtRp2293
(dp2294
g54
(dp2295
sg63
g2247
sg56
(lp2296
g49
(g70
g51
NtRp2297
(dp2298
g54
(dp2299
g74
g75
ssg63
g2293
sg56
(lp2300
S'HTTP_ACCEPT_ENCODING'
p2301
asbag49
(g70
g51
NtRp2302
(dp2303
g54
(dp2304
g81
g82
ssg63
g2293
sg56
(lp2305
S':'
asbag49
(g70
g51
NtRp2306
(dp2307
g54
(dp2308
sg63
g2293
sg56
(lp2309
g49
(g50
g51
NtRp2310
(dp2311
g54
(dp2312
g62
I3
ssg63
g2306
sg56
(lp2313
g825
asbasbasbag49
(g65
g51
NtRp2314
(dp2315
g54
(dp2316
sg63
g2247
sg56
(lp2317
g49
(g70
g51
NtRp2318
(dp2319
g54
(dp2320
g74
g75
ssg63
g2314
sg56
(lp2321
S'HTTP_ACCEPT_LANGUAGE'
p2322
asbag49
(g70
g51
NtRp2323
(dp2324
g54
(dp2325
g81
g82
ssg63
g2314
sg56
(lp2326
S':'
asbag49
(g70
g51
NtRp2327
(dp2328
g54
(dp2329
sg63
g2314
sg56
(lp2330
g49
(g50
g51
NtRp2331
(dp2332
g54
(dp2333
g62
I3
ssg63
g2327
sg56
(lp2334
g847
asbasbasbag49
(g65
g51
NtRp2335
(dp2336
g54
(dp2337
sg63
g2247
sg56
(lp2338
g49
(g70
g51
NtRp2339
(dp2340
g54
(dp2341
g74
g75
ssg63
g2335
sg56
(lp2342
S'HTTP_CACHE_CONTROL'
p2343
asbag49
(g70
g51
NtRp2344
(dp2345
g54
(dp2346
g81
g82
ssg63
g2335
sg56
(lp2347
S':'
asbag49
(g70
g51
NtRp2348
(dp2349
g54
(dp2350
sg63
g2335
sg56
(lp2351
g49
(g50
g51
NtRp2352
(dp2353
g54
(dp2354
g62
I3
ssg63
g2348
sg56
(lp2355
g869
asbasbasbag49
(g65
g51
NtRp2356
(dp2357
g54
(dp2358
sg63
g2247
sg56
(lp2359
g49
(g70
g51
NtRp2360
(dp2361
g54
(dp2362
g74
g75
ssg63
g2356
sg56
(lp2363
S'HTTP_CONNECTION'
p2364
asbag49
(g70
g51
NtRp2365
(dp2366
g54
(dp2367
g81
g82
ssg63
g2356
sg56
(lp2368
S':'
asbag49
(g70
g51
NtRp2369
(dp2370
g54
(dp2371
sg63
g2356
sg56
(lp2372
g49
(g50
g51
NtRp2373
(dp2374
g54
(dp2375
g62
I3
ssg63
g2369
sg56
(lp2376
g891
asbasbasbag49
(g65
g51
NtRp2377
(dp2378
g54
(dp2379
sg63
g2247
sg56
(lp2380
g49
(g70
g51
NtRp2381
(dp2382
g54
(dp2383
g74
g75
ssg63
g2377
sg56
(lp2384
S'HTTP_COOKIE'
p2385
asbag49
(g70
g51
NtRp2386
(dp2387
g54
(dp2388
g81
g82
ssg63
g2377
sg56
(lp2389
S':'
asbag49
(g70
g51
NtRp2390
(dp2391
g54
(dp2392
sg63
g2377
sg56
(lp2393
g49
(g50
g51
NtRp2394
(dp2395
g54
(dp2396
g62
I3
ssg63
g2390
sg56
(lp2397
g913
asbasbasbag49
(g65
g51
NtRp2398
(dp2399
g54
(dp2400
sg63
g2247
sg56
(lp2401
g49
(g70
g51
NtRp2402
(dp2403
g54
(dp2404
g74
g75
ssg63
g2398
sg56
(lp2405
S'HTTP_DNT'
p2406
asbag49
(g70
g51
NtRp2407
(dp2408
g54
(dp2409
g81
g82
ssg63
g2398
sg56
(lp2410
S':'
asbag49
(g70
g51
NtRp2411
(dp2412
g54
(dp2413
sg63
g2398
sg56
(lp2414
g49
(g50
g51
NtRp2415
(dp2416
g54
(dp2417
g62
I3
ssg63
g2411
sg56
(lp2418
S'1'
asbasbasbag49
(g65
g51
NtRp2419
(dp2420
g54
(dp2421
sg63
g2247
sg56
(lp2422
g49
(g70
g51
NtRp2423
(dp2424
g54
(dp2425
g74
g75
ssg63
g2419
sg56
(lp2426
S'HTTP_HOST'
p2427
asbag49
(g70
g51
NtRp2428
(dp2429
g54
(dp2430
g81
g82
ssg63
g2419
sg56
(lp2431
S':'
asbag49
(g70
g51
NtRp2432
(dp2433
g54
(dp2434
sg63
g2419
sg56
(lp2435
g49
(g50
g51
NtRp2436
(dp2437
g54
(dp2438
g62
I3
ssg63
g2432
sg56
(lp2439
g956
asbasbasbag49
(g65
g51
NtRp2440
(dp2441
g54
(dp2442
sg63
g2247
sg56
(lp2443
g49
(g70
g51
NtRp2444
(dp2445
g54
(dp2446
g74
g75
ssg63
g2440
sg56
(lp2447
S'HTTP_USER_AGENT'
p2448
asbag49
(g70
g51
NtRp2449
(dp2450
g54
(dp2451
g81
g82
ssg63
g2440
sg56
(lp2452
S':'
asbag49
(g70
g51
NtRp2453
(dp2454
g54
(dp2455
sg63
g2440
sg56
(lp2456
g49
(g50
g51
NtRp2457
(dp2458
g54
(dp2459
g62
I3
ssg63
g2453
sg56
(lp2460
g978
asbasbasbag49
(g65
g51
NtRp2461
(dp2462
g54
(dp2463
sg63
g2247
sg56
(lp2464
g49
(g70
g51
NtRp2465
(dp2466
g54
(dp2467
g74
g75
ssg63
g2461
sg56
(lp2468
S'PATH_INFO'
p2469
asbag49
(g70
g51
NtRp2470
(dp2471
g54
(dp2472
g81
g82
ssg63
g2461
sg56
(lp2473
S':'
asbag49
(g70
g51
NtRp2474
(dp2475
g54
(dp2476
sg63
g2461
sg56
(lp2477
g49
(g50
g51
NtRp2478
(dp2479
g54
(dp2480
g62
I3
ssg63
g2474
sg56
(lp2481
g1042
asbasbasbag49
(g65
g51
NtRp2482
(dp2483
g54
(dp2484
sg63
g2247
sg56
(lp2485
g49
(g70
g51
NtRp2486
(dp2487
g54
(dp2488
g74
g75
ssg63
g2482
sg56
(lp2489
S'QUERY_STRING'
p2490
asbag49
(g70
g51
NtRp2491
(dp2492
g54
(dp2493
g81
g82
ssg63
g2482
sg56
(lp2494
S':'
asbag49
(g70
g51
NtRp2495
(dp2496
g54
(dp2497
sg63
g2482
sg56
(lp2498
g49
(g50
g51
NtRp2499
(dp2500
g54
(dp2501
g62
I3
ssg63
g2495
sg56
(lp2502
S''
asbasbasbag49
(g65
g51
NtRp2503
(dp2504
g54
(dp2505
sg63
g2247
sg56
(lp2506
g49
(g70
g51
NtRp2507
(dp2508
g54
(dp2509
g74
g75
ssg63
g2503
sg56
(lp2510
S'REMOTE_ADDR'
p2511
asbag49
(g70
g51
NtRp2512
(dp2513
g54
(dp2514
g81
g82
ssg63
g2503
sg56
(lp2515
S':'
asbag49
(g70
g51
NtRp2516
(dp2517
g54
(dp2518
sg63
g2503
sg56
(lp2519
g49
(g50
g51
NtRp2520
(dp2521
g54
(dp2522
g62
I3
ssg63
g2516
sg56
(lp2523
g194
asbasbasbag49
(g65
g51
NtRp2524
(dp2525
g54
(dp2526
sg63
g2247
sg56
(lp2527
g49
(g70
g51
NtRp2528
(dp2529
g54
(dp2530
g74
g75
ssg63
g2524
sg56
(lp2531
S'REMOTE_PORT'
p2532
asbag49
(g70
g51
NtRp2533
(dp2534
g54
(dp2535
g81
g82
ssg63
g2524
sg56
(lp2536
S':'
asbag49
(g70
g51
NtRp2537
(dp2538
g54
(dp2539
sg63
g2524
sg56
(lp2540
g49
(g50
g51
NtRp2541
(dp2542
g54
(dp2543
g62
I3
ssg63
g2537
sg56
(lp2544
g1106
asbasbasbag49
(g65
g51
NtRp2545
(dp2546
g54
(dp2547
sg63
g2247
sg56
(lp2548
g49
(g70
g51
NtRp2549
(dp2550
g54
(dp2551
g74
g75
ssg63
g2545
sg56
(lp2552
S'REQUEST_METHOD'
p2553
asbag49
(g70
g51
NtRp2554
(dp2555
g54
(dp2556
g81
g82
ssg63
g2545
sg56
(lp2557
S':'
asbag49
(g70
g51
NtRp2558
(dp2559
g54
(dp2560
sg63
g2545
sg56
(lp2561
g49
(g50
g51
NtRp2562
(dp2563
g54
(dp2564
g62
I3
ssg63
g2558
sg56
(lp2565
g1128
asbasbasbag49
(g65
g51
NtRp2566
(dp2567
g54
(dp2568
sg63
g2247
sg56
(lp2569
g49
(g70
g51
NtRp2570
(dp2571
g54
(dp2572
g74
g75
ssg63
g2566
sg56
(lp2573
S'SCRIPT_NAME'
p2574
asbag49
(g70
g51
NtRp2575
(dp2576
g54
(dp2577
g81
g82
ssg63
g2566
sg56
(lp2578
S':'
asbag49
(g70
g51
NtRp2579
(dp2580
g54
(dp2581
sg63
g2566
sg56
(lp2582
g49
(g50
g51
NtRp2583
(dp2584
g54
(dp2585
g62
I3
ssg63
g2579
sg56
(lp2586
S''
asbasbasbag49
(g65
g51
NtRp2587
(dp2588
g54
(dp2589
sg63
g2247
sg56
(lp2590
g49
(g70
g51
NtRp2591
(dp2592
g54
(dp2593
g74
g75
ssg63
g2587
sg56
(lp2594
S'SERVER_NAME'
p2595
asbag49
(g70
g51
NtRp2596
(dp2597
g54
(dp2598
g81
g82
ssg63
g2587
sg56
(lp2599
S':'
asbag49
(g70
g51
NtRp2600
(dp2601
g54
(dp2602
sg63
g2587
sg56
(lp2603
g49
(g50
g51
NtRp2604
(dp2605
g54
(dp2606
g62
I3
ssg63
g2600
sg56
(lp2607
g1171
asbasbasbag49
(g65
g51
NtRp2608
(dp2609
g54
(dp2610
sg63
g2247
sg56
(lp2611
g49
(g70
g51
NtRp2612
(dp2613
g54
(dp2614
g74
g75
ssg63
g2608
sg56
(lp2615
S'SERVER_PORT'
p2616
asbag49
(g70
g51
NtRp2617
(dp2618
g54
(dp2619
g81
g82
ssg63
g2608
sg56
(lp2620
S':'
asbag49
(g70
g51
NtRp2621
(dp2622
g54
(dp2623
sg63
g2608
sg56
(lp2624
g49
(g50
g51
NtRp2625
(dp2626
g54
(dp2627
g62
I3
ssg63
g2621
sg56
(lp2628
g1193
asbasbasbag49
(g65
g51
NtRp2629
(dp2630
g54
(dp2631
sg63
g2247
sg56
(lp2632
g49
(g70
g51
NtRp2633
(dp2634
g54
(dp2635
g74
g75
ssg63
g2629
sg56
(lp2636
S'SERVER_PROTOCOL'
p2637
asbag49
(g70
g51
NtRp2638
(dp2639
g54
(dp2640
g81
g82
ssg63
g2629
sg56
(lp2641
S':'
asbag49
(g70
g51
NtRp2642
(dp2643
g54
(dp2644
sg63
g2629
sg56
(lp2645
g49
(g50
g51
NtRp2646
(dp2647
g54
(dp2648
g62
I3
ssg63
g2642
sg56
(lp2649
g1215
asbasbasbag49
(g65
g51
NtRp2650
(dp2651
g54
(dp2652
sg63
g2247
sg56
(lp2653
g49
(g70
g51
NtRp2654
(dp2655
g54
(dp2656
g74
g75
ssg63
g2650
sg56
(lp2657
S'SERVER_SOFTWARE'
p2658
asbag49
(g70
g51
NtRp2659
(dp2660
g54
(dp2661
g81
g82
ssg63
g2650
sg56
(lp2662
S':'
asbag49
(g70
g51
NtRp2663
(dp2664
g54
(dp2665
sg63
g2650
sg56
(lp2666
g49
(g50
g51
NtRp2667
(dp2668
g54
(dp2669
g62
I3
ssg63
g2663
sg56
(lp2670
g1237
asbasbasbag49
(g65
g51
NtRp2671
(dp2672
g54
(dp2673
sg63
g2247
sg56
(lp2674
g49
(g70
g51
NtRp2675
(dp2676
g54
(dp2677
g74
g75
ssg63
g2671
sg56
(lp2678
S'wsgi.errors'
p2679
asbag49
(g70
g51
NtRp2680
(dp2681
g54
(dp2682
g81
g82
ssg63
g2671
sg56
(lp2683
S':'
asbag49
(g70
g51
NtRp2684
(dp2685
g54
(dp2686
sg63
g2671
sg56
(lp2687
g49
(g50
g51
NtRp2688
(dp2689
g54
(dp2690
g62
I3
ssg63
g2684
sg56
(lp2691
S'<__main__.Stderr object at 0x00486670>'
p2692
asbasbasbag49
(g65
g51
NtRp2693
(dp2694
g54
(dp2695
sg63
g2247
sg56
(lp2696
g49
(g70
g51
NtRp2697
(dp2698
g54
(dp2699
g74
g75
ssg63
g2693
sg56
(lp2700
S'wsgi.file_wrapper'
p2701
asbag49
(g70
g51
NtRp2702
(dp2703
g54
(dp2704
g81
g82
ssg63
g2693
sg56
(lp2705
S':'
asbag49
(g70
g51
NtRp2706
(dp2707
g54
(dp2708
sg63
g2693
sg56
(lp2709
g49
(g50
g51
NtRp2710
(dp2711
g54
(dp2712
g62
I3
ssg63
g2706
sg56
(lp2713
S'<class wsgiref.util.FileWrapper at 0x02E8DE10>'
p2714
asbasbasbag49
(g65
g51
NtRp2715
(dp2716
g54
(dp2717
sg63
g2247
sg56
(lp2718
g49
(g70
g51
NtRp2719
(dp2720
g54
(dp2721
g74
g75
ssg63
g2715
sg56
(lp2722
S'wsgi.input'
p2723
asbag49
(g70
g51
NtRp2724
(dp2725
g54
(dp2726
g81
g82
ssg63
g2715
sg56
(lp2727
S':'
asbag49
(g70
g51
NtRp2728
(dp2729
g54
(dp2730
sg63
g2715
sg56
(lp2731
g49
(g50
g51
NtRp2732
(dp2733
g54
(dp2734
g62
I3
ssg63
g2728
sg56
(lp2735
S'<cStringIO.StringO object at 0x069E49E0>'
p2736
asbasbasbag49
(g65
g51
NtRp2737
(dp2738
g54
(dp2739
sg63
g2247
sg56
(lp2740
g49
(g70
g51
NtRp2741
(dp2742
g54
(dp2743
g74
g75
ssg63
g2737
sg56
(lp2744
S'wsgi.multiprocess'
p2745
asbag49
(g70
g51
NtRp2746
(dp2747
g54
(dp2748
g81
g82
ssg63
g2737
sg56
(lp2749
S':'
asbag49
(g70
g51
NtRp2750
(dp2751
g54
(dp2752
sg63
g2737
sg56
(lp2753
g49
(g50
g51
NtRp2754
(dp2755
g54
(dp2756
g62
I3
ssg63
g2750
sg56
(lp2757
g92
asbasbasbag49
(g65
g51
NtRp2758
(dp2759
g54
(dp2760
sg63
g2247
sg56
(lp2761
g49
(g70
g51
NtRp2762
(dp2763
g54
(dp2764
g74
g75
ssg63
g2758
sg56
(lp2765
S'wsgi.multithread'
p2766
asbag49
(g70
g51
NtRp2767
(dp2768
g54
(dp2769
g81
g82
ssg63
g2758
sg56
(lp2770
S':'
asbag49
(g70
g51
NtRp2771
(dp2772
g54
(dp2773
sg63
g2758
sg56
(lp2774
g49
(g50
g51
NtRp2775
(dp2776
g54
(dp2777
g62
I3
ssg63
g2771
sg56
(lp2778
g1477
asbasbasbag49
(g65
g51
NtRp2779
(dp2780
g54
(dp2781
sg63
g2247
sg56
(lp2782
g49
(g70
g51
NtRp2783
(dp2784
g54
(dp2785
g74
g75
ssg63
g2779
sg56
(lp2786
S'wsgi.run_once'
p2787
asbag49
(g70
g51
NtRp2788
(dp2789
g54
(dp2790
g81
g82
ssg63
g2779
sg56
(lp2791
S':'
asbag49
(g70
g51
NtRp2792
(dp2793
g54
(dp2794
sg63
g2779
sg56
(lp2795
g49
(g50
g51
NtRp2796
(dp2797
g54
(dp2798
g62
I3
ssg63
g2792
sg56
(lp2799
g92
asbasbasbag49
(g65
g51
NtRp2800
(dp2801
g54
(dp2802
sg63
g2247
sg56
(lp2803
g49
(g70
g51
NtRp2804
(dp2805
g54
(dp2806
g74
g75
ssg63
g2800
sg56
(lp2807
S'wsgi.url_scheme'
p2808
asbag49
(g70
g51
NtRp2809
(dp2810
g54
(dp2811
g81
g82
ssg63
g2800
sg56
(lp2812
S':'
asbag49
(g70
g51
NtRp2813
(dp2814
g54
(dp2815
sg63
g2800
sg56
(lp2816
g49
(g50
g51
NtRp2817
(dp2818
g54
(dp2819
g62
I3
ssg63
g2813
sg56
(lp2820
g1520
asbasbasbag49
(g65
g51
NtRp2821
(dp2822
g54
(dp2823
sg63
g2247
sg56
(lp2824
g49
(g70
g51
NtRp2825
(dp2826
g54
(dp2827
g74
g75
ssg63
g2821
sg56
(lp2828
S'wsgi.version'
p2829
asbag49
(g70
g51
NtRp2830
(dp2831
g54
(dp2832
g81
g82
ssg63
g2821
sg56
(lp2833
S':'
asbag49
(g70
g51
NtRp2834
(dp2835
g54
(dp2836
sg63
g2821
sg56
(lp2837
g49
(g50
g51
NtRp2838
(dp2839
g54
(dp2840
g62
I3
ssg63
g2834
sg56
(lp2841
S'1'
asbasbasbasbasbasbasbasbasbasbasbasbasbsS'frames'
p2842
(lp2843
(dp2844
S'file'
p2845
S'C:\\web2py\\gluon\\restricted.py'
p2846
sS'dump'
p2847
(dp2848
sS'lnum'
p2849
I205
sS'lines'
p2850
(dp2851
sS'call'
p2852
S'(code="response.write(\' \', escape=False)\\nresponse.write...ponse.write(\'\\\\n</body>\\\\n</html>\\\\n\', escape=False)", environment={\'A\': <class \'gluon.html.A\'>, \'Auth\': <class \'gluon.tools.Auth\'>, \'B\': <class \'gluon.html.B\'>, \'BEAUTIFY\': <class \'gluon.html.BEAUTIFY\'>, \'BODY\': <class \'gluon.html.BODY\'>, \'BR\': <class \'gluon.html.BR\'>, \'BUTTON\': <class \'gluon.html.BUTTON\'>, \'CAT\': <class \'gluon.html.CAT\'>, \'CENTER\': <class \'gluon.html.CENTER\'>, \'CLEANUP\': <class \'gluon.validators.CLEANUP\'>, ...}, layer=r\'C:\\web2py\\applications\\unioeste_code\\views\\default/Code.html\')'
p2853
sS'func'
p2854
S'restricted'
p2855
sa(dp2856
g2845
S'C:\\web2py\\applications\\unioeste_code\\views\\default\\Code.html'
p2857
sg2847
(dp2858
sg2849
I103
sg2850
(dp2859
I96
S"response.write('\\r\\n\\r\\n', escape=False)"
p2860
sI97
S'for comment in comments:'
p2861
sI98
S"    response.write('\\r\\n', escape=False)"
p2862
sI99
S'    user = db(db.auth_user.id==comment.created_by).select().first()'
p2863
sI100
S"    response.write('\\r\\n', escape=False)"
p2864
sI101
S'    s = user.first_name + " " + user.last_name + " - (" + user.email + ")"'
p2865
sI102
S'    response.write(\'\\r\\n<div class="statusbar">\\r\\n\\t<p>\', escape=False)'
p2866
sI103
S'    response.write(base.shortUser(user))'
p2867
sI104
S'    response.write(prettydate(code.created_on))'
p2868
sI105
S"    response.write('</p>\\r\\n\\t', escape=False)"
p2869
sI106
S'    response.write(comment.body)'
p2870
sI107
S"    response.write('\\r\\n</div>\\r\\n', escape=False)"
p2871
sI108
S'    pass'
p2872
sI109
S"response.write('\\r\\n\\r\\n\\r\\n', escape=False)"
p2873
sI110
S'response.write(H2(T("Post your comment!")))'
p2874
sI111
S"response.write('\\r\\n', escape=False)"
p2875
sI112
S'response.write(form)'
p2876
sI113
S'response.write(\'\\r\\n\\r\\n\\r\\n\\r\\n\\r\\n<script type="text/javascript">\\r\\n      var editor = CodeMirror.fromTextArea(document.getElementById("code_body"), {\\r\\n        lineNumbers: true,\\r\\n        matchBrackets: true,\\r\\n        mode: "text/x-c++src",\\r\\n        reardOnly: true\\r\\n      });\\r\\n</script>\\r\\n\\r\\n\', escape=False)'
p2877
sI94
S"response.write('\\r\\n</textarea>\\r\\n\\r\\n', escape=False)"
p2878
sI95
S'response.write(H3(T("Comments"), _style="color:green"))'
p2879
ssg2852
S'()'
p2880
sg2854
S'<module>'
p2881
sasS'pyver'
p2882
S'Python 2.5.4: C:\\web2py\\web2py_no_console.exe'
p2883
sS'session'
p2884
g49
(g50
g51
NtRp2885
(dp2886
g54
(dp2887
sg56
(lp2888
g49
(g58
g51
NtRp2889
(dp2890
g54
(dp2891
g62
I5
ssg63
Nsg56
(lp2892
g49
(g65
g51
NtRp2893
(dp2894
g54
(dp2895
sg63
g2889
sg56
(lp2896
g49
(g70
g51
NtRp2897
(dp2898
g54
(dp2899
g74
g75
ssg63
g2893
sg56
(lp2900
S'auth'
p2901
asbag49
(g70
g51
NtRp2902
(dp2903
g54
(dp2904
g81
g82
ssg63
g2893
sg56
(lp2905
S':'
asbag49
(g70
g51
NtRp2906
(dp2907
g54
(dp2908
sg63
g2893
sg56
(lp2909
g49
(g50
g51
NtRp2910
(dp2911
g54
(dp2912
g62
I5
ssg63
g2906
sg56
(lp2913
g49
(g58
g51
NtRp2914
(dp2915
g54
(dp2916
g62
I4
ssg63
Nsg56
(lp2917
g49
(g65
g51
NtRp2918
(dp2919
g54
(dp2920
sg63
g2914
sg56
(lp2921
g49
(g70
g51
NtRp2922
(dp2923
g54
(dp2924
g74
g75
ssg63
g2918
sg56
(lp2925
S'expiration'
p2926
asbag49
(g70
g51
NtRp2927
(dp2928
g54
(dp2929
g81
g82
ssg63
g2918
sg56
(lp2930
S':'
asbag49
(g70
g51
NtRp2931
(dp2932
g54
(dp2933
sg63
g2918
sg56
(lp2934
g49
(g50
g51
NtRp2935
(dp2936
g54
(dp2937
g62
I4
ssg63
g2931
sg56
(lp2938
S'3600'
p2939
asbasbasbag49
(g65
g51
NtRp2940
(dp2941
g54
(dp2942
sg63
g2914
sg56
(lp2943
g49
(g70
g51
NtRp2944
(dp2945
g54
(dp2946
g74
g75
ssg63
g2940
sg56
(lp2947
S'hmac_key'
p2948
asbag49
(g70
g51
NtRp2949
(dp2950
g54
(dp2951
g81
g82
ssg63
g2940
sg56
(lp2952
S':'
asbag49
(g70
g51
NtRp2953
(dp2954
g54
(dp2955
sg63
g2940
sg56
(lp2956
g49
(g50
g51
NtRp2957
(dp2958
g54
(dp2959
g62
I4
ssg63
g2953
sg56
(lp2960
S'995a0c66-3f99-485b-9dcd-26805f1668c1'
p2961
asbasbasbag49
(g65
g51
NtRp2962
(dp2963
g54
(dp2964
sg63
g2914
sg56
(lp2965
g49
(g70
g51
NtRp2966
(dp2967
g54
(dp2968
g74
g75
ssg63
g2962
sg56
(lp2969
S'last_visit'
p2970
asbag49
(g70
g51
NtRp2971
(dp2972
g54
(dp2973
g81
g82
ssg63
g2962
sg56
(lp2974
S':'
asbag49
(g70
g51
NtRp2975
(dp2976
g54
(dp2977
sg63
g2962
sg56
(lp2978
g49
(g50
g51
NtRp2979
(dp2980
g54
(dp2981
g62
I4
ssg63
g2975
sg56
(lp2982
S'datetime.datetime(2012, 7, 30, 1, 56, 44, 272000)'
p2983
asbasbasbag49
(g65
g51
NtRp2984
(dp2985
g54
(dp2986
sg63
g2914
sg56
(lp2987
g49
(g70
g51
NtRp2988
(dp2989
g54
(dp2990
g74
g75
ssg63
g2984
sg56
(lp2991
S'remember'
p2992
asbag49
(g70
g51
NtRp2993
(dp2994
g54
(dp2995
g81
g82
ssg63
g2984
sg56
(lp2996
S':'
asbag49
(g70
g51
NtRp2997
(dp2998
g54
(dp2999
sg63
g2984
sg56
(lp3000
g49
(g50
g51
NtRp3001
(dp3002
g54
(dp3003
g62
I4
ssg63
g2997
sg56
(lp3004
g92
asbasbasbag49
(g65
g51
NtRp3005
(dp3006
g54
(dp3007
sg63
g2914
sg56
(lp3008
g49
(g70
g51
NtRp3009
(dp3010
g54
(dp3011
g74
g75
ssg63
g3005
sg56
(lp3012
S'user'
p3013
asbag49
(g70
g51
NtRp3014
(dp3015
g54
(dp3016
g81
g82
ssg63
g3005
sg56
(lp3017
S':'
asbag49
(g70
g51
NtRp3018
(dp3019
g54
(dp3020
sg63
g3005
sg56
(lp3021
g49
(g50
g51
NtRp3022
(dp3023
g54
(dp3024
g62
I4
ssg63
g3018
sg56
(lp3025
g49
(g58
g51
NtRp3026
(dp3027
g54
(dp3028
g62
I3
ssg63
Nsg56
(lp3029
g49
(g65
g51
NtRp3030
(dp3031
g54
(dp3032
sg63
g3026
sg56
(lp3033
g49
(g70
g51
NtRp3034
(dp3035
g54
(dp3036
g74
g75
ssg63
g3030
sg56
(lp3037
S'email'
p3038
asbag49
(g70
g51
NtRp3039
(dp3040
g54
(dp3041
g81
g82
ssg63
g3030
sg56
(lp3042
S':'
asbag49
(g70
g51
NtRp3043
(dp3044
g54
(dp3045
sg63
g3030
sg56
(lp3046
g49
(g50
g51
NtRp3047
(dp3048
g54
(dp3049
g62
I3
ssg63
g3043
sg56
(lp3050
S'scmirror1@gmail.com'
p3051
asbasbasbag49
(g65
g51
NtRp3052
(dp3053
g54
(dp3054
sg63
g3026
sg56
(lp3055
g49
(g70
g51
NtRp3056
(dp3057
g54
(dp3058
g74
g75
ssg63
g3052
sg56
(lp3059
S'first_name'
p3060
asbag49
(g70
g51
NtRp3061
(dp3062
g54
(dp3063
g81
g82
ssg63
g3052
sg56
(lp3064
S':'
asbag49
(g70
g51
NtRp3065
(dp3066
g54
(dp3067
sg63
g3052
sg56
(lp3068
g49
(g50
g51
NtRp3069
(dp3070
g54
(dp3071
g62
I3
ssg63
g3065
sg56
(lp3072
S'Pedro'
p3073
asbasbasbag49
(g65
g51
NtRp3074
(dp3075
g54
(dp3076
sg63
g3026
sg56
(lp3077
g49
(g70
g51
NtRp3078
(dp3079
g54
(dp3080
g74
g75
ssg63
g3074
sg56
(lp3081
S'id'
p3082
asbag49
(g70
g51
NtRp3083
(dp3084
g54
(dp3085
g81
g82
ssg63
g3074
sg56
(lp3086
S':'
asbag49
(g70
g51
NtRp3087
(dp3088
g54
(dp3089
sg63
g3074
sg56
(lp3090
g49
(g50
g51
NtRp3091
(dp3092
g54
(dp3093
g62
I3
ssg63
g3087
sg56
(lp3094
S'1'
asbasbasbag49
(g65
g51
NtRp3095
(dp3096
g54
(dp3097
sg63
g3026
sg56
(lp3098
g49
(g70
g51
NtRp3099
(dp3100
g54
(dp3101
g74
g75
ssg63
g3095
sg56
(lp3102
S'last_name'
p3103
asbag49
(g70
g51
NtRp3104
(dp3105
g54
(dp3106
g81
g82
ssg63
g3095
sg56
(lp3107
S':'
asbag49
(g70
g51
NtRp3108
(dp3109
g54
(dp3110
sg63
g3095
sg56
(lp3111
g49
(g50
g51
NtRp3112
(dp3113
g54
(dp3114
g62
I3
ssg63
g3108
sg56
(lp3115
S'Lacerda'
p3116
asbasbasbag49
(g65
g51
NtRp3117
(dp3118
g54
(dp3119
sg63
g3026
sg56
(lp3120
g49
(g70
g51
NtRp3121
(dp3122
g54
(dp3123
g74
g75
ssg63
g3117
sg56
(lp3124
S'password'
p3125
asbag49
(g70
g51
NtRp3126
(dp3127
g54
(dp3128
g81
g82
ssg63
g3117
sg56
(lp3129
S':'
asbag49
(g70
g51
NtRp3130
(dp3131
g54
(dp3132
sg63
g3117
sg56
(lp3133
g49
(g50
g51
NtRp3134
(dp3135
g54
(dp3136
g62
I3
ssg63
g3130
sg56
(lp3137
S'4297f44b13955235245b2497399d7a93'
p3138
asbasbasbag49
(g65
g51
NtRp3139
(dp3140
g54
(dp3141
sg63
g3026
sg56
(lp3142
g49
(g70
g51
NtRp3143
(dp3144
g54
(dp3145
g74
g75
ssg63
g3139
sg56
(lp3146
S'registration_id'
p3147
asbag49
(g70
g51
NtRp3148
(dp3149
g54
(dp3150
g81
g82
ssg63
g3139
sg56
(lp3151
S':'
asbag49
(g70
g51
NtRp3152
(dp3153
g54
(dp3154
sg63
g3139
sg56
(lp3155
g49
(g50
g51
NtRp3156
(dp3157
g54
(dp3158
g62
I3
ssg63
g3152
sg56
(lp3159
S''
asbasbasbag49
(g65
g51
NtRp3160
(dp3161
g54
(dp3162
sg63
g3026
sg56
(lp3163
g49
(g70
g51
NtRp3164
(dp3165
g54
(dp3166
g74
g75
ssg63
g3160
sg56
(lp3167
S'registration_key'
p3168
asbag49
(g70
g51
NtRp3169
(dp3170
g54
(dp3171
g81
g82
ssg63
g3160
sg56
(lp3172
S':'
asbag49
(g70
g51
NtRp3173
(dp3174
g54
(dp3175
sg63
g3160
sg56
(lp3176
g49
(g50
g51
NtRp3177
(dp3178
g54
(dp3179
g62
I3
ssg63
g3173
sg56
(lp3180
S''
asbasbasbag49
(g65
g51
NtRp3181
(dp3182
g54
(dp3183
sg63
g3026
sg56
(lp3184
g49
(g70
g51
NtRp3185
(dp3186
g54
(dp3187
g74
g75
ssg63
g3181
sg56
(lp3188
S'reset_password_key'
p3189
asbag49
(g70
g51
NtRp3190
(dp3191
g54
(dp3192
g81
g82
ssg63
g3181
sg56
(lp3193
S':'
asbag49
(g70
g51
NtRp3194
(dp3195
g54
(dp3196
sg63
g3181
sg56
(lp3197
g49
(g50
g51
NtRp3198
(dp3199
g54
(dp3200
g62
I3
ssg63
g3194
sg56
(lp3201
S''
asbasbasbasbasbasbasbag49
(g65
g51
NtRp3202
(dp3203
g54
(dp3204
sg63
g2914
sg56
(lp3205
g49
(g70
g51
NtRp3206
(dp3207
g54
(dp3208
g74
g75
ssg63
g3202
sg56
(lp3209
S'user_groups'
p3210
asbag49
(g70
g51
NtRp3211
(dp3212
g54
(dp3213
g81
g82
ssg63
g3202
sg56
(lp3214
S':'
asbag49
(g70
g51
NtRp3215
(dp3216
g54
(dp3217
sg63
g3202
sg56
(lp3218
g49
(g50
g51
NtRp3219
(dp3220
g54
(dp3221
g62
I4
ssg63
g3215
sg56
(lp3222
g49
(g58
g51
NtRp3223
(dp3224
g54
(dp3225
g62
I3
ssg63
Nsg56
(lp3226
g49
(g65
g51
NtRp3227
(dp3228
g54
(dp3229
sg63
g3223
sg56
(lp3230
g49
(g70
g51
NtRp3231
(dp3232
g54
(dp3233
g74
g75
ssg63
g3227
sg56
(lp3234
S'1'
asbag49
(g70
g51
NtRp3235
(dp3236
g54
(dp3237
g81
g82
ssg63
g3227
sg56
(lp3238
S':'
asbag49
(g70
g51
NtRp3239
(dp3240
g54
(dp3241
sg63
g3227
sg56
(lp3242
g49
(g50
g51
NtRp3243
(dp3244
g54
(dp3245
g62
I3
ssg63
g3239
sg56
(lp3246
S'user_1'
p3247
asbasbasbag49
(g65
g51
NtRp3248
(dp3249
g54
(dp3250
sg63
g3223
sg56
(lp3251
g49
(g70
g51
NtRp3252
(dp3253
g54
(dp3254
g74
g75
ssg63
g3248
sg56
(lp3255
S'2'
asbag49
(g70
g51
NtRp3256
(dp3257
g54
(dp3258
g81
g82
ssg63
g3248
sg56
(lp3259
S':'
asbag49
(g70
g51
NtRp3260
(dp3261
g54
(dp3262
sg63
g3248
sg56
(lp3263
g49
(g50
g51
NtRp3264
(dp3265
g54
(dp3266
g62
I3
ssg63
g3260
sg56
(lp3267
S'manager'
p3268
asbasbasbasbasbasbasbasbasbasbasbasbasbsS'etype'
p3269
S"<type 'exceptions.AttributeError'>"
p3270
sS'date'
p3271
S'Mon Jul 30 01:58:19 2012'
p3272
sS'response'
p3273
g49
(g50
g51
NtRp3274
(dp3275
g54
(dp3276
sg56
(lp3277
g49
(g58
g51
NtRp3278
(dp3279
g54
(dp3280
g62
I5
ssg63
Nsg56
(lp3281
g49
(g65
g51
NtRp3282
(dp3283
g54
(dp3284
sg63
g3278
sg56
(lp3285
g49
(g70
g51
NtRp3286
(dp3287
g54
(dp3288
g74
g75
ssg63
g3282
sg56
(lp3289
g159
asbag49
(g70
g51
NtRp3290
(dp3291
g54
(dp3292
g81
g82
ssg63
g3282
sg56
(lp3293
S':'
asbag49
(g70
g51
NtRp3294
(dp3295
g54
(dp3296
sg63
g3282
sg56
(lp3297
g49
(g50
g51
NtRp3298
(dp3299
g54
(dp3300
g62
I5
ssg63
g3294
sg56
(lp3301
S'<cStringIO.StringO object at 0x06E295E0>'
p3302
asbasbasbag49
(g65
g51
NtRp3303
(dp3304
g54
(dp3305
sg63
g3278
sg56
(lp3306
g49
(g70
g51
NtRp3307
(dp3308
g54
(dp3309
g74
g75
ssg63
g3303
sg56
(lp3310
g225
asbag49
(g70
g51
NtRp3311
(dp3312
g54
(dp3313
g81
g82
ssg63
g3303
sg56
(lp3314
S':'
asbag49
(g70
g51
NtRp3315
(dp3316
g54
(dp3317
sg63
g3303
sg56
(lp3318
g49
(g50
g51
NtRp3319
(dp3320
g54
(dp3321
g62
I5
ssg63
g3315
sg56
(lp3322
g49
(g58
g51
NtRp3323
(dp3324
g54
(dp3325
g62
I4
ssg63
Nsg56
(lp3326
g49
(g65
g51
NtRp3327
(dp3328
g54
(dp3329
sg63
g3323
sg56
(lp3330
g49
(g70
g51
NtRp3331
(dp3332
g54
(dp3333
g74
g75
ssg63
g3327
sg56
(lp3334
S'session_id_unioeste_code'
p3335
asbag49
(g70
g51
NtRp3336
(dp3337
g54
(dp3338
g81
g82
ssg63
g3327
sg56
(lp3339
S':'
asbag49
(g70
g51
NtRp3340
(dp3341
g54
(dp3342
sg63
g3327
sg56
(lp3343
g49
(g50
g51
NtRp3344
(dp3345
g54
(dp3346
g62
I4
ssg63
g3340
sg56
(lp3347
g49
(g58
g51
NtRp3348
(dp3349
g54
(dp3350
g62
I3
ssg63
Nsg56
(lp3351
g49
(g65
g51
NtRp3352
(dp3353
g54
(dp3354
sg63
g3348
sg56
(lp3355
g49
(g70
g51
NtRp3356
(dp3357
g54
(dp3358
g74
g75
ssg63
g3352
sg56
(lp3359
g275
asbag49
(g70
g51
NtRp3360
(dp3361
g54
(dp3362
g81
g82
ssg63
g3352
sg56
(lp3363
S':'
asbag49
(g70
g51
NtRp3364
(dp3365
g54
(dp3366
sg63
g3352
sg56
(lp3367
g49
(g50
g51
NtRp3368
(dp3369
g54
(dp3370
g62
I3
ssg63
g3364
sg56
(lp3371
S''
asbasbasbag49
(g65
g51
NtRp3372
(dp3373
g54
(dp3374
sg63
g3348
sg56
(lp3375
g49
(g70
g51
NtRp3376
(dp3377
g54
(dp3378
g74
g75
ssg63
g3372
sg56
(lp3379
g296
asbag49
(g70
g51
NtRp3380
(dp3381
g54
(dp3382
g81
g82
ssg63
g3372
sg56
(lp3383
S':'
asbag49
(g70
g51
NtRp3384
(dp3385
g54
(dp3386
sg63
g3372
sg56
(lp3387
g49
(g50
g51
NtRp3388
(dp3389
g54
(dp3390
g62
I3
ssg63
g3384
sg56
(lp3391
S''
asbasbasbag49
(g65
g51
NtRp3392
(dp3393
g54
(dp3394
sg63
g3348
sg56
(lp3395
g49
(g70
g51
NtRp3396
(dp3397
g54
(dp3398
g74
g75
ssg63
g3392
sg56
(lp3399
g317
asbag49
(g70
g51
NtRp3400
(dp3401
g54
(dp3402
g81
g82
ssg63
g3392
sg56
(lp3403
S':'
asbag49
(g70
g51
NtRp3404
(dp3405
g54
(dp3406
sg63
g3392
sg56
(lp3407
g49
(g50
g51
NtRp3408
(dp3409
g54
(dp3410
g62
I3
ssg63
g3404
sg56
(lp3411
S''
asbasbasbag49
(g65
g51
NtRp3412
(dp3413
g54
(dp3414
sg63
g3348
sg56
(lp3415
g49
(g70
g51
NtRp3416
(dp3417
g54
(dp3418
g74
g75
ssg63
g3412
sg56
(lp3419
g338
asbag49
(g70
g51
NtRp3420
(dp3421
g54
(dp3422
g81
g82
ssg63
g3412
sg56
(lp3423
S':'
asbag49
(g70
g51
NtRp3424
(dp3425
g54
(dp3426
sg63
g3412
sg56
(lp3427
g49
(g50
g51
NtRp3428
(dp3429
g54
(dp3430
g62
I3
ssg63
g3424
sg56
(lp3431
S''
asbasbasbag49
(g65
g51
NtRp3432
(dp3433
g54
(dp3434
sg63
g3348
sg56
(lp3435
g49
(g70
g51
NtRp3436
(dp3437
g54
(dp3438
g74
g75
ssg63
g3432
sg56
(lp3439
g359
asbag49
(g70
g51
NtRp3440
(dp3441
g54
(dp3442
g81
g82
ssg63
g3432
sg56
(lp3443
S':'
asbag49
(g70
g51
NtRp3444
(dp3445
g54
(dp3446
sg63
g3432
sg56
(lp3447
g49
(g50
g51
NtRp3448
(dp3449
g54
(dp3450
g62
I3
ssg63
g3444
sg56
(lp3451
S'/'
asbasbasbag49
(g65
g51
NtRp3452
(dp3453
g54
(dp3454
sg63
g3348
sg56
(lp3455
g49
(g70
g51
NtRp3456
(dp3457
g54
(dp3458
g74
g75
ssg63
g3452
sg56
(lp3459
g380
asbag49
(g70
g51
NtRp3460
(dp3461
g54
(dp3462
g81
g82
ssg63
g3452
sg56
(lp3463
S':'
asbag49
(g70
g51
NtRp3464
(dp3465
g54
(dp3466
sg63
g3452
sg56
(lp3467
g49
(g50
g51
NtRp3468
(dp3469
g54
(dp3470
g62
I3
ssg63
g3464
sg56
(lp3471
S''
asbasbasbag49
(g65
g51
NtRp3472
(dp3473
g54
(dp3474
sg63
g3348
sg56
(lp3475
g49
(g70
g51
NtRp3476
(dp3477
g54
(dp3478
g74
g75
ssg63
g3472
sg56
(lp3479
g401
asbag49
(g70
g51
NtRp3480
(dp3481
g54
(dp3482
g81
g82
ssg63
g3472
sg56
(lp3483
S':'
asbag49
(g70
g51
NtRp3484
(dp3485
g54
(dp3486
sg63
g3472
sg56
(lp3487
g49
(g50
g51
NtRp3488
(dp3489
g54
(dp3490
g62
I3
ssg63
g3484
sg56
(lp3491
S''
asbasbasbasbasbasbasbasbasbasbasbag49
(g65
g51
NtRp3492
(dp3493
g54
(dp3494
sg63
g3278
sg56
(lp3495
g49
(g70
g51
NtRp3496
(dp3497
g54
(dp3498
g74
g75
ssg63
g3492
sg56
(lp3499
S'delimiters'
p3500
asbag49
(g70
g51
NtRp3501
(dp3502
g54
(dp3503
g81
g82
ssg63
g3492
sg56
(lp3504
S':'
asbag49
(g70
g51
NtRp3505
(dp3506
g54
(dp3507
sg63
g3492
sg56
(lp3508
g49
(g50
g51
NtRp3509
(dp3510
g54
(dp3511
g62
I5
ssg63
g3505
sg56
(lp3512
g49
(g58
g51
NtRp3513
(dp3514
g54
(dp3515
g62
I4
ssg63
Nsg56
(lp3516
g49
(g65
g51
NtRp3517
(dp3518
g54
(dp3519
sg63
g3513
sg56
(lp3520
g49
(g70
g51
NtRp3521
(dp3522
g54
(dp3523
sg63
g3517
sg56
(lp3524
g49
(g50
g51
NtRp3525
(dp3526
g54
(dp3527
g62
I4
ssg63
g3521
sg56
(lp3528
S'{{'
p3529
asbasbasbag49
(g65
g51
NtRp3530
(dp3531
g54
(dp3532
sg63
g3513
sg56
(lp3533
g49
(g70
g51
NtRp3534
(dp3535
g54
(dp3536
sg63
g3530
sg56
(lp3537
g49
(g50
g51
NtRp3538
(dp3539
g54
(dp3540
g62
I4
ssg63
g3534
sg56
(lp3541
S'}}'
p3542
asbasbasbasbasbasbasbag49
(g65
g51
NtRp3543
(dp3544
g54
(dp3545
sg63
g3278
sg56
(lp3546
g49
(g70
g51
NtRp3547
(dp3548
g54
(dp3549
g74
g75
ssg63
g3543
sg56
(lp3550
S'files'
p3551
asbag49
(g70
g51
NtRp3552
(dp3553
g54
(dp3554
g81
g82
ssg63
g3543
sg56
(lp3555
S':'
asbag49
(g70
g51
NtRp3556
(dp3557
g54
(dp3558
sg63
g3543
sg56
(lp3559
g49
(g50
g51
NtRp3560
(dp3561
g54
(dp3562
g62
I5
ssg63
g3556
sg56
(lp3563
g49
(g58
g51
NtRp3564
(dp3565
g54
(dp3566
g62
I4
ssg63
Nsg56
(lp3567
g49
(g65
g51
NtRp3568
(dp3569
g54
(dp3570
sg63
g3564
sg56
(lp3571
g49
(g70
g51
NtRp3572
(dp3573
g54
(dp3574
sg63
g3568
sg56
(lp3575
g49
(g50
g51
NtRp3576
(dp3577
g54
(dp3578
g62
I4
ssg63
g3572
sg56
(lp3579
S'/unioeste_code/static/js/jquery.js'
p3580
asbasbasbag49
(g65
g51
NtRp3581
(dp3582
g54
(dp3583
sg63
g3564
sg56
(lp3584
g49
(g70
g51
NtRp3585
(dp3586
g54
(dp3587
sg63
g3581
sg56
(lp3588
g49
(g50
g51
NtRp3589
(dp3590
g54
(dp3591
g62
I4
ssg63
g3585
sg56
(lp3592
S'/unioeste_code/static/css/calendar.css'
p3593
asbasbasbag49
(g65
g51
NtRp3594
(dp3595
g54
(dp3596
sg63
g3564
sg56
(lp3597
g49
(g70
g51
NtRp3598
(dp3599
g54
(dp3600
sg63
g3594
sg56
(lp3601
g49
(g50
g51
NtRp3602
(dp3603
g54
(dp3604
g62
I4
ssg63
g3598
sg56
(lp3605
S'/unioeste_code/static/js/calendar.js'
p3606
asbasbasbag49
(g65
g51
NtRp3607
(dp3608
g54
(dp3609
sg63
g3564
sg56
(lp3610
g49
(g70
g51
NtRp3611
(dp3612
g54
(dp3613
sg63
g3607
sg56
(lp3614
g49
(g50
g51
NtRp3615
(dp3616
g54
(dp3617
g62
I4
ssg63
g3611
sg56
(lp3618
S'/unioeste_code/static/js/web2py.js'
p3619
asbasbasbag49
(g65
g51
NtRp3620
(dp3621
g54
(dp3622
sg63
g3564
sg56
(lp3623
g49
(g70
g51
NtRp3624
(dp3625
g54
(dp3626
sg63
g3620
sg56
(lp3627
g49
(g50
g51
NtRp3628
(dp3629
g54
(dp3630
g62
I4
ssg63
g3624
sg56
(lp3631
S'/unioeste_code/static/css/skeleton.css'
p3632
asbasbasbag49
(g65
g51
NtRp3633
(dp3634
g54
(dp3635
sg63
g3564
sg56
(lp3636
g49
(g70
g51
NtRp3637
(dp3638
g54
(dp3639
sg63
g3633
sg56
(lp3640
g49
(g50
g51
NtRp3641
(dp3642
g54
(dp3643
g62
I4
ssg63
g3637
sg56
(lp3644
S'/unioeste_code/static/css/web2py.css'
p3645
asbasbasbag49
(g65
g51
NtRp3646
(dp3647
g54
(dp3648
sg63
g3564
sg56
(lp3649
g49
(g70
g51
NtRp3650
(dp3651
g54
(dp3652
sg63
g3646
sg56
(lp3653
g49
(g50
g51
NtRp3654
(dp3655
g54
(dp3656
g62
I4
ssg63
g3650
sg56
(lp3657
S'/unioeste_code/static/css/superfish.css'
p3658
asbasbasbag49
(g65
g51
NtRp3659
(dp3660
g54
(dp3661
sg63
g3564
sg56
(lp3662
g49
(g70
g51
NtRp3663
(dp3664
g54
(dp3665
sg63
g3659
sg56
(lp3666
g49
(g50
g51
NtRp3667
(dp3668
g54
(dp3669
g62
I4
ssg63
g3663
sg56
(lp3670
S'/unioeste_code/static/js/superfish.js'
p3671
asbasbasbasbasbasbasbag49
(g65
g51
NtRp3672
(dp3673
g54
(dp3674
sg63
g3278
sg56
(lp3675
g49
(g70
g51
NtRp3676
(dp3677
g54
(dp3678
g74
g75
ssg63
g3672
sg56
(lp3679
S'flash'
p3680
asbag49
(g70
g51
NtRp3681
(dp3682
g54
(dp3683
g81
g82
ssg63
g3672
sg56
(lp3684
S':'
asbag49
(g70
g51
NtRp3685
(dp3686
g54
(dp3687
sg63
g3672
sg56
(lp3688
g49
(g50
g51
NtRp3689
(dp3690
g54
(dp3691
g62
I5
ssg63
g3685
sg56
(lp3692
S''
asbasbasbag49
(g65
g51
NtRp3693
(dp3694
g54
(dp3695
sg63
g3278
sg56
(lp3696
g49
(g70
g51
NtRp3697
(dp3698
g54
(dp3699
g74
g75
ssg63
g3693
sg56
(lp3700
S'generic_patterns'
p3701
asbag49
(g70
g51
NtRp3702
(dp3703
g54
(dp3704
g81
g82
ssg63
g3693
sg56
(lp3705
S':'
asbag49
(g70
g51
NtRp3706
(dp3707
g54
(dp3708
sg63
g3693
sg56
(lp3709
g49
(g50
g51
NtRp3710
(dp3711
g54
(dp3712
g62
I5
ssg63
g3706
sg56
(lp3713
g49
(g58
g51
NtRp3714
(dp3715
g54
(dp3716
g62
I4
ssg63
Nsg56
(lp3717
sbasbasbasbag49
(g65
g51
NtRp3718
(dp3719
g54
(dp3720
sg63
g3278
sg56
(lp3721
g49
(g70
g51
NtRp3722
(dp3723
g54
(dp3724
g74
g75
ssg63
g3718
sg56
(lp3725
S'headers'
p3726
asbag49
(g70
g51
NtRp3727
(dp3728
g54
(dp3729
g81
g82
ssg63
g3718
sg56
(lp3730
S':'
asbag49
(g70
g51
NtRp3731
(dp3732
g54
(dp3733
sg63
g3718
sg56
(lp3734
g49
(g50
g51
NtRp3735
(dp3736
g54
(dp3737
g62
I5
ssg63
g3731
sg56
(lp3738
g49
(g58
g51
NtRp3739
(dp3740
g54
(dp3741
g62
I4
ssg63
Nsg56
(lp3742
g49
(g65
g51
NtRp3743
(dp3744
g54
(dp3745
sg63
g3739
sg56
(lp3746
g49
(g70
g51
NtRp3747
(dp3748
g54
(dp3749
g74
g75
ssg63
g3743
sg56
(lp3750
S'Cache-Control'
p3751
asbag49
(g70
g51
NtRp3752
(dp3753
g54
(dp3754
g81
g82
ssg63
g3743
sg56
(lp3755
S':'
asbag49
(g70
g51
NtRp3756
(dp3757
g54
(dp3758
sg63
g3743
sg56
(lp3759
g49
(g50
g51
NtRp3760
(dp3761
g54
(dp3762
g62
I4
ssg63
g3756
sg56
(lp3763
S'no-store, no-cache, must-revalidate, post-check=0, pre-check=0'
p3764
asbasbasbag49
(g65
g51
NtRp3765
(dp3766
g54
(dp3767
sg63
g3739
sg56
(lp3768
g49
(g70
g51
NtRp3769
(dp3770
g54
(dp3771
g74
g75
ssg63
g3765
sg56
(lp3772
S'Content-Type'
p3773
asbag49
(g70
g51
NtRp3774
(dp3775
g54
(dp3776
g81
g82
ssg63
g3765
sg56
(lp3777
S':'
asbag49
(g70
g51
NtRp3778
(dp3779
g54
(dp3780
sg63
g3765
sg56
(lp3781
g49
(g50
g51
NtRp3782
(dp3783
g54
(dp3784
g62
I4
ssg63
g3778
sg56
(lp3785
S'text/html; charset=utf-8'
p3786
asbasbasbag49
(g65
g51
NtRp3787
(dp3788
g54
(dp3789
sg63
g3739
sg56
(lp3790
g49
(g70
g51
NtRp3791
(dp3792
g54
(dp3793
g74
g75
ssg63
g3787
sg56
(lp3794
S'Expires'
p3795
asbag49
(g70
g51
NtRp3796
(dp3797
g54
(dp3798
g81
g82
ssg63
g3787
sg56
(lp3799
S':'
asbag49
(g70
g51
NtRp3800
(dp3801
g54
(dp3802
sg63
g3787
sg56
(lp3803
g49
(g50
g51
NtRp3804
(dp3805
g54
(dp3806
g62
I4
ssg63
g3800
sg56
(lp3807
S'Mon, 30 Jul 2012 04:58:19 GMT'
p3808
asbasbasbag49
(g65
g51
NtRp3809
(dp3810
g54
(dp3811
sg63
g3739
sg56
(lp3812
g49
(g70
g51
NtRp3813
(dp3814
g54
(dp3815
g74
g75
ssg63
g3809
sg56
(lp3816
S'Pragma'
p3817
asbag49
(g70
g51
NtRp3818
(dp3819
g54
(dp3820
g81
g82
ssg63
g3809
sg56
(lp3821
S':'
asbag49
(g70
g51
NtRp3822
(dp3823
g54
(dp3824
sg63
g3809
sg56
(lp3825
g49
(g50
g51
NtRp3826
(dp3827
g54
(dp3828
g62
I4
ssg63
g3822
sg56
(lp3829
S'no-cache'
p3830
asbasbasbag49
(g65
g51
NtRp3831
(dp3832
g54
(dp3833
sg63
g3739
sg56
(lp3834
g49
(g70
g51
NtRp3835
(dp3836
g54
(dp3837
g74
g75
ssg63
g3831
sg56
(lp3838
S'X-Powered-By'
p3839
asbag49
(g70
g51
NtRp3840
(dp3841
g54
(dp3842
g81
g82
ssg63
g3831
sg56
(lp3843
S':'
asbag49
(g70
g51
NtRp3844
(dp3845
g54
(dp3846
sg63
g3831
sg56
(lp3847
g49
(g50
g51
NtRp3848
(dp3849
g54
(dp3850
g62
I4
ssg63
g3844
sg56
(lp3851
S'web2py'
p3852
asbasbasbasbasbasbasbag49
(g65
g51
NtRp3853
(dp3854
g54
(dp3855
sg63
g3278
sg56
(lp3856
g49
(g70
g51
NtRp3857
(dp3858
g54
(dp3859
g74
g75
ssg63
g3853
sg56
(lp3860
S'menu'
p3861
asbag49
(g70
g51
NtRp3862
(dp3863
g54
(dp3864
g81
g82
ssg63
g3853
sg56
(lp3865
S':'
asbag49
(g70
g51
NtRp3866
(dp3867
g54
(dp3868
sg63
g3853
sg56
(lp3869
g49
(g50
g51
NtRp3870
(dp3871
g54
(dp3872
g62
I5
ssg63
g3866
sg56
(lp3873
g49
(g58
g51
NtRp3874
(dp3875
g54
(dp3876
g62
I4
ssg63
Nsg56
(lp3877
g49
(g65
g51
NtRp3878
(dp3879
g54
(dp3880
sg63
g3874
sg56
(lp3881
g49
(g70
g51
NtRp3882
(dp3883
g54
(dp3884
sg63
g3878
sg56
(lp3885
g49
(g50
g51
NtRp3886
(dp3887
g54
(dp3888
g62
I4
ssg63
g3882
sg56
(lp3889
g49
(g58
g51
NtRp3890
(dp3891
g54
(dp3892
g62
I3
ssg63
Nsg56
(lp3893
g49
(g65
g51
NtRp3894
(dp3895
g54
(dp3896
sg63
g3890
sg56
(lp3897
g49
(g70
g51
NtRp3898
(dp3899
g54
(dp3900
sg63
g3894
sg56
(lp3901
g49
(g50
g51
NtRp3902
(dp3903
g54
(dp3904
g62
I3
ssg63
g3898
sg56
(lp3905
cgluon.languages
lazyT_unpickle
p3906
(S't\x04\x00\x00\x00Home'
tRp3907
asbasbasbag49
(g65
g51
NtRp3908
(dp3909
g54
(dp3910
sg63
g3890
sg56
(lp3911
g49
(g70
g51
NtRp3912
(dp3913
g54
(dp3914
sg63
g3908
sg56
(lp3915
g49
(g50
g51
NtRp3916
(dp3917
g54
(dp3918
g62
I3
ssg63
g3912
sg56
(lp3919
g92
asbasbasbag49
(g65
g51
NtRp3920
(dp3921
g54
(dp3922
sg63
g3890
sg56
(lp3923
g49
(g70
g51
NtRp3924
(dp3925
g54
(dp3926
sg63
g3920
sg56
(lp3927
g49
(g50
g51
NtRp3928
(dp3929
g54
(dp3930
g62
I3
ssg63
g3924
sg56
(lp3931
S'/unioeste_code/default/index'
p3932
asbasbasbag49
(g65
g51
NtRp3933
(dp3934
g54
(dp3935
sg63
g3890
sg56
(lp3936
g49
(g70
g51
NtRp3937
(dp3938
g54
(dp3939
sg63
g3933
sg56
(lp3940
g49
(g50
g51
NtRp3941
(dp3942
g54
(dp3943
g62
I3
ssg63
g3937
sg56
(lp3944
g49
(g58
g51
NtRp3945
(dp3946
g54
(dp3947
g62
I2
ssg63
Nsg56
(lp3948
sbasbasbasbasbasbasbasbag49
(g65
g51
NtRp3949
(dp3950
g54
(dp3951
sg63
g3874
sg56
(lp3952
g49
(g70
g51
NtRp3953
(dp3954
g54
(dp3955
sg63
g3949
sg56
(lp3956
g49
(g50
g51
NtRp3957
(dp3958
g54
(dp3959
g62
I4
ssg63
g3953
sg56
(lp3960
g49
(g58
g51
NtRp3961
(dp3962
g54
(dp3963
g62
I3
ssg63
Nsg56
(lp3964
g49
(g65
g51
NtRp3965
(dp3966
g54
(dp3967
sg63
g3961
sg56
(lp3968
g49
(g70
g51
NtRp3969
(dp3970
g54
(dp3971
sg63
g3965
sg56
(lp3972
g49
(g50
g51
NtRp3973
(dp3974
g54
(dp3975
g62
I3
ssg63
g3969
sg56
(lp3976
g49
(cgluon.html
SPAN
p3977
g51
NtRp3978
(dp3979
g54
(dp3980
g74
S'color:yellow'
p3981
ssg63
g49
(cgluon.html
A
p3982
g51
NtRp3983
(dp3984
g54
(dp3985
S'_onclick'
p3986
S'javascript:void(0);return false;'
p3987
sS'_href'
p3988
S'#'
ssg63
g49
(cgluon.html
LI
p3989
g51
NtRp3990
(dp3991
g54
(dp3992
S'_class'
p3993
S'web2py-menu-expand'
p3994
ssg63
g49
(cgluon.html
UL
p3995
g51
NtRp3996
(dp3997
g54
(dp3998
S'mobile'
p3999
I00
sS'li_class'
p4000
g3994
sg3993
S'sf-menu'
p4001
sS'ul_class'
p4002
S'web2py-menu-vertical'
p4003
sS'li_active'
p4004
S'web2py-menu-active'
p4005
ssg63
Nsg56
(lp4006
g49
(g3989
g51
NtRp4007
(dp4008
g54
(dp4009
sg63
g3996
sg56
(lp4010
g49
(g3982
g51
NtRp4011
(dp4012
g54
(dp4013
g3988
g3932
ssg63
g4007
sg56
(lp4014
g3907
asbasbag3990
asbsg56
(lp4015
g3983
ag49
(g3995
g51
NtRp4016
(dp4017
g54
(dp4018
g3993
g4003
ssg63
g3990
sg56
(lp4019
g49
(g3989
g51
NtRp4020
(dp4021
g54
(dp4022
sg63
g4016
sg56
(lp4023
g49
(g3982
g51
NtRp4024
(dp4025
g54
(dp4026
g3988
S'/admin/default/site'
p4027
ssg63
g4020
sg56
(lp4028
g3906
(S's\x08\x00\x00\x00My Sites'
tRp4029
asbasbag49
(g3989
g51
NtRp4030
(dp4031
g54
(dp4032
g3993
g3994
ssg63
g4016
sg56
(lp4033
g49
(g3982
g51
NtRp4034
(dp4035
g54
(dp4036
g3988
S'/admin/default/design/unioeste_code'
p4037
ssg63
g4030
sg56
(lp4038
g3906
(S's\x08\x00\x00\x00This App'
tRp4039
asbag49
(g3995
g51
NtRp4040
(dp4041
g54
(dp4042
g3993
g4003
ssg63
g4030
sg56
(lp4043
g49
(g3989
g51
NtRp4044
(dp4045
g54
(dp4046
sg63
g4040
sg56
(lp4047
g49
(g3982
g51
NtRp4048
(dp4049
g54
(dp4050
g3988
S'/admin/default/edit/unioeste_code/controllers/default.py'
p4051
ssg63
g4044
sg56
(lp4052
g3906
(S't\x0b\x00\x00\x00Controlador'
tRp4053
asbasbag49
(g3989
g51
NtRp4054
(dp4055
g54
(dp4056
sg63
g4040
sg56
(lp4057
g49
(g3982
g51
NtRp4058
(dp4059
g54
(dp4060
g3988
S'/admin/default/edit/unioeste_code/views/default/Code.html'
p4061
ssg63
g4054
sg56
(lp4062
g3906
(S's\x0e\x00\x00\x00Visualiza\xc3\xa7\xc3\xa3o'
tRp4063
asbasbag49
(g3989
g51
NtRp4064
(dp4065
g54
(dp4066
sg63
g4040
sg56
(lp4067
g49
(g3982
g51
NtRp4068
(dp4069
g54
(dp4070
g3988
S'/admin/default/edit/unioeste_code/views/layout.html'
p4071
ssg63
g4064
sg56
(lp4072
g3906
(S't\x06\x00\x00\x00Layout'
tRp4073
asbasbag49
(g3989
g51
NtRp4074
(dp4075
g54
(dp4076
sg63
g4040
sg56
(lp4077
g49
(g3982
g51
NtRp4078
(dp4079
g54
(dp4080
g3988
S'/admin/default/edit/unioeste_code/static/css/web2py.css'
p4081
ssg63
g4074
sg56
(lp4082
g3906
(S't\n\x00\x00\x00Stylesheet'
tRp4083
asbasbag49
(g3989
g51
NtRp4084
(dp4085
g54
(dp4086
sg63
g4040
sg56
(lp4087
g49
(g3982
g51
NtRp4088
(dp4089
g54
(dp4090
g3988
S'/admin/default/edit/unioeste_code/models/db.py'
p4091
ssg63
g4084
sg56
(lp4092
g3906
(S's\t\x00\x00\x00Modelo BD'
tRp4093
asbasbag49
(g3989
g51
NtRp4094
(dp4095
g54
(dp4096
sg63
g4040
sg56
(lp4097
g49
(g3982
g51
NtRp4098
(dp4099
g54
(dp4100
g3988
S'/admin/default/edit/unioeste_code/models/menu.py'
p4101
ssg63
g4094
sg56
(lp4102
g3906
(S's\x0e\x00\x00\x00Modelo de Menu'
tRp4103
asbasbag49
(g3989
g51
NtRp4104
(dp4105
g54
(dp4106
sg63
g4040
sg56
(lp4107
g49
(g3982
g51
NtRp4108
(dp4109
g54
(dp4110
g3988
S'/unioeste_code/appadmin/index'
p4111
ssg63
g4104
sg56
(lp4112
g3906
(S's\x0e\x00\x00\x00Banco de dados'
tRp4113
asbasbag49
(g3989
g51
NtRp4114
(dp4115
g54
(dp4116
sg63
g4040
sg56
(lp4117
g49
(g3982
g51
NtRp4118
(dp4119
g54
(dp4120
g3988
S'/admin/default/errors/unioeste_code'
p4121
ssg63
g4114
sg56
(lp4122
g3906
(S't\x06\x00\x00\x00Errors'
tRp4123
asbasbag49
(g3989
g51
NtRp4124
(dp4125
g54
(dp4126
sg63
g4040
sg56
(lp4127
g49
(g3982
g51
NtRp4128
(dp4129
g54
(dp4130
g3988
S'/admin/default/about/unioeste_code'
p4131
ssg63
g4124
sg56
(lp4132
g3906
(S't\x05\x00\x00\x00About'
tRp4133
asbasbasbasbag49
(g3989
g51
NtRp4134
(dp4135
g54
(dp4136
g3993
g3994
ssg63
g4016
sg56
(lp4137
g49
(g3982
g51
NtRp4138
(dp4139
g54
(dp4140
g3988
S'http://www.web2py.com'
p4141
ssg63
g4134
sg56
(lp4142
S'web2py.com'
p4143
asbag49
(g3995
g51
NtRp4144
(dp4145
g54
(dp4146
g3993
g4003
ssg63
g4134
sg56
(lp4147
g49
(g3989
g51
NtRp4148
(dp4149
g54
(dp4150
sg63
g4144
sg56
(lp4151
g49
(g3982
g51
NtRp4152
(dp4153
g54
(dp4154
g3988
S'http://www.web2py.com/examples/default/download'
p4155
ssg63
g4148
sg56
(lp4156
g3906
(S't\x08\x00\x00\x00Download'
tRp4157
asbasbag49
(g3989
g51
NtRp4158
(dp4159
g54
(dp4160
sg63
g4144
sg56
(lp4161
g49
(g3982
g51
NtRp4162
(dp4163
g54
(dp4164
g3988
S'http://www.web2py.com/examples/default/support'
p4165
ssg63
g4158
sg56
(lp4166
g3906
(S't\x07\x00\x00\x00Support'
tRp4167
asbasbag49
(g3989
g51
NtRp4168
(dp4169
g54
(dp4170
sg63
g4144
sg56
(lp4171
g49
(g3982
g51
NtRp4172
(dp4173
g54
(dp4174
g3988
S'http://web2py.com/demo_admin'
p4175
ssg63
g4168
sg56
(lp4176
g3906
(S't\x04\x00\x00\x00Demo'
tRp4177
asbasbag49
(g3989
g51
NtRp4178
(dp4179
g54
(dp4180
sg63
g4144
sg56
(lp4181
g49
(g3982
g51
NtRp4182
(dp4183
g54
(dp4184
g3988
S'http://web2py.com/examples/default/examples'
p4185
ssg63
g4178
sg56
(lp4186
g3906
(S's\x0e\x00\x00\x00Quick Examples'
tRp4187
asbasbag49
(g3989
g51
NtRp4188
(dp4189
g54
(dp4190
sg63
g4144
sg56
(lp4191
g49
(g3982
g51
NtRp4192
(dp4193
g54
(dp4194
g3988
S'http://web2py.com/AlterEgo'
p4195
ssg63
g4188
sg56
(lp4196
g3906
(S't\x03\x00\x00\x00FAQ'
tRp4197
asbasbag49
(g3989
g51
NtRp4198
(dp4199
g54
(dp4200
sg63
g4144
sg56
(lp4201
g49
(g3982
g51
NtRp4202
(dp4203
g54
(dp4204
g3988
S'http://www.web2py.com/examples/default/videos/'
p4205
ssg63
g4198
sg56
(lp4206
g3906
(S't\x06\x00\x00\x00Videos'
tRp4207
asbasbag49
(g3989
g51
NtRp4208
(dp4209
g54
(dp4210
sg63
g4144
sg56
(lp4211
g49
(g3982
g51
NtRp4212
(dp4213
g54
(dp4214
g3988
S'http://web2py.com/appliances'
p4215
ssg63
g4208
sg56
(lp4216
g3906
(S's\x11\x00\x00\x00Free Applications'
tRp4217
asbasbag49
(g3989
g51
NtRp4218
(dp4219
g54
(dp4220
sg63
g4144
sg56
(lp4221
g49
(g3982
g51
NtRp4222
(dp4223
g54
(dp4224
g3988
S'http://web2py.com/plugins'
p4225
ssg63
g4218
sg56
(lp4226
g3906
(S't\x07\x00\x00\x00Plugins'
tRp4227
asbasbag49
(g3989
g51
NtRp4228
(dp4229
g54
(dp4230
sg63
g4144
sg56
(lp4231
g49
(g3982
g51
NtRp4232
(dp4233
g54
(dp4234
g3988
S'http://web2py.com/layouts'
p4235
ssg63
g4228
sg56
(lp4236
g3906
(S't\x07\x00\x00\x00Layouts'
tRp4237
asbasbag49
(g3989
g51
NtRp4238
(dp4239
g54
(dp4240
sg63
g4144
sg56
(lp4241
g49
(g3982
g51
NtRp4242
(dp4243
g54
(dp4244
g3988
S'http://web2pyslices.com/'
p4245
ssg63
g4238
sg56
(lp4246
g3906
(S't\x07\x00\x00\x00Recipes'
tRp4247
asbasbag49
(g3989
g51
NtRp4248
(dp4249
g54
(dp4250
sg63
g4144
sg56
(lp4251
g49
(g3982
g51
NtRp4252
(dp4253
g54
(dp4254
g3988
S'http://web2py.com/semantic'
p4255
ssg63
g4248
sg56
(lp4256
g3906
(S't\x08\x00\x00\x00Semantic'
tRp4257
asbasbasbasbag49
(g3989
g51
NtRp4258
(dp4259
g54
(dp4260
g3993
g3994
ssg63
g4016
sg56
(lp4261
g49
(g3982
g51
NtRp4262
(dp4263
g54
(dp4264
g3988
S'http://www.web2py.com/book'
p4265
ssg63
g4258
sg56
(lp4266
g3906
(S't\r\x00\x00\x00Documentation'
tRp4267
asbag49
(g3995
g51
NtRp4268
(dp4269
g54
(dp4270
g3993
g4003
ssg63
g4258
sg56
(lp4271
g49
(g3989
g51
NtRp4272
(dp4273
g54
(dp4274
sg63
g4268
sg56
(lp4275
g49
(g3982
g51
NtRp4276
(dp4277
g54
(dp4278
g3988
S'http://www.web2py.com/book/default/chapter/00'
p4279
ssg63
g4272
sg56
(lp4280
g3906
(S't\x07\x00\x00\x00Preface'
tRp4281
asbasbag49
(g3989
g51
NtRp4282
(dp4283
g54
(dp4284
sg63
g4268
sg56
(lp4285
g49
(g3982
g51
NtRp4286
(dp4287
g54
(dp4288
g3988
S'http://www.web2py.com/book/default/chapter/01'
p4289
ssg63
g4282
sg56
(lp4290
g3906
(S't\x0c\x00\x00\x00Introduction'
tRp4291
asbasbag49
(g3989
g51
NtRp4292
(dp4293
g54
(dp4294
sg63
g4268
sg56
(lp4295
g49
(g3982
g51
NtRp4296
(dp4297
g54
(dp4298
g3988
S'http://www.web2py.com/book/default/chapter/02'
p4299
ssg63
g4292
sg56
(lp4300
g3906
(S't\x06\x00\x00\x00Python'
tRp4301
asbasbag49
(g3989
g51
NtRp4302
(dp4303
g54
(dp4304
sg63
g4268
sg56
(lp4305
g49
(g3982
g51
NtRp4306
(dp4307
g54
(dp4308
g3988
S'http://www.web2py.com/book/default/chapter/03'
p4309
ssg63
g4302
sg56
(lp4310
g3906
(S't\x08\x00\x00\x00Overview'
tRp4311
asbasbag49
(g3989
g51
NtRp4312
(dp4313
g54
(dp4314
sg63
g4268
sg56
(lp4315
g49
(g3982
g51
NtRp4316
(dp4317
g54
(dp4318
g3988
S'http://www.web2py.com/book/default/chapter/04'
p4319
ssg63
g4312
sg56
(lp4320
g3906
(S's\x08\x00\x00\x00The Core'
tRp4321
asbasbag49
(g3989
g51
NtRp4322
(dp4323
g54
(dp4324
sg63
g4268
sg56
(lp4325
g49
(g3982
g51
NtRp4326
(dp4327
g54
(dp4328
g3988
S'http://www.web2py.com/book/default/chapter/05'
p4329
ssg63
g4322
sg56
(lp4330
g3906
(S's\t\x00\x00\x00The Views'
tRp4331
asbasbag49
(g3989
g51
NtRp4332
(dp4333
g54
(dp4334
sg63
g4268
sg56
(lp4335
g49
(g3982
g51
NtRp4336
(dp4337
g54
(dp4338
g3988
S'http://www.web2py.com/book/default/chapter/06'
p4339
ssg63
g4332
sg56
(lp4340
g3906
(S's\x0e\x00\x00\x00Banco de dados'
tRp4341
asbasbag49
(g3989
g51
NtRp4342
(dp4343
g54
(dp4344
sg63
g4268
sg56
(lp4345
g49
(g3982
g51
NtRp4346
(dp4347
g54
(dp4348
g3988
S'http://www.web2py.com/book/default/chapter/07'
p4349
ssg63
g4342
sg56
(lp4350
g3906
(S's\x14\x00\x00\x00Forms and Validators'
tRp4351
asbasbag49
(g3989
g51
NtRp4352
(dp4353
g54
(dp4354
sg63
g4268
sg56
(lp4355
g49
(g3982
g51
NtRp4356
(dp4357
g54
(dp4358
g3988
S'http://www.web2py.com/book/default/chapter/08'
p4359
ssg63
g4352
sg56
(lp4360
g3906
(S's\r\x00\x00\x00Email and SMS'
tRp4361
asbasbag49
(g3989
g51
NtRp4362
(dp4363
g54
(dp4364
sg63
g4268
sg56
(lp4365
g49
(g3982
g51
NtRp4366
(dp4367
g54
(dp4368
g3988
S'http://www.web2py.com/book/default/chapter/09'
p4369
ssg63
g4362
sg56
(lp4370
g3906
(S's\x0e\x00\x00\x00Access Control'
tRp4371
asbasbag49
(g3989
g51
NtRp4372
(dp4373
g54
(dp4374
sg63
g4268
sg56
(lp4375
g49
(g3982
g51
NtRp4376
(dp4377
g54
(dp4378
g3988
S'http://www.web2py.com/book/default/chapter/10'
p4379
ssg63
g4372
sg56
(lp4380
g3906
(S't\x08\x00\x00\x00Services'
tRp4381
asbasbag49
(g3989
g51
NtRp4382
(dp4383
g54
(dp4384
sg63
g4268
sg56
(lp4385
g49
(g3982
g51
NtRp4386
(dp4387
g54
(dp4388
g3988
S'http://www.web2py.com/book/default/chapter/11'
p4389
ssg63
g4382
sg56
(lp4390
g3906
(S's\x0c\x00\x00\x00Ajax Recipes'
tRp4391
asbasbag49
(g3989
g51
NtRp4392
(dp4393
g54
(dp4394
sg63
g4268
sg56
(lp4395
g49
(g3982
g51
NtRp4396
(dp4397
g54
(dp4398
g3988
S'http://www.web2py.com/book/default/chapter/12'
p4399
ssg63
g4392
sg56
(lp4400
g3906
(S's\x16\x00\x00\x00Components and Plugins'
tRp4401
asbasbag49
(g3989
g51
NtRp4402
(dp4403
g54
(dp4404
sg63
g4268
sg56
(lp4405
g49
(g3982
g51
NtRp4406
(dp4407
g54
(dp4408
g3988
S'http://www.web2py.com/book/default/chapter/13'
p4409
ssg63
g4402
sg56
(lp4410
g3906
(S's\x12\x00\x00\x00Deployment Recipes'
tRp4411
asbasbag49
(g3989
g51
NtRp4412
(dp4413
g54
(dp4414
sg63
g4268
sg56
(lp4415
g49
(g3982
g51
NtRp4416
(dp4417
g54
(dp4418
g3988
S'http://www.web2py.com/book/default/chapter/14'
p4419
ssg63
g4412
sg56
(lp4420
g3906
(S's\r\x00\x00\x00Other Recipes'
tRp4421
asbasbag49
(g3989
g51
NtRp4422
(dp4423
g54
(dp4424
sg63
g4268
sg56
(lp4425
g49
(g3982
g51
NtRp4426
(dp4427
g54
(dp4428
g3988
S'http://stores.lulu.com/web2py'
p4429
ssg63
g4422
sg56
(lp4430
g3906
(S's\r\x00\x00\x00Buy this book'
tRp4431
asbasbasbasbag49
(g3989
g51
NtRp4432
(dp4433
g54
(dp4434
g3993
g3994
ssg63
g4016
sg56
(lp4435
g49
(g3982
g51
NtRp4436
(dp4437
g54
(dp4438
g3986
g3987
sg3988
S'#'
ssg63
g4432
sg56
(lp4439
g3906
(S't\t\x00\x00\x00Community'
tRp4440
asbag49
(g3995
g51
NtRp4441
(dp4442
g54
(dp4443
g3993
g4003
ssg63
g4432
sg56
(lp4444
g49
(g3989
g51
NtRp4445
(dp4446
g54
(dp4447
sg63
g4441
sg56
(lp4448
g49
(g3982
g51
NtRp4449
(dp4450
g54
(dp4451
g3988
S'http://www.web2py.com/examples/default/usergroups'
p4452
ssg63
g4445
sg56
(lp4453
g3906
(S't\x06\x00\x00\x00Groups'
tRp4454
asbasbag49
(g3989
g51
NtRp4455
(dp4456
g54
(dp4457
sg63
g4441
sg56
(lp4458
g49
(g3982
g51
NtRp4459
(dp4460
g54
(dp4461
g3988
S'http://twitter.com/web2py'
p4462
ssg63
g4455
sg56
(lp4463
g3906
(S't\x07\x00\x00\x00Twitter'
tRp4464
asbasbag49
(g3989
g51
NtRp4465
(dp4466
g54
(dp4467
sg63
g4441
sg56
(lp4468
g49
(g3982
g51
NtRp4469
(dp4470
g54
(dp4471
g3988
S'http://webchat.freenode.net/?channels=web2py'
p4472
ssg63
g4465
sg56
(lp4473
g3906
(S's\t\x00\x00\x00Live Chat'
tRp4474
asbasbasbasbag49
(g3989
g51
NtRp4475
(dp4476
g54
(dp4477
g3993
g3994
ssg63
g4016
sg56
(lp4478
g49
(g3982
g51
NtRp4479
(dp4480
g54
(dp4481
g3986
g3987
sg3988
S'#'
ssg63
g4475
sg56
(lp4482
g3906
(S't\x07\x00\x00\x00Plugins'
tRp4483
asbag49
(g3995
g51
NtRp4484
(dp4485
g54
(dp4486
g3993
g4003
ssg63
g4475
sg56
(lp4487
g49
(g3989
g51
NtRp4488
(dp4489
g54
(dp4490
sg63
g4484
sg56
(lp4491
g49
(g3982
g51
NtRp4492
(dp4493
g54
(dp4494
g3988
S'http://web2py.com/examples/default/download'
p4495
ssg63
g4488
sg56
(lp4496
S'plugin_wiki'
p4497
asbasbag49
(g3989
g51
NtRp4498
(dp4499
g54
(dp4500
sg63
g4484
sg56
(lp4501
g49
(g3982
g51
NtRp4502
(dp4503
g54
(dp4504
g3988
g4225
ssg63
g4498
sg56
(lp4505
g3906
(S's\r\x00\x00\x00Other Plugins'
tRp4506
asbasbag49
(g3989
g51
NtRp4507
(dp4508
g54
(dp4509
sg63
g4484
sg56
(lp4510
g49
(g3982
g51
NtRp4511
(dp4512
g54
(dp4513
g3988
g4235
ssg63
g4507
sg56
(lp4514
g3906
(S's\x0e\x00\x00\x00Layout Plugins'
tRp4515
asbasbasbasbasbasbsg56
(lp4516
g3978
asbsg56
(lp4517
g3852
asbasbasbasbag49
(g65
g51
NtRp4518
(dp4519
g54
(dp4520
sg63
g3961
sg56
(lp4521
g49
(g70
g51
NtRp4522
(dp4523
g54
(dp4524
sg63
g4518
sg56
(lp4525
g49
(g50
g51
NtRp4526
(dp4527
g54
(dp4528
g62
I3
ssg63
g4522
sg56
(lp4529
g92
asbasbasbag49
(g65
g51
NtRp4530
(dp4531
g54
(dp4532
sg63
g3961
sg56
(lp4533
g49
(g70
g51
NtRp4534
(dp4535
g54
(dp4536
sg63
g4530
sg56
(lp4537
g49
(g50
g51
NtRp4538
(dp4539
g54
(dp4540
g62
I3
ssg63
g4534
sg56
(lp4541
S'None'
p4542
asbasbasbag49
(g65
g51
NtRp4543
(dp4544
g54
(dp4545
sg63
g3961
sg56
(lp4546
g49
(g70
g51
NtRp4547
(dp4548
g54
(dp4549
sg63
g4543
sg56
(lp4550
g49
(g50
g51
NtRp4551
(dp4552
g54
(dp4553
g62
I3
ssg63
g4547
sg56
(lp4554
g49
(g58
g51
NtRp4555
(dp4556
g54
(dp4557
g62
I2
ssg63
Nsg56
(lp4558
g49
(g65
g51
NtRp4559
(dp4560
g54
(dp4561
sg63
g4555
sg56
(lp4562
g49
(g70
g51
NtRp4563
(dp4564
g54
(dp4565
sg63
g4559
sg56
(lp4566
g49
(g50
g51
NtRp4567
(dp4568
g54
(dp4569
g62
I2
ssg63
g4563
sg56
(lp4570
g49
(g58
g51
NtRp4571
(dp4572
g54
(dp4573
g62
I1
ssg63
Nsg56
(lp4574
g49
(g65
g51
NtRp4575
(dp4576
g54
(dp4577
sg63
g4571
sg56
(lp4578
g49
(g70
g51
NtRp4579
(dp4580
g54
(dp4581
sg63
g4575
sg56
(lp4582
g49
(g50
g51
NtRp4583
(dp4584
g54
(dp4585
g62
I1
ssg63
g4579
sg56
(lp4586
g4029
asbasbasbag49
(g65
g51
NtRp4587
(dp4588
g54
(dp4589
sg63
g4571
sg56
(lp4590
g49
(g70
g51
NtRp4591
(dp4592
g54
(dp4593
sg63
g4587
sg56
(lp4594
g49
(g50
g51
NtRp4595
(dp4596
g54
(dp4597
g62
I1
ssg63
g4591
sg56
(lp4598
I00
asbasbasbag49
(g65
g51
NtRp4599
(dp4600
g54
(dp4601
sg63
g4571
sg56
(lp4602
g49
(g70
g51
NtRp4603
(dp4604
g54
(dp4605
sg63
g4599
sg56
(lp4606
g49
(g50
g51
NtRp4607
(dp4608
g54
(dp4609
g62
I1
ssg63
g4603
sg56
(lp4610
g4027
asbasbasbasbasbasbasbag49
(g65
g51
NtRp4611
(dp4612
g54
(dp4613
sg63
g4555
sg56
(lp4614
g49
(g70
g51
NtRp4615
(dp4616
g54
(dp4617
sg63
g4611
sg56
(lp4618
g49
(g50
g51
NtRp4619
(dp4620
g54
(dp4621
g62
I2
ssg63
g4615
sg56
(lp4622
g49
(g58
g51
NtRp4623
(dp4624
g54
(dp4625
g62
I1
ssg63
Nsg56
(lp4626
g49
(g65
g51
NtRp4627
(dp4628
g54
(dp4629
sg63
g4623
sg56
(lp4630
g49
(g70
g51
NtRp4631
(dp4632
g54
(dp4633
sg63
g4627
sg56
(lp4634
g49
(g50
g51
NtRp4635
(dp4636
g54
(dp4637
g62
I1
ssg63
g4631
sg56
(lp4638
g4039
asbasbasbag49
(g65
g51
NtRp4639
(dp4640
g54
(dp4641
sg63
g4623
sg56
(lp4642
g49
(g70
g51
NtRp4643
(dp4644
g54
(dp4645
sg63
g4639
sg56
(lp4646
g49
(g50
g51
NtRp4647
(dp4648
g54
(dp4649
g62
I1
ssg63
g4643
sg56
(lp4650
I00
asbasbasbag49
(g65
g51
NtRp4651
(dp4652
g54
(dp4653
sg63
g4623
sg56
(lp4654
g49
(g70
g51
NtRp4655
(dp4656
g54
(dp4657
sg63
g4651
sg56
(lp4658
g49
(g50
g51
NtRp4659
(dp4660
g54
(dp4661
g62
I1
ssg63
g4655
sg56
(lp4662
g4037
asbasbasbag49
(g65
g51
NtRp4663
(dp4664
g54
(dp4665
sg63
g4623
sg56
(lp4666
g49
(g70
g51
NtRp4667
(dp4668
g54
(dp4669
sg63
g4663
sg56
(lp4670
g49
(g50
g51
NtRp4671
(dp4672
g54
(dp4673
g62
I1
ssg63
g4667
sg56
(lp4674
(lp4675
(g4053
I00
g4051
tp4676
a(g4063
I00
g4061
tp4677
a(g4073
I00
g4071
tp4678
a(g4083
I00
g4081
tp4679
a(g4093
I00
g4091
tp4680
a(g4103
I00
g4101
tp4681
a(g4113
I00
g4111
tp4682
a(g4123
I00
g4121
tp4683
a(g4133
I00
g4131
tp4684
aasbasbasbasbasbasbasbag49
(g65
g51
NtRp4685
(dp4686
g54
(dp4687
sg63
g4555
sg56
(lp4688
g49
(g70
g51
NtRp4689
(dp4690
g54
(dp4691
sg63
g4685
sg56
(lp4692
g49
(g50
g51
NtRp4693
(dp4694
g54
(dp4695
g62
I2
ssg63
g4689
sg56
(lp4696
g49
(g58
g51
NtRp4697
(dp4698
g54
(dp4699
g62
I1
ssg63
Nsg56
(lp4700
g49
(g65
g51
NtRp4701
(dp4702
g54
(dp4703
sg63
g4697
sg56
(lp4704
g49
(g70
g51
NtRp4705
(dp4706
g54
(dp4707
sg63
g4701
sg56
(lp4708
g49
(g50
g51
NtRp4709
(dp4710
g54
(dp4711
g62
I1
ssg63
g4705
sg56
(lp4712
g4143
asbasbasbag49
(g65
g51
NtRp4713
(dp4714
g54
(dp4715
sg63
g4697
sg56
(lp4716
g49
(g70
g51
NtRp4717
(dp4718
g54
(dp4719
sg63
g4713
sg56
(lp4720
g49
(g50
g51
NtRp4721
(dp4722
g54
(dp4723
g62
I1
ssg63
g4717
sg56
(lp4724
I00
asbasbasbag49
(g65
g51
NtRp4725
(dp4726
g54
(dp4727
sg63
g4697
sg56
(lp4728
g49
(g70
g51
NtRp4729
(dp4730
g54
(dp4731
sg63
g4725
sg56
(lp4732
g49
(g50
g51
NtRp4733
(dp4734
g54
(dp4735
g62
I1
ssg63
g4729
sg56
(lp4736
g4141
asbasbasbag49
(g65
g51
NtRp4737
(dp4738
g54
(dp4739
sg63
g4697
sg56
(lp4740
g49
(g70
g51
NtRp4741
(dp4742
g54
(dp4743
sg63
g4737
sg56
(lp4744
g49
(g50
g51
NtRp4745
(dp4746
g54
(dp4747
g62
I1
ssg63
g4741
sg56
(lp4748
(lp4749
(g4157
I00
g4155
tp4750
a(g4167
I00
g4165
tp4751
a(g4177
I00
g4175
tp4752
a(g4187
I00
g4185
tp4753
a(g4197
I00
g4195
tp4754
a(g4207
I00
g4205
tp4755
a(g4217
I00
g4215
tp4756
a(g4227
I00
g4225
tp4757
a(g4237
I00
g4235
tp4758
a(g4247
I00
g4245
tp4759
a(g4257
I00
g4255
tp4760
aasbasbasbasbasbasbasbag49
(g65
g51
NtRp4761
(dp4762
g54
(dp4763
sg63
g4555
sg56
(lp4764
g49
(g70
g51
NtRp4765
(dp4766
g54
(dp4767
sg63
g4761
sg56
(lp4768
g49
(g50
g51
NtRp4769
(dp4770
g54
(dp4771
g62
I2
ssg63
g4765
sg56
(lp4772
g49
(g58
g51
NtRp4773
(dp4774
g54
(dp4775
g62
I1
ssg63
Nsg56
(lp4776
g49
(g65
g51
NtRp4777
(dp4778
g54
(dp4779
sg63
g4773
sg56
(lp4780
g49
(g70
g51
NtRp4781
(dp4782
g54
(dp4783
sg63
g4777
sg56
(lp4784
g49
(g50
g51
NtRp4785
(dp4786
g54
(dp4787
g62
I1
ssg63
g4781
sg56
(lp4788
g4267
asbasbasbag49
(g65
g51
NtRp4789
(dp4790
g54
(dp4791
sg63
g4773
sg56
(lp4792
g49
(g70
g51
NtRp4793
(dp4794
g54
(dp4795
sg63
g4789
sg56
(lp4796
g49
(g50
g51
NtRp4797
(dp4798
g54
(dp4799
g62
I1
ssg63
g4793
sg56
(lp4800
I00
asbasbasbag49
(g65
g51
NtRp4801
(dp4802
g54
(dp4803
sg63
g4773
sg56
(lp4804
g49
(g70
g51
NtRp4805
(dp4806
g54
(dp4807
sg63
g4801
sg56
(lp4808
g49
(g50
g51
NtRp4809
(dp4810
g54
(dp4811
g62
I1
ssg63
g4805
sg56
(lp4812
g4265
asbasbasbag49
(g65
g51
NtRp4813
(dp4814
g54
(dp4815
sg63
g4773
sg56
(lp4816
g49
(g70
g51
NtRp4817
(dp4818
g54
(dp4819
sg63
g4813
sg56
(lp4820
g49
(g50
g51
NtRp4821
(dp4822
g54
(dp4823
g62
I1
ssg63
g4817
sg56
(lp4824
(lp4825
(g4281
I00
g4279
tp4826
a(g4291
I00
g4289
tp4827
a(g4301
I00
g4299
tp4828
a(g4311
I00
g4309
tp4829
a(g4321
I00
g4319
tp4830
a(g4331
I00
g4329
tp4831
a(g4341
I00
g4339
tp4832
a(g4351
I00
g4349
tp4833
a(g4361
I00
g4359
tp4834
a(g4371
I00
g4369
tp4835
a(g4381
I00
g4379
tp4836
a(g4391
I00
g4389
tp4837
a(g4401
I00
g4399
tp4838
a(g4411
I00
g4409
tp4839
a(g4421
I00
g4419
tp4840
a(g4431
I00
g4429
tp4841
aasbasbasbasbasbasbasbag49
(g65
g51
NtRp4842
(dp4843
g54
(dp4844
sg63
g4555
sg56
(lp4845
g49
(g70
g51
NtRp4846
(dp4847
g54
(dp4848
sg63
g4842
sg56
(lp4849
g49
(g50
g51
NtRp4850
(dp4851
g54
(dp4852
g62
I2
ssg63
g4846
sg56
(lp4853
g49
(g58
g51
NtRp4854
(dp4855
g54
(dp4856
g62
I1
ssg63
Nsg56
(lp4857
g49
(g65
g51
NtRp4858
(dp4859
g54
(dp4860
sg63
g4854
sg56
(lp4861
g49
(g70
g51
NtRp4862
(dp4863
g54
(dp4864
sg63
g4858
sg56
(lp4865
g49
(g50
g51
NtRp4866
(dp4867
g54
(dp4868
g62
I1
ssg63
g4862
sg56
(lp4869
g4440
asbasbasbag49
(g65
g51
NtRp4870
(dp4871
g54
(dp4872
sg63
g4854
sg56
(lp4873
g49
(g70
g51
NtRp4874
(dp4875
g54
(dp4876
sg63
g4870
sg56
(lp4877
g49
(g50
g51
NtRp4878
(dp4879
g54
(dp4880
g62
I1
ssg63
g4874
sg56
(lp4881
I00
asbasbasbag49
(g65
g51
NtRp4882
(dp4883
g54
(dp4884
sg63
g4854
sg56
(lp4885
g49
(g70
g51
NtRp4886
(dp4887
g54
(dp4888
sg63
g4882
sg56
(lp4889
g49
(g50
g51
NtRp4890
(dp4891
g54
(dp4892
g62
I1
ssg63
g4886
sg56
(lp4893
Nasbasbasbag49
(g65
g51
NtRp4894
(dp4895
g54
(dp4896
sg63
g4854
sg56
(lp4897
g49
(g70
g51
NtRp4898
(dp4899
g54
(dp4900
sg63
g4894
sg56
(lp4901
g49
(g50
g51
NtRp4902
(dp4903
g54
(dp4904
g62
I1
ssg63
g4898
sg56
(lp4905
(lp4906
(g4454
I00
g4452
tp4907
a(g4464
I00
g4462
tp4908
a(g4474
I00
g4472
tp4909
aasbasbasbasbasbasbasbag49
(g65
g51
NtRp4910
(dp4911
g54
(dp4912
sg63
g4555
sg56
(lp4913
g49
(g70
g51
NtRp4914
(dp4915
g54
(dp4916
sg63
g4910
sg56
(lp4917
g49
(g50
g51
NtRp4918
(dp4919
g54
(dp4920
g62
I2
ssg63
g4914
sg56
(lp4921
g49
(g58
g51
NtRp4922
(dp4923
g54
(dp4924
g62
I1
ssg63
Nsg56
(lp4925
g49
(g65
g51
NtRp4926
(dp4927
g54
(dp4928
sg63
g4922
sg56
(lp4929
g49
(g70
g51
NtRp4930
(dp4931
g54
(dp4932
sg63
g4926
sg56
(lp4933
g49
(g50
g51
NtRp4934
(dp4935
g54
(dp4936
g62
I1
ssg63
g4930
sg56
(lp4937
g4483
asbasbasbag49
(g65
g51
NtRp4938
(dp4939
g54
(dp4940
sg63
g4922
sg56
(lp4941
g49
(g70
g51
NtRp4942
(dp4943
g54
(dp4944
sg63
g4938
sg56
(lp4945
g49
(g50
g51
NtRp4946
(dp4947
g54
(dp4948
g62
I1
ssg63
g4942
sg56
(lp4949
I00
asbasbasbag49
(g65
g51
NtRp4950
(dp4951
g54
(dp4952
sg63
g4922
sg56
(lp4953
g49
(g70
g51
NtRp4954
(dp4955
g54
(dp4956
sg63
g4950
sg56
(lp4957
g49
(g50
g51
NtRp4958
(dp4959
g54
(dp4960
g62
I1
ssg63
g4954
sg56
(lp4961
Nasbasbasbag49
(g65
g51
NtRp4962
(dp4963
g54
(dp4964
sg63
g4922
sg56
(lp4965
g49
(g70
g51
NtRp4966
(dp4967
g54
(dp4968
sg63
g4962
sg56
(lp4969
g49
(g50
g51
NtRp4970
(dp4971
g54
(dp4972
g62
I1
ssg63
g4966
sg56
(lp4973
(lp4974
(g4497
I00
g4495
tp4975
a(g4506
I00
g4225
tp4976
a(g4515
I00
g4235
tp4977
aasbasbasbasbasbasbasbasbasbasbasbasbasbasbasbasbasbasbasbag49
(g65
g51
NtRp4978
(dp4979
g54
(dp4980
sg63
g3278
sg56
(lp4981
g49
(g70
g51
NtRp4982
(dp4983
g54
(dp4984
g74
g75
ssg63
g4978
sg56
(lp4985
S'meta'
p4986
asbag49
(g70
g51
NtRp4987
(dp4988
g54
(dp4989
g81
g82
ssg63
g4978
sg56
(lp4990
S':'
asbag49
(g70
g51
NtRp4991
(dp4992
g54
(dp4993
sg63
g4978
sg56
(lp4994
g49
(g50
g51
NtRp4995
(dp4996
g54
(dp4997
g62
I5
ssg63
g4991
sg56
(lp4998
g49
(g58
g51
NtRp4999
(dp5000
g54
(dp5001
g62
I4
ssg63
Nsg56
(lp5002
g49
(g65
g51
NtRp5003
(dp5004
g54
(dp5005
sg63
g4999
sg56
(lp5006
g49
(g70
g51
NtRp5007
(dp5008
g54
(dp5009
g74
g75
ssg63
g5003
sg56
(lp5010
S'author'
p5011
asbag49
(g70
g51
NtRp5012
(dp5013
g54
(dp5014
g81
g82
ssg63
g5003
sg56
(lp5015
S':'
asbag49
(g70
g51
NtRp5016
(dp5017
g54
(dp5018
sg63
g5003
sg56
(lp5019
g49
(g50
g51
NtRp5020
(dp5021
g54
(dp5022
g62
I4
ssg63
g5016
sg56
(lp5023
S'Your Name <you@example.com>'
p5024
asbasbasbag49
(g65
g51
NtRp5025
(dp5026
g54
(dp5027
sg63
g4999
sg56
(lp5028
g49
(g70
g51
NtRp5029
(dp5030
g54
(dp5031
g74
g75
ssg63
g5025
sg56
(lp5032
S'copyright'
p5033
asbag49
(g70
g51
NtRp5034
(dp5035
g54
(dp5036
g81
g82
ssg63
g5025
sg56
(lp5037
S':'
asbag49
(g70
g51
NtRp5038
(dp5039
g54
(dp5040
sg63
g5025
sg56
(lp5041
g49
(g50
g51
NtRp5042
(dp5043
g54
(dp5044
g62
I4
ssg63
g5038
sg56
(lp5045
S'Copyright 2011'
p5046
asbasbasbag49
(g65
g51
NtRp5047
(dp5048
g54
(dp5049
sg63
g4999
sg56
(lp5050
g49
(g70
g51
NtRp5051
(dp5052
g54
(dp5053
g74
g75
ssg63
g5047
sg56
(lp5054
S'description'
p5055
asbag49
(g70
g51
NtRp5056
(dp5057
g54
(dp5058
g81
g82
ssg63
g5047
sg56
(lp5059
S':'
asbag49
(g70
g51
NtRp5060
(dp5061
g54
(dp5062
sg63
g5047
sg56
(lp5063
g49
(g50
g51
NtRp5064
(dp5065
g54
(dp5066
g62
I4
ssg63
g5060
sg56
(lp5067
S'a cool new app'
p5068
asbasbasbag49
(g65
g51
NtRp5069
(dp5070
g54
(dp5071
sg63
g4999
sg56
(lp5072
g49
(g70
g51
NtRp5073
(dp5074
g54
(dp5075
g74
g75
ssg63
g5069
sg56
(lp5076
S'generator'
p5077
asbag49
(g70
g51
NtRp5078
(dp5079
g54
(dp5080
g81
g82
ssg63
g5069
sg56
(lp5081
S':'
asbag49
(g70
g51
NtRp5082
(dp5083
g54
(dp5084
sg63
g5069
sg56
(lp5085
g49
(g50
g51
NtRp5086
(dp5087
g54
(dp5088
g62
I4
ssg63
g5082
sg56
(lp5089
S'Web2py Web Framework'
p5090
asbasbasbag49
(g65
g51
NtRp5091
(dp5092
g54
(dp5093
sg63
g4999
sg56
(lp5094
g49
(g70
g51
NtRp5095
(dp5096
g54
(dp5097
g74
g75
ssg63
g5091
sg56
(lp5098
S'keywords'
p5099
asbag49
(g70
g51
NtRp5100
(dp5101
g54
(dp5102
g81
g82
ssg63
g5091
sg56
(lp5103
S':'
asbag49
(g70
g51
NtRp5104
(dp5105
g54
(dp5106
sg63
g5091
sg56
(lp5107
g49
(g50
g51
NtRp5108
(dp5109
g54
(dp5110
g62
I4
ssg63
g5104
sg56
(lp5111
S'web2py, python, framework'
p5112
asbasbasbasbasbasbasbag49
(g65
g51
NtRp5113
(dp5114
g54
(dp5115
sg63
g3278
sg56
(lp5116
g49
(g70
g51
NtRp5117
(dp5118
g54
(dp5119
g74
g75
ssg63
g5113
sg56
(lp5120
S'postprocessing'
p5121
asbag49
(g70
g51
NtRp5122
(dp5123
g54
(dp5124
g81
g82
ssg63
g5113
sg56
(lp5125
S':'
asbag49
(g70
g51
NtRp5126
(dp5127
g54
(dp5128
sg63
g5113
sg56
(lp5129
g49
(g50
g51
NtRp5130
(dp5131
g54
(dp5132
g62
I5
ssg63
g5126
sg56
(lp5133
g49
(g58
g51
NtRp5134
(dp5135
g54
(dp5136
g62
I4
ssg63
Nsg56
(lp5137
sbasbasbasbag49
(g65
g51
NtRp5138
(dp5139
g54
(dp5140
sg63
g3278
sg56
(lp5141
g49
(g70
g51
NtRp5142
(dp5143
g54
(dp5144
g74
g75
ssg63
g5138
sg56
(lp5145
S'session_file'
p5146
asbag49
(g70
g51
NtRp5147
(dp5148
g54
(dp5149
g81
g82
ssg63
g5138
sg56
(lp5150
S':'
asbag49
(g70
g51
NtRp5151
(dp5152
g54
(dp5153
sg63
g5138
sg56
(lp5154
g49
(g50
g51
NtRp5155
(dp5156
g54
(dp5157
g62
I5
ssg63
g5151
sg56
(lp5158
S"<open file 'C:\\web2py\\applications\\unioeste_code\\sessions\\127.0.0.1-ac0e57bf-2a61-4ff7-b75a-c2e830b4787a', mode 'rb+' at 0x06956BF0>"
p5159
asbasbasbag49
(g65
g51
NtRp5160
(dp5161
g54
(dp5162
sg63
g3278
sg56
(lp5163
g49
(g70
g51
NtRp5164
(dp5165
g54
(dp5166
g74
g75
ssg63
g5160
sg56
(lp5167
S'session_filename'
p5168
asbag49
(g70
g51
NtRp5169
(dp5170
g54
(dp5171
g81
g82
ssg63
g5160
sg56
(lp5172
S':'
asbag49
(g70
g51
NtRp5173
(dp5174
g54
(dp5175
sg63
g5160
sg56
(lp5176
g49
(g50
g51
NtRp5177
(dp5178
g54
(dp5179
g62
I5
ssg63
g5173
sg56
(lp5180
S'C:\\web2py\\applications\\unioeste_code\\sessions\\127.0.0.1-ac0e57bf-2a61-4ff7-b75a-c2e830b4787a'
p5181
asbasbasbag49
(g65
g51
NtRp5182
(dp5183
g54
(dp5184
sg63
g3278
sg56
(lp5185
g49
(g70
g51
NtRp5186
(dp5187
g54
(dp5188
g74
g75
ssg63
g5182
sg56
(lp5189
S'session_id'
p5190
asbag49
(g70
g51
NtRp5191
(dp5192
g54
(dp5193
g81
g82
ssg63
g5182
sg56
(lp5194
S':'
asbag49
(g70
g51
NtRp5195
(dp5196
g54
(dp5197
sg63
g5182
sg56
(lp5198
g49
(g50
g51
NtRp5199
(dp5200
g54
(dp5201
g62
I5
ssg63
g5195
sg56
(lp5202
S'127.0.0.1-ac0e57bf-2a61-4ff7-b75a-c2e830b4787a'
p5203
asbasbasbag49
(g65
g51
NtRp5204
(dp5205
g54
(dp5206
sg63
g3278
sg56
(lp5207
g49
(g70
g51
NtRp5208
(dp5209
g54
(dp5210
g74
g75
ssg63
g5204
sg56
(lp5211
S'session_id_name'
p5212
asbag49
(g70
g51
NtRp5213
(dp5214
g54
(dp5215
g81
g82
ssg63
g5204
sg56
(lp5216
S':'
asbag49
(g70
g51
NtRp5217
(dp5218
g54
(dp5219
sg63
g5204
sg56
(lp5220
g49
(g50
g51
NtRp5221
(dp5222
g54
(dp5223
g62
I5
ssg63
g5217
sg56
(lp5224
g3335
asbasbasbag49
(g65
g51
NtRp5225
(dp5226
g54
(dp5227
sg63
g3278
sg56
(lp5228
g49
(g70
g51
NtRp5229
(dp5230
g54
(dp5231
g74
g75
ssg63
g5225
sg56
(lp5232
S'session_locked'
p5233
asbag49
(g70
g51
NtRp5234
(dp5235
g54
(dp5236
g81
g82
ssg63
g5225
sg56
(lp5237
S':'
asbag49
(g70
g51
NtRp5238
(dp5239
g54
(dp5240
sg63
g5225
sg56
(lp5241
g49
(g50
g51
NtRp5242
(dp5243
g54
(dp5244
g62
I5
ssg63
g5238
sg56
(lp5245
g1477
asbasbasbag49
(g65
g51
NtRp5246
(dp5247
g54
(dp5248
sg63
g3278
sg56
(lp5249
g49
(g70
g51
NtRp5250
(dp5251
g54
(dp5252
g74
g75
ssg63
g5246
sg56
(lp5253
S'session_new'
p5254
asbag49
(g70
g51
NtRp5255
(dp5256
g54
(dp5257
g81
g82
ssg63
g5246
sg56
(lp5258
S':'
asbag49
(g70
g51
NtRp5259
(dp5260
g54
(dp5261
sg63
g5246
sg56
(lp5262
g49
(g50
g51
NtRp5263
(dp5264
g54
(dp5265
g62
I5
ssg63
g5259
sg56
(lp5266
g92
asbasbasbag49
(g65
g51
NtRp5267
(dp5268
g54
(dp5269
sg63
g3278
sg56
(lp5270
g49
(g70
g51
NtRp5271
(dp5272
g54
(dp5273
g74
g75
ssg63
g5267
sg56
(lp5274
S'status'
p5275
asbag49
(g70
g51
NtRp5276
(dp5277
g54
(dp5278
g81
g82
ssg63
g5267
sg56
(lp5279
S':'
asbag49
(g70
g51
NtRp5280
(dp5281
g54
(dp5282
sg63
g5267
sg56
(lp5283
g49
(g50
g51
NtRp5284
(dp5285
g54
(dp5286
g62
I5
ssg63
g5280
sg56
(lp5287
S'200'
p5288
asbasbasbag49
(g65
g51
NtRp5289
(dp5290
g54
(dp5291
sg63
g3278
sg56
(lp5292
g49
(g70
g51
NtRp5293
(dp5294
g54
(dp5295
g74
g75
ssg63
g5289
sg56
(lp5296
S'subtitle'
p5297
asbag49
(g70
g51
NtRp5298
(dp5299
g54
(dp5300
g81
g82
ssg63
g5289
sg56
(lp5301
S':'
asbag49
(g70
g51
NtRp5302
(dp5303
g54
(dp5304
sg63
g5289
sg56
(lp5305
g49
(g50
g51
NtRp5306
(dp5307
g54
(dp5308
g62
I5
ssg63
g5302
sg56
(lp5309
g3906
(S's\x0f\x00\x00\x00Personalize-me!'
tRp5310
asbasbasbag49
(g65
g51
NtRp5311
(dp5312
g54
(dp5313
sg63
g3278
sg56
(lp5314
g49
(g70
g51
NtRp5315
(dp5316
g54
(dp5317
g74
g75
ssg63
g5311
sg56
(lp5318
S'title'
p5319
asbag49
(g70
g51
NtRp5320
(dp5321
g54
(dp5322
g81
g82
ssg63
g5311
sg56
(lp5323
S':'
asbag49
(g70
g51
NtRp5324
(dp5325
g54
(dp5326
sg63
g5311
sg56
(lp5327
g49
(g50
g51
NtRp5328
(dp5329
g54
(dp5330
g62
I5
ssg63
g5324
sg56
(lp5331
S'Unioeste Code'
p5332
asbasbasbag49
(g65
g51
NtRp5333
(dp5334
g54
(dp5335
sg63
g3278
sg56
(lp5336
g49
(g70
g51
NtRp5337
(dp5338
g54
(dp5339
g74
g75
ssg63
g5333
sg56
(lp5340
g2162
asbag49
(g70
g51
NtRp5341
(dp5342
g54
(dp5343
g81
g82
ssg63
g5333
sg56
(lp5344
S':'
asbag49
(g70
g51
NtRp5345
(dp5346
g54
(dp5347
sg63
g5333
sg56
(lp5348
g49
(g50
g51
NtRp5349
(dp5350
g54
(dp5351
g62
I5
ssg63
g5345
sg56
(lp5352
g2175
asbasbasbag49
(g65
g51
NtRp5353
(dp5354
g54
(dp5355
sg63
g3278
sg56
(lp5356
g49
(g70
g51
NtRp5357
(dp5358
g54
(dp5359
g74
g75
ssg63
g5353
sg56
(lp5360
S'view'
p5361
asbag49
(g70
g51
NtRp5362
(dp5363
g54
(dp5364
g81
g82
ssg63
g5353
sg56
(lp5365
S':'
asbag49
(g70
g51
NtRp5366
(dp5367
g54
(dp5368
sg63
g5353
sg56
(lp5369
g49
(g50
g51
NtRp5370
(dp5371
g54
(dp5372
g62
I5
ssg63
g5366
sg56
(lp5373
S'default/Code.html'
p5374
asbasbasbasbasbsS'locals'
p5375
(dp5376
g6
S"<Row {'comment': <gluon.dal.Set object at 0x06E5...lete_record': <function <lambda> at 0x065BF870>}>"
p5377
sS'Service'
p5378
S"<class 'gluon.tools.Service'>"
p5379
sS'OBJECT'
p5380
S"<class 'gluon.html.OBJECT'>"
p5381
sS'SQLDB'
p5382
S"<class 'gluon.dal.DAL'>"
p5383
sg2884
S"<Storage {'_formkey[comment/create]': '0c8fbf7e-...login]': 'afa3c9cc-3e7d-4a8a-abd8-f04efdb78352'}>"
p5384
sS'LINK'
p5385
S"<class 'gluon.html.LINK'>"
p5386
sS'Auth'
p5387
S"<class 'gluon.tools.Auth'>"
p5388
sS'BR'
p5389
S"<class 'gluon.html.BR'>"
p5390
sS'local_import'
p5391
S'<function <lambda> at 0x06454770>'
p5392
sS'OPTGROUP'
p5393
S"<class 'gluon.html.OPTGROUP'>"
p5394
sS'PRE'
p5395
S"<class 'gluon.html.PRE'>"
p5396
sS'IS_INT_IN_RANGE'
p5397
S"<class 'gluon.validators.IS_INT_IN_RANGE'>"
p5398
sS'left_sidebar_enabled'
p5399
g92
sS'IS_LOWER'
p5400
S"<class 'gluon.validators.IS_LOWER'>"
p5401
sS'IS_STRONG'
p5402
S"<class 'gluon.validators.IS_STRONG'>"
p5403
sS'Recaptcha'
p5404
S"<class 'gluon.tools.Recaptcha'>"
p5405
sS'cache'
p5406
S'<gluon.cache.Cache object at 0x060D6790>'
p5407
sS'IS_IN_DB'
p5408
S"<class 'gluon.validators.IS_IN_DB'>"
p5409
sS'TAG'
p5410
S'<gluon.html.__TAG__ object at 0x026CBE30>'
p5411
sS'SQLField'
p5412
S"<class 'gluon.dal.Field'>"
p5413
sS'BODY'
p5414
S"<class 'gluon.html.BODY'>"
p5415
sS'IS_DATE_IN_RANGE'
p5416
S"<class 'gluon.validators.IS_DATE_IN_RANGE'>"
p5417
sS'TH'
p5418
S"<class 'gluon.html.TH'>"
p5419
sS'URL'
p5420
S'<function URL at 0x0272D8F0>'
p5421
sS'__file__'
p5422
S"r'C:\\web2py\\applications\\unioeste_code\\views\\default/Code.html'"
p5423
sS'db'
p5424
S"<DAL {'comment': <Table {'body': <gluon.dal.Fiel...object at 0x061B9BF0>, '_singular': 'Problem'}>}>"
p5425
sS'auth'
p5426
S'<gluon.tools.Auth object at 0x065D2830>'
p5427
sS'P'
S"<class 'gluon.html.P'>"
p5428
sS'TFOOT'
p5429
S"<class 'gluon.html.TFOOT'>"
p5430
sS'XHTML'
p5431
S"<class 'gluon.html.XHTML'>"
p5432
sS'ON'
p5433
g1477
sS'OL'
p5434
S"<class 'gluon.html.OL'>"
p5435
sS'TEXTAREA'
p5436
S"<class 'gluon.html.TEXTAREA'>"
p5437
sS'MENU'
p5438
S"<class 'gluon.html.MENU'>"
p5439
sS'LOAD'
p5440
S'<function LOAD at 0x029A54B0>'
p5441
sS'CODE'
p5442
S"<class 'gluon.html.CODE'>"
p5443
sS'HTTP'
p5444
S"<class 'gluon.http.HTTP'>"
p5445
sS'HR'
p5446
S"<class 'gluon.html.HR'>"
p5447
sS'IS_DATETIME'
p5448
S"<class 'gluon.validators.IS_DATETIME'>"
p5449
sS'HEAD'
p5450
S"<class 'gluon.html.HEAD'>"
p5451
sS'LABEL'
p5452
S"<class 'gluon.html.LABEL'>"
p5453
sS'CLEANUP'
p5454
S"<class 'gluon.validators.CLEANUP'>"
p5455
sS'SELECT'
p5456
S"<class 'gluon.html.SELECT'>"
p5457
sS'CENTER'
p5458
S"<class 'gluon.html.CENTER'>"
p5459
sS'prettydate'
p5460
S'<function prettydate at 0x031EEEF0>'
p5461
sS'Crud'
p5462
S"<class 'gluon.tools.Crud'>"
p5463
sS'comments'
p5464
S'<gluon.dal.Rows object at 0x065B0D10>'
p5465
sS'__builtins__'
p5466
S"{'ArithmeticError': <type 'exceptions.ArithmeticError'>, 'AssertionError': <type 'exceptions.AssertionError'>, 'AttributeError': <type 'exceptions.AttributeError'>, 'BaseException': <type 'exceptions.BaseException'>, 'DeprecationWarning': <type 'exceptions.DeprecationWarning'>, 'EOFError': <type 'exceptions.EOFError'>, 'Ellipsis': Ellipsis, 'EnvironmentError': <type 'exceptions.EnvironmentError'>, 'Exception': <type 'exceptions.Exception'>, 'False': False, ...}"
p5467
sS'HTML'
p5468
S"<class 'gluon.html.HTML'>"
p5469
sS'SQLFORM'
p5470
S"<class 'gluon.sqlhtml.SQLFORM'>"
p5471
sS'EM'
p5472
S"<class 'gluon.html.EM'>"
p5473
sS'redirect'
p5474
S'<function redirect at 0x023E8F70>'
p5475
sS'FIELDSET'
p5476
S"<class 'gluon.html.FIELDSET'>"
p5477
sS'IS_EQUAL_TO'
p5478
S"<class 'gluon.validators.IS_EQUAL_TO'>"
p5479
sS'embed64'
p5480
S'<function embed64 at 0x02731430>'
p5481
sS'base'
p5482
S"<module 'applications.unioeste_code.modules.base' from 'applications\\unioeste_code\\modules\\base.py'>"
p5483
sS'IS_LIST_OF'
p5484
S"<class 'gluon.validators.IS_LIST_OF'>"
p5485
sS'__name__'
p5486
S"'__restricted__'"
p5487
sS'EMBED'
p5488
S"<class 'gluon.html.EMBED'>"
p5489
sS'_'
S'<function _ at 0x065BFC70>'
p5490
sS'FORM'
p5491
S"<class 'gluon.html.FORM'>"
p5492
sS'H2'
p5493
S"<class 'gluon.html.H2'>"
p5494
sS'H3'
p5495
S"<class 'gluon.html.H3'>"
p5496
sS'BUTTON'
p5497
S"<class 'gluon.html.BUTTON'>"
p5498
sS'H1'
p5499
S"<class 'gluon.html.H1'>"
p5500
sS'H6'
p5501
S"<class 'gluon.html.H6'>"
p5502
sS'H4'
p5503
S"<class 'gluon.html.H4'>"
p5504
sS'H5'
p5505
S"<class 'gluon.html.H5'>"
p5506
sS'UL'
p5507
S"<class 'gluon.html.UL'>"
p5508
sS's'
S"'Pedro Lacerda - (scmirror1@gmail.com)'"
p5509
sS'IS_UPPER'
p5510
S"<class 'gluon.validators.IS_UPPER'>"
p5511
sS'xmlescape'
p5512
S'<function xmlescape at 0x0272D870>'
p5513
sS'IS_TIME'
p5514
S"<class 'gluon.validators.IS_TIME'>"
p5515
sg275
S"<Row {'body': 'BULLSHIT!', 'code_id': 2, 'update...lete_record': <function <lambda> at 0x065BF9F0>}>"
p5516
sS'OPTION'
p5517
S"<class 'gluon.html.OPTION'>"
p5518
sS'TITLE'
p5519
S"<class 'gluon.html.TITLE'>"
p5520
sS'CRYPT'
p5521
S"<class 'gluon.validators.CRYPT'>"
p5522
sS'IS_EMPTY_OR'
p5523
S"<class 'gluon.validators.IS_EMPTY_OR'>"
p5524
sS'MARKMIN'
p5525
S"<class 'gluon.html.MARKMIN'>"
p5526
sS'INPUT'
p5527
S"<class 'gluon.html.INPUT'>"
p5528
sS'COL'
p5529
S"<class 'gluon.html.COL'>"
p5530
sS'SCRIPT'
p5531
S"<class 'gluon.html.SCRIPT'>"
p5532
sS'geocode'
p5533
S'<function geocode at 0x031EE830>'
p5534
sS'is_mobile'
p5535
g92
sS'TABLE'
p5536
S"<class 'gluon.html.TABLE'>"
p5537
sS'IS_IPV4'
p5538
S"<class 'gluon.validators.IS_IPV4'>"
p5539
sS'IS_LENGTH'
p5540
S"<class 'gluon.validators.IS_LENGTH'>"
p5541
sS'XML'
p5542
S"<class 'gluon.html.XML'>"
p5543
sS'B'
S"<class 'gluon.html.B'>"
p5544
sS'form'
p5545
S'<gluon.sqlhtml.SQLFORM object at 0x06E52230>'
p5546
sS'SQLTABLE'
p5547
S"<class 'gluon.sqlhtml.SQLTABLE'>"
p5548
sS'IS_MATCH'
p5549
S"<class 'gluon.validators.IS_MATCH'>"
p5550
sS'IS_ALPHANUMERIC'
p5551
S"<class 'gluon.validators.IS_ALPHANUMERIC'>"
p5552
sS'SPAN'
p5553
S"<class 'gluon.html.SPAN'>"
p5554
sS'IS_SLUG'
p5555
S"<class 'gluon.validators.IS_SLUG'>"
p5556
sS'BEAUTIFY'
p5557
S"<class 'gluon.html.BEAUTIFY'>"
p5558
sS'META'
p5559
S"<class 'gluon.html.META'>"
p5560
sS'fetch'
p5561
S'<function fetch at 0x031E86B0>'
p5562
sS'IS_DATE'
p5563
S"<class 'gluon.validators.IS_DATE'>"
p5564
sS'IS_EMAIL'
p5565
S"<class 'gluon.validators.IS_EMAIL'>"
p5566
sS'IS_NOT_EMPTY'
p5567
S"<class 'gluon.validators.IS_NOT_EMPTY'>"
p5568
sg48
S"<Storage {'body': <cStringIO.StringO object at 0..._vars': <Storage {}>, 'post_vars': <Storage {}>}>"
p5569
sS'TBODY'
p5570
S"<class 'gluon.html.TBODY'>"
p5571
sS'CAT'
p5572
S"<class 'gluon.html.CAT'>"
p5573
sS'Field'
p5574
S"<class 'gluon.dal.Field'>"
p5575
sS'middle_columns'
p5576
S"'sixteen'"
p5577
sS'Mail'
p5578
S"<class 'gluon.tools.Mail'>"
p5579
sS'DIV'
p5580
S"<class 'gluon.html.DIV'>"
p5581
sS'LEGEND'
p5582
S"<class 'gluon.html.LEGEND'>"
p5583
sS'IMG'
p5584
S"<class 'gluon.html.IMG'>"
p5585
sg5011
S"<Row {'comment': <gluon.dal.Set object at 0x065B...lete_record': <function <lambda> at 0x065BF930>}>"
p5586
sS'DAL'
p5587
S"<class 'gluon.dal.DAL'>"
p5588
sS'TT'
p5589
S"<class 'gluon.html.TT'>"
p5590
sS'TR'
p5591
S"<class 'gluon.html.TR'>"
p5592
sS'LI'
p5593
S"<class 'gluon.html.LI'>"
p5594
sS'right_sidebar_enabled'
p5595
g92
sS'IFRAME'
p5596
S"<class 'gluon.html.IFRAME'>"
p5597
sS'TD'
p5598
S"<class 'gluon.html.TD'>"
p5599
sS'PluginManager'
p5600
S"<class 'gluon.tools.PluginManager'>"
p5601
sS'IS_URL'
p5602
S"<class 'gluon.validators.IS_URL'>"
p5603
sS'A'
S"<class 'gluon.html.A'>"
p5604
sS'STYLE'
p5605
S"<class 'gluon.html.STYLE'>"
p5606
sS'IS_DATETIME_IN_RANGE'
p5607
S"<class 'gluon.validators.IS_DATETIME_IN_RANGE'>"
p5608
sS'IS_IMAGE'
p5609
S"<class 'gluon.validators.IS_IMAGE'>"
p5610
sS'I'
S"<class 'gluon.html.I'>"
p5611
sS'crud'
p5612
S'<gluon.tools.Crud object at 0x069D0450>'
p5613
sS'IS_NOT_IN_DB'
p5614
S"<class 'gluon.validators.IS_NOT_IN_DB'>"
p5615
sS'user'
p5616
S"<Row {'comment': <gluon.dal.Set object at 0x065B...lete_record': <function <lambda> at 0x065BFBF0>}>"
p5617
sg3273
S"<Storage {'body': <cStringIO.StringO object at 0...da> at 0x06454270>, 'view': 'default/Code.html'}>"
p5618
sS'THEAD'
p5619
S"<class 'gluon.html.THEAD'>"
p5620
sS'IS_NULL_OR'
p5621
S"<class 'gluon.validators.IS_EMPTY_OR'>"
p5622
sS'COLGROUP'
p5623
S"<class 'gluon.html.COLGROUP'>"
p5624
sS'IS_FLOAT_IN_RANGE'
p5625
S"<class 'gluon.validators.IS_FLOAT_IN_RANGE'>"
p5626
sS'IS_EXPR'
p5627
S"<class 'gluon.validators.IS_EXPR'>"
p5628
sS'T'
S'<gluon.languages.translator object at 0x060D6B90>'
p5629
sS'IS_IN_SET'
p5630
S"<class 'gluon.validators.IS_IN_SET'>"
p5631
sS'IS_UPLOAD_FILENAME'
p5632
S"<class 'gluon.validators.IS_UPLOAD_FILENAME'>"
p5633
sS'IS_DECIMAL_IN_RANGE'
p5634
S"<class 'gluon.validators.IS_DECIMAL_IN_RANGE'>"
p5635
sssS'traceback'
p5636
S'Traceback (most recent call last):\n  File "gluon/restricted.py", line 205, in restricted\n  File "C:\\web2py\\applications\\unioeste_code\\views\\default/Code.html", line 103, in <module>\nAttributeError: \'module\' object has no attribute \'shortUser\'\n'
p5637
s.