(dp1
S'output'
p2
S"<type 'exceptions.NameError'> name 'self' is not defined"
p3
sS'layer'
p4
S'C:\\web2py\\applications\\unioeste_code\\views\\default/user.html'
p5
sS'code'
p6
S'response.write(\'<!DOCTYPE html>\\r\\n<html lang="en">\\r\\n  <head>\\r\\n    <meta charset="utf-8">\\r\\n    <title>\', escape=False)\nresponse.write(response.title or request.application)\nresponse.write(\'</title>\\r\\n    <meta name="viewport" content="width=device-width, initial-scale=1.0">\\r\\n    <meta name="description" content="">\\r\\n    <meta name="author" content="">\\r\\n\\r\\n    <!-- Le HTML5 shim, for IE6-8 support of HTML5 elements -->\\r\\n    <!--[if lt IE 9]>\\r\\n      <script src="http://html5shim.googlecode.com/svn/trunk/html5.js"></script>\\r\\n    <![endif]-->\\r\\n\\r\\n    <!-- Le fav and touch icons -->\\r\\n    <link rel="shortcut icon" href="../assets/ico/favicon.ico">\\r\\n    <link rel="apple-touch-icon-precomposed" sizes="144x144" href="../assets/ico/apple-touch-icon-144-precomposed.png">\\r\\n    <link rel="apple-touch-icon-precomposed" sizes="114x114" href="../assets/ico/apple-touch-icon-114-precomposed.png">\\r\\n    <link rel="apple-touch-icon-precomposed" sizes="72x72" href="../assets/ico/apple-touch-icon-72-precomposed.png">\\r\\n    <link rel="apple-touch-icon-precomposed" href="../assets/ico/apple-touch-icon-57-precomposed.png">\\r\\n\\r\\n    <!-- include stylesheets -->\\r\\n\\r\\n    <link href="/unioeste_code/static/css/bootstrap.css" rel="stylesheet">\\r\\n    <link href="/unioeste_code/static/css/bootstrap-responsive.css" rel="stylesheet">\\r\\n    <script src="/unioeste_code/static/js/jquery.js" type="text/javascript"></script>\\r\\n    <script src="/unioeste_code/static/js/bootstrap.js" type="text/javascript"></script>\\r\\n\\r\\n    <!-- Distancia do topo pro layout-->\\r\\n      <style>\\r\\n      body {\\r\\n        padding-top: 60px; /* 60px to make the container go all the way to the bottom of the topbar */\\r\\n      }\\r\\n      </style>\\r\\n\\r\\n      <!-- Le CSS customizado, font e tals-->\\r\\n      <link href="/unioeste_code/static/css/font_style.css" rel="stylesheet">\\r\\n\\r\\n  </head>\\r\\n\\r\\n  <body>\\r\\n\\r\\n    <div class="navbar navbar-fixed-top">\\r\\n      <div class="navbar-inner">\\r\\n        <div class="container">\\r\\n          <a class="btn btn-navbar" data-toggle="collapse" data-target=".nav-collapse">\\r\\n            <span class="icon-bar"></span>\\r\\n            <span class="icon-bar"></span>\\r\\n            <span class="icon-bar"></span>\\r\\n          </a>\\r\\n          <a class="brand" href="\', escape=False)\nresponse.write(URL(\'index\'))\nresponse.write(\'">\', escape=False)\nresponse.write(response.title or request.application)\nresponse.write(\'</a>\\r\\n          <div class="nav-collapse">\\r\\n          <ul class="nav pull-right">\\r\\n            <li class="divider-vertical"></li>\\r\\n            <li class="uc_topbar"><a href="#">Sobre</a></li>\\r\\n            <li class="divider-vertical"></li>\\r\\n            <li class="uc_topbar"><a href="#">Login!</a></li>\\r\\n            <li class="divider-vertical"></li>\\r\\n\\r\\n<!-- Drop Down Login\\r\\n            <li class="dropdown">\\r\\n              <a href="#" class="dropdown-toggle" data-toggle="dropdown">Dropdown <b class="caret"></b></a>\\r\\n              <ul class="dropdown-menu">\\r\\n                <li><a href="#">Action</a></li>\\r\\n                <li><a href="#">Another action</a></li>\\r\\n                <li><a href="#">Something else here</a></li>\\r\\n                <li class="divider"></li>\\r\\n                <li><a href="#">Separated link</a></li>\\r\\n              </ul>\\r\\n            </li>\\r\\n          </ul>\\r\\n-->\\r\\n          </div><!--/.nav-collapse -->\\r\\n        </div>\\r\\n      </div>\\r\\n    </div>\\r\\n\\r\\n<!-- Corpo principal da p\\xc3\\xa1gina! -->\\r\\n  \\r\\n    <div class="container">\\r\\n      \', escape=False)\nresponse.write(\'auth\' in globals() and auth.navbar(prefix=\'\',separators=("<ul> <li>","</li><li>","</li></u>")))\nresponse.write(\'\\r\\n      \', escape=False)\nresponse.write(self.url(self.settings.function))\nresponse.write(\'\\r\\n      \', escape=False)\nresponse.write(\'\\r\\n      \', escape=False)\nresponse.write(\'\\n<h2>\', escape=False)\nresponse.write(T( request.args(0).replace(\'_\',\' \').capitalize() ))\nresponse.write(\'</h2>\\n<div id="web2py_user_form">\\n  \', escape=False)\nresponse.write(form)\nresponse.write(\'\\n  \', escape=False)\nif request.args(0)==\'login\':\n    response.write(\'\\n  \', escape=False)\n    if not \'register\' in auth.settings.actions_disabled:\n        response.write(\'\\n  <br/>\\n  <a href="\', escape=False)\n        response.write(URL(args=\'register\'))\n        response.write(\'">\', escape=False)\n        response.write(T(\'Register\'))\n        response.write(\'</a>\\n  \', escape=False)\n        pass\n    response.write(\'\\n  \', escape=False)\n    if not \'request_reset_password\' in auth.settings.actions_disabled:\n        response.write(\'\\n  <br/>\\n  <a href="\', escape=False)\n        response.write(URL(args=\'request_reset_password\'))\n        response.write(\'">\', escape=False)\n        response.write(T(\'Lost Password\'))\n        response.write(\'</a>\\n  \', escape=False)\n        pass\n    response.write(\'\\n  \', escape=False)\n    pass\nresponse.write(\'\\n</div>\\n<script language="javascript"><!--\\n      jQuery("#web2py_user_form input:visible:enabled:first").focus();\\n      //--></script>\\n\\n\', escape=False)\nresponse.write(\'\\r\\n      \', escape=False)\nresponse.write(\'\\r\\n\\r\\n    </div> <!-- /container -->\\r\\n\\r\\n  </body>\\r\\n</html>\\r\\n\\r\\n\', escape=False)'
p7
sS'snapshot'
p8
(dp9
S'exception'
p10
(dp11
S'__hash__'
p12
S"<method-wrapper '__hash__' of exceptions.NameError object at 0x0638C288>"
p13
sS'__setattr__'
p14
S"<method-wrapper '__setattr__' of exceptions.NameError object at 0x0638C288>"
p15
sS'__reduce_ex__'
p16
S'<built-in method __reduce_ex__ of exceptions.NameError object at 0x0638C288>'
p17
sS'__getslice__'
p18
S"<method-wrapper '__getslice__' of exceptions.NameError object at 0x0638C288>"
p19
sS'__getitem__'
p20
S"<method-wrapper '__getitem__' of exceptions.NameError object at 0x0638C288>"
p21
sS'__setstate__'
p22
S'<built-in method __setstate__ of exceptions.NameError object at 0x0638C288>'
p23
sS'__reduce__'
p24
S'<built-in method __reduce__ of exceptions.NameError object at 0x0638C288>'
p25
sS'__str__'
p26
S"<method-wrapper '__str__' of exceptions.NameError object at 0x0638C288>"
p27
sS'args'
p28
S'("name \'self\' is not defined",)'
p29
sS'__getattribute__'
p30
S"<method-wrapper '__getattribute__' of exceptions.NameError object at 0x0638C288>"
p31
sS'__class__'
p32
S"<type 'exceptions.NameError'>"
p33
sS'__delattr__'
p34
S"<method-wrapper '__delattr__' of exceptions.NameError object at 0x0638C288>"
p35
sS'__repr__'
p36
S"<method-wrapper '__repr__' of exceptions.NameError object at 0x0638C288>"
p37
sS'__dict__'
p38
S'{}'
p39
sS'__doc__'
p40
S"'Name not found globally.'"
p41
sS'__init__'
p42
S"<method-wrapper '__init__' of exceptions.NameError object at 0x0638C288>"
p43
sS'__new__'
p44
S'<built-in method __new__ of type object at 0x1E1CD8D8>'
p45
ssS'evalue'
p46
S"name 'self' is not defined"
p47
sS'request'
p48
ccopy_reg
_reconstructor
p49
(cgluon.html
BEAUTIFY
p50
c__builtin__
object
p51
NtRp52
(dp53
S'attributes'
p54
(dp55
sS'components'
p56
(lp57
g49
(cgluon.html
TABLE
p58
g51
NtRp59
(dp60
g54
(dp61
S'level'
p62
I5
ssS'parent'
p63
Nsg56
(lp64
g49
(cgluon.html
TR
p65
g51
NtRp66
(dp67
g54
(dp68
sg63
g59
sg56
(lp69
g49
(cgluon.html
TD
p70
g51
NtRp71
(dp72
g54
(dp73
S'_style'
p74
S'font-weight:bold;vertical-align:top'
p75
ssg63
g66
sg56
(lp76
S'ajax'
p77
asbag49
(g70
g51
NtRp78
(dp79
g54
(dp80
S'_valign'
p81
S'top'
p82
ssg63
g66
sg56
(lp83
S':'
asbag49
(g70
g51
NtRp84
(dp85
g54
(dp86
sg63
g66
sg56
(lp87
g49
(g50
g51
NtRp88
(dp89
g54
(dp90
g62
I5
ssg63
g84
sg56
(lp91
S'False'
p92
asbasbasbag49
(g65
g51
NtRp93
(dp94
g54
(dp95
sg63
g59
sg56
(lp96
g49
(g70
g51
NtRp97
(dp98
g54
(dp99
g74
g75
ssg63
g93
sg56
(lp100
S'application'
p101
asbag49
(g70
g51
NtRp102
(dp103
g54
(dp104
g81
g82
ssg63
g93
sg56
(lp105
S':'
asbag49
(g70
g51
NtRp106
(dp107
g54
(dp108
sg63
g93
sg56
(lp109
g49
(g50
g51
NtRp110
(dp111
g54
(dp112
g62
I5
ssg63
g106
sg56
(lp113
S'unioeste_code'
p114
asbasbasbag49
(g65
g51
NtRp115
(dp116
g54
(dp117
sg63
g59
sg56
(lp118
g49
(g70
g51
NtRp119
(dp120
g54
(dp121
g74
g75
ssg63
g115
sg56
(lp122
g28
asbag49
(g70
g51
NtRp123
(dp124
g54
(dp125
g81
g82
ssg63
g115
sg56
(lp126
S':'
asbag49
(g70
g51
NtRp127
(dp128
g54
(dp129
sg63
g115
sg56
(lp130
g49
(g50
g51
NtRp131
(dp132
g54
(dp133
g62
I5
ssg63
g127
sg56
(lp134
g49
(g58
g51
NtRp135
(dp136
g54
(dp137
g62
I4
ssg63
Nsg56
(lp138
g49
(g65
g51
NtRp139
(dp140
g54
(dp141
sg63
g135
sg56
(lp142
g49
(g70
g51
NtRp143
(dp144
g54
(dp145
sg63
g139
sg56
(lp146
g49
(g50
g51
NtRp147
(dp148
g54
(dp149
g62
I4
ssg63
g143
sg56
(lp150
S'login'
p151
asbasbasbasbasbasbasbag49
(g65
g51
NtRp152
(dp153
g54
(dp154
sg63
g59
sg56
(lp155
g49
(g70
g51
NtRp156
(dp157
g54
(dp158
g74
g75
ssg63
g152
sg56
(lp159
S'body'
p160
asbag49
(g70
g51
NtRp161
(dp162
g54
(dp163
g81
g82
ssg63
g152
sg56
(lp164
S':'
asbag49
(g70
g51
NtRp165
(dp166
g54
(dp167
sg63
g152
sg56
(lp168
g49
(g50
g51
NtRp169
(dp170
g54
(dp171
g62
I5
ssg63
g165
sg56
(lp172
S'<cStringIO.StringO object at 0x0695AAC0>'
p173
asbasbasbag49
(g65
g51
NtRp174
(dp175
g54
(dp176
sg63
g59
sg56
(lp177
g49
(g70
g51
NtRp178
(dp179
g54
(dp180
g74
g75
ssg63
g174
sg56
(lp181
S'client'
p182
asbag49
(g70
g51
NtRp183
(dp184
g54
(dp185
g81
g82
ssg63
g174
sg56
(lp186
S':'
asbag49
(g70
g51
NtRp187
(dp188
g54
(dp189
sg63
g174
sg56
(lp190
g49
(g50
g51
NtRp191
(dp192
g54
(dp193
g62
I5
ssg63
g187
sg56
(lp194
S'127.0.0.1'
p195
asbasbasbag49
(g65
g51
NtRp196
(dp197
g54
(dp198
sg63
g59
sg56
(lp199
g49
(g70
g51
NtRp200
(dp201
g54
(dp202
g74
g75
ssg63
g196
sg56
(lp203
S'controller'
p204
asbag49
(g70
g51
NtRp205
(dp206
g54
(dp207
g81
g82
ssg63
g196
sg56
(lp208
S':'
asbag49
(g70
g51
NtRp209
(dp210
g54
(dp211
sg63
g196
sg56
(lp212
g49
(g50
g51
NtRp213
(dp214
g54
(dp215
g62
I5
ssg63
g209
sg56
(lp216
S'default'
p217
asbasbasbag49
(g65
g51
NtRp218
(dp219
g54
(dp220
sg63
g59
sg56
(lp221
g49
(g70
g51
NtRp222
(dp223
g54
(dp224
g74
g75
ssg63
g218
sg56
(lp225
S'cookies'
p226
asbag49
(g70
g51
NtRp227
(dp228
g54
(dp229
g81
g82
ssg63
g218
sg56
(lp230
S':'
asbag49
(g70
g51
NtRp231
(dp232
g54
(dp233
sg63
g218
sg56
(lp234
g49
(g50
g51
NtRp235
(dp236
g54
(dp237
g62
I5
ssg63
g231
sg56
(lp238
g49
(g58
g51
NtRp239
(dp240
g54
(dp241
g62
I4
ssg63
Nsg56
(lp242
g49
(g65
g51
NtRp243
(dp244
g54
(dp245
sg63
g239
sg56
(lp246
g49
(g70
g51
NtRp247
(dp248
g54
(dp249
g74
g75
ssg63
g243
sg56
(lp250
S'session_id_admin'
p251
asbag49
(g70
g51
NtRp252
(dp253
g54
(dp254
g81
g82
ssg63
g243
sg56
(lp255
S':'
asbag49
(g70
g51
NtRp256
(dp257
g54
(dp258
sg63
g243
sg56
(lp259
g49
(g50
g51
NtRp260
(dp261
g54
(dp262
g62
I4
ssg63
g256
sg56
(lp263
g49
(g58
g51
NtRp264
(dp265
g54
(dp266
g62
I3
ssg63
Nsg56
(lp267
g49
(g65
g51
NtRp268
(dp269
g54
(dp270
sg63
g264
sg56
(lp271
g49
(g70
g51
NtRp272
(dp273
g54
(dp274
g74
g75
ssg63
g268
sg56
(lp275
S'comment'
p276
asbag49
(g70
g51
NtRp277
(dp278
g54
(dp279
g81
g82
ssg63
g268
sg56
(lp280
S':'
asbag49
(g70
g51
NtRp281
(dp282
g54
(dp283
sg63
g268
sg56
(lp284
g49
(g50
g51
NtRp285
(dp286
g54
(dp287
g62
I3
ssg63
g281
sg56
(lp288
S''
asbasbasbag49
(g65
g51
NtRp289
(dp290
g54
(dp291
sg63
g264
sg56
(lp292
g49
(g70
g51
NtRp293
(dp294
g54
(dp295
g74
g75
ssg63
g289
sg56
(lp296
S'domain'
p297
asbag49
(g70
g51
NtRp298
(dp299
g54
(dp300
g81
g82
ssg63
g289
sg56
(lp301
S':'
asbag49
(g70
g51
NtRp302
(dp303
g54
(dp304
sg63
g289
sg56
(lp305
g49
(g50
g51
NtRp306
(dp307
g54
(dp308
g62
I3
ssg63
g302
sg56
(lp309
S''
asbasbasbag49
(g65
g51
NtRp310
(dp311
g54
(dp312
sg63
g264
sg56
(lp313
g49
(g70
g51
NtRp314
(dp315
g54
(dp316
g74
g75
ssg63
g310
sg56
(lp317
S'expires'
p318
asbag49
(g70
g51
NtRp319
(dp320
g54
(dp321
g81
g82
ssg63
g310
sg56
(lp322
S':'
asbag49
(g70
g51
NtRp323
(dp324
g54
(dp325
sg63
g310
sg56
(lp326
g49
(g50
g51
NtRp327
(dp328
g54
(dp329
g62
I3
ssg63
g323
sg56
(lp330
S''
asbasbasbag49
(g65
g51
NtRp331
(dp332
g54
(dp333
sg63
g264
sg56
(lp334
g49
(g70
g51
NtRp335
(dp336
g54
(dp337
g74
g75
ssg63
g331
sg56
(lp338
S'max-age'
p339
asbag49
(g70
g51
NtRp340
(dp341
g54
(dp342
g81
g82
ssg63
g331
sg56
(lp343
S':'
asbag49
(g70
g51
NtRp344
(dp345
g54
(dp346
sg63
g331
sg56
(lp347
g49
(g50
g51
NtRp348
(dp349
g54
(dp350
g62
I3
ssg63
g344
sg56
(lp351
S''
asbasbasbag49
(g65
g51
NtRp352
(dp353
g54
(dp354
sg63
g264
sg56
(lp355
g49
(g70
g51
NtRp356
(dp357
g54
(dp358
g74
g75
ssg63
g352
sg56
(lp359
S'path'
p360
asbag49
(g70
g51
NtRp361
(dp362
g54
(dp363
g81
g82
ssg63
g352
sg56
(lp364
S':'
asbag49
(g70
g51
NtRp365
(dp366
g54
(dp367
sg63
g352
sg56
(lp368
g49
(g50
g51
NtRp369
(dp370
g54
(dp371
g62
I3
ssg63
g365
sg56
(lp372
S''
asbasbasbag49
(g65
g51
NtRp373
(dp374
g54
(dp375
sg63
g264
sg56
(lp376
g49
(g70
g51
NtRp377
(dp378
g54
(dp379
g74
g75
ssg63
g373
sg56
(lp380
S'secure'
p381
asbag49
(g70
g51
NtRp382
(dp383
g54
(dp384
g81
g82
ssg63
g373
sg56
(lp385
S':'
asbag49
(g70
g51
NtRp386
(dp387
g54
(dp388
sg63
g373
sg56
(lp389
g49
(g50
g51
NtRp390
(dp391
g54
(dp392
g62
I3
ssg63
g386
sg56
(lp393
S''
asbasbasbag49
(g65
g51
NtRp394
(dp395
g54
(dp396
sg63
g264
sg56
(lp397
g49
(g70
g51
NtRp398
(dp399
g54
(dp400
g74
g75
ssg63
g394
sg56
(lp401
S'version'
p402
asbag49
(g70
g51
NtRp403
(dp404
g54
(dp405
g81
g82
ssg63
g394
sg56
(lp406
S':'
asbag49
(g70
g51
NtRp407
(dp408
g54
(dp409
sg63
g394
sg56
(lp410
g49
(g50
g51
NtRp411
(dp412
g54
(dp413
g62
I3
ssg63
g407
sg56
(lp414
S''
asbasbasbasbasbasbasbag49
(g65
g51
NtRp415
(dp416
g54
(dp417
sg63
g239
sg56
(lp418
g49
(g70
g51
NtRp419
(dp420
g54
(dp421
g74
g75
ssg63
g415
sg56
(lp422
S'session_id_unioeste_code'
p423
asbag49
(g70
g51
NtRp424
(dp425
g54
(dp426
g81
g82
ssg63
g415
sg56
(lp427
S':'
asbag49
(g70
g51
NtRp428
(dp429
g54
(dp430
sg63
g415
sg56
(lp431
g49
(g50
g51
NtRp432
(dp433
g54
(dp434
g62
I4
ssg63
g428
sg56
(lp435
g49
(g58
g51
NtRp436
(dp437
g54
(dp438
g62
I3
ssg63
Nsg56
(lp439
g49
(g65
g51
NtRp440
(dp441
g54
(dp442
sg63
g436
sg56
(lp443
g49
(g70
g51
NtRp444
(dp445
g54
(dp446
g74
g75
ssg63
g440
sg56
(lp447
g276
asbag49
(g70
g51
NtRp448
(dp449
g54
(dp450
g81
g82
ssg63
g440
sg56
(lp451
S':'
asbag49
(g70
g51
NtRp452
(dp453
g54
(dp454
sg63
g440
sg56
(lp455
g49
(g50
g51
NtRp456
(dp457
g54
(dp458
g62
I3
ssg63
g452
sg56
(lp459
S''
asbasbasbag49
(g65
g51
NtRp460
(dp461
g54
(dp462
sg63
g436
sg56
(lp463
g49
(g70
g51
NtRp464
(dp465
g54
(dp466
g74
g75
ssg63
g460
sg56
(lp467
g297
asbag49
(g70
g51
NtRp468
(dp469
g54
(dp470
g81
g82
ssg63
g460
sg56
(lp471
S':'
asbag49
(g70
g51
NtRp472
(dp473
g54
(dp474
sg63
g460
sg56
(lp475
g49
(g50
g51
NtRp476
(dp477
g54
(dp478
g62
I3
ssg63
g472
sg56
(lp479
S''
asbasbasbag49
(g65
g51
NtRp480
(dp481
g54
(dp482
sg63
g436
sg56
(lp483
g49
(g70
g51
NtRp484
(dp485
g54
(dp486
g74
g75
ssg63
g480
sg56
(lp487
g318
asbag49
(g70
g51
NtRp488
(dp489
g54
(dp490
g81
g82
ssg63
g480
sg56
(lp491
S':'
asbag49
(g70
g51
NtRp492
(dp493
g54
(dp494
sg63
g480
sg56
(lp495
g49
(g50
g51
NtRp496
(dp497
g54
(dp498
g62
I3
ssg63
g492
sg56
(lp499
S''
asbasbasbag49
(g65
g51
NtRp500
(dp501
g54
(dp502
sg63
g436
sg56
(lp503
g49
(g70
g51
NtRp504
(dp505
g54
(dp506
g74
g75
ssg63
g500
sg56
(lp507
g339
asbag49
(g70
g51
NtRp508
(dp509
g54
(dp510
g81
g82
ssg63
g500
sg56
(lp511
S':'
asbag49
(g70
g51
NtRp512
(dp513
g54
(dp514
sg63
g500
sg56
(lp515
g49
(g50
g51
NtRp516
(dp517
g54
(dp518
g62
I3
ssg63
g512
sg56
(lp519
S''
asbasbasbag49
(g65
g51
NtRp520
(dp521
g54
(dp522
sg63
g436
sg56
(lp523
g49
(g70
g51
NtRp524
(dp525
g54
(dp526
g74
g75
ssg63
g520
sg56
(lp527
g360
asbag49
(g70
g51
NtRp528
(dp529
g54
(dp530
g81
g82
ssg63
g520
sg56
(lp531
S':'
asbag49
(g70
g51
NtRp532
(dp533
g54
(dp534
sg63
g520
sg56
(lp535
g49
(g50
g51
NtRp536
(dp537
g54
(dp538
g62
I3
ssg63
g532
sg56
(lp539
S''
asbasbasbag49
(g65
g51
NtRp540
(dp541
g54
(dp542
sg63
g436
sg56
(lp543
g49
(g70
g51
NtRp544
(dp545
g54
(dp546
g74
g75
ssg63
g540
sg56
(lp547
g381
asbag49
(g70
g51
NtRp548
(dp549
g54
(dp550
g81
g82
ssg63
g540
sg56
(lp551
S':'
asbag49
(g70
g51
NtRp552
(dp553
g54
(dp554
sg63
g540
sg56
(lp555
g49
(g50
g51
NtRp556
(dp557
g54
(dp558
g62
I3
ssg63
g552
sg56
(lp559
S''
asbasbasbag49
(g65
g51
NtRp560
(dp561
g54
(dp562
sg63
g436
sg56
(lp563
g49
(g70
g51
NtRp564
(dp565
g54
(dp566
g74
g75
ssg63
g560
sg56
(lp567
g402
asbag49
(g70
g51
NtRp568
(dp569
g54
(dp570
g81
g82
ssg63
g560
sg56
(lp571
S':'
asbag49
(g70
g51
NtRp572
(dp573
g54
(dp574
sg63
g560
sg56
(lp575
g49
(g50
g51
NtRp576
(dp577
g54
(dp578
g62
I3
ssg63
g572
sg56
(lp579
S''
asbasbasbasbasbasbasbag49
(g65
g51
NtRp580
(dp581
g54
(dp582
sg63
g239
sg56
(lp583
g49
(g70
g51
NtRp584
(dp585
g54
(dp586
g74
g75
ssg63
g580
sg56
(lp587
S'session_id_welcome'
p588
asbag49
(g70
g51
NtRp589
(dp590
g54
(dp591
g81
g82
ssg63
g580
sg56
(lp592
S':'
asbag49
(g70
g51
NtRp593
(dp594
g54
(dp595
sg63
g580
sg56
(lp596
g49
(g50
g51
NtRp597
(dp598
g54
(dp599
g62
I4
ssg63
g593
sg56
(lp600
g49
(g58
g51
NtRp601
(dp602
g54
(dp603
g62
I3
ssg63
Nsg56
(lp604
g49
(g65
g51
NtRp605
(dp606
g54
(dp607
sg63
g601
sg56
(lp608
g49
(g70
g51
NtRp609
(dp610
g54
(dp611
g74
g75
ssg63
g605
sg56
(lp612
g276
asbag49
(g70
g51
NtRp613
(dp614
g54
(dp615
g81
g82
ssg63
g605
sg56
(lp616
S':'
asbag49
(g70
g51
NtRp617
(dp618
g54
(dp619
sg63
g605
sg56
(lp620
g49
(g50
g51
NtRp621
(dp622
g54
(dp623
g62
I3
ssg63
g617
sg56
(lp624
S''
asbasbasbag49
(g65
g51
NtRp625
(dp626
g54
(dp627
sg63
g601
sg56
(lp628
g49
(g70
g51
NtRp629
(dp630
g54
(dp631
g74
g75
ssg63
g625
sg56
(lp632
g297
asbag49
(g70
g51
NtRp633
(dp634
g54
(dp635
g81
g82
ssg63
g625
sg56
(lp636
S':'
asbag49
(g70
g51
NtRp637
(dp638
g54
(dp639
sg63
g625
sg56
(lp640
g49
(g50
g51
NtRp641
(dp642
g54
(dp643
g62
I3
ssg63
g637
sg56
(lp644
S''
asbasbasbag49
(g65
g51
NtRp645
(dp646
g54
(dp647
sg63
g601
sg56
(lp648
g49
(g70
g51
NtRp649
(dp650
g54
(dp651
g74
g75
ssg63
g645
sg56
(lp652
g318
asbag49
(g70
g51
NtRp653
(dp654
g54
(dp655
g81
g82
ssg63
g645
sg56
(lp656
S':'
asbag49
(g70
g51
NtRp657
(dp658
g54
(dp659
sg63
g645
sg56
(lp660
g49
(g50
g51
NtRp661
(dp662
g54
(dp663
g62
I3
ssg63
g657
sg56
(lp664
S''
asbasbasbag49
(g65
g51
NtRp665
(dp666
g54
(dp667
sg63
g601
sg56
(lp668
g49
(g70
g51
NtRp669
(dp670
g54
(dp671
g74
g75
ssg63
g665
sg56
(lp672
g339
asbag49
(g70
g51
NtRp673
(dp674
g54
(dp675
g81
g82
ssg63
g665
sg56
(lp676
S':'
asbag49
(g70
g51
NtRp677
(dp678
g54
(dp679
sg63
g665
sg56
(lp680
g49
(g50
g51
NtRp681
(dp682
g54
(dp683
g62
I3
ssg63
g677
sg56
(lp684
S''
asbasbasbag49
(g65
g51
NtRp685
(dp686
g54
(dp687
sg63
g601
sg56
(lp688
g49
(g70
g51
NtRp689
(dp690
g54
(dp691
g74
g75
ssg63
g685
sg56
(lp692
g360
asbag49
(g70
g51
NtRp693
(dp694
g54
(dp695
g81
g82
ssg63
g685
sg56
(lp696
S':'
asbag49
(g70
g51
NtRp697
(dp698
g54
(dp699
sg63
g685
sg56
(lp700
g49
(g50
g51
NtRp701
(dp702
g54
(dp703
g62
I3
ssg63
g697
sg56
(lp704
S''
asbasbasbag49
(g65
g51
NtRp705
(dp706
g54
(dp707
sg63
g601
sg56
(lp708
g49
(g70
g51
NtRp709
(dp710
g54
(dp711
g74
g75
ssg63
g705
sg56
(lp712
g381
asbag49
(g70
g51
NtRp713
(dp714
g54
(dp715
g81
g82
ssg63
g705
sg56
(lp716
S':'
asbag49
(g70
g51
NtRp717
(dp718
g54
(dp719
sg63
g705
sg56
(lp720
g49
(g50
g51
NtRp721
(dp722
g54
(dp723
g62
I3
ssg63
g717
sg56
(lp724
S''
asbasbasbag49
(g65
g51
NtRp725
(dp726
g54
(dp727
sg63
g601
sg56
(lp728
g49
(g70
g51
NtRp729
(dp730
g54
(dp731
g74
g75
ssg63
g725
sg56
(lp732
g402
asbag49
(g70
g51
NtRp733
(dp734
g54
(dp735
g81
g82
ssg63
g725
sg56
(lp736
S':'
asbag49
(g70
g51
NtRp737
(dp738
g54
(dp739
sg63
g725
sg56
(lp740
g49
(g50
g51
NtRp741
(dp742
g54
(dp743
g62
I3
ssg63
g737
sg56
(lp744
S''
asbasbasbasbasbasbasbasbasbasbasbag49
(g65
g51
NtRp745
(dp746
g54
(dp747
sg63
g59
sg56
(lp748
g49
(g70
g51
NtRp749
(dp750
g54
(dp751
g74
g75
ssg63
g745
sg56
(lp752
S'env'
p753
asbag49
(g70
g51
NtRp754
(dp755
g54
(dp756
g81
g82
ssg63
g745
sg56
(lp757
S':'
asbag49
(g70
g51
NtRp758
(dp759
g54
(dp760
sg63
g745
sg56
(lp761
g49
(g50
g51
NtRp762
(dp763
g54
(dp764
g62
I5
ssg63
g758
sg56
(lp765
g49
(g58
g51
NtRp766
(dp767
g54
(dp768
g62
I4
ssg63
Nsg56
(lp769
g49
(g65
g51
NtRp770
(dp771
g54
(dp772
sg63
g766
sg56
(lp773
g49
(g70
g51
NtRp774
(dp775
g54
(dp776
g74
g75
ssg63
g770
sg56
(lp777
S'app_folders'
p778
asbag49
(g70
g51
NtRp779
(dp780
g54
(dp781
g81
g82
ssg63
g770
sg56
(lp782
S':'
asbag49
(g70
g51
NtRp783
(dp784
g54
(dp785
sg63
g770
sg56
(lp786
g49
(g50
g51
NtRp787
(dp788
g54
(dp789
g62
I4
ssg63
g783
sg56
(lp790
S"set(['C:\\\\web2py\\\\applications\\\\admin\\\\', 'C:\\\\web2py\\\\applications\\\\welcome\\\\', 'C:\\\\web2py\\\\applications\\\\unioeste_code\\\\'])"
p791
asbasbasbag49
(g65
g51
NtRp792
(dp793
g54
(dp794
sg63
g766
sg56
(lp795
g49
(g70
g51
NtRp796
(dp797
g54
(dp798
g74
g75
ssg63
g792
sg56
(lp799
S'applications_parent'
p800
asbag49
(g70
g51
NtRp801
(dp802
g54
(dp803
g81
g82
ssg63
g792
sg56
(lp804
S':'
asbag49
(g70
g51
NtRp805
(dp806
g54
(dp807
sg63
g792
sg56
(lp808
g49
(g50
g51
NtRp809
(dp810
g54
(dp811
g62
I4
ssg63
g805
sg56
(lp812
S'C:\\web2py'
p813
asbasbasbag49
(g65
g51
NtRp814
(dp815
g54
(dp816
sg63
g766
sg56
(lp817
g49
(g70
g51
NtRp818
(dp819
g54
(dp820
g74
g75
ssg63
g814
sg56
(lp821
S'cmd_args'
p822
asbag49
(g70
g51
NtRp823
(dp824
g54
(dp825
g81
g82
ssg63
g814
sg56
(lp826
S':'
asbag49
(g70
g51
NtRp827
(dp828
g54
(dp829
sg63
g814
sg56
(lp830
g49
(g50
g51
NtRp831
(dp832
g54
(dp833
g62
I4
ssg63
g827
sg56
(lp834
g49
(g58
g51
NtRp835
(dp836
g54
(dp837
g62
I3
ssg63
Nsg56
(lp838
sbasbasbasbag49
(g65
g51
NtRp839
(dp840
g54
(dp841
sg63
g766
sg56
(lp842
g49
(g70
g51
NtRp843
(dp844
g54
(dp845
g74
g75
ssg63
g839
sg56
(lp846
S'cmd_options'
p847
asbag49
(g70
g51
NtRp848
(dp849
g54
(dp850
g81
g82
ssg63
g839
sg56
(lp851
S':'
asbag49
(g70
g51
NtRp852
(dp853
g54
(dp854
sg63
g839
sg56
(lp855
g49
(g50
g51
NtRp856
(dp857
g54
(dp858
g62
I4
ssg63
g852
sg56
(lp859
S"<Values at 0x314c300: {'verbose': False, 'ip': '127.0.0.1', 'shutdown_timeout': 5, 'taskbar': False, 'nocron': False, 'pid_filename': 'httpserver.pid', 'maxthreads': None, 'softcron': False, 'server_name': 'Pedro-PC', 'bpython': False, 'nogui': False, 'port': 8000, 'extcron': False, 'debuglevel': 30, 'test': None, 'folder': 'C:\\\\web2py', 'config': '', 'import_models': False, 'winservice': '', 'shell': None, 'run': '', 'log_filename': 'httpserver.log', 'args': [''], 'socket_timeout': 5, 'ssl_ca_certificate': None, 'scheduler': None, 'profiler_filename': None, 'ssl_private_key': '', 'password': '<ask>', 'request_queue_size': 5, 'ssl_certificate': '', 'cronjob': False, 'numthreads': None, 'quiet': False, 'interfaces': None, 'minthreads': None, 'timeout': 10, 'plain': False, 'nobanner': False}>"
p860
asbasbasbag49
(g65
g51
NtRp861
(dp862
g54
(dp863
sg63
g766
sg56
(lp864
g49
(g70
g51
NtRp865
(dp866
g54
(dp867
g74
g75
ssg63
g861
sg56
(lp868
S'db_sessions'
p869
asbag49
(g70
g51
NtRp870
(dp871
g54
(dp872
g81
g82
ssg63
g861
sg56
(lp873
S':'
asbag49
(g70
g51
NtRp874
(dp875
g54
(dp876
sg63
g861
sg56
(lp877
g49
(g50
g51
NtRp878
(dp879
g54
(dp880
g62
I4
ssg63
g874
sg56
(lp881
S'set([])'
p882
asbasbasbag49
(g65
g51
NtRp883
(dp884
g54
(dp885
sg63
g766
sg56
(lp886
g49
(g70
g51
NtRp887
(dp888
g54
(dp889
g74
g75
ssg63
g883
sg56
(lp890
S'debugging'
p891
asbag49
(g70
g51
NtRp892
(dp893
g54
(dp894
g81
g82
ssg63
g883
sg56
(lp895
S':'
asbag49
(g70
g51
NtRp896
(dp897
g54
(dp898
sg63
g883
sg56
(lp899
g49
(g50
g51
NtRp900
(dp901
g54
(dp902
g62
I4
ssg63
g896
sg56
(lp903
g92
asbasbasbag49
(g65
g51
NtRp904
(dp905
g54
(dp906
sg63
g766
sg56
(lp907
g49
(g70
g51
NtRp908
(dp909
g54
(dp910
g74
g75
ssg63
g904
sg56
(lp911
S'gluon_parent'
p912
asbag49
(g70
g51
NtRp913
(dp914
g54
(dp915
g81
g82
ssg63
g904
sg56
(lp916
S':'
asbag49
(g70
g51
NtRp917
(dp918
g54
(dp919
sg63
g904
sg56
(lp920
g49
(g50
g51
NtRp921
(dp922
g54
(dp923
g62
I4
ssg63
g917
sg56
(lp924
S'C:\\web2py'
p925
asbasbasbag49
(g65
g51
NtRp926
(dp927
g54
(dp928
sg63
g766
sg56
(lp929
g49
(g70
g51
NtRp930
(dp931
g54
(dp932
g74
g75
ssg63
g926
sg56
(lp933
S'http_accept'
p934
asbag49
(g70
g51
NtRp935
(dp936
g54
(dp937
g81
g82
ssg63
g926
sg56
(lp938
S':'
asbag49
(g70
g51
NtRp939
(dp940
g54
(dp941
sg63
g926
sg56
(lp942
g49
(g50
g51
NtRp943
(dp944
g54
(dp945
g62
I4
ssg63
g939
sg56
(lp946
S'text/html,application/xhtml+xml,application/xml;q=0.9,*/*;q=0.8'
p947
asbasbasbag49
(g65
g51
NtRp948
(dp949
g54
(dp950
sg63
g766
sg56
(lp951
g49
(g70
g51
NtRp952
(dp953
g54
(dp954
g74
g75
ssg63
g948
sg56
(lp955
S'http_accept_charset'
p956
asbag49
(g70
g51
NtRp957
(dp958
g54
(dp959
g81
g82
ssg63
g948
sg56
(lp960
S':'
asbag49
(g70
g51
NtRp961
(dp962
g54
(dp963
sg63
g948
sg56
(lp964
g49
(g50
g51
NtRp965
(dp966
g54
(dp967
g62
I4
ssg63
g961
sg56
(lp968
S'ISO-8859-1,utf-8;q=0.7,*;q=0.3'
p969
asbasbasbag49
(g65
g51
NtRp970
(dp971
g54
(dp972
sg63
g766
sg56
(lp973
g49
(g70
g51
NtRp974
(dp975
g54
(dp976
g74
g75
ssg63
g970
sg56
(lp977
S'http_accept_encoding'
p978
asbag49
(g70
g51
NtRp979
(dp980
g54
(dp981
g81
g82
ssg63
g970
sg56
(lp982
S':'
asbag49
(g70
g51
NtRp983
(dp984
g54
(dp985
sg63
g970
sg56
(lp986
g49
(g50
g51
NtRp987
(dp988
g54
(dp989
g62
I4
ssg63
g983
sg56
(lp990
S'gzip,deflate,sdch'
p991
asbasbasbag49
(g65
g51
NtRp992
(dp993
g54
(dp994
sg63
g766
sg56
(lp995
g49
(g70
g51
NtRp996
(dp997
g54
(dp998
g74
g75
ssg63
g992
sg56
(lp999
S'http_accept_language'
p1000
asbag49
(g70
g51
NtRp1001
(dp1002
g54
(dp1003
g81
g82
ssg63
g992
sg56
(lp1004
S':'
asbag49
(g70
g51
NtRp1005
(dp1006
g54
(dp1007
sg63
g992
sg56
(lp1008
g49
(g50
g51
NtRp1009
(dp1010
g54
(dp1011
g62
I4
ssg63
g1005
sg56
(lp1012
S'pt-BR,pt;q=0.8,en-US;q=0.6,en;q=0.4'
p1013
asbasbasbag49
(g65
g51
NtRp1014
(dp1015
g54
(dp1016
sg63
g766
sg56
(lp1017
g49
(g70
g51
NtRp1018
(dp1019
g54
(dp1020
g74
g75
ssg63
g1014
sg56
(lp1021
S'http_connection'
p1022
asbag49
(g70
g51
NtRp1023
(dp1024
g54
(dp1025
g81
g82
ssg63
g1014
sg56
(lp1026
S':'
asbag49
(g70
g51
NtRp1027
(dp1028
g54
(dp1029
sg63
g1014
sg56
(lp1030
g49
(g50
g51
NtRp1031
(dp1032
g54
(dp1033
g62
I4
ssg63
g1027
sg56
(lp1034
S'keep-alive'
p1035
asbasbasbag49
(g65
g51
NtRp1036
(dp1037
g54
(dp1038
sg63
g766
sg56
(lp1039
g49
(g70
g51
NtRp1040
(dp1041
g54
(dp1042
g74
g75
ssg63
g1036
sg56
(lp1043
S'http_cookie'
p1044
asbag49
(g70
g51
NtRp1045
(dp1046
g54
(dp1047
g81
g82
ssg63
g1036
sg56
(lp1048
S':'
asbag49
(g70
g51
NtRp1049
(dp1050
g54
(dp1051
sg63
g1036
sg56
(lp1052
g49
(g50
g51
NtRp1053
(dp1054
g54
(dp1055
g62
I4
ssg63
g1049
sg56
(lp1056
S'session_id_welcome=127.0.0.1-8c1e7b0b-efab-4a1b-a824-79b2fdf9399f; session_id_admin=127.0.0.1-a1608abe-db7c-4d8d-8d32-7776ff512d25; session_id_unioeste_code=127.0.0.1-6a17e692-996f-4fa9-84f1-38283f8585af'
p1057
asbasbasbag49
(g65
g51
NtRp1058
(dp1059
g54
(dp1060
sg63
g766
sg56
(lp1061
g49
(g70
g51
NtRp1062
(dp1063
g54
(dp1064
g74
g75
ssg63
g1058
sg56
(lp1065
S'http_dnt'
p1066
asbag49
(g70
g51
NtRp1067
(dp1068
g54
(dp1069
g81
g82
ssg63
g1058
sg56
(lp1070
S':'
asbag49
(g70
g51
NtRp1071
(dp1072
g54
(dp1073
sg63
g1058
sg56
(lp1074
g49
(g50
g51
NtRp1075
(dp1076
g54
(dp1077
g62
I4
ssg63
g1071
sg56
(lp1078
S'1'
asbasbasbag49
(g65
g51
NtRp1079
(dp1080
g54
(dp1081
sg63
g766
sg56
(lp1082
g49
(g70
g51
NtRp1083
(dp1084
g54
(dp1085
g74
g75
ssg63
g1079
sg56
(lp1086
S'http_host'
p1087
asbag49
(g70
g51
NtRp1088
(dp1089
g54
(dp1090
g81
g82
ssg63
g1079
sg56
(lp1091
S':'
asbag49
(g70
g51
NtRp1092
(dp1093
g54
(dp1094
sg63
g1079
sg56
(lp1095
g49
(g50
g51
NtRp1096
(dp1097
g54
(dp1098
g62
I4
ssg63
g1092
sg56
(lp1099
S'127.0.0.1:8000'
p1100
asbasbasbag49
(g65
g51
NtRp1101
(dp1102
g54
(dp1103
sg63
g766
sg56
(lp1104
g49
(g70
g51
NtRp1105
(dp1106
g54
(dp1107
g74
g75
ssg63
g1101
sg56
(lp1108
S'http_user_agent'
p1109
asbag49
(g70
g51
NtRp1110
(dp1111
g54
(dp1112
g81
g82
ssg63
g1101
sg56
(lp1113
S':'
asbag49
(g70
g51
NtRp1114
(dp1115
g54
(dp1116
sg63
g1101
sg56
(lp1117
g49
(g50
g51
NtRp1118
(dp1119
g54
(dp1120
g62
I4
ssg63
g1114
sg56
(lp1121
S'Mozilla/5.0 (Windows NT 6.1; WOW64) AppleWebKit/536.11 (KHTML, like Gecko) Chrome/20.0.1132.57 Safari/536.11'
p1122
asbasbasbag49
(g65
g51
NtRp1123
(dp1124
g54
(dp1125
sg63
g766
sg56
(lp1126
g49
(g70
g51
NtRp1127
(dp1128
g54
(dp1129
g74
g75
ssg63
g1123
sg56
(lp1130
S'is_jython'
p1131
asbag49
(g70
g51
NtRp1132
(dp1133
g54
(dp1134
g81
g82
ssg63
g1123
sg56
(lp1135
S':'
asbag49
(g70
g51
NtRp1136
(dp1137
g54
(dp1138
sg63
g1123
sg56
(lp1139
g49
(g50
g51
NtRp1140
(dp1141
g54
(dp1142
g62
I4
ssg63
g1136
sg56
(lp1143
g92
asbasbasbag49
(g65
g51
NtRp1144
(dp1145
g54
(dp1146
sg63
g766
sg56
(lp1147
g49
(g70
g51
NtRp1148
(dp1149
g54
(dp1150
g74
g75
ssg63
g1144
sg56
(lp1151
S'is_pypy'
p1152
asbag49
(g70
g51
NtRp1153
(dp1154
g54
(dp1155
g81
g82
ssg63
g1144
sg56
(lp1156
S':'
asbag49
(g70
g51
NtRp1157
(dp1158
g54
(dp1159
sg63
g1144
sg56
(lp1160
g49
(g50
g51
NtRp1161
(dp1162
g54
(dp1163
g62
I4
ssg63
g1157
sg56
(lp1164
g92
asbasbasbag49
(g65
g51
NtRp1165
(dp1166
g54
(dp1167
sg63
g766
sg56
(lp1168
g49
(g70
g51
NtRp1169
(dp1170
g54
(dp1171
g74
g75
ssg63
g1165
sg56
(lp1172
S'path_info'
p1173
asbag49
(g70
g51
NtRp1174
(dp1175
g54
(dp1176
g81
g82
ssg63
g1165
sg56
(lp1177
S':'
asbag49
(g70
g51
NtRp1178
(dp1179
g54
(dp1180
sg63
g1165
sg56
(lp1181
g49
(g50
g51
NtRp1182
(dp1183
g54
(dp1184
g62
I4
ssg63
g1178
sg56
(lp1185
S'/unioeste_code/default/user/login'
p1186
asbasbasbag49
(g65
g51
NtRp1187
(dp1188
g54
(dp1189
sg63
g766
sg56
(lp1190
g49
(g70
g51
NtRp1191
(dp1192
g54
(dp1193
g74
g75
ssg63
g1187
sg56
(lp1194
S'query_string'
p1195
asbag49
(g70
g51
NtRp1196
(dp1197
g54
(dp1198
g81
g82
ssg63
g1187
sg56
(lp1199
S':'
asbag49
(g70
g51
NtRp1200
(dp1201
g54
(dp1202
sg63
g1187
sg56
(lp1203
g49
(g50
g51
NtRp1204
(dp1205
g54
(dp1206
g62
I4
ssg63
g1200
sg56
(lp1207
S'_next=/unioeste_code/default/Problem/1'
p1208
asbasbasbag49
(g65
g51
NtRp1209
(dp1210
g54
(dp1211
sg63
g766
sg56
(lp1212
g49
(g70
g51
NtRp1213
(dp1214
g54
(dp1215
g74
g75
ssg63
g1209
sg56
(lp1216
S'remote_addr'
p1217
asbag49
(g70
g51
NtRp1218
(dp1219
g54
(dp1220
g81
g82
ssg63
g1209
sg56
(lp1221
S':'
asbag49
(g70
g51
NtRp1222
(dp1223
g54
(dp1224
sg63
g1209
sg56
(lp1225
g49
(g50
g51
NtRp1226
(dp1227
g54
(dp1228
g62
I4
ssg63
g1222
sg56
(lp1229
g195
asbasbasbag49
(g65
g51
NtRp1230
(dp1231
g54
(dp1232
sg63
g766
sg56
(lp1233
g49
(g70
g51
NtRp1234
(dp1235
g54
(dp1236
g74
g75
ssg63
g1230
sg56
(lp1237
S'remote_port'
p1238
asbag49
(g70
g51
NtRp1239
(dp1240
g54
(dp1241
g81
g82
ssg63
g1230
sg56
(lp1242
S':'
asbag49
(g70
g51
NtRp1243
(dp1244
g54
(dp1245
sg63
g1230
sg56
(lp1246
g49
(g50
g51
NtRp1247
(dp1248
g54
(dp1249
g62
I4
ssg63
g1243
sg56
(lp1250
S'1594'
p1251
asbasbasbag49
(g65
g51
NtRp1252
(dp1253
g54
(dp1254
sg63
g766
sg56
(lp1255
g49
(g70
g51
NtRp1256
(dp1257
g54
(dp1258
g74
g75
ssg63
g1252
sg56
(lp1259
S'request_method'
p1260
asbag49
(g70
g51
NtRp1261
(dp1262
g54
(dp1263
g81
g82
ssg63
g1252
sg56
(lp1264
S':'
asbag49
(g70
g51
NtRp1265
(dp1266
g54
(dp1267
sg63
g1252
sg56
(lp1268
g49
(g50
g51
NtRp1269
(dp1270
g54
(dp1271
g62
I4
ssg63
g1265
sg56
(lp1272
S'GET'
p1273
asbasbasbag49
(g65
g51
NtRp1274
(dp1275
g54
(dp1276
sg63
g766
sg56
(lp1277
g49
(g70
g51
NtRp1278
(dp1279
g54
(dp1280
g74
g75
ssg63
g1274
sg56
(lp1281
S'script_name'
p1282
asbag49
(g70
g51
NtRp1283
(dp1284
g54
(dp1285
g81
g82
ssg63
g1274
sg56
(lp1286
S':'
asbag49
(g70
g51
NtRp1287
(dp1288
g54
(dp1289
sg63
g1274
sg56
(lp1290
g49
(g50
g51
NtRp1291
(dp1292
g54
(dp1293
g62
I4
ssg63
g1287
sg56
(lp1294
S''
asbasbasbag49
(g65
g51
NtRp1295
(dp1296
g54
(dp1297
sg63
g766
sg56
(lp1298
g49
(g70
g51
NtRp1299
(dp1300
g54
(dp1301
g74
g75
ssg63
g1295
sg56
(lp1302
S'server_name'
p1303
asbag49
(g70
g51
NtRp1304
(dp1305
g54
(dp1306
g81
g82
ssg63
g1295
sg56
(lp1307
S':'
asbag49
(g70
g51
NtRp1308
(dp1309
g54
(dp1310
sg63
g1295
sg56
(lp1311
g49
(g50
g51
NtRp1312
(dp1313
g54
(dp1314
g62
I4
ssg63
g1308
sg56
(lp1315
S'Pedro-PC'
p1316
asbasbasbag49
(g65
g51
NtRp1317
(dp1318
g54
(dp1319
sg63
g766
sg56
(lp1320
g49
(g70
g51
NtRp1321
(dp1322
g54
(dp1323
g74
g75
ssg63
g1317
sg56
(lp1324
S'server_port'
p1325
asbag49
(g70
g51
NtRp1326
(dp1327
g54
(dp1328
g81
g82
ssg63
g1317
sg56
(lp1329
S':'
asbag49
(g70
g51
NtRp1330
(dp1331
g54
(dp1332
sg63
g1317
sg56
(lp1333
g49
(g50
g51
NtRp1334
(dp1335
g54
(dp1336
g62
I4
ssg63
g1330
sg56
(lp1337
S'8000'
p1338
asbasbasbag49
(g65
g51
NtRp1339
(dp1340
g54
(dp1341
sg63
g766
sg56
(lp1342
g49
(g70
g51
NtRp1343
(dp1344
g54
(dp1345
g74
g75
ssg63
g1339
sg56
(lp1346
S'server_protocol'
p1347
asbag49
(g70
g51
NtRp1348
(dp1349
g54
(dp1350
g81
g82
ssg63
g1339
sg56
(lp1351
S':'
asbag49
(g70
g51
NtRp1352
(dp1353
g54
(dp1354
sg63
g1339
sg56
(lp1355
g49
(g50
g51
NtRp1356
(dp1357
g54
(dp1358
g62
I4
ssg63
g1352
sg56
(lp1359
S'HTTP/1.1'
p1360
asbasbasbag49
(g65
g51
NtRp1361
(dp1362
g54
(dp1363
sg63
g766
sg56
(lp1364
g49
(g70
g51
NtRp1365
(dp1366
g54
(dp1367
g74
g75
ssg63
g1361
sg56
(lp1368
S'server_software'
p1369
asbag49
(g70
g51
NtRp1370
(dp1371
g54
(dp1372
g81
g82
ssg63
g1361
sg56
(lp1373
S':'
asbag49
(g70
g51
NtRp1374
(dp1375
g54
(dp1376
sg63
g1361
sg56
(lp1377
g49
(g50
g51
NtRp1378
(dp1379
g54
(dp1380
g62
I4
ssg63
g1374
sg56
(lp1381
S'Rocket 1.2.4'
p1382
asbasbasbag49
(g65
g51
NtRp1383
(dp1384
g54
(dp1385
sg63
g766
sg56
(lp1386
g49
(g70
g51
NtRp1387
(dp1388
g54
(dp1389
g74
g75
ssg63
g1383
sg56
(lp1390
S'web2py_crontype'
p1391
asbag49
(g70
g51
NtRp1392
(dp1393
g54
(dp1394
g81
g82
ssg63
g1383
sg56
(lp1395
S':'
asbag49
(g70
g51
NtRp1396
(dp1397
g54
(dp1398
sg63
g1383
sg56
(lp1399
g49
(g50
g51
NtRp1400
(dp1401
g54
(dp1402
g62
I4
ssg63
g1396
sg56
(lp1403
S'hard'
p1404
asbasbasbag49
(g65
g51
NtRp1405
(dp1406
g54
(dp1407
sg63
g766
sg56
(lp1408
g49
(g70
g51
NtRp1409
(dp1410
g54
(dp1411
g74
g75
ssg63
g1405
sg56
(lp1412
S'web2py_path'
p1413
asbag49
(g70
g51
NtRp1414
(dp1415
g54
(dp1416
g81
g82
ssg63
g1405
sg56
(lp1417
S':'
asbag49
(g70
g51
NtRp1418
(dp1419
g54
(dp1420
sg63
g1405
sg56
(lp1421
g49
(g50
g51
NtRp1422
(dp1423
g54
(dp1424
g62
I4
ssg63
g1418
sg56
(lp1425
g813
asbasbasbag49
(g65
g51
NtRp1426
(dp1427
g54
(dp1428
sg63
g766
sg56
(lp1429
g49
(g70
g51
NtRp1430
(dp1431
g54
(dp1432
g74
g75
ssg63
g1426
sg56
(lp1433
S'web2py_version'
p1434
asbag49
(g70
g51
NtRp1435
(dp1436
g54
(dp1437
g81
g82
ssg63
g1426
sg56
(lp1438
S':'
asbag49
(g70
g51
NtRp1439
(dp1440
g54
(dp1441
sg63
g1426
sg56
(lp1442
g49
(g50
g51
NtRp1443
(dp1444
g54
(dp1445
g62
I4
ssg63
g1439
sg56
(lp1446
g49
(g58
g51
NtRp1447
(dp1448
g54
(dp1449
g62
I3
ssg63
Nsg56
(lp1450
g49
(g65
g51
NtRp1451
(dp1452
g54
(dp1453
sg63
g1447
sg56
(lp1454
g49
(g70
g51
NtRp1455
(dp1456
g54
(dp1457
sg63
g1451
sg56
(lp1458
g49
(g50
g51
NtRp1459
(dp1460
g54
(dp1461
g62
I3
ssg63
g1455
sg56
(lp1462
S'1'
asbasbasbag49
(g65
g51
NtRp1463
(dp1464
g54
(dp1465
sg63
g1447
sg56
(lp1466
g49
(g70
g51
NtRp1467
(dp1468
g54
(dp1469
sg63
g1463
sg56
(lp1470
g49
(g50
g51
NtRp1471
(dp1472
g54
(dp1473
g62
I3
ssg63
g1467
sg56
(lp1474
S'99'
p1475
asbasbasbag49
(g65
g51
NtRp1476
(dp1477
g54
(dp1478
sg63
g1447
sg56
(lp1479
g49
(g70
g51
NtRp1480
(dp1481
g54
(dp1482
sg63
g1476
sg56
(lp1483
g49
(g50
g51
NtRp1484
(dp1485
g54
(dp1486
g62
I3
ssg63
g1480
sg56
(lp1487
S'7'
asbasbasbag49
(g65
g51
NtRp1488
(dp1489
g54
(dp1490
sg63
g1447
sg56
(lp1491
g49
(g70
g51
NtRp1492
(dp1493
g54
(dp1494
sg63
g1488
sg56
(lp1495
g49
(g50
g51
NtRp1496
(dp1497
g54
(dp1498
g62
I3
ssg63
g1492
sg56
(lp1499
S'datetime.datetime(2012, 3, 4, 22, 12, 8)'
p1500
asbasbasbag49
(g65
g51
NtRp1501
(dp1502
g54
(dp1503
sg63
g1447
sg56
(lp1504
g49
(g70
g51
NtRp1505
(dp1506
g54
(dp1507
sg63
g1501
sg56
(lp1508
g49
(g50
g51
NtRp1509
(dp1510
g54
(dp1511
g62
I3
ssg63
g1505
sg56
(lp1512
S'stable'
p1513
asbasbasbasbasbasbasbag49
(g65
g51
NtRp1514
(dp1515
g54
(dp1516
sg63
g766
sg56
(lp1517
g49
(g70
g51
NtRp1518
(dp1519
g54
(dp1520
g74
g75
ssg63
g1514
sg56
(lp1521
S'wsgi_errors'
p1522
asbag49
(g70
g51
NtRp1523
(dp1524
g54
(dp1525
g81
g82
ssg63
g1514
sg56
(lp1526
S':'
asbag49
(g70
g51
NtRp1527
(dp1528
g54
(dp1529
sg63
g1514
sg56
(lp1530
g49
(g50
g51
NtRp1531
(dp1532
g54
(dp1533
g62
I4
ssg63
g1527
sg56
(lp1534
S'<__main__.Stderr object at 0x00296670>'
p1535
asbasbasbag49
(g65
g51
NtRp1536
(dp1537
g54
(dp1538
sg63
g766
sg56
(lp1539
g49
(g70
g51
NtRp1540
(dp1541
g54
(dp1542
g74
g75
ssg63
g1536
sg56
(lp1543
S'wsgi_file_wrapper'
p1544
asbag49
(g70
g51
NtRp1545
(dp1546
g54
(dp1547
g81
g82
ssg63
g1536
sg56
(lp1548
S':'
asbag49
(g70
g51
NtRp1549
(dp1550
g54
(dp1551
sg63
g1536
sg56
(lp1552
g49
(g50
g51
NtRp1553
(dp1554
g54
(dp1555
g62
I4
ssg63
g1549
sg56
(lp1556
S'<class wsgiref.util.FileWrapper at 0x02F3DE10>'
p1557
asbasbasbag49
(g65
g51
NtRp1558
(dp1559
g54
(dp1560
sg63
g766
sg56
(lp1561
g49
(g70
g51
NtRp1562
(dp1563
g54
(dp1564
g74
g75
ssg63
g1558
sg56
(lp1565
S'wsgi_input'
p1566
asbag49
(g70
g51
NtRp1567
(dp1568
g54
(dp1569
g81
g82
ssg63
g1558
sg56
(lp1570
S':'
asbag49
(g70
g51
NtRp1571
(dp1572
g54
(dp1573
sg63
g1558
sg56
(lp1574
g49
(g50
g51
NtRp1575
(dp1576
g54
(dp1577
g62
I4
ssg63
g1571
sg56
(lp1578
S'<socket._fileobject object at 0x06CC5C70>'
p1579
asbasbasbag49
(g65
g51
NtRp1580
(dp1581
g54
(dp1582
sg63
g766
sg56
(lp1583
g49
(g70
g51
NtRp1584
(dp1585
g54
(dp1586
g74
g75
ssg63
g1580
sg56
(lp1587
S'wsgi_multiprocess'
p1588
asbag49
(g70
g51
NtRp1589
(dp1590
g54
(dp1591
g81
g82
ssg63
g1580
sg56
(lp1592
S':'
asbag49
(g70
g51
NtRp1593
(dp1594
g54
(dp1595
sg63
g1580
sg56
(lp1596
g49
(g50
g51
NtRp1597
(dp1598
g54
(dp1599
g62
I4
ssg63
g1593
sg56
(lp1600
g92
asbasbasbag49
(g65
g51
NtRp1601
(dp1602
g54
(dp1603
sg63
g766
sg56
(lp1604
g49
(g70
g51
NtRp1605
(dp1606
g54
(dp1607
g74
g75
ssg63
g1601
sg56
(lp1608
S'wsgi_multithread'
p1609
asbag49
(g70
g51
NtRp1610
(dp1611
g54
(dp1612
g81
g82
ssg63
g1601
sg56
(lp1613
S':'
asbag49
(g70
g51
NtRp1614
(dp1615
g54
(dp1616
sg63
g1601
sg56
(lp1617
g49
(g50
g51
NtRp1618
(dp1619
g54
(dp1620
g62
I4
ssg63
g1614
sg56
(lp1621
S'True'
p1622
asbasbasbag49
(g65
g51
NtRp1623
(dp1624
g54
(dp1625
sg63
g766
sg56
(lp1626
g49
(g70
g51
NtRp1627
(dp1628
g54
(dp1629
g74
g75
ssg63
g1623
sg56
(lp1630
S'wsgi_run_once'
p1631
asbag49
(g70
g51
NtRp1632
(dp1633
g54
(dp1634
g81
g82
ssg63
g1623
sg56
(lp1635
S':'
asbag49
(g70
g51
NtRp1636
(dp1637
g54
(dp1638
sg63
g1623
sg56
(lp1639
g49
(g50
g51
NtRp1640
(dp1641
g54
(dp1642
g62
I4
ssg63
g1636
sg56
(lp1643
g92
asbasbasbag49
(g65
g51
NtRp1644
(dp1645
g54
(dp1646
sg63
g766
sg56
(lp1647
g49
(g70
g51
NtRp1648
(dp1649
g54
(dp1650
g74
g75
ssg63
g1644
sg56
(lp1651
S'wsgi_url_scheme'
p1652
asbag49
(g70
g51
NtRp1653
(dp1654
g54
(dp1655
g81
g82
ssg63
g1644
sg56
(lp1656
S':'
asbag49
(g70
g51
NtRp1657
(dp1658
g54
(dp1659
sg63
g1644
sg56
(lp1660
g49
(g50
g51
NtRp1661
(dp1662
g54
(dp1663
g62
I4
ssg63
g1657
sg56
(lp1664
S'http'
p1665
asbasbasbag49
(g65
g51
NtRp1666
(dp1667
g54
(dp1668
sg63
g766
sg56
(lp1669
g49
(g70
g51
NtRp1670
(dp1671
g54
(dp1672
g74
g75
ssg63
g1666
sg56
(lp1673
S'wsgi_version'
p1674
asbag49
(g70
g51
NtRp1675
(dp1676
g54
(dp1677
g81
g82
ssg63
g1666
sg56
(lp1678
S':'
asbag49
(g70
g51
NtRp1679
(dp1680
g54
(dp1681
sg63
g1666
sg56
(lp1682
g49
(g50
g51
NtRp1683
(dp1684
g54
(dp1685
g62
I4
ssg63
g1679
sg56
(lp1686
g49
(g58
g51
NtRp1687
(dp1688
g54
(dp1689
g62
I3
ssg63
Nsg56
(lp1690
g49
(g65
g51
NtRp1691
(dp1692
g54
(dp1693
sg63
g1687
sg56
(lp1694
g49
(g70
g51
NtRp1695
(dp1696
g54
(dp1697
sg63
g1691
sg56
(lp1698
g49
(g50
g51
NtRp1699
(dp1700
g54
(dp1701
g62
I3
ssg63
g1695
sg56
(lp1702
S'1'
asbasbasbag49
(g65
g51
NtRp1703
(dp1704
g54
(dp1705
sg63
g1687
sg56
(lp1706
g49
(g70
g51
NtRp1707
(dp1708
g54
(dp1709
sg63
g1703
sg56
(lp1710
g49
(g50
g51
NtRp1711
(dp1712
g54
(dp1713
g62
I3
ssg63
g1707
sg56
(lp1714
S'0'
asbasbasbasbasbasbasbasbasbasbasbag49
(g65
g51
NtRp1715
(dp1716
g54
(dp1717
sg63
g59
sg56
(lp1718
g49
(g70
g51
NtRp1719
(dp1720
g54
(dp1721
g74
g75
ssg63
g1715
sg56
(lp1722
S'extension'
p1723
asbag49
(g70
g51
NtRp1724
(dp1725
g54
(dp1726
g81
g82
ssg63
g1715
sg56
(lp1727
S':'
asbag49
(g70
g51
NtRp1728
(dp1729
g54
(dp1730
sg63
g1715
sg56
(lp1731
g49
(g50
g51
NtRp1732
(dp1733
g54
(dp1734
g62
I5
ssg63
g1728
sg56
(lp1735
S'html'
p1736
asbasbasbag49
(g65
g51
NtRp1737
(dp1738
g54
(dp1739
sg63
g59
sg56
(lp1740
g49
(g70
g51
NtRp1741
(dp1742
g54
(dp1743
g74
g75
ssg63
g1737
sg56
(lp1744
S'folder'
p1745
asbag49
(g70
g51
NtRp1746
(dp1747
g54
(dp1748
g81
g82
ssg63
g1737
sg56
(lp1749
S':'
asbag49
(g70
g51
NtRp1750
(dp1751
g54
(dp1752
sg63
g1737
sg56
(lp1753
g49
(g50
g51
NtRp1754
(dp1755
g54
(dp1756
g62
I5
ssg63
g1750
sg56
(lp1757
S'C:\\web2py\\applications\\unioeste_code\\'
p1758
asbasbasbag49
(g65
g51
NtRp1759
(dp1760
g54
(dp1761
sg63
g59
sg56
(lp1762
g49
(g70
g51
NtRp1763
(dp1764
g54
(dp1765
g74
g75
ssg63
g1759
sg56
(lp1766
S'function'
p1767
asbag49
(g70
g51
NtRp1768
(dp1769
g54
(dp1770
g81
g82
ssg63
g1759
sg56
(lp1771
S':'
asbag49
(g70
g51
NtRp1772
(dp1773
g54
(dp1774
sg63
g1759
sg56
(lp1775
g49
(g50
g51
NtRp1776
(dp1777
g54
(dp1778
g62
I5
ssg63
g1772
sg56
(lp1779
S'user'
p1780
asbasbasbag49
(g65
g51
NtRp1781
(dp1782
g54
(dp1783
sg63
g59
sg56
(lp1784
g49
(g70
g51
NtRp1785
(dp1786
g54
(dp1787
g74
g75
ssg63
g1781
sg56
(lp1788
S'get_vars'
p1789
asbag49
(g70
g51
NtRp1790
(dp1791
g54
(dp1792
g81
g82
ssg63
g1781
sg56
(lp1793
S':'
asbag49
(g70
g51
NtRp1794
(dp1795
g54
(dp1796
sg63
g1781
sg56
(lp1797
g49
(g50
g51
NtRp1798
(dp1799
g54
(dp1800
g62
I5
ssg63
g1794
sg56
(lp1801
g49
(g58
g51
NtRp1802
(dp1803
g54
(dp1804
g62
I4
ssg63
Nsg56
(lp1805
sbasbasbasbag49
(g65
g51
NtRp1806
(dp1807
g54
(dp1808
sg63
g59
sg56
(lp1809
g49
(g70
g51
NtRp1810
(dp1811
g54
(dp1812
g74
g75
ssg63
g1806
sg56
(lp1813
S'global_settings'
p1814
asbag49
(g70
g51
NtRp1815
(dp1816
g54
(dp1817
g81
g82
ssg63
g1806
sg56
(lp1818
S':'
asbag49
(g70
g51
NtRp1819
(dp1820
g54
(dp1821
sg63
g1806
sg56
(lp1822
g49
(g50
g51
NtRp1823
(dp1824
g54
(dp1825
g62
I5
ssg63
g1819
sg56
(lp1826
g49
(g58
g51
NtRp1827
(dp1828
g54
(dp1829
g62
I4
ssg63
Nsg56
(lp1830
g49
(g65
g51
NtRp1831
(dp1832
g54
(dp1833
sg63
g1827
sg56
(lp1834
g49
(g70
g51
NtRp1835
(dp1836
g54
(dp1837
g74
g75
ssg63
g1831
sg56
(lp1838
g778
asbag49
(g70
g51
NtRp1839
(dp1840
g54
(dp1841
g81
g82
ssg63
g1831
sg56
(lp1842
S':'
asbag49
(g70
g51
NtRp1843
(dp1844
g54
(dp1845
sg63
g1831
sg56
(lp1846
g49
(g50
g51
NtRp1847
(dp1848
g54
(dp1849
g62
I4
ssg63
g1843
sg56
(lp1850
S"set(['C:\\\\web2py\\\\applications\\\\admin\\\\', 'C:\\\\web2py\\\\applications\\\\welcome\\\\', 'C:\\\\web2py\\\\applications\\\\unioeste_code\\\\'])"
p1851
asbasbasbag49
(g65
g51
NtRp1852
(dp1853
g54
(dp1854
sg63
g1827
sg56
(lp1855
g49
(g70
g51
NtRp1856
(dp1857
g54
(dp1858
g74
g75
ssg63
g1852
sg56
(lp1859
g800
asbag49
(g70
g51
NtRp1860
(dp1861
g54
(dp1862
g81
g82
ssg63
g1852
sg56
(lp1863
S':'
asbag49
(g70
g51
NtRp1864
(dp1865
g54
(dp1866
sg63
g1852
sg56
(lp1867
g49
(g50
g51
NtRp1868
(dp1869
g54
(dp1870
g62
I4
ssg63
g1864
sg56
(lp1871
g813
asbasbasbag49
(g65
g51
NtRp1872
(dp1873
g54
(dp1874
sg63
g1827
sg56
(lp1875
g49
(g70
g51
NtRp1876
(dp1877
g54
(dp1878
g74
g75
ssg63
g1872
sg56
(lp1879
g822
asbag49
(g70
g51
NtRp1880
(dp1881
g54
(dp1882
g81
g82
ssg63
g1872
sg56
(lp1883
S':'
asbag49
(g70
g51
NtRp1884
(dp1885
g54
(dp1886
sg63
g1872
sg56
(lp1887
g49
(g50
g51
NtRp1888
(dp1889
g54
(dp1890
g62
I4
ssg63
g1884
sg56
(lp1891
g49
(g58
g51
NtRp1892
(dp1893
g54
(dp1894
g62
I3
ssg63
Nsg56
(lp1895
sbasbasbasbag49
(g65
g51
NtRp1896
(dp1897
g54
(dp1898
sg63
g1827
sg56
(lp1899
g49
(g70
g51
NtRp1900
(dp1901
g54
(dp1902
g74
g75
ssg63
g1896
sg56
(lp1903
g847
asbag49
(g70
g51
NtRp1904
(dp1905
g54
(dp1906
g81
g82
ssg63
g1896
sg56
(lp1907
S':'
asbag49
(g70
g51
NtRp1908
(dp1909
g54
(dp1910
sg63
g1896
sg56
(lp1911
g49
(g50
g51
NtRp1912
(dp1913
g54
(dp1914
g62
I4
ssg63
g1908
sg56
(lp1915
S"<Values at 0x314c300: {'verbose': False, 'ip': '127.0.0.1', 'shutdown_timeout': 5, 'taskbar': False, 'nocron': False, 'pid_filename': 'httpserver.pid', 'maxthreads': None, 'softcron': False, 'server_name': 'Pedro-PC', 'bpython': False, 'nogui': False, 'port': 8000, 'extcron': False, 'debuglevel': 30, 'test': None, 'folder': 'C:\\\\web2py', 'config': '', 'import_models': False, 'winservice': '', 'shell': None, 'run': '', 'log_filename': 'httpserver.log', 'args': [''], 'socket_timeout': 5, 'ssl_ca_certificate': None, 'scheduler': None, 'profiler_filename': None, 'ssl_private_key': '', 'password': '<ask>', 'request_queue_size': 5, 'ssl_certificate': '', 'cronjob': False, 'numthreads': None, 'quiet': False, 'interfaces': None, 'minthreads': None, 'timeout': 10, 'plain': False, 'nobanner': False}>"
p1916
asbasbasbag49
(g65
g51
NtRp1917
(dp1918
g54
(dp1919
sg63
g1827
sg56
(lp1920
g49
(g70
g51
NtRp1921
(dp1922
g54
(dp1923
g74
g75
ssg63
g1917
sg56
(lp1924
g869
asbag49
(g70
g51
NtRp1925
(dp1926
g54
(dp1927
g81
g82
ssg63
g1917
sg56
(lp1928
S':'
asbag49
(g70
g51
NtRp1929
(dp1930
g54
(dp1931
sg63
g1917
sg56
(lp1932
g49
(g50
g51
NtRp1933
(dp1934
g54
(dp1935
g62
I4
ssg63
g1929
sg56
(lp1936
S'set([])'
p1937
asbasbasbag49
(g65
g51
NtRp1938
(dp1939
g54
(dp1940
sg63
g1827
sg56
(lp1941
g49
(g70
g51
NtRp1942
(dp1943
g54
(dp1944
g74
g75
ssg63
g1938
sg56
(lp1945
g891
asbag49
(g70
g51
NtRp1946
(dp1947
g54
(dp1948
g81
g82
ssg63
g1938
sg56
(lp1949
S':'
asbag49
(g70
g51
NtRp1950
(dp1951
g54
(dp1952
sg63
g1938
sg56
(lp1953
g49
(g50
g51
NtRp1954
(dp1955
g54
(dp1956
g62
I4
ssg63
g1950
sg56
(lp1957
g92
asbasbasbag49
(g65
g51
NtRp1958
(dp1959
g54
(dp1960
sg63
g1827
sg56
(lp1961
g49
(g70
g51
NtRp1962
(dp1963
g54
(dp1964
g74
g75
ssg63
g1958
sg56
(lp1965
g912
asbag49
(g70
g51
NtRp1966
(dp1967
g54
(dp1968
g81
g82
ssg63
g1958
sg56
(lp1969
S':'
asbag49
(g70
g51
NtRp1970
(dp1971
g54
(dp1972
sg63
g1958
sg56
(lp1973
g49
(g50
g51
NtRp1974
(dp1975
g54
(dp1976
g62
I4
ssg63
g1970
sg56
(lp1977
g925
asbasbasbag49
(g65
g51
NtRp1978
(dp1979
g54
(dp1980
sg63
g1827
sg56
(lp1981
g49
(g70
g51
NtRp1982
(dp1983
g54
(dp1984
g74
g75
ssg63
g1978
sg56
(lp1985
g1131
asbag49
(g70
g51
NtRp1986
(dp1987
g54
(dp1988
g81
g82
ssg63
g1978
sg56
(lp1989
S':'
asbag49
(g70
g51
NtRp1990
(dp1991
g54
(dp1992
sg63
g1978
sg56
(lp1993
g49
(g50
g51
NtRp1994
(dp1995
g54
(dp1996
g62
I4
ssg63
g1990
sg56
(lp1997
g92
asbasbasbag49
(g65
g51
NtRp1998
(dp1999
g54
(dp2000
sg63
g1827
sg56
(lp2001
g49
(g70
g51
NtRp2002
(dp2003
g54
(dp2004
g74
g75
ssg63
g1998
sg56
(lp2005
g1152
asbag49
(g70
g51
NtRp2006
(dp2007
g54
(dp2008
g81
g82
ssg63
g1998
sg56
(lp2009
S':'
asbag49
(g70
g51
NtRp2010
(dp2011
g54
(dp2012
sg63
g1998
sg56
(lp2013
g49
(g50
g51
NtRp2014
(dp2015
g54
(dp2016
g62
I4
ssg63
g2010
sg56
(lp2017
g92
asbasbasbag49
(g65
g51
NtRp2018
(dp2019
g54
(dp2020
sg63
g1827
sg56
(lp2021
g49
(g70
g51
NtRp2022
(dp2023
g54
(dp2024
g74
g75
ssg63
g2018
sg56
(lp2025
g1391
asbag49
(g70
g51
NtRp2026
(dp2027
g54
(dp2028
g81
g82
ssg63
g2018
sg56
(lp2029
S':'
asbag49
(g70
g51
NtRp2030
(dp2031
g54
(dp2032
sg63
g2018
sg56
(lp2033
g49
(g50
g51
NtRp2034
(dp2035
g54
(dp2036
g62
I4
ssg63
g2030
sg56
(lp2037
g1404
asbasbasbag49
(g65
g51
NtRp2038
(dp2039
g54
(dp2040
sg63
g1827
sg56
(lp2041
g49
(g70
g51
NtRp2042
(dp2043
g54
(dp2044
g74
g75
ssg63
g2038
sg56
(lp2045
g1434
asbag49
(g70
g51
NtRp2046
(dp2047
g54
(dp2048
g81
g82
ssg63
g2038
sg56
(lp2049
S':'
asbag49
(g70
g51
NtRp2050
(dp2051
g54
(dp2052
sg63
g2038
sg56
(lp2053
g49
(g50
g51
NtRp2054
(dp2055
g54
(dp2056
g62
I4
ssg63
g2050
sg56
(lp2057
g49
(g58
g51
NtRp2058
(dp2059
g54
(dp2060
g62
I3
ssg63
Nsg56
(lp2061
g49
(g65
g51
NtRp2062
(dp2063
g54
(dp2064
sg63
g2058
sg56
(lp2065
g49
(g70
g51
NtRp2066
(dp2067
g54
(dp2068
sg63
g2062
sg56
(lp2069
g49
(g50
g51
NtRp2070
(dp2071
g54
(dp2072
g62
I3
ssg63
g2066
sg56
(lp2073
S'1'
asbasbasbag49
(g65
g51
NtRp2074
(dp2075
g54
(dp2076
sg63
g2058
sg56
(lp2077
g49
(g70
g51
NtRp2078
(dp2079
g54
(dp2080
sg63
g2074
sg56
(lp2081
g49
(g50
g51
NtRp2082
(dp2083
g54
(dp2084
g62
I3
ssg63
g2078
sg56
(lp2085
S'99'
p2086
asbasbasbag49
(g65
g51
NtRp2087
(dp2088
g54
(dp2089
sg63
g2058
sg56
(lp2090
g49
(g70
g51
NtRp2091
(dp2092
g54
(dp2093
sg63
g2087
sg56
(lp2094
g49
(g50
g51
NtRp2095
(dp2096
g54
(dp2097
g62
I3
ssg63
g2091
sg56
(lp2098
S'7'
asbasbasbag49
(g65
g51
NtRp2099
(dp2100
g54
(dp2101
sg63
g2058
sg56
(lp2102
g49
(g70
g51
NtRp2103
(dp2104
g54
(dp2105
sg63
g2099
sg56
(lp2106
g49
(g50
g51
NtRp2107
(dp2108
g54
(dp2109
g62
I3
ssg63
g2103
sg56
(lp2110
S'datetime.datetime(2012, 3, 4, 22, 12, 8)'
p2111
asbasbasbag49
(g65
g51
NtRp2112
(dp2113
g54
(dp2114
sg63
g2058
sg56
(lp2115
g49
(g70
g51
NtRp2116
(dp2117
g54
(dp2118
sg63
g2112
sg56
(lp2119
g49
(g50
g51
NtRp2120
(dp2121
g54
(dp2122
g62
I3
ssg63
g2116
sg56
(lp2123
g1513
asbasbasbasbasbasbasbasbasbasbasbag49
(g65
g51
NtRp2124
(dp2125
g54
(dp2126
sg63
g59
sg56
(lp2127
g49
(g70
g51
NtRp2128
(dp2129
g54
(dp2130
g74
g75
ssg63
g2124
sg56
(lp2131
S'is_https'
p2132
asbag49
(g70
g51
NtRp2133
(dp2134
g54
(dp2135
g81
g82
ssg63
g2124
sg56
(lp2136
S':'
asbag49
(g70
g51
NtRp2137
(dp2138
g54
(dp2139
sg63
g2124
sg56
(lp2140
g49
(g50
g51
NtRp2141
(dp2142
g54
(dp2143
g62
I5
ssg63
g2137
sg56
(lp2144
g92
asbasbasbag49
(g65
g51
NtRp2145
(dp2146
g54
(dp2147
sg63
g59
sg56
(lp2148
g49
(g70
g51
NtRp2149
(dp2150
g54
(dp2151
g74
g75
ssg63
g2145
sg56
(lp2152
S'is_local'
p2153
asbag49
(g70
g51
NtRp2154
(dp2155
g54
(dp2156
g81
g82
ssg63
g2145
sg56
(lp2157
S':'
asbag49
(g70
g51
NtRp2158
(dp2159
g54
(dp2160
sg63
g2145
sg56
(lp2161
g49
(g50
g51
NtRp2162
(dp2163
g54
(dp2164
g62
I5
ssg63
g2158
sg56
(lp2165
g1622
asbasbasbag49
(g65
g51
NtRp2166
(dp2167
g54
(dp2168
sg63
g59
sg56
(lp2169
g49
(g70
g51
NtRp2170
(dp2171
g54
(dp2172
g74
g75
ssg63
g2166
sg56
(lp2173
S'is_restful'
p2174
asbag49
(g70
g51
NtRp2175
(dp2176
g54
(dp2177
g81
g82
ssg63
g2166
sg56
(lp2178
S':'
asbag49
(g70
g51
NtRp2179
(dp2180
g54
(dp2181
sg63
g2166
sg56
(lp2182
g49
(g50
g51
NtRp2183
(dp2184
g54
(dp2185
g62
I5
ssg63
g2179
sg56
(lp2186
g92
asbasbasbag49
(g65
g51
NtRp2187
(dp2188
g54
(dp2189
sg63
g59
sg56
(lp2190
g49
(g70
g51
NtRp2191
(dp2192
g54
(dp2193
g74
g75
ssg63
g2187
sg56
(lp2194
S'now'
p2195
asbag49
(g70
g51
NtRp2196
(dp2197
g54
(dp2198
g81
g82
ssg63
g2187
sg56
(lp2199
S':'
asbag49
(g70
g51
NtRp2200
(dp2201
g54
(dp2202
sg63
g2187
sg56
(lp2203
g49
(g50
g51
NtRp2204
(dp2205
g54
(dp2206
g62
I5
ssg63
g2200
sg56
(lp2207
S'datetime.datetime(2012, 8, 2, 15, 10, 12, 147000)'
p2208
asbasbasbag49
(g65
g51
NtRp2209
(dp2210
g54
(dp2211
sg63
g59
sg56
(lp2212
g49
(g70
g51
NtRp2213
(dp2214
g54
(dp2215
g74
g75
ssg63
g2209
sg56
(lp2216
S'post_vars'
p2217
asbag49
(g70
g51
NtRp2218
(dp2219
g54
(dp2220
g81
g82
ssg63
g2209
sg56
(lp2221
S':'
asbag49
(g70
g51
NtRp2222
(dp2223
g54
(dp2224
sg63
g2209
sg56
(lp2225
g49
(g50
g51
NtRp2226
(dp2227
g54
(dp2228
g62
I5
ssg63
g2222
sg56
(lp2229
g49
(g58
g51
NtRp2230
(dp2231
g54
(dp2232
g62
I4
ssg63
Nsg56
(lp2233
sbasbasbasbag49
(g65
g51
NtRp2234
(dp2235
g54
(dp2236
sg63
g59
sg56
(lp2237
g49
(g70
g51
NtRp2238
(dp2239
g54
(dp2240
g74
g75
ssg63
g2234
sg56
(lp2241
S'raw_args'
p2242
asbag49
(g70
g51
NtRp2243
(dp2244
g54
(dp2245
g81
g82
ssg63
g2234
sg56
(lp2246
S':'
asbag49
(g70
g51
NtRp2247
(dp2248
g54
(dp2249
sg63
g2234
sg56
(lp2250
g49
(g50
g51
NtRp2251
(dp2252
g54
(dp2253
g62
I5
ssg63
g2247
sg56
(lp2254
S'login'
p2255
asbasbasbag49
(g65
g51
NtRp2256
(dp2257
g54
(dp2258
sg63
g59
sg56
(lp2259
g49
(g70
g51
NtRp2260
(dp2261
g54
(dp2262
g74
g75
ssg63
g2256
sg56
(lp2263
S'url'
p2264
asbag49
(g70
g51
NtRp2265
(dp2266
g54
(dp2267
g81
g82
ssg63
g2256
sg56
(lp2268
S':'
asbag49
(g70
g51
NtRp2269
(dp2270
g54
(dp2271
sg63
g2256
sg56
(lp2272
g49
(g50
g51
NtRp2273
(dp2274
g54
(dp2275
g62
I5
ssg63
g2269
sg56
(lp2276
S'/unioeste_code/default/user/login'
p2277
asbasbasbag49
(g65
g51
NtRp2278
(dp2279
g54
(dp2280
sg63
g59
sg56
(lp2281
g49
(g70
g51
NtRp2282
(dp2283
g54
(dp2284
g74
g75
ssg63
g2278
sg56
(lp2285
S'utcnow'
p2286
asbag49
(g70
g51
NtRp2287
(dp2288
g54
(dp2289
g81
g82
ssg63
g2278
sg56
(lp2290
S':'
asbag49
(g70
g51
NtRp2291
(dp2292
g54
(dp2293
sg63
g2278
sg56
(lp2294
g49
(g50
g51
NtRp2295
(dp2296
g54
(dp2297
g62
I5
ssg63
g2291
sg56
(lp2298
S'datetime.datetime(2012, 8, 2, 18, 10, 12, 147000)'
p2299
asbasbasbag49
(g65
g51
NtRp2300
(dp2301
g54
(dp2302
sg63
g59
sg56
(lp2303
g49
(g70
g51
NtRp2304
(dp2305
g54
(dp2306
g74
g75
ssg63
g2300
sg56
(lp2307
S'uuid'
p2308
asbag49
(g70
g51
NtRp2309
(dp2310
g54
(dp2311
g81
g82
ssg63
g2300
sg56
(lp2312
S':'
asbag49
(g70
g51
NtRp2313
(dp2314
g54
(dp2315
sg63
g2300
sg56
(lp2316
g49
(g50
g51
NtRp2317
(dp2318
g54
(dp2319
g62
I5
ssg63
g2313
sg56
(lp2320
S'unioeste_code/127.0.0.1.2012-08-02.15-10-12.6f0d9d4c-e768-4aa5-9e27-6c53aeca0b92'
p2321
asbasbasbag49
(g65
g51
NtRp2322
(dp2323
g54
(dp2324
sg63
g59
sg56
(lp2325
g49
(g70
g51
NtRp2326
(dp2327
g54
(dp2328
g74
g75
ssg63
g2322
sg56
(lp2329
S'vars'
p2330
asbag49
(g70
g51
NtRp2331
(dp2332
g54
(dp2333
g81
g82
ssg63
g2322
sg56
(lp2334
S':'
asbag49
(g70
g51
NtRp2335
(dp2336
g54
(dp2337
sg63
g2322
sg56
(lp2338
g49
(g50
g51
NtRp2339
(dp2340
g54
(dp2341
g62
I5
ssg63
g2335
sg56
(lp2342
g49
(g58
g51
NtRp2343
(dp2344
g54
(dp2345
g62
I4
ssg63
Nsg56
(lp2346
sbasbasbasbag49
(g65
g51
NtRp2347
(dp2348
g54
(dp2349
sg63
g59
sg56
(lp2350
g49
(g70
g51
NtRp2351
(dp2352
g54
(dp2353
g74
g75
ssg63
g2347
sg56
(lp2354
S'wsgi'
p2355
asbag49
(g70
g51
NtRp2356
(dp2357
g54
(dp2358
g81
g82
ssg63
g2347
sg56
(lp2359
S':'
asbag49
(g70
g51
NtRp2360
(dp2361
g54
(dp2362
sg63
g2347
sg56
(lp2363
g49
(g50
g51
NtRp2364
(dp2365
g54
(dp2366
g62
I5
ssg63
g2360
sg56
(lp2367
g49
(g58
g51
NtRp2368
(dp2369
g54
(dp2370
g62
I4
ssg63
Nsg56
(lp2371
g49
(g65
g51
NtRp2372
(dp2373
g54
(dp2374
sg63
g2368
sg56
(lp2375
g49
(g70
g51
NtRp2376
(dp2377
g54
(dp2378
g74
g75
ssg63
g2372
sg56
(lp2379
S'environ'
p2380
asbag49
(g70
g51
NtRp2381
(dp2382
g54
(dp2383
g81
g82
ssg63
g2372
sg56
(lp2384
S':'
asbag49
(g70
g51
NtRp2385
(dp2386
g54
(dp2387
sg63
g2372
sg56
(lp2388
g49
(g50
g51
NtRp2389
(dp2390
g54
(dp2391
g62
I4
ssg63
g2385
sg56
(lp2392
g49
(g58
g51
NtRp2393
(dp2394
g54
(dp2395
g62
I3
ssg63
Nsg56
(lp2396
g49
(g65
g51
NtRp2397
(dp2398
g54
(dp2399
sg63
g2393
sg56
(lp2400
g49
(g70
g51
NtRp2401
(dp2402
g54
(dp2403
g74
g75
ssg63
g2397
sg56
(lp2404
S'HTTP_ACCEPT'
p2405
asbag49
(g70
g51
NtRp2406
(dp2407
g54
(dp2408
g81
g82
ssg63
g2397
sg56
(lp2409
S':'
asbag49
(g70
g51
NtRp2410
(dp2411
g54
(dp2412
sg63
g2397
sg56
(lp2413
g49
(g50
g51
NtRp2414
(dp2415
g54
(dp2416
g62
I3
ssg63
g2410
sg56
(lp2417
g947
asbasbasbag49
(g65
g51
NtRp2418
(dp2419
g54
(dp2420
sg63
g2393
sg56
(lp2421
g49
(g70
g51
NtRp2422
(dp2423
g54
(dp2424
g74
g75
ssg63
g2418
sg56
(lp2425
S'HTTP_ACCEPT_CHARSET'
p2426
asbag49
(g70
g51
NtRp2427
(dp2428
g54
(dp2429
g81
g82
ssg63
g2418
sg56
(lp2430
S':'
asbag49
(g70
g51
NtRp2431
(dp2432
g54
(dp2433
sg63
g2418
sg56
(lp2434
g49
(g50
g51
NtRp2435
(dp2436
g54
(dp2437
g62
I3
ssg63
g2431
sg56
(lp2438
g969
asbasbasbag49
(g65
g51
NtRp2439
(dp2440
g54
(dp2441
sg63
g2393
sg56
(lp2442
g49
(g70
g51
NtRp2443
(dp2444
g54
(dp2445
g74
g75
ssg63
g2439
sg56
(lp2446
S'HTTP_ACCEPT_ENCODING'
p2447
asbag49
(g70
g51
NtRp2448
(dp2449
g54
(dp2450
g81
g82
ssg63
g2439
sg56
(lp2451
S':'
asbag49
(g70
g51
NtRp2452
(dp2453
g54
(dp2454
sg63
g2439
sg56
(lp2455
g49
(g50
g51
NtRp2456
(dp2457
g54
(dp2458
g62
I3
ssg63
g2452
sg56
(lp2459
g991
asbasbasbag49
(g65
g51
NtRp2460
(dp2461
g54
(dp2462
sg63
g2393
sg56
(lp2463
g49
(g70
g51
NtRp2464
(dp2465
g54
(dp2466
g74
g75
ssg63
g2460
sg56
(lp2467
S'HTTP_ACCEPT_LANGUAGE'
p2468
asbag49
(g70
g51
NtRp2469
(dp2470
g54
(dp2471
g81
g82
ssg63
g2460
sg56
(lp2472
S':'
asbag49
(g70
g51
NtRp2473
(dp2474
g54
(dp2475
sg63
g2460
sg56
(lp2476
g49
(g50
g51
NtRp2477
(dp2478
g54
(dp2479
g62
I3
ssg63
g2473
sg56
(lp2480
g1013
asbasbasbag49
(g65
g51
NtRp2481
(dp2482
g54
(dp2483
sg63
g2393
sg56
(lp2484
g49
(g70
g51
NtRp2485
(dp2486
g54
(dp2487
g74
g75
ssg63
g2481
sg56
(lp2488
S'HTTP_CONNECTION'
p2489
asbag49
(g70
g51
NtRp2490
(dp2491
g54
(dp2492
g81
g82
ssg63
g2481
sg56
(lp2493
S':'
asbag49
(g70
g51
NtRp2494
(dp2495
g54
(dp2496
sg63
g2481
sg56
(lp2497
g49
(g50
g51
NtRp2498
(dp2499
g54
(dp2500
g62
I3
ssg63
g2494
sg56
(lp2501
g1035
asbasbasbag49
(g65
g51
NtRp2502
(dp2503
g54
(dp2504
sg63
g2393
sg56
(lp2505
g49
(g70
g51
NtRp2506
(dp2507
g54
(dp2508
g74
g75
ssg63
g2502
sg56
(lp2509
S'HTTP_COOKIE'
p2510
asbag49
(g70
g51
NtRp2511
(dp2512
g54
(dp2513
g81
g82
ssg63
g2502
sg56
(lp2514
S':'
asbag49
(g70
g51
NtRp2515
(dp2516
g54
(dp2517
sg63
g2502
sg56
(lp2518
g49
(g50
g51
NtRp2519
(dp2520
g54
(dp2521
g62
I3
ssg63
g2515
sg56
(lp2522
g1057
asbasbasbag49
(g65
g51
NtRp2523
(dp2524
g54
(dp2525
sg63
g2393
sg56
(lp2526
g49
(g70
g51
NtRp2527
(dp2528
g54
(dp2529
g74
g75
ssg63
g2523
sg56
(lp2530
S'HTTP_DNT'
p2531
asbag49
(g70
g51
NtRp2532
(dp2533
g54
(dp2534
g81
g82
ssg63
g2523
sg56
(lp2535
S':'
asbag49
(g70
g51
NtRp2536
(dp2537
g54
(dp2538
sg63
g2523
sg56
(lp2539
g49
(g50
g51
NtRp2540
(dp2541
g54
(dp2542
g62
I3
ssg63
g2536
sg56
(lp2543
S'1'
asbasbasbag49
(g65
g51
NtRp2544
(dp2545
g54
(dp2546
sg63
g2393
sg56
(lp2547
g49
(g70
g51
NtRp2548
(dp2549
g54
(dp2550
g74
g75
ssg63
g2544
sg56
(lp2551
S'HTTP_HOST'
p2552
asbag49
(g70
g51
NtRp2553
(dp2554
g54
(dp2555
g81
g82
ssg63
g2544
sg56
(lp2556
S':'
asbag49
(g70
g51
NtRp2557
(dp2558
g54
(dp2559
sg63
g2544
sg56
(lp2560
g49
(g50
g51
NtRp2561
(dp2562
g54
(dp2563
g62
I3
ssg63
g2557
sg56
(lp2564
g1100
asbasbasbag49
(g65
g51
NtRp2565
(dp2566
g54
(dp2567
sg63
g2393
sg56
(lp2568
g49
(g70
g51
NtRp2569
(dp2570
g54
(dp2571
g74
g75
ssg63
g2565
sg56
(lp2572
S'HTTP_USER_AGENT'
p2573
asbag49
(g70
g51
NtRp2574
(dp2575
g54
(dp2576
g81
g82
ssg63
g2565
sg56
(lp2577
S':'
asbag49
(g70
g51
NtRp2578
(dp2579
g54
(dp2580
sg63
g2565
sg56
(lp2581
g49
(g50
g51
NtRp2582
(dp2583
g54
(dp2584
g62
I3
ssg63
g2578
sg56
(lp2585
g1122
asbasbasbag49
(g65
g51
NtRp2586
(dp2587
g54
(dp2588
sg63
g2393
sg56
(lp2589
g49
(g70
g51
NtRp2590
(dp2591
g54
(dp2592
g74
g75
ssg63
g2586
sg56
(lp2593
S'PATH_INFO'
p2594
asbag49
(g70
g51
NtRp2595
(dp2596
g54
(dp2597
g81
g82
ssg63
g2586
sg56
(lp2598
S':'
asbag49
(g70
g51
NtRp2599
(dp2600
g54
(dp2601
sg63
g2586
sg56
(lp2602
g49
(g50
g51
NtRp2603
(dp2604
g54
(dp2605
g62
I3
ssg63
g2599
sg56
(lp2606
g1186
asbasbasbag49
(g65
g51
NtRp2607
(dp2608
g54
(dp2609
sg63
g2393
sg56
(lp2610
g49
(g70
g51
NtRp2611
(dp2612
g54
(dp2613
g74
g75
ssg63
g2607
sg56
(lp2614
S'QUERY_STRING'
p2615
asbag49
(g70
g51
NtRp2616
(dp2617
g54
(dp2618
g81
g82
ssg63
g2607
sg56
(lp2619
S':'
asbag49
(g70
g51
NtRp2620
(dp2621
g54
(dp2622
sg63
g2607
sg56
(lp2623
g49
(g50
g51
NtRp2624
(dp2625
g54
(dp2626
g62
I3
ssg63
g2620
sg56
(lp2627
g1208
asbasbasbag49
(g65
g51
NtRp2628
(dp2629
g54
(dp2630
sg63
g2393
sg56
(lp2631
g49
(g70
g51
NtRp2632
(dp2633
g54
(dp2634
g74
g75
ssg63
g2628
sg56
(lp2635
S'REMOTE_ADDR'
p2636
asbag49
(g70
g51
NtRp2637
(dp2638
g54
(dp2639
g81
g82
ssg63
g2628
sg56
(lp2640
S':'
asbag49
(g70
g51
NtRp2641
(dp2642
g54
(dp2643
sg63
g2628
sg56
(lp2644
g49
(g50
g51
NtRp2645
(dp2646
g54
(dp2647
g62
I3
ssg63
g2641
sg56
(lp2648
g195
asbasbasbag49
(g65
g51
NtRp2649
(dp2650
g54
(dp2651
sg63
g2393
sg56
(lp2652
g49
(g70
g51
NtRp2653
(dp2654
g54
(dp2655
g74
g75
ssg63
g2649
sg56
(lp2656
S'REMOTE_PORT'
p2657
asbag49
(g70
g51
NtRp2658
(dp2659
g54
(dp2660
g81
g82
ssg63
g2649
sg56
(lp2661
S':'
asbag49
(g70
g51
NtRp2662
(dp2663
g54
(dp2664
sg63
g2649
sg56
(lp2665
g49
(g50
g51
NtRp2666
(dp2667
g54
(dp2668
g62
I3
ssg63
g2662
sg56
(lp2669
g1251
asbasbasbag49
(g65
g51
NtRp2670
(dp2671
g54
(dp2672
sg63
g2393
sg56
(lp2673
g49
(g70
g51
NtRp2674
(dp2675
g54
(dp2676
g74
g75
ssg63
g2670
sg56
(lp2677
S'REQUEST_METHOD'
p2678
asbag49
(g70
g51
NtRp2679
(dp2680
g54
(dp2681
g81
g82
ssg63
g2670
sg56
(lp2682
S':'
asbag49
(g70
g51
NtRp2683
(dp2684
g54
(dp2685
sg63
g2670
sg56
(lp2686
g49
(g50
g51
NtRp2687
(dp2688
g54
(dp2689
g62
I3
ssg63
g2683
sg56
(lp2690
g1273
asbasbasbag49
(g65
g51
NtRp2691
(dp2692
g54
(dp2693
sg63
g2393
sg56
(lp2694
g49
(g70
g51
NtRp2695
(dp2696
g54
(dp2697
g74
g75
ssg63
g2691
sg56
(lp2698
S'SCRIPT_NAME'
p2699
asbag49
(g70
g51
NtRp2700
(dp2701
g54
(dp2702
g81
g82
ssg63
g2691
sg56
(lp2703
S':'
asbag49
(g70
g51
NtRp2704
(dp2705
g54
(dp2706
sg63
g2691
sg56
(lp2707
g49
(g50
g51
NtRp2708
(dp2709
g54
(dp2710
g62
I3
ssg63
g2704
sg56
(lp2711
S''
asbasbasbag49
(g65
g51
NtRp2712
(dp2713
g54
(dp2714
sg63
g2393
sg56
(lp2715
g49
(g70
g51
NtRp2716
(dp2717
g54
(dp2718
g74
g75
ssg63
g2712
sg56
(lp2719
S'SERVER_NAME'
p2720
asbag49
(g70
g51
NtRp2721
(dp2722
g54
(dp2723
g81
g82
ssg63
g2712
sg56
(lp2724
S':'
asbag49
(g70
g51
NtRp2725
(dp2726
g54
(dp2727
sg63
g2712
sg56
(lp2728
g49
(g50
g51
NtRp2729
(dp2730
g54
(dp2731
g62
I3
ssg63
g2725
sg56
(lp2732
g1316
asbasbasbag49
(g65
g51
NtRp2733
(dp2734
g54
(dp2735
sg63
g2393
sg56
(lp2736
g49
(g70
g51
NtRp2737
(dp2738
g54
(dp2739
g74
g75
ssg63
g2733
sg56
(lp2740
S'SERVER_PORT'
p2741
asbag49
(g70
g51
NtRp2742
(dp2743
g54
(dp2744
g81
g82
ssg63
g2733
sg56
(lp2745
S':'
asbag49
(g70
g51
NtRp2746
(dp2747
g54
(dp2748
sg63
g2733
sg56
(lp2749
g49
(g50
g51
NtRp2750
(dp2751
g54
(dp2752
g62
I3
ssg63
g2746
sg56
(lp2753
g1338
asbasbasbag49
(g65
g51
NtRp2754
(dp2755
g54
(dp2756
sg63
g2393
sg56
(lp2757
g49
(g70
g51
NtRp2758
(dp2759
g54
(dp2760
g74
g75
ssg63
g2754
sg56
(lp2761
S'SERVER_PROTOCOL'
p2762
asbag49
(g70
g51
NtRp2763
(dp2764
g54
(dp2765
g81
g82
ssg63
g2754
sg56
(lp2766
S':'
asbag49
(g70
g51
NtRp2767
(dp2768
g54
(dp2769
sg63
g2754
sg56
(lp2770
g49
(g50
g51
NtRp2771
(dp2772
g54
(dp2773
g62
I3
ssg63
g2767
sg56
(lp2774
g1360
asbasbasbag49
(g65
g51
NtRp2775
(dp2776
g54
(dp2777
sg63
g2393
sg56
(lp2778
g49
(g70
g51
NtRp2779
(dp2780
g54
(dp2781
g74
g75
ssg63
g2775
sg56
(lp2782
S'SERVER_SOFTWARE'
p2783
asbag49
(g70
g51
NtRp2784
(dp2785
g54
(dp2786
g81
g82
ssg63
g2775
sg56
(lp2787
S':'
asbag49
(g70
g51
NtRp2788
(dp2789
g54
(dp2790
sg63
g2775
sg56
(lp2791
g49
(g50
g51
NtRp2792
(dp2793
g54
(dp2794
g62
I3
ssg63
g2788
sg56
(lp2795
g1382
asbasbasbag49
(g65
g51
NtRp2796
(dp2797
g54
(dp2798
sg63
g2393
sg56
(lp2799
g49
(g70
g51
NtRp2800
(dp2801
g54
(dp2802
g74
g75
ssg63
g2796
sg56
(lp2803
S'wsgi.errors'
p2804
asbag49
(g70
g51
NtRp2805
(dp2806
g54
(dp2807
g81
g82
ssg63
g2796
sg56
(lp2808
S':'
asbag49
(g70
g51
NtRp2809
(dp2810
g54
(dp2811
sg63
g2796
sg56
(lp2812
g49
(g50
g51
NtRp2813
(dp2814
g54
(dp2815
g62
I3
ssg63
g2809
sg56
(lp2816
S'<__main__.Stderr object at 0x00296670>'
p2817
asbasbasbag49
(g65
g51
NtRp2818
(dp2819
g54
(dp2820
sg63
g2393
sg56
(lp2821
g49
(g70
g51
NtRp2822
(dp2823
g54
(dp2824
g74
g75
ssg63
g2818
sg56
(lp2825
S'wsgi.file_wrapper'
p2826
asbag49
(g70
g51
NtRp2827
(dp2828
g54
(dp2829
g81
g82
ssg63
g2818
sg56
(lp2830
S':'
asbag49
(g70
g51
NtRp2831
(dp2832
g54
(dp2833
sg63
g2818
sg56
(lp2834
g49
(g50
g51
NtRp2835
(dp2836
g54
(dp2837
g62
I3
ssg63
g2831
sg56
(lp2838
S'<class wsgiref.util.FileWrapper at 0x02F3DE10>'
p2839
asbasbasbag49
(g65
g51
NtRp2840
(dp2841
g54
(dp2842
sg63
g2393
sg56
(lp2843
g49
(g70
g51
NtRp2844
(dp2845
g54
(dp2846
g74
g75
ssg63
g2840
sg56
(lp2847
S'wsgi.input'
p2848
asbag49
(g70
g51
NtRp2849
(dp2850
g54
(dp2851
g81
g82
ssg63
g2840
sg56
(lp2852
S':'
asbag49
(g70
g51
NtRp2853
(dp2854
g54
(dp2855
sg63
g2840
sg56
(lp2856
g49
(g50
g51
NtRp2857
(dp2858
g54
(dp2859
g62
I3
ssg63
g2853
sg56
(lp2860
S'<cStringIO.StringO object at 0x0695AAC0>'
p2861
asbasbasbag49
(g65
g51
NtRp2862
(dp2863
g54
(dp2864
sg63
g2393
sg56
(lp2865
g49
(g70
g51
NtRp2866
(dp2867
g54
(dp2868
g74
g75
ssg63
g2862
sg56
(lp2869
S'wsgi.multiprocess'
p2870
asbag49
(g70
g51
NtRp2871
(dp2872
g54
(dp2873
g81
g82
ssg63
g2862
sg56
(lp2874
S':'
asbag49
(g70
g51
NtRp2875
(dp2876
g54
(dp2877
sg63
g2862
sg56
(lp2878
g49
(g50
g51
NtRp2879
(dp2880
g54
(dp2881
g62
I3
ssg63
g2875
sg56
(lp2882
g92
asbasbasbag49
(g65
g51
NtRp2883
(dp2884
g54
(dp2885
sg63
g2393
sg56
(lp2886
g49
(g70
g51
NtRp2887
(dp2888
g54
(dp2889
g74
g75
ssg63
g2883
sg56
(lp2890
S'wsgi.multithread'
p2891
asbag49
(g70
g51
NtRp2892
(dp2893
g54
(dp2894
g81
g82
ssg63
g2883
sg56
(lp2895
S':'
asbag49
(g70
g51
NtRp2896
(dp2897
g54
(dp2898
sg63
g2883
sg56
(lp2899
g49
(g50
g51
NtRp2900
(dp2901
g54
(dp2902
g62
I3
ssg63
g2896
sg56
(lp2903
g1622
asbasbasbag49
(g65
g51
NtRp2904
(dp2905
g54
(dp2906
sg63
g2393
sg56
(lp2907
g49
(g70
g51
NtRp2908
(dp2909
g54
(dp2910
g74
g75
ssg63
g2904
sg56
(lp2911
S'wsgi.run_once'
p2912
asbag49
(g70
g51
NtRp2913
(dp2914
g54
(dp2915
g81
g82
ssg63
g2904
sg56
(lp2916
S':'
asbag49
(g70
g51
NtRp2917
(dp2918
g54
(dp2919
sg63
g2904
sg56
(lp2920
g49
(g50
g51
NtRp2921
(dp2922
g54
(dp2923
g62
I3
ssg63
g2917
sg56
(lp2924
g92
asbasbasbag49
(g65
g51
NtRp2925
(dp2926
g54
(dp2927
sg63
g2393
sg56
(lp2928
g49
(g70
g51
NtRp2929
(dp2930
g54
(dp2931
g74
g75
ssg63
g2925
sg56
(lp2932
S'wsgi.url_scheme'
p2933
asbag49
(g70
g51
NtRp2934
(dp2935
g54
(dp2936
g81
g82
ssg63
g2925
sg56
(lp2937
S':'
asbag49
(g70
g51
NtRp2938
(dp2939
g54
(dp2940
sg63
g2925
sg56
(lp2941
g49
(g50
g51
NtRp2942
(dp2943
g54
(dp2944
g62
I3
ssg63
g2938
sg56
(lp2945
g1665
asbasbasbag49
(g65
g51
NtRp2946
(dp2947
g54
(dp2948
sg63
g2393
sg56
(lp2949
g49
(g70
g51
NtRp2950
(dp2951
g54
(dp2952
g74
g75
ssg63
g2946
sg56
(lp2953
S'wsgi.version'
p2954
asbag49
(g70
g51
NtRp2955
(dp2956
g54
(dp2957
g81
g82
ssg63
g2946
sg56
(lp2958
S':'
asbag49
(g70
g51
NtRp2959
(dp2960
g54
(dp2961
sg63
g2946
sg56
(lp2962
g49
(g50
g51
NtRp2963
(dp2964
g54
(dp2965
g62
I3
ssg63
g2959
sg56
(lp2966
S'1'
asbasbasbasbasbasbasbasbasbasbasbasbasbsS'frames'
p2967
(lp2968
(dp2969
S'file'
p2970
S'C:\\web2py\\gluon\\restricted.py'
p2971
sS'dump'
p2972
(dp2973
sS'lnum'
p2974
I205
sS'lines'
p2975
(dp2976
sS'call'
p2977
S'(code=\'response.write(\\\'<!DOCTYPE html>\\\\r\\\\n<html lang="e...n\\\\r\\\\n  </body>\\\\r\\\\n</html>\\\\r\\\\n\\\\r\\\\n\\\', escape=False)\', environment={\'A\': <class \'gluon.html.A\'>, \'Auth\': <class \'gluon.tools.Auth\'>, \'B\': <class \'gluon.html.B\'>, \'BEAUTIFY\': <class \'gluon.html.BEAUTIFY\'>, \'BODY\': <class \'gluon.html.BODY\'>, \'BR\': <class \'gluon.html.BR\'>, \'BUTTON\': <class \'gluon.html.BUTTON\'>, \'CAT\': <class \'gluon.html.CAT\'>, \'CENTER\': <class \'gluon.html.CENTER\'>, \'CLEANUP\': <class \'gluon.validators.CLEANUP\'>, ...}, layer=r\'C:\\web2py\\applications\\unioeste_code\\views\\default/user.html\')'
p2978
sS'func'
p2979
S'restricted'
p2980
sa(dp2981
g2970
S'C:\\web2py\\applications\\unioeste_code\\views\\default\\user.html'
p2982
sg2972
(dp2983
sg2974
I10
sg2975
(dp2984
I1
S'response.write(\'<!DOCTYPE html>\\r\\n<html lang="en">\\r\\n  <head>\\r\\n    <meta charset="utf-8">\\r\\n    <title>\', escape=False)'
p2985
sI2
S'response.write(response.title or request.application)'
p2986
sI3
S'response.write(\'</title>\\r\\n    <meta name="viewport" content="width=device-width, initial-scale=1.0">\\r\\n    <meta name="description" content="">\\r\\n    <meta name="author" content="">\\r\\n\\r\\n    <!-- Le HTML5 shim, for IE6-8 support of HTML5 elements -->\\r\\n    <!--[if lt IE 9]>\\r\\n      <script src="http://html5shim.googlecode.com/svn/trunk/html5.js"></script>\\r\\n    <![endif]-->\\r\\n\\r\\n    <!-- Le fav and touch icons -->\\r\\n    <link rel="shortcut icon" href="../assets/ico/favicon.ico">\\r\\n    <link rel="apple-touch-icon-precomposed" sizes="144x144" href="../assets/ico/apple-touch-icon-144-precomposed.png">\\r\\n    <link rel="apple-touch-icon-precomposed" sizes="114x114" href="../assets/ico/apple-touch-icon-114-precomposed.png">\\r\\n    <link rel="apple-touch-icon-precomposed" sizes="72x72" href="../assets/ico/apple-touch-icon-72-precomposed.png">\\r\\n    <link rel="apple-touch-icon-precomposed" href="../assets/ico/apple-touch-icon-57-precomposed.png">\\r\\n\\r\\n    <!-- include stylesheets -->\\r\\n\\r\\n    <link href="/unioeste_code/static/css/bootstrap.css" rel="stylesheet">\\r\\n    <link href="/unioeste_code/static/css/bootstrap-responsive.css" rel="stylesheet">\\r\\n    <script src="/unioeste_code/static/js/jquery.js" type="text/javascript"></script>\\r\\n    <script src="/unioeste_code/static/js/bootstrap.js" type="text/javascript"></script>\\r\\n\\r\\n    <!-- Distancia do topo pro layout-->\\r\\n      <style>\\r\\n      body {\\r\\n        padding-top: 60px; /* 60px to make the container go all the way to the bottom of the topbar */\\r\\n      }\\r\\n      </style>\\r\\n\\r\\n      <!-- Le CSS customizado, font e tals-->\\r\\n      <link href="/unioeste_code/static/css/font_style.css" rel="stylesheet">\\r\\n\\r\\n  </head>\\r\\n\\r\\n  <body>\\r\\n\\r\\n    <div class="navbar navbar-fixed-top">\\r\\n      <div class="navbar-inner">\\r\\n        <div class="container">\\r\\n          <a class="btn btn-navbar" data-toggle="collapse" data-target=".nav-collapse">\\r\\n            <span class="icon-bar"></span>\\r\\n            <span class="icon-bar"></span>\\r\\n            <span class="icon-bar"></span>\\r\\n          </a>\\r\\n          <a class="brand" href="\', escape=False)'
p2987
sI4
S"response.write(URL('index'))"
p2988
sI5
S'response.write(\'">\', escape=False)'
p2989
sI6
S'response.write(response.title or request.application)'
p2990
sI7
S'response.write(\'</a>\\r\\n          <div class="nav-collapse">\\r\\n          <ul class="nav pull-right">\\r\\n            <li class="divider-vertical"></li>\\r\\n            <li class="uc_topbar"><a href="#">Sobre</a></li>\\r\\n            <li class="divider-vertical"></li>\\r\\n            <li class="uc_topbar"><a href="#">Login!</a></li>\\r\\n            <li class="divider-vertical"></li>\\r\\n\\r\\n<!-- Drop Down Login\\r\\n            <li class="dropdown">\\r\\n              <a href="#" class="dropdown-toggle" data-toggle="dropdown">Dropdown <b class="caret"></b></a>\\r\\n              <ul class="dropdown-menu">\\r\\n                <li><a href="#">Action</a></li>\\r\\n                <li><a href="#">Another action</a></li>\\r\\n                <li><a href="#">Something else here</a></li>\\r\\n                <li class="divider"></li>\\r\\n                <li><a href="#">Separated link</a></li>\\r\\n              </ul>\\r\\n            </li>\\r\\n          </ul>\\r\\n-->\\r\\n          </div><!--/.nav-collapse -->\\r\\n        </div>\\r\\n      </div>\\r\\n    </div>\\r\\n\\r\\n<!-- Corpo principal da p\\xc3\\xa1gina! -->\\r\\n  \\r\\n    <div class="container">\\r\\n      \', escape=False)'
p2991
sI8
S'response.write(\'auth\' in globals() and auth.navbar(prefix=\'\',separators=("<ul> <li>","</li><li>","</li></u>")))'
p2992
sI9
S"response.write('\\r\\n      ', escape=False)"
p2993
sI10
S'response.write(self.url(self.settings.function))'
p2994
sI11
S"response.write('\\r\\n      ', escape=False)"
p2995
sI12
S"response.write('\\r\\n      ', escape=False)"
p2996
sI13
S"response.write('\\n<h2>', escape=False)"
p2997
sI14
S"response.write(T( request.args(0).replace('_',' ').capitalize() ))"
p2998
sI15
S'response.write(\'</h2>\\n<div id="web2py_user_form">\\n  \', escape=False)'
p2999
sI16
S'response.write(form)'
p3000
sI17
S"response.write('\\n  ', escape=False)"
p3001
sI18
S"if request.args(0)=='login':"
p3002
sI19
S"    response.write('\\n  ', escape=False)"
p3003
sI20
S"    if not 'register' in auth.settings.actions_disabled:"
p3004
ssg2977
S'()'
p3005
sg2979
S'<module>'
p3006
sasS'pyver'
p3007
S'Python 2.5.4: C:\\web2py\\web2py_no_console.exe'
p3008
sS'session'
p3009
g49
(g50
g51
NtRp3010
(dp3011
g54
(dp3012
sg56
(lp3013
g49
(g58
g51
NtRp3014
(dp3015
g54
(dp3016
g62
I5
ssg63
Nsg56
(lp3017
g49
(g65
g51
NtRp3018
(dp3019
g54
(dp3020
sg63
g3014
sg56
(lp3021
g49
(g70
g51
NtRp3022
(dp3023
g54
(dp3024
g74
g75
ssg63
g3018
sg56
(lp3025
S'auth'
p3026
asbag49
(g70
g51
NtRp3027
(dp3028
g54
(dp3029
g81
g82
ssg63
g3018
sg56
(lp3030
S':'
asbag49
(g70
g51
NtRp3031
(dp3032
g54
(dp3033
sg63
g3018
sg56
(lp3034
g49
(g50
g51
NtRp3035
(dp3036
g54
(dp3037
g62
I5
ssg63
g3031
sg56
(lp3038
g49
(g58
g51
NtRp3039
(dp3040
g54
(dp3041
g62
I4
ssg63
Nsg56
(lp3042
g49
(g65
g51
NtRp3043
(dp3044
g54
(dp3045
sg63
g3039
sg56
(lp3046
g49
(g70
g51
NtRp3047
(dp3048
g54
(dp3049
g74
g75
ssg63
g3043
sg56
(lp3050
S'expiration'
p3051
asbag49
(g70
g51
NtRp3052
(dp3053
g54
(dp3054
g81
g82
ssg63
g3043
sg56
(lp3055
S':'
asbag49
(g70
g51
NtRp3056
(dp3057
g54
(dp3058
sg63
g3043
sg56
(lp3059
g49
(g50
g51
NtRp3060
(dp3061
g54
(dp3062
g62
I4
ssg63
g3056
sg56
(lp3063
S'3600'
p3064
asbasbasbag49
(g65
g51
NtRp3065
(dp3066
g54
(dp3067
sg63
g3039
sg56
(lp3068
g49
(g70
g51
NtRp3069
(dp3070
g54
(dp3071
g74
g75
ssg63
g3065
sg56
(lp3072
S'hmac_key'
p3073
asbag49
(g70
g51
NtRp3074
(dp3075
g54
(dp3076
g81
g82
ssg63
g3065
sg56
(lp3077
S':'
asbag49
(g70
g51
NtRp3078
(dp3079
g54
(dp3080
sg63
g3065
sg56
(lp3081
g49
(g50
g51
NtRp3082
(dp3083
g54
(dp3084
g62
I4
ssg63
g3078
sg56
(lp3085
S'83cf86e0-086b-4886-baaa-f8de22ee6585'
p3086
asbasbasbag49
(g65
g51
NtRp3087
(dp3088
g54
(dp3089
sg63
g3039
sg56
(lp3090
g49
(g70
g51
NtRp3091
(dp3092
g54
(dp3093
g74
g75
ssg63
g3087
sg56
(lp3094
S'last_visit'
p3095
asbag49
(g70
g51
NtRp3096
(dp3097
g54
(dp3098
g81
g82
ssg63
g3087
sg56
(lp3099
S':'
asbag49
(g70
g51
NtRp3100
(dp3101
g54
(dp3102
sg63
g3087
sg56
(lp3103
g49
(g50
g51
NtRp3104
(dp3105
g54
(dp3106
g62
I4
ssg63
g3100
sg56
(lp3107
S'datetime.datetime(2012, 8, 2, 15, 4, 47, 673000)'
p3108
asbasbasbag49
(g65
g51
NtRp3109
(dp3110
g54
(dp3111
sg63
g3039
sg56
(lp3112
g49
(g70
g51
NtRp3113
(dp3114
g54
(dp3115
g74
g75
ssg63
g3109
sg56
(lp3116
S'remember'
p3117
asbag49
(g70
g51
NtRp3118
(dp3119
g54
(dp3120
g81
g82
ssg63
g3109
sg56
(lp3121
S':'
asbag49
(g70
g51
NtRp3122
(dp3123
g54
(dp3124
sg63
g3109
sg56
(lp3125
g49
(g50
g51
NtRp3126
(dp3127
g54
(dp3128
g62
I4
ssg63
g3122
sg56
(lp3129
g92
asbasbasbag49
(g65
g51
NtRp3130
(dp3131
g54
(dp3132
sg63
g3039
sg56
(lp3133
g49
(g70
g51
NtRp3134
(dp3135
g54
(dp3136
g74
g75
ssg63
g3130
sg56
(lp3137
S'user'
p3138
asbag49
(g70
g51
NtRp3139
(dp3140
g54
(dp3141
g81
g82
ssg63
g3130
sg56
(lp3142
S':'
asbag49
(g70
g51
NtRp3143
(dp3144
g54
(dp3145
sg63
g3130
sg56
(lp3146
g49
(g50
g51
NtRp3147
(dp3148
g54
(dp3149
g62
I4
ssg63
g3143
sg56
(lp3150
g49
(g58
g51
NtRp3151
(dp3152
g54
(dp3153
g62
I3
ssg63
Nsg56
(lp3154
g49
(g65
g51
NtRp3155
(dp3156
g54
(dp3157
sg63
g3151
sg56
(lp3158
g49
(g70
g51
NtRp3159
(dp3160
g54
(dp3161
g74
g75
ssg63
g3155
sg56
(lp3162
S'email'
p3163
asbag49
(g70
g51
NtRp3164
(dp3165
g54
(dp3166
g81
g82
ssg63
g3155
sg56
(lp3167
S':'
asbag49
(g70
g51
NtRp3168
(dp3169
g54
(dp3170
sg63
g3155
sg56
(lp3171
g49
(g50
g51
NtRp3172
(dp3173
g54
(dp3174
g62
I3
ssg63
g3168
sg56
(lp3175
S'scmirror1@gmail.com'
p3176
asbasbasbag49
(g65
g51
NtRp3177
(dp3178
g54
(dp3179
sg63
g3151
sg56
(lp3180
g49
(g70
g51
NtRp3181
(dp3182
g54
(dp3183
g74
g75
ssg63
g3177
sg56
(lp3184
S'first_name'
p3185
asbag49
(g70
g51
NtRp3186
(dp3187
g54
(dp3188
g81
g82
ssg63
g3177
sg56
(lp3189
S':'
asbag49
(g70
g51
NtRp3190
(dp3191
g54
(dp3192
sg63
g3177
sg56
(lp3193
g49
(g50
g51
NtRp3194
(dp3195
g54
(dp3196
g62
I3
ssg63
g3190
sg56
(lp3197
S'Pedro'
p3198
asbasbasbag49
(g65
g51
NtRp3199
(dp3200
g54
(dp3201
sg63
g3151
sg56
(lp3202
g49
(g70
g51
NtRp3203
(dp3204
g54
(dp3205
g74
g75
ssg63
g3199
sg56
(lp3206
S'id'
p3207
asbag49
(g70
g51
NtRp3208
(dp3209
g54
(dp3210
g81
g82
ssg63
g3199
sg56
(lp3211
S':'
asbag49
(g70
g51
NtRp3212
(dp3213
g54
(dp3214
sg63
g3199
sg56
(lp3215
g49
(g50
g51
NtRp3216
(dp3217
g54
(dp3218
g62
I3
ssg63
g3212
sg56
(lp3219
S'1'
asbasbasbag49
(g65
g51
NtRp3220
(dp3221
g54
(dp3222
sg63
g3151
sg56
(lp3223
g49
(g70
g51
NtRp3224
(dp3225
g54
(dp3226
g74
g75
ssg63
g3220
sg56
(lp3227
S'last_name'
p3228
asbag49
(g70
g51
NtRp3229
(dp3230
g54
(dp3231
g81
g82
ssg63
g3220
sg56
(lp3232
S':'
asbag49
(g70
g51
NtRp3233
(dp3234
g54
(dp3235
sg63
g3220
sg56
(lp3236
g49
(g50
g51
NtRp3237
(dp3238
g54
(dp3239
g62
I3
ssg63
g3233
sg56
(lp3240
S'Lacerda'
p3241
asbasbasbag49
(g65
g51
NtRp3242
(dp3243
g54
(dp3244
sg63
g3151
sg56
(lp3245
g49
(g70
g51
NtRp3246
(dp3247
g54
(dp3248
g74
g75
ssg63
g3242
sg56
(lp3249
S'password'
p3250
asbag49
(g70
g51
NtRp3251
(dp3252
g54
(dp3253
g81
g82
ssg63
g3242
sg56
(lp3254
S':'
asbag49
(g70
g51
NtRp3255
(dp3256
g54
(dp3257
sg63
g3242
sg56
(lp3258
g49
(g50
g51
NtRp3259
(dp3260
g54
(dp3261
g62
I3
ssg63
g3255
sg56
(lp3262
S'4297f44b13955235245b2497399d7a93'
p3263
asbasbasbag49
(g65
g51
NtRp3264
(dp3265
g54
(dp3266
sg63
g3151
sg56
(lp3267
g49
(g70
g51
NtRp3268
(dp3269
g54
(dp3270
g74
g75
ssg63
g3264
sg56
(lp3271
S'registration_id'
p3272
asbag49
(g70
g51
NtRp3273
(dp3274
g54
(dp3275
g81
g82
ssg63
g3264
sg56
(lp3276
S':'
asbag49
(g70
g51
NtRp3277
(dp3278
g54
(dp3279
sg63
g3264
sg56
(lp3280
g49
(g50
g51
NtRp3281
(dp3282
g54
(dp3283
g62
I3
ssg63
g3277
sg56
(lp3284
S''
asbasbasbag49
(g65
g51
NtRp3285
(dp3286
g54
(dp3287
sg63
g3151
sg56
(lp3288
g49
(g70
g51
NtRp3289
(dp3290
g54
(dp3291
g74
g75
ssg63
g3285
sg56
(lp3292
S'registration_key'
p3293
asbag49
(g70
g51
NtRp3294
(dp3295
g54
(dp3296
g81
g82
ssg63
g3285
sg56
(lp3297
S':'
asbag49
(g70
g51
NtRp3298
(dp3299
g54
(dp3300
sg63
g3285
sg56
(lp3301
g49
(g50
g51
NtRp3302
(dp3303
g54
(dp3304
g62
I3
ssg63
g3298
sg56
(lp3305
S''
asbasbasbag49
(g65
g51
NtRp3306
(dp3307
g54
(dp3308
sg63
g3151
sg56
(lp3309
g49
(g70
g51
NtRp3310
(dp3311
g54
(dp3312
g74
g75
ssg63
g3306
sg56
(lp3313
S'reset_password_key'
p3314
asbag49
(g70
g51
NtRp3315
(dp3316
g54
(dp3317
g81
g82
ssg63
g3306
sg56
(lp3318
S':'
asbag49
(g70
g51
NtRp3319
(dp3320
g54
(dp3321
sg63
g3306
sg56
(lp3322
g49
(g50
g51
NtRp3323
(dp3324
g54
(dp3325
g62
I3
ssg63
g3319
sg56
(lp3326
S''
asbasbasbasbasbasbasbag49
(g65
g51
NtRp3327
(dp3328
g54
(dp3329
sg63
g3039
sg56
(lp3330
g49
(g70
g51
NtRp3331
(dp3332
g54
(dp3333
g74
g75
ssg63
g3327
sg56
(lp3334
S'user_groups'
p3335
asbag49
(g70
g51
NtRp3336
(dp3337
g54
(dp3338
g81
g82
ssg63
g3327
sg56
(lp3339
S':'
asbag49
(g70
g51
NtRp3340
(dp3341
g54
(dp3342
sg63
g3327
sg56
(lp3343
g49
(g50
g51
NtRp3344
(dp3345
g54
(dp3346
g62
I4
ssg63
g3340
sg56
(lp3347
g49
(g58
g51
NtRp3348
(dp3349
g54
(dp3350
g62
I3
ssg63
Nsg56
(lp3351
g49
(g65
g51
NtRp3352
(dp3353
g54
(dp3354
sg63
g3348
sg56
(lp3355
g49
(g70
g51
NtRp3356
(dp3357
g54
(dp3358
g74
g75
ssg63
g3352
sg56
(lp3359
S'1'
asbag49
(g70
g51
NtRp3360
(dp3361
g54
(dp3362
g81
g82
ssg63
g3352
sg56
(lp3363
S':'
asbag49
(g70
g51
NtRp3364
(dp3365
g54
(dp3366
sg63
g3352
sg56
(lp3367
g49
(g50
g51
NtRp3368
(dp3369
g54
(dp3370
g62
I3
ssg63
g3364
sg56
(lp3371
S'user_1'
p3372
asbasbasbag49
(g65
g51
NtRp3373
(dp3374
g54
(dp3375
sg63
g3348
sg56
(lp3376
g49
(g70
g51
NtRp3377
(dp3378
g54
(dp3379
g74
g75
ssg63
g3373
sg56
(lp3380
S'2'
asbag49
(g70
g51
NtRp3381
(dp3382
g54
(dp3383
g81
g82
ssg63
g3373
sg56
(lp3384
S':'
asbag49
(g70
g51
NtRp3385
(dp3386
g54
(dp3387
sg63
g3373
sg56
(lp3388
g49
(g50
g51
NtRp3389
(dp3390
g54
(dp3391
g62
I3
ssg63
g3385
sg56
(lp3392
S'manager'
p3393
asbasbasbasbasbasbasbasbasbasbasbasbasbsS'etype'
p3394
S"<type 'exceptions.NameError'>"
p3395
sS'date'
p3396
S'Thu Aug 02 15:10:12 2012'
p3397
sS'response'
p3398
g49
(g50
g51
NtRp3399
(dp3400
g54
(dp3401
sg56
(lp3402
g49
(g58
g51
NtRp3403
(dp3404
g54
(dp3405
g62
I5
ssg63
Nsg56
(lp3406
g49
(g65
g51
NtRp3407
(dp3408
g54
(dp3409
sg63
g3403
sg56
(lp3410
g49
(g70
g51
NtRp3411
(dp3412
g54
(dp3413
g74
g75
ssg63
g3407
sg56
(lp3414
g160
asbag49
(g70
g51
NtRp3415
(dp3416
g54
(dp3417
g81
g82
ssg63
g3407
sg56
(lp3418
S':'
asbag49
(g70
g51
NtRp3419
(dp3420
g54
(dp3421
sg63
g3407
sg56
(lp3422
g49
(g50
g51
NtRp3423
(dp3424
g54
(dp3425
g62
I5
ssg63
g3419
sg56
(lp3426
S'<cStringIO.StringO object at 0x0694BF60>'
p3427
asbasbasbag49
(g65
g51
NtRp3428
(dp3429
g54
(dp3430
sg63
g3403
sg56
(lp3431
g49
(g70
g51
NtRp3432
(dp3433
g54
(dp3434
g74
g75
ssg63
g3428
sg56
(lp3435
g226
asbag49
(g70
g51
NtRp3436
(dp3437
g54
(dp3438
g81
g82
ssg63
g3428
sg56
(lp3439
S':'
asbag49
(g70
g51
NtRp3440
(dp3441
g54
(dp3442
sg63
g3428
sg56
(lp3443
g49
(g50
g51
NtRp3444
(dp3445
g54
(dp3446
g62
I5
ssg63
g3440
sg56
(lp3447
g49
(g58
g51
NtRp3448
(dp3449
g54
(dp3450
g62
I4
ssg63
Nsg56
(lp3451
g49
(g65
g51
NtRp3452
(dp3453
g54
(dp3454
sg63
g3448
sg56
(lp3455
g49
(g70
g51
NtRp3456
(dp3457
g54
(dp3458
g74
g75
ssg63
g3452
sg56
(lp3459
S'session_id_unioeste_code'
p3460
asbag49
(g70
g51
NtRp3461
(dp3462
g54
(dp3463
g81
g82
ssg63
g3452
sg56
(lp3464
S':'
asbag49
(g70
g51
NtRp3465
(dp3466
g54
(dp3467
sg63
g3452
sg56
(lp3468
g49
(g50
g51
NtRp3469
(dp3470
g54
(dp3471
g62
I4
ssg63
g3465
sg56
(lp3472
g49
(g58
g51
NtRp3473
(dp3474
g54
(dp3475
g62
I3
ssg63
Nsg56
(lp3476
g49
(g65
g51
NtRp3477
(dp3478
g54
(dp3479
sg63
g3473
sg56
(lp3480
g49
(g70
g51
NtRp3481
(dp3482
g54
(dp3483
g74
g75
ssg63
g3477
sg56
(lp3484
g276
asbag49
(g70
g51
NtRp3485
(dp3486
g54
(dp3487
g81
g82
ssg63
g3477
sg56
(lp3488
S':'
asbag49
(g70
g51
NtRp3489
(dp3490
g54
(dp3491
sg63
g3477
sg56
(lp3492
g49
(g50
g51
NtRp3493
(dp3494
g54
(dp3495
g62
I3
ssg63
g3489
sg56
(lp3496
S''
asbasbasbag49
(g65
g51
NtRp3497
(dp3498
g54
(dp3499
sg63
g3473
sg56
(lp3500
g49
(g70
g51
NtRp3501
(dp3502
g54
(dp3503
g74
g75
ssg63
g3497
sg56
(lp3504
g297
asbag49
(g70
g51
NtRp3505
(dp3506
g54
(dp3507
g81
g82
ssg63
g3497
sg56
(lp3508
S':'
asbag49
(g70
g51
NtRp3509
(dp3510
g54
(dp3511
sg63
g3497
sg56
(lp3512
g49
(g50
g51
NtRp3513
(dp3514
g54
(dp3515
g62
I3
ssg63
g3509
sg56
(lp3516
S''
asbasbasbag49
(g65
g51
NtRp3517
(dp3518
g54
(dp3519
sg63
g3473
sg56
(lp3520
g49
(g70
g51
NtRp3521
(dp3522
g54
(dp3523
g74
g75
ssg63
g3517
sg56
(lp3524
g318
asbag49
(g70
g51
NtRp3525
(dp3526
g54
(dp3527
g81
g82
ssg63
g3517
sg56
(lp3528
S':'
asbag49
(g70
g51
NtRp3529
(dp3530
g54
(dp3531
sg63
g3517
sg56
(lp3532
g49
(g50
g51
NtRp3533
(dp3534
g54
(dp3535
g62
I3
ssg63
g3529
sg56
(lp3536
S''
asbasbasbag49
(g65
g51
NtRp3537
(dp3538
g54
(dp3539
sg63
g3473
sg56
(lp3540
g49
(g70
g51
NtRp3541
(dp3542
g54
(dp3543
g74
g75
ssg63
g3537
sg56
(lp3544
g339
asbag49
(g70
g51
NtRp3545
(dp3546
g54
(dp3547
g81
g82
ssg63
g3537
sg56
(lp3548
S':'
asbag49
(g70
g51
NtRp3549
(dp3550
g54
(dp3551
sg63
g3537
sg56
(lp3552
g49
(g50
g51
NtRp3553
(dp3554
g54
(dp3555
g62
I3
ssg63
g3549
sg56
(lp3556
S''
asbasbasbag49
(g65
g51
NtRp3557
(dp3558
g54
(dp3559
sg63
g3473
sg56
(lp3560
g49
(g70
g51
NtRp3561
(dp3562
g54
(dp3563
g74
g75
ssg63
g3557
sg56
(lp3564
g360
asbag49
(g70
g51
NtRp3565
(dp3566
g54
(dp3567
g81
g82
ssg63
g3557
sg56
(lp3568
S':'
asbag49
(g70
g51
NtRp3569
(dp3570
g54
(dp3571
sg63
g3557
sg56
(lp3572
g49
(g50
g51
NtRp3573
(dp3574
g54
(dp3575
g62
I3
ssg63
g3569
sg56
(lp3576
S'/'
asbasbasbag49
(g65
g51
NtRp3577
(dp3578
g54
(dp3579
sg63
g3473
sg56
(lp3580
g49
(g70
g51
NtRp3581
(dp3582
g54
(dp3583
g74
g75
ssg63
g3577
sg56
(lp3584
g381
asbag49
(g70
g51
NtRp3585
(dp3586
g54
(dp3587
g81
g82
ssg63
g3577
sg56
(lp3588
S':'
asbag49
(g70
g51
NtRp3589
(dp3590
g54
(dp3591
sg63
g3577
sg56
(lp3592
g49
(g50
g51
NtRp3593
(dp3594
g54
(dp3595
g62
I3
ssg63
g3589
sg56
(lp3596
S''
asbasbasbag49
(g65
g51
NtRp3597
(dp3598
g54
(dp3599
sg63
g3473
sg56
(lp3600
g49
(g70
g51
NtRp3601
(dp3602
g54
(dp3603
g74
g75
ssg63
g3597
sg56
(lp3604
g402
asbag49
(g70
g51
NtRp3605
(dp3606
g54
(dp3607
g81
g82
ssg63
g3597
sg56
(lp3608
S':'
asbag49
(g70
g51
NtRp3609
(dp3610
g54
(dp3611
sg63
g3597
sg56
(lp3612
g49
(g50
g51
NtRp3613
(dp3614
g54
(dp3615
g62
I3
ssg63
g3609
sg56
(lp3616
S''
asbasbasbasbasbasbasbasbasbasbasbag49
(g65
g51
NtRp3617
(dp3618
g54
(dp3619
sg63
g3403
sg56
(lp3620
g49
(g70
g51
NtRp3621
(dp3622
g54
(dp3623
g74
g75
ssg63
g3617
sg56
(lp3624
S'delimiters'
p3625
asbag49
(g70
g51
NtRp3626
(dp3627
g54
(dp3628
g81
g82
ssg63
g3617
sg56
(lp3629
S':'
asbag49
(g70
g51
NtRp3630
(dp3631
g54
(dp3632
sg63
g3617
sg56
(lp3633
g49
(g50
g51
NtRp3634
(dp3635
g54
(dp3636
g62
I5
ssg63
g3630
sg56
(lp3637
g49
(g58
g51
NtRp3638
(dp3639
g54
(dp3640
g62
I4
ssg63
Nsg56
(lp3641
g49
(g65
g51
NtRp3642
(dp3643
g54
(dp3644
sg63
g3638
sg56
(lp3645
g49
(g70
g51
NtRp3646
(dp3647
g54
(dp3648
sg63
g3642
sg56
(lp3649
g49
(g50
g51
NtRp3650
(dp3651
g54
(dp3652
g62
I4
ssg63
g3646
sg56
(lp3653
S'{{'
p3654
asbasbasbag49
(g65
g51
NtRp3655
(dp3656
g54
(dp3657
sg63
g3638
sg56
(lp3658
g49
(g70
g51
NtRp3659
(dp3660
g54
(dp3661
sg63
g3655
sg56
(lp3662
g49
(g50
g51
NtRp3663
(dp3664
g54
(dp3665
g62
I4
ssg63
g3659
sg56
(lp3666
S'}}'
p3667
asbasbasbasbasbasbasbag49
(g65
g51
NtRp3668
(dp3669
g54
(dp3670
sg63
g3403
sg56
(lp3671
g49
(g70
g51
NtRp3672
(dp3673
g54
(dp3674
g74
g75
ssg63
g3668
sg56
(lp3675
S'files'
p3676
asbag49
(g70
g51
NtRp3677
(dp3678
g54
(dp3679
g81
g82
ssg63
g3668
sg56
(lp3680
S':'
asbag49
(g70
g51
NtRp3681
(dp3682
g54
(dp3683
sg63
g3668
sg56
(lp3684
g49
(g50
g51
NtRp3685
(dp3686
g54
(dp3687
g62
I5
ssg63
g3681
sg56
(lp3688
g49
(g58
g51
NtRp3689
(dp3690
g54
(dp3691
g62
I4
ssg63
Nsg56
(lp3692
sbasbasbasbag49
(g65
g51
NtRp3693
(dp3694
g54
(dp3695
sg63
g3403
sg56
(lp3696
g49
(g70
g51
NtRp3697
(dp3698
g54
(dp3699
g74
g75
ssg63
g3693
sg56
(lp3700
S'flash'
p3701
asbag49
(g70
g51
NtRp3702
(dp3703
g54
(dp3704
g81
g82
ssg63
g3693
sg56
(lp3705
S':'
asbag49
(g70
g51
NtRp3706
(dp3707
g54
(dp3708
sg63
g3693
sg56
(lp3709
g49
(g50
g51
NtRp3710
(dp3711
g54
(dp3712
g62
I5
ssg63
g3706
sg56
(lp3713
S''
asbasbasbag49
(g65
g51
NtRp3714
(dp3715
g54
(dp3716
sg63
g3403
sg56
(lp3717
g49
(g70
g51
NtRp3718
(dp3719
g54
(dp3720
g74
g75
ssg63
g3714
sg56
(lp3721
S'generic_patterns'
p3722
asbag49
(g70
g51
NtRp3723
(dp3724
g54
(dp3725
g81
g82
ssg63
g3714
sg56
(lp3726
S':'
asbag49
(g70
g51
NtRp3727
(dp3728
g54
(dp3729
sg63
g3714
sg56
(lp3730
g49
(g50
g51
NtRp3731
(dp3732
g54
(dp3733
g62
I5
ssg63
g3727
sg56
(lp3734
g49
(g58
g51
NtRp3735
(dp3736
g54
(dp3737
g62
I4
ssg63
Nsg56
(lp3738
sbasbasbasbag49
(g65
g51
NtRp3739
(dp3740
g54
(dp3741
sg63
g3403
sg56
(lp3742
g49
(g70
g51
NtRp3743
(dp3744
g54
(dp3745
g74
g75
ssg63
g3739
sg56
(lp3746
S'headers'
p3747
asbag49
(g70
g51
NtRp3748
(dp3749
g54
(dp3750
g81
g82
ssg63
g3739
sg56
(lp3751
S':'
asbag49
(g70
g51
NtRp3752
(dp3753
g54
(dp3754
sg63
g3739
sg56
(lp3755
g49
(g50
g51
NtRp3756
(dp3757
g54
(dp3758
g62
I5
ssg63
g3752
sg56
(lp3759
g49
(g58
g51
NtRp3760
(dp3761
g54
(dp3762
g62
I4
ssg63
Nsg56
(lp3763
g49
(g65
g51
NtRp3764
(dp3765
g54
(dp3766
sg63
g3760
sg56
(lp3767
g49
(g70
g51
NtRp3768
(dp3769
g54
(dp3770
g74
g75
ssg63
g3764
sg56
(lp3771
S'Cache-Control'
p3772
asbag49
(g70
g51
NtRp3773
(dp3774
g54
(dp3775
g81
g82
ssg63
g3764
sg56
(lp3776
S':'
asbag49
(g70
g51
NtRp3777
(dp3778
g54
(dp3779
sg63
g3764
sg56
(lp3780
g49
(g50
g51
NtRp3781
(dp3782
g54
(dp3783
g62
I4
ssg63
g3777
sg56
(lp3784
S'no-store, no-cache, must-revalidate, post-check=0, pre-check=0'
p3785
asbasbasbag49
(g65
g51
NtRp3786
(dp3787
g54
(dp3788
sg63
g3760
sg56
(lp3789
g49
(g70
g51
NtRp3790
(dp3791
g54
(dp3792
g74
g75
ssg63
g3786
sg56
(lp3793
S'Content-Type'
p3794
asbag49
(g70
g51
NtRp3795
(dp3796
g54
(dp3797
g81
g82
ssg63
g3786
sg56
(lp3798
S':'
asbag49
(g70
g51
NtRp3799
(dp3800
g54
(dp3801
sg63
g3786
sg56
(lp3802
g49
(g50
g51
NtRp3803
(dp3804
g54
(dp3805
g62
I4
ssg63
g3799
sg56
(lp3806
S'text/html; charset=utf-8'
p3807
asbasbasbag49
(g65
g51
NtRp3808
(dp3809
g54
(dp3810
sg63
g3760
sg56
(lp3811
g49
(g70
g51
NtRp3812
(dp3813
g54
(dp3814
g74
g75
ssg63
g3808
sg56
(lp3815
S'Expires'
p3816
asbag49
(g70
g51
NtRp3817
(dp3818
g54
(dp3819
g81
g82
ssg63
g3808
sg56
(lp3820
S':'
asbag49
(g70
g51
NtRp3821
(dp3822
g54
(dp3823
sg63
g3808
sg56
(lp3824
g49
(g50
g51
NtRp3825
(dp3826
g54
(dp3827
g62
I4
ssg63
g3821
sg56
(lp3828
S'Thu, 02 Aug 2012 18:10:12 GMT'
p3829
asbasbasbag49
(g65
g51
NtRp3830
(dp3831
g54
(dp3832
sg63
g3760
sg56
(lp3833
g49
(g70
g51
NtRp3834
(dp3835
g54
(dp3836
g74
g75
ssg63
g3830
sg56
(lp3837
S'Pragma'
p3838
asbag49
(g70
g51
NtRp3839
(dp3840
g54
(dp3841
g81
g82
ssg63
g3830
sg56
(lp3842
S':'
asbag49
(g70
g51
NtRp3843
(dp3844
g54
(dp3845
sg63
g3830
sg56
(lp3846
g49
(g50
g51
NtRp3847
(dp3848
g54
(dp3849
g62
I4
ssg63
g3843
sg56
(lp3850
S'no-cache'
p3851
asbasbasbag49
(g65
g51
NtRp3852
(dp3853
g54
(dp3854
sg63
g3760
sg56
(lp3855
g49
(g70
g51
NtRp3856
(dp3857
g54
(dp3858
g74
g75
ssg63
g3852
sg56
(lp3859
S'X-Powered-By'
p3860
asbag49
(g70
g51
NtRp3861
(dp3862
g54
(dp3863
g81
g82
ssg63
g3852
sg56
(lp3864
S':'
asbag49
(g70
g51
NtRp3865
(dp3866
g54
(dp3867
sg63
g3852
sg56
(lp3868
g49
(g50
g51
NtRp3869
(dp3870
g54
(dp3871
g62
I4
ssg63
g3865
sg56
(lp3872
S'web2py'
p3873
asbasbasbasbasbasbasbag49
(g65
g51
NtRp3874
(dp3875
g54
(dp3876
sg63
g3403
sg56
(lp3877
g49
(g70
g51
NtRp3878
(dp3879
g54
(dp3880
g74
g75
ssg63
g3874
sg56
(lp3881
S'menu'
p3882
asbag49
(g70
g51
NtRp3883
(dp3884
g54
(dp3885
g81
g82
ssg63
g3874
sg56
(lp3886
S':'
asbag49
(g70
g51
NtRp3887
(dp3888
g54
(dp3889
sg63
g3874
sg56
(lp3890
g49
(g50
g51
NtRp3891
(dp3892
g54
(dp3893
g62
I5
ssg63
g3887
sg56
(lp3894
g49
(g58
g51
NtRp3895
(dp3896
g54
(dp3897
g62
I4
ssg63
Nsg56
(lp3898
g49
(g65
g51
NtRp3899
(dp3900
g54
(dp3901
sg63
g3895
sg56
(lp3902
g49
(g70
g51
NtRp3903
(dp3904
g54
(dp3905
sg63
g3899
sg56
(lp3906
g49
(g50
g51
NtRp3907
(dp3908
g54
(dp3909
g62
I4
ssg63
g3903
sg56
(lp3910
g49
(g58
g51
NtRp3911
(dp3912
g54
(dp3913
g62
I3
ssg63
Nsg56
(lp3914
g49
(g65
g51
NtRp3915
(dp3916
g54
(dp3917
sg63
g3911
sg56
(lp3918
g49
(g70
g51
NtRp3919
(dp3920
g54
(dp3921
sg63
g3915
sg56
(lp3922
g49
(g50
g51
NtRp3923
(dp3924
g54
(dp3925
g62
I3
ssg63
g3919
sg56
(lp3926
cgluon.languages
lazyT_unpickle
p3927
(S't\x04\x00\x00\x00Home'
tRp3928
asbasbasbag49
(g65
g51
NtRp3929
(dp3930
g54
(dp3931
sg63
g3911
sg56
(lp3932
g49
(g70
g51
NtRp3933
(dp3934
g54
(dp3935
sg63
g3929
sg56
(lp3936
g49
(g50
g51
NtRp3937
(dp3938
g54
(dp3939
g62
I3
ssg63
g3933
sg56
(lp3940
g92
asbasbasbag49
(g65
g51
NtRp3941
(dp3942
g54
(dp3943
sg63
g3911
sg56
(lp3944
g49
(g70
g51
NtRp3945
(dp3946
g54
(dp3947
sg63
g3941
sg56
(lp3948
g49
(g50
g51
NtRp3949
(dp3950
g54
(dp3951
g62
I3
ssg63
g3945
sg56
(lp3952
S'/unioeste_code/default/index'
p3953
asbasbasbag49
(g65
g51
NtRp3954
(dp3955
g54
(dp3956
sg63
g3911
sg56
(lp3957
g49
(g70
g51
NtRp3958
(dp3959
g54
(dp3960
sg63
g3954
sg56
(lp3961
g49
(g50
g51
NtRp3962
(dp3963
g54
(dp3964
g62
I3
ssg63
g3958
sg56
(lp3965
g49
(g58
g51
NtRp3966
(dp3967
g54
(dp3968
g62
I2
ssg63
Nsg56
(lp3969
sbasbasbasbasbasbasbasbag49
(g65
g51
NtRp3970
(dp3971
g54
(dp3972
sg63
g3895
sg56
(lp3973
g49
(g70
g51
NtRp3974
(dp3975
g54
(dp3976
sg63
g3970
sg56
(lp3977
g49
(g50
g51
NtRp3978
(dp3979
g54
(dp3980
g62
I4
ssg63
g3974
sg56
(lp3981
g49
(g58
g51
NtRp3982
(dp3983
g54
(dp3984
g62
I3
ssg63
Nsg56
(lp3985
g49
(g65
g51
NtRp3986
(dp3987
g54
(dp3988
sg63
g3982
sg56
(lp3989
g49
(g70
g51
NtRp3990
(dp3991
g54
(dp3992
sg63
g3986
sg56
(lp3993
g49
(g50
g51
NtRp3994
(dp3995
g54
(dp3996
g62
I3
ssg63
g3990
sg56
(lp3997
g49
(cgluon.html
SPAN
p3998
g51
NtRp3999
(dp4000
g54
(dp4001
g74
S'color:yellow'
p4002
ssg63
Nsg56
(lp4003
g3873
asbasbasbasbag49
(g65
g51
NtRp4004
(dp4005
g54
(dp4006
sg63
g3982
sg56
(lp4007
g49
(g70
g51
NtRp4008
(dp4009
g54
(dp4010
sg63
g4004
sg56
(lp4011
g49
(g50
g51
NtRp4012
(dp4013
g54
(dp4014
g62
I3
ssg63
g4008
sg56
(lp4015
g92
asbasbasbag49
(g65
g51
NtRp4016
(dp4017
g54
(dp4018
sg63
g3982
sg56
(lp4019
g49
(g70
g51
NtRp4020
(dp4021
g54
(dp4022
sg63
g4016
sg56
(lp4023
g49
(g50
g51
NtRp4024
(dp4025
g54
(dp4026
g62
I3
ssg63
g4020
sg56
(lp4027
S'None'
p4028
asbasbasbag49
(g65
g51
NtRp4029
(dp4030
g54
(dp4031
sg63
g3982
sg56
(lp4032
g49
(g70
g51
NtRp4033
(dp4034
g54
(dp4035
sg63
g4029
sg56
(lp4036
g49
(g50
g51
NtRp4037
(dp4038
g54
(dp4039
g62
I3
ssg63
g4033
sg56
(lp4040
g49
(g58
g51
NtRp4041
(dp4042
g54
(dp4043
g62
I2
ssg63
Nsg56
(lp4044
g49
(g65
g51
NtRp4045
(dp4046
g54
(dp4047
sg63
g4041
sg56
(lp4048
g49
(g70
g51
NtRp4049
(dp4050
g54
(dp4051
sg63
g4045
sg56
(lp4052
g49
(g50
g51
NtRp4053
(dp4054
g54
(dp4055
g62
I2
ssg63
g4049
sg56
(lp4056
g49
(g58
g51
NtRp4057
(dp4058
g54
(dp4059
g62
I1
ssg63
Nsg56
(lp4060
g49
(g65
g51
NtRp4061
(dp4062
g54
(dp4063
sg63
g4057
sg56
(lp4064
g49
(g70
g51
NtRp4065
(dp4066
g54
(dp4067
sg63
g4061
sg56
(lp4068
g49
(g50
g51
NtRp4069
(dp4070
g54
(dp4071
g62
I1
ssg63
g4065
sg56
(lp4072
g3927
(S's\x08\x00\x00\x00My Sites'
tRp4073
asbasbasbag49
(g65
g51
NtRp4074
(dp4075
g54
(dp4076
sg63
g4057
sg56
(lp4077
g49
(g70
g51
NtRp4078
(dp4079
g54
(dp4080
sg63
g4074
sg56
(lp4081
g49
(g50
g51
NtRp4082
(dp4083
g54
(dp4084
g62
I1
ssg63
g4078
sg56
(lp4085
I00
asbasbasbag49
(g65
g51
NtRp4086
(dp4087
g54
(dp4088
sg63
g4057
sg56
(lp4089
g49
(g70
g51
NtRp4090
(dp4091
g54
(dp4092
sg63
g4086
sg56
(lp4093
g49
(g50
g51
NtRp4094
(dp4095
g54
(dp4096
g62
I1
ssg63
g4090
sg56
(lp4097
S'/admin/default/site'
p4098
asbasbasbasbasbasbasbag49
(g65
g51
NtRp4099
(dp4100
g54
(dp4101
sg63
g4041
sg56
(lp4102
g49
(g70
g51
NtRp4103
(dp4104
g54
(dp4105
sg63
g4099
sg56
(lp4106
g49
(g50
g51
NtRp4107
(dp4108
g54
(dp4109
g62
I2
ssg63
g4103
sg56
(lp4110
g49
(g58
g51
NtRp4111
(dp4112
g54
(dp4113
g62
I1
ssg63
Nsg56
(lp4114
g49
(g65
g51
NtRp4115
(dp4116
g54
(dp4117
sg63
g4111
sg56
(lp4118
g49
(g70
g51
NtRp4119
(dp4120
g54
(dp4121
sg63
g4115
sg56
(lp4122
g49
(g50
g51
NtRp4123
(dp4124
g54
(dp4125
g62
I1
ssg63
g4119
sg56
(lp4126
g3927
(S's\x08\x00\x00\x00This App'
tRp4127
asbasbasbag49
(g65
g51
NtRp4128
(dp4129
g54
(dp4130
sg63
g4111
sg56
(lp4131
g49
(g70
g51
NtRp4132
(dp4133
g54
(dp4134
sg63
g4128
sg56
(lp4135
g49
(g50
g51
NtRp4136
(dp4137
g54
(dp4138
g62
I1
ssg63
g4132
sg56
(lp4139
I00
asbasbasbag49
(g65
g51
NtRp4140
(dp4141
g54
(dp4142
sg63
g4111
sg56
(lp4143
g49
(g70
g51
NtRp4144
(dp4145
g54
(dp4146
sg63
g4140
sg56
(lp4147
g49
(g50
g51
NtRp4148
(dp4149
g54
(dp4150
g62
I1
ssg63
g4144
sg56
(lp4151
S'/admin/default/design/unioeste_code'
p4152
asbasbasbag49
(g65
g51
NtRp4153
(dp4154
g54
(dp4155
sg63
g4111
sg56
(lp4156
g49
(g70
g51
NtRp4157
(dp4158
g54
(dp4159
sg63
g4153
sg56
(lp4160
g49
(g50
g51
NtRp4161
(dp4162
g54
(dp4163
g62
I1
ssg63
g4157
sg56
(lp4164
(lp4165
(g3927
(S't\x0b\x00\x00\x00Controlador'
tRp4166
I00
S'/admin/default/edit/unioeste_code/controllers/default.py'
tp4167
a(g3927
(S's\x0e\x00\x00\x00Visualiza\xc3\xa7\xc3\xa3o'
tRp4168
I00
S'/admin/default/edit/unioeste_code/views/default/user.html'
tp4169
a(g3927
(S't\x06\x00\x00\x00Layout'
tRp4170
I00
S'/admin/default/edit/unioeste_code/views/layout.html'
tp4171
a(g3927
(S't\n\x00\x00\x00Stylesheet'
tRp4172
I00
S'/admin/default/edit/unioeste_code/static/css/web2py.css'
tp4173
a(g3927
(S's\t\x00\x00\x00Modelo BD'
tRp4174
I00
S'/admin/default/edit/unioeste_code/models/db.py'
tp4175
a(g3927
(S's\x0e\x00\x00\x00Modelo de Menu'
tRp4176
I00
S'/admin/default/edit/unioeste_code/models/menu.py'
tp4177
a(g3927
(S's\x0e\x00\x00\x00Banco de dados'
tRp4178
I00
S'/unioeste_code/appadmin/index'
tp4179
a(g3927
(S't\x06\x00\x00\x00Errors'
tRp4180
I00
S'/admin/default/errors/unioeste_code'
tp4181
a(g3927
(S't\x05\x00\x00\x00About'
tRp4182
I00
S'/admin/default/about/unioeste_code'
tp4183
aasbasbasbasbasbasbasbag49
(g65
g51
NtRp4184
(dp4185
g54
(dp4186
sg63
g4041
sg56
(lp4187
g49
(g70
g51
NtRp4188
(dp4189
g54
(dp4190
sg63
g4184
sg56
(lp4191
g49
(g50
g51
NtRp4192
(dp4193
g54
(dp4194
g62
I2
ssg63
g4188
sg56
(lp4195
g49
(g58
g51
NtRp4196
(dp4197
g54
(dp4198
g62
I1
ssg63
Nsg56
(lp4199
g49
(g65
g51
NtRp4200
(dp4201
g54
(dp4202
sg63
g4196
sg56
(lp4203
g49
(g70
g51
NtRp4204
(dp4205
g54
(dp4206
sg63
g4200
sg56
(lp4207
g49
(g50
g51
NtRp4208
(dp4209
g54
(dp4210
g62
I1
ssg63
g4204
sg56
(lp4211
S'web2py.com'
p4212
asbasbasbag49
(g65
g51
NtRp4213
(dp4214
g54
(dp4215
sg63
g4196
sg56
(lp4216
g49
(g70
g51
NtRp4217
(dp4218
g54
(dp4219
sg63
g4213
sg56
(lp4220
g49
(g50
g51
NtRp4221
(dp4222
g54
(dp4223
g62
I1
ssg63
g4217
sg56
(lp4224
I00
asbasbasbag49
(g65
g51
NtRp4225
(dp4226
g54
(dp4227
sg63
g4196
sg56
(lp4228
g49
(g70
g51
NtRp4229
(dp4230
g54
(dp4231
sg63
g4225
sg56
(lp4232
g49
(g50
g51
NtRp4233
(dp4234
g54
(dp4235
g62
I1
ssg63
g4229
sg56
(lp4236
S'http://www.web2py.com'
p4237
asbasbasbag49
(g65
g51
NtRp4238
(dp4239
g54
(dp4240
sg63
g4196
sg56
(lp4241
g49
(g70
g51
NtRp4242
(dp4243
g54
(dp4244
sg63
g4238
sg56
(lp4245
g49
(g50
g51
NtRp4246
(dp4247
g54
(dp4248
g62
I1
ssg63
g4242
sg56
(lp4249
(lp4250
(g3927
(S't\x08\x00\x00\x00Download'
tRp4251
I00
S'http://www.web2py.com/examples/default/download'
p4252
tp4253
a(g3927
(S't\x07\x00\x00\x00Support'
tRp4254
I00
S'http://www.web2py.com/examples/default/support'
p4255
tp4256
a(g3927
(S't\x04\x00\x00\x00Demo'
tRp4257
I00
S'http://web2py.com/demo_admin'
p4258
tp4259
a(g3927
(S's\x0e\x00\x00\x00Quick Examples'
tRp4260
I00
S'http://web2py.com/examples/default/examples'
p4261
tp4262
a(g3927
(S't\x03\x00\x00\x00FAQ'
tRp4263
I00
S'http://web2py.com/AlterEgo'
p4264
tp4265
a(g3927
(S't\x06\x00\x00\x00Videos'
tRp4266
I00
S'http://www.web2py.com/examples/default/videos/'
p4267
tp4268
a(g3927
(S's\x11\x00\x00\x00Free Applications'
tRp4269
I00
S'http://web2py.com/appliances'
p4270
tp4271
a(g3927
(S't\x07\x00\x00\x00Plugins'
tRp4272
I00
S'http://web2py.com/plugins'
p4273
tp4274
a(g3927
(S't\x07\x00\x00\x00Layouts'
tRp4275
I00
S'http://web2py.com/layouts'
p4276
tp4277
a(g3927
(S't\x07\x00\x00\x00Recipes'
tRp4278
I00
S'http://web2pyslices.com/'
p4279
tp4280
a(g3927
(S't\x08\x00\x00\x00Semantic'
tRp4281
I00
S'http://web2py.com/semantic'
p4282
tp4283
aasbasbasbasbasbasbasbag49
(g65
g51
NtRp4284
(dp4285
g54
(dp4286
sg63
g4041
sg56
(lp4287
g49
(g70
g51
NtRp4288
(dp4289
g54
(dp4290
sg63
g4284
sg56
(lp4291
g49
(g50
g51
NtRp4292
(dp4293
g54
(dp4294
g62
I2
ssg63
g4288
sg56
(lp4295
g49
(g58
g51
NtRp4296
(dp4297
g54
(dp4298
g62
I1
ssg63
Nsg56
(lp4299
g49
(g65
g51
NtRp4300
(dp4301
g54
(dp4302
sg63
g4296
sg56
(lp4303
g49
(g70
g51
NtRp4304
(dp4305
g54
(dp4306
sg63
g4300
sg56
(lp4307
g49
(g50
g51
NtRp4308
(dp4309
g54
(dp4310
g62
I1
ssg63
g4304
sg56
(lp4311
g3927
(S't\r\x00\x00\x00Documentation'
tRp4312
asbasbasbag49
(g65
g51
NtRp4313
(dp4314
g54
(dp4315
sg63
g4296
sg56
(lp4316
g49
(g70
g51
NtRp4317
(dp4318
g54
(dp4319
sg63
g4313
sg56
(lp4320
g49
(g50
g51
NtRp4321
(dp4322
g54
(dp4323
g62
I1
ssg63
g4317
sg56
(lp4324
I00
asbasbasbag49
(g65
g51
NtRp4325
(dp4326
g54
(dp4327
sg63
g4296
sg56
(lp4328
g49
(g70
g51
NtRp4329
(dp4330
g54
(dp4331
sg63
g4325
sg56
(lp4332
g49
(g50
g51
NtRp4333
(dp4334
g54
(dp4335
g62
I1
ssg63
g4329
sg56
(lp4336
S'http://www.web2py.com/book'
p4337
asbasbasbag49
(g65
g51
NtRp4338
(dp4339
g54
(dp4340
sg63
g4296
sg56
(lp4341
g49
(g70
g51
NtRp4342
(dp4343
g54
(dp4344
sg63
g4338
sg56
(lp4345
g49
(g50
g51
NtRp4346
(dp4347
g54
(dp4348
g62
I1
ssg63
g4342
sg56
(lp4349
(lp4350
(g3927
(S't\x07\x00\x00\x00Preface'
tRp4351
I00
S'http://www.web2py.com/book/default/chapter/00'
p4352
tp4353
a(g3927
(S't\x0c\x00\x00\x00Introduction'
tRp4354
I00
S'http://www.web2py.com/book/default/chapter/01'
p4355
tp4356
a(g3927
(S't\x06\x00\x00\x00Python'
tRp4357
I00
S'http://www.web2py.com/book/default/chapter/02'
p4358
tp4359
a(g3927
(S't\x08\x00\x00\x00Overview'
tRp4360
I00
S'http://www.web2py.com/book/default/chapter/03'
p4361
tp4362
a(g3927
(S's\x08\x00\x00\x00The Core'
tRp4363
I00
S'http://www.web2py.com/book/default/chapter/04'
p4364
tp4365
a(g3927
(S's\t\x00\x00\x00The Views'
tRp4366
I00
S'http://www.web2py.com/book/default/chapter/05'
p4367
tp4368
a(g3927
(S's\x0e\x00\x00\x00Banco de dados'
tRp4369
I00
S'http://www.web2py.com/book/default/chapter/06'
p4370
tp4371
a(g3927
(S's\x14\x00\x00\x00Forms and Validators'
tRp4372
I00
S'http://www.web2py.com/book/default/chapter/07'
p4373
tp4374
a(g3927
(S's\r\x00\x00\x00Email and SMS'
tRp4375
I00
S'http://www.web2py.com/book/default/chapter/08'
p4376
tp4377
a(g3927
(S's\x0e\x00\x00\x00Access Control'
tRp4378
I00
S'http://www.web2py.com/book/default/chapter/09'
p4379
tp4380
a(g3927
(S't\x08\x00\x00\x00Services'
tRp4381
I00
S'http://www.web2py.com/book/default/chapter/10'
p4382
tp4383
a(g3927
(S's\x0c\x00\x00\x00Ajax Recipes'
tRp4384
I00
S'http://www.web2py.com/book/default/chapter/11'
p4385
tp4386
a(g3927
(S's\x16\x00\x00\x00Components and Plugins'
tRp4387
I00
S'http://www.web2py.com/book/default/chapter/12'
p4388
tp4389
a(g3927
(S's\x12\x00\x00\x00Deployment Recipes'
tRp4390
I00
S'http://www.web2py.com/book/default/chapter/13'
p4391
tp4392
a(g3927
(S's\r\x00\x00\x00Other Recipes'
tRp4393
I00
S'http://www.web2py.com/book/default/chapter/14'
p4394
tp4395
a(g3927
(S's\r\x00\x00\x00Buy this book'
tRp4396
I00
S'http://stores.lulu.com/web2py'
p4397
tp4398
aasbasbasbasbasbasbasbag49
(g65
g51
NtRp4399
(dp4400
g54
(dp4401
sg63
g4041
sg56
(lp4402
g49
(g70
g51
NtRp4403
(dp4404
g54
(dp4405
sg63
g4399
sg56
(lp4406
g49
(g50
g51
NtRp4407
(dp4408
g54
(dp4409
g62
I2
ssg63
g4403
sg56
(lp4410
g49
(g58
g51
NtRp4411
(dp4412
g54
(dp4413
g62
I1
ssg63
Nsg56
(lp4414
g49
(g65
g51
NtRp4415
(dp4416
g54
(dp4417
sg63
g4411
sg56
(lp4418
g49
(g70
g51
NtRp4419
(dp4420
g54
(dp4421
sg63
g4415
sg56
(lp4422
g49
(g50
g51
NtRp4423
(dp4424
g54
(dp4425
g62
I1
ssg63
g4419
sg56
(lp4426
g3927
(S't\t\x00\x00\x00Community'
tRp4427
asbasbasbag49
(g65
g51
NtRp4428
(dp4429
g54
(dp4430
sg63
g4411
sg56
(lp4431
g49
(g70
g51
NtRp4432
(dp4433
g54
(dp4434
sg63
g4428
sg56
(lp4435
g49
(g50
g51
NtRp4436
(dp4437
g54
(dp4438
g62
I1
ssg63
g4432
sg56
(lp4439
I00
asbasbasbag49
(g65
g51
NtRp4440
(dp4441
g54
(dp4442
sg63
g4411
sg56
(lp4443
g49
(g70
g51
NtRp4444
(dp4445
g54
(dp4446
sg63
g4440
sg56
(lp4447
g49
(g50
g51
NtRp4448
(dp4449
g54
(dp4450
g62
I1
ssg63
g4444
sg56
(lp4451
Nasbasbasbag49
(g65
g51
NtRp4452
(dp4453
g54
(dp4454
sg63
g4411
sg56
(lp4455
g49
(g70
g51
NtRp4456
(dp4457
g54
(dp4458
sg63
g4452
sg56
(lp4459
g49
(g50
g51
NtRp4460
(dp4461
g54
(dp4462
g62
I1
ssg63
g4456
sg56
(lp4463
(lp4464
(g3927
(S't\x06\x00\x00\x00Groups'
tRp4465
I00
S'http://www.web2py.com/examples/default/usergroups'
p4466
tp4467
a(g3927
(S't\x07\x00\x00\x00Twitter'
tRp4468
I00
S'http://twitter.com/web2py'
p4469
tp4470
a(g3927
(S's\t\x00\x00\x00Live Chat'
tRp4471
I00
S'http://webchat.freenode.net/?channels=web2py'
p4472
tp4473
aasbasbasbasbasbasbasbag49
(g65
g51
NtRp4474
(dp4475
g54
(dp4476
sg63
g4041
sg56
(lp4477
g49
(g70
g51
NtRp4478
(dp4479
g54
(dp4480
sg63
g4474
sg56
(lp4481
g49
(g50
g51
NtRp4482
(dp4483
g54
(dp4484
g62
I2
ssg63
g4478
sg56
(lp4485
g49
(g58
g51
NtRp4486
(dp4487
g54
(dp4488
g62
I1
ssg63
Nsg56
(lp4489
g49
(g65
g51
NtRp4490
(dp4491
g54
(dp4492
sg63
g4486
sg56
(lp4493
g49
(g70
g51
NtRp4494
(dp4495
g54
(dp4496
sg63
g4490
sg56
(lp4497
g49
(g50
g51
NtRp4498
(dp4499
g54
(dp4500
g62
I1
ssg63
g4494
sg56
(lp4501
g3927
(S't\x07\x00\x00\x00Plugins'
tRp4502
asbasbasbag49
(g65
g51
NtRp4503
(dp4504
g54
(dp4505
sg63
g4486
sg56
(lp4506
g49
(g70
g51
NtRp4507
(dp4508
g54
(dp4509
sg63
g4503
sg56
(lp4510
g49
(g50
g51
NtRp4511
(dp4512
g54
(dp4513
g62
I1
ssg63
g4507
sg56
(lp4514
I00
asbasbasbag49
(g65
g51
NtRp4515
(dp4516
g54
(dp4517
sg63
g4486
sg56
(lp4518
g49
(g70
g51
NtRp4519
(dp4520
g54
(dp4521
sg63
g4515
sg56
(lp4522
g49
(g50
g51
NtRp4523
(dp4524
g54
(dp4525
g62
I1
ssg63
g4519
sg56
(lp4526
Nasbasbasbag49
(g65
g51
NtRp4527
(dp4528
g54
(dp4529
sg63
g4486
sg56
(lp4530
g49
(g70
g51
NtRp4531
(dp4532
g54
(dp4533
sg63
g4527
sg56
(lp4534
g49
(g50
g51
NtRp4535
(dp4536
g54
(dp4537
g62
I1
ssg63
g4531
sg56
(lp4538
(lp4539
(S'plugin_wiki'
p4540
I00
S'http://web2py.com/examples/default/download'
p4541
tp4542
a(g3927
(S's\r\x00\x00\x00Other Plugins'
tRp4543
I00
g4273
tp4544
a(g3927
(S's\x0e\x00\x00\x00Layout Plugins'
tRp4545
I00
g4276
tp4546
aasbasbasbasbasbasbasbasbasbasbasbasbasbasbasbasbasbasbasbag49
(g65
g51
NtRp4547
(dp4548
g54
(dp4549
sg63
g3403
sg56
(lp4550
g49
(g70
g51
NtRp4551
(dp4552
g54
(dp4553
g74
g75
ssg63
g4547
sg56
(lp4554
S'meta'
p4555
asbag49
(g70
g51
NtRp4556
(dp4557
g54
(dp4558
g81
g82
ssg63
g4547
sg56
(lp4559
S':'
asbag49
(g70
g51
NtRp4560
(dp4561
g54
(dp4562
sg63
g4547
sg56
(lp4563
g49
(g50
g51
NtRp4564
(dp4565
g54
(dp4566
g62
I5
ssg63
g4560
sg56
(lp4567
g49
(g58
g51
NtRp4568
(dp4569
g54
(dp4570
g62
I4
ssg63
Nsg56
(lp4571
g49
(g65
g51
NtRp4572
(dp4573
g54
(dp4574
sg63
g4568
sg56
(lp4575
g49
(g70
g51
NtRp4576
(dp4577
g54
(dp4578
g74
g75
ssg63
g4572
sg56
(lp4579
S'author'
p4580
asbag49
(g70
g51
NtRp4581
(dp4582
g54
(dp4583
g81
g82
ssg63
g4572
sg56
(lp4584
S':'
asbag49
(g70
g51
NtRp4585
(dp4586
g54
(dp4587
sg63
g4572
sg56
(lp4588
g49
(g50
g51
NtRp4589
(dp4590
g54
(dp4591
g62
I4
ssg63
g4585
sg56
(lp4592
S'Your Name <you@example.com>'
p4593
asbasbasbag49
(g65
g51
NtRp4594
(dp4595
g54
(dp4596
sg63
g4568
sg56
(lp4597
g49
(g70
g51
NtRp4598
(dp4599
g54
(dp4600
g74
g75
ssg63
g4594
sg56
(lp4601
S'copyright'
p4602
asbag49
(g70
g51
NtRp4603
(dp4604
g54
(dp4605
g81
g82
ssg63
g4594
sg56
(lp4606
S':'
asbag49
(g70
g51
NtRp4607
(dp4608
g54
(dp4609
sg63
g4594
sg56
(lp4610
g49
(g50
g51
NtRp4611
(dp4612
g54
(dp4613
g62
I4
ssg63
g4607
sg56
(lp4614
S'Copyright 2011'
p4615
asbasbasbag49
(g65
g51
NtRp4616
(dp4617
g54
(dp4618
sg63
g4568
sg56
(lp4619
g49
(g70
g51
NtRp4620
(dp4621
g54
(dp4622
g74
g75
ssg63
g4616
sg56
(lp4623
S'description'
p4624
asbag49
(g70
g51
NtRp4625
(dp4626
g54
(dp4627
g81
g82
ssg63
g4616
sg56
(lp4628
S':'
asbag49
(g70
g51
NtRp4629
(dp4630
g54
(dp4631
sg63
g4616
sg56
(lp4632
g49
(g50
g51
NtRp4633
(dp4634
g54
(dp4635
g62
I4
ssg63
g4629
sg56
(lp4636
S'a cool new app'
p4637
asbasbasbag49
(g65
g51
NtRp4638
(dp4639
g54
(dp4640
sg63
g4568
sg56
(lp4641
g49
(g70
g51
NtRp4642
(dp4643
g54
(dp4644
g74
g75
ssg63
g4638
sg56
(lp4645
S'generator'
p4646
asbag49
(g70
g51
NtRp4647
(dp4648
g54
(dp4649
g81
g82
ssg63
g4638
sg56
(lp4650
S':'
asbag49
(g70
g51
NtRp4651
(dp4652
g54
(dp4653
sg63
g4638
sg56
(lp4654
g49
(g50
g51
NtRp4655
(dp4656
g54
(dp4657
g62
I4
ssg63
g4651
sg56
(lp4658
S'Web2py Web Framework'
p4659
asbasbasbag49
(g65
g51
NtRp4660
(dp4661
g54
(dp4662
sg63
g4568
sg56
(lp4663
g49
(g70
g51
NtRp4664
(dp4665
g54
(dp4666
g74
g75
ssg63
g4660
sg56
(lp4667
S'keywords'
p4668
asbag49
(g70
g51
NtRp4669
(dp4670
g54
(dp4671
g81
g82
ssg63
g4660
sg56
(lp4672
S':'
asbag49
(g70
g51
NtRp4673
(dp4674
g54
(dp4675
sg63
g4660
sg56
(lp4676
g49
(g50
g51
NtRp4677
(dp4678
g54
(dp4679
g62
I4
ssg63
g4673
sg56
(lp4680
S'web2py, python, framework'
p4681
asbasbasbasbasbasbasbag49
(g65
g51
NtRp4682
(dp4683
g54
(dp4684
sg63
g3403
sg56
(lp4685
g49
(g70
g51
NtRp4686
(dp4687
g54
(dp4688
g74
g75
ssg63
g4682
sg56
(lp4689
S'postprocessing'
p4690
asbag49
(g70
g51
NtRp4691
(dp4692
g54
(dp4693
g81
g82
ssg63
g4682
sg56
(lp4694
S':'
asbag49
(g70
g51
NtRp4695
(dp4696
g54
(dp4697
sg63
g4682
sg56
(lp4698
g49
(g50
g51
NtRp4699
(dp4700
g54
(dp4701
g62
I5
ssg63
g4695
sg56
(lp4702
g49
(g58
g51
NtRp4703
(dp4704
g54
(dp4705
g62
I4
ssg63
Nsg56
(lp4706
sbasbasbasbag49
(g65
g51
NtRp4707
(dp4708
g54
(dp4709
sg63
g3403
sg56
(lp4710
g49
(g70
g51
NtRp4711
(dp4712
g54
(dp4713
g74
g75
ssg63
g4707
sg56
(lp4714
S'session_file'
p4715
asbag49
(g70
g51
NtRp4716
(dp4717
g54
(dp4718
g81
g82
ssg63
g4707
sg56
(lp4719
S':'
asbag49
(g70
g51
NtRp4720
(dp4721
g54
(dp4722
sg63
g4707
sg56
(lp4723
g49
(g50
g51
NtRp4724
(dp4725
g54
(dp4726
g62
I5
ssg63
g4720
sg56
(lp4727
S"<open file 'C:\\web2py\\applications\\unioeste_code\\sessions\\127.0.0.1-6a17e692-996f-4fa9-84f1-38283f8585af', mode 'rb+' at 0x06CCCB18>"
p4728
asbasbasbag49
(g65
g51
NtRp4729
(dp4730
g54
(dp4731
sg63
g3403
sg56
(lp4732
g49
(g70
g51
NtRp4733
(dp4734
g54
(dp4735
g74
g75
ssg63
g4729
sg56
(lp4736
S'session_filename'
p4737
asbag49
(g70
g51
NtRp4738
(dp4739
g54
(dp4740
g81
g82
ssg63
g4729
sg56
(lp4741
S':'
asbag49
(g70
g51
NtRp4742
(dp4743
g54
(dp4744
sg63
g4729
sg56
(lp4745
g49
(g50
g51
NtRp4746
(dp4747
g54
(dp4748
g62
I5
ssg63
g4742
sg56
(lp4749
S'C:\\web2py\\applications\\unioeste_code\\sessions\\127.0.0.1-6a17e692-996f-4fa9-84f1-38283f8585af'
p4750
asbasbasbag49
(g65
g51
NtRp4751
(dp4752
g54
(dp4753
sg63
g3403
sg56
(lp4754
g49
(g70
g51
NtRp4755
(dp4756
g54
(dp4757
g74
g75
ssg63
g4751
sg56
(lp4758
S'session_id'
p4759
asbag49
(g70
g51
NtRp4760
(dp4761
g54
(dp4762
g81
g82
ssg63
g4751
sg56
(lp4763
S':'
asbag49
(g70
g51
NtRp4764
(dp4765
g54
(dp4766
sg63
g4751
sg56
(lp4767
g49
(g50
g51
NtRp4768
(dp4769
g54
(dp4770
g62
I5
ssg63
g4764
sg56
(lp4771
S'127.0.0.1-6a17e692-996f-4fa9-84f1-38283f8585af'
p4772
asbasbasbag49
(g65
g51
NtRp4773
(dp4774
g54
(dp4775
sg63
g3403
sg56
(lp4776
g49
(g70
g51
NtRp4777
(dp4778
g54
(dp4779
g74
g75
ssg63
g4773
sg56
(lp4780
S'session_id_name'
p4781
asbag49
(g70
g51
NtRp4782
(dp4783
g54
(dp4784
g81
g82
ssg63
g4773
sg56
(lp4785
S':'
asbag49
(g70
g51
NtRp4786
(dp4787
g54
(dp4788
sg63
g4773
sg56
(lp4789
g49
(g50
g51
NtRp4790
(dp4791
g54
(dp4792
g62
I5
ssg63
g4786
sg56
(lp4793
g3460
asbasbasbag49
(g65
g51
NtRp4794
(dp4795
g54
(dp4796
sg63
g3403
sg56
(lp4797
g49
(g70
g51
NtRp4798
(dp4799
g54
(dp4800
g74
g75
ssg63
g4794
sg56
(lp4801
S'session_locked'
p4802
asbag49
(g70
g51
NtRp4803
(dp4804
g54
(dp4805
g81
g82
ssg63
g4794
sg56
(lp4806
S':'
asbag49
(g70
g51
NtRp4807
(dp4808
g54
(dp4809
sg63
g4794
sg56
(lp4810
g49
(g50
g51
NtRp4811
(dp4812
g54
(dp4813
g62
I5
ssg63
g4807
sg56
(lp4814
g1622
asbasbasbag49
(g65
g51
NtRp4815
(dp4816
g54
(dp4817
sg63
g3403
sg56
(lp4818
g49
(g70
g51
NtRp4819
(dp4820
g54
(dp4821
g74
g75
ssg63
g4815
sg56
(lp4822
S'session_new'
p4823
asbag49
(g70
g51
NtRp4824
(dp4825
g54
(dp4826
g81
g82
ssg63
g4815
sg56
(lp4827
S':'
asbag49
(g70
g51
NtRp4828
(dp4829
g54
(dp4830
sg63
g4815
sg56
(lp4831
g49
(g50
g51
NtRp4832
(dp4833
g54
(dp4834
g62
I5
ssg63
g4828
sg56
(lp4835
g92
asbasbasbag49
(g65
g51
NtRp4836
(dp4837
g54
(dp4838
sg63
g3403
sg56
(lp4839
g49
(g70
g51
NtRp4840
(dp4841
g54
(dp4842
g74
g75
ssg63
g4836
sg56
(lp4843
S'status'
p4844
asbag49
(g70
g51
NtRp4845
(dp4846
g54
(dp4847
g81
g82
ssg63
g4836
sg56
(lp4848
S':'
asbag49
(g70
g51
NtRp4849
(dp4850
g54
(dp4851
sg63
g4836
sg56
(lp4852
g49
(g50
g51
NtRp4853
(dp4854
g54
(dp4855
g62
I5
ssg63
g4849
sg56
(lp4856
S'200'
p4857
asbasbasbag49
(g65
g51
NtRp4858
(dp4859
g54
(dp4860
sg63
g3403
sg56
(lp4861
g49
(g70
g51
NtRp4862
(dp4863
g54
(dp4864
g74
g75
ssg63
g4858
sg56
(lp4865
S'subtitle'
p4866
asbag49
(g70
g51
NtRp4867
(dp4868
g54
(dp4869
g81
g82
ssg63
g4858
sg56
(lp4870
S':'
asbag49
(g70
g51
NtRp4871
(dp4872
g54
(dp4873
sg63
g4858
sg56
(lp4874
g49
(g50
g51
NtRp4875
(dp4876
g54
(dp4877
g62
I5
ssg63
g4871
sg56
(lp4878
g3927
(S's\x0f\x00\x00\x00Personalize-me!'
tRp4879
asbasbasbag49
(g65
g51
NtRp4880
(dp4881
g54
(dp4882
sg63
g3403
sg56
(lp4883
g49
(g70
g51
NtRp4884
(dp4885
g54
(dp4886
g74
g75
ssg63
g4880
sg56
(lp4887
S'title'
p4888
asbag49
(g70
g51
NtRp4889
(dp4890
g54
(dp4891
g81
g82
ssg63
g4880
sg56
(lp4892
S':'
asbag49
(g70
g51
NtRp4893
(dp4894
g54
(dp4895
sg63
g4880
sg56
(lp4896
g49
(g50
g51
NtRp4897
(dp4898
g54
(dp4899
g62
I5
ssg63
g4893
sg56
(lp4900
S'Unioeste Code'
p4901
asbasbasbag49
(g65
g51
NtRp4902
(dp4903
g54
(dp4904
sg63
g3403
sg56
(lp4905
g49
(g70
g51
NtRp4906
(dp4907
g54
(dp4908
g74
g75
ssg63
g4902
sg56
(lp4909
g2308
asbag49
(g70
g51
NtRp4910
(dp4911
g54
(dp4912
g81
g82
ssg63
g4902
sg56
(lp4913
S':'
asbag49
(g70
g51
NtRp4914
(dp4915
g54
(dp4916
sg63
g4902
sg56
(lp4917
g49
(g50
g51
NtRp4918
(dp4919
g54
(dp4920
g62
I5
ssg63
g4914
sg56
(lp4921
g2321
asbasbasbag49
(g65
g51
NtRp4922
(dp4923
g54
(dp4924
sg63
g3403
sg56
(lp4925
g49
(g70
g51
NtRp4926
(dp4927
g54
(dp4928
g74
g75
ssg63
g4922
sg56
(lp4929
S'view'
p4930
asbag49
(g70
g51
NtRp4931
(dp4932
g54
(dp4933
g81
g82
ssg63
g4922
sg56
(lp4934
S':'
asbag49
(g70
g51
NtRp4935
(dp4936
g54
(dp4937
sg63
g4922
sg56
(lp4938
g49
(g50
g51
NtRp4939
(dp4940
g54
(dp4941
g62
I5
ssg63
g4935
sg56
(lp4942
S'default/user.html'
p4943
asbasbasbasbasbsS'locals'
p4944
(dp4945
S'Service'
p4946
S"<class 'gluon.tools.Service'>"
p4947
sS'OBJECT'
p4948
S"<class 'gluon.html.OBJECT'>"
p4949
sS'SQLDB'
p4950
S"<class 'gluon.dal.DAL'>"
p4951
sg3009
S"<Storage {'_formkey[comment/create]': '182434de-...login]': '5a118e1f-c2ac-4dff-bfcf-f6abb0e66844'}>"
p4952
sS'LINK'
p4953
S"<class 'gluon.html.LINK'>"
p4954
sS'BR'
p4955
S"<class 'gluon.html.BR'>"
p4956
sS'local_import'
p4957
S'<function <lambda> at 0x06CDD0F0>'
p4958
sS'OPTGROUP'
p4959
S"<class 'gluon.html.OPTGROUP'>"
p4960
sS'PRE'
p4961
S"<class 'gluon.html.PRE'>"
p4962
sS'IS_INT_IN_RANGE'
p4963
S"<class 'gluon.validators.IS_INT_IN_RANGE'>"
p4964
sS'IS_LOWER'
p4965
S"<class 'gluon.validators.IS_LOWER'>"
p4966
sS'IS_STRONG'
p4967
S"<class 'gluon.validators.IS_STRONG'>"
p4968
sS'Recaptcha'
p4969
S"<class 'gluon.tools.Recaptcha'>"
p4970
sS'cache'
p4971
S'<gluon.cache.Cache object at 0x0695A710>'
p4972
sS'IS_IN_DB'
p4973
S"<class 'gluon.validators.IS_IN_DB'>"
p4974
sS'TAG'
p4975
S'<gluon.html.__TAG__ object at 0x027FBE30>'
p4976
sS'SQLField'
p4977
S"<class 'gluon.dal.Field'>"
p4978
sS'BODY'
p4979
S"<class 'gluon.html.BODY'>"
p4980
sS'IS_DATE_IN_RANGE'
p4981
S"<class 'gluon.validators.IS_DATE_IN_RANGE'>"
p4982
sS'TH'
p4983
S"<class 'gluon.html.TH'>"
p4984
sS'URL'
p4985
S'<function URL at 0x0285D8F0>'
p4986
sS'__file__'
p4987
S"r'C:\\web2py\\applications\\unioeste_code\\views\\default/user.html'"
p4988
sS'db'
p4989
S"<DAL {'comment': <Table {'body': <gluon.dal.Fiel...object at 0x06917650>, '_singular': 'Problem'}>}>"
p4990
sS'auth'
p4991
S'<gluon.tools.Auth object at 0x0695A790>'
p4992
sS'P'
S"<class 'gluon.html.P'>"
p4993
sS'TFOOT'
p4994
S"<class 'gluon.html.TFOOT'>"
p4995
sS'XHTML'
p4996
S"<class 'gluon.html.XHTML'>"
p4997
sS'ON'
p4998
g1622
sS'OL'
p4999
S"<class 'gluon.html.OL'>"
p5000
sS'TEXTAREA'
p5001
S"<class 'gluon.html.TEXTAREA'>"
p5002
sS'MENU'
p5003
S"<class 'gluon.html.MENU'>"
p5004
sS'LOAD'
p5005
S'<function LOAD at 0x02AD54B0>'
p5006
sS'CODE'
p5007
S"<class 'gluon.html.CODE'>"
p5008
sS'HTTP'
p5009
S"<class 'gluon.http.HTTP'>"
p5010
sS'HR'
p5011
S"<class 'gluon.html.HR'>"
p5012
sS'IS_DATETIME'
p5013
S"<class 'gluon.validators.IS_DATETIME'>"
p5014
sS'HEAD'
p5015
S"<class 'gluon.html.HEAD'>"
p5016
sS'LABEL'
p5017
S"<class 'gluon.html.LABEL'>"
p5018
sS'CLEANUP'
p5019
S"<class 'gluon.validators.CLEANUP'>"
p5020
sS'SELECT'
p5021
S"<class 'gluon.html.SELECT'>"
p5022
sS'CENTER'
p5023
S"<class 'gluon.html.CENTER'>"
p5024
sS'prettydate'
p5025
S'<function prettydate at 0x0329DEF0>'
p5026
sS'Crud'
p5027
S"<class 'gluon.tools.Crud'>"
p5028
sS'Auth'
p5029
S"<class 'gluon.tools.Auth'>"
p5030
sS'__builtins__'
p5031
S"{'ArithmeticError': <type 'exceptions.ArithmeticError'>, 'AssertionError': <type 'exceptions.AssertionError'>, 'AttributeError': <type 'exceptions.AttributeError'>, 'BaseException': <type 'exceptions.BaseException'>, 'DeprecationWarning': <type 'exceptions.DeprecationWarning'>, 'EOFError': <type 'exceptions.EOFError'>, 'Ellipsis': Ellipsis, 'EnvironmentError': <type 'exceptions.EnvironmentError'>, 'Exception': <type 'exceptions.Exception'>, 'False': False, ...}"
p5032
sS'HTML'
p5033
S"<class 'gluon.html.HTML'>"
p5034
sS'SQLFORM'
p5035
S"<class 'gluon.sqlhtml.SQLFORM'>"
p5036
sS'EM'
p5037
S"<class 'gluon.html.EM'>"
p5038
sS'redirect'
p5039
S'<function redirect at 0x026D8F70>'
p5040
sS'FIELDSET'
p5041
S"<class 'gluon.html.FIELDSET'>"
p5042
sS'IS_EQUAL_TO'
p5043
S"<class 'gluon.validators.IS_EQUAL_TO'>"
p5044
sS'embed64'
p5045
S'<function embed64 at 0x02861430>'
p5046
sS'IS_LIST_OF'
p5047
S"<class 'gluon.validators.IS_LIST_OF'>"
p5048
sS'__name__'
p5049
S"'__restricted__'"
p5050
sS'EMBED'
p5051
S"<class 'gluon.html.EMBED'>"
p5052
sS'_'
S'<function _ at 0x06CDD2F0>'
p5053
sS'FORM'
p5054
S"<class 'gluon.html.FORM'>"
p5055
sS'H2'
p5056
S"<class 'gluon.html.H2'>"
p5057
sS'H3'
p5058
S"<class 'gluon.html.H3'>"
p5059
sS'BUTTON'
p5060
S"<class 'gluon.html.BUTTON'>"
p5061
sS'H1'
p5062
S"<class 'gluon.html.H1'>"
p5063
sS'H6'
p5064
S"<class 'gluon.html.H6'>"
p5065
sS'H4'
p5066
S"<class 'gluon.html.H4'>"
p5067
sS'H5'
p5068
S"<class 'gluon.html.H5'>"
p5069
sS'UL'
p5070
S"<class 'gluon.html.UL'>"
p5071
sS'IS_UPPER'
p5072
S"<class 'gluon.validators.IS_UPPER'>"
p5073
sS'xmlescape'
p5074
S'<function xmlescape at 0x0285D870>'
p5075
sS'IS_TIME'
p5076
S"<class 'gluon.validators.IS_TIME'>"
p5077
sS'OPTION'
p5078
S"<class 'gluon.html.OPTION'>"
p5079
sS'TITLE'
p5080
S"<class 'gluon.html.TITLE'>"
p5081
sS'CRYPT'
p5082
S"<class 'gluon.validators.CRYPT'>"
p5083
sS'IS_EMPTY_OR'
p5084
S"<class 'gluon.validators.IS_EMPTY_OR'>"
p5085
sS'MARKMIN'
p5086
S"<class 'gluon.html.MARKMIN'>"
p5087
sS'INPUT'
p5088
S"<class 'gluon.html.INPUT'>"
p5089
sS'COL'
p5090
S"<class 'gluon.html.COL'>"
p5091
sS'SCRIPT'
p5092
S"<class 'gluon.html.SCRIPT'>"
p5093
sS'geocode'
p5094
S'<function geocode at 0x0329D830>'
p5095
sS'TABLE'
p5096
S"<class 'gluon.html.TABLE'>"
p5097
sS'IS_IPV4'
p5098
S"<class 'gluon.validators.IS_IPV4'>"
p5099
sS'IS_LENGTH'
p5100
S"<class 'gluon.validators.IS_LENGTH'>"
p5101
sS'XML'
p5102
S"<class 'gluon.html.XML'>"
p5103
sS'B'
S"<class 'gluon.html.B'>"
p5104
sS'form'
p5105
S'<gluon.sqlhtml.SQLFORM object at 0x06C5C130>'
p5106
sS'SQLTABLE'
p5107
S"<class 'gluon.sqlhtml.SQLTABLE'>"
p5108
sS'IS_MATCH'
p5109
S"<class 'gluon.validators.IS_MATCH'>"
p5110
sS'IS_ALPHANUMERIC'
p5111
S"<class 'gluon.validators.IS_ALPHANUMERIC'>"
p5112
sS'SPAN'
p5113
S"<class 'gluon.html.SPAN'>"
p5114
sS'IS_SLUG'
p5115
S"<class 'gluon.validators.IS_SLUG'>"
p5116
sS'BEAUTIFY'
p5117
S"<class 'gluon.html.BEAUTIFY'>"
p5118
sS'META'
p5119
S"<class 'gluon.html.META'>"
p5120
sS'fetch'
p5121
S'<function fetch at 0x032976B0>'
p5122
sS'IS_DATE'
p5123
S"<class 'gluon.validators.IS_DATE'>"
p5124
sS'IS_EMAIL'
p5125
S"<class 'gluon.validators.IS_EMAIL'>"
p5126
sS'IS_NOT_EMPTY'
p5127
S"<class 'gluon.validators.IS_NOT_EMPTY'>"
p5128
sg48
S"<Storage {'body': <cStringIO.StringO object at 0...default/Problem/1'}>, 'post_vars': <Storage {}>}>"
p5129
sS'TBODY'
p5130
S"<class 'gluon.html.TBODY'>"
p5131
sS'CAT'
p5132
S"<class 'gluon.html.CAT'>"
p5133
sS'Field'
p5134
S"<class 'gluon.dal.Field'>"
p5135
sS'Mail'
p5136
S"<class 'gluon.tools.Mail'>"
p5137
sS'DIV'
p5138
S"<class 'gluon.html.DIV'>"
p5139
sS'LEGEND'
p5140
S"<class 'gluon.html.LEGEND'>"
p5141
sS'IMG'
p5142
S"<class 'gluon.html.IMG'>"
p5143
sS'COLGROUP'
p5144
S"<class 'gluon.html.COLGROUP'>"
p5145
sS'DAL'
p5146
S"<class 'gluon.dal.DAL'>"
p5147
sS'TT'
p5148
S"<class 'gluon.html.TT'>"
p5149
sS'TR'
p5150
S"<class 'gluon.html.TR'>"
p5151
sS'LI'
p5152
S"<class 'gluon.html.LI'>"
p5153
sS'IFRAME'
p5154
S"<class 'gluon.html.IFRAME'>"
p5155
sS'TD'
p5156
S"<class 'gluon.html.TD'>"
p5157
sS'PluginManager'
p5158
S"<class 'gluon.tools.PluginManager'>"
p5159
sS'IS_URL'
p5160
S"<class 'gluon.validators.IS_URL'>"
p5161
sS'A'
S"<class 'gluon.html.A'>"
p5162
sS'STYLE'
p5163
S"<class 'gluon.html.STYLE'>"
p5164
sS'IS_DATETIME_IN_RANGE'
p5165
S"<class 'gluon.validators.IS_DATETIME_IN_RANGE'>"
p5166
sS'IS_IMAGE'
p5167
S"<class 'gluon.validators.IS_IMAGE'>"
p5168
sS'I'
S"<class 'gluon.html.I'>"
p5169
sS'crud'
p5170
S'<gluon.tools.Crud object at 0x06C5CC90>'
p5171
sS'IS_NOT_IN_DB'
p5172
S"<class 'gluon.validators.IS_NOT_IN_DB'>"
p5173
sg3398
S"<Storage {'body': <cStringIO.StringO object at 0...da> at 0x06CC5A70>, 'view': 'default/user.html'}>"
p5174
sS'THEAD'
p5175
S"<class 'gluon.html.THEAD'>"
p5176
sS'IS_NULL_OR'
p5177
S"<class 'gluon.validators.IS_EMPTY_OR'>"
p5178
sS'IS_FLOAT_IN_RANGE'
p5179
S"<class 'gluon.validators.IS_FLOAT_IN_RANGE'>"
p5180
sS'IS_EXPR'
p5181
S"<class 'gluon.validators.IS_EXPR'>"
p5182
sS'T'
S'<gluon.languages.translator object at 0x0695A210>'
p5183
sS'IS_IN_SET'
p5184
S"<class 'gluon.validators.IS_IN_SET'>"
p5185
sS'IS_UPLOAD_FILENAME'
p5186
S"<class 'gluon.validators.IS_UPLOAD_FILENAME'>"
p5187
sS'IS_DECIMAL_IN_RANGE'
p5188
S"<class 'gluon.validators.IS_DECIMAL_IN_RANGE'>"
p5189
sssS'traceback'
p5190
S'Traceback (most recent call last):\n  File "gluon/restricted.py", line 205, in restricted\n  File "C:\\web2py\\applications\\unioeste_code\\views\\default/user.html", line 10, in <module>\nNameError: name \'self\' is not defined\n'
p5191
s.