(dp1
S'output'
p2
S"<type 'exceptions.AttributeError'> 'NoneType' object has no attribute 'id'"
p3
sS'layer'
p4
S'C:\\web2py\\applications\\unioeste_code\\controllers/default.py'
p5
sS'code'
p6
S'# -*- coding: utf-8 -*-\n# this file is released under public domain and you can use without limitations\n\n#########################################################################\n## This is a samples controller\n## - index is the default action of any application\n## - user is required for authentication and authorization\n## - download is for downloading files uploaded in the db (does streaming)\n## - call exposes all registered services (none by default)\n#########################################################################\n\ndef index():\n    problems = db().select(db.problem.ALL, orderby = db.problem.title)\n    return dict(problems=problems)\n\n@auth.requires_login()\ndef Problem():\n    problem = db(db.problem.id==request.args(0)).select().first()\n    db.code.problem_id.default = problem.id\n    form = SQLFORM(db.code)\n    if form.process().accepted:\n        response.flash = T(\'Your code has been posted\')\n    codes = db(db.code.problem_id == problem.id).select()    \n    return dict(problem=problem, codes=codes, form=form)\n\n@auth.requires_login()\ndef Code():\n    code = db(db.code.id == request.args(0)).select().first() or redirect(URL(\'error\'))\n    db.comment.code_id.default = code.id\n    form = SQLFORM(db.comment)\n    if form.process().accepted:\n        response.flash = T(\'Your comment has been posted\')\n    return dict(code=code,comments=comments,form=form)\n\n@auth.requires_membership(\'manager\')\ndef manageCode():\n    grid = SQLFORM.smartgrid(db.code)\n    return dict(grid=grid)\n\ndef user():\n    """\n    exposes:\n    http://..../[app]/default/user/login\n    http://..../[app]/default/user/logout\n    http://..../[app]/default/user/register\n    http://..../[app]/default/user/profile\n    http://..../[app]/default/user/retrieve_password\n    http://..../[app]/default/user/change_password\n    use @auth.requires_login()\n        @auth.requires_membership(\'group name\')\n        @auth.requires_permission(\'read\',\'table name\',record_id)\n    to decorate functions that need access control\n    """\n    return dict(form=auth())\n\n\ndef download():\n    """\n    allows downloading of uploaded files\n    http://..../[app]/default/download/[filename]\n    """\n    return response.download(request,db)\n\n\ndef call():\n    """\n    exposes services. for example:\n    http://..../[app]/default/call/jsonrpc\n    decorate with @services.jsonrpc the functions to expose\n    supports xml, json, xmlrpc, jsonrpc, amfrpc, rss, csv\n    """\n    return service()\n\n\n@auth.requires_signature()\ndef data():\n    """\n    http://..../[app]/default/data/tables\n    http://..../[app]/default/data/create/[table]\n    http://..../[app]/default/data/read/[table]/[id]\n    http://..../[app]/default/data/update/[table]/[id]\n    http://..../[app]/default/data/delete/[table]/[id]\n    http://..../[app]/default/data/select/[table]\n    http://..../[app]/default/data/search/[table]\n    but URLs must be signed, i.e. linked with\n      A(\'table\',_href=URL(\'data/tables\',user_signature=True))\n    or with the signed load operator\n      LOAD(\'default\',\'data.load\',args=\'tables\',ajax=True,user_signature=True)\n    """\n    return dict(form=crud())\n\n\nresponse._vars=response._caller(Problem)\n'
p7
sS'snapshot'
p8
(dp9
S'exception'
p10
(dp11
S'__hash__'
p12
S"<method-wrapper '__hash__' of exceptions.AttributeError object at 0x061533A0>"
p13
sS'__setattr__'
p14
S"<method-wrapper '__setattr__' of exceptions.AttributeError object at 0x061533A0>"
p15
sS'__reduce_ex__'
p16
S'<built-in method __reduce_ex__ of exceptions.AttributeError object at 0x061533A0>'
p17
sS'__getslice__'
p18
S"<method-wrapper '__getslice__' of exceptions.AttributeError object at 0x061533A0>"
p19
sS'__getitem__'
p20
S"<method-wrapper '__getitem__' of exceptions.AttributeError object at 0x061533A0>"
p21
sS'__setstate__'
p22
S'<built-in method __setstate__ of exceptions.AttributeError object at 0x061533A0>'
p23
sS'__reduce__'
p24
S'<built-in method __reduce__ of exceptions.AttributeError object at 0x061533A0>'
p25
sS'__str__'
p26
S"<method-wrapper '__str__' of exceptions.AttributeError object at 0x061533A0>"
p27
sS'args'
p28
S'("\'NoneType\' object has no attribute \'id\'",)'
p29
sS'__getattribute__'
p30
S"<method-wrapper '__getattribute__' of exceptions.AttributeError object at 0x061533A0>"
p31
sS'__class__'
p32
S"<type 'exceptions.AttributeError'>"
p33
sS'__delattr__'
p34
S"<method-wrapper '__delattr__' of exceptions.AttributeError object at 0x061533A0>"
p35
sS'__repr__'
p36
S"<method-wrapper '__repr__' of exceptions.AttributeError object at 0x061533A0>"
p37
sS'__dict__'
p38
S'{}'
p39
sS'__doc__'
p40
S"'Attribute not found.'"
p41
sS'__init__'
p42
S"<method-wrapper '__init__' of exceptions.AttributeError object at 0x061533A0>"
p43
sS'__new__'
p44
S'<built-in method __new__ of type object at 0x1E1CDA68>'
p45
ssS'evalue'
p46
S"'NoneType' object has no attribute 'id'"
p47
sS'request'
p48
ccopy_reg
_reconstructor
p49
(cgluon.html
BEAUTIFY
p50
c__builtin__
object
p51
NtRp52
(dp53
S'attributes'
p54
(dp55
sS'components'
p56
(lp57
g49
(cgluon.html
TABLE
p58
g51
NtRp59
(dp60
g54
(dp61
S'level'
p62
I5
ssS'parent'
p63
Nsg56
(lp64
g49
(cgluon.html
TR
p65
g51
NtRp66
(dp67
g54
(dp68
sg63
g59
sg56
(lp69
g49
(cgluon.html
TD
p70
g51
NtRp71
(dp72
g54
(dp73
S'_style'
p74
S'font-weight:bold;vertical-align:top'
p75
ssg63
g66
sg56
(lp76
S'ajax'
p77
asbag49
(g70
g51
NtRp78
(dp79
g54
(dp80
S'_valign'
p81
S'top'
p82
ssg63
g66
sg56
(lp83
S':'
asbag49
(g70
g51
NtRp84
(dp85
g54
(dp86
sg63
g66
sg56
(lp87
g49
(g50
g51
NtRp88
(dp89
g54
(dp90
g62
I5
ssg63
g84
sg56
(lp91
S'False'
p92
asbasbasbag49
(g65
g51
NtRp93
(dp94
g54
(dp95
sg63
g59
sg56
(lp96
g49
(g70
g51
NtRp97
(dp98
g54
(dp99
g74
g75
ssg63
g93
sg56
(lp100
S'application'
p101
asbag49
(g70
g51
NtRp102
(dp103
g54
(dp104
g81
g82
ssg63
g93
sg56
(lp105
S':'
asbag49
(g70
g51
NtRp106
(dp107
g54
(dp108
sg63
g93
sg56
(lp109
g49
(g50
g51
NtRp110
(dp111
g54
(dp112
g62
I5
ssg63
g106
sg56
(lp113
S'unioeste_code'
p114
asbasbasbag49
(g65
g51
NtRp115
(dp116
g54
(dp117
sg63
g59
sg56
(lp118
g49
(g70
g51
NtRp119
(dp120
g54
(dp121
g74
g75
ssg63
g115
sg56
(lp122
g28
asbag49
(g70
g51
NtRp123
(dp124
g54
(dp125
g81
g82
ssg63
g115
sg56
(lp126
S':'
asbag49
(g70
g51
NtRp127
(dp128
g54
(dp129
sg63
g115
sg56
(lp130
g49
(g50
g51
NtRp131
(dp132
g54
(dp133
g62
I5
ssg63
g127
sg56
(lp134
g49
(g58
g51
NtRp135
(dp136
g54
(dp137
g62
I4
ssg63
Nsg56
(lp138
g49
(g65
g51
NtRp139
(dp140
g54
(dp141
sg63
g135
sg56
(lp142
g49
(g70
g51
NtRp143
(dp144
g54
(dp145
sg63
g139
sg56
(lp146
g49
(g50
g51
NtRp147
(dp148
g54
(dp149
g62
I4
ssg63
g143
sg56
(lp150
S'20'
p151
asbasbasbasbasbasbasbag49
(g65
g51
NtRp152
(dp153
g54
(dp154
sg63
g59
sg56
(lp155
g49
(g70
g51
NtRp156
(dp157
g54
(dp158
g74
g75
ssg63
g152
sg56
(lp159
S'body'
p160
asbag49
(g70
g51
NtRp161
(dp162
g54
(dp163
g81
g82
ssg63
g152
sg56
(lp164
S':'
asbag49
(g70
g51
NtRp165
(dp166
g54
(dp167
sg63
g152
sg56
(lp168
g49
(g50
g51
NtRp169
(dp170
g54
(dp171
g62
I5
ssg63
g165
sg56
(lp172
S'<cStringIO.StringO object at 0x06065900>'
p173
asbasbasbag49
(g65
g51
NtRp174
(dp175
g54
(dp176
sg63
g59
sg56
(lp177
g49
(g70
g51
NtRp178
(dp179
g54
(dp180
g74
g75
ssg63
g174
sg56
(lp181
S'client'
p182
asbag49
(g70
g51
NtRp183
(dp184
g54
(dp185
g81
g82
ssg63
g174
sg56
(lp186
S':'
asbag49
(g70
g51
NtRp187
(dp188
g54
(dp189
sg63
g174
sg56
(lp190
g49
(g50
g51
NtRp191
(dp192
g54
(dp193
g62
I5
ssg63
g187
sg56
(lp194
S'127.0.0.1'
p195
asbasbasbag49
(g65
g51
NtRp196
(dp197
g54
(dp198
sg63
g59
sg56
(lp199
g49
(g70
g51
NtRp200
(dp201
g54
(dp202
g74
g75
ssg63
g196
sg56
(lp203
S'controller'
p204
asbag49
(g70
g51
NtRp205
(dp206
g54
(dp207
g81
g82
ssg63
g196
sg56
(lp208
S':'
asbag49
(g70
g51
NtRp209
(dp210
g54
(dp211
sg63
g196
sg56
(lp212
g49
(g50
g51
NtRp213
(dp214
g54
(dp215
g62
I5
ssg63
g209
sg56
(lp216
S'default'
p217
asbasbasbag49
(g65
g51
NtRp218
(dp219
g54
(dp220
sg63
g59
sg56
(lp221
g49
(g70
g51
NtRp222
(dp223
g54
(dp224
g74
g75
ssg63
g218
sg56
(lp225
S'cookies'
p226
asbag49
(g70
g51
NtRp227
(dp228
g54
(dp229
g81
g82
ssg63
g218
sg56
(lp230
S':'
asbag49
(g70
g51
NtRp231
(dp232
g54
(dp233
sg63
g218
sg56
(lp234
g49
(g50
g51
NtRp235
(dp236
g54
(dp237
g62
I5
ssg63
g231
sg56
(lp238
g49
(g58
g51
NtRp239
(dp240
g54
(dp241
g62
I4
ssg63
Nsg56
(lp242
g49
(g65
g51
NtRp243
(dp244
g54
(dp245
sg63
g239
sg56
(lp246
g49
(g70
g51
NtRp247
(dp248
g54
(dp249
g74
g75
ssg63
g243
sg56
(lp250
S'session_id_admin'
p251
asbag49
(g70
g51
NtRp252
(dp253
g54
(dp254
g81
g82
ssg63
g243
sg56
(lp255
S':'
asbag49
(g70
g51
NtRp256
(dp257
g54
(dp258
sg63
g243
sg56
(lp259
g49
(g50
g51
NtRp260
(dp261
g54
(dp262
g62
I4
ssg63
g256
sg56
(lp263
g49
(g58
g51
NtRp264
(dp265
g54
(dp266
g62
I3
ssg63
Nsg56
(lp267
g49
(g65
g51
NtRp268
(dp269
g54
(dp270
sg63
g264
sg56
(lp271
g49
(g70
g51
NtRp272
(dp273
g54
(dp274
g74
g75
ssg63
g268
sg56
(lp275
S'comment'
p276
asbag49
(g70
g51
NtRp277
(dp278
g54
(dp279
g81
g82
ssg63
g268
sg56
(lp280
S':'
asbag49
(g70
g51
NtRp281
(dp282
g54
(dp283
sg63
g268
sg56
(lp284
g49
(g50
g51
NtRp285
(dp286
g54
(dp287
g62
I3
ssg63
g281
sg56
(lp288
S''
asbasbasbag49
(g65
g51
NtRp289
(dp290
g54
(dp291
sg63
g264
sg56
(lp292
g49
(g70
g51
NtRp293
(dp294
g54
(dp295
g74
g75
ssg63
g289
sg56
(lp296
S'domain'
p297
asbag49
(g70
g51
NtRp298
(dp299
g54
(dp300
g81
g82
ssg63
g289
sg56
(lp301
S':'
asbag49
(g70
g51
NtRp302
(dp303
g54
(dp304
sg63
g289
sg56
(lp305
g49
(g50
g51
NtRp306
(dp307
g54
(dp308
g62
I3
ssg63
g302
sg56
(lp309
S''
asbasbasbag49
(g65
g51
NtRp310
(dp311
g54
(dp312
sg63
g264
sg56
(lp313
g49
(g70
g51
NtRp314
(dp315
g54
(dp316
g74
g75
ssg63
g310
sg56
(lp317
S'expires'
p318
asbag49
(g70
g51
NtRp319
(dp320
g54
(dp321
g81
g82
ssg63
g310
sg56
(lp322
S':'
asbag49
(g70
g51
NtRp323
(dp324
g54
(dp325
sg63
g310
sg56
(lp326
g49
(g50
g51
NtRp327
(dp328
g54
(dp329
g62
I3
ssg63
g323
sg56
(lp330
S''
asbasbasbag49
(g65
g51
NtRp331
(dp332
g54
(dp333
sg63
g264
sg56
(lp334
g49
(g70
g51
NtRp335
(dp336
g54
(dp337
g74
g75
ssg63
g331
sg56
(lp338
S'max-age'
p339
asbag49
(g70
g51
NtRp340
(dp341
g54
(dp342
g81
g82
ssg63
g331
sg56
(lp343
S':'
asbag49
(g70
g51
NtRp344
(dp345
g54
(dp346
sg63
g331
sg56
(lp347
g49
(g50
g51
NtRp348
(dp349
g54
(dp350
g62
I3
ssg63
g344
sg56
(lp351
S''
asbasbasbag49
(g65
g51
NtRp352
(dp353
g54
(dp354
sg63
g264
sg56
(lp355
g49
(g70
g51
NtRp356
(dp357
g54
(dp358
g74
g75
ssg63
g352
sg56
(lp359
S'path'
p360
asbag49
(g70
g51
NtRp361
(dp362
g54
(dp363
g81
g82
ssg63
g352
sg56
(lp364
S':'
asbag49
(g70
g51
NtRp365
(dp366
g54
(dp367
sg63
g352
sg56
(lp368
g49
(g50
g51
NtRp369
(dp370
g54
(dp371
g62
I3
ssg63
g365
sg56
(lp372
S''
asbasbasbag49
(g65
g51
NtRp373
(dp374
g54
(dp375
sg63
g264
sg56
(lp376
g49
(g70
g51
NtRp377
(dp378
g54
(dp379
g74
g75
ssg63
g373
sg56
(lp380
S'secure'
p381
asbag49
(g70
g51
NtRp382
(dp383
g54
(dp384
g81
g82
ssg63
g373
sg56
(lp385
S':'
asbag49
(g70
g51
NtRp386
(dp387
g54
(dp388
sg63
g373
sg56
(lp389
g49
(g50
g51
NtRp390
(dp391
g54
(dp392
g62
I3
ssg63
g386
sg56
(lp393
S''
asbasbasbag49
(g65
g51
NtRp394
(dp395
g54
(dp396
sg63
g264
sg56
(lp397
g49
(g70
g51
NtRp398
(dp399
g54
(dp400
g74
g75
ssg63
g394
sg56
(lp401
S'version'
p402
asbag49
(g70
g51
NtRp403
(dp404
g54
(dp405
g81
g82
ssg63
g394
sg56
(lp406
S':'
asbag49
(g70
g51
NtRp407
(dp408
g54
(dp409
sg63
g394
sg56
(lp410
g49
(g50
g51
NtRp411
(dp412
g54
(dp413
g62
I3
ssg63
g407
sg56
(lp414
S''
asbasbasbasbasbasbasbag49
(g65
g51
NtRp415
(dp416
g54
(dp417
sg63
g239
sg56
(lp418
g49
(g70
g51
NtRp419
(dp420
g54
(dp421
g74
g75
ssg63
g415
sg56
(lp422
S'session_id_unioeste_code'
p423
asbag49
(g70
g51
NtRp424
(dp425
g54
(dp426
g81
g82
ssg63
g415
sg56
(lp427
S':'
asbag49
(g70
g51
NtRp428
(dp429
g54
(dp430
sg63
g415
sg56
(lp431
g49
(g50
g51
NtRp432
(dp433
g54
(dp434
g62
I4
ssg63
g428
sg56
(lp435
g49
(g58
g51
NtRp436
(dp437
g54
(dp438
g62
I3
ssg63
Nsg56
(lp439
g49
(g65
g51
NtRp440
(dp441
g54
(dp442
sg63
g436
sg56
(lp443
g49
(g70
g51
NtRp444
(dp445
g54
(dp446
g74
g75
ssg63
g440
sg56
(lp447
g276
asbag49
(g70
g51
NtRp448
(dp449
g54
(dp450
g81
g82
ssg63
g440
sg56
(lp451
S':'
asbag49
(g70
g51
NtRp452
(dp453
g54
(dp454
sg63
g440
sg56
(lp455
g49
(g50
g51
NtRp456
(dp457
g54
(dp458
g62
I3
ssg63
g452
sg56
(lp459
S''
asbasbasbag49
(g65
g51
NtRp460
(dp461
g54
(dp462
sg63
g436
sg56
(lp463
g49
(g70
g51
NtRp464
(dp465
g54
(dp466
g74
g75
ssg63
g460
sg56
(lp467
g297
asbag49
(g70
g51
NtRp468
(dp469
g54
(dp470
g81
g82
ssg63
g460
sg56
(lp471
S':'
asbag49
(g70
g51
NtRp472
(dp473
g54
(dp474
sg63
g460
sg56
(lp475
g49
(g50
g51
NtRp476
(dp477
g54
(dp478
g62
I3
ssg63
g472
sg56
(lp479
S''
asbasbasbag49
(g65
g51
NtRp480
(dp481
g54
(dp482
sg63
g436
sg56
(lp483
g49
(g70
g51
NtRp484
(dp485
g54
(dp486
g74
g75
ssg63
g480
sg56
(lp487
g318
asbag49
(g70
g51
NtRp488
(dp489
g54
(dp490
g81
g82
ssg63
g480
sg56
(lp491
S':'
asbag49
(g70
g51
NtRp492
(dp493
g54
(dp494
sg63
g480
sg56
(lp495
g49
(g50
g51
NtRp496
(dp497
g54
(dp498
g62
I3
ssg63
g492
sg56
(lp499
S''
asbasbasbag49
(g65
g51
NtRp500
(dp501
g54
(dp502
sg63
g436
sg56
(lp503
g49
(g70
g51
NtRp504
(dp505
g54
(dp506
g74
g75
ssg63
g500
sg56
(lp507
g339
asbag49
(g70
g51
NtRp508
(dp509
g54
(dp510
g81
g82
ssg63
g500
sg56
(lp511
S':'
asbag49
(g70
g51
NtRp512
(dp513
g54
(dp514
sg63
g500
sg56
(lp515
g49
(g50
g51
NtRp516
(dp517
g54
(dp518
g62
I3
ssg63
g512
sg56
(lp519
S''
asbasbasbag49
(g65
g51
NtRp520
(dp521
g54
(dp522
sg63
g436
sg56
(lp523
g49
(g70
g51
NtRp524
(dp525
g54
(dp526
g74
g75
ssg63
g520
sg56
(lp527
g360
asbag49
(g70
g51
NtRp528
(dp529
g54
(dp530
g81
g82
ssg63
g520
sg56
(lp531
S':'
asbag49
(g70
g51
NtRp532
(dp533
g54
(dp534
sg63
g520
sg56
(lp535
g49
(g50
g51
NtRp536
(dp537
g54
(dp538
g62
I3
ssg63
g532
sg56
(lp539
S''
asbasbasbag49
(g65
g51
NtRp540
(dp541
g54
(dp542
sg63
g436
sg56
(lp543
g49
(g70
g51
NtRp544
(dp545
g54
(dp546
g74
g75
ssg63
g540
sg56
(lp547
g381
asbag49
(g70
g51
NtRp548
(dp549
g54
(dp550
g81
g82
ssg63
g540
sg56
(lp551
S':'
asbag49
(g70
g51
NtRp552
(dp553
g54
(dp554
sg63
g540
sg56
(lp555
g49
(g50
g51
NtRp556
(dp557
g54
(dp558
g62
I3
ssg63
g552
sg56
(lp559
S''
asbasbasbag49
(g65
g51
NtRp560
(dp561
g54
(dp562
sg63
g436
sg56
(lp563
g49
(g70
g51
NtRp564
(dp565
g54
(dp566
g74
g75
ssg63
g560
sg56
(lp567
g402
asbag49
(g70
g51
NtRp568
(dp569
g54
(dp570
g81
g82
ssg63
g560
sg56
(lp571
S':'
asbag49
(g70
g51
NtRp572
(dp573
g54
(dp574
sg63
g560
sg56
(lp575
g49
(g50
g51
NtRp576
(dp577
g54
(dp578
g62
I3
ssg63
g572
sg56
(lp579
S''
asbasbasbasbasbasbasbasbasbasbasbag49
(g65
g51
NtRp580
(dp581
g54
(dp582
sg63
g59
sg56
(lp583
g49
(g70
g51
NtRp584
(dp585
g54
(dp586
g74
g75
ssg63
g580
sg56
(lp587
S'env'
p588
asbag49
(g70
g51
NtRp589
(dp590
g54
(dp591
g81
g82
ssg63
g580
sg56
(lp592
S':'
asbag49
(g70
g51
NtRp593
(dp594
g54
(dp595
sg63
g580
sg56
(lp596
g49
(g50
g51
NtRp597
(dp598
g54
(dp599
g62
I5
ssg63
g593
sg56
(lp600
g49
(g58
g51
NtRp601
(dp602
g54
(dp603
g62
I4
ssg63
Nsg56
(lp604
g49
(g65
g51
NtRp605
(dp606
g54
(dp607
sg63
g601
sg56
(lp608
g49
(g70
g51
NtRp609
(dp610
g54
(dp611
g74
g75
ssg63
g605
sg56
(lp612
S'app_folders'
p613
asbag49
(g70
g51
NtRp614
(dp615
g54
(dp616
g81
g82
ssg63
g605
sg56
(lp617
S':'
asbag49
(g70
g51
NtRp618
(dp619
g54
(dp620
sg63
g605
sg56
(lp621
g49
(g50
g51
NtRp622
(dp623
g54
(dp624
g62
I4
ssg63
g618
sg56
(lp625
S"set(['C:\\\\web2py\\\\applications\\\\admin\\\\', 'C:\\\\web2py\\\\applications\\\\welcome\\\\', 'C:\\\\web2py\\\\applications\\\\unioeste_code\\\\'])"
p626
asbasbasbag49
(g65
g51
NtRp627
(dp628
g54
(dp629
sg63
g601
sg56
(lp630
g49
(g70
g51
NtRp631
(dp632
g54
(dp633
g74
g75
ssg63
g627
sg56
(lp634
S'applications_parent'
p635
asbag49
(g70
g51
NtRp636
(dp637
g54
(dp638
g81
g82
ssg63
g627
sg56
(lp639
S':'
asbag49
(g70
g51
NtRp640
(dp641
g54
(dp642
sg63
g627
sg56
(lp643
g49
(g50
g51
NtRp644
(dp645
g54
(dp646
g62
I4
ssg63
g640
sg56
(lp647
S'C:\\web2py'
p648
asbasbasbag49
(g65
g51
NtRp649
(dp650
g54
(dp651
sg63
g601
sg56
(lp652
g49
(g70
g51
NtRp653
(dp654
g54
(dp655
g74
g75
ssg63
g649
sg56
(lp656
S'cmd_args'
p657
asbag49
(g70
g51
NtRp658
(dp659
g54
(dp660
g81
g82
ssg63
g649
sg56
(lp661
S':'
asbag49
(g70
g51
NtRp662
(dp663
g54
(dp664
sg63
g649
sg56
(lp665
g49
(g50
g51
NtRp666
(dp667
g54
(dp668
g62
I4
ssg63
g662
sg56
(lp669
g49
(g58
g51
NtRp670
(dp671
g54
(dp672
g62
I3
ssg63
Nsg56
(lp673
sbasbasbasbag49
(g65
g51
NtRp674
(dp675
g54
(dp676
sg63
g601
sg56
(lp677
g49
(g70
g51
NtRp678
(dp679
g54
(dp680
g74
g75
ssg63
g674
sg56
(lp681
S'cmd_options'
p682
asbag49
(g70
g51
NtRp683
(dp684
g54
(dp685
g81
g82
ssg63
g674
sg56
(lp686
S':'
asbag49
(g70
g51
NtRp687
(dp688
g54
(dp689
sg63
g674
sg56
(lp690
g49
(g50
g51
NtRp691
(dp692
g54
(dp693
g62
I4
ssg63
g687
sg56
(lp694
S"<Values at 0x309c300: {'verbose': False, 'ip': '127.0.0.1', 'shutdown_timeout': 5, 'taskbar': False, 'nocron': False, 'pid_filename': 'httpserver.pid', 'maxthreads': None, 'softcron': False, 'server_name': 'Pedro-PC', 'bpython': False, 'nogui': False, 'port': 8000, 'extcron': False, 'debuglevel': 30, 'test': None, 'folder': 'C:\\\\web2py', 'config': '', 'import_models': False, 'winservice': '', 'shell': None, 'run': '', 'log_filename': 'httpserver.log', 'args': [''], 'socket_timeout': 5, 'ssl_ca_certificate': None, 'scheduler': None, 'profiler_filename': None, 'ssl_private_key': '', 'password': '<ask>', 'request_queue_size': 5, 'ssl_certificate': '', 'cronjob': False, 'numthreads': None, 'quiet': False, 'interfaces': None, 'minthreads': None, 'timeout': 10, 'plain': False, 'nobanner': False}>"
p695
asbasbasbag49
(g65
g51
NtRp696
(dp697
g54
(dp698
sg63
g601
sg56
(lp699
g49
(g70
g51
NtRp700
(dp701
g54
(dp702
g74
g75
ssg63
g696
sg56
(lp703
S'db_sessions'
p704
asbag49
(g70
g51
NtRp705
(dp706
g54
(dp707
g81
g82
ssg63
g696
sg56
(lp708
S':'
asbag49
(g70
g51
NtRp709
(dp710
g54
(dp711
sg63
g696
sg56
(lp712
g49
(g50
g51
NtRp713
(dp714
g54
(dp715
g62
I4
ssg63
g709
sg56
(lp716
S'set([])'
p717
asbasbasbag49
(g65
g51
NtRp718
(dp719
g54
(dp720
sg63
g601
sg56
(lp721
g49
(g70
g51
NtRp722
(dp723
g54
(dp724
g74
g75
ssg63
g718
sg56
(lp725
S'debugging'
p726
asbag49
(g70
g51
NtRp727
(dp728
g54
(dp729
g81
g82
ssg63
g718
sg56
(lp730
S':'
asbag49
(g70
g51
NtRp731
(dp732
g54
(dp733
sg63
g718
sg56
(lp734
g49
(g50
g51
NtRp735
(dp736
g54
(dp737
g62
I4
ssg63
g731
sg56
(lp738
g92
asbasbasbag49
(g65
g51
NtRp739
(dp740
g54
(dp741
sg63
g601
sg56
(lp742
g49
(g70
g51
NtRp743
(dp744
g54
(dp745
g74
g75
ssg63
g739
sg56
(lp746
S'gluon_parent'
p747
asbag49
(g70
g51
NtRp748
(dp749
g54
(dp750
g81
g82
ssg63
g739
sg56
(lp751
S':'
asbag49
(g70
g51
NtRp752
(dp753
g54
(dp754
sg63
g739
sg56
(lp755
g49
(g50
g51
NtRp756
(dp757
g54
(dp758
g62
I4
ssg63
g752
sg56
(lp759
S'C:\\web2py'
p760
asbasbasbag49
(g65
g51
NtRp761
(dp762
g54
(dp763
sg63
g601
sg56
(lp764
g49
(g70
g51
NtRp765
(dp766
g54
(dp767
g74
g75
ssg63
g761
sg56
(lp768
S'http_accept'
p769
asbag49
(g70
g51
NtRp770
(dp771
g54
(dp772
g81
g82
ssg63
g761
sg56
(lp773
S':'
asbag49
(g70
g51
NtRp774
(dp775
g54
(dp776
sg63
g761
sg56
(lp777
g49
(g50
g51
NtRp778
(dp779
g54
(dp780
g62
I4
ssg63
g774
sg56
(lp781
S'text/html,application/xhtml+xml,application/xml;q=0.9,*/*;q=0.8'
p782
asbasbasbag49
(g65
g51
NtRp783
(dp784
g54
(dp785
sg63
g601
sg56
(lp786
g49
(g70
g51
NtRp787
(dp788
g54
(dp789
g74
g75
ssg63
g783
sg56
(lp790
S'http_accept_charset'
p791
asbag49
(g70
g51
NtRp792
(dp793
g54
(dp794
g81
g82
ssg63
g783
sg56
(lp795
S':'
asbag49
(g70
g51
NtRp796
(dp797
g54
(dp798
sg63
g783
sg56
(lp799
g49
(g50
g51
NtRp800
(dp801
g54
(dp802
g62
I4
ssg63
g796
sg56
(lp803
S'ISO-8859-1,utf-8;q=0.7,*;q=0.3'
p804
asbasbasbag49
(g65
g51
NtRp805
(dp806
g54
(dp807
sg63
g601
sg56
(lp808
g49
(g70
g51
NtRp809
(dp810
g54
(dp811
g74
g75
ssg63
g805
sg56
(lp812
S'http_accept_encoding'
p813
asbag49
(g70
g51
NtRp814
(dp815
g54
(dp816
g81
g82
ssg63
g805
sg56
(lp817
S':'
asbag49
(g70
g51
NtRp818
(dp819
g54
(dp820
sg63
g805
sg56
(lp821
g49
(g50
g51
NtRp822
(dp823
g54
(dp824
g62
I4
ssg63
g818
sg56
(lp825
S'gzip,deflate,sdch'
p826
asbasbasbag49
(g65
g51
NtRp827
(dp828
g54
(dp829
sg63
g601
sg56
(lp830
g49
(g70
g51
NtRp831
(dp832
g54
(dp833
g74
g75
ssg63
g827
sg56
(lp834
S'http_accept_language'
p835
asbag49
(g70
g51
NtRp836
(dp837
g54
(dp838
g81
g82
ssg63
g827
sg56
(lp839
S':'
asbag49
(g70
g51
NtRp840
(dp841
g54
(dp842
sg63
g827
sg56
(lp843
g49
(g50
g51
NtRp844
(dp845
g54
(dp846
g62
I4
ssg63
g840
sg56
(lp847
S'pt-BR,pt;q=0.8,en-US;q=0.6,en;q=0.4'
p848
asbasbasbag49
(g65
g51
NtRp849
(dp850
g54
(dp851
sg63
g601
sg56
(lp852
g49
(g70
g51
NtRp853
(dp854
g54
(dp855
g74
g75
ssg63
g849
sg56
(lp856
S'http_cache_control'
p857
asbag49
(g70
g51
NtRp858
(dp859
g54
(dp860
g81
g82
ssg63
g849
sg56
(lp861
S':'
asbag49
(g70
g51
NtRp862
(dp863
g54
(dp864
sg63
g849
sg56
(lp865
g49
(g50
g51
NtRp866
(dp867
g54
(dp868
g62
I4
ssg63
g862
sg56
(lp869
S'max-age=0'
p870
asbasbasbag49
(g65
g51
NtRp871
(dp872
g54
(dp873
sg63
g601
sg56
(lp874
g49
(g70
g51
NtRp875
(dp876
g54
(dp877
g74
g75
ssg63
g871
sg56
(lp878
S'http_connection'
p879
asbag49
(g70
g51
NtRp880
(dp881
g54
(dp882
g81
g82
ssg63
g871
sg56
(lp883
S':'
asbag49
(g70
g51
NtRp884
(dp885
g54
(dp886
sg63
g871
sg56
(lp887
g49
(g50
g51
NtRp888
(dp889
g54
(dp890
g62
I4
ssg63
g884
sg56
(lp891
S'keep-alive'
p892
asbasbasbag49
(g65
g51
NtRp893
(dp894
g54
(dp895
sg63
g601
sg56
(lp896
g49
(g70
g51
NtRp897
(dp898
g54
(dp899
g74
g75
ssg63
g893
sg56
(lp900
S'http_cookie'
p901
asbag49
(g70
g51
NtRp902
(dp903
g54
(dp904
g81
g82
ssg63
g893
sg56
(lp905
S':'
asbag49
(g70
g51
NtRp906
(dp907
g54
(dp908
sg63
g893
sg56
(lp909
g49
(g50
g51
NtRp910
(dp911
g54
(dp912
g62
I4
ssg63
g906
sg56
(lp913
S'session_id_unioeste_code=127.0.0.1-ac0e57bf-2a61-4ff7-b75a-c2e830b4787a; session_id_admin=127.0.0.1-5b5708ff-f236-440a-9e31-904908de9b24'
p914
asbasbasbag49
(g65
g51
NtRp915
(dp916
g54
(dp917
sg63
g601
sg56
(lp918
g49
(g70
g51
NtRp919
(dp920
g54
(dp921
g74
g75
ssg63
g915
sg56
(lp922
S'http_dnt'
p923
asbag49
(g70
g51
NtRp924
(dp925
g54
(dp926
g81
g82
ssg63
g915
sg56
(lp927
S':'
asbag49
(g70
g51
NtRp928
(dp929
g54
(dp930
sg63
g915
sg56
(lp931
g49
(g50
g51
NtRp932
(dp933
g54
(dp934
g62
I4
ssg63
g928
sg56
(lp935
S'1'
asbasbasbag49
(g65
g51
NtRp936
(dp937
g54
(dp938
sg63
g601
sg56
(lp939
g49
(g70
g51
NtRp940
(dp941
g54
(dp942
g74
g75
ssg63
g936
sg56
(lp943
S'http_host'
p944
asbag49
(g70
g51
NtRp945
(dp946
g54
(dp947
g81
g82
ssg63
g936
sg56
(lp948
S':'
asbag49
(g70
g51
NtRp949
(dp950
g54
(dp951
sg63
g936
sg56
(lp952
g49
(g50
g51
NtRp953
(dp954
g54
(dp955
g62
I4
ssg63
g949
sg56
(lp956
S'localhost:8000'
p957
asbasbasbag49
(g65
g51
NtRp958
(dp959
g54
(dp960
sg63
g601
sg56
(lp961
g49
(g70
g51
NtRp962
(dp963
g54
(dp964
g74
g75
ssg63
g958
sg56
(lp965
S'http_user_agent'
p966
asbag49
(g70
g51
NtRp967
(dp968
g54
(dp969
g81
g82
ssg63
g958
sg56
(lp970
S':'
asbag49
(g70
g51
NtRp971
(dp972
g54
(dp973
sg63
g958
sg56
(lp974
g49
(g50
g51
NtRp975
(dp976
g54
(dp977
g62
I4
ssg63
g971
sg56
(lp978
S'Mozilla/5.0 (Windows NT 6.1; WOW64) AppleWebKit/536.11 (KHTML, like Gecko) Chrome/20.0.1132.57 Safari/536.11'
p979
asbasbasbag49
(g65
g51
NtRp980
(dp981
g54
(dp982
sg63
g601
sg56
(lp983
g49
(g70
g51
NtRp984
(dp985
g54
(dp986
g74
g75
ssg63
g980
sg56
(lp987
S'is_jython'
p988
asbag49
(g70
g51
NtRp989
(dp990
g54
(dp991
g81
g82
ssg63
g980
sg56
(lp992
S':'
asbag49
(g70
g51
NtRp993
(dp994
g54
(dp995
sg63
g980
sg56
(lp996
g49
(g50
g51
NtRp997
(dp998
g54
(dp999
g62
I4
ssg63
g993
sg56
(lp1000
g92
asbasbasbag49
(g65
g51
NtRp1001
(dp1002
g54
(dp1003
sg63
g601
sg56
(lp1004
g49
(g70
g51
NtRp1005
(dp1006
g54
(dp1007
g74
g75
ssg63
g1001
sg56
(lp1008
S'is_pypy'
p1009
asbag49
(g70
g51
NtRp1010
(dp1011
g54
(dp1012
g81
g82
ssg63
g1001
sg56
(lp1013
S':'
asbag49
(g70
g51
NtRp1014
(dp1015
g54
(dp1016
sg63
g1001
sg56
(lp1017
g49
(g50
g51
NtRp1018
(dp1019
g54
(dp1020
g62
I4
ssg63
g1014
sg56
(lp1021
g92
asbasbasbag49
(g65
g51
NtRp1022
(dp1023
g54
(dp1024
sg63
g601
sg56
(lp1025
g49
(g70
g51
NtRp1026
(dp1027
g54
(dp1028
g74
g75
ssg63
g1022
sg56
(lp1029
S'path_info'
p1030
asbag49
(g70
g51
NtRp1031
(dp1032
g54
(dp1033
g81
g82
ssg63
g1022
sg56
(lp1034
S':'
asbag49
(g70
g51
NtRp1035
(dp1036
g54
(dp1037
sg63
g1022
sg56
(lp1038
g49
(g50
g51
NtRp1039
(dp1040
g54
(dp1041
g62
I4
ssg63
g1035
sg56
(lp1042
S'/unioeste_code/default/Problem/20'
p1043
asbasbasbag49
(g65
g51
NtRp1044
(dp1045
g54
(dp1046
sg63
g601
sg56
(lp1047
g49
(g70
g51
NtRp1048
(dp1049
g54
(dp1050
g74
g75
ssg63
g1044
sg56
(lp1051
S'query_string'
p1052
asbag49
(g70
g51
NtRp1053
(dp1054
g54
(dp1055
g81
g82
ssg63
g1044
sg56
(lp1056
S':'
asbag49
(g70
g51
NtRp1057
(dp1058
g54
(dp1059
sg63
g1044
sg56
(lp1060
g49
(g50
g51
NtRp1061
(dp1062
g54
(dp1063
g62
I4
ssg63
g1057
sg56
(lp1064
S''
asbasbasbag49
(g65
g51
NtRp1065
(dp1066
g54
(dp1067
sg63
g601
sg56
(lp1068
g49
(g70
g51
NtRp1069
(dp1070
g54
(dp1071
g74
g75
ssg63
g1065
sg56
(lp1072
S'remote_addr'
p1073
asbag49
(g70
g51
NtRp1074
(dp1075
g54
(dp1076
g81
g82
ssg63
g1065
sg56
(lp1077
S':'
asbag49
(g70
g51
NtRp1078
(dp1079
g54
(dp1080
sg63
g1065
sg56
(lp1081
g49
(g50
g51
NtRp1082
(dp1083
g54
(dp1084
g62
I4
ssg63
g1078
sg56
(lp1085
g195
asbasbasbag49
(g65
g51
NtRp1086
(dp1087
g54
(dp1088
sg63
g601
sg56
(lp1089
g49
(g70
g51
NtRp1090
(dp1091
g54
(dp1092
g74
g75
ssg63
g1086
sg56
(lp1093
S'remote_port'
p1094
asbag49
(g70
g51
NtRp1095
(dp1096
g54
(dp1097
g81
g82
ssg63
g1086
sg56
(lp1098
S':'
asbag49
(g70
g51
NtRp1099
(dp1100
g54
(dp1101
sg63
g1086
sg56
(lp1102
g49
(g50
g51
NtRp1103
(dp1104
g54
(dp1105
g62
I4
ssg63
g1099
sg56
(lp1106
S'1457'
p1107
asbasbasbag49
(g65
g51
NtRp1108
(dp1109
g54
(dp1110
sg63
g601
sg56
(lp1111
g49
(g70
g51
NtRp1112
(dp1113
g54
(dp1114
g74
g75
ssg63
g1108
sg56
(lp1115
S'request_method'
p1116
asbag49
(g70
g51
NtRp1117
(dp1118
g54
(dp1119
g81
g82
ssg63
g1108
sg56
(lp1120
S':'
asbag49
(g70
g51
NtRp1121
(dp1122
g54
(dp1123
sg63
g1108
sg56
(lp1124
g49
(g50
g51
NtRp1125
(dp1126
g54
(dp1127
g62
I4
ssg63
g1121
sg56
(lp1128
S'GET'
p1129
asbasbasbag49
(g65
g51
NtRp1130
(dp1131
g54
(dp1132
sg63
g601
sg56
(lp1133
g49
(g70
g51
NtRp1134
(dp1135
g54
(dp1136
g74
g75
ssg63
g1130
sg56
(lp1137
S'script_name'
p1138
asbag49
(g70
g51
NtRp1139
(dp1140
g54
(dp1141
g81
g82
ssg63
g1130
sg56
(lp1142
S':'
asbag49
(g70
g51
NtRp1143
(dp1144
g54
(dp1145
sg63
g1130
sg56
(lp1146
g49
(g50
g51
NtRp1147
(dp1148
g54
(dp1149
g62
I4
ssg63
g1143
sg56
(lp1150
S''
asbasbasbag49
(g65
g51
NtRp1151
(dp1152
g54
(dp1153
sg63
g601
sg56
(lp1154
g49
(g70
g51
NtRp1155
(dp1156
g54
(dp1157
g74
g75
ssg63
g1151
sg56
(lp1158
S'server_name'
p1159
asbag49
(g70
g51
NtRp1160
(dp1161
g54
(dp1162
g81
g82
ssg63
g1151
sg56
(lp1163
S':'
asbag49
(g70
g51
NtRp1164
(dp1165
g54
(dp1166
sg63
g1151
sg56
(lp1167
g49
(g50
g51
NtRp1168
(dp1169
g54
(dp1170
g62
I4
ssg63
g1164
sg56
(lp1171
S'Pedro-PC'
p1172
asbasbasbag49
(g65
g51
NtRp1173
(dp1174
g54
(dp1175
sg63
g601
sg56
(lp1176
g49
(g70
g51
NtRp1177
(dp1178
g54
(dp1179
g74
g75
ssg63
g1173
sg56
(lp1180
S'server_port'
p1181
asbag49
(g70
g51
NtRp1182
(dp1183
g54
(dp1184
g81
g82
ssg63
g1173
sg56
(lp1185
S':'
asbag49
(g70
g51
NtRp1186
(dp1187
g54
(dp1188
sg63
g1173
sg56
(lp1189
g49
(g50
g51
NtRp1190
(dp1191
g54
(dp1192
g62
I4
ssg63
g1186
sg56
(lp1193
S'8000'
p1194
asbasbasbag49
(g65
g51
NtRp1195
(dp1196
g54
(dp1197
sg63
g601
sg56
(lp1198
g49
(g70
g51
NtRp1199
(dp1200
g54
(dp1201
g74
g75
ssg63
g1195
sg56
(lp1202
S'server_protocol'
p1203
asbag49
(g70
g51
NtRp1204
(dp1205
g54
(dp1206
g81
g82
ssg63
g1195
sg56
(lp1207
S':'
asbag49
(g70
g51
NtRp1208
(dp1209
g54
(dp1210
sg63
g1195
sg56
(lp1211
g49
(g50
g51
NtRp1212
(dp1213
g54
(dp1214
g62
I4
ssg63
g1208
sg56
(lp1215
S'HTTP/1.1'
p1216
asbasbasbag49
(g65
g51
NtRp1217
(dp1218
g54
(dp1219
sg63
g601
sg56
(lp1220
g49
(g70
g51
NtRp1221
(dp1222
g54
(dp1223
g74
g75
ssg63
g1217
sg56
(lp1224
S'server_software'
p1225
asbag49
(g70
g51
NtRp1226
(dp1227
g54
(dp1228
g81
g82
ssg63
g1217
sg56
(lp1229
S':'
asbag49
(g70
g51
NtRp1230
(dp1231
g54
(dp1232
sg63
g1217
sg56
(lp1233
g49
(g50
g51
NtRp1234
(dp1235
g54
(dp1236
g62
I4
ssg63
g1230
sg56
(lp1237
S'Rocket 1.2.4'
p1238
asbasbasbag49
(g65
g51
NtRp1239
(dp1240
g54
(dp1241
sg63
g601
sg56
(lp1242
g49
(g70
g51
NtRp1243
(dp1244
g54
(dp1245
g74
g75
ssg63
g1239
sg56
(lp1246
S'web2py_crontype'
p1247
asbag49
(g70
g51
NtRp1248
(dp1249
g54
(dp1250
g81
g82
ssg63
g1239
sg56
(lp1251
S':'
asbag49
(g70
g51
NtRp1252
(dp1253
g54
(dp1254
sg63
g1239
sg56
(lp1255
g49
(g50
g51
NtRp1256
(dp1257
g54
(dp1258
g62
I4
ssg63
g1252
sg56
(lp1259
S'hard'
p1260
asbasbasbag49
(g65
g51
NtRp1261
(dp1262
g54
(dp1263
sg63
g601
sg56
(lp1264
g49
(g70
g51
NtRp1265
(dp1266
g54
(dp1267
g74
g75
ssg63
g1261
sg56
(lp1268
S'web2py_path'
p1269
asbag49
(g70
g51
NtRp1270
(dp1271
g54
(dp1272
g81
g82
ssg63
g1261
sg56
(lp1273
S':'
asbag49
(g70
g51
NtRp1274
(dp1275
g54
(dp1276
sg63
g1261
sg56
(lp1277
g49
(g50
g51
NtRp1278
(dp1279
g54
(dp1280
g62
I4
ssg63
g1274
sg56
(lp1281
g648
asbasbasbag49
(g65
g51
NtRp1282
(dp1283
g54
(dp1284
sg63
g601
sg56
(lp1285
g49
(g70
g51
NtRp1286
(dp1287
g54
(dp1288
g74
g75
ssg63
g1282
sg56
(lp1289
S'web2py_version'
p1290
asbag49
(g70
g51
NtRp1291
(dp1292
g54
(dp1293
g81
g82
ssg63
g1282
sg56
(lp1294
S':'
asbag49
(g70
g51
NtRp1295
(dp1296
g54
(dp1297
sg63
g1282
sg56
(lp1298
g49
(g50
g51
NtRp1299
(dp1300
g54
(dp1301
g62
I4
ssg63
g1295
sg56
(lp1302
g49
(g58
g51
NtRp1303
(dp1304
g54
(dp1305
g62
I3
ssg63
Nsg56
(lp1306
g49
(g65
g51
NtRp1307
(dp1308
g54
(dp1309
sg63
g1303
sg56
(lp1310
g49
(g70
g51
NtRp1311
(dp1312
g54
(dp1313
sg63
g1307
sg56
(lp1314
g49
(g50
g51
NtRp1315
(dp1316
g54
(dp1317
g62
I3
ssg63
g1311
sg56
(lp1318
S'1'
asbasbasbag49
(g65
g51
NtRp1319
(dp1320
g54
(dp1321
sg63
g1303
sg56
(lp1322
g49
(g70
g51
NtRp1323
(dp1324
g54
(dp1325
sg63
g1319
sg56
(lp1326
g49
(g50
g51
NtRp1327
(dp1328
g54
(dp1329
g62
I3
ssg63
g1323
sg56
(lp1330
S'99'
p1331
asbasbasbag49
(g65
g51
NtRp1332
(dp1333
g54
(dp1334
sg63
g1303
sg56
(lp1335
g49
(g70
g51
NtRp1336
(dp1337
g54
(dp1338
sg63
g1332
sg56
(lp1339
g49
(g50
g51
NtRp1340
(dp1341
g54
(dp1342
g62
I3
ssg63
g1336
sg56
(lp1343
S'7'
asbasbasbag49
(g65
g51
NtRp1344
(dp1345
g54
(dp1346
sg63
g1303
sg56
(lp1347
g49
(g70
g51
NtRp1348
(dp1349
g54
(dp1350
sg63
g1344
sg56
(lp1351
g49
(g50
g51
NtRp1352
(dp1353
g54
(dp1354
g62
I3
ssg63
g1348
sg56
(lp1355
S'datetime.datetime(2012, 3, 4, 22, 12, 8)'
p1356
asbasbasbag49
(g65
g51
NtRp1357
(dp1358
g54
(dp1359
sg63
g1303
sg56
(lp1360
g49
(g70
g51
NtRp1361
(dp1362
g54
(dp1363
sg63
g1357
sg56
(lp1364
g49
(g50
g51
NtRp1365
(dp1366
g54
(dp1367
g62
I3
ssg63
g1361
sg56
(lp1368
S'stable'
p1369
asbasbasbasbasbasbasbag49
(g65
g51
NtRp1370
(dp1371
g54
(dp1372
sg63
g601
sg56
(lp1373
g49
(g70
g51
NtRp1374
(dp1375
g54
(dp1376
g74
g75
ssg63
g1370
sg56
(lp1377
S'wsgi_errors'
p1378
asbag49
(g70
g51
NtRp1379
(dp1380
g54
(dp1381
g81
g82
ssg63
g1370
sg56
(lp1382
S':'
asbag49
(g70
g51
NtRp1383
(dp1384
g54
(dp1385
sg63
g1370
sg56
(lp1386
g49
(g50
g51
NtRp1387
(dp1388
g54
(dp1389
g62
I4
ssg63
g1383
sg56
(lp1390
S'<__main__.Stderr object at 0x00486670>'
p1391
asbasbasbag49
(g65
g51
NtRp1392
(dp1393
g54
(dp1394
sg63
g601
sg56
(lp1395
g49
(g70
g51
NtRp1396
(dp1397
g54
(dp1398
g74
g75
ssg63
g1392
sg56
(lp1399
S'wsgi_file_wrapper'
p1400
asbag49
(g70
g51
NtRp1401
(dp1402
g54
(dp1403
g81
g82
ssg63
g1392
sg56
(lp1404
S':'
asbag49
(g70
g51
NtRp1405
(dp1406
g54
(dp1407
sg63
g1392
sg56
(lp1408
g49
(g50
g51
NtRp1409
(dp1410
g54
(dp1411
g62
I4
ssg63
g1405
sg56
(lp1412
S'<class wsgiref.util.FileWrapper at 0x02E8DE10>'
p1413
asbasbasbag49
(g65
g51
NtRp1414
(dp1415
g54
(dp1416
sg63
g601
sg56
(lp1417
g49
(g70
g51
NtRp1418
(dp1419
g54
(dp1420
g74
g75
ssg63
g1414
sg56
(lp1421
S'wsgi_input'
p1422
asbag49
(g70
g51
NtRp1423
(dp1424
g54
(dp1425
g81
g82
ssg63
g1414
sg56
(lp1426
S':'
asbag49
(g70
g51
NtRp1427
(dp1428
g54
(dp1429
sg63
g1414
sg56
(lp1430
g49
(g50
g51
NtRp1431
(dp1432
g54
(dp1433
g62
I4
ssg63
g1427
sg56
(lp1434
S'<socket._fileobject object at 0x06705AF0>'
p1435
asbasbasbag49
(g65
g51
NtRp1436
(dp1437
g54
(dp1438
sg63
g601
sg56
(lp1439
g49
(g70
g51
NtRp1440
(dp1441
g54
(dp1442
g74
g75
ssg63
g1436
sg56
(lp1443
S'wsgi_multiprocess'
p1444
asbag49
(g70
g51
NtRp1445
(dp1446
g54
(dp1447
g81
g82
ssg63
g1436
sg56
(lp1448
S':'
asbag49
(g70
g51
NtRp1449
(dp1450
g54
(dp1451
sg63
g1436
sg56
(lp1452
g49
(g50
g51
NtRp1453
(dp1454
g54
(dp1455
g62
I4
ssg63
g1449
sg56
(lp1456
g92
asbasbasbag49
(g65
g51
NtRp1457
(dp1458
g54
(dp1459
sg63
g601
sg56
(lp1460
g49
(g70
g51
NtRp1461
(dp1462
g54
(dp1463
g74
g75
ssg63
g1457
sg56
(lp1464
S'wsgi_multithread'
p1465
asbag49
(g70
g51
NtRp1466
(dp1467
g54
(dp1468
g81
g82
ssg63
g1457
sg56
(lp1469
S':'
asbag49
(g70
g51
NtRp1470
(dp1471
g54
(dp1472
sg63
g1457
sg56
(lp1473
g49
(g50
g51
NtRp1474
(dp1475
g54
(dp1476
g62
I4
ssg63
g1470
sg56
(lp1477
S'True'
p1478
asbasbasbag49
(g65
g51
NtRp1479
(dp1480
g54
(dp1481
sg63
g601
sg56
(lp1482
g49
(g70
g51
NtRp1483
(dp1484
g54
(dp1485
g74
g75
ssg63
g1479
sg56
(lp1486
S'wsgi_run_once'
p1487
asbag49
(g70
g51
NtRp1488
(dp1489
g54
(dp1490
g81
g82
ssg63
g1479
sg56
(lp1491
S':'
asbag49
(g70
g51
NtRp1492
(dp1493
g54
(dp1494
sg63
g1479
sg56
(lp1495
g49
(g50
g51
NtRp1496
(dp1497
g54
(dp1498
g62
I4
ssg63
g1492
sg56
(lp1499
g92
asbasbasbag49
(g65
g51
NtRp1500
(dp1501
g54
(dp1502
sg63
g601
sg56
(lp1503
g49
(g70
g51
NtRp1504
(dp1505
g54
(dp1506
g74
g75
ssg63
g1500
sg56
(lp1507
S'wsgi_url_scheme'
p1508
asbag49
(g70
g51
NtRp1509
(dp1510
g54
(dp1511
g81
g82
ssg63
g1500
sg56
(lp1512
S':'
asbag49
(g70
g51
NtRp1513
(dp1514
g54
(dp1515
sg63
g1500
sg56
(lp1516
g49
(g50
g51
NtRp1517
(dp1518
g54
(dp1519
g62
I4
ssg63
g1513
sg56
(lp1520
S'http'
p1521
asbasbasbag49
(g65
g51
NtRp1522
(dp1523
g54
(dp1524
sg63
g601
sg56
(lp1525
g49
(g70
g51
NtRp1526
(dp1527
g54
(dp1528
g74
g75
ssg63
g1522
sg56
(lp1529
S'wsgi_version'
p1530
asbag49
(g70
g51
NtRp1531
(dp1532
g54
(dp1533
g81
g82
ssg63
g1522
sg56
(lp1534
S':'
asbag49
(g70
g51
NtRp1535
(dp1536
g54
(dp1537
sg63
g1522
sg56
(lp1538
g49
(g50
g51
NtRp1539
(dp1540
g54
(dp1541
g62
I4
ssg63
g1535
sg56
(lp1542
g49
(g58
g51
NtRp1543
(dp1544
g54
(dp1545
g62
I3
ssg63
Nsg56
(lp1546
g49
(g65
g51
NtRp1547
(dp1548
g54
(dp1549
sg63
g1543
sg56
(lp1550
g49
(g70
g51
NtRp1551
(dp1552
g54
(dp1553
sg63
g1547
sg56
(lp1554
g49
(g50
g51
NtRp1555
(dp1556
g54
(dp1557
g62
I3
ssg63
g1551
sg56
(lp1558
S'1'
asbasbasbag49
(g65
g51
NtRp1559
(dp1560
g54
(dp1561
sg63
g1543
sg56
(lp1562
g49
(g70
g51
NtRp1563
(dp1564
g54
(dp1565
sg63
g1559
sg56
(lp1566
g49
(g50
g51
NtRp1567
(dp1568
g54
(dp1569
g62
I3
ssg63
g1563
sg56
(lp1570
S'0'
asbasbasbasbasbasbasbasbasbasbasbag49
(g65
g51
NtRp1571
(dp1572
g54
(dp1573
sg63
g59
sg56
(lp1574
g49
(g70
g51
NtRp1575
(dp1576
g54
(dp1577
g74
g75
ssg63
g1571
sg56
(lp1578
S'extension'
p1579
asbag49
(g70
g51
NtRp1580
(dp1581
g54
(dp1582
g81
g82
ssg63
g1571
sg56
(lp1583
S':'
asbag49
(g70
g51
NtRp1584
(dp1585
g54
(dp1586
sg63
g1571
sg56
(lp1587
g49
(g50
g51
NtRp1588
(dp1589
g54
(dp1590
g62
I5
ssg63
g1584
sg56
(lp1591
S'html'
p1592
asbasbasbag49
(g65
g51
NtRp1593
(dp1594
g54
(dp1595
sg63
g59
sg56
(lp1596
g49
(g70
g51
NtRp1597
(dp1598
g54
(dp1599
g74
g75
ssg63
g1593
sg56
(lp1600
S'folder'
p1601
asbag49
(g70
g51
NtRp1602
(dp1603
g54
(dp1604
g81
g82
ssg63
g1593
sg56
(lp1605
S':'
asbag49
(g70
g51
NtRp1606
(dp1607
g54
(dp1608
sg63
g1593
sg56
(lp1609
g49
(g50
g51
NtRp1610
(dp1611
g54
(dp1612
g62
I5
ssg63
g1606
sg56
(lp1613
S'C:\\web2py\\applications\\unioeste_code\\'
p1614
asbasbasbag49
(g65
g51
NtRp1615
(dp1616
g54
(dp1617
sg63
g59
sg56
(lp1618
g49
(g70
g51
NtRp1619
(dp1620
g54
(dp1621
g74
g75
ssg63
g1615
sg56
(lp1622
S'function'
p1623
asbag49
(g70
g51
NtRp1624
(dp1625
g54
(dp1626
g81
g82
ssg63
g1615
sg56
(lp1627
S':'
asbag49
(g70
g51
NtRp1628
(dp1629
g54
(dp1630
sg63
g1615
sg56
(lp1631
g49
(g50
g51
NtRp1632
(dp1633
g54
(dp1634
g62
I5
ssg63
g1628
sg56
(lp1635
S'Problem'
p1636
asbasbasbag49
(g65
g51
NtRp1637
(dp1638
g54
(dp1639
sg63
g59
sg56
(lp1640
g49
(g70
g51
NtRp1641
(dp1642
g54
(dp1643
g74
g75
ssg63
g1637
sg56
(lp1644
S'get_vars'
p1645
asbag49
(g70
g51
NtRp1646
(dp1647
g54
(dp1648
g81
g82
ssg63
g1637
sg56
(lp1649
S':'
asbag49
(g70
g51
NtRp1650
(dp1651
g54
(dp1652
sg63
g1637
sg56
(lp1653
g49
(g50
g51
NtRp1654
(dp1655
g54
(dp1656
g62
I5
ssg63
g1650
sg56
(lp1657
g49
(g58
g51
NtRp1658
(dp1659
g54
(dp1660
g62
I4
ssg63
Nsg56
(lp1661
sbasbasbasbag49
(g65
g51
NtRp1662
(dp1663
g54
(dp1664
sg63
g59
sg56
(lp1665
g49
(g70
g51
NtRp1666
(dp1667
g54
(dp1668
g74
g75
ssg63
g1662
sg56
(lp1669
S'global_settings'
p1670
asbag49
(g70
g51
NtRp1671
(dp1672
g54
(dp1673
g81
g82
ssg63
g1662
sg56
(lp1674
S':'
asbag49
(g70
g51
NtRp1675
(dp1676
g54
(dp1677
sg63
g1662
sg56
(lp1678
g49
(g50
g51
NtRp1679
(dp1680
g54
(dp1681
g62
I5
ssg63
g1675
sg56
(lp1682
g49
(g58
g51
NtRp1683
(dp1684
g54
(dp1685
g62
I4
ssg63
Nsg56
(lp1686
g49
(g65
g51
NtRp1687
(dp1688
g54
(dp1689
sg63
g1683
sg56
(lp1690
g49
(g70
g51
NtRp1691
(dp1692
g54
(dp1693
g74
g75
ssg63
g1687
sg56
(lp1694
g613
asbag49
(g70
g51
NtRp1695
(dp1696
g54
(dp1697
g81
g82
ssg63
g1687
sg56
(lp1698
S':'
asbag49
(g70
g51
NtRp1699
(dp1700
g54
(dp1701
sg63
g1687
sg56
(lp1702
g49
(g50
g51
NtRp1703
(dp1704
g54
(dp1705
g62
I4
ssg63
g1699
sg56
(lp1706
S"set(['C:\\\\web2py\\\\applications\\\\admin\\\\', 'C:\\\\web2py\\\\applications\\\\welcome\\\\', 'C:\\\\web2py\\\\applications\\\\unioeste_code\\\\'])"
p1707
asbasbasbag49
(g65
g51
NtRp1708
(dp1709
g54
(dp1710
sg63
g1683
sg56
(lp1711
g49
(g70
g51
NtRp1712
(dp1713
g54
(dp1714
g74
g75
ssg63
g1708
sg56
(lp1715
g635
asbag49
(g70
g51
NtRp1716
(dp1717
g54
(dp1718
g81
g82
ssg63
g1708
sg56
(lp1719
S':'
asbag49
(g70
g51
NtRp1720
(dp1721
g54
(dp1722
sg63
g1708
sg56
(lp1723
g49
(g50
g51
NtRp1724
(dp1725
g54
(dp1726
g62
I4
ssg63
g1720
sg56
(lp1727
g648
asbasbasbag49
(g65
g51
NtRp1728
(dp1729
g54
(dp1730
sg63
g1683
sg56
(lp1731
g49
(g70
g51
NtRp1732
(dp1733
g54
(dp1734
g74
g75
ssg63
g1728
sg56
(lp1735
g657
asbag49
(g70
g51
NtRp1736
(dp1737
g54
(dp1738
g81
g82
ssg63
g1728
sg56
(lp1739
S':'
asbag49
(g70
g51
NtRp1740
(dp1741
g54
(dp1742
sg63
g1728
sg56
(lp1743
g49
(g50
g51
NtRp1744
(dp1745
g54
(dp1746
g62
I4
ssg63
g1740
sg56
(lp1747
g49
(g58
g51
NtRp1748
(dp1749
g54
(dp1750
g62
I3
ssg63
Nsg56
(lp1751
sbasbasbasbag49
(g65
g51
NtRp1752
(dp1753
g54
(dp1754
sg63
g1683
sg56
(lp1755
g49
(g70
g51
NtRp1756
(dp1757
g54
(dp1758
g74
g75
ssg63
g1752
sg56
(lp1759
g682
asbag49
(g70
g51
NtRp1760
(dp1761
g54
(dp1762
g81
g82
ssg63
g1752
sg56
(lp1763
S':'
asbag49
(g70
g51
NtRp1764
(dp1765
g54
(dp1766
sg63
g1752
sg56
(lp1767
g49
(g50
g51
NtRp1768
(dp1769
g54
(dp1770
g62
I4
ssg63
g1764
sg56
(lp1771
S"<Values at 0x309c300: {'verbose': False, 'ip': '127.0.0.1', 'shutdown_timeout': 5, 'taskbar': False, 'nocron': False, 'pid_filename': 'httpserver.pid', 'maxthreads': None, 'softcron': False, 'server_name': 'Pedro-PC', 'bpython': False, 'nogui': False, 'port': 8000, 'extcron': False, 'debuglevel': 30, 'test': None, 'folder': 'C:\\\\web2py', 'config': '', 'import_models': False, 'winservice': '', 'shell': None, 'run': '', 'log_filename': 'httpserver.log', 'args': [''], 'socket_timeout': 5, 'ssl_ca_certificate': None, 'scheduler': None, 'profiler_filename': None, 'ssl_private_key': '', 'password': '<ask>', 'request_queue_size': 5, 'ssl_certificate': '', 'cronjob': False, 'numthreads': None, 'quiet': False, 'interfaces': None, 'minthreads': None, 'timeout': 10, 'plain': False, 'nobanner': False}>"
p1772
asbasbasbag49
(g65
g51
NtRp1773
(dp1774
g54
(dp1775
sg63
g1683
sg56
(lp1776
g49
(g70
g51
NtRp1777
(dp1778
g54
(dp1779
g74
g75
ssg63
g1773
sg56
(lp1780
g704
asbag49
(g70
g51
NtRp1781
(dp1782
g54
(dp1783
g81
g82
ssg63
g1773
sg56
(lp1784
S':'
asbag49
(g70
g51
NtRp1785
(dp1786
g54
(dp1787
sg63
g1773
sg56
(lp1788
g49
(g50
g51
NtRp1789
(dp1790
g54
(dp1791
g62
I4
ssg63
g1785
sg56
(lp1792
S'set([])'
p1793
asbasbasbag49
(g65
g51
NtRp1794
(dp1795
g54
(dp1796
sg63
g1683
sg56
(lp1797
g49
(g70
g51
NtRp1798
(dp1799
g54
(dp1800
g74
g75
ssg63
g1794
sg56
(lp1801
g726
asbag49
(g70
g51
NtRp1802
(dp1803
g54
(dp1804
g81
g82
ssg63
g1794
sg56
(lp1805
S':'
asbag49
(g70
g51
NtRp1806
(dp1807
g54
(dp1808
sg63
g1794
sg56
(lp1809
g49
(g50
g51
NtRp1810
(dp1811
g54
(dp1812
g62
I4
ssg63
g1806
sg56
(lp1813
g92
asbasbasbag49
(g65
g51
NtRp1814
(dp1815
g54
(dp1816
sg63
g1683
sg56
(lp1817
g49
(g70
g51
NtRp1818
(dp1819
g54
(dp1820
g74
g75
ssg63
g1814
sg56
(lp1821
g747
asbag49
(g70
g51
NtRp1822
(dp1823
g54
(dp1824
g81
g82
ssg63
g1814
sg56
(lp1825
S':'
asbag49
(g70
g51
NtRp1826
(dp1827
g54
(dp1828
sg63
g1814
sg56
(lp1829
g49
(g50
g51
NtRp1830
(dp1831
g54
(dp1832
g62
I4
ssg63
g1826
sg56
(lp1833
g760
asbasbasbag49
(g65
g51
NtRp1834
(dp1835
g54
(dp1836
sg63
g1683
sg56
(lp1837
g49
(g70
g51
NtRp1838
(dp1839
g54
(dp1840
g74
g75
ssg63
g1834
sg56
(lp1841
g988
asbag49
(g70
g51
NtRp1842
(dp1843
g54
(dp1844
g81
g82
ssg63
g1834
sg56
(lp1845
S':'
asbag49
(g70
g51
NtRp1846
(dp1847
g54
(dp1848
sg63
g1834
sg56
(lp1849
g49
(g50
g51
NtRp1850
(dp1851
g54
(dp1852
g62
I4
ssg63
g1846
sg56
(lp1853
g92
asbasbasbag49
(g65
g51
NtRp1854
(dp1855
g54
(dp1856
sg63
g1683
sg56
(lp1857
g49
(g70
g51
NtRp1858
(dp1859
g54
(dp1860
g74
g75
ssg63
g1854
sg56
(lp1861
g1009
asbag49
(g70
g51
NtRp1862
(dp1863
g54
(dp1864
g81
g82
ssg63
g1854
sg56
(lp1865
S':'
asbag49
(g70
g51
NtRp1866
(dp1867
g54
(dp1868
sg63
g1854
sg56
(lp1869
g49
(g50
g51
NtRp1870
(dp1871
g54
(dp1872
g62
I4
ssg63
g1866
sg56
(lp1873
g92
asbasbasbag49
(g65
g51
NtRp1874
(dp1875
g54
(dp1876
sg63
g1683
sg56
(lp1877
g49
(g70
g51
NtRp1878
(dp1879
g54
(dp1880
g74
g75
ssg63
g1874
sg56
(lp1881
g1247
asbag49
(g70
g51
NtRp1882
(dp1883
g54
(dp1884
g81
g82
ssg63
g1874
sg56
(lp1885
S':'
asbag49
(g70
g51
NtRp1886
(dp1887
g54
(dp1888
sg63
g1874
sg56
(lp1889
g49
(g50
g51
NtRp1890
(dp1891
g54
(dp1892
g62
I4
ssg63
g1886
sg56
(lp1893
g1260
asbasbasbag49
(g65
g51
NtRp1894
(dp1895
g54
(dp1896
sg63
g1683
sg56
(lp1897
g49
(g70
g51
NtRp1898
(dp1899
g54
(dp1900
g74
g75
ssg63
g1894
sg56
(lp1901
g1290
asbag49
(g70
g51
NtRp1902
(dp1903
g54
(dp1904
g81
g82
ssg63
g1894
sg56
(lp1905
S':'
asbag49
(g70
g51
NtRp1906
(dp1907
g54
(dp1908
sg63
g1894
sg56
(lp1909
g49
(g50
g51
NtRp1910
(dp1911
g54
(dp1912
g62
I4
ssg63
g1906
sg56
(lp1913
g49
(g58
g51
NtRp1914
(dp1915
g54
(dp1916
g62
I3
ssg63
Nsg56
(lp1917
g49
(g65
g51
NtRp1918
(dp1919
g54
(dp1920
sg63
g1914
sg56
(lp1921
g49
(g70
g51
NtRp1922
(dp1923
g54
(dp1924
sg63
g1918
sg56
(lp1925
g49
(g50
g51
NtRp1926
(dp1927
g54
(dp1928
g62
I3
ssg63
g1922
sg56
(lp1929
S'1'
asbasbasbag49
(g65
g51
NtRp1930
(dp1931
g54
(dp1932
sg63
g1914
sg56
(lp1933
g49
(g70
g51
NtRp1934
(dp1935
g54
(dp1936
sg63
g1930
sg56
(lp1937
g49
(g50
g51
NtRp1938
(dp1939
g54
(dp1940
g62
I3
ssg63
g1934
sg56
(lp1941
S'99'
p1942
asbasbasbag49
(g65
g51
NtRp1943
(dp1944
g54
(dp1945
sg63
g1914
sg56
(lp1946
g49
(g70
g51
NtRp1947
(dp1948
g54
(dp1949
sg63
g1943
sg56
(lp1950
g49
(g50
g51
NtRp1951
(dp1952
g54
(dp1953
g62
I3
ssg63
g1947
sg56
(lp1954
S'7'
asbasbasbag49
(g65
g51
NtRp1955
(dp1956
g54
(dp1957
sg63
g1914
sg56
(lp1958
g49
(g70
g51
NtRp1959
(dp1960
g54
(dp1961
sg63
g1955
sg56
(lp1962
g49
(g50
g51
NtRp1963
(dp1964
g54
(dp1965
g62
I3
ssg63
g1959
sg56
(lp1966
S'datetime.datetime(2012, 3, 4, 22, 12, 8)'
p1967
asbasbasbag49
(g65
g51
NtRp1968
(dp1969
g54
(dp1970
sg63
g1914
sg56
(lp1971
g49
(g70
g51
NtRp1972
(dp1973
g54
(dp1974
sg63
g1968
sg56
(lp1975
g49
(g50
g51
NtRp1976
(dp1977
g54
(dp1978
g62
I3
ssg63
g1972
sg56
(lp1979
g1369
asbasbasbasbasbasbasbasbasbasbasbag49
(g65
g51
NtRp1980
(dp1981
g54
(dp1982
sg63
g59
sg56
(lp1983
g49
(g70
g51
NtRp1984
(dp1985
g54
(dp1986
g74
g75
ssg63
g1980
sg56
(lp1987
S'is_https'
p1988
asbag49
(g70
g51
NtRp1989
(dp1990
g54
(dp1991
g81
g82
ssg63
g1980
sg56
(lp1992
S':'
asbag49
(g70
g51
NtRp1993
(dp1994
g54
(dp1995
sg63
g1980
sg56
(lp1996
g49
(g50
g51
NtRp1997
(dp1998
g54
(dp1999
g62
I5
ssg63
g1993
sg56
(lp2000
g92
asbasbasbag49
(g65
g51
NtRp2001
(dp2002
g54
(dp2003
sg63
g59
sg56
(lp2004
g49
(g70
g51
NtRp2005
(dp2006
g54
(dp2007
g74
g75
ssg63
g2001
sg56
(lp2008
S'is_local'
p2009
asbag49
(g70
g51
NtRp2010
(dp2011
g54
(dp2012
g81
g82
ssg63
g2001
sg56
(lp2013
S':'
asbag49
(g70
g51
NtRp2014
(dp2015
g54
(dp2016
sg63
g2001
sg56
(lp2017
g49
(g50
g51
NtRp2018
(dp2019
g54
(dp2020
g62
I5
ssg63
g2014
sg56
(lp2021
g1478
asbasbasbag49
(g65
g51
NtRp2022
(dp2023
g54
(dp2024
sg63
g59
sg56
(lp2025
g49
(g70
g51
NtRp2026
(dp2027
g54
(dp2028
g74
g75
ssg63
g2022
sg56
(lp2029
S'is_restful'
p2030
asbag49
(g70
g51
NtRp2031
(dp2032
g54
(dp2033
g81
g82
ssg63
g2022
sg56
(lp2034
S':'
asbag49
(g70
g51
NtRp2035
(dp2036
g54
(dp2037
sg63
g2022
sg56
(lp2038
g49
(g50
g51
NtRp2039
(dp2040
g54
(dp2041
g62
I5
ssg63
g2035
sg56
(lp2042
g92
asbasbasbag49
(g65
g51
NtRp2043
(dp2044
g54
(dp2045
sg63
g59
sg56
(lp2046
g49
(g70
g51
NtRp2047
(dp2048
g54
(dp2049
g74
g75
ssg63
g2043
sg56
(lp2050
S'now'
p2051
asbag49
(g70
g51
NtRp2052
(dp2053
g54
(dp2054
g81
g82
ssg63
g2043
sg56
(lp2055
S':'
asbag49
(g70
g51
NtRp2056
(dp2057
g54
(dp2058
sg63
g2043
sg56
(lp2059
g49
(g50
g51
NtRp2060
(dp2061
g54
(dp2062
g62
I5
ssg63
g2056
sg56
(lp2063
S'datetime.datetime(2012, 7, 30, 1, 29, 47, 842000)'
p2064
asbasbasbag49
(g65
g51
NtRp2065
(dp2066
g54
(dp2067
sg63
g59
sg56
(lp2068
g49
(g70
g51
NtRp2069
(dp2070
g54
(dp2071
g74
g75
ssg63
g2065
sg56
(lp2072
S'post_vars'
p2073
asbag49
(g70
g51
NtRp2074
(dp2075
g54
(dp2076
g81
g82
ssg63
g2065
sg56
(lp2077
S':'
asbag49
(g70
g51
NtRp2078
(dp2079
g54
(dp2080
sg63
g2065
sg56
(lp2081
g49
(g50
g51
NtRp2082
(dp2083
g54
(dp2084
g62
I5
ssg63
g2078
sg56
(lp2085
g49
(g58
g51
NtRp2086
(dp2087
g54
(dp2088
g62
I4
ssg63
Nsg56
(lp2089
sbasbasbasbag49
(g65
g51
NtRp2090
(dp2091
g54
(dp2092
sg63
g59
sg56
(lp2093
g49
(g70
g51
NtRp2094
(dp2095
g54
(dp2096
g74
g75
ssg63
g2090
sg56
(lp2097
S'raw_args'
p2098
asbag49
(g70
g51
NtRp2099
(dp2100
g54
(dp2101
g81
g82
ssg63
g2090
sg56
(lp2102
S':'
asbag49
(g70
g51
NtRp2103
(dp2104
g54
(dp2105
sg63
g2090
sg56
(lp2106
g49
(g50
g51
NtRp2107
(dp2108
g54
(dp2109
g62
I5
ssg63
g2103
sg56
(lp2110
S'20'
p2111
asbasbasbag49
(g65
g51
NtRp2112
(dp2113
g54
(dp2114
sg63
g59
sg56
(lp2115
g49
(g70
g51
NtRp2116
(dp2117
g54
(dp2118
g74
g75
ssg63
g2112
sg56
(lp2119
S'url'
p2120
asbag49
(g70
g51
NtRp2121
(dp2122
g54
(dp2123
g81
g82
ssg63
g2112
sg56
(lp2124
S':'
asbag49
(g70
g51
NtRp2125
(dp2126
g54
(dp2127
sg63
g2112
sg56
(lp2128
g49
(g50
g51
NtRp2129
(dp2130
g54
(dp2131
g62
I5
ssg63
g2125
sg56
(lp2132
S'/unioeste_code/default/Problem/20'
p2133
asbasbasbag49
(g65
g51
NtRp2134
(dp2135
g54
(dp2136
sg63
g59
sg56
(lp2137
g49
(g70
g51
NtRp2138
(dp2139
g54
(dp2140
g74
g75
ssg63
g2134
sg56
(lp2141
S'utcnow'
p2142
asbag49
(g70
g51
NtRp2143
(dp2144
g54
(dp2145
g81
g82
ssg63
g2134
sg56
(lp2146
S':'
asbag49
(g70
g51
NtRp2147
(dp2148
g54
(dp2149
sg63
g2134
sg56
(lp2150
g49
(g50
g51
NtRp2151
(dp2152
g54
(dp2153
g62
I5
ssg63
g2147
sg56
(lp2154
S'datetime.datetime(2012, 7, 30, 4, 29, 47, 842000)'
p2155
asbasbasbag49
(g65
g51
NtRp2156
(dp2157
g54
(dp2158
sg63
g59
sg56
(lp2159
g49
(g70
g51
NtRp2160
(dp2161
g54
(dp2162
g74
g75
ssg63
g2156
sg56
(lp2163
S'uuid'
p2164
asbag49
(g70
g51
NtRp2165
(dp2166
g54
(dp2167
g81
g82
ssg63
g2156
sg56
(lp2168
S':'
asbag49
(g70
g51
NtRp2169
(dp2170
g54
(dp2171
sg63
g2156
sg56
(lp2172
g49
(g50
g51
NtRp2173
(dp2174
g54
(dp2175
g62
I5
ssg63
g2169
sg56
(lp2176
S'unioeste_code/127.0.0.1.2012-07-30.01-29-47.3b20916c-fd25-4b6a-a4e1-503666a98c20'
p2177
asbasbasbag49
(g65
g51
NtRp2178
(dp2179
g54
(dp2180
sg63
g59
sg56
(lp2181
g49
(g70
g51
NtRp2182
(dp2183
g54
(dp2184
g74
g75
ssg63
g2178
sg56
(lp2185
S'vars'
p2186
asbag49
(g70
g51
NtRp2187
(dp2188
g54
(dp2189
g81
g82
ssg63
g2178
sg56
(lp2190
S':'
asbag49
(g70
g51
NtRp2191
(dp2192
g54
(dp2193
sg63
g2178
sg56
(lp2194
g49
(g50
g51
NtRp2195
(dp2196
g54
(dp2197
g62
I5
ssg63
g2191
sg56
(lp2198
g49
(g58
g51
NtRp2199
(dp2200
g54
(dp2201
g62
I4
ssg63
Nsg56
(lp2202
sbasbasbasbag49
(g65
g51
NtRp2203
(dp2204
g54
(dp2205
sg63
g59
sg56
(lp2206
g49
(g70
g51
NtRp2207
(dp2208
g54
(dp2209
g74
g75
ssg63
g2203
sg56
(lp2210
S'wsgi'
p2211
asbag49
(g70
g51
NtRp2212
(dp2213
g54
(dp2214
g81
g82
ssg63
g2203
sg56
(lp2215
S':'
asbag49
(g70
g51
NtRp2216
(dp2217
g54
(dp2218
sg63
g2203
sg56
(lp2219
g49
(g50
g51
NtRp2220
(dp2221
g54
(dp2222
g62
I5
ssg63
g2216
sg56
(lp2223
g49
(g58
g51
NtRp2224
(dp2225
g54
(dp2226
g62
I4
ssg63
Nsg56
(lp2227
g49
(g65
g51
NtRp2228
(dp2229
g54
(dp2230
sg63
g2224
sg56
(lp2231
g49
(g70
g51
NtRp2232
(dp2233
g54
(dp2234
g74
g75
ssg63
g2228
sg56
(lp2235
S'environ'
p2236
asbag49
(g70
g51
NtRp2237
(dp2238
g54
(dp2239
g81
g82
ssg63
g2228
sg56
(lp2240
S':'
asbag49
(g70
g51
NtRp2241
(dp2242
g54
(dp2243
sg63
g2228
sg56
(lp2244
g49
(g50
g51
NtRp2245
(dp2246
g54
(dp2247
g62
I4
ssg63
g2241
sg56
(lp2248
g49
(g58
g51
NtRp2249
(dp2250
g54
(dp2251
g62
I3
ssg63
Nsg56
(lp2252
g49
(g65
g51
NtRp2253
(dp2254
g54
(dp2255
sg63
g2249
sg56
(lp2256
g49
(g70
g51
NtRp2257
(dp2258
g54
(dp2259
g74
g75
ssg63
g2253
sg56
(lp2260
S'HTTP_ACCEPT'
p2261
asbag49
(g70
g51
NtRp2262
(dp2263
g54
(dp2264
g81
g82
ssg63
g2253
sg56
(lp2265
S':'
asbag49
(g70
g51
NtRp2266
(dp2267
g54
(dp2268
sg63
g2253
sg56
(lp2269
g49
(g50
g51
NtRp2270
(dp2271
g54
(dp2272
g62
I3
ssg63
g2266
sg56
(lp2273
g782
asbasbasbag49
(g65
g51
NtRp2274
(dp2275
g54
(dp2276
sg63
g2249
sg56
(lp2277
g49
(g70
g51
NtRp2278
(dp2279
g54
(dp2280
g74
g75
ssg63
g2274
sg56
(lp2281
S'HTTP_ACCEPT_CHARSET'
p2282
asbag49
(g70
g51
NtRp2283
(dp2284
g54
(dp2285
g81
g82
ssg63
g2274
sg56
(lp2286
S':'
asbag49
(g70
g51
NtRp2287
(dp2288
g54
(dp2289
sg63
g2274
sg56
(lp2290
g49
(g50
g51
NtRp2291
(dp2292
g54
(dp2293
g62
I3
ssg63
g2287
sg56
(lp2294
g804
asbasbasbag49
(g65
g51
NtRp2295
(dp2296
g54
(dp2297
sg63
g2249
sg56
(lp2298
g49
(g70
g51
NtRp2299
(dp2300
g54
(dp2301
g74
g75
ssg63
g2295
sg56
(lp2302
S'HTTP_ACCEPT_ENCODING'
p2303
asbag49
(g70
g51
NtRp2304
(dp2305
g54
(dp2306
g81
g82
ssg63
g2295
sg56
(lp2307
S':'
asbag49
(g70
g51
NtRp2308
(dp2309
g54
(dp2310
sg63
g2295
sg56
(lp2311
g49
(g50
g51
NtRp2312
(dp2313
g54
(dp2314
g62
I3
ssg63
g2308
sg56
(lp2315
g826
asbasbasbag49
(g65
g51
NtRp2316
(dp2317
g54
(dp2318
sg63
g2249
sg56
(lp2319
g49
(g70
g51
NtRp2320
(dp2321
g54
(dp2322
g74
g75
ssg63
g2316
sg56
(lp2323
S'HTTP_ACCEPT_LANGUAGE'
p2324
asbag49
(g70
g51
NtRp2325
(dp2326
g54
(dp2327
g81
g82
ssg63
g2316
sg56
(lp2328
S':'
asbag49
(g70
g51
NtRp2329
(dp2330
g54
(dp2331
sg63
g2316
sg56
(lp2332
g49
(g50
g51
NtRp2333
(dp2334
g54
(dp2335
g62
I3
ssg63
g2329
sg56
(lp2336
g848
asbasbasbag49
(g65
g51
NtRp2337
(dp2338
g54
(dp2339
sg63
g2249
sg56
(lp2340
g49
(g70
g51
NtRp2341
(dp2342
g54
(dp2343
g74
g75
ssg63
g2337
sg56
(lp2344
S'HTTP_CACHE_CONTROL'
p2345
asbag49
(g70
g51
NtRp2346
(dp2347
g54
(dp2348
g81
g82
ssg63
g2337
sg56
(lp2349
S':'
asbag49
(g70
g51
NtRp2350
(dp2351
g54
(dp2352
sg63
g2337
sg56
(lp2353
g49
(g50
g51
NtRp2354
(dp2355
g54
(dp2356
g62
I3
ssg63
g2350
sg56
(lp2357
g870
asbasbasbag49
(g65
g51
NtRp2358
(dp2359
g54
(dp2360
sg63
g2249
sg56
(lp2361
g49
(g70
g51
NtRp2362
(dp2363
g54
(dp2364
g74
g75
ssg63
g2358
sg56
(lp2365
S'HTTP_CONNECTION'
p2366
asbag49
(g70
g51
NtRp2367
(dp2368
g54
(dp2369
g81
g82
ssg63
g2358
sg56
(lp2370
S':'
asbag49
(g70
g51
NtRp2371
(dp2372
g54
(dp2373
sg63
g2358
sg56
(lp2374
g49
(g50
g51
NtRp2375
(dp2376
g54
(dp2377
g62
I3
ssg63
g2371
sg56
(lp2378
g892
asbasbasbag49
(g65
g51
NtRp2379
(dp2380
g54
(dp2381
sg63
g2249
sg56
(lp2382
g49
(g70
g51
NtRp2383
(dp2384
g54
(dp2385
g74
g75
ssg63
g2379
sg56
(lp2386
S'HTTP_COOKIE'
p2387
asbag49
(g70
g51
NtRp2388
(dp2389
g54
(dp2390
g81
g82
ssg63
g2379
sg56
(lp2391
S':'
asbag49
(g70
g51
NtRp2392
(dp2393
g54
(dp2394
sg63
g2379
sg56
(lp2395
g49
(g50
g51
NtRp2396
(dp2397
g54
(dp2398
g62
I3
ssg63
g2392
sg56
(lp2399
g914
asbasbasbag49
(g65
g51
NtRp2400
(dp2401
g54
(dp2402
sg63
g2249
sg56
(lp2403
g49
(g70
g51
NtRp2404
(dp2405
g54
(dp2406
g74
g75
ssg63
g2400
sg56
(lp2407
S'HTTP_DNT'
p2408
asbag49
(g70
g51
NtRp2409
(dp2410
g54
(dp2411
g81
g82
ssg63
g2400
sg56
(lp2412
S':'
asbag49
(g70
g51
NtRp2413
(dp2414
g54
(dp2415
sg63
g2400
sg56
(lp2416
g49
(g50
g51
NtRp2417
(dp2418
g54
(dp2419
g62
I3
ssg63
g2413
sg56
(lp2420
S'1'
asbasbasbag49
(g65
g51
NtRp2421
(dp2422
g54
(dp2423
sg63
g2249
sg56
(lp2424
g49
(g70
g51
NtRp2425
(dp2426
g54
(dp2427
g74
g75
ssg63
g2421
sg56
(lp2428
S'HTTP_HOST'
p2429
asbag49
(g70
g51
NtRp2430
(dp2431
g54
(dp2432
g81
g82
ssg63
g2421
sg56
(lp2433
S':'
asbag49
(g70
g51
NtRp2434
(dp2435
g54
(dp2436
sg63
g2421
sg56
(lp2437
g49
(g50
g51
NtRp2438
(dp2439
g54
(dp2440
g62
I3
ssg63
g2434
sg56
(lp2441
g957
asbasbasbag49
(g65
g51
NtRp2442
(dp2443
g54
(dp2444
sg63
g2249
sg56
(lp2445
g49
(g70
g51
NtRp2446
(dp2447
g54
(dp2448
g74
g75
ssg63
g2442
sg56
(lp2449
S'HTTP_USER_AGENT'
p2450
asbag49
(g70
g51
NtRp2451
(dp2452
g54
(dp2453
g81
g82
ssg63
g2442
sg56
(lp2454
S':'
asbag49
(g70
g51
NtRp2455
(dp2456
g54
(dp2457
sg63
g2442
sg56
(lp2458
g49
(g50
g51
NtRp2459
(dp2460
g54
(dp2461
g62
I3
ssg63
g2455
sg56
(lp2462
g979
asbasbasbag49
(g65
g51
NtRp2463
(dp2464
g54
(dp2465
sg63
g2249
sg56
(lp2466
g49
(g70
g51
NtRp2467
(dp2468
g54
(dp2469
g74
g75
ssg63
g2463
sg56
(lp2470
S'PATH_INFO'
p2471
asbag49
(g70
g51
NtRp2472
(dp2473
g54
(dp2474
g81
g82
ssg63
g2463
sg56
(lp2475
S':'
asbag49
(g70
g51
NtRp2476
(dp2477
g54
(dp2478
sg63
g2463
sg56
(lp2479
g49
(g50
g51
NtRp2480
(dp2481
g54
(dp2482
g62
I3
ssg63
g2476
sg56
(lp2483
g1043
asbasbasbag49
(g65
g51
NtRp2484
(dp2485
g54
(dp2486
sg63
g2249
sg56
(lp2487
g49
(g70
g51
NtRp2488
(dp2489
g54
(dp2490
g74
g75
ssg63
g2484
sg56
(lp2491
S'QUERY_STRING'
p2492
asbag49
(g70
g51
NtRp2493
(dp2494
g54
(dp2495
g81
g82
ssg63
g2484
sg56
(lp2496
S':'
asbag49
(g70
g51
NtRp2497
(dp2498
g54
(dp2499
sg63
g2484
sg56
(lp2500
g49
(g50
g51
NtRp2501
(dp2502
g54
(dp2503
g62
I3
ssg63
g2497
sg56
(lp2504
S''
asbasbasbag49
(g65
g51
NtRp2505
(dp2506
g54
(dp2507
sg63
g2249
sg56
(lp2508
g49
(g70
g51
NtRp2509
(dp2510
g54
(dp2511
g74
g75
ssg63
g2505
sg56
(lp2512
S'REMOTE_ADDR'
p2513
asbag49
(g70
g51
NtRp2514
(dp2515
g54
(dp2516
g81
g82
ssg63
g2505
sg56
(lp2517
S':'
asbag49
(g70
g51
NtRp2518
(dp2519
g54
(dp2520
sg63
g2505
sg56
(lp2521
g49
(g50
g51
NtRp2522
(dp2523
g54
(dp2524
g62
I3
ssg63
g2518
sg56
(lp2525
g195
asbasbasbag49
(g65
g51
NtRp2526
(dp2527
g54
(dp2528
sg63
g2249
sg56
(lp2529
g49
(g70
g51
NtRp2530
(dp2531
g54
(dp2532
g74
g75
ssg63
g2526
sg56
(lp2533
S'REMOTE_PORT'
p2534
asbag49
(g70
g51
NtRp2535
(dp2536
g54
(dp2537
g81
g82
ssg63
g2526
sg56
(lp2538
S':'
asbag49
(g70
g51
NtRp2539
(dp2540
g54
(dp2541
sg63
g2526
sg56
(lp2542
g49
(g50
g51
NtRp2543
(dp2544
g54
(dp2545
g62
I3
ssg63
g2539
sg56
(lp2546
g1107
asbasbasbag49
(g65
g51
NtRp2547
(dp2548
g54
(dp2549
sg63
g2249
sg56
(lp2550
g49
(g70
g51
NtRp2551
(dp2552
g54
(dp2553
g74
g75
ssg63
g2547
sg56
(lp2554
S'REQUEST_METHOD'
p2555
asbag49
(g70
g51
NtRp2556
(dp2557
g54
(dp2558
g81
g82
ssg63
g2547
sg56
(lp2559
S':'
asbag49
(g70
g51
NtRp2560
(dp2561
g54
(dp2562
sg63
g2547
sg56
(lp2563
g49
(g50
g51
NtRp2564
(dp2565
g54
(dp2566
g62
I3
ssg63
g2560
sg56
(lp2567
g1129
asbasbasbag49
(g65
g51
NtRp2568
(dp2569
g54
(dp2570
sg63
g2249
sg56
(lp2571
g49
(g70
g51
NtRp2572
(dp2573
g54
(dp2574
g74
g75
ssg63
g2568
sg56
(lp2575
S'SCRIPT_NAME'
p2576
asbag49
(g70
g51
NtRp2577
(dp2578
g54
(dp2579
g81
g82
ssg63
g2568
sg56
(lp2580
S':'
asbag49
(g70
g51
NtRp2581
(dp2582
g54
(dp2583
sg63
g2568
sg56
(lp2584
g49
(g50
g51
NtRp2585
(dp2586
g54
(dp2587
g62
I3
ssg63
g2581
sg56
(lp2588
S''
asbasbasbag49
(g65
g51
NtRp2589
(dp2590
g54
(dp2591
sg63
g2249
sg56
(lp2592
g49
(g70
g51
NtRp2593
(dp2594
g54
(dp2595
g74
g75
ssg63
g2589
sg56
(lp2596
S'SERVER_NAME'
p2597
asbag49
(g70
g51
NtRp2598
(dp2599
g54
(dp2600
g81
g82
ssg63
g2589
sg56
(lp2601
S':'
asbag49
(g70
g51
NtRp2602
(dp2603
g54
(dp2604
sg63
g2589
sg56
(lp2605
g49
(g50
g51
NtRp2606
(dp2607
g54
(dp2608
g62
I3
ssg63
g2602
sg56
(lp2609
g1172
asbasbasbag49
(g65
g51
NtRp2610
(dp2611
g54
(dp2612
sg63
g2249
sg56
(lp2613
g49
(g70
g51
NtRp2614
(dp2615
g54
(dp2616
g74
g75
ssg63
g2610
sg56
(lp2617
S'SERVER_PORT'
p2618
asbag49
(g70
g51
NtRp2619
(dp2620
g54
(dp2621
g81
g82
ssg63
g2610
sg56
(lp2622
S':'
asbag49
(g70
g51
NtRp2623
(dp2624
g54
(dp2625
sg63
g2610
sg56
(lp2626
g49
(g50
g51
NtRp2627
(dp2628
g54
(dp2629
g62
I3
ssg63
g2623
sg56
(lp2630
g1194
asbasbasbag49
(g65
g51
NtRp2631
(dp2632
g54
(dp2633
sg63
g2249
sg56
(lp2634
g49
(g70
g51
NtRp2635
(dp2636
g54
(dp2637
g74
g75
ssg63
g2631
sg56
(lp2638
S'SERVER_PROTOCOL'
p2639
asbag49
(g70
g51
NtRp2640
(dp2641
g54
(dp2642
g81
g82
ssg63
g2631
sg56
(lp2643
S':'
asbag49
(g70
g51
NtRp2644
(dp2645
g54
(dp2646
sg63
g2631
sg56
(lp2647
g49
(g50
g51
NtRp2648
(dp2649
g54
(dp2650
g62
I3
ssg63
g2644
sg56
(lp2651
g1216
asbasbasbag49
(g65
g51
NtRp2652
(dp2653
g54
(dp2654
sg63
g2249
sg56
(lp2655
g49
(g70
g51
NtRp2656
(dp2657
g54
(dp2658
g74
g75
ssg63
g2652
sg56
(lp2659
S'SERVER_SOFTWARE'
p2660
asbag49
(g70
g51
NtRp2661
(dp2662
g54
(dp2663
g81
g82
ssg63
g2652
sg56
(lp2664
S':'
asbag49
(g70
g51
NtRp2665
(dp2666
g54
(dp2667
sg63
g2652
sg56
(lp2668
g49
(g50
g51
NtRp2669
(dp2670
g54
(dp2671
g62
I3
ssg63
g2665
sg56
(lp2672
g1238
asbasbasbag49
(g65
g51
NtRp2673
(dp2674
g54
(dp2675
sg63
g2249
sg56
(lp2676
g49
(g70
g51
NtRp2677
(dp2678
g54
(dp2679
g74
g75
ssg63
g2673
sg56
(lp2680
S'wsgi.errors'
p2681
asbag49
(g70
g51
NtRp2682
(dp2683
g54
(dp2684
g81
g82
ssg63
g2673
sg56
(lp2685
S':'
asbag49
(g70
g51
NtRp2686
(dp2687
g54
(dp2688
sg63
g2673
sg56
(lp2689
g49
(g50
g51
NtRp2690
(dp2691
g54
(dp2692
g62
I3
ssg63
g2686
sg56
(lp2693
S'<__main__.Stderr object at 0x00486670>'
p2694
asbasbasbag49
(g65
g51
NtRp2695
(dp2696
g54
(dp2697
sg63
g2249
sg56
(lp2698
g49
(g70
g51
NtRp2699
(dp2700
g54
(dp2701
g74
g75
ssg63
g2695
sg56
(lp2702
S'wsgi.file_wrapper'
p2703
asbag49
(g70
g51
NtRp2704
(dp2705
g54
(dp2706
g81
g82
ssg63
g2695
sg56
(lp2707
S':'
asbag49
(g70
g51
NtRp2708
(dp2709
g54
(dp2710
sg63
g2695
sg56
(lp2711
g49
(g50
g51
NtRp2712
(dp2713
g54
(dp2714
g62
I3
ssg63
g2708
sg56
(lp2715
S'<class wsgiref.util.FileWrapper at 0x02E8DE10>'
p2716
asbasbasbag49
(g65
g51
NtRp2717
(dp2718
g54
(dp2719
sg63
g2249
sg56
(lp2720
g49
(g70
g51
NtRp2721
(dp2722
g54
(dp2723
g74
g75
ssg63
g2717
sg56
(lp2724
S'wsgi.input'
p2725
asbag49
(g70
g51
NtRp2726
(dp2727
g54
(dp2728
g81
g82
ssg63
g2717
sg56
(lp2729
S':'
asbag49
(g70
g51
NtRp2730
(dp2731
g54
(dp2732
sg63
g2717
sg56
(lp2733
g49
(g50
g51
NtRp2734
(dp2735
g54
(dp2736
g62
I3
ssg63
g2730
sg56
(lp2737
S'<cStringIO.StringO object at 0x06065900>'
p2738
asbasbasbag49
(g65
g51
NtRp2739
(dp2740
g54
(dp2741
sg63
g2249
sg56
(lp2742
g49
(g70
g51
NtRp2743
(dp2744
g54
(dp2745
g74
g75
ssg63
g2739
sg56
(lp2746
S'wsgi.multiprocess'
p2747
asbag49
(g70
g51
NtRp2748
(dp2749
g54
(dp2750
g81
g82
ssg63
g2739
sg56
(lp2751
S':'
asbag49
(g70
g51
NtRp2752
(dp2753
g54
(dp2754
sg63
g2739
sg56
(lp2755
g49
(g50
g51
NtRp2756
(dp2757
g54
(dp2758
g62
I3
ssg63
g2752
sg56
(lp2759
g92
asbasbasbag49
(g65
g51
NtRp2760
(dp2761
g54
(dp2762
sg63
g2249
sg56
(lp2763
g49
(g70
g51
NtRp2764
(dp2765
g54
(dp2766
g74
g75
ssg63
g2760
sg56
(lp2767
S'wsgi.multithread'
p2768
asbag49
(g70
g51
NtRp2769
(dp2770
g54
(dp2771
g81
g82
ssg63
g2760
sg56
(lp2772
S':'
asbag49
(g70
g51
NtRp2773
(dp2774
g54
(dp2775
sg63
g2760
sg56
(lp2776
g49
(g50
g51
NtRp2777
(dp2778
g54
(dp2779
g62
I3
ssg63
g2773
sg56
(lp2780
g1478
asbasbasbag49
(g65
g51
NtRp2781
(dp2782
g54
(dp2783
sg63
g2249
sg56
(lp2784
g49
(g70
g51
NtRp2785
(dp2786
g54
(dp2787
g74
g75
ssg63
g2781
sg56
(lp2788
S'wsgi.run_once'
p2789
asbag49
(g70
g51
NtRp2790
(dp2791
g54
(dp2792
g81
g82
ssg63
g2781
sg56
(lp2793
S':'
asbag49
(g70
g51
NtRp2794
(dp2795
g54
(dp2796
sg63
g2781
sg56
(lp2797
g49
(g50
g51
NtRp2798
(dp2799
g54
(dp2800
g62
I3
ssg63
g2794
sg56
(lp2801
g92
asbasbasbag49
(g65
g51
NtRp2802
(dp2803
g54
(dp2804
sg63
g2249
sg56
(lp2805
g49
(g70
g51
NtRp2806
(dp2807
g54
(dp2808
g74
g75
ssg63
g2802
sg56
(lp2809
S'wsgi.url_scheme'
p2810
asbag49
(g70
g51
NtRp2811
(dp2812
g54
(dp2813
g81
g82
ssg63
g2802
sg56
(lp2814
S':'
asbag49
(g70
g51
NtRp2815
(dp2816
g54
(dp2817
sg63
g2802
sg56
(lp2818
g49
(g50
g51
NtRp2819
(dp2820
g54
(dp2821
g62
I3
ssg63
g2815
sg56
(lp2822
g1521
asbasbasbag49
(g65
g51
NtRp2823
(dp2824
g54
(dp2825
sg63
g2249
sg56
(lp2826
g49
(g70
g51
NtRp2827
(dp2828
g54
(dp2829
g74
g75
ssg63
g2823
sg56
(lp2830
S'wsgi.version'
p2831
asbag49
(g70
g51
NtRp2832
(dp2833
g54
(dp2834
g81
g82
ssg63
g2823
sg56
(lp2835
S':'
asbag49
(g70
g51
NtRp2836
(dp2837
g54
(dp2838
sg63
g2823
sg56
(lp2839
g49
(g50
g51
NtRp2840
(dp2841
g54
(dp2842
g62
I3
ssg63
g2836
sg56
(lp2843
S'1'
asbasbasbasbasbasbasbasbasbasbasbasbasbsS'frames'
p2844
(lp2845
(dp2846
S'file'
p2847
S'C:\\web2py\\gluon\\restricted.py'
p2848
sS'dump'
p2849
(dp2850
sS'lnum'
p2851
I205
sS'lines'
p2852
(dp2853
sS'call'
p2854
S"(code='# -*- coding: utf-8 -*-\\n# this file is released ...ud())\\n\\n\\nresponse._vars=response._caller(Problem)\\n', environment={'A': <class 'gluon.html.A'>, 'Auth': <class 'gluon.tools.Auth'>, 'B': <class 'gluon.html.B'>, 'BEAUTIFY': <class 'gluon.html.BEAUTIFY'>, 'BODY': <class 'gluon.html.BODY'>, 'BR': <class 'gluon.html.BR'>, 'BUTTON': <class 'gluon.html.BUTTON'>, 'CAT': <class 'gluon.html.CAT'>, 'CENTER': <class 'gluon.html.CENTER'>, 'CLEANUP': <class 'gluon.validators.CLEANUP'>, ...}, layer=r'C:\\web2py\\applications\\unioeste_code\\controllers/default.py')"
p2855
sS'func'
p2856
S'restricted'
p2857
sa(dp2858
g2847
S'C:\\web2py\\applications\\unioeste_code\\controllers\\default.py'
p2859
sg2849
(dp2860
sg2851
I93
sg2852
(dp2861
I82
S'    http://..../[app]/default/data/delete/[table]/[id]'
p2862
sI83
S'    http://..../[app]/default/data/select/[table]'
p2863
sI84
S'    http://..../[app]/default/data/search/[table]'
p2864
sI85
S'    but URLs must be signed, i.e. linked with'
p2865
sI86
S"      A('table',_href=URL('data/tables',user_signature=True))"
p2866
sI87
S'    or with the signed load operator'
p2867
sI88
S"      LOAD('default','data.load',args='tables',ajax=True,user_signature=True)"
p2868
sI89
S'    """'
p2869
sI90
S'    return dict(form=crud())'
p2870
sI91
S''
ssg2854
S'()'
p2871
sg2856
S'<module>'
p2872
sa(dp2873
g2847
S'C:\\web2py\\gluon\\globals.py'
p2874
sg2849
(dp2875
sg2851
I173
sg2852
(dp2876
sg2854
S'(f=<function Problem at 0x06AE3230>)'
p2877
sg2856
S'<lambda>'
p2878
sa(dp2879
g2847
S'C:\\web2py\\gluon\\tools.py'
p2880
sg2849
(dp2881
sg2851
I2575
sg2852
(dp2882
sg2854
S'(*a=(), **b={})'
p2883
sg2856
S'f'
sa(dp2884
g2847
S'C:\\web2py\\applications\\unioeste_code\\controllers\\default.py'
p2885
sg2849
(dp2886
sg2851
I19
sg2852
(dp2887
I14
S'    return dict(problems=problems)'
p2888
sI15
S''
sI16
S'@auth.requires_login()'
p2889
sI17
S'def Problem():'
p2890
sI18
S'    problem = db(db.problem.id==request.args(0)).select().first()'
p2891
sI19
S'    db.code.problem_id.default = problem.id'
p2892
sI20
S'    form = SQLFORM(db.code)'
p2893
sI21
S'    if form.process().accepted:'
p2894
sI22
S"        response.flash = T('Your code has been posted')"
p2895
sI23
S'    codes = db(db.code.problem_id == problem.id).select()'
p2896
ssg2854
S'()'
p2897
sg2856
S'Problem'
p2898
sasS'pyver'
p2899
S'Python 2.5.4: C:\\web2py\\web2py_no_console.exe'
p2900
sS'session'
p2901
g49
(g50
g51
NtRp2902
(dp2903
g54
(dp2904
sg56
(lp2905
g49
(g58
g51
NtRp2906
(dp2907
g54
(dp2908
g62
I5
ssg63
Nsg56
(lp2909
g49
(g65
g51
NtRp2910
(dp2911
g54
(dp2912
sg63
g2906
sg56
(lp2913
g49
(g70
g51
NtRp2914
(dp2915
g54
(dp2916
g74
g75
ssg63
g2910
sg56
(lp2917
S'auth'
p2918
asbag49
(g70
g51
NtRp2919
(dp2920
g54
(dp2921
g81
g82
ssg63
g2910
sg56
(lp2922
S':'
asbag49
(g70
g51
NtRp2923
(dp2924
g54
(dp2925
sg63
g2910
sg56
(lp2926
g49
(g50
g51
NtRp2927
(dp2928
g54
(dp2929
g62
I5
ssg63
g2923
sg56
(lp2930
g49
(g58
g51
NtRp2931
(dp2932
g54
(dp2933
g62
I4
ssg63
Nsg56
(lp2934
g49
(g65
g51
NtRp2935
(dp2936
g54
(dp2937
sg63
g2931
sg56
(lp2938
g49
(g70
g51
NtRp2939
(dp2940
g54
(dp2941
g74
g75
ssg63
g2935
sg56
(lp2942
S'expiration'
p2943
asbag49
(g70
g51
NtRp2944
(dp2945
g54
(dp2946
g81
g82
ssg63
g2935
sg56
(lp2947
S':'
asbag49
(g70
g51
NtRp2948
(dp2949
g54
(dp2950
sg63
g2935
sg56
(lp2951
g49
(g50
g51
NtRp2952
(dp2953
g54
(dp2954
g62
I4
ssg63
g2948
sg56
(lp2955
S'3600'
p2956
asbasbasbag49
(g65
g51
NtRp2957
(dp2958
g54
(dp2959
sg63
g2931
sg56
(lp2960
g49
(g70
g51
NtRp2961
(dp2962
g54
(dp2963
g74
g75
ssg63
g2957
sg56
(lp2964
S'hmac_key'
p2965
asbag49
(g70
g51
NtRp2966
(dp2967
g54
(dp2968
g81
g82
ssg63
g2957
sg56
(lp2969
S':'
asbag49
(g70
g51
NtRp2970
(dp2971
g54
(dp2972
sg63
g2957
sg56
(lp2973
g49
(g50
g51
NtRp2974
(dp2975
g54
(dp2976
g62
I4
ssg63
g2970
sg56
(lp2977
S'995a0c66-3f99-485b-9dcd-26805f1668c1'
p2978
asbasbasbag49
(g65
g51
NtRp2979
(dp2980
g54
(dp2981
sg63
g2931
sg56
(lp2982
g49
(g70
g51
NtRp2983
(dp2984
g54
(dp2985
g74
g75
ssg63
g2979
sg56
(lp2986
S'last_visit'
p2987
asbag49
(g70
g51
NtRp2988
(dp2989
g54
(dp2990
g81
g82
ssg63
g2979
sg56
(lp2991
S':'
asbag49
(g70
g51
NtRp2992
(dp2993
g54
(dp2994
sg63
g2979
sg56
(lp2995
g49
(g50
g51
NtRp2996
(dp2997
g54
(dp2998
g62
I4
ssg63
g2992
sg56
(lp2999
S'datetime.datetime(2012, 7, 30, 1, 25, 37, 578000)'
p3000
asbasbasbag49
(g65
g51
NtRp3001
(dp3002
g54
(dp3003
sg63
g2931
sg56
(lp3004
g49
(g70
g51
NtRp3005
(dp3006
g54
(dp3007
g74
g75
ssg63
g3001
sg56
(lp3008
S'remember'
p3009
asbag49
(g70
g51
NtRp3010
(dp3011
g54
(dp3012
g81
g82
ssg63
g3001
sg56
(lp3013
S':'
asbag49
(g70
g51
NtRp3014
(dp3015
g54
(dp3016
sg63
g3001
sg56
(lp3017
g49
(g50
g51
NtRp3018
(dp3019
g54
(dp3020
g62
I4
ssg63
g3014
sg56
(lp3021
g92
asbasbasbag49
(g65
g51
NtRp3022
(dp3023
g54
(dp3024
sg63
g2931
sg56
(lp3025
g49
(g70
g51
NtRp3026
(dp3027
g54
(dp3028
g74
g75
ssg63
g3022
sg56
(lp3029
S'user'
p3030
asbag49
(g70
g51
NtRp3031
(dp3032
g54
(dp3033
g81
g82
ssg63
g3022
sg56
(lp3034
S':'
asbag49
(g70
g51
NtRp3035
(dp3036
g54
(dp3037
sg63
g3022
sg56
(lp3038
g49
(g50
g51
NtRp3039
(dp3040
g54
(dp3041
g62
I4
ssg63
g3035
sg56
(lp3042
g49
(g58
g51
NtRp3043
(dp3044
g54
(dp3045
g62
I3
ssg63
Nsg56
(lp3046
g49
(g65
g51
NtRp3047
(dp3048
g54
(dp3049
sg63
g3043
sg56
(lp3050
g49
(g70
g51
NtRp3051
(dp3052
g54
(dp3053
g74
g75
ssg63
g3047
sg56
(lp3054
S'email'
p3055
asbag49
(g70
g51
NtRp3056
(dp3057
g54
(dp3058
g81
g82
ssg63
g3047
sg56
(lp3059
S':'
asbag49
(g70
g51
NtRp3060
(dp3061
g54
(dp3062
sg63
g3047
sg56
(lp3063
g49
(g50
g51
NtRp3064
(dp3065
g54
(dp3066
g62
I3
ssg63
g3060
sg56
(lp3067
S'scmirror1@gmail.com'
p3068
asbasbasbag49
(g65
g51
NtRp3069
(dp3070
g54
(dp3071
sg63
g3043
sg56
(lp3072
g49
(g70
g51
NtRp3073
(dp3074
g54
(dp3075
g74
g75
ssg63
g3069
sg56
(lp3076
S'first_name'
p3077
asbag49
(g70
g51
NtRp3078
(dp3079
g54
(dp3080
g81
g82
ssg63
g3069
sg56
(lp3081
S':'
asbag49
(g70
g51
NtRp3082
(dp3083
g54
(dp3084
sg63
g3069
sg56
(lp3085
g49
(g50
g51
NtRp3086
(dp3087
g54
(dp3088
g62
I3
ssg63
g3082
sg56
(lp3089
S'Pedro'
p3090
asbasbasbag49
(g65
g51
NtRp3091
(dp3092
g54
(dp3093
sg63
g3043
sg56
(lp3094
g49
(g70
g51
NtRp3095
(dp3096
g54
(dp3097
g74
g75
ssg63
g3091
sg56
(lp3098
S'id'
p3099
asbag49
(g70
g51
NtRp3100
(dp3101
g54
(dp3102
g81
g82
ssg63
g3091
sg56
(lp3103
S':'
asbag49
(g70
g51
NtRp3104
(dp3105
g54
(dp3106
sg63
g3091
sg56
(lp3107
g49
(g50
g51
NtRp3108
(dp3109
g54
(dp3110
g62
I3
ssg63
g3104
sg56
(lp3111
S'1'
asbasbasbag49
(g65
g51
NtRp3112
(dp3113
g54
(dp3114
sg63
g3043
sg56
(lp3115
g49
(g70
g51
NtRp3116
(dp3117
g54
(dp3118
g74
g75
ssg63
g3112
sg56
(lp3119
S'last_name'
p3120
asbag49
(g70
g51
NtRp3121
(dp3122
g54
(dp3123
g81
g82
ssg63
g3112
sg56
(lp3124
S':'
asbag49
(g70
g51
NtRp3125
(dp3126
g54
(dp3127
sg63
g3112
sg56
(lp3128
g49
(g50
g51
NtRp3129
(dp3130
g54
(dp3131
g62
I3
ssg63
g3125
sg56
(lp3132
S'Lacerda'
p3133
asbasbasbag49
(g65
g51
NtRp3134
(dp3135
g54
(dp3136
sg63
g3043
sg56
(lp3137
g49
(g70
g51
NtRp3138
(dp3139
g54
(dp3140
g74
g75
ssg63
g3134
sg56
(lp3141
S'password'
p3142
asbag49
(g70
g51
NtRp3143
(dp3144
g54
(dp3145
g81
g82
ssg63
g3134
sg56
(lp3146
S':'
asbag49
(g70
g51
NtRp3147
(dp3148
g54
(dp3149
sg63
g3134
sg56
(lp3150
g49
(g50
g51
NtRp3151
(dp3152
g54
(dp3153
g62
I3
ssg63
g3147
sg56
(lp3154
S'4297f44b13955235245b2497399d7a93'
p3155
asbasbasbag49
(g65
g51
NtRp3156
(dp3157
g54
(dp3158
sg63
g3043
sg56
(lp3159
g49
(g70
g51
NtRp3160
(dp3161
g54
(dp3162
g74
g75
ssg63
g3156
sg56
(lp3163
S'registration_id'
p3164
asbag49
(g70
g51
NtRp3165
(dp3166
g54
(dp3167
g81
g82
ssg63
g3156
sg56
(lp3168
S':'
asbag49
(g70
g51
NtRp3169
(dp3170
g54
(dp3171
sg63
g3156
sg56
(lp3172
g49
(g50
g51
NtRp3173
(dp3174
g54
(dp3175
g62
I3
ssg63
g3169
sg56
(lp3176
S''
asbasbasbag49
(g65
g51
NtRp3177
(dp3178
g54
(dp3179
sg63
g3043
sg56
(lp3180
g49
(g70
g51
NtRp3181
(dp3182
g54
(dp3183
g74
g75
ssg63
g3177
sg56
(lp3184
S'registration_key'
p3185
asbag49
(g70
g51
NtRp3186
(dp3187
g54
(dp3188
g81
g82
ssg63
g3177
sg56
(lp3189
S':'
asbag49
(g70
g51
NtRp3190
(dp3191
g54
(dp3192
sg63
g3177
sg56
(lp3193
g49
(g50
g51
NtRp3194
(dp3195
g54
(dp3196
g62
I3
ssg63
g3190
sg56
(lp3197
S''
asbasbasbag49
(g65
g51
NtRp3198
(dp3199
g54
(dp3200
sg63
g3043
sg56
(lp3201
g49
(g70
g51
NtRp3202
(dp3203
g54
(dp3204
g74
g75
ssg63
g3198
sg56
(lp3205
S'reset_password_key'
p3206
asbag49
(g70
g51
NtRp3207
(dp3208
g54
(dp3209
g81
g82
ssg63
g3198
sg56
(lp3210
S':'
asbag49
(g70
g51
NtRp3211
(dp3212
g54
(dp3213
sg63
g3198
sg56
(lp3214
g49
(g50
g51
NtRp3215
(dp3216
g54
(dp3217
g62
I3
ssg63
g3211
sg56
(lp3218
S''
asbasbasbasbasbasbasbag49
(g65
g51
NtRp3219
(dp3220
g54
(dp3221
sg63
g2931
sg56
(lp3222
g49
(g70
g51
NtRp3223
(dp3224
g54
(dp3225
g74
g75
ssg63
g3219
sg56
(lp3226
S'user_groups'
p3227
asbag49
(g70
g51
NtRp3228
(dp3229
g54
(dp3230
g81
g82
ssg63
g3219
sg56
(lp3231
S':'
asbag49
(g70
g51
NtRp3232
(dp3233
g54
(dp3234
sg63
g3219
sg56
(lp3235
g49
(g50
g51
NtRp3236
(dp3237
g54
(dp3238
g62
I4
ssg63
g3232
sg56
(lp3239
g49
(g58
g51
NtRp3240
(dp3241
g54
(dp3242
g62
I3
ssg63
Nsg56
(lp3243
g49
(g65
g51
NtRp3244
(dp3245
g54
(dp3246
sg63
g3240
sg56
(lp3247
g49
(g70
g51
NtRp3248
(dp3249
g54
(dp3250
g74
g75
ssg63
g3244
sg56
(lp3251
S'1'
asbag49
(g70
g51
NtRp3252
(dp3253
g54
(dp3254
g81
g82
ssg63
g3244
sg56
(lp3255
S':'
asbag49
(g70
g51
NtRp3256
(dp3257
g54
(dp3258
sg63
g3244
sg56
(lp3259
g49
(g50
g51
NtRp3260
(dp3261
g54
(dp3262
g62
I3
ssg63
g3256
sg56
(lp3263
S'user_1'
p3264
asbasbasbag49
(g65
g51
NtRp3265
(dp3266
g54
(dp3267
sg63
g3240
sg56
(lp3268
g49
(g70
g51
NtRp3269
(dp3270
g54
(dp3271
g74
g75
ssg63
g3265
sg56
(lp3272
S'2'
asbag49
(g70
g51
NtRp3273
(dp3274
g54
(dp3275
g81
g82
ssg63
g3265
sg56
(lp3276
S':'
asbag49
(g70
g51
NtRp3277
(dp3278
g54
(dp3279
sg63
g3265
sg56
(lp3280
g49
(g50
g51
NtRp3281
(dp3282
g54
(dp3283
g62
I3
ssg63
g3277
sg56
(lp3284
S'manager'
p3285
asbasbasbasbasbasbasbasbasbasbasbasbasbsS'etype'
p3286
S"<type 'exceptions.AttributeError'>"
p3287
sS'date'
p3288
S'Mon Jul 30 01:29:47 2012'
p3289
sS'response'
p3290
g49
(g50
g51
NtRp3291
(dp3292
g54
(dp3293
sg56
(lp3294
g49
(g58
g51
NtRp3295
(dp3296
g54
(dp3297
g62
I5
ssg63
Nsg56
(lp3298
g49
(g65
g51
NtRp3299
(dp3300
g54
(dp3301
sg63
g3295
sg56
(lp3302
g49
(g70
g51
NtRp3303
(dp3304
g54
(dp3305
g74
g75
ssg63
g3299
sg56
(lp3306
g160
asbag49
(g70
g51
NtRp3307
(dp3308
g54
(dp3309
g81
g82
ssg63
g3299
sg56
(lp3310
S':'
asbag49
(g70
g51
NtRp3311
(dp3312
g54
(dp3313
sg63
g3299
sg56
(lp3314
g49
(g50
g51
NtRp3315
(dp3316
g54
(dp3317
g62
I5
ssg63
g3311
sg56
(lp3318
S'<cStringIO.StringO object at 0x060657C0>'
p3319
asbasbasbag49
(g65
g51
NtRp3320
(dp3321
g54
(dp3322
sg63
g3295
sg56
(lp3323
g49
(g70
g51
NtRp3324
(dp3325
g54
(dp3326
g74
g75
ssg63
g3320
sg56
(lp3327
g226
asbag49
(g70
g51
NtRp3328
(dp3329
g54
(dp3330
g81
g82
ssg63
g3320
sg56
(lp3331
S':'
asbag49
(g70
g51
NtRp3332
(dp3333
g54
(dp3334
sg63
g3320
sg56
(lp3335
g49
(g50
g51
NtRp3336
(dp3337
g54
(dp3338
g62
I5
ssg63
g3332
sg56
(lp3339
g49
(g58
g51
NtRp3340
(dp3341
g54
(dp3342
g62
I4
ssg63
Nsg56
(lp3343
g49
(g65
g51
NtRp3344
(dp3345
g54
(dp3346
sg63
g3340
sg56
(lp3347
g49
(g70
g51
NtRp3348
(dp3349
g54
(dp3350
g74
g75
ssg63
g3344
sg56
(lp3351
S'session_id_unioeste_code'
p3352
asbag49
(g70
g51
NtRp3353
(dp3354
g54
(dp3355
g81
g82
ssg63
g3344
sg56
(lp3356
S':'
asbag49
(g70
g51
NtRp3357
(dp3358
g54
(dp3359
sg63
g3344
sg56
(lp3360
g49
(g50
g51
NtRp3361
(dp3362
g54
(dp3363
g62
I4
ssg63
g3357
sg56
(lp3364
g49
(g58
g51
NtRp3365
(dp3366
g54
(dp3367
g62
I3
ssg63
Nsg56
(lp3368
g49
(g65
g51
NtRp3369
(dp3370
g54
(dp3371
sg63
g3365
sg56
(lp3372
g49
(g70
g51
NtRp3373
(dp3374
g54
(dp3375
g74
g75
ssg63
g3369
sg56
(lp3376
g276
asbag49
(g70
g51
NtRp3377
(dp3378
g54
(dp3379
g81
g82
ssg63
g3369
sg56
(lp3380
S':'
asbag49
(g70
g51
NtRp3381
(dp3382
g54
(dp3383
sg63
g3369
sg56
(lp3384
g49
(g50
g51
NtRp3385
(dp3386
g54
(dp3387
g62
I3
ssg63
g3381
sg56
(lp3388
S''
asbasbasbag49
(g65
g51
NtRp3389
(dp3390
g54
(dp3391
sg63
g3365
sg56
(lp3392
g49
(g70
g51
NtRp3393
(dp3394
g54
(dp3395
g74
g75
ssg63
g3389
sg56
(lp3396
g297
asbag49
(g70
g51
NtRp3397
(dp3398
g54
(dp3399
g81
g82
ssg63
g3389
sg56
(lp3400
S':'
asbag49
(g70
g51
NtRp3401
(dp3402
g54
(dp3403
sg63
g3389
sg56
(lp3404
g49
(g50
g51
NtRp3405
(dp3406
g54
(dp3407
g62
I3
ssg63
g3401
sg56
(lp3408
S''
asbasbasbag49
(g65
g51
NtRp3409
(dp3410
g54
(dp3411
sg63
g3365
sg56
(lp3412
g49
(g70
g51
NtRp3413
(dp3414
g54
(dp3415
g74
g75
ssg63
g3409
sg56
(lp3416
g318
asbag49
(g70
g51
NtRp3417
(dp3418
g54
(dp3419
g81
g82
ssg63
g3409
sg56
(lp3420
S':'
asbag49
(g70
g51
NtRp3421
(dp3422
g54
(dp3423
sg63
g3409
sg56
(lp3424
g49
(g50
g51
NtRp3425
(dp3426
g54
(dp3427
g62
I3
ssg63
g3421
sg56
(lp3428
S''
asbasbasbag49
(g65
g51
NtRp3429
(dp3430
g54
(dp3431
sg63
g3365
sg56
(lp3432
g49
(g70
g51
NtRp3433
(dp3434
g54
(dp3435
g74
g75
ssg63
g3429
sg56
(lp3436
g339
asbag49
(g70
g51
NtRp3437
(dp3438
g54
(dp3439
g81
g82
ssg63
g3429
sg56
(lp3440
S':'
asbag49
(g70
g51
NtRp3441
(dp3442
g54
(dp3443
sg63
g3429
sg56
(lp3444
g49
(g50
g51
NtRp3445
(dp3446
g54
(dp3447
g62
I3
ssg63
g3441
sg56
(lp3448
S''
asbasbasbag49
(g65
g51
NtRp3449
(dp3450
g54
(dp3451
sg63
g3365
sg56
(lp3452
g49
(g70
g51
NtRp3453
(dp3454
g54
(dp3455
g74
g75
ssg63
g3449
sg56
(lp3456
g360
asbag49
(g70
g51
NtRp3457
(dp3458
g54
(dp3459
g81
g82
ssg63
g3449
sg56
(lp3460
S':'
asbag49
(g70
g51
NtRp3461
(dp3462
g54
(dp3463
sg63
g3449
sg56
(lp3464
g49
(g50
g51
NtRp3465
(dp3466
g54
(dp3467
g62
I3
ssg63
g3461
sg56
(lp3468
S'/'
asbasbasbag49
(g65
g51
NtRp3469
(dp3470
g54
(dp3471
sg63
g3365
sg56
(lp3472
g49
(g70
g51
NtRp3473
(dp3474
g54
(dp3475
g74
g75
ssg63
g3469
sg56
(lp3476
g381
asbag49
(g70
g51
NtRp3477
(dp3478
g54
(dp3479
g81
g82
ssg63
g3469
sg56
(lp3480
S':'
asbag49
(g70
g51
NtRp3481
(dp3482
g54
(dp3483
sg63
g3469
sg56
(lp3484
g49
(g50
g51
NtRp3485
(dp3486
g54
(dp3487
g62
I3
ssg63
g3481
sg56
(lp3488
S''
asbasbasbag49
(g65
g51
NtRp3489
(dp3490
g54
(dp3491
sg63
g3365
sg56
(lp3492
g49
(g70
g51
NtRp3493
(dp3494
g54
(dp3495
g74
g75
ssg63
g3489
sg56
(lp3496
g402
asbag49
(g70
g51
NtRp3497
(dp3498
g54
(dp3499
g81
g82
ssg63
g3489
sg56
(lp3500
S':'
asbag49
(g70
g51
NtRp3501
(dp3502
g54
(dp3503
sg63
g3489
sg56
(lp3504
g49
(g50
g51
NtRp3505
(dp3506
g54
(dp3507
g62
I3
ssg63
g3501
sg56
(lp3508
S''
asbasbasbasbasbasbasbasbasbasbasbag49
(g65
g51
NtRp3509
(dp3510
g54
(dp3511
sg63
g3295
sg56
(lp3512
g49
(g70
g51
NtRp3513
(dp3514
g54
(dp3515
g74
g75
ssg63
g3509
sg56
(lp3516
S'delimiters'
p3517
asbag49
(g70
g51
NtRp3518
(dp3519
g54
(dp3520
g81
g82
ssg63
g3509
sg56
(lp3521
S':'
asbag49
(g70
g51
NtRp3522
(dp3523
g54
(dp3524
sg63
g3509
sg56
(lp3525
g49
(g50
g51
NtRp3526
(dp3527
g54
(dp3528
g62
I5
ssg63
g3522
sg56
(lp3529
g49
(g58
g51
NtRp3530
(dp3531
g54
(dp3532
g62
I4
ssg63
Nsg56
(lp3533
g49
(g65
g51
NtRp3534
(dp3535
g54
(dp3536
sg63
g3530
sg56
(lp3537
g49
(g70
g51
NtRp3538
(dp3539
g54
(dp3540
sg63
g3534
sg56
(lp3541
g49
(g50
g51
NtRp3542
(dp3543
g54
(dp3544
g62
I4
ssg63
g3538
sg56
(lp3545
S'{{'
p3546
asbasbasbag49
(g65
g51
NtRp3547
(dp3548
g54
(dp3549
sg63
g3530
sg56
(lp3550
g49
(g70
g51
NtRp3551
(dp3552
g54
(dp3553
sg63
g3547
sg56
(lp3554
g49
(g50
g51
NtRp3555
(dp3556
g54
(dp3557
g62
I4
ssg63
g3551
sg56
(lp3558
S'}}'
p3559
asbasbasbasbasbasbasbag49
(g65
g51
NtRp3560
(dp3561
g54
(dp3562
sg63
g3295
sg56
(lp3563
g49
(g70
g51
NtRp3564
(dp3565
g54
(dp3566
g74
g75
ssg63
g3560
sg56
(lp3567
S'files'
p3568
asbag49
(g70
g51
NtRp3569
(dp3570
g54
(dp3571
g81
g82
ssg63
g3560
sg56
(lp3572
S':'
asbag49
(g70
g51
NtRp3573
(dp3574
g54
(dp3575
sg63
g3560
sg56
(lp3576
g49
(g50
g51
NtRp3577
(dp3578
g54
(dp3579
g62
I5
ssg63
g3573
sg56
(lp3580
g49
(g58
g51
NtRp3581
(dp3582
g54
(dp3583
g62
I4
ssg63
Nsg56
(lp3584
sbasbasbasbag49
(g65
g51
NtRp3585
(dp3586
g54
(dp3587
sg63
g3295
sg56
(lp3588
g49
(g70
g51
NtRp3589
(dp3590
g54
(dp3591
g74
g75
ssg63
g3585
sg56
(lp3592
S'flash'
p3593
asbag49
(g70
g51
NtRp3594
(dp3595
g54
(dp3596
g81
g82
ssg63
g3585
sg56
(lp3597
S':'
asbag49
(g70
g51
NtRp3598
(dp3599
g54
(dp3600
sg63
g3585
sg56
(lp3601
g49
(g50
g51
NtRp3602
(dp3603
g54
(dp3604
g62
I5
ssg63
g3598
sg56
(lp3605
S''
asbasbasbag49
(g65
g51
NtRp3606
(dp3607
g54
(dp3608
sg63
g3295
sg56
(lp3609
g49
(g70
g51
NtRp3610
(dp3611
g54
(dp3612
g74
g75
ssg63
g3606
sg56
(lp3613
S'generic_patterns'
p3614
asbag49
(g70
g51
NtRp3615
(dp3616
g54
(dp3617
g81
g82
ssg63
g3606
sg56
(lp3618
S':'
asbag49
(g70
g51
NtRp3619
(dp3620
g54
(dp3621
sg63
g3606
sg56
(lp3622
g49
(g50
g51
NtRp3623
(dp3624
g54
(dp3625
g62
I5
ssg63
g3619
sg56
(lp3626
g49
(g58
g51
NtRp3627
(dp3628
g54
(dp3629
g62
I4
ssg63
Nsg56
(lp3630
sbasbasbasbag49
(g65
g51
NtRp3631
(dp3632
g54
(dp3633
sg63
g3295
sg56
(lp3634
g49
(g70
g51
NtRp3635
(dp3636
g54
(dp3637
g74
g75
ssg63
g3631
sg56
(lp3638
S'headers'
p3639
asbag49
(g70
g51
NtRp3640
(dp3641
g54
(dp3642
g81
g82
ssg63
g3631
sg56
(lp3643
S':'
asbag49
(g70
g51
NtRp3644
(dp3645
g54
(dp3646
sg63
g3631
sg56
(lp3647
g49
(g50
g51
NtRp3648
(dp3649
g54
(dp3650
g62
I5
ssg63
g3644
sg56
(lp3651
g49
(g58
g51
NtRp3652
(dp3653
g54
(dp3654
g62
I4
ssg63
Nsg56
(lp3655
g49
(g65
g51
NtRp3656
(dp3657
g54
(dp3658
sg63
g3652
sg56
(lp3659
g49
(g70
g51
NtRp3660
(dp3661
g54
(dp3662
g74
g75
ssg63
g3656
sg56
(lp3663
S'Cache-Control'
p3664
asbag49
(g70
g51
NtRp3665
(dp3666
g54
(dp3667
g81
g82
ssg63
g3656
sg56
(lp3668
S':'
asbag49
(g70
g51
NtRp3669
(dp3670
g54
(dp3671
sg63
g3656
sg56
(lp3672
g49
(g50
g51
NtRp3673
(dp3674
g54
(dp3675
g62
I4
ssg63
g3669
sg56
(lp3676
S'no-store, no-cache, must-revalidate, post-check=0, pre-check=0'
p3677
asbasbasbag49
(g65
g51
NtRp3678
(dp3679
g54
(dp3680
sg63
g3652
sg56
(lp3681
g49
(g70
g51
NtRp3682
(dp3683
g54
(dp3684
g74
g75
ssg63
g3678
sg56
(lp3685
S'Content-Type'
p3686
asbag49
(g70
g51
NtRp3687
(dp3688
g54
(dp3689
g81
g82
ssg63
g3678
sg56
(lp3690
S':'
asbag49
(g70
g51
NtRp3691
(dp3692
g54
(dp3693
sg63
g3678
sg56
(lp3694
g49
(g50
g51
NtRp3695
(dp3696
g54
(dp3697
g62
I4
ssg63
g3691
sg56
(lp3698
S'text/html; charset=utf-8'
p3699
asbasbasbag49
(g65
g51
NtRp3700
(dp3701
g54
(dp3702
sg63
g3652
sg56
(lp3703
g49
(g70
g51
NtRp3704
(dp3705
g54
(dp3706
g74
g75
ssg63
g3700
sg56
(lp3707
S'Expires'
p3708
asbag49
(g70
g51
NtRp3709
(dp3710
g54
(dp3711
g81
g82
ssg63
g3700
sg56
(lp3712
S':'
asbag49
(g70
g51
NtRp3713
(dp3714
g54
(dp3715
sg63
g3700
sg56
(lp3716
g49
(g50
g51
NtRp3717
(dp3718
g54
(dp3719
g62
I4
ssg63
g3713
sg56
(lp3720
S'Mon, 30 Jul 2012 04:29:47 GMT'
p3721
asbasbasbag49
(g65
g51
NtRp3722
(dp3723
g54
(dp3724
sg63
g3652
sg56
(lp3725
g49
(g70
g51
NtRp3726
(dp3727
g54
(dp3728
g74
g75
ssg63
g3722
sg56
(lp3729
S'Pragma'
p3730
asbag49
(g70
g51
NtRp3731
(dp3732
g54
(dp3733
g81
g82
ssg63
g3722
sg56
(lp3734
S':'
asbag49
(g70
g51
NtRp3735
(dp3736
g54
(dp3737
sg63
g3722
sg56
(lp3738
g49
(g50
g51
NtRp3739
(dp3740
g54
(dp3741
g62
I4
ssg63
g3735
sg56
(lp3742
S'no-cache'
p3743
asbasbasbag49
(g65
g51
NtRp3744
(dp3745
g54
(dp3746
sg63
g3652
sg56
(lp3747
g49
(g70
g51
NtRp3748
(dp3749
g54
(dp3750
g74
g75
ssg63
g3744
sg56
(lp3751
S'X-Powered-By'
p3752
asbag49
(g70
g51
NtRp3753
(dp3754
g54
(dp3755
g81
g82
ssg63
g3744
sg56
(lp3756
S':'
asbag49
(g70
g51
NtRp3757
(dp3758
g54
(dp3759
sg63
g3744
sg56
(lp3760
g49
(g50
g51
NtRp3761
(dp3762
g54
(dp3763
g62
I4
ssg63
g3757
sg56
(lp3764
S'web2py'
p3765
asbasbasbasbasbasbasbag49
(g65
g51
NtRp3766
(dp3767
g54
(dp3768
sg63
g3295
sg56
(lp3769
g49
(g70
g51
NtRp3770
(dp3771
g54
(dp3772
g74
g75
ssg63
g3766
sg56
(lp3773
S'menu'
p3774
asbag49
(g70
g51
NtRp3775
(dp3776
g54
(dp3777
g81
g82
ssg63
g3766
sg56
(lp3778
S':'
asbag49
(g70
g51
NtRp3779
(dp3780
g54
(dp3781
sg63
g3766
sg56
(lp3782
g49
(g50
g51
NtRp3783
(dp3784
g54
(dp3785
g62
I5
ssg63
g3779
sg56
(lp3786
g49
(g58
g51
NtRp3787
(dp3788
g54
(dp3789
g62
I4
ssg63
Nsg56
(lp3790
g49
(g65
g51
NtRp3791
(dp3792
g54
(dp3793
sg63
g3787
sg56
(lp3794
g49
(g70
g51
NtRp3795
(dp3796
g54
(dp3797
sg63
g3791
sg56
(lp3798
g49
(g50
g51
NtRp3799
(dp3800
g54
(dp3801
g62
I4
ssg63
g3795
sg56
(lp3802
g49
(g58
g51
NtRp3803
(dp3804
g54
(dp3805
g62
I3
ssg63
Nsg56
(lp3806
g49
(g65
g51
NtRp3807
(dp3808
g54
(dp3809
sg63
g3803
sg56
(lp3810
g49
(g70
g51
NtRp3811
(dp3812
g54
(dp3813
sg63
g3807
sg56
(lp3814
g49
(g50
g51
NtRp3815
(dp3816
g54
(dp3817
g62
I3
ssg63
g3811
sg56
(lp3818
cgluon.languages
lazyT_unpickle
p3819
(S't\x04\x00\x00\x00Home'
tRp3820
asbasbasbag49
(g65
g51
NtRp3821
(dp3822
g54
(dp3823
sg63
g3803
sg56
(lp3824
g49
(g70
g51
NtRp3825
(dp3826
g54
(dp3827
sg63
g3821
sg56
(lp3828
g49
(g50
g51
NtRp3829
(dp3830
g54
(dp3831
g62
I3
ssg63
g3825
sg56
(lp3832
g92
asbasbasbag49
(g65
g51
NtRp3833
(dp3834
g54
(dp3835
sg63
g3803
sg56
(lp3836
g49
(g70
g51
NtRp3837
(dp3838
g54
(dp3839
sg63
g3833
sg56
(lp3840
g49
(g50
g51
NtRp3841
(dp3842
g54
(dp3843
g62
I3
ssg63
g3837
sg56
(lp3844
S'/unioeste_code/default/index'
p3845
asbasbasbag49
(g65
g51
NtRp3846
(dp3847
g54
(dp3848
sg63
g3803
sg56
(lp3849
g49
(g70
g51
NtRp3850
(dp3851
g54
(dp3852
sg63
g3846
sg56
(lp3853
g49
(g50
g51
NtRp3854
(dp3855
g54
(dp3856
g62
I3
ssg63
g3850
sg56
(lp3857
g49
(g58
g51
NtRp3858
(dp3859
g54
(dp3860
g62
I2
ssg63
Nsg56
(lp3861
sbasbasbasbasbasbasbasbag49
(g65
g51
NtRp3862
(dp3863
g54
(dp3864
sg63
g3787
sg56
(lp3865
g49
(g70
g51
NtRp3866
(dp3867
g54
(dp3868
sg63
g3862
sg56
(lp3869
g49
(g50
g51
NtRp3870
(dp3871
g54
(dp3872
g62
I4
ssg63
g3866
sg56
(lp3873
g49
(g58
g51
NtRp3874
(dp3875
g54
(dp3876
g62
I3
ssg63
Nsg56
(lp3877
g49
(g65
g51
NtRp3878
(dp3879
g54
(dp3880
sg63
g3874
sg56
(lp3881
g49
(g70
g51
NtRp3882
(dp3883
g54
(dp3884
sg63
g3878
sg56
(lp3885
g49
(g50
g51
NtRp3886
(dp3887
g54
(dp3888
g62
I3
ssg63
g3882
sg56
(lp3889
g49
(cgluon.html
SPAN
p3890
g51
NtRp3891
(dp3892
g54
(dp3893
g74
S'color:yellow'
p3894
ssg63
Nsg56
(lp3895
g3765
asbasbasbasbag49
(g65
g51
NtRp3896
(dp3897
g54
(dp3898
sg63
g3874
sg56
(lp3899
g49
(g70
g51
NtRp3900
(dp3901
g54
(dp3902
sg63
g3896
sg56
(lp3903
g49
(g50
g51
NtRp3904
(dp3905
g54
(dp3906
g62
I3
ssg63
g3900
sg56
(lp3907
g92
asbasbasbag49
(g65
g51
NtRp3908
(dp3909
g54
(dp3910
sg63
g3874
sg56
(lp3911
g49
(g70
g51
NtRp3912
(dp3913
g54
(dp3914
sg63
g3908
sg56
(lp3915
g49
(g50
g51
NtRp3916
(dp3917
g54
(dp3918
g62
I3
ssg63
g3912
sg56
(lp3919
S'None'
p3920
asbasbasbag49
(g65
g51
NtRp3921
(dp3922
g54
(dp3923
sg63
g3874
sg56
(lp3924
g49
(g70
g51
NtRp3925
(dp3926
g54
(dp3927
sg63
g3921
sg56
(lp3928
g49
(g50
g51
NtRp3929
(dp3930
g54
(dp3931
g62
I3
ssg63
g3925
sg56
(lp3932
g49
(g58
g51
NtRp3933
(dp3934
g54
(dp3935
g62
I2
ssg63
Nsg56
(lp3936
g49
(g65
g51
NtRp3937
(dp3938
g54
(dp3939
sg63
g3933
sg56
(lp3940
g49
(g70
g51
NtRp3941
(dp3942
g54
(dp3943
sg63
g3937
sg56
(lp3944
g49
(g50
g51
NtRp3945
(dp3946
g54
(dp3947
g62
I2
ssg63
g3941
sg56
(lp3948
g49
(g58
g51
NtRp3949
(dp3950
g54
(dp3951
g62
I1
ssg63
Nsg56
(lp3952
g49
(g65
g51
NtRp3953
(dp3954
g54
(dp3955
sg63
g3949
sg56
(lp3956
g49
(g70
g51
NtRp3957
(dp3958
g54
(dp3959
sg63
g3953
sg56
(lp3960
g49
(g50
g51
NtRp3961
(dp3962
g54
(dp3963
g62
I1
ssg63
g3957
sg56
(lp3964
g3819
(S's\x08\x00\x00\x00My Sites'
tRp3965
asbasbasbag49
(g65
g51
NtRp3966
(dp3967
g54
(dp3968
sg63
g3949
sg56
(lp3969
g49
(g70
g51
NtRp3970
(dp3971
g54
(dp3972
sg63
g3966
sg56
(lp3973
g49
(g50
g51
NtRp3974
(dp3975
g54
(dp3976
g62
I1
ssg63
g3970
sg56
(lp3977
I00
asbasbasbag49
(g65
g51
NtRp3978
(dp3979
g54
(dp3980
sg63
g3949
sg56
(lp3981
g49
(g70
g51
NtRp3982
(dp3983
g54
(dp3984
sg63
g3978
sg56
(lp3985
g49
(g50
g51
NtRp3986
(dp3987
g54
(dp3988
g62
I1
ssg63
g3982
sg56
(lp3989
S'/admin/default/site'
p3990
asbasbasbasbasbasbasbag49
(g65
g51
NtRp3991
(dp3992
g54
(dp3993
sg63
g3933
sg56
(lp3994
g49
(g70
g51
NtRp3995
(dp3996
g54
(dp3997
sg63
g3991
sg56
(lp3998
g49
(g50
g51
NtRp3999
(dp4000
g54
(dp4001
g62
I2
ssg63
g3995
sg56
(lp4002
g49
(g58
g51
NtRp4003
(dp4004
g54
(dp4005
g62
I1
ssg63
Nsg56
(lp4006
g49
(g65
g51
NtRp4007
(dp4008
g54
(dp4009
sg63
g4003
sg56
(lp4010
g49
(g70
g51
NtRp4011
(dp4012
g54
(dp4013
sg63
g4007
sg56
(lp4014
g49
(g50
g51
NtRp4015
(dp4016
g54
(dp4017
g62
I1
ssg63
g4011
sg56
(lp4018
g3819
(S's\x08\x00\x00\x00This App'
tRp4019
asbasbasbag49
(g65
g51
NtRp4020
(dp4021
g54
(dp4022
sg63
g4003
sg56
(lp4023
g49
(g70
g51
NtRp4024
(dp4025
g54
(dp4026
sg63
g4020
sg56
(lp4027
g49
(g50
g51
NtRp4028
(dp4029
g54
(dp4030
g62
I1
ssg63
g4024
sg56
(lp4031
I00
asbasbasbag49
(g65
g51
NtRp4032
(dp4033
g54
(dp4034
sg63
g4003
sg56
(lp4035
g49
(g70
g51
NtRp4036
(dp4037
g54
(dp4038
sg63
g4032
sg56
(lp4039
g49
(g50
g51
NtRp4040
(dp4041
g54
(dp4042
g62
I1
ssg63
g4036
sg56
(lp4043
S'/admin/default/design/unioeste_code'
p4044
asbasbasbag49
(g65
g51
NtRp4045
(dp4046
g54
(dp4047
sg63
g4003
sg56
(lp4048
g49
(g70
g51
NtRp4049
(dp4050
g54
(dp4051
sg63
g4045
sg56
(lp4052
g49
(g50
g51
NtRp4053
(dp4054
g54
(dp4055
g62
I1
ssg63
g4049
sg56
(lp4056
(lp4057
(g3819
(S't\x0b\x00\x00\x00Controlador'
tRp4058
I00
S'/admin/default/edit/unioeste_code/controllers/default.py'
tp4059
a(g3819
(S's\x0e\x00\x00\x00Visualiza\xc3\xa7\xc3\xa3o'
tRp4060
I00
S'/admin/default/edit/unioeste_code/views/default/Problem.html'
tp4061
a(g3819
(S't\x06\x00\x00\x00Layout'
tRp4062
I00
S'/admin/default/edit/unioeste_code/views/layout.html'
tp4063
a(g3819
(S't\n\x00\x00\x00Stylesheet'
tRp4064
I00
S'/admin/default/edit/unioeste_code/static/css/web2py.css'
tp4065
a(g3819
(S's\t\x00\x00\x00Modelo BD'
tRp4066
I00
S'/admin/default/edit/unioeste_code/models/db.py'
tp4067
a(g3819
(S's\x0e\x00\x00\x00Modelo de Menu'
tRp4068
I00
S'/admin/default/edit/unioeste_code/models/menu.py'
tp4069
a(g3819
(S's\x0e\x00\x00\x00Banco de dados'
tRp4070
I00
S'/unioeste_code/appadmin/index'
tp4071
a(g3819
(S't\x06\x00\x00\x00Errors'
tRp4072
I00
S'/admin/default/errors/unioeste_code'
tp4073
a(g3819
(S't\x05\x00\x00\x00About'
tRp4074
I00
S'/admin/default/about/unioeste_code'
tp4075
aasbasbasbasbasbasbasbag49
(g65
g51
NtRp4076
(dp4077
g54
(dp4078
sg63
g3933
sg56
(lp4079
g49
(g70
g51
NtRp4080
(dp4081
g54
(dp4082
sg63
g4076
sg56
(lp4083
g49
(g50
g51
NtRp4084
(dp4085
g54
(dp4086
g62
I2
ssg63
g4080
sg56
(lp4087
g49
(g58
g51
NtRp4088
(dp4089
g54
(dp4090
g62
I1
ssg63
Nsg56
(lp4091
g49
(g65
g51
NtRp4092
(dp4093
g54
(dp4094
sg63
g4088
sg56
(lp4095
g49
(g70
g51
NtRp4096
(dp4097
g54
(dp4098
sg63
g4092
sg56
(lp4099
g49
(g50
g51
NtRp4100
(dp4101
g54
(dp4102
g62
I1
ssg63
g4096
sg56
(lp4103
S'web2py.com'
p4104
asbasbasbag49
(g65
g51
NtRp4105
(dp4106
g54
(dp4107
sg63
g4088
sg56
(lp4108
g49
(g70
g51
NtRp4109
(dp4110
g54
(dp4111
sg63
g4105
sg56
(lp4112
g49
(g50
g51
NtRp4113
(dp4114
g54
(dp4115
g62
I1
ssg63
g4109
sg56
(lp4116
I00
asbasbasbag49
(g65
g51
NtRp4117
(dp4118
g54
(dp4119
sg63
g4088
sg56
(lp4120
g49
(g70
g51
NtRp4121
(dp4122
g54
(dp4123
sg63
g4117
sg56
(lp4124
g49
(g50
g51
NtRp4125
(dp4126
g54
(dp4127
g62
I1
ssg63
g4121
sg56
(lp4128
S'http://www.web2py.com'
p4129
asbasbasbag49
(g65
g51
NtRp4130
(dp4131
g54
(dp4132
sg63
g4088
sg56
(lp4133
g49
(g70
g51
NtRp4134
(dp4135
g54
(dp4136
sg63
g4130
sg56
(lp4137
g49
(g50
g51
NtRp4138
(dp4139
g54
(dp4140
g62
I1
ssg63
g4134
sg56
(lp4141
(lp4142
(g3819
(S't\x08\x00\x00\x00Download'
tRp4143
I00
S'http://www.web2py.com/examples/default/download'
p4144
tp4145
a(g3819
(S't\x07\x00\x00\x00Support'
tRp4146
I00
S'http://www.web2py.com/examples/default/support'
p4147
tp4148
a(g3819
(S't\x04\x00\x00\x00Demo'
tRp4149
I00
S'http://web2py.com/demo_admin'
p4150
tp4151
a(g3819
(S's\x0e\x00\x00\x00Quick Examples'
tRp4152
I00
S'http://web2py.com/examples/default/examples'
p4153
tp4154
a(g3819
(S't\x03\x00\x00\x00FAQ'
tRp4155
I00
S'http://web2py.com/AlterEgo'
p4156
tp4157
a(g3819
(S't\x06\x00\x00\x00Videos'
tRp4158
I00
S'http://www.web2py.com/examples/default/videos/'
p4159
tp4160
a(g3819
(S's\x11\x00\x00\x00Free Applications'
tRp4161
I00
S'http://web2py.com/appliances'
p4162
tp4163
a(g3819
(S't\x07\x00\x00\x00Plugins'
tRp4164
I00
S'http://web2py.com/plugins'
p4165
tp4166
a(g3819
(S't\x07\x00\x00\x00Layouts'
tRp4167
I00
S'http://web2py.com/layouts'
p4168
tp4169
a(g3819
(S't\x07\x00\x00\x00Recipes'
tRp4170
I00
S'http://web2pyslices.com/'
p4171
tp4172
a(g3819
(S't\x08\x00\x00\x00Semantic'
tRp4173
I00
S'http://web2py.com/semantic'
p4174
tp4175
aasbasbasbasbasbasbasbag49
(g65
g51
NtRp4176
(dp4177
g54
(dp4178
sg63
g3933
sg56
(lp4179
g49
(g70
g51
NtRp4180
(dp4181
g54
(dp4182
sg63
g4176
sg56
(lp4183
g49
(g50
g51
NtRp4184
(dp4185
g54
(dp4186
g62
I2
ssg63
g4180
sg56
(lp4187
g49
(g58
g51
NtRp4188
(dp4189
g54
(dp4190
g62
I1
ssg63
Nsg56
(lp4191
g49
(g65
g51
NtRp4192
(dp4193
g54
(dp4194
sg63
g4188
sg56
(lp4195
g49
(g70
g51
NtRp4196
(dp4197
g54
(dp4198
sg63
g4192
sg56
(lp4199
g49
(g50
g51
NtRp4200
(dp4201
g54
(dp4202
g62
I1
ssg63
g4196
sg56
(lp4203
g3819
(S't\r\x00\x00\x00Documentation'
tRp4204
asbasbasbag49
(g65
g51
NtRp4205
(dp4206
g54
(dp4207
sg63
g4188
sg56
(lp4208
g49
(g70
g51
NtRp4209
(dp4210
g54
(dp4211
sg63
g4205
sg56
(lp4212
g49
(g50
g51
NtRp4213
(dp4214
g54
(dp4215
g62
I1
ssg63
g4209
sg56
(lp4216
I00
asbasbasbag49
(g65
g51
NtRp4217
(dp4218
g54
(dp4219
sg63
g4188
sg56
(lp4220
g49
(g70
g51
NtRp4221
(dp4222
g54
(dp4223
sg63
g4217
sg56
(lp4224
g49
(g50
g51
NtRp4225
(dp4226
g54
(dp4227
g62
I1
ssg63
g4221
sg56
(lp4228
S'http://www.web2py.com/book'
p4229
asbasbasbag49
(g65
g51
NtRp4230
(dp4231
g54
(dp4232
sg63
g4188
sg56
(lp4233
g49
(g70
g51
NtRp4234
(dp4235
g54
(dp4236
sg63
g4230
sg56
(lp4237
g49
(g50
g51
NtRp4238
(dp4239
g54
(dp4240
g62
I1
ssg63
g4234
sg56
(lp4241
(lp4242
(g3819
(S't\x07\x00\x00\x00Preface'
tRp4243
I00
S'http://www.web2py.com/book/default/chapter/00'
p4244
tp4245
a(g3819
(S't\x0c\x00\x00\x00Introduction'
tRp4246
I00
S'http://www.web2py.com/book/default/chapter/01'
p4247
tp4248
a(g3819
(S't\x06\x00\x00\x00Python'
tRp4249
I00
S'http://www.web2py.com/book/default/chapter/02'
p4250
tp4251
a(g3819
(S't\x08\x00\x00\x00Overview'
tRp4252
I00
S'http://www.web2py.com/book/default/chapter/03'
p4253
tp4254
a(g3819
(S's\x08\x00\x00\x00The Core'
tRp4255
I00
S'http://www.web2py.com/book/default/chapter/04'
p4256
tp4257
a(g3819
(S's\t\x00\x00\x00The Views'
tRp4258
I00
S'http://www.web2py.com/book/default/chapter/05'
p4259
tp4260
a(g3819
(S's\x0e\x00\x00\x00Banco de dados'
tRp4261
I00
S'http://www.web2py.com/book/default/chapter/06'
p4262
tp4263
a(g3819
(S's\x14\x00\x00\x00Forms and Validators'
tRp4264
I00
S'http://www.web2py.com/book/default/chapter/07'
p4265
tp4266
a(g3819
(S's\r\x00\x00\x00Email and SMS'
tRp4267
I00
S'http://www.web2py.com/book/default/chapter/08'
p4268
tp4269
a(g3819
(S's\x0e\x00\x00\x00Access Control'
tRp4270
I00
S'http://www.web2py.com/book/default/chapter/09'
p4271
tp4272
a(g3819
(S't\x08\x00\x00\x00Services'
tRp4273
I00
S'http://www.web2py.com/book/default/chapter/10'
p4274
tp4275
a(g3819
(S's\x0c\x00\x00\x00Ajax Recipes'
tRp4276
I00
S'http://www.web2py.com/book/default/chapter/11'
p4277
tp4278
a(g3819
(S's\x16\x00\x00\x00Components and Plugins'
tRp4279
I00
S'http://www.web2py.com/book/default/chapter/12'
p4280
tp4281
a(g3819
(S's\x12\x00\x00\x00Deployment Recipes'
tRp4282
I00
S'http://www.web2py.com/book/default/chapter/13'
p4283
tp4284
a(g3819
(S's\r\x00\x00\x00Other Recipes'
tRp4285
I00
S'http://www.web2py.com/book/default/chapter/14'
p4286
tp4287
a(g3819
(S's\r\x00\x00\x00Buy this book'
tRp4288
I00
S'http://stores.lulu.com/web2py'
p4289
tp4290
aasbasbasbasbasbasbasbag49
(g65
g51
NtRp4291
(dp4292
g54
(dp4293
sg63
g3933
sg56
(lp4294
g49
(g70
g51
NtRp4295
(dp4296
g54
(dp4297
sg63
g4291
sg56
(lp4298
g49
(g50
g51
NtRp4299
(dp4300
g54
(dp4301
g62
I2
ssg63
g4295
sg56
(lp4302
g49
(g58
g51
NtRp4303
(dp4304
g54
(dp4305
g62
I1
ssg63
Nsg56
(lp4306
g49
(g65
g51
NtRp4307
(dp4308
g54
(dp4309
sg63
g4303
sg56
(lp4310
g49
(g70
g51
NtRp4311
(dp4312
g54
(dp4313
sg63
g4307
sg56
(lp4314
g49
(g50
g51
NtRp4315
(dp4316
g54
(dp4317
g62
I1
ssg63
g4311
sg56
(lp4318
g3819
(S't\t\x00\x00\x00Community'
tRp4319
asbasbasbag49
(g65
g51
NtRp4320
(dp4321
g54
(dp4322
sg63
g4303
sg56
(lp4323
g49
(g70
g51
NtRp4324
(dp4325
g54
(dp4326
sg63
g4320
sg56
(lp4327
g49
(g50
g51
NtRp4328
(dp4329
g54
(dp4330
g62
I1
ssg63
g4324
sg56
(lp4331
I00
asbasbasbag49
(g65
g51
NtRp4332
(dp4333
g54
(dp4334
sg63
g4303
sg56
(lp4335
g49
(g70
g51
NtRp4336
(dp4337
g54
(dp4338
sg63
g4332
sg56
(lp4339
g49
(g50
g51
NtRp4340
(dp4341
g54
(dp4342
g62
I1
ssg63
g4336
sg56
(lp4343
Nasbasbasbag49
(g65
g51
NtRp4344
(dp4345
g54
(dp4346
sg63
g4303
sg56
(lp4347
g49
(g70
g51
NtRp4348
(dp4349
g54
(dp4350
sg63
g4344
sg56
(lp4351
g49
(g50
g51
NtRp4352
(dp4353
g54
(dp4354
g62
I1
ssg63
g4348
sg56
(lp4355
(lp4356
(g3819
(S't\x06\x00\x00\x00Groups'
tRp4357
I00
S'http://www.web2py.com/examples/default/usergroups'
p4358
tp4359
a(g3819
(S't\x07\x00\x00\x00Twitter'
tRp4360
I00
S'http://twitter.com/web2py'
p4361
tp4362
a(g3819
(S's\t\x00\x00\x00Live Chat'
tRp4363
I00
S'http://webchat.freenode.net/?channels=web2py'
p4364
tp4365
aasbasbasbasbasbasbasbag49
(g65
g51
NtRp4366
(dp4367
g54
(dp4368
sg63
g3933
sg56
(lp4369
g49
(g70
g51
NtRp4370
(dp4371
g54
(dp4372
sg63
g4366
sg56
(lp4373
g49
(g50
g51
NtRp4374
(dp4375
g54
(dp4376
g62
I2
ssg63
g4370
sg56
(lp4377
g49
(g58
g51
NtRp4378
(dp4379
g54
(dp4380
g62
I1
ssg63
Nsg56
(lp4381
g49
(g65
g51
NtRp4382
(dp4383
g54
(dp4384
sg63
g4378
sg56
(lp4385
g49
(g70
g51
NtRp4386
(dp4387
g54
(dp4388
sg63
g4382
sg56
(lp4389
g49
(g50
g51
NtRp4390
(dp4391
g54
(dp4392
g62
I1
ssg63
g4386
sg56
(lp4393
g3819
(S't\x07\x00\x00\x00Plugins'
tRp4394
asbasbasbag49
(g65
g51
NtRp4395
(dp4396
g54
(dp4397
sg63
g4378
sg56
(lp4398
g49
(g70
g51
NtRp4399
(dp4400
g54
(dp4401
sg63
g4395
sg56
(lp4402
g49
(g50
g51
NtRp4403
(dp4404
g54
(dp4405
g62
I1
ssg63
g4399
sg56
(lp4406
I00
asbasbasbag49
(g65
g51
NtRp4407
(dp4408
g54
(dp4409
sg63
g4378
sg56
(lp4410
g49
(g70
g51
NtRp4411
(dp4412
g54
(dp4413
sg63
g4407
sg56
(lp4414
g49
(g50
g51
NtRp4415
(dp4416
g54
(dp4417
g62
I1
ssg63
g4411
sg56
(lp4418
Nasbasbasbag49
(g65
g51
NtRp4419
(dp4420
g54
(dp4421
sg63
g4378
sg56
(lp4422
g49
(g70
g51
NtRp4423
(dp4424
g54
(dp4425
sg63
g4419
sg56
(lp4426
g49
(g50
g51
NtRp4427
(dp4428
g54
(dp4429
g62
I1
ssg63
g4423
sg56
(lp4430
(lp4431
(S'plugin_wiki'
p4432
I00
S'http://web2py.com/examples/default/download'
p4433
tp4434
a(g3819
(S's\r\x00\x00\x00Other Plugins'
tRp4435
I00
g4165
tp4436
a(g3819
(S's\x0e\x00\x00\x00Layout Plugins'
tRp4437
I00
g4168
tp4438
aasbasbasbasbasbasbasbasbasbasbasbasbasbasbasbasbasbasbasbag49
(g65
g51
NtRp4439
(dp4440
g54
(dp4441
sg63
g3295
sg56
(lp4442
g49
(g70
g51
NtRp4443
(dp4444
g54
(dp4445
g74
g75
ssg63
g4439
sg56
(lp4446
S'meta'
p4447
asbag49
(g70
g51
NtRp4448
(dp4449
g54
(dp4450
g81
g82
ssg63
g4439
sg56
(lp4451
S':'
asbag49
(g70
g51
NtRp4452
(dp4453
g54
(dp4454
sg63
g4439
sg56
(lp4455
g49
(g50
g51
NtRp4456
(dp4457
g54
(dp4458
g62
I5
ssg63
g4452
sg56
(lp4459
g49
(g58
g51
NtRp4460
(dp4461
g54
(dp4462
g62
I4
ssg63
Nsg56
(lp4463
g49
(g65
g51
NtRp4464
(dp4465
g54
(dp4466
sg63
g4460
sg56
(lp4467
g49
(g70
g51
NtRp4468
(dp4469
g54
(dp4470
g74
g75
ssg63
g4464
sg56
(lp4471
S'author'
p4472
asbag49
(g70
g51
NtRp4473
(dp4474
g54
(dp4475
g81
g82
ssg63
g4464
sg56
(lp4476
S':'
asbag49
(g70
g51
NtRp4477
(dp4478
g54
(dp4479
sg63
g4464
sg56
(lp4480
g49
(g50
g51
NtRp4481
(dp4482
g54
(dp4483
g62
I4
ssg63
g4477
sg56
(lp4484
S'Your Name <you@example.com>'
p4485
asbasbasbag49
(g65
g51
NtRp4486
(dp4487
g54
(dp4488
sg63
g4460
sg56
(lp4489
g49
(g70
g51
NtRp4490
(dp4491
g54
(dp4492
g74
g75
ssg63
g4486
sg56
(lp4493
S'copyright'
p4494
asbag49
(g70
g51
NtRp4495
(dp4496
g54
(dp4497
g81
g82
ssg63
g4486
sg56
(lp4498
S':'
asbag49
(g70
g51
NtRp4499
(dp4500
g54
(dp4501
sg63
g4486
sg56
(lp4502
g49
(g50
g51
NtRp4503
(dp4504
g54
(dp4505
g62
I4
ssg63
g4499
sg56
(lp4506
S'Copyright 2011'
p4507
asbasbasbag49
(g65
g51
NtRp4508
(dp4509
g54
(dp4510
sg63
g4460
sg56
(lp4511
g49
(g70
g51
NtRp4512
(dp4513
g54
(dp4514
g74
g75
ssg63
g4508
sg56
(lp4515
S'description'
p4516
asbag49
(g70
g51
NtRp4517
(dp4518
g54
(dp4519
g81
g82
ssg63
g4508
sg56
(lp4520
S':'
asbag49
(g70
g51
NtRp4521
(dp4522
g54
(dp4523
sg63
g4508
sg56
(lp4524
g49
(g50
g51
NtRp4525
(dp4526
g54
(dp4527
g62
I4
ssg63
g4521
sg56
(lp4528
S'a cool new app'
p4529
asbasbasbag49
(g65
g51
NtRp4530
(dp4531
g54
(dp4532
sg63
g4460
sg56
(lp4533
g49
(g70
g51
NtRp4534
(dp4535
g54
(dp4536
g74
g75
ssg63
g4530
sg56
(lp4537
S'generator'
p4538
asbag49
(g70
g51
NtRp4539
(dp4540
g54
(dp4541
g81
g82
ssg63
g4530
sg56
(lp4542
S':'
asbag49
(g70
g51
NtRp4543
(dp4544
g54
(dp4545
sg63
g4530
sg56
(lp4546
g49
(g50
g51
NtRp4547
(dp4548
g54
(dp4549
g62
I4
ssg63
g4543
sg56
(lp4550
S'Web2py Web Framework'
p4551
asbasbasbag49
(g65
g51
NtRp4552
(dp4553
g54
(dp4554
sg63
g4460
sg56
(lp4555
g49
(g70
g51
NtRp4556
(dp4557
g54
(dp4558
g74
g75
ssg63
g4552
sg56
(lp4559
S'keywords'
p4560
asbag49
(g70
g51
NtRp4561
(dp4562
g54
(dp4563
g81
g82
ssg63
g4552
sg56
(lp4564
S':'
asbag49
(g70
g51
NtRp4565
(dp4566
g54
(dp4567
sg63
g4552
sg56
(lp4568
g49
(g50
g51
NtRp4569
(dp4570
g54
(dp4571
g62
I4
ssg63
g4565
sg56
(lp4572
S'web2py, python, framework'
p4573
asbasbasbasbasbasbasbag49
(g65
g51
NtRp4574
(dp4575
g54
(dp4576
sg63
g3295
sg56
(lp4577
g49
(g70
g51
NtRp4578
(dp4579
g54
(dp4580
g74
g75
ssg63
g4574
sg56
(lp4581
S'postprocessing'
p4582
asbag49
(g70
g51
NtRp4583
(dp4584
g54
(dp4585
g81
g82
ssg63
g4574
sg56
(lp4586
S':'
asbag49
(g70
g51
NtRp4587
(dp4588
g54
(dp4589
sg63
g4574
sg56
(lp4590
g49
(g50
g51
NtRp4591
(dp4592
g54
(dp4593
g62
I5
ssg63
g4587
sg56
(lp4594
g49
(g58
g51
NtRp4595
(dp4596
g54
(dp4597
g62
I4
ssg63
Nsg56
(lp4598
sbasbasbasbag49
(g65
g51
NtRp4599
(dp4600
g54
(dp4601
sg63
g3295
sg56
(lp4602
g49
(g70
g51
NtRp4603
(dp4604
g54
(dp4605
g74
g75
ssg63
g4599
sg56
(lp4606
S'session_file'
p4607
asbag49
(g70
g51
NtRp4608
(dp4609
g54
(dp4610
g81
g82
ssg63
g4599
sg56
(lp4611
S':'
asbag49
(g70
g51
NtRp4612
(dp4613
g54
(dp4614
sg63
g4599
sg56
(lp4615
g49
(g50
g51
NtRp4616
(dp4617
g54
(dp4618
g62
I5
ssg63
g4612
sg56
(lp4619
S"<open file 'C:\\web2py\\applications\\unioeste_code\\sessions\\127.0.0.1-ac0e57bf-2a61-4ff7-b75a-c2e830b4787a', mode 'rb+' at 0x06536728>"
p4620
asbasbasbag49
(g65
g51
NtRp4621
(dp4622
g54
(dp4623
sg63
g3295
sg56
(lp4624
g49
(g70
g51
NtRp4625
(dp4626
g54
(dp4627
g74
g75
ssg63
g4621
sg56
(lp4628
S'session_filename'
p4629
asbag49
(g70
g51
NtRp4630
(dp4631
g54
(dp4632
g81
g82
ssg63
g4621
sg56
(lp4633
S':'
asbag49
(g70
g51
NtRp4634
(dp4635
g54
(dp4636
sg63
g4621
sg56
(lp4637
g49
(g50
g51
NtRp4638
(dp4639
g54
(dp4640
g62
I5
ssg63
g4634
sg56
(lp4641
S'C:\\web2py\\applications\\unioeste_code\\sessions\\127.0.0.1-ac0e57bf-2a61-4ff7-b75a-c2e830b4787a'
p4642
asbasbasbag49
(g65
g51
NtRp4643
(dp4644
g54
(dp4645
sg63
g3295
sg56
(lp4646
g49
(g70
g51
NtRp4647
(dp4648
g54
(dp4649
g74
g75
ssg63
g4643
sg56
(lp4650
S'session_id'
p4651
asbag49
(g70
g51
NtRp4652
(dp4653
g54
(dp4654
g81
g82
ssg63
g4643
sg56
(lp4655
S':'
asbag49
(g70
g51
NtRp4656
(dp4657
g54
(dp4658
sg63
g4643
sg56
(lp4659
g49
(g50
g51
NtRp4660
(dp4661
g54
(dp4662
g62
I5
ssg63
g4656
sg56
(lp4663
S'127.0.0.1-ac0e57bf-2a61-4ff7-b75a-c2e830b4787a'
p4664
asbasbasbag49
(g65
g51
NtRp4665
(dp4666
g54
(dp4667
sg63
g3295
sg56
(lp4668
g49
(g70
g51
NtRp4669
(dp4670
g54
(dp4671
g74
g75
ssg63
g4665
sg56
(lp4672
S'session_id_name'
p4673
asbag49
(g70
g51
NtRp4674
(dp4675
g54
(dp4676
g81
g82
ssg63
g4665
sg56
(lp4677
S':'
asbag49
(g70
g51
NtRp4678
(dp4679
g54
(dp4680
sg63
g4665
sg56
(lp4681
g49
(g50
g51
NtRp4682
(dp4683
g54
(dp4684
g62
I5
ssg63
g4678
sg56
(lp4685
g3352
asbasbasbag49
(g65
g51
NtRp4686
(dp4687
g54
(dp4688
sg63
g3295
sg56
(lp4689
g49
(g70
g51
NtRp4690
(dp4691
g54
(dp4692
g74
g75
ssg63
g4686
sg56
(lp4693
S'session_locked'
p4694
asbag49
(g70
g51
NtRp4695
(dp4696
g54
(dp4697
g81
g82
ssg63
g4686
sg56
(lp4698
S':'
asbag49
(g70
g51
NtRp4699
(dp4700
g54
(dp4701
sg63
g4686
sg56
(lp4702
g49
(g50
g51
NtRp4703
(dp4704
g54
(dp4705
g62
I5
ssg63
g4699
sg56
(lp4706
g1478
asbasbasbag49
(g65
g51
NtRp4707
(dp4708
g54
(dp4709
sg63
g3295
sg56
(lp4710
g49
(g70
g51
NtRp4711
(dp4712
g54
(dp4713
g74
g75
ssg63
g4707
sg56
(lp4714
S'session_new'
p4715
asbag49
(g70
g51
NtRp4716
(dp4717
g54
(dp4718
g81
g82
ssg63
g4707
sg56
(lp4719
S':'
asbag49
(g70
g51
NtRp4720
(dp4721
g54
(dp4722
sg63
g4707
sg56
(lp4723
g49
(g50
g51
NtRp4724
(dp4725
g54
(dp4726
g62
I5
ssg63
g4720
sg56
(lp4727
g92
asbasbasbag49
(g65
g51
NtRp4728
(dp4729
g54
(dp4730
sg63
g3295
sg56
(lp4731
g49
(g70
g51
NtRp4732
(dp4733
g54
(dp4734
g74
g75
ssg63
g4728
sg56
(lp4735
S'status'
p4736
asbag49
(g70
g51
NtRp4737
(dp4738
g54
(dp4739
g81
g82
ssg63
g4728
sg56
(lp4740
S':'
asbag49
(g70
g51
NtRp4741
(dp4742
g54
(dp4743
sg63
g4728
sg56
(lp4744
g49
(g50
g51
NtRp4745
(dp4746
g54
(dp4747
g62
I5
ssg63
g4741
sg56
(lp4748
S'200'
p4749
asbasbasbag49
(g65
g51
NtRp4750
(dp4751
g54
(dp4752
sg63
g3295
sg56
(lp4753
g49
(g70
g51
NtRp4754
(dp4755
g54
(dp4756
g74
g75
ssg63
g4750
sg56
(lp4757
S'subtitle'
p4758
asbag49
(g70
g51
NtRp4759
(dp4760
g54
(dp4761
g81
g82
ssg63
g4750
sg56
(lp4762
S':'
asbag49
(g70
g51
NtRp4763
(dp4764
g54
(dp4765
sg63
g4750
sg56
(lp4766
g49
(g50
g51
NtRp4767
(dp4768
g54
(dp4769
g62
I5
ssg63
g4763
sg56
(lp4770
g3819
(S's\x0f\x00\x00\x00Personalize-me!'
tRp4771
asbasbasbag49
(g65
g51
NtRp4772
(dp4773
g54
(dp4774
sg63
g3295
sg56
(lp4775
g49
(g70
g51
NtRp4776
(dp4777
g54
(dp4778
g74
g75
ssg63
g4772
sg56
(lp4779
S'title'
p4780
asbag49
(g70
g51
NtRp4781
(dp4782
g54
(dp4783
g81
g82
ssg63
g4772
sg56
(lp4784
S':'
asbag49
(g70
g51
NtRp4785
(dp4786
g54
(dp4787
sg63
g4772
sg56
(lp4788
g49
(g50
g51
NtRp4789
(dp4790
g54
(dp4791
g62
I5
ssg63
g4785
sg56
(lp4792
S'Unioeste Code'
p4793
asbasbasbag49
(g65
g51
NtRp4794
(dp4795
g54
(dp4796
sg63
g3295
sg56
(lp4797
g49
(g70
g51
NtRp4798
(dp4799
g54
(dp4800
g74
g75
ssg63
g4794
sg56
(lp4801
g2164
asbag49
(g70
g51
NtRp4802
(dp4803
g54
(dp4804
g81
g82
ssg63
g4794
sg56
(lp4805
S':'
asbag49
(g70
g51
NtRp4806
(dp4807
g54
(dp4808
sg63
g4794
sg56
(lp4809
g49
(g50
g51
NtRp4810
(dp4811
g54
(dp4812
g62
I5
ssg63
g4806
sg56
(lp4813
g2177
asbasbasbag49
(g65
g51
NtRp4814
(dp4815
g54
(dp4816
sg63
g3295
sg56
(lp4817
g49
(g70
g51
NtRp4818
(dp4819
g54
(dp4820
g74
g75
ssg63
g4814
sg56
(lp4821
S'view'
p4822
asbag49
(g70
g51
NtRp4823
(dp4824
g54
(dp4825
g81
g82
ssg63
g4814
sg56
(lp4826
S':'
asbag49
(g70
g51
NtRp4827
(dp4828
g54
(dp4829
sg63
g4814
sg56
(lp4830
g49
(g50
g51
NtRp4831
(dp4832
g54
(dp4833
g62
I5
ssg63
g4827
sg56
(lp4834
S'default/Problem.html'
p4835
asbasbasbasbasbsS'locals'
p4836
(dp4837
S'problem'
p4838
S'None'
p4839
sssS'traceback'
p4840
S'Traceback (most recent call last):\n  File "gluon/restricted.py", line 205, in restricted\n  File "C:\\web2py\\applications\\unioeste_code\\controllers/default.py", line 93, in <module>\n  File "gluon/globals.py", line 173, in <lambda>\n  File "gluon/tools.py", line 2575, in f\n  File "C:\\web2py\\applications\\unioeste_code\\controllers/default.py", line 19, in Problem\nAttributeError: \'NoneType\' object has no attribute \'id\'\n'
p4841
s.