(dp1
S'output'
p2
S"<type 'exceptions.SyntaxError'> keyword can't be an expression (default/index.html, line 4)"
p3
sS'layer'
p4
S'C:\\web2py\\applications\\unioeste_code\\views\\default/index.html'
p5
sS'code'
p6
S'response.write(\'<!DOCTYPE html>\\r\\n<html lang="en">\\r\\n  <head>\\r\\n    <meta charset="utf-8">\\r\\n    <title>\', escape=False)\nresponse.write(response.title or request.application)\nresponse.write(\'</title>\\r\\n    <meta name="viewport" content="width=device-width, initial-scale=1.0">\\r\\n    <meta name="description" content="">\\r\\n    <meta name="author" content="">\\r\\n\\r\\n    <!-- Le HTML5 shim, for IE6-8 support of HTML5 elements -->\\r\\n    <!--[if lt IE 9]>\\r\\n      <script src="http://html5shim.googlecode.com/svn/trunk/html5.js"></script>\\r\\n    <![endif]-->\\r\\n\\r\\n    <!-- Le fav and touch icons -->\\r\\n    <link rel="shortcut icon" href="../assets/ico/favicon.ico">\\r\\n    <link rel="apple-touch-icon-precomposed" sizes="144x144" href="../assets/ico/apple-touch-icon-144-precomposed.png">\\r\\n    <link rel="apple-touch-icon-precomposed" sizes="114x114" href="../assets/ico/apple-touch-icon-114-precomposed.png">\\r\\n    <link rel="apple-touch-icon-precomposed" sizes="72x72" href="../assets/ico/apple-touch-icon-72-precomposed.png">\\r\\n    <link rel="apple-touch-icon-precomposed" href="../assets/ico/apple-touch-icon-57-precomposed.png">\\r\\n\\r\\n    <!-- include stylesheets -->\\r\\n    \', escape=False)\nresponse.write(response.files.append(URL(\'static\',\'css/bootstrap.css\'))\n=response.files.append(URL(\'static\',\'js/bootstrap.js\')))\nresponse.write(\'\\r\\n\\r\\n    \', escape=False)\n# using sidebars need to know what sidebar you want to use\nleft_sidebar_enabled = globals().get(\'left_sidebar_enabled\',False)\nright_sidebar_enabled = globals().get(\'right_sidebar_enabled\',False)\nmiddle_columns = {0:\'sixteen\',1:\'twelve\',2:\'eight\'}[\n(left_sidebar_enabled and 1 or 0)+(right_sidebar_enabled and 1 or 0)]\nresponse.write(\'\\r\\n\\r\\n  </head>\\r\\n\\r\\n  <body>\\r\\n\\r\\n    <div class="navbar navbar-fixed-top">\\r\\n      <div class="navbar-inner">\\r\\n        <div class="container">\\r\\n          <a class="btn btn-navbar" data-toggle="collapse" data-target=".nav-collapse">\\r\\n            <span class="icon-bar"></span>\\r\\n            <span class="icon-bar"></span>\\r\\n            <span class="icon-bar"></span>\\r\\n          </a>\\r\\n          <a class="brand" href="#">Project name</a>\\r\\n          <div class="nav-collapse">\\r\\n            <ul class="nav">\\r\\n              <li class="active"><a href="#">Home</a></li>\\r\\n              <li><a href="#about">About</a></li>\\r\\n              <li><a href="#contact">Contact</a></li>\\r\\n            </ul>\\r\\n          </div><!--/.nav-collapse -->\\r\\n        </div>\\r\\n      </div>\\r\\n    </div>\\r\\n\\r\\n    <div class="container">\\r\\n\\r\\n      <h1>Bootstrap starter template</h1>\\r\\n      <p>Use this document as a way to quick start any new project.<br> All you get is this message and a barebones HTML document.</p>\\r\\n\\r\\n      \', escape=False)\nresponse.write(\'\\r\\n      \', escape=False)\nresponse.write(\'\\n\\n\\n\', escape=False)\nresponse.write(H1(T("Current Problems")))\nresponse.write(\'\\n<ul>\\n\', escape=False)\nfor problem in problems:\n    response.write(\'\\n\', escape=False)\n    user = db(db.auth_user.id==problem.created_by).select().first()\n    response.write(\'\\n\', escape=False)\n    response.write(LI(A(problem.title, _style="font-weight:bold;",_href=URL("Problem", args=problem.id)), " by " + user.first_name + " " + user.last_name + " ", SPAN(prettydate(problem.created_on), _style="color:green;font-weight:bold;")))\n    response.write(\'\\n\', escape=False)\n    pass\nresponse.write(\'\\n\\n\\n</ul>\\n\\n\', escape=False)\nresponse.write(\'\\r\\n      \', escape=False)\nresponse.write(\'\\r\\n\\r\\n    </div> <!-- /container -->\\r\\n\\r\\n  </body>\\r\\n</html>\\r\\n\\r\\n\', escape=False)'
p7
sS'snapshot'
p8
(dp9
S'exception'
p10
(dp11
S'__getslice__'
p12
S"<method-wrapper '__getslice__' of exceptions.SyntaxError object at 0x05F98B70>"
p13
sS'text'
p14
S'\'{{=H1(T("Current Problems"))}}\\n\''
p15
sS'__str__'
p16
S"<method-wrapper '__str__' of exceptions.SyntaxError object at 0x05F98B70>"
p17
sS'__reduce__'
p18
S'<built-in method __reduce__ of exceptions.SyntaxError object at 0x05F98B70>'
p19
sS'__dict__'
p20
S'{}'
p21
sS'__init__'
p22
S"<method-wrapper '__init__' of exceptions.SyntaxError object at 0x05F98B70>"
p23
sS'__setattr__'
p24
S"<method-wrapper '__setattr__' of exceptions.SyntaxError object at 0x05F98B70>"
p25
sS'__reduce_ex__'
p26
S'<built-in method __reduce_ex__ of exceptions.SyntaxError object at 0x05F98B70>'
p27
sS'__new__'
p28
S'<built-in method __new__ of type object at 0x1E1CDBD0>'
p29
sS'__class__'
p30
S"<type 'exceptions.SyntaxError'>"
p31
sS'filename'
p32
S"r'C:\\web2py\\applications\\unioeste_code\\views\\default/index.html'"
p33
sS'lineno'
p34
S'4'
sS'msg'
p35
S'"keyword can\'t be an expression"'
p36
sS'__doc__'
p37
S"'Invalid syntax.'"
p38
sS'__getitem__'
p39
S"<method-wrapper '__getitem__' of exceptions.SyntaxError object at 0x05F98B70>"
p40
sS'__setstate__'
p41
S'<built-in method __setstate__ of exceptions.SyntaxError object at 0x05F98B70>'
p42
sS'__getattribute__'
p43
S"<method-wrapper '__getattribute__' of exceptions.SyntaxError object at 0x05F98B70>"
p44
sS'print_file_and_line'
p45
S'None'
p46
sS'args'
p47
S'("keyword can\'t be an expression", (r\'C:\\web2py\\applications\\unioeste_code\\views\\default/index.html\', 4, None, \'{{=H1(T("Current Problems"))}}\\n\'))'
p48
sS'offset'
p49
S'None'
p50
sS'__delattr__'
p51
S"<method-wrapper '__delattr__' of exceptions.SyntaxError object at 0x05F98B70>"
p52
sS'__repr__'
p53
S"<method-wrapper '__repr__' of exceptions.SyntaxError object at 0x05F98B70>"
p54
sS'__hash__'
p55
S"<method-wrapper '__hash__' of exceptions.SyntaxError object at 0x05F98B70>"
p56
ssS'evalue'
p57
S"keyword can't be an expression (default/index.html, line 4)"
p58
sS'request'
p59
ccopy_reg
_reconstructor
p60
(cgluon.html
BEAUTIFY
p61
c__builtin__
object
p62
NtRp63
(dp64
S'attributes'
p65
(dp66
sS'components'
p67
(lp68
g60
(cgluon.html
TABLE
p69
g62
NtRp70
(dp71
g65
(dp72
S'level'
p73
I5
ssS'parent'
p74
Nsg67
(lp75
g60
(cgluon.html
TR
p76
g62
NtRp77
(dp78
g65
(dp79
sg74
g70
sg67
(lp80
g60
(cgluon.html
TD
p81
g62
NtRp82
(dp83
g65
(dp84
S'_style'
p85
S'font-weight:bold;vertical-align:top'
p86
ssg74
g77
sg67
(lp87
S'ajax'
p88
asbag60
(g81
g62
NtRp89
(dp90
g65
(dp91
S'_valign'
p92
S'top'
p93
ssg74
g77
sg67
(lp94
S':'
asbag60
(g81
g62
NtRp95
(dp96
g65
(dp97
sg74
g77
sg67
(lp98
g60
(g61
g62
NtRp99
(dp100
g65
(dp101
g73
I5
ssg74
g95
sg67
(lp102
S'False'
p103
asbasbasbag60
(g76
g62
NtRp104
(dp105
g65
(dp106
sg74
g70
sg67
(lp107
g60
(g81
g62
NtRp108
(dp109
g65
(dp110
g85
g86
ssg74
g104
sg67
(lp111
S'application'
p112
asbag60
(g81
g62
NtRp113
(dp114
g65
(dp115
g92
g93
ssg74
g104
sg67
(lp116
S':'
asbag60
(g81
g62
NtRp117
(dp118
g65
(dp119
sg74
g104
sg67
(lp120
g60
(g61
g62
NtRp121
(dp122
g65
(dp123
g73
I5
ssg74
g117
sg67
(lp124
S'unioeste_code'
p125
asbasbasbag60
(g76
g62
NtRp126
(dp127
g65
(dp128
sg74
g70
sg67
(lp129
g60
(g81
g62
NtRp130
(dp131
g65
(dp132
g85
g86
ssg74
g126
sg67
(lp133
g47
asbag60
(g81
g62
NtRp134
(dp135
g65
(dp136
g92
g93
ssg74
g126
sg67
(lp137
S':'
asbag60
(g81
g62
NtRp138
(dp139
g65
(dp140
sg74
g126
sg67
(lp141
g60
(g61
g62
NtRp142
(dp143
g65
(dp144
g73
I5
ssg74
g138
sg67
(lp145
g60
(g69
g62
NtRp146
(dp147
g65
(dp148
g73
I4
ssg74
Nsg67
(lp149
sbasbasbasbag60
(g76
g62
NtRp150
(dp151
g65
(dp152
sg74
g70
sg67
(lp153
g60
(g81
g62
NtRp154
(dp155
g65
(dp156
g85
g86
ssg74
g150
sg67
(lp157
S'body'
p158
asbag60
(g81
g62
NtRp159
(dp160
g65
(dp161
g92
g93
ssg74
g150
sg67
(lp162
S':'
asbag60
(g81
g62
NtRp163
(dp164
g65
(dp165
sg74
g150
sg67
(lp166
g60
(g61
g62
NtRp167
(dp168
g65
(dp169
g73
I5
ssg74
g163
sg67
(lp170
S'<cStringIO.StringO object at 0x06078880>'
p171
asbasbasbag60
(g76
g62
NtRp172
(dp173
g65
(dp174
sg74
g70
sg67
(lp175
g60
(g81
g62
NtRp176
(dp177
g65
(dp178
g85
g86
ssg74
g172
sg67
(lp179
S'client'
p180
asbag60
(g81
g62
NtRp181
(dp182
g65
(dp183
g92
g93
ssg74
g172
sg67
(lp184
S':'
asbag60
(g81
g62
NtRp185
(dp186
g65
(dp187
sg74
g172
sg67
(lp188
g60
(g61
g62
NtRp189
(dp190
g65
(dp191
g73
I5
ssg74
g185
sg67
(lp192
S'127.0.0.1'
p193
asbasbasbag60
(g76
g62
NtRp194
(dp195
g65
(dp196
sg74
g70
sg67
(lp197
g60
(g81
g62
NtRp198
(dp199
g65
(dp200
g85
g86
ssg74
g194
sg67
(lp201
S'controller'
p202
asbag60
(g81
g62
NtRp203
(dp204
g65
(dp205
g92
g93
ssg74
g194
sg67
(lp206
S':'
asbag60
(g81
g62
NtRp207
(dp208
g65
(dp209
sg74
g194
sg67
(lp210
g60
(g61
g62
NtRp211
(dp212
g65
(dp213
g73
I5
ssg74
g207
sg67
(lp214
S'default'
p215
asbasbasbag60
(g76
g62
NtRp216
(dp217
g65
(dp218
sg74
g70
sg67
(lp219
g60
(g81
g62
NtRp220
(dp221
g65
(dp222
g85
g86
ssg74
g216
sg67
(lp223
S'cookies'
p224
asbag60
(g81
g62
NtRp225
(dp226
g65
(dp227
g92
g93
ssg74
g216
sg67
(lp228
S':'
asbag60
(g81
g62
NtRp229
(dp230
g65
(dp231
sg74
g216
sg67
(lp232
g60
(g61
g62
NtRp233
(dp234
g65
(dp235
g73
I5
ssg74
g229
sg67
(lp236
g60
(g69
g62
NtRp237
(dp238
g65
(dp239
g73
I4
ssg74
Nsg67
(lp240
g60
(g76
g62
NtRp241
(dp242
g65
(dp243
sg74
g237
sg67
(lp244
g60
(g81
g62
NtRp245
(dp246
g65
(dp247
g85
g86
ssg74
g241
sg67
(lp248
S'session_id_admin'
p249
asbag60
(g81
g62
NtRp250
(dp251
g65
(dp252
g92
g93
ssg74
g241
sg67
(lp253
S':'
asbag60
(g81
g62
NtRp254
(dp255
g65
(dp256
sg74
g241
sg67
(lp257
g60
(g61
g62
NtRp258
(dp259
g65
(dp260
g73
I4
ssg74
g254
sg67
(lp261
g60
(g69
g62
NtRp262
(dp263
g65
(dp264
g73
I3
ssg74
Nsg67
(lp265
g60
(g76
g62
NtRp266
(dp267
g65
(dp268
sg74
g262
sg67
(lp269
g60
(g81
g62
NtRp270
(dp271
g65
(dp272
g85
g86
ssg74
g266
sg67
(lp273
S'comment'
p274
asbag60
(g81
g62
NtRp275
(dp276
g65
(dp277
g92
g93
ssg74
g266
sg67
(lp278
S':'
asbag60
(g81
g62
NtRp279
(dp280
g65
(dp281
sg74
g266
sg67
(lp282
g60
(g61
g62
NtRp283
(dp284
g65
(dp285
g73
I3
ssg74
g279
sg67
(lp286
S''
asbasbasbag60
(g76
g62
NtRp287
(dp288
g65
(dp289
sg74
g262
sg67
(lp290
g60
(g81
g62
NtRp291
(dp292
g65
(dp293
g85
g86
ssg74
g287
sg67
(lp294
S'domain'
p295
asbag60
(g81
g62
NtRp296
(dp297
g65
(dp298
g92
g93
ssg74
g287
sg67
(lp299
S':'
asbag60
(g81
g62
NtRp300
(dp301
g65
(dp302
sg74
g287
sg67
(lp303
g60
(g61
g62
NtRp304
(dp305
g65
(dp306
g73
I3
ssg74
g300
sg67
(lp307
S''
asbasbasbag60
(g76
g62
NtRp308
(dp309
g65
(dp310
sg74
g262
sg67
(lp311
g60
(g81
g62
NtRp312
(dp313
g65
(dp314
g85
g86
ssg74
g308
sg67
(lp315
S'expires'
p316
asbag60
(g81
g62
NtRp317
(dp318
g65
(dp319
g92
g93
ssg74
g308
sg67
(lp320
S':'
asbag60
(g81
g62
NtRp321
(dp322
g65
(dp323
sg74
g308
sg67
(lp324
g60
(g61
g62
NtRp325
(dp326
g65
(dp327
g73
I3
ssg74
g321
sg67
(lp328
S''
asbasbasbag60
(g76
g62
NtRp329
(dp330
g65
(dp331
sg74
g262
sg67
(lp332
g60
(g81
g62
NtRp333
(dp334
g65
(dp335
g85
g86
ssg74
g329
sg67
(lp336
S'max-age'
p337
asbag60
(g81
g62
NtRp338
(dp339
g65
(dp340
g92
g93
ssg74
g329
sg67
(lp341
S':'
asbag60
(g81
g62
NtRp342
(dp343
g65
(dp344
sg74
g329
sg67
(lp345
g60
(g61
g62
NtRp346
(dp347
g65
(dp348
g73
I3
ssg74
g342
sg67
(lp349
S''
asbasbasbag60
(g76
g62
NtRp350
(dp351
g65
(dp352
sg74
g262
sg67
(lp353
g60
(g81
g62
NtRp354
(dp355
g65
(dp356
g85
g86
ssg74
g350
sg67
(lp357
S'path'
p358
asbag60
(g81
g62
NtRp359
(dp360
g65
(dp361
g92
g93
ssg74
g350
sg67
(lp362
S':'
asbag60
(g81
g62
NtRp363
(dp364
g65
(dp365
sg74
g350
sg67
(lp366
g60
(g61
g62
NtRp367
(dp368
g65
(dp369
g73
I3
ssg74
g363
sg67
(lp370
S''
asbasbasbag60
(g76
g62
NtRp371
(dp372
g65
(dp373
sg74
g262
sg67
(lp374
g60
(g81
g62
NtRp375
(dp376
g65
(dp377
g85
g86
ssg74
g371
sg67
(lp378
S'secure'
p379
asbag60
(g81
g62
NtRp380
(dp381
g65
(dp382
g92
g93
ssg74
g371
sg67
(lp383
S':'
asbag60
(g81
g62
NtRp384
(dp385
g65
(dp386
sg74
g371
sg67
(lp387
g60
(g61
g62
NtRp388
(dp389
g65
(dp390
g73
I3
ssg74
g384
sg67
(lp391
S''
asbasbasbag60
(g76
g62
NtRp392
(dp393
g65
(dp394
sg74
g262
sg67
(lp395
g60
(g81
g62
NtRp396
(dp397
g65
(dp398
g85
g86
ssg74
g392
sg67
(lp399
S'version'
p400
asbag60
(g81
g62
NtRp401
(dp402
g65
(dp403
g92
g93
ssg74
g392
sg67
(lp404
S':'
asbag60
(g81
g62
NtRp405
(dp406
g65
(dp407
sg74
g392
sg67
(lp408
g60
(g61
g62
NtRp409
(dp410
g65
(dp411
g73
I3
ssg74
g405
sg67
(lp412
S''
asbasbasbasbasbasbasbag60
(g76
g62
NtRp413
(dp414
g65
(dp415
sg74
g237
sg67
(lp416
g60
(g81
g62
NtRp417
(dp418
g65
(dp419
g85
g86
ssg74
g413
sg67
(lp420
S'session_id_unioeste_code'
p421
asbag60
(g81
g62
NtRp422
(dp423
g65
(dp424
g92
g93
ssg74
g413
sg67
(lp425
S':'
asbag60
(g81
g62
NtRp426
(dp427
g65
(dp428
sg74
g413
sg67
(lp429
g60
(g61
g62
NtRp430
(dp431
g65
(dp432
g73
I4
ssg74
g426
sg67
(lp433
g60
(g69
g62
NtRp434
(dp435
g65
(dp436
g73
I3
ssg74
Nsg67
(lp437
g60
(g76
g62
NtRp438
(dp439
g65
(dp440
sg74
g434
sg67
(lp441
g60
(g81
g62
NtRp442
(dp443
g65
(dp444
g85
g86
ssg74
g438
sg67
(lp445
g274
asbag60
(g81
g62
NtRp446
(dp447
g65
(dp448
g92
g93
ssg74
g438
sg67
(lp449
S':'
asbag60
(g81
g62
NtRp450
(dp451
g65
(dp452
sg74
g438
sg67
(lp453
g60
(g61
g62
NtRp454
(dp455
g65
(dp456
g73
I3
ssg74
g450
sg67
(lp457
S''
asbasbasbag60
(g76
g62
NtRp458
(dp459
g65
(dp460
sg74
g434
sg67
(lp461
g60
(g81
g62
NtRp462
(dp463
g65
(dp464
g85
g86
ssg74
g458
sg67
(lp465
g295
asbag60
(g81
g62
NtRp466
(dp467
g65
(dp468
g92
g93
ssg74
g458
sg67
(lp469
S':'
asbag60
(g81
g62
NtRp470
(dp471
g65
(dp472
sg74
g458
sg67
(lp473
g60
(g61
g62
NtRp474
(dp475
g65
(dp476
g73
I3
ssg74
g470
sg67
(lp477
S''
asbasbasbag60
(g76
g62
NtRp478
(dp479
g65
(dp480
sg74
g434
sg67
(lp481
g60
(g81
g62
NtRp482
(dp483
g65
(dp484
g85
g86
ssg74
g478
sg67
(lp485
g316
asbag60
(g81
g62
NtRp486
(dp487
g65
(dp488
g92
g93
ssg74
g478
sg67
(lp489
S':'
asbag60
(g81
g62
NtRp490
(dp491
g65
(dp492
sg74
g478
sg67
(lp493
g60
(g61
g62
NtRp494
(dp495
g65
(dp496
g73
I3
ssg74
g490
sg67
(lp497
S''
asbasbasbag60
(g76
g62
NtRp498
(dp499
g65
(dp500
sg74
g434
sg67
(lp501
g60
(g81
g62
NtRp502
(dp503
g65
(dp504
g85
g86
ssg74
g498
sg67
(lp505
g337
asbag60
(g81
g62
NtRp506
(dp507
g65
(dp508
g92
g93
ssg74
g498
sg67
(lp509
S':'
asbag60
(g81
g62
NtRp510
(dp511
g65
(dp512
sg74
g498
sg67
(lp513
g60
(g61
g62
NtRp514
(dp515
g65
(dp516
g73
I3
ssg74
g510
sg67
(lp517
S''
asbasbasbag60
(g76
g62
NtRp518
(dp519
g65
(dp520
sg74
g434
sg67
(lp521
g60
(g81
g62
NtRp522
(dp523
g65
(dp524
g85
g86
ssg74
g518
sg67
(lp525
g358
asbag60
(g81
g62
NtRp526
(dp527
g65
(dp528
g92
g93
ssg74
g518
sg67
(lp529
S':'
asbag60
(g81
g62
NtRp530
(dp531
g65
(dp532
sg74
g518
sg67
(lp533
g60
(g61
g62
NtRp534
(dp535
g65
(dp536
g73
I3
ssg74
g530
sg67
(lp537
S''
asbasbasbag60
(g76
g62
NtRp538
(dp539
g65
(dp540
sg74
g434
sg67
(lp541
g60
(g81
g62
NtRp542
(dp543
g65
(dp544
g85
g86
ssg74
g538
sg67
(lp545
g379
asbag60
(g81
g62
NtRp546
(dp547
g65
(dp548
g92
g93
ssg74
g538
sg67
(lp549
S':'
asbag60
(g81
g62
NtRp550
(dp551
g65
(dp552
sg74
g538
sg67
(lp553
g60
(g61
g62
NtRp554
(dp555
g65
(dp556
g73
I3
ssg74
g550
sg67
(lp557
S''
asbasbasbag60
(g76
g62
NtRp558
(dp559
g65
(dp560
sg74
g434
sg67
(lp561
g60
(g81
g62
NtRp562
(dp563
g65
(dp564
g85
g86
ssg74
g558
sg67
(lp565
g400
asbag60
(g81
g62
NtRp566
(dp567
g65
(dp568
g92
g93
ssg74
g558
sg67
(lp569
S':'
asbag60
(g81
g62
NtRp570
(dp571
g65
(dp572
sg74
g558
sg67
(lp573
g60
(g61
g62
NtRp574
(dp575
g65
(dp576
g73
I3
ssg74
g570
sg67
(lp577
S''
asbasbasbasbasbasbasbasbasbasbasbag60
(g76
g62
NtRp578
(dp579
g65
(dp580
sg74
g70
sg67
(lp581
g60
(g81
g62
NtRp582
(dp583
g65
(dp584
g85
g86
ssg74
g578
sg67
(lp585
S'env'
p586
asbag60
(g81
g62
NtRp587
(dp588
g65
(dp589
g92
g93
ssg74
g578
sg67
(lp590
S':'
asbag60
(g81
g62
NtRp591
(dp592
g65
(dp593
sg74
g578
sg67
(lp594
g60
(g61
g62
NtRp595
(dp596
g65
(dp597
g73
I5
ssg74
g591
sg67
(lp598
g60
(g69
g62
NtRp599
(dp600
g65
(dp601
g73
I4
ssg74
Nsg67
(lp602
g60
(g76
g62
NtRp603
(dp604
g65
(dp605
sg74
g599
sg67
(lp606
g60
(g81
g62
NtRp607
(dp608
g65
(dp609
g85
g86
ssg74
g603
sg67
(lp610
S'app_folders'
p611
asbag60
(g81
g62
NtRp612
(dp613
g65
(dp614
g92
g93
ssg74
g603
sg67
(lp615
S':'
asbag60
(g81
g62
NtRp616
(dp617
g65
(dp618
sg74
g603
sg67
(lp619
g60
(g61
g62
NtRp620
(dp621
g65
(dp622
g73
I4
ssg74
g616
sg67
(lp623
S"set(['C:\\\\web2py\\\\applications\\\\admin\\\\', 'C:\\\\web2py\\\\applications\\\\welcome\\\\', 'C:\\\\web2py\\\\applications\\\\unioeste_code\\\\'])"
p624
asbasbasbag60
(g76
g62
NtRp625
(dp626
g65
(dp627
sg74
g599
sg67
(lp628
g60
(g81
g62
NtRp629
(dp630
g65
(dp631
g85
g86
ssg74
g625
sg67
(lp632
S'applications_parent'
p633
asbag60
(g81
g62
NtRp634
(dp635
g65
(dp636
g92
g93
ssg74
g625
sg67
(lp637
S':'
asbag60
(g81
g62
NtRp638
(dp639
g65
(dp640
sg74
g625
sg67
(lp641
g60
(g61
g62
NtRp642
(dp643
g65
(dp644
g73
I4
ssg74
g638
sg67
(lp645
S'C:\\web2py'
p646
asbasbasbag60
(g76
g62
NtRp647
(dp648
g65
(dp649
sg74
g599
sg67
(lp650
g60
(g81
g62
NtRp651
(dp652
g65
(dp653
g85
g86
ssg74
g647
sg67
(lp654
S'cmd_args'
p655
asbag60
(g81
g62
NtRp656
(dp657
g65
(dp658
g92
g93
ssg74
g647
sg67
(lp659
S':'
asbag60
(g81
g62
NtRp660
(dp661
g65
(dp662
sg74
g647
sg67
(lp663
g60
(g61
g62
NtRp664
(dp665
g65
(dp666
g73
I4
ssg74
g660
sg67
(lp667
g60
(g69
g62
NtRp668
(dp669
g65
(dp670
g73
I3
ssg74
Nsg67
(lp671
sbasbasbasbag60
(g76
g62
NtRp672
(dp673
g65
(dp674
sg74
g599
sg67
(lp675
g60
(g81
g62
NtRp676
(dp677
g65
(dp678
g85
g86
ssg74
g672
sg67
(lp679
S'cmd_options'
p680
asbag60
(g81
g62
NtRp681
(dp682
g65
(dp683
g92
g93
ssg74
g672
sg67
(lp684
S':'
asbag60
(g81
g62
NtRp685
(dp686
g65
(dp687
sg74
g672
sg67
(lp688
g60
(g61
g62
NtRp689
(dp690
g65
(dp691
g73
I4
ssg74
g685
sg67
(lp692
S"<Values at 0x30ec300: {'verbose': False, 'ip': '127.0.0.1', 'shutdown_timeout': 5, 'taskbar': False, 'nocron': False, 'pid_filename': 'httpserver.pid', 'maxthreads': None, 'softcron': False, 'server_name': 'Pedro-PC', 'bpython': False, 'nogui': False, 'port': 8000, 'extcron': False, 'debuglevel': 30, 'test': None, 'folder': 'C:\\\\web2py', 'config': '', 'import_models': False, 'winservice': '', 'shell': None, 'run': '', 'log_filename': 'httpserver.log', 'args': [''], 'socket_timeout': 5, 'ssl_ca_certificate': None, 'scheduler': None, 'profiler_filename': None, 'ssl_private_key': '', 'password': '<ask>', 'request_queue_size': 5, 'ssl_certificate': '', 'cronjob': False, 'numthreads': None, 'quiet': False, 'interfaces': None, 'minthreads': None, 'timeout': 10, 'plain': False, 'nobanner': False}>"
p693
asbasbasbag60
(g76
g62
NtRp694
(dp695
g65
(dp696
sg74
g599
sg67
(lp697
g60
(g81
g62
NtRp698
(dp699
g65
(dp700
g85
g86
ssg74
g694
sg67
(lp701
S'db_sessions'
p702
asbag60
(g81
g62
NtRp703
(dp704
g65
(dp705
g92
g93
ssg74
g694
sg67
(lp706
S':'
asbag60
(g81
g62
NtRp707
(dp708
g65
(dp709
sg74
g694
sg67
(lp710
g60
(g61
g62
NtRp711
(dp712
g65
(dp713
g73
I4
ssg74
g707
sg67
(lp714
S'set([])'
p715
asbasbasbag60
(g76
g62
NtRp716
(dp717
g65
(dp718
sg74
g599
sg67
(lp719
g60
(g81
g62
NtRp720
(dp721
g65
(dp722
g85
g86
ssg74
g716
sg67
(lp723
S'debugging'
p724
asbag60
(g81
g62
NtRp725
(dp726
g65
(dp727
g92
g93
ssg74
g716
sg67
(lp728
S':'
asbag60
(g81
g62
NtRp729
(dp730
g65
(dp731
sg74
g716
sg67
(lp732
g60
(g61
g62
NtRp733
(dp734
g65
(dp735
g73
I4
ssg74
g729
sg67
(lp736
g103
asbasbasbag60
(g76
g62
NtRp737
(dp738
g65
(dp739
sg74
g599
sg67
(lp740
g60
(g81
g62
NtRp741
(dp742
g65
(dp743
g85
g86
ssg74
g737
sg67
(lp744
S'gluon_parent'
p745
asbag60
(g81
g62
NtRp746
(dp747
g65
(dp748
g92
g93
ssg74
g737
sg67
(lp749
S':'
asbag60
(g81
g62
NtRp750
(dp751
g65
(dp752
sg74
g737
sg67
(lp753
g60
(g61
g62
NtRp754
(dp755
g65
(dp756
g73
I4
ssg74
g750
sg67
(lp757
S'C:\\web2py'
p758
asbasbasbag60
(g76
g62
NtRp759
(dp760
g65
(dp761
sg74
g599
sg67
(lp762
g60
(g81
g62
NtRp763
(dp764
g65
(dp765
g85
g86
ssg74
g759
sg67
(lp766
S'http_accept'
p767
asbag60
(g81
g62
NtRp768
(dp769
g65
(dp770
g92
g93
ssg74
g759
sg67
(lp771
S':'
asbag60
(g81
g62
NtRp772
(dp773
g65
(dp774
sg74
g759
sg67
(lp775
g60
(g61
g62
NtRp776
(dp777
g65
(dp778
g73
I4
ssg74
g772
sg67
(lp779
S'text/html,application/xhtml+xml,application/xml;q=0.9,*/*;q=0.8'
p780
asbasbasbag60
(g76
g62
NtRp781
(dp782
g65
(dp783
sg74
g599
sg67
(lp784
g60
(g81
g62
NtRp785
(dp786
g65
(dp787
g85
g86
ssg74
g781
sg67
(lp788
S'http_accept_charset'
p789
asbag60
(g81
g62
NtRp790
(dp791
g65
(dp792
g92
g93
ssg74
g781
sg67
(lp793
S':'
asbag60
(g81
g62
NtRp794
(dp795
g65
(dp796
sg74
g781
sg67
(lp797
g60
(g61
g62
NtRp798
(dp799
g65
(dp800
g73
I4
ssg74
g794
sg67
(lp801
S'ISO-8859-1,utf-8;q=0.7,*;q=0.3'
p802
asbasbasbag60
(g76
g62
NtRp803
(dp804
g65
(dp805
sg74
g599
sg67
(lp806
g60
(g81
g62
NtRp807
(dp808
g65
(dp809
g85
g86
ssg74
g803
sg67
(lp810
S'http_accept_encoding'
p811
asbag60
(g81
g62
NtRp812
(dp813
g65
(dp814
g92
g93
ssg74
g803
sg67
(lp815
S':'
asbag60
(g81
g62
NtRp816
(dp817
g65
(dp818
sg74
g803
sg67
(lp819
g60
(g61
g62
NtRp820
(dp821
g65
(dp822
g73
I4
ssg74
g816
sg67
(lp823
S'gzip,deflate,sdch'
p824
asbasbasbag60
(g76
g62
NtRp825
(dp826
g65
(dp827
sg74
g599
sg67
(lp828
g60
(g81
g62
NtRp829
(dp830
g65
(dp831
g85
g86
ssg74
g825
sg67
(lp832
S'http_accept_language'
p833
asbag60
(g81
g62
NtRp834
(dp835
g65
(dp836
g92
g93
ssg74
g825
sg67
(lp837
S':'
asbag60
(g81
g62
NtRp838
(dp839
g65
(dp840
sg74
g825
sg67
(lp841
g60
(g61
g62
NtRp842
(dp843
g65
(dp844
g73
I4
ssg74
g838
sg67
(lp845
S'pt-BR,pt;q=0.8,en-US;q=0.6,en;q=0.4'
p846
asbasbasbag60
(g76
g62
NtRp847
(dp848
g65
(dp849
sg74
g599
sg67
(lp850
g60
(g81
g62
NtRp851
(dp852
g65
(dp853
g85
g86
ssg74
g847
sg67
(lp854
S'http_cache_control'
p855
asbag60
(g81
g62
NtRp856
(dp857
g65
(dp858
g92
g93
ssg74
g847
sg67
(lp859
S':'
asbag60
(g81
g62
NtRp860
(dp861
g65
(dp862
sg74
g847
sg67
(lp863
g60
(g61
g62
NtRp864
(dp865
g65
(dp866
g73
I4
ssg74
g860
sg67
(lp867
S'max-age=0'
p868
asbasbasbag60
(g76
g62
NtRp869
(dp870
g65
(dp871
sg74
g599
sg67
(lp872
g60
(g81
g62
NtRp873
(dp874
g65
(dp875
g85
g86
ssg74
g869
sg67
(lp876
S'http_connection'
p877
asbag60
(g81
g62
NtRp878
(dp879
g65
(dp880
g92
g93
ssg74
g869
sg67
(lp881
S':'
asbag60
(g81
g62
NtRp882
(dp883
g65
(dp884
sg74
g869
sg67
(lp885
g60
(g61
g62
NtRp886
(dp887
g65
(dp888
g73
I4
ssg74
g882
sg67
(lp889
S'keep-alive'
p890
asbasbasbag60
(g76
g62
NtRp891
(dp892
g65
(dp893
sg74
g599
sg67
(lp894
g60
(g81
g62
NtRp895
(dp896
g65
(dp897
g85
g86
ssg74
g891
sg67
(lp898
S'http_cookie'
p899
asbag60
(g81
g62
NtRp900
(dp901
g65
(dp902
g92
g93
ssg74
g891
sg67
(lp903
S':'
asbag60
(g81
g62
NtRp904
(dp905
g65
(dp906
sg74
g891
sg67
(lp907
g60
(g61
g62
NtRp908
(dp909
g65
(dp910
g73
I4
ssg74
g904
sg67
(lp911
S'session_id_admin=127.0.0.1-8b99cd1e-0b8f-4873-a23e-b5b7b36cc0a5; session_id_unioeste_code=127.0.0.1-d4490a4c-4db8-4f67-8e5c-3165535103a7'
p912
asbasbasbag60
(g76
g62
NtRp913
(dp914
g65
(dp915
sg74
g599
sg67
(lp916
g60
(g81
g62
NtRp917
(dp918
g65
(dp919
g85
g86
ssg74
g913
sg67
(lp920
S'http_dnt'
p921
asbag60
(g81
g62
NtRp922
(dp923
g65
(dp924
g92
g93
ssg74
g913
sg67
(lp925
S':'
asbag60
(g81
g62
NtRp926
(dp927
g65
(dp928
sg74
g913
sg67
(lp929
g60
(g61
g62
NtRp930
(dp931
g65
(dp932
g73
I4
ssg74
g926
sg67
(lp933
S'1'
asbasbasbag60
(g76
g62
NtRp934
(dp935
g65
(dp936
sg74
g599
sg67
(lp937
g60
(g81
g62
NtRp938
(dp939
g65
(dp940
g85
g86
ssg74
g934
sg67
(lp941
S'http_host'
p942
asbag60
(g81
g62
NtRp943
(dp944
g65
(dp945
g92
g93
ssg74
g934
sg67
(lp946
S':'
asbag60
(g81
g62
NtRp947
(dp948
g65
(dp949
sg74
g934
sg67
(lp950
g60
(g61
g62
NtRp951
(dp952
g65
(dp953
g73
I4
ssg74
g947
sg67
(lp954
S'localhost:8000'
p955
asbasbasbag60
(g76
g62
NtRp956
(dp957
g65
(dp958
sg74
g599
sg67
(lp959
g60
(g81
g62
NtRp960
(dp961
g65
(dp962
g85
g86
ssg74
g956
sg67
(lp963
S'http_user_agent'
p964
asbag60
(g81
g62
NtRp965
(dp966
g65
(dp967
g92
g93
ssg74
g956
sg67
(lp968
S':'
asbag60
(g81
g62
NtRp969
(dp970
g65
(dp971
sg74
g956
sg67
(lp972
g60
(g61
g62
NtRp973
(dp974
g65
(dp975
g73
I4
ssg74
g969
sg67
(lp976
S'Mozilla/5.0 (Windows NT 6.1; WOW64) AppleWebKit/536.11 (KHTML, like Gecko) Chrome/20.0.1132.57 Safari/536.11'
p977
asbasbasbag60
(g76
g62
NtRp978
(dp979
g65
(dp980
sg74
g599
sg67
(lp981
g60
(g81
g62
NtRp982
(dp983
g65
(dp984
g85
g86
ssg74
g978
sg67
(lp985
S'is_jython'
p986
asbag60
(g81
g62
NtRp987
(dp988
g65
(dp989
g92
g93
ssg74
g978
sg67
(lp990
S':'
asbag60
(g81
g62
NtRp991
(dp992
g65
(dp993
sg74
g978
sg67
(lp994
g60
(g61
g62
NtRp995
(dp996
g65
(dp997
g73
I4
ssg74
g991
sg67
(lp998
g103
asbasbasbag60
(g76
g62
NtRp999
(dp1000
g65
(dp1001
sg74
g599
sg67
(lp1002
g60
(g81
g62
NtRp1003
(dp1004
g65
(dp1005
g85
g86
ssg74
g999
sg67
(lp1006
S'is_pypy'
p1007
asbag60
(g81
g62
NtRp1008
(dp1009
g65
(dp1010
g92
g93
ssg74
g999
sg67
(lp1011
S':'
asbag60
(g81
g62
NtRp1012
(dp1013
g65
(dp1014
sg74
g999
sg67
(lp1015
g60
(g61
g62
NtRp1016
(dp1017
g65
(dp1018
g73
I4
ssg74
g1012
sg67
(lp1019
g103
asbasbasbag60
(g76
g62
NtRp1020
(dp1021
g65
(dp1022
sg74
g599
sg67
(lp1023
g60
(g81
g62
NtRp1024
(dp1025
g65
(dp1026
g85
g86
ssg74
g1020
sg67
(lp1027
S'path_info'
p1028
asbag60
(g81
g62
NtRp1029
(dp1030
g65
(dp1031
g92
g93
ssg74
g1020
sg67
(lp1032
S':'
asbag60
(g81
g62
NtRp1033
(dp1034
g65
(dp1035
sg74
g1020
sg67
(lp1036
g60
(g61
g62
NtRp1037
(dp1038
g65
(dp1039
g73
I4
ssg74
g1033
sg67
(lp1040
S'/unioeste_code/'
p1041
asbasbasbag60
(g76
g62
NtRp1042
(dp1043
g65
(dp1044
sg74
g599
sg67
(lp1045
g60
(g81
g62
NtRp1046
(dp1047
g65
(dp1048
g85
g86
ssg74
g1042
sg67
(lp1049
S'query_string'
p1050
asbag60
(g81
g62
NtRp1051
(dp1052
g65
(dp1053
g92
g93
ssg74
g1042
sg67
(lp1054
S':'
asbag60
(g81
g62
NtRp1055
(dp1056
g65
(dp1057
sg74
g1042
sg67
(lp1058
g60
(g61
g62
NtRp1059
(dp1060
g65
(dp1061
g73
I4
ssg74
g1055
sg67
(lp1062
S''
asbasbasbag60
(g76
g62
NtRp1063
(dp1064
g65
(dp1065
sg74
g599
sg67
(lp1066
g60
(g81
g62
NtRp1067
(dp1068
g65
(dp1069
g85
g86
ssg74
g1063
sg67
(lp1070
S'remote_addr'
p1071
asbag60
(g81
g62
NtRp1072
(dp1073
g65
(dp1074
g92
g93
ssg74
g1063
sg67
(lp1075
S':'
asbag60
(g81
g62
NtRp1076
(dp1077
g65
(dp1078
sg74
g1063
sg67
(lp1079
g60
(g61
g62
NtRp1080
(dp1081
g65
(dp1082
g73
I4
ssg74
g1076
sg67
(lp1083
g193
asbasbasbag60
(g76
g62
NtRp1084
(dp1085
g65
(dp1086
sg74
g599
sg67
(lp1087
g60
(g81
g62
NtRp1088
(dp1089
g65
(dp1090
g85
g86
ssg74
g1084
sg67
(lp1091
S'remote_port'
p1092
asbag60
(g81
g62
NtRp1093
(dp1094
g65
(dp1095
g92
g93
ssg74
g1084
sg67
(lp1096
S':'
asbag60
(g81
g62
NtRp1097
(dp1098
g65
(dp1099
sg74
g1084
sg67
(lp1100
g60
(g61
g62
NtRp1101
(dp1102
g65
(dp1103
g73
I4
ssg74
g1097
sg67
(lp1104
S'4050'
p1105
asbasbasbag60
(g76
g62
NtRp1106
(dp1107
g65
(dp1108
sg74
g599
sg67
(lp1109
g60
(g81
g62
NtRp1110
(dp1111
g65
(dp1112
g85
g86
ssg74
g1106
sg67
(lp1113
S'request_method'
p1114
asbag60
(g81
g62
NtRp1115
(dp1116
g65
(dp1117
g92
g93
ssg74
g1106
sg67
(lp1118
S':'
asbag60
(g81
g62
NtRp1119
(dp1120
g65
(dp1121
sg74
g1106
sg67
(lp1122
g60
(g61
g62
NtRp1123
(dp1124
g65
(dp1125
g73
I4
ssg74
g1119
sg67
(lp1126
S'GET'
p1127
asbasbasbag60
(g76
g62
NtRp1128
(dp1129
g65
(dp1130
sg74
g599
sg67
(lp1131
g60
(g81
g62
NtRp1132
(dp1133
g65
(dp1134
g85
g86
ssg74
g1128
sg67
(lp1135
S'script_name'
p1136
asbag60
(g81
g62
NtRp1137
(dp1138
g65
(dp1139
g92
g93
ssg74
g1128
sg67
(lp1140
S':'
asbag60
(g81
g62
NtRp1141
(dp1142
g65
(dp1143
sg74
g1128
sg67
(lp1144
g60
(g61
g62
NtRp1145
(dp1146
g65
(dp1147
g73
I4
ssg74
g1141
sg67
(lp1148
S''
asbasbasbag60
(g76
g62
NtRp1149
(dp1150
g65
(dp1151
sg74
g599
sg67
(lp1152
g60
(g81
g62
NtRp1153
(dp1154
g65
(dp1155
g85
g86
ssg74
g1149
sg67
(lp1156
S'server_name'
p1157
asbag60
(g81
g62
NtRp1158
(dp1159
g65
(dp1160
g92
g93
ssg74
g1149
sg67
(lp1161
S':'
asbag60
(g81
g62
NtRp1162
(dp1163
g65
(dp1164
sg74
g1149
sg67
(lp1165
g60
(g61
g62
NtRp1166
(dp1167
g65
(dp1168
g73
I4
ssg74
g1162
sg67
(lp1169
S'Pedro-PC'
p1170
asbasbasbag60
(g76
g62
NtRp1171
(dp1172
g65
(dp1173
sg74
g599
sg67
(lp1174
g60
(g81
g62
NtRp1175
(dp1176
g65
(dp1177
g85
g86
ssg74
g1171
sg67
(lp1178
S'server_port'
p1179
asbag60
(g81
g62
NtRp1180
(dp1181
g65
(dp1182
g92
g93
ssg74
g1171
sg67
(lp1183
S':'
asbag60
(g81
g62
NtRp1184
(dp1185
g65
(dp1186
sg74
g1171
sg67
(lp1187
g60
(g61
g62
NtRp1188
(dp1189
g65
(dp1190
g73
I4
ssg74
g1184
sg67
(lp1191
S'8000'
p1192
asbasbasbag60
(g76
g62
NtRp1193
(dp1194
g65
(dp1195
sg74
g599
sg67
(lp1196
g60
(g81
g62
NtRp1197
(dp1198
g65
(dp1199
g85
g86
ssg74
g1193
sg67
(lp1200
S'server_protocol'
p1201
asbag60
(g81
g62
NtRp1202
(dp1203
g65
(dp1204
g92
g93
ssg74
g1193
sg67
(lp1205
S':'
asbag60
(g81
g62
NtRp1206
(dp1207
g65
(dp1208
sg74
g1193
sg67
(lp1209
g60
(g61
g62
NtRp1210
(dp1211
g65
(dp1212
g73
I4
ssg74
g1206
sg67
(lp1213
S'HTTP/1.1'
p1214
asbasbasbag60
(g76
g62
NtRp1215
(dp1216
g65
(dp1217
sg74
g599
sg67
(lp1218
g60
(g81
g62
NtRp1219
(dp1220
g65
(dp1221
g85
g86
ssg74
g1215
sg67
(lp1222
S'server_software'
p1223
asbag60
(g81
g62
NtRp1224
(dp1225
g65
(dp1226
g92
g93
ssg74
g1215
sg67
(lp1227
S':'
asbag60
(g81
g62
NtRp1228
(dp1229
g65
(dp1230
sg74
g1215
sg67
(lp1231
g60
(g61
g62
NtRp1232
(dp1233
g65
(dp1234
g73
I4
ssg74
g1228
sg67
(lp1235
S'Rocket 1.2.4'
p1236
asbasbasbag60
(g76
g62
NtRp1237
(dp1238
g65
(dp1239
sg74
g599
sg67
(lp1240
g60
(g81
g62
NtRp1241
(dp1242
g65
(dp1243
g85
g86
ssg74
g1237
sg67
(lp1244
S'web2py_crontype'
p1245
asbag60
(g81
g62
NtRp1246
(dp1247
g65
(dp1248
g92
g93
ssg74
g1237
sg67
(lp1249
S':'
asbag60
(g81
g62
NtRp1250
(dp1251
g65
(dp1252
sg74
g1237
sg67
(lp1253
g60
(g61
g62
NtRp1254
(dp1255
g65
(dp1256
g73
I4
ssg74
g1250
sg67
(lp1257
S'hard'
p1258
asbasbasbag60
(g76
g62
NtRp1259
(dp1260
g65
(dp1261
sg74
g599
sg67
(lp1262
g60
(g81
g62
NtRp1263
(dp1264
g65
(dp1265
g85
g86
ssg74
g1259
sg67
(lp1266
S'web2py_path'
p1267
asbag60
(g81
g62
NtRp1268
(dp1269
g65
(dp1270
g92
g93
ssg74
g1259
sg67
(lp1271
S':'
asbag60
(g81
g62
NtRp1272
(dp1273
g65
(dp1274
sg74
g1259
sg67
(lp1275
g60
(g61
g62
NtRp1276
(dp1277
g65
(dp1278
g73
I4
ssg74
g1272
sg67
(lp1279
g646
asbasbasbag60
(g76
g62
NtRp1280
(dp1281
g65
(dp1282
sg74
g599
sg67
(lp1283
g60
(g81
g62
NtRp1284
(dp1285
g65
(dp1286
g85
g86
ssg74
g1280
sg67
(lp1287
S'web2py_version'
p1288
asbag60
(g81
g62
NtRp1289
(dp1290
g65
(dp1291
g92
g93
ssg74
g1280
sg67
(lp1292
S':'
asbag60
(g81
g62
NtRp1293
(dp1294
g65
(dp1295
sg74
g1280
sg67
(lp1296
g60
(g61
g62
NtRp1297
(dp1298
g65
(dp1299
g73
I4
ssg74
g1293
sg67
(lp1300
g60
(g69
g62
NtRp1301
(dp1302
g65
(dp1303
g73
I3
ssg74
Nsg67
(lp1304
g60
(g76
g62
NtRp1305
(dp1306
g65
(dp1307
sg74
g1301
sg67
(lp1308
g60
(g81
g62
NtRp1309
(dp1310
g65
(dp1311
sg74
g1305
sg67
(lp1312
g60
(g61
g62
NtRp1313
(dp1314
g65
(dp1315
g73
I3
ssg74
g1309
sg67
(lp1316
S'1'
asbasbasbag60
(g76
g62
NtRp1317
(dp1318
g65
(dp1319
sg74
g1301
sg67
(lp1320
g60
(g81
g62
NtRp1321
(dp1322
g65
(dp1323
sg74
g1317
sg67
(lp1324
g60
(g61
g62
NtRp1325
(dp1326
g65
(dp1327
g73
I3
ssg74
g1321
sg67
(lp1328
S'99'
p1329
asbasbasbag60
(g76
g62
NtRp1330
(dp1331
g65
(dp1332
sg74
g1301
sg67
(lp1333
g60
(g81
g62
NtRp1334
(dp1335
g65
(dp1336
sg74
g1330
sg67
(lp1337
g60
(g61
g62
NtRp1338
(dp1339
g65
(dp1340
g73
I3
ssg74
g1334
sg67
(lp1341
S'7'
asbasbasbag60
(g76
g62
NtRp1342
(dp1343
g65
(dp1344
sg74
g1301
sg67
(lp1345
g60
(g81
g62
NtRp1346
(dp1347
g65
(dp1348
sg74
g1342
sg67
(lp1349
g60
(g61
g62
NtRp1350
(dp1351
g65
(dp1352
g73
I3
ssg74
g1346
sg67
(lp1353
S'datetime.datetime(2012, 3, 4, 22, 12, 8)'
p1354
asbasbasbag60
(g76
g62
NtRp1355
(dp1356
g65
(dp1357
sg74
g1301
sg67
(lp1358
g60
(g81
g62
NtRp1359
(dp1360
g65
(dp1361
sg74
g1355
sg67
(lp1362
g60
(g61
g62
NtRp1363
(dp1364
g65
(dp1365
g73
I3
ssg74
g1359
sg67
(lp1366
S'stable'
p1367
asbasbasbasbasbasbasbag60
(g76
g62
NtRp1368
(dp1369
g65
(dp1370
sg74
g599
sg67
(lp1371
g60
(g81
g62
NtRp1372
(dp1373
g65
(dp1374
g85
g86
ssg74
g1368
sg67
(lp1375
S'wsgi_errors'
p1376
asbag60
(g81
g62
NtRp1377
(dp1378
g65
(dp1379
g92
g93
ssg74
g1368
sg67
(lp1380
S':'
asbag60
(g81
g62
NtRp1381
(dp1382
g65
(dp1383
sg74
g1368
sg67
(lp1384
g60
(g61
g62
NtRp1385
(dp1386
g65
(dp1387
g73
I4
ssg74
g1381
sg67
(lp1388
S'<__main__.Stderr object at 0x01FA6670>'
p1389
asbasbasbag60
(g76
g62
NtRp1390
(dp1391
g65
(dp1392
sg74
g599
sg67
(lp1393
g60
(g81
g62
NtRp1394
(dp1395
g65
(dp1396
g85
g86
ssg74
g1390
sg67
(lp1397
S'wsgi_file_wrapper'
p1398
asbag60
(g81
g62
NtRp1399
(dp1400
g65
(dp1401
g92
g93
ssg74
g1390
sg67
(lp1402
S':'
asbag60
(g81
g62
NtRp1403
(dp1404
g65
(dp1405
sg74
g1390
sg67
(lp1406
g60
(g61
g62
NtRp1407
(dp1408
g65
(dp1409
g73
I4
ssg74
g1403
sg67
(lp1410
S'<class wsgiref.util.FileWrapper at 0x02EDDE10>'
p1411
asbasbasbag60
(g76
g62
NtRp1412
(dp1413
g65
(dp1414
sg74
g599
sg67
(lp1415
g60
(g81
g62
NtRp1416
(dp1417
g65
(dp1418
g85
g86
ssg74
g1412
sg67
(lp1419
S'wsgi_input'
p1420
asbag60
(g81
g62
NtRp1421
(dp1422
g65
(dp1423
g92
g93
ssg74
g1412
sg67
(lp1424
S':'
asbag60
(g81
g62
NtRp1425
(dp1426
g65
(dp1427
sg74
g1412
sg67
(lp1428
g60
(g61
g62
NtRp1429
(dp1430
g65
(dp1431
g73
I4
ssg74
g1425
sg67
(lp1432
S'<socket._fileobject object at 0x030E6CF0>'
p1433
asbasbasbag60
(g76
g62
NtRp1434
(dp1435
g65
(dp1436
sg74
g599
sg67
(lp1437
g60
(g81
g62
NtRp1438
(dp1439
g65
(dp1440
g85
g86
ssg74
g1434
sg67
(lp1441
S'wsgi_multiprocess'
p1442
asbag60
(g81
g62
NtRp1443
(dp1444
g65
(dp1445
g92
g93
ssg74
g1434
sg67
(lp1446
S':'
asbag60
(g81
g62
NtRp1447
(dp1448
g65
(dp1449
sg74
g1434
sg67
(lp1450
g60
(g61
g62
NtRp1451
(dp1452
g65
(dp1453
g73
I4
ssg74
g1447
sg67
(lp1454
g103
asbasbasbag60
(g76
g62
NtRp1455
(dp1456
g65
(dp1457
sg74
g599
sg67
(lp1458
g60
(g81
g62
NtRp1459
(dp1460
g65
(dp1461
g85
g86
ssg74
g1455
sg67
(lp1462
S'wsgi_multithread'
p1463
asbag60
(g81
g62
NtRp1464
(dp1465
g65
(dp1466
g92
g93
ssg74
g1455
sg67
(lp1467
S':'
asbag60
(g81
g62
NtRp1468
(dp1469
g65
(dp1470
sg74
g1455
sg67
(lp1471
g60
(g61
g62
NtRp1472
(dp1473
g65
(dp1474
g73
I4
ssg74
g1468
sg67
(lp1475
S'True'
p1476
asbasbasbag60
(g76
g62
NtRp1477
(dp1478
g65
(dp1479
sg74
g599
sg67
(lp1480
g60
(g81
g62
NtRp1481
(dp1482
g65
(dp1483
g85
g86
ssg74
g1477
sg67
(lp1484
S'wsgi_run_once'
p1485
asbag60
(g81
g62
NtRp1486
(dp1487
g65
(dp1488
g92
g93
ssg74
g1477
sg67
(lp1489
S':'
asbag60
(g81
g62
NtRp1490
(dp1491
g65
(dp1492
sg74
g1477
sg67
(lp1493
g60
(g61
g62
NtRp1494
(dp1495
g65
(dp1496
g73
I4
ssg74
g1490
sg67
(lp1497
g103
asbasbasbag60
(g76
g62
NtRp1498
(dp1499
g65
(dp1500
sg74
g599
sg67
(lp1501
g60
(g81
g62
NtRp1502
(dp1503
g65
(dp1504
g85
g86
ssg74
g1498
sg67
(lp1505
S'wsgi_url_scheme'
p1506
asbag60
(g81
g62
NtRp1507
(dp1508
g65
(dp1509
g92
g93
ssg74
g1498
sg67
(lp1510
S':'
asbag60
(g81
g62
NtRp1511
(dp1512
g65
(dp1513
sg74
g1498
sg67
(lp1514
g60
(g61
g62
NtRp1515
(dp1516
g65
(dp1517
g73
I4
ssg74
g1511
sg67
(lp1518
S'http'
p1519
asbasbasbag60
(g76
g62
NtRp1520
(dp1521
g65
(dp1522
sg74
g599
sg67
(lp1523
g60
(g81
g62
NtRp1524
(dp1525
g65
(dp1526
g85
g86
ssg74
g1520
sg67
(lp1527
S'wsgi_version'
p1528
asbag60
(g81
g62
NtRp1529
(dp1530
g65
(dp1531
g92
g93
ssg74
g1520
sg67
(lp1532
S':'
asbag60
(g81
g62
NtRp1533
(dp1534
g65
(dp1535
sg74
g1520
sg67
(lp1536
g60
(g61
g62
NtRp1537
(dp1538
g65
(dp1539
g73
I4
ssg74
g1533
sg67
(lp1540
g60
(g69
g62
NtRp1541
(dp1542
g65
(dp1543
g73
I3
ssg74
Nsg67
(lp1544
g60
(g76
g62
NtRp1545
(dp1546
g65
(dp1547
sg74
g1541
sg67
(lp1548
g60
(g81
g62
NtRp1549
(dp1550
g65
(dp1551
sg74
g1545
sg67
(lp1552
g60
(g61
g62
NtRp1553
(dp1554
g65
(dp1555
g73
I3
ssg74
g1549
sg67
(lp1556
S'1'
asbasbasbag60
(g76
g62
NtRp1557
(dp1558
g65
(dp1559
sg74
g1541
sg67
(lp1560
g60
(g81
g62
NtRp1561
(dp1562
g65
(dp1563
sg74
g1557
sg67
(lp1564
g60
(g61
g62
NtRp1565
(dp1566
g65
(dp1567
g73
I3
ssg74
g1561
sg67
(lp1568
S'0'
asbasbasbasbasbasbasbasbasbasbasbag60
(g76
g62
NtRp1569
(dp1570
g65
(dp1571
sg74
g70
sg67
(lp1572
g60
(g81
g62
NtRp1573
(dp1574
g65
(dp1575
g85
g86
ssg74
g1569
sg67
(lp1576
S'extension'
p1577
asbag60
(g81
g62
NtRp1578
(dp1579
g65
(dp1580
g92
g93
ssg74
g1569
sg67
(lp1581
S':'
asbag60
(g81
g62
NtRp1582
(dp1583
g65
(dp1584
sg74
g1569
sg67
(lp1585
g60
(g61
g62
NtRp1586
(dp1587
g65
(dp1588
g73
I5
ssg74
g1582
sg67
(lp1589
S'html'
p1590
asbasbasbag60
(g76
g62
NtRp1591
(dp1592
g65
(dp1593
sg74
g70
sg67
(lp1594
g60
(g81
g62
NtRp1595
(dp1596
g65
(dp1597
g85
g86
ssg74
g1591
sg67
(lp1598
S'folder'
p1599
asbag60
(g81
g62
NtRp1600
(dp1601
g65
(dp1602
g92
g93
ssg74
g1591
sg67
(lp1603
S':'
asbag60
(g81
g62
NtRp1604
(dp1605
g65
(dp1606
sg74
g1591
sg67
(lp1607
g60
(g61
g62
NtRp1608
(dp1609
g65
(dp1610
g73
I5
ssg74
g1604
sg67
(lp1611
S'C:\\web2py\\applications\\unioeste_code\\'
p1612
asbasbasbag60
(g76
g62
NtRp1613
(dp1614
g65
(dp1615
sg74
g70
sg67
(lp1616
g60
(g81
g62
NtRp1617
(dp1618
g65
(dp1619
g85
g86
ssg74
g1613
sg67
(lp1620
S'function'
p1621
asbag60
(g81
g62
NtRp1622
(dp1623
g65
(dp1624
g92
g93
ssg74
g1613
sg67
(lp1625
S':'
asbag60
(g81
g62
NtRp1626
(dp1627
g65
(dp1628
sg74
g1613
sg67
(lp1629
g60
(g61
g62
NtRp1630
(dp1631
g65
(dp1632
g73
I5
ssg74
g1626
sg67
(lp1633
S'index'
p1634
asbasbasbag60
(g76
g62
NtRp1635
(dp1636
g65
(dp1637
sg74
g70
sg67
(lp1638
g60
(g81
g62
NtRp1639
(dp1640
g65
(dp1641
g85
g86
ssg74
g1635
sg67
(lp1642
S'get_vars'
p1643
asbag60
(g81
g62
NtRp1644
(dp1645
g65
(dp1646
g92
g93
ssg74
g1635
sg67
(lp1647
S':'
asbag60
(g81
g62
NtRp1648
(dp1649
g65
(dp1650
sg74
g1635
sg67
(lp1651
g60
(g61
g62
NtRp1652
(dp1653
g65
(dp1654
g73
I5
ssg74
g1648
sg67
(lp1655
g60
(g69
g62
NtRp1656
(dp1657
g65
(dp1658
g73
I4
ssg74
Nsg67
(lp1659
sbasbasbasbag60
(g76
g62
NtRp1660
(dp1661
g65
(dp1662
sg74
g70
sg67
(lp1663
g60
(g81
g62
NtRp1664
(dp1665
g65
(dp1666
g85
g86
ssg74
g1660
sg67
(lp1667
S'global_settings'
p1668
asbag60
(g81
g62
NtRp1669
(dp1670
g65
(dp1671
g92
g93
ssg74
g1660
sg67
(lp1672
S':'
asbag60
(g81
g62
NtRp1673
(dp1674
g65
(dp1675
sg74
g1660
sg67
(lp1676
g60
(g61
g62
NtRp1677
(dp1678
g65
(dp1679
g73
I5
ssg74
g1673
sg67
(lp1680
g60
(g69
g62
NtRp1681
(dp1682
g65
(dp1683
g73
I4
ssg74
Nsg67
(lp1684
g60
(g76
g62
NtRp1685
(dp1686
g65
(dp1687
sg74
g1681
sg67
(lp1688
g60
(g81
g62
NtRp1689
(dp1690
g65
(dp1691
g85
g86
ssg74
g1685
sg67
(lp1692
g611
asbag60
(g81
g62
NtRp1693
(dp1694
g65
(dp1695
g92
g93
ssg74
g1685
sg67
(lp1696
S':'
asbag60
(g81
g62
NtRp1697
(dp1698
g65
(dp1699
sg74
g1685
sg67
(lp1700
g60
(g61
g62
NtRp1701
(dp1702
g65
(dp1703
g73
I4
ssg74
g1697
sg67
(lp1704
S"set(['C:\\\\web2py\\\\applications\\\\admin\\\\', 'C:\\\\web2py\\\\applications\\\\welcome\\\\', 'C:\\\\web2py\\\\applications\\\\unioeste_code\\\\'])"
p1705
asbasbasbag60
(g76
g62
NtRp1706
(dp1707
g65
(dp1708
sg74
g1681
sg67
(lp1709
g60
(g81
g62
NtRp1710
(dp1711
g65
(dp1712
g85
g86
ssg74
g1706
sg67
(lp1713
g633
asbag60
(g81
g62
NtRp1714
(dp1715
g65
(dp1716
g92
g93
ssg74
g1706
sg67
(lp1717
S':'
asbag60
(g81
g62
NtRp1718
(dp1719
g65
(dp1720
sg74
g1706
sg67
(lp1721
g60
(g61
g62
NtRp1722
(dp1723
g65
(dp1724
g73
I4
ssg74
g1718
sg67
(lp1725
g646
asbasbasbag60
(g76
g62
NtRp1726
(dp1727
g65
(dp1728
sg74
g1681
sg67
(lp1729
g60
(g81
g62
NtRp1730
(dp1731
g65
(dp1732
g85
g86
ssg74
g1726
sg67
(lp1733
g655
asbag60
(g81
g62
NtRp1734
(dp1735
g65
(dp1736
g92
g93
ssg74
g1726
sg67
(lp1737
S':'
asbag60
(g81
g62
NtRp1738
(dp1739
g65
(dp1740
sg74
g1726
sg67
(lp1741
g60
(g61
g62
NtRp1742
(dp1743
g65
(dp1744
g73
I4
ssg74
g1738
sg67
(lp1745
g60
(g69
g62
NtRp1746
(dp1747
g65
(dp1748
g73
I3
ssg74
Nsg67
(lp1749
sbasbasbasbag60
(g76
g62
NtRp1750
(dp1751
g65
(dp1752
sg74
g1681
sg67
(lp1753
g60
(g81
g62
NtRp1754
(dp1755
g65
(dp1756
g85
g86
ssg74
g1750
sg67
(lp1757
g680
asbag60
(g81
g62
NtRp1758
(dp1759
g65
(dp1760
g92
g93
ssg74
g1750
sg67
(lp1761
S':'
asbag60
(g81
g62
NtRp1762
(dp1763
g65
(dp1764
sg74
g1750
sg67
(lp1765
g60
(g61
g62
NtRp1766
(dp1767
g65
(dp1768
g73
I4
ssg74
g1762
sg67
(lp1769
S"<Values at 0x30ec300: {'verbose': False, 'ip': '127.0.0.1', 'shutdown_timeout': 5, 'taskbar': False, 'nocron': False, 'pid_filename': 'httpserver.pid', 'maxthreads': None, 'softcron': False, 'server_name': 'Pedro-PC', 'bpython': False, 'nogui': False, 'port': 8000, 'extcron': False, 'debuglevel': 30, 'test': None, 'folder': 'C:\\\\web2py', 'config': '', 'import_models': False, 'winservice': '', 'shell': None, 'run': '', 'log_filename': 'httpserver.log', 'args': [''], 'socket_timeout': 5, 'ssl_ca_certificate': None, 'scheduler': None, 'profiler_filename': None, 'ssl_private_key': '', 'password': '<ask>', 'request_queue_size': 5, 'ssl_certificate': '', 'cronjob': False, 'numthreads': None, 'quiet': False, 'interfaces': None, 'minthreads': None, 'timeout': 10, 'plain': False, 'nobanner': False}>"
p1770
asbasbasbag60
(g76
g62
NtRp1771
(dp1772
g65
(dp1773
sg74
g1681
sg67
(lp1774
g60
(g81
g62
NtRp1775
(dp1776
g65
(dp1777
g85
g86
ssg74
g1771
sg67
(lp1778
g702
asbag60
(g81
g62
NtRp1779
(dp1780
g65
(dp1781
g92
g93
ssg74
g1771
sg67
(lp1782
S':'
asbag60
(g81
g62
NtRp1783
(dp1784
g65
(dp1785
sg74
g1771
sg67
(lp1786
g60
(g61
g62
NtRp1787
(dp1788
g65
(dp1789
g73
I4
ssg74
g1783
sg67
(lp1790
S'set([])'
p1791
asbasbasbag60
(g76
g62
NtRp1792
(dp1793
g65
(dp1794
sg74
g1681
sg67
(lp1795
g60
(g81
g62
NtRp1796
(dp1797
g65
(dp1798
g85
g86
ssg74
g1792
sg67
(lp1799
g724
asbag60
(g81
g62
NtRp1800
(dp1801
g65
(dp1802
g92
g93
ssg74
g1792
sg67
(lp1803
S':'
asbag60
(g81
g62
NtRp1804
(dp1805
g65
(dp1806
sg74
g1792
sg67
(lp1807
g60
(g61
g62
NtRp1808
(dp1809
g65
(dp1810
g73
I4
ssg74
g1804
sg67
(lp1811
g103
asbasbasbag60
(g76
g62
NtRp1812
(dp1813
g65
(dp1814
sg74
g1681
sg67
(lp1815
g60
(g81
g62
NtRp1816
(dp1817
g65
(dp1818
g85
g86
ssg74
g1812
sg67
(lp1819
g745
asbag60
(g81
g62
NtRp1820
(dp1821
g65
(dp1822
g92
g93
ssg74
g1812
sg67
(lp1823
S':'
asbag60
(g81
g62
NtRp1824
(dp1825
g65
(dp1826
sg74
g1812
sg67
(lp1827
g60
(g61
g62
NtRp1828
(dp1829
g65
(dp1830
g73
I4
ssg74
g1824
sg67
(lp1831
g758
asbasbasbag60
(g76
g62
NtRp1832
(dp1833
g65
(dp1834
sg74
g1681
sg67
(lp1835
g60
(g81
g62
NtRp1836
(dp1837
g65
(dp1838
g85
g86
ssg74
g1832
sg67
(lp1839
g986
asbag60
(g81
g62
NtRp1840
(dp1841
g65
(dp1842
g92
g93
ssg74
g1832
sg67
(lp1843
S':'
asbag60
(g81
g62
NtRp1844
(dp1845
g65
(dp1846
sg74
g1832
sg67
(lp1847
g60
(g61
g62
NtRp1848
(dp1849
g65
(dp1850
g73
I4
ssg74
g1844
sg67
(lp1851
g103
asbasbasbag60
(g76
g62
NtRp1852
(dp1853
g65
(dp1854
sg74
g1681
sg67
(lp1855
g60
(g81
g62
NtRp1856
(dp1857
g65
(dp1858
g85
g86
ssg74
g1852
sg67
(lp1859
g1007
asbag60
(g81
g62
NtRp1860
(dp1861
g65
(dp1862
g92
g93
ssg74
g1852
sg67
(lp1863
S':'
asbag60
(g81
g62
NtRp1864
(dp1865
g65
(dp1866
sg74
g1852
sg67
(lp1867
g60
(g61
g62
NtRp1868
(dp1869
g65
(dp1870
g73
I4
ssg74
g1864
sg67
(lp1871
g103
asbasbasbag60
(g76
g62
NtRp1872
(dp1873
g65
(dp1874
sg74
g1681
sg67
(lp1875
g60
(g81
g62
NtRp1876
(dp1877
g65
(dp1878
g85
g86
ssg74
g1872
sg67
(lp1879
g1245
asbag60
(g81
g62
NtRp1880
(dp1881
g65
(dp1882
g92
g93
ssg74
g1872
sg67
(lp1883
S':'
asbag60
(g81
g62
NtRp1884
(dp1885
g65
(dp1886
sg74
g1872
sg67
(lp1887
g60
(g61
g62
NtRp1888
(dp1889
g65
(dp1890
g73
I4
ssg74
g1884
sg67
(lp1891
g1258
asbasbasbag60
(g76
g62
NtRp1892
(dp1893
g65
(dp1894
sg74
g1681
sg67
(lp1895
g60
(g81
g62
NtRp1896
(dp1897
g65
(dp1898
g85
g86
ssg74
g1892
sg67
(lp1899
g1288
asbag60
(g81
g62
NtRp1900
(dp1901
g65
(dp1902
g92
g93
ssg74
g1892
sg67
(lp1903
S':'
asbag60
(g81
g62
NtRp1904
(dp1905
g65
(dp1906
sg74
g1892
sg67
(lp1907
g60
(g61
g62
NtRp1908
(dp1909
g65
(dp1910
g73
I4
ssg74
g1904
sg67
(lp1911
g60
(g69
g62
NtRp1912
(dp1913
g65
(dp1914
g73
I3
ssg74
Nsg67
(lp1915
g60
(g76
g62
NtRp1916
(dp1917
g65
(dp1918
sg74
g1912
sg67
(lp1919
g60
(g81
g62
NtRp1920
(dp1921
g65
(dp1922
sg74
g1916
sg67
(lp1923
g60
(g61
g62
NtRp1924
(dp1925
g65
(dp1926
g73
I3
ssg74
g1920
sg67
(lp1927
S'1'
asbasbasbag60
(g76
g62
NtRp1928
(dp1929
g65
(dp1930
sg74
g1912
sg67
(lp1931
g60
(g81
g62
NtRp1932
(dp1933
g65
(dp1934
sg74
g1928
sg67
(lp1935
g60
(g61
g62
NtRp1936
(dp1937
g65
(dp1938
g73
I3
ssg74
g1932
sg67
(lp1939
S'99'
p1940
asbasbasbag60
(g76
g62
NtRp1941
(dp1942
g65
(dp1943
sg74
g1912
sg67
(lp1944
g60
(g81
g62
NtRp1945
(dp1946
g65
(dp1947
sg74
g1941
sg67
(lp1948
g60
(g61
g62
NtRp1949
(dp1950
g65
(dp1951
g73
I3
ssg74
g1945
sg67
(lp1952
S'7'
asbasbasbag60
(g76
g62
NtRp1953
(dp1954
g65
(dp1955
sg74
g1912
sg67
(lp1956
g60
(g81
g62
NtRp1957
(dp1958
g65
(dp1959
sg74
g1953
sg67
(lp1960
g60
(g61
g62
NtRp1961
(dp1962
g65
(dp1963
g73
I3
ssg74
g1957
sg67
(lp1964
S'datetime.datetime(2012, 3, 4, 22, 12, 8)'
p1965
asbasbasbag60
(g76
g62
NtRp1966
(dp1967
g65
(dp1968
sg74
g1912
sg67
(lp1969
g60
(g81
g62
NtRp1970
(dp1971
g65
(dp1972
sg74
g1966
sg67
(lp1973
g60
(g61
g62
NtRp1974
(dp1975
g65
(dp1976
g73
I3
ssg74
g1970
sg67
(lp1977
g1367
asbasbasbasbasbasbasbasbasbasbasbag60
(g76
g62
NtRp1978
(dp1979
g65
(dp1980
sg74
g70
sg67
(lp1981
g60
(g81
g62
NtRp1982
(dp1983
g65
(dp1984
g85
g86
ssg74
g1978
sg67
(lp1985
S'is_https'
p1986
asbag60
(g81
g62
NtRp1987
(dp1988
g65
(dp1989
g92
g93
ssg74
g1978
sg67
(lp1990
S':'
asbag60
(g81
g62
NtRp1991
(dp1992
g65
(dp1993
sg74
g1978
sg67
(lp1994
g60
(g61
g62
NtRp1995
(dp1996
g65
(dp1997
g73
I5
ssg74
g1991
sg67
(lp1998
g103
asbasbasbag60
(g76
g62
NtRp1999
(dp2000
g65
(dp2001
sg74
g70
sg67
(lp2002
g60
(g81
g62
NtRp2003
(dp2004
g65
(dp2005
g85
g86
ssg74
g1999
sg67
(lp2006
S'is_local'
p2007
asbag60
(g81
g62
NtRp2008
(dp2009
g65
(dp2010
g92
g93
ssg74
g1999
sg67
(lp2011
S':'
asbag60
(g81
g62
NtRp2012
(dp2013
g65
(dp2014
sg74
g1999
sg67
(lp2015
g60
(g61
g62
NtRp2016
(dp2017
g65
(dp2018
g73
I5
ssg74
g2012
sg67
(lp2019
g1476
asbasbasbag60
(g76
g62
NtRp2020
(dp2021
g65
(dp2022
sg74
g70
sg67
(lp2023
g60
(g81
g62
NtRp2024
(dp2025
g65
(dp2026
g85
g86
ssg74
g2020
sg67
(lp2027
S'is_restful'
p2028
asbag60
(g81
g62
NtRp2029
(dp2030
g65
(dp2031
g92
g93
ssg74
g2020
sg67
(lp2032
S':'
asbag60
(g81
g62
NtRp2033
(dp2034
g65
(dp2035
sg74
g2020
sg67
(lp2036
g60
(g61
g62
NtRp2037
(dp2038
g65
(dp2039
g73
I5
ssg74
g2033
sg67
(lp2040
g103
asbasbasbag60
(g76
g62
NtRp2041
(dp2042
g65
(dp2043
sg74
g70
sg67
(lp2044
g60
(g81
g62
NtRp2045
(dp2046
g65
(dp2047
g85
g86
ssg74
g2041
sg67
(lp2048
S'now'
p2049
asbag60
(g81
g62
NtRp2050
(dp2051
g65
(dp2052
g92
g93
ssg74
g2041
sg67
(lp2053
S':'
asbag60
(g81
g62
NtRp2054
(dp2055
g65
(dp2056
sg74
g2041
sg67
(lp2057
g60
(g61
g62
NtRp2058
(dp2059
g65
(dp2060
g73
I5
ssg74
g2054
sg67
(lp2061
S'datetime.datetime(2012, 7, 31, 16, 12, 48, 335000)'
p2062
asbasbasbag60
(g76
g62
NtRp2063
(dp2064
g65
(dp2065
sg74
g70
sg67
(lp2066
g60
(g81
g62
NtRp2067
(dp2068
g65
(dp2069
g85
g86
ssg74
g2063
sg67
(lp2070
S'post_vars'
p2071
asbag60
(g81
g62
NtRp2072
(dp2073
g65
(dp2074
g92
g93
ssg74
g2063
sg67
(lp2075
S':'
asbag60
(g81
g62
NtRp2076
(dp2077
g65
(dp2078
sg74
g2063
sg67
(lp2079
g60
(g61
g62
NtRp2080
(dp2081
g65
(dp2082
g73
I5
ssg74
g2076
sg67
(lp2083
g60
(g69
g62
NtRp2084
(dp2085
g65
(dp2086
g73
I4
ssg74
Nsg67
(lp2087
sbasbasbasbag60
(g76
g62
NtRp2088
(dp2089
g65
(dp2090
sg74
g70
sg67
(lp2091
g60
(g81
g62
NtRp2092
(dp2093
g65
(dp2094
g85
g86
ssg74
g2088
sg67
(lp2095
S'url'
p2096
asbag60
(g81
g62
NtRp2097
(dp2098
g65
(dp2099
g92
g93
ssg74
g2088
sg67
(lp2100
S':'
asbag60
(g81
g62
NtRp2101
(dp2102
g65
(dp2103
sg74
g2088
sg67
(lp2104
g60
(g61
g62
NtRp2105
(dp2106
g65
(dp2107
g73
I5
ssg74
g2101
sg67
(lp2108
S'/unioeste_code/default/index'
p2109
asbasbasbag60
(g76
g62
NtRp2110
(dp2111
g65
(dp2112
sg74
g70
sg67
(lp2113
g60
(g81
g62
NtRp2114
(dp2115
g65
(dp2116
g85
g86
ssg74
g2110
sg67
(lp2117
S'utcnow'
p2118
asbag60
(g81
g62
NtRp2119
(dp2120
g65
(dp2121
g92
g93
ssg74
g2110
sg67
(lp2122
S':'
asbag60
(g81
g62
NtRp2123
(dp2124
g65
(dp2125
sg74
g2110
sg67
(lp2126
g60
(g61
g62
NtRp2127
(dp2128
g65
(dp2129
g73
I5
ssg74
g2123
sg67
(lp2130
S'datetime.datetime(2012, 7, 31, 19, 12, 48, 335000)'
p2131
asbasbasbag60
(g76
g62
NtRp2132
(dp2133
g65
(dp2134
sg74
g70
sg67
(lp2135
g60
(g81
g62
NtRp2136
(dp2137
g65
(dp2138
g85
g86
ssg74
g2132
sg67
(lp2139
S'uuid'
p2140
asbag60
(g81
g62
NtRp2141
(dp2142
g65
(dp2143
g92
g93
ssg74
g2132
sg67
(lp2144
S':'
asbag60
(g81
g62
NtRp2145
(dp2146
g65
(dp2147
sg74
g2132
sg67
(lp2148
g60
(g61
g62
NtRp2149
(dp2150
g65
(dp2151
g73
I5
ssg74
g2145
sg67
(lp2152
S'unioeste_code/127.0.0.1.2012-07-31.16-12-48.76879a29-9b67-4db5-974d-c8effebc6e9e'
p2153
asbasbasbag60
(g76
g62
NtRp2154
(dp2155
g65
(dp2156
sg74
g70
sg67
(lp2157
g60
(g81
g62
NtRp2158
(dp2159
g65
(dp2160
g85
g86
ssg74
g2154
sg67
(lp2161
S'vars'
p2162
asbag60
(g81
g62
NtRp2163
(dp2164
g65
(dp2165
g92
g93
ssg74
g2154
sg67
(lp2166
S':'
asbag60
(g81
g62
NtRp2167
(dp2168
g65
(dp2169
sg74
g2154
sg67
(lp2170
g60
(g61
g62
NtRp2171
(dp2172
g65
(dp2173
g73
I5
ssg74
g2167
sg67
(lp2174
g60
(g69
g62
NtRp2175
(dp2176
g65
(dp2177
g73
I4
ssg74
Nsg67
(lp2178
sbasbasbasbag60
(g76
g62
NtRp2179
(dp2180
g65
(dp2181
sg74
g70
sg67
(lp2182
g60
(g81
g62
NtRp2183
(dp2184
g65
(dp2185
g85
g86
ssg74
g2179
sg67
(lp2186
S'wsgi'
p2187
asbag60
(g81
g62
NtRp2188
(dp2189
g65
(dp2190
g92
g93
ssg74
g2179
sg67
(lp2191
S':'
asbag60
(g81
g62
NtRp2192
(dp2193
g65
(dp2194
sg74
g2179
sg67
(lp2195
g60
(g61
g62
NtRp2196
(dp2197
g65
(dp2198
g73
I5
ssg74
g2192
sg67
(lp2199
g60
(g69
g62
NtRp2200
(dp2201
g65
(dp2202
g73
I4
ssg74
Nsg67
(lp2203
g60
(g76
g62
NtRp2204
(dp2205
g65
(dp2206
sg74
g2200
sg67
(lp2207
g60
(g81
g62
NtRp2208
(dp2209
g65
(dp2210
g85
g86
ssg74
g2204
sg67
(lp2211
S'environ'
p2212
asbag60
(g81
g62
NtRp2213
(dp2214
g65
(dp2215
g92
g93
ssg74
g2204
sg67
(lp2216
S':'
asbag60
(g81
g62
NtRp2217
(dp2218
g65
(dp2219
sg74
g2204
sg67
(lp2220
g60
(g61
g62
NtRp2221
(dp2222
g65
(dp2223
g73
I4
ssg74
g2217
sg67
(lp2224
g60
(g69
g62
NtRp2225
(dp2226
g65
(dp2227
g73
I3
ssg74
Nsg67
(lp2228
g60
(g76
g62
NtRp2229
(dp2230
g65
(dp2231
sg74
g2225
sg67
(lp2232
g60
(g81
g62
NtRp2233
(dp2234
g65
(dp2235
g85
g86
ssg74
g2229
sg67
(lp2236
S'HTTP_ACCEPT'
p2237
asbag60
(g81
g62
NtRp2238
(dp2239
g65
(dp2240
g92
g93
ssg74
g2229
sg67
(lp2241
S':'
asbag60
(g81
g62
NtRp2242
(dp2243
g65
(dp2244
sg74
g2229
sg67
(lp2245
g60
(g61
g62
NtRp2246
(dp2247
g65
(dp2248
g73
I3
ssg74
g2242
sg67
(lp2249
g780
asbasbasbag60
(g76
g62
NtRp2250
(dp2251
g65
(dp2252
sg74
g2225
sg67
(lp2253
g60
(g81
g62
NtRp2254
(dp2255
g65
(dp2256
g85
g86
ssg74
g2250
sg67
(lp2257
S'HTTP_ACCEPT_CHARSET'
p2258
asbag60
(g81
g62
NtRp2259
(dp2260
g65
(dp2261
g92
g93
ssg74
g2250
sg67
(lp2262
S':'
asbag60
(g81
g62
NtRp2263
(dp2264
g65
(dp2265
sg74
g2250
sg67
(lp2266
g60
(g61
g62
NtRp2267
(dp2268
g65
(dp2269
g73
I3
ssg74
g2263
sg67
(lp2270
g802
asbasbasbag60
(g76
g62
NtRp2271
(dp2272
g65
(dp2273
sg74
g2225
sg67
(lp2274
g60
(g81
g62
NtRp2275
(dp2276
g65
(dp2277
g85
g86
ssg74
g2271
sg67
(lp2278
S'HTTP_ACCEPT_ENCODING'
p2279
asbag60
(g81
g62
NtRp2280
(dp2281
g65
(dp2282
g92
g93
ssg74
g2271
sg67
(lp2283
S':'
asbag60
(g81
g62
NtRp2284
(dp2285
g65
(dp2286
sg74
g2271
sg67
(lp2287
g60
(g61
g62
NtRp2288
(dp2289
g65
(dp2290
g73
I3
ssg74
g2284
sg67
(lp2291
g824
asbasbasbag60
(g76
g62
NtRp2292
(dp2293
g65
(dp2294
sg74
g2225
sg67
(lp2295
g60
(g81
g62
NtRp2296
(dp2297
g65
(dp2298
g85
g86
ssg74
g2292
sg67
(lp2299
S'HTTP_ACCEPT_LANGUAGE'
p2300
asbag60
(g81
g62
NtRp2301
(dp2302
g65
(dp2303
g92
g93
ssg74
g2292
sg67
(lp2304
S':'
asbag60
(g81
g62
NtRp2305
(dp2306
g65
(dp2307
sg74
g2292
sg67
(lp2308
g60
(g61
g62
NtRp2309
(dp2310
g65
(dp2311
g73
I3
ssg74
g2305
sg67
(lp2312
g846
asbasbasbag60
(g76
g62
NtRp2313
(dp2314
g65
(dp2315
sg74
g2225
sg67
(lp2316
g60
(g81
g62
NtRp2317
(dp2318
g65
(dp2319
g85
g86
ssg74
g2313
sg67
(lp2320
S'HTTP_CACHE_CONTROL'
p2321
asbag60
(g81
g62
NtRp2322
(dp2323
g65
(dp2324
g92
g93
ssg74
g2313
sg67
(lp2325
S':'
asbag60
(g81
g62
NtRp2326
(dp2327
g65
(dp2328
sg74
g2313
sg67
(lp2329
g60
(g61
g62
NtRp2330
(dp2331
g65
(dp2332
g73
I3
ssg74
g2326
sg67
(lp2333
g868
asbasbasbag60
(g76
g62
NtRp2334
(dp2335
g65
(dp2336
sg74
g2225
sg67
(lp2337
g60
(g81
g62
NtRp2338
(dp2339
g65
(dp2340
g85
g86
ssg74
g2334
sg67
(lp2341
S'HTTP_CONNECTION'
p2342
asbag60
(g81
g62
NtRp2343
(dp2344
g65
(dp2345
g92
g93
ssg74
g2334
sg67
(lp2346
S':'
asbag60
(g81
g62
NtRp2347
(dp2348
g65
(dp2349
sg74
g2334
sg67
(lp2350
g60
(g61
g62
NtRp2351
(dp2352
g65
(dp2353
g73
I3
ssg74
g2347
sg67
(lp2354
g890
asbasbasbag60
(g76
g62
NtRp2355
(dp2356
g65
(dp2357
sg74
g2225
sg67
(lp2358
g60
(g81
g62
NtRp2359
(dp2360
g65
(dp2361
g85
g86
ssg74
g2355
sg67
(lp2362
S'HTTP_COOKIE'
p2363
asbag60
(g81
g62
NtRp2364
(dp2365
g65
(dp2366
g92
g93
ssg74
g2355
sg67
(lp2367
S':'
asbag60
(g81
g62
NtRp2368
(dp2369
g65
(dp2370
sg74
g2355
sg67
(lp2371
g60
(g61
g62
NtRp2372
(dp2373
g65
(dp2374
g73
I3
ssg74
g2368
sg67
(lp2375
g912
asbasbasbag60
(g76
g62
NtRp2376
(dp2377
g65
(dp2378
sg74
g2225
sg67
(lp2379
g60
(g81
g62
NtRp2380
(dp2381
g65
(dp2382
g85
g86
ssg74
g2376
sg67
(lp2383
S'HTTP_DNT'
p2384
asbag60
(g81
g62
NtRp2385
(dp2386
g65
(dp2387
g92
g93
ssg74
g2376
sg67
(lp2388
S':'
asbag60
(g81
g62
NtRp2389
(dp2390
g65
(dp2391
sg74
g2376
sg67
(lp2392
g60
(g61
g62
NtRp2393
(dp2394
g65
(dp2395
g73
I3
ssg74
g2389
sg67
(lp2396
S'1'
asbasbasbag60
(g76
g62
NtRp2397
(dp2398
g65
(dp2399
sg74
g2225
sg67
(lp2400
g60
(g81
g62
NtRp2401
(dp2402
g65
(dp2403
g85
g86
ssg74
g2397
sg67
(lp2404
S'HTTP_HOST'
p2405
asbag60
(g81
g62
NtRp2406
(dp2407
g65
(dp2408
g92
g93
ssg74
g2397
sg67
(lp2409
S':'
asbag60
(g81
g62
NtRp2410
(dp2411
g65
(dp2412
sg74
g2397
sg67
(lp2413
g60
(g61
g62
NtRp2414
(dp2415
g65
(dp2416
g73
I3
ssg74
g2410
sg67
(lp2417
g955
asbasbasbag60
(g76
g62
NtRp2418
(dp2419
g65
(dp2420
sg74
g2225
sg67
(lp2421
g60
(g81
g62
NtRp2422
(dp2423
g65
(dp2424
g85
g86
ssg74
g2418
sg67
(lp2425
S'HTTP_USER_AGENT'
p2426
asbag60
(g81
g62
NtRp2427
(dp2428
g65
(dp2429
g92
g93
ssg74
g2418
sg67
(lp2430
S':'
asbag60
(g81
g62
NtRp2431
(dp2432
g65
(dp2433
sg74
g2418
sg67
(lp2434
g60
(g61
g62
NtRp2435
(dp2436
g65
(dp2437
g73
I3
ssg74
g2431
sg67
(lp2438
g977
asbasbasbag60
(g76
g62
NtRp2439
(dp2440
g65
(dp2441
sg74
g2225
sg67
(lp2442
g60
(g81
g62
NtRp2443
(dp2444
g65
(dp2445
g85
g86
ssg74
g2439
sg67
(lp2446
S'PATH_INFO'
p2447
asbag60
(g81
g62
NtRp2448
(dp2449
g65
(dp2450
g92
g93
ssg74
g2439
sg67
(lp2451
S':'
asbag60
(g81
g62
NtRp2452
(dp2453
g65
(dp2454
sg74
g2439
sg67
(lp2455
g60
(g61
g62
NtRp2456
(dp2457
g65
(dp2458
g73
I3
ssg74
g2452
sg67
(lp2459
g1041
asbasbasbag60
(g76
g62
NtRp2460
(dp2461
g65
(dp2462
sg74
g2225
sg67
(lp2463
g60
(g81
g62
NtRp2464
(dp2465
g65
(dp2466
g85
g86
ssg74
g2460
sg67
(lp2467
S'QUERY_STRING'
p2468
asbag60
(g81
g62
NtRp2469
(dp2470
g65
(dp2471
g92
g93
ssg74
g2460
sg67
(lp2472
S':'
asbag60
(g81
g62
NtRp2473
(dp2474
g65
(dp2475
sg74
g2460
sg67
(lp2476
g60
(g61
g62
NtRp2477
(dp2478
g65
(dp2479
g73
I3
ssg74
g2473
sg67
(lp2480
S''
asbasbasbag60
(g76
g62
NtRp2481
(dp2482
g65
(dp2483
sg74
g2225
sg67
(lp2484
g60
(g81
g62
NtRp2485
(dp2486
g65
(dp2487
g85
g86
ssg74
g2481
sg67
(lp2488
S'REMOTE_ADDR'
p2489
asbag60
(g81
g62
NtRp2490
(dp2491
g65
(dp2492
g92
g93
ssg74
g2481
sg67
(lp2493
S':'
asbag60
(g81
g62
NtRp2494
(dp2495
g65
(dp2496
sg74
g2481
sg67
(lp2497
g60
(g61
g62
NtRp2498
(dp2499
g65
(dp2500
g73
I3
ssg74
g2494
sg67
(lp2501
g193
asbasbasbag60
(g76
g62
NtRp2502
(dp2503
g65
(dp2504
sg74
g2225
sg67
(lp2505
g60
(g81
g62
NtRp2506
(dp2507
g65
(dp2508
g85
g86
ssg74
g2502
sg67
(lp2509
S'REMOTE_PORT'
p2510
asbag60
(g81
g62
NtRp2511
(dp2512
g65
(dp2513
g92
g93
ssg74
g2502
sg67
(lp2514
S':'
asbag60
(g81
g62
NtRp2515
(dp2516
g65
(dp2517
sg74
g2502
sg67
(lp2518
g60
(g61
g62
NtRp2519
(dp2520
g65
(dp2521
g73
I3
ssg74
g2515
sg67
(lp2522
g1105
asbasbasbag60
(g76
g62
NtRp2523
(dp2524
g65
(dp2525
sg74
g2225
sg67
(lp2526
g60
(g81
g62
NtRp2527
(dp2528
g65
(dp2529
g85
g86
ssg74
g2523
sg67
(lp2530
S'REQUEST_METHOD'
p2531
asbag60
(g81
g62
NtRp2532
(dp2533
g65
(dp2534
g92
g93
ssg74
g2523
sg67
(lp2535
S':'
asbag60
(g81
g62
NtRp2536
(dp2537
g65
(dp2538
sg74
g2523
sg67
(lp2539
g60
(g61
g62
NtRp2540
(dp2541
g65
(dp2542
g73
I3
ssg74
g2536
sg67
(lp2543
g1127
asbasbasbag60
(g76
g62
NtRp2544
(dp2545
g65
(dp2546
sg74
g2225
sg67
(lp2547
g60
(g81
g62
NtRp2548
(dp2549
g65
(dp2550
g85
g86
ssg74
g2544
sg67
(lp2551
S'SCRIPT_NAME'
p2552
asbag60
(g81
g62
NtRp2553
(dp2554
g65
(dp2555
g92
g93
ssg74
g2544
sg67
(lp2556
S':'
asbag60
(g81
g62
NtRp2557
(dp2558
g65
(dp2559
sg74
g2544
sg67
(lp2560
g60
(g61
g62
NtRp2561
(dp2562
g65
(dp2563
g73
I3
ssg74
g2557
sg67
(lp2564
S''
asbasbasbag60
(g76
g62
NtRp2565
(dp2566
g65
(dp2567
sg74
g2225
sg67
(lp2568
g60
(g81
g62
NtRp2569
(dp2570
g65
(dp2571
g85
g86
ssg74
g2565
sg67
(lp2572
S'SERVER_NAME'
p2573
asbag60
(g81
g62
NtRp2574
(dp2575
g65
(dp2576
g92
g93
ssg74
g2565
sg67
(lp2577
S':'
asbag60
(g81
g62
NtRp2578
(dp2579
g65
(dp2580
sg74
g2565
sg67
(lp2581
g60
(g61
g62
NtRp2582
(dp2583
g65
(dp2584
g73
I3
ssg74
g2578
sg67
(lp2585
g1170
asbasbasbag60
(g76
g62
NtRp2586
(dp2587
g65
(dp2588
sg74
g2225
sg67
(lp2589
g60
(g81
g62
NtRp2590
(dp2591
g65
(dp2592
g85
g86
ssg74
g2586
sg67
(lp2593
S'SERVER_PORT'
p2594
asbag60
(g81
g62
NtRp2595
(dp2596
g65
(dp2597
g92
g93
ssg74
g2586
sg67
(lp2598
S':'
asbag60
(g81
g62
NtRp2599
(dp2600
g65
(dp2601
sg74
g2586
sg67
(lp2602
g60
(g61
g62
NtRp2603
(dp2604
g65
(dp2605
g73
I3
ssg74
g2599
sg67
(lp2606
g1192
asbasbasbag60
(g76
g62
NtRp2607
(dp2608
g65
(dp2609
sg74
g2225
sg67
(lp2610
g60
(g81
g62
NtRp2611
(dp2612
g65
(dp2613
g85
g86
ssg74
g2607
sg67
(lp2614
S'SERVER_PROTOCOL'
p2615
asbag60
(g81
g62
NtRp2616
(dp2617
g65
(dp2618
g92
g93
ssg74
g2607
sg67
(lp2619
S':'
asbag60
(g81
g62
NtRp2620
(dp2621
g65
(dp2622
sg74
g2607
sg67
(lp2623
g60
(g61
g62
NtRp2624
(dp2625
g65
(dp2626
g73
I3
ssg74
g2620
sg67
(lp2627
g1214
asbasbasbag60
(g76
g62
NtRp2628
(dp2629
g65
(dp2630
sg74
g2225
sg67
(lp2631
g60
(g81
g62
NtRp2632
(dp2633
g65
(dp2634
g85
g86
ssg74
g2628
sg67
(lp2635
S'SERVER_SOFTWARE'
p2636
asbag60
(g81
g62
NtRp2637
(dp2638
g65
(dp2639
g92
g93
ssg74
g2628
sg67
(lp2640
S':'
asbag60
(g81
g62
NtRp2641
(dp2642
g65
(dp2643
sg74
g2628
sg67
(lp2644
g60
(g61
g62
NtRp2645
(dp2646
g65
(dp2647
g73
I3
ssg74
g2641
sg67
(lp2648
g1236
asbasbasbag60
(g76
g62
NtRp2649
(dp2650
g65
(dp2651
sg74
g2225
sg67
(lp2652
g60
(g81
g62
NtRp2653
(dp2654
g65
(dp2655
g85
g86
ssg74
g2649
sg67
(lp2656
S'wsgi.errors'
p2657
asbag60
(g81
g62
NtRp2658
(dp2659
g65
(dp2660
g92
g93
ssg74
g2649
sg67
(lp2661
S':'
asbag60
(g81
g62
NtRp2662
(dp2663
g65
(dp2664
sg74
g2649
sg67
(lp2665
g60
(g61
g62
NtRp2666
(dp2667
g65
(dp2668
g73
I3
ssg74
g2662
sg67
(lp2669
S'<__main__.Stderr object at 0x01FA6670>'
p2670
asbasbasbag60
(g76
g62
NtRp2671
(dp2672
g65
(dp2673
sg74
g2225
sg67
(lp2674
g60
(g81
g62
NtRp2675
(dp2676
g65
(dp2677
g85
g86
ssg74
g2671
sg67
(lp2678
S'wsgi.file_wrapper'
p2679
asbag60
(g81
g62
NtRp2680
(dp2681
g65
(dp2682
g92
g93
ssg74
g2671
sg67
(lp2683
S':'
asbag60
(g81
g62
NtRp2684
(dp2685
g65
(dp2686
sg74
g2671
sg67
(lp2687
g60
(g61
g62
NtRp2688
(dp2689
g65
(dp2690
g73
I3
ssg74
g2684
sg67
(lp2691
S'<class wsgiref.util.FileWrapper at 0x02EDDE10>'
p2692
asbasbasbag60
(g76
g62
NtRp2693
(dp2694
g65
(dp2695
sg74
g2225
sg67
(lp2696
g60
(g81
g62
NtRp2697
(dp2698
g65
(dp2699
g85
g86
ssg74
g2693
sg67
(lp2700
S'wsgi.input'
p2701
asbag60
(g81
g62
NtRp2702
(dp2703
g65
(dp2704
g92
g93
ssg74
g2693
sg67
(lp2705
S':'
asbag60
(g81
g62
NtRp2706
(dp2707
g65
(dp2708
sg74
g2693
sg67
(lp2709
g60
(g61
g62
NtRp2710
(dp2711
g65
(dp2712
g73
I3
ssg74
g2706
sg67
(lp2713
S'<cStringIO.StringO object at 0x06078880>'
p2714
asbasbasbag60
(g76
g62
NtRp2715
(dp2716
g65
(dp2717
sg74
g2225
sg67
(lp2718
g60
(g81
g62
NtRp2719
(dp2720
g65
(dp2721
g85
g86
ssg74
g2715
sg67
(lp2722
S'wsgi.multiprocess'
p2723
asbag60
(g81
g62
NtRp2724
(dp2725
g65
(dp2726
g92
g93
ssg74
g2715
sg67
(lp2727
S':'
asbag60
(g81
g62
NtRp2728
(dp2729
g65
(dp2730
sg74
g2715
sg67
(lp2731
g60
(g61
g62
NtRp2732
(dp2733
g65
(dp2734
g73
I3
ssg74
g2728
sg67
(lp2735
g103
asbasbasbag60
(g76
g62
NtRp2736
(dp2737
g65
(dp2738
sg74
g2225
sg67
(lp2739
g60
(g81
g62
NtRp2740
(dp2741
g65
(dp2742
g85
g86
ssg74
g2736
sg67
(lp2743
S'wsgi.multithread'
p2744
asbag60
(g81
g62
NtRp2745
(dp2746
g65
(dp2747
g92
g93
ssg74
g2736
sg67
(lp2748
S':'
asbag60
(g81
g62
NtRp2749
(dp2750
g65
(dp2751
sg74
g2736
sg67
(lp2752
g60
(g61
g62
NtRp2753
(dp2754
g65
(dp2755
g73
I3
ssg74
g2749
sg67
(lp2756
g1476
asbasbasbag60
(g76
g62
NtRp2757
(dp2758
g65
(dp2759
sg74
g2225
sg67
(lp2760
g60
(g81
g62
NtRp2761
(dp2762
g65
(dp2763
g85
g86
ssg74
g2757
sg67
(lp2764
S'wsgi.run_once'
p2765
asbag60
(g81
g62
NtRp2766
(dp2767
g65
(dp2768
g92
g93
ssg74
g2757
sg67
(lp2769
S':'
asbag60
(g81
g62
NtRp2770
(dp2771
g65
(dp2772
sg74
g2757
sg67
(lp2773
g60
(g61
g62
NtRp2774
(dp2775
g65
(dp2776
g73
I3
ssg74
g2770
sg67
(lp2777
g103
asbasbasbag60
(g76
g62
NtRp2778
(dp2779
g65
(dp2780
sg74
g2225
sg67
(lp2781
g60
(g81
g62
NtRp2782
(dp2783
g65
(dp2784
g85
g86
ssg74
g2778
sg67
(lp2785
S'wsgi.url_scheme'
p2786
asbag60
(g81
g62
NtRp2787
(dp2788
g65
(dp2789
g92
g93
ssg74
g2778
sg67
(lp2790
S':'
asbag60
(g81
g62
NtRp2791
(dp2792
g65
(dp2793
sg74
g2778
sg67
(lp2794
g60
(g61
g62
NtRp2795
(dp2796
g65
(dp2797
g73
I3
ssg74
g2791
sg67
(lp2798
g1519
asbasbasbag60
(g76
g62
NtRp2799
(dp2800
g65
(dp2801
sg74
g2225
sg67
(lp2802
g60
(g81
g62
NtRp2803
(dp2804
g65
(dp2805
g85
g86
ssg74
g2799
sg67
(lp2806
S'wsgi.version'
p2807
asbag60
(g81
g62
NtRp2808
(dp2809
g65
(dp2810
g92
g93
ssg74
g2799
sg67
(lp2811
S':'
asbag60
(g81
g62
NtRp2812
(dp2813
g65
(dp2814
sg74
g2799
sg67
(lp2815
g60
(g61
g62
NtRp2816
(dp2817
g65
(dp2818
g73
I3
ssg74
g2812
sg67
(lp2819
S'1'
asbasbasbasbasbasbasbasbasbasbasbasbasbsS'frames'
p2820
(lp2821
(dp2822
S'file'
p2823
S'C:\\web2py\\gluon\\restricted.py'
p2824
sS'dump'
p2825
(dp2826
sS'lnum'
p2827
I204
sS'lines'
p2828
(dp2829
sS'call'
p2830
S'(code=\'response.write(\\\'<!DOCTYPE html>\\\\r\\\\n<html lang="e...n\\\\r\\\\n  </body>\\\\r\\\\n</html>\\\\r\\\\n\\\\r\\\\n\\\', escape=False)\', environment={\'A\': <class \'gluon.html.A\'>, \'Auth\': <class \'gluon.tools.Auth\'>, \'B\': <class \'gluon.html.B\'>, \'BEAUTIFY\': <class \'gluon.html.BEAUTIFY\'>, \'BODY\': <class \'gluon.html.BODY\'>, \'BR\': <class \'gluon.html.BR\'>, \'BUTTON\': <class \'gluon.html.BUTTON\'>, \'CAT\': <class \'gluon.html.CAT\'>, \'CENTER\': <class \'gluon.html.CENTER\'>, \'CLEANUP\': <class \'gluon.validators.CLEANUP\'>, ...}, layer=r\'C:\\web2py\\applications\\unioeste_code\\views\\default/index.html\')'
p2831
sS'func'
p2832
S'restricted'
p2833
sa(dp2834
g2823
S'C:\\web2py\\gluon\\restricted.py'
p2835
sg2825
(dp2836
sg2827
I189
sg2828
(dp2837
sg2830
S'(code=\'response.write(\\\'<!DOCTYPE html>\\\\r\\\\n<html lang="e...n\\\\r\\\\n  </body>\\\\r\\\\n</html>\\\\r\\\\n\\\\r\\\\n\\\', escape=False)\', layer=r\'C:\\web2py\\applications\\unioeste_code\\views\\default/index.html\')'
p2838
sg2832
S'compile2'
p2839
sasS'pyver'
p2840
S'Python 2.5.4: C:\\web2py\\web2py_no_console.exe'
p2841
sS'session'
p2842
g60
(g61
g62
NtRp2843
(dp2844
g65
(dp2845
sg67
(lp2846
g60
(g69
g62
NtRp2847
(dp2848
g65
(dp2849
g73
I5
ssg74
Nsg67
(lp2850
sbasbsS'etype'
p2851
S"<type 'exceptions.SyntaxError'>"
p2852
sS'date'
p2853
S'Tue Jul 31 16:12:48 2012'
p2854
sS'response'
p2855
g60
(g61
g62
NtRp2856
(dp2857
g65
(dp2858
sg67
(lp2859
g60
(g69
g62
NtRp2860
(dp2861
g65
(dp2862
g73
I5
ssg74
Nsg67
(lp2863
g60
(g76
g62
NtRp2864
(dp2865
g65
(dp2866
sg74
g2860
sg67
(lp2867
g60
(g81
g62
NtRp2868
(dp2869
g65
(dp2870
g85
g86
ssg74
g2864
sg67
(lp2871
g158
asbag60
(g81
g62
NtRp2872
(dp2873
g65
(dp2874
g92
g93
ssg74
g2864
sg67
(lp2875
S':'
asbag60
(g81
g62
NtRp2876
(dp2877
g65
(dp2878
sg74
g2864
sg67
(lp2879
g60
(g61
g62
NtRp2880
(dp2881
g65
(dp2882
g73
I5
ssg74
g2876
sg67
(lp2883
S'<cStringIO.StringO object at 0x03291FE0>'
p2884
asbasbasbag60
(g76
g62
NtRp2885
(dp2886
g65
(dp2887
sg74
g2860
sg67
(lp2888
g60
(g81
g62
NtRp2889
(dp2890
g65
(dp2891
g85
g86
ssg74
g2885
sg67
(lp2892
g224
asbag60
(g81
g62
NtRp2893
(dp2894
g65
(dp2895
g92
g93
ssg74
g2885
sg67
(lp2896
S':'
asbag60
(g81
g62
NtRp2897
(dp2898
g65
(dp2899
sg74
g2885
sg67
(lp2900
g60
(g61
g62
NtRp2901
(dp2902
g65
(dp2903
g73
I5
ssg74
g2897
sg67
(lp2904
g60
(g69
g62
NtRp2905
(dp2906
g65
(dp2907
g73
I4
ssg74
Nsg67
(lp2908
g60
(g76
g62
NtRp2909
(dp2910
g65
(dp2911
sg74
g2905
sg67
(lp2912
g60
(g81
g62
NtRp2913
(dp2914
g65
(dp2915
g85
g86
ssg74
g2909
sg67
(lp2916
S'session_id_unioeste_code'
p2917
asbag60
(g81
g62
NtRp2918
(dp2919
g65
(dp2920
g92
g93
ssg74
g2909
sg67
(lp2921
S':'
asbag60
(g81
g62
NtRp2922
(dp2923
g65
(dp2924
sg74
g2909
sg67
(lp2925
g60
(g61
g62
NtRp2926
(dp2927
g65
(dp2928
g73
I4
ssg74
g2922
sg67
(lp2929
g60
(g69
g62
NtRp2930
(dp2931
g65
(dp2932
g73
I3
ssg74
Nsg67
(lp2933
g60
(g76
g62
NtRp2934
(dp2935
g65
(dp2936
sg74
g2930
sg67
(lp2937
g60
(g81
g62
NtRp2938
(dp2939
g65
(dp2940
g85
g86
ssg74
g2934
sg67
(lp2941
g274
asbag60
(g81
g62
NtRp2942
(dp2943
g65
(dp2944
g92
g93
ssg74
g2934
sg67
(lp2945
S':'
asbag60
(g81
g62
NtRp2946
(dp2947
g65
(dp2948
sg74
g2934
sg67
(lp2949
g60
(g61
g62
NtRp2950
(dp2951
g65
(dp2952
g73
I3
ssg74
g2946
sg67
(lp2953
S''
asbasbasbag60
(g76
g62
NtRp2954
(dp2955
g65
(dp2956
sg74
g2930
sg67
(lp2957
g60
(g81
g62
NtRp2958
(dp2959
g65
(dp2960
g85
g86
ssg74
g2954
sg67
(lp2961
g295
asbag60
(g81
g62
NtRp2962
(dp2963
g65
(dp2964
g92
g93
ssg74
g2954
sg67
(lp2965
S':'
asbag60
(g81
g62
NtRp2966
(dp2967
g65
(dp2968
sg74
g2954
sg67
(lp2969
g60
(g61
g62
NtRp2970
(dp2971
g65
(dp2972
g73
I3
ssg74
g2966
sg67
(lp2973
S''
asbasbasbag60
(g76
g62
NtRp2974
(dp2975
g65
(dp2976
sg74
g2930
sg67
(lp2977
g60
(g81
g62
NtRp2978
(dp2979
g65
(dp2980
g85
g86
ssg74
g2974
sg67
(lp2981
g316
asbag60
(g81
g62
NtRp2982
(dp2983
g65
(dp2984
g92
g93
ssg74
g2974
sg67
(lp2985
S':'
asbag60
(g81
g62
NtRp2986
(dp2987
g65
(dp2988
sg74
g2974
sg67
(lp2989
g60
(g61
g62
NtRp2990
(dp2991
g65
(dp2992
g73
I3
ssg74
g2986
sg67
(lp2993
S''
asbasbasbag60
(g76
g62
NtRp2994
(dp2995
g65
(dp2996
sg74
g2930
sg67
(lp2997
g60
(g81
g62
NtRp2998
(dp2999
g65
(dp3000
g85
g86
ssg74
g2994
sg67
(lp3001
g337
asbag60
(g81
g62
NtRp3002
(dp3003
g65
(dp3004
g92
g93
ssg74
g2994
sg67
(lp3005
S':'
asbag60
(g81
g62
NtRp3006
(dp3007
g65
(dp3008
sg74
g2994
sg67
(lp3009
g60
(g61
g62
NtRp3010
(dp3011
g65
(dp3012
g73
I3
ssg74
g3006
sg67
(lp3013
S''
asbasbasbag60
(g76
g62
NtRp3014
(dp3015
g65
(dp3016
sg74
g2930
sg67
(lp3017
g60
(g81
g62
NtRp3018
(dp3019
g65
(dp3020
g85
g86
ssg74
g3014
sg67
(lp3021
g358
asbag60
(g81
g62
NtRp3022
(dp3023
g65
(dp3024
g92
g93
ssg74
g3014
sg67
(lp3025
S':'
asbag60
(g81
g62
NtRp3026
(dp3027
g65
(dp3028
sg74
g3014
sg67
(lp3029
g60
(g61
g62
NtRp3030
(dp3031
g65
(dp3032
g73
I3
ssg74
g3026
sg67
(lp3033
S'/'
asbasbasbag60
(g76
g62
NtRp3034
(dp3035
g65
(dp3036
sg74
g2930
sg67
(lp3037
g60
(g81
g62
NtRp3038
(dp3039
g65
(dp3040
g85
g86
ssg74
g3034
sg67
(lp3041
g379
asbag60
(g81
g62
NtRp3042
(dp3043
g65
(dp3044
g92
g93
ssg74
g3034
sg67
(lp3045
S':'
asbag60
(g81
g62
NtRp3046
(dp3047
g65
(dp3048
sg74
g3034
sg67
(lp3049
g60
(g61
g62
NtRp3050
(dp3051
g65
(dp3052
g73
I3
ssg74
g3046
sg67
(lp3053
S''
asbasbasbag60
(g76
g62
NtRp3054
(dp3055
g65
(dp3056
sg74
g2930
sg67
(lp3057
g60
(g81
g62
NtRp3058
(dp3059
g65
(dp3060
g85
g86
ssg74
g3054
sg67
(lp3061
g400
asbag60
(g81
g62
NtRp3062
(dp3063
g65
(dp3064
g92
g93
ssg74
g3054
sg67
(lp3065
S':'
asbag60
(g81
g62
NtRp3066
(dp3067
g65
(dp3068
sg74
g3054
sg67
(lp3069
g60
(g61
g62
NtRp3070
(dp3071
g65
(dp3072
g73
I3
ssg74
g3066
sg67
(lp3073
S''
asbasbasbasbasbasbasbasbasbasbasbag60
(g76
g62
NtRp3074
(dp3075
g65
(dp3076
sg74
g2860
sg67
(lp3077
g60
(g81
g62
NtRp3078
(dp3079
g65
(dp3080
g85
g86
ssg74
g3074
sg67
(lp3081
S'delimiters'
p3082
asbag60
(g81
g62
NtRp3083
(dp3084
g65
(dp3085
g92
g93
ssg74
g3074
sg67
(lp3086
S':'
asbag60
(g81
g62
NtRp3087
(dp3088
g65
(dp3089
sg74
g3074
sg67
(lp3090
g60
(g61
g62
NtRp3091
(dp3092
g65
(dp3093
g73
I5
ssg74
g3087
sg67
(lp3094
g60
(g69
g62
NtRp3095
(dp3096
g65
(dp3097
g73
I4
ssg74
Nsg67
(lp3098
g60
(g76
g62
NtRp3099
(dp3100
g65
(dp3101
sg74
g3095
sg67
(lp3102
g60
(g81
g62
NtRp3103
(dp3104
g65
(dp3105
sg74
g3099
sg67
(lp3106
g60
(g61
g62
NtRp3107
(dp3108
g65
(dp3109
g73
I4
ssg74
g3103
sg67
(lp3110
S'{{'
p3111
asbasbasbag60
(g76
g62
NtRp3112
(dp3113
g65
(dp3114
sg74
g3095
sg67
(lp3115
g60
(g81
g62
NtRp3116
(dp3117
g65
(dp3118
sg74
g3112
sg67
(lp3119
g60
(g61
g62
NtRp3120
(dp3121
g65
(dp3122
g73
I4
ssg74
g3116
sg67
(lp3123
S'}}'
p3124
asbasbasbasbasbasbasbag60
(g76
g62
NtRp3125
(dp3126
g65
(dp3127
sg74
g2860
sg67
(lp3128
g60
(g81
g62
NtRp3129
(dp3130
g65
(dp3131
g85
g86
ssg74
g3125
sg67
(lp3132
S'files'
p3133
asbag60
(g81
g62
NtRp3134
(dp3135
g65
(dp3136
g92
g93
ssg74
g3125
sg67
(lp3137
S':'
asbag60
(g81
g62
NtRp3138
(dp3139
g65
(dp3140
sg74
g3125
sg67
(lp3141
g60
(g61
g62
NtRp3142
(dp3143
g65
(dp3144
g73
I5
ssg74
g3138
sg67
(lp3145
g60
(g69
g62
NtRp3146
(dp3147
g65
(dp3148
g73
I4
ssg74
Nsg67
(lp3149
sbasbasbasbag60
(g76
g62
NtRp3150
(dp3151
g65
(dp3152
sg74
g2860
sg67
(lp3153
g60
(g81
g62
NtRp3154
(dp3155
g65
(dp3156
g85
g86
ssg74
g3150
sg67
(lp3157
S'flash'
p3158
asbag60
(g81
g62
NtRp3159
(dp3160
g65
(dp3161
g92
g93
ssg74
g3150
sg67
(lp3162
S':'
asbag60
(g81
g62
NtRp3163
(dp3164
g65
(dp3165
sg74
g3150
sg67
(lp3166
g60
(g61
g62
NtRp3167
(dp3168
g65
(dp3169
g73
I5
ssg74
g3163
sg67
(lp3170
S''
asbasbasbag60
(g76
g62
NtRp3171
(dp3172
g65
(dp3173
sg74
g2860
sg67
(lp3174
g60
(g81
g62
NtRp3175
(dp3176
g65
(dp3177
g85
g86
ssg74
g3171
sg67
(lp3178
S'generic_patterns'
p3179
asbag60
(g81
g62
NtRp3180
(dp3181
g65
(dp3182
g92
g93
ssg74
g3171
sg67
(lp3183
S':'
asbag60
(g81
g62
NtRp3184
(dp3185
g65
(dp3186
sg74
g3171
sg67
(lp3187
g60
(g61
g62
NtRp3188
(dp3189
g65
(dp3190
g73
I5
ssg74
g3184
sg67
(lp3191
g60
(g69
g62
NtRp3192
(dp3193
g65
(dp3194
g73
I4
ssg74
Nsg67
(lp3195
sbasbasbasbag60
(g76
g62
NtRp3196
(dp3197
g65
(dp3198
sg74
g2860
sg67
(lp3199
g60
(g81
g62
NtRp3200
(dp3201
g65
(dp3202
g85
g86
ssg74
g3196
sg67
(lp3203
S'headers'
p3204
asbag60
(g81
g62
NtRp3205
(dp3206
g65
(dp3207
g92
g93
ssg74
g3196
sg67
(lp3208
S':'
asbag60
(g81
g62
NtRp3209
(dp3210
g65
(dp3211
sg74
g3196
sg67
(lp3212
g60
(g61
g62
NtRp3213
(dp3214
g65
(dp3215
g73
I5
ssg74
g3209
sg67
(lp3216
g60
(g69
g62
NtRp3217
(dp3218
g65
(dp3219
g73
I4
ssg74
Nsg67
(lp3220
g60
(g76
g62
NtRp3221
(dp3222
g65
(dp3223
sg74
g3217
sg67
(lp3224
g60
(g81
g62
NtRp3225
(dp3226
g65
(dp3227
g85
g86
ssg74
g3221
sg67
(lp3228
S'Cache-Control'
p3229
asbag60
(g81
g62
NtRp3230
(dp3231
g65
(dp3232
g92
g93
ssg74
g3221
sg67
(lp3233
S':'
asbag60
(g81
g62
NtRp3234
(dp3235
g65
(dp3236
sg74
g3221
sg67
(lp3237
g60
(g61
g62
NtRp3238
(dp3239
g65
(dp3240
g73
I4
ssg74
g3234
sg67
(lp3241
S'no-store, no-cache, must-revalidate, post-check=0, pre-check=0'
p3242
asbasbasbag60
(g76
g62
NtRp3243
(dp3244
g65
(dp3245
sg74
g3217
sg67
(lp3246
g60
(g81
g62
NtRp3247
(dp3248
g65
(dp3249
g85
g86
ssg74
g3243
sg67
(lp3250
S'Content-Type'
p3251
asbag60
(g81
g62
NtRp3252
(dp3253
g65
(dp3254
g92
g93
ssg74
g3243
sg67
(lp3255
S':'
asbag60
(g81
g62
NtRp3256
(dp3257
g65
(dp3258
sg74
g3243
sg67
(lp3259
g60
(g61
g62
NtRp3260
(dp3261
g65
(dp3262
g73
I4
ssg74
g3256
sg67
(lp3263
S'text/html; charset=utf-8'
p3264
asbasbasbag60
(g76
g62
NtRp3265
(dp3266
g65
(dp3267
sg74
g3217
sg67
(lp3268
g60
(g81
g62
NtRp3269
(dp3270
g65
(dp3271
g85
g86
ssg74
g3265
sg67
(lp3272
S'Expires'
p3273
asbag60
(g81
g62
NtRp3274
(dp3275
g65
(dp3276
g92
g93
ssg74
g3265
sg67
(lp3277
S':'
asbag60
(g81
g62
NtRp3278
(dp3279
g65
(dp3280
sg74
g3265
sg67
(lp3281
g60
(g61
g62
NtRp3282
(dp3283
g65
(dp3284
g73
I4
ssg74
g3278
sg67
(lp3285
S'Tue, 31 Jul 2012 19:12:48 GMT'
p3286
asbasbasbag60
(g76
g62
NtRp3287
(dp3288
g65
(dp3289
sg74
g3217
sg67
(lp3290
g60
(g81
g62
NtRp3291
(dp3292
g65
(dp3293
g85
g86
ssg74
g3287
sg67
(lp3294
S'Pragma'
p3295
asbag60
(g81
g62
NtRp3296
(dp3297
g65
(dp3298
g92
g93
ssg74
g3287
sg67
(lp3299
S':'
asbag60
(g81
g62
NtRp3300
(dp3301
g65
(dp3302
sg74
g3287
sg67
(lp3303
g60
(g61
g62
NtRp3304
(dp3305
g65
(dp3306
g73
I4
ssg74
g3300
sg67
(lp3307
S'no-cache'
p3308
asbasbasbag60
(g76
g62
NtRp3309
(dp3310
g65
(dp3311
sg74
g3217
sg67
(lp3312
g60
(g81
g62
NtRp3313
(dp3314
g65
(dp3315
g85
g86
ssg74
g3309
sg67
(lp3316
S'X-Powered-By'
p3317
asbag60
(g81
g62
NtRp3318
(dp3319
g65
(dp3320
g92
g93
ssg74
g3309
sg67
(lp3321
S':'
asbag60
(g81
g62
NtRp3322
(dp3323
g65
(dp3324
sg74
g3309
sg67
(lp3325
g60
(g61
g62
NtRp3326
(dp3327
g65
(dp3328
g73
I4
ssg74
g3322
sg67
(lp3329
S'web2py'
p3330
asbasbasbasbasbasbasbag60
(g76
g62
NtRp3331
(dp3332
g65
(dp3333
sg74
g2860
sg67
(lp3334
g60
(g81
g62
NtRp3335
(dp3336
g65
(dp3337
g85
g86
ssg74
g3331
sg67
(lp3338
S'menu'
p3339
asbag60
(g81
g62
NtRp3340
(dp3341
g65
(dp3342
g92
g93
ssg74
g3331
sg67
(lp3343
S':'
asbag60
(g81
g62
NtRp3344
(dp3345
g65
(dp3346
sg74
g3331
sg67
(lp3347
g60
(g61
g62
NtRp3348
(dp3349
g65
(dp3350
g73
I5
ssg74
g3344
sg67
(lp3351
g60
(g69
g62
NtRp3352
(dp3353
g65
(dp3354
g73
I4
ssg74
Nsg67
(lp3355
g60
(g76
g62
NtRp3356
(dp3357
g65
(dp3358
sg74
g3352
sg67
(lp3359
g60
(g81
g62
NtRp3360
(dp3361
g65
(dp3362
sg74
g3356
sg67
(lp3363
g60
(g61
g62
NtRp3364
(dp3365
g65
(dp3366
g73
I4
ssg74
g3360
sg67
(lp3367
g60
(g69
g62
NtRp3368
(dp3369
g65
(dp3370
g73
I3
ssg74
Nsg67
(lp3371
g60
(g76
g62
NtRp3372
(dp3373
g65
(dp3374
sg74
g3368
sg67
(lp3375
g60
(g81
g62
NtRp3376
(dp3377
g65
(dp3378
sg74
g3372
sg67
(lp3379
g60
(g61
g62
NtRp3380
(dp3381
g65
(dp3382
g73
I3
ssg74
g3376
sg67
(lp3383
cgluon.languages
lazyT_unpickle
p3384
(S't\x04\x00\x00\x00Home'
tRp3385
asbasbasbag60
(g76
g62
NtRp3386
(dp3387
g65
(dp3388
sg74
g3368
sg67
(lp3389
g60
(g81
g62
NtRp3390
(dp3391
g65
(dp3392
sg74
g3386
sg67
(lp3393
g60
(g61
g62
NtRp3394
(dp3395
g65
(dp3396
g73
I3
ssg74
g3390
sg67
(lp3397
g103
asbasbasbag60
(g76
g62
NtRp3398
(dp3399
g65
(dp3400
sg74
g3368
sg67
(lp3401
g60
(g81
g62
NtRp3402
(dp3403
g65
(dp3404
sg74
g3398
sg67
(lp3405
g60
(g61
g62
NtRp3406
(dp3407
g65
(dp3408
g73
I3
ssg74
g3402
sg67
(lp3409
S'/unioeste_code/default/index'
p3410
asbasbasbag60
(g76
g62
NtRp3411
(dp3412
g65
(dp3413
sg74
g3368
sg67
(lp3414
g60
(g81
g62
NtRp3415
(dp3416
g65
(dp3417
sg74
g3411
sg67
(lp3418
g60
(g61
g62
NtRp3419
(dp3420
g65
(dp3421
g73
I3
ssg74
g3415
sg67
(lp3422
g60
(g69
g62
NtRp3423
(dp3424
g65
(dp3425
g73
I2
ssg74
Nsg67
(lp3426
sbasbasbasbasbasbasbasbag60
(g76
g62
NtRp3427
(dp3428
g65
(dp3429
sg74
g3352
sg67
(lp3430
g60
(g81
g62
NtRp3431
(dp3432
g65
(dp3433
sg74
g3427
sg67
(lp3434
g60
(g61
g62
NtRp3435
(dp3436
g65
(dp3437
g73
I4
ssg74
g3431
sg67
(lp3438
g60
(g69
g62
NtRp3439
(dp3440
g65
(dp3441
g73
I3
ssg74
Nsg67
(lp3442
g60
(g76
g62
NtRp3443
(dp3444
g65
(dp3445
sg74
g3439
sg67
(lp3446
g60
(g81
g62
NtRp3447
(dp3448
g65
(dp3449
sg74
g3443
sg67
(lp3450
g60
(g61
g62
NtRp3451
(dp3452
g65
(dp3453
g73
I3
ssg74
g3447
sg67
(lp3454
g60
(cgluon.html
SPAN
p3455
g62
NtRp3456
(dp3457
g65
(dp3458
g85
S'color:yellow'
p3459
ssg74
Nsg67
(lp3460
g3330
asbasbasbasbag60
(g76
g62
NtRp3461
(dp3462
g65
(dp3463
sg74
g3439
sg67
(lp3464
g60
(g81
g62
NtRp3465
(dp3466
g65
(dp3467
sg74
g3461
sg67
(lp3468
g60
(g61
g62
NtRp3469
(dp3470
g65
(dp3471
g73
I3
ssg74
g3465
sg67
(lp3472
g103
asbasbasbag60
(g76
g62
NtRp3473
(dp3474
g65
(dp3475
sg74
g3439
sg67
(lp3476
g60
(g81
g62
NtRp3477
(dp3478
g65
(dp3479
sg74
g3473
sg67
(lp3480
g60
(g61
g62
NtRp3481
(dp3482
g65
(dp3483
g73
I3
ssg74
g3477
sg67
(lp3484
S'None'
p3485
asbasbasbag60
(g76
g62
NtRp3486
(dp3487
g65
(dp3488
sg74
g3439
sg67
(lp3489
g60
(g81
g62
NtRp3490
(dp3491
g65
(dp3492
sg74
g3486
sg67
(lp3493
g60
(g61
g62
NtRp3494
(dp3495
g65
(dp3496
g73
I3
ssg74
g3490
sg67
(lp3497
g60
(g69
g62
NtRp3498
(dp3499
g65
(dp3500
g73
I2
ssg74
Nsg67
(lp3501
g60
(g76
g62
NtRp3502
(dp3503
g65
(dp3504
sg74
g3498
sg67
(lp3505
g60
(g81
g62
NtRp3506
(dp3507
g65
(dp3508
sg74
g3502
sg67
(lp3509
g60
(g61
g62
NtRp3510
(dp3511
g65
(dp3512
g73
I2
ssg74
g3506
sg67
(lp3513
g60
(g69
g62
NtRp3514
(dp3515
g65
(dp3516
g73
I1
ssg74
Nsg67
(lp3517
g60
(g76
g62
NtRp3518
(dp3519
g65
(dp3520
sg74
g3514
sg67
(lp3521
g60
(g81
g62
NtRp3522
(dp3523
g65
(dp3524
sg74
g3518
sg67
(lp3525
g60
(g61
g62
NtRp3526
(dp3527
g65
(dp3528
g73
I1
ssg74
g3522
sg67
(lp3529
g3384
(S's\x08\x00\x00\x00My Sites'
tRp3530
asbasbasbag60
(g76
g62
NtRp3531
(dp3532
g65
(dp3533
sg74
g3514
sg67
(lp3534
g60
(g81
g62
NtRp3535
(dp3536
g65
(dp3537
sg74
g3531
sg67
(lp3538
g60
(g61
g62
NtRp3539
(dp3540
g65
(dp3541
g73
I1
ssg74
g3535
sg67
(lp3542
I00
asbasbasbag60
(g76
g62
NtRp3543
(dp3544
g65
(dp3545
sg74
g3514
sg67
(lp3546
g60
(g81
g62
NtRp3547
(dp3548
g65
(dp3549
sg74
g3543
sg67
(lp3550
g60
(g61
g62
NtRp3551
(dp3552
g65
(dp3553
g73
I1
ssg74
g3547
sg67
(lp3554
S'/admin/default/site'
p3555
asbasbasbasbasbasbasbag60
(g76
g62
NtRp3556
(dp3557
g65
(dp3558
sg74
g3498
sg67
(lp3559
g60
(g81
g62
NtRp3560
(dp3561
g65
(dp3562
sg74
g3556
sg67
(lp3563
g60
(g61
g62
NtRp3564
(dp3565
g65
(dp3566
g73
I2
ssg74
g3560
sg67
(lp3567
g60
(g69
g62
NtRp3568
(dp3569
g65
(dp3570
g73
I1
ssg74
Nsg67
(lp3571
g60
(g76
g62
NtRp3572
(dp3573
g65
(dp3574
sg74
g3568
sg67
(lp3575
g60
(g81
g62
NtRp3576
(dp3577
g65
(dp3578
sg74
g3572
sg67
(lp3579
g60
(g61
g62
NtRp3580
(dp3581
g65
(dp3582
g73
I1
ssg74
g3576
sg67
(lp3583
g3384
(S's\x08\x00\x00\x00This App'
tRp3584
asbasbasbag60
(g76
g62
NtRp3585
(dp3586
g65
(dp3587
sg74
g3568
sg67
(lp3588
g60
(g81
g62
NtRp3589
(dp3590
g65
(dp3591
sg74
g3585
sg67
(lp3592
g60
(g61
g62
NtRp3593
(dp3594
g65
(dp3595
g73
I1
ssg74
g3589
sg67
(lp3596
I00
asbasbasbag60
(g76
g62
NtRp3597
(dp3598
g65
(dp3599
sg74
g3568
sg67
(lp3600
g60
(g81
g62
NtRp3601
(dp3602
g65
(dp3603
sg74
g3597
sg67
(lp3604
g60
(g61
g62
NtRp3605
(dp3606
g65
(dp3607
g73
I1
ssg74
g3601
sg67
(lp3608
S'/admin/default/design/unioeste_code'
p3609
asbasbasbag60
(g76
g62
NtRp3610
(dp3611
g65
(dp3612
sg74
g3568
sg67
(lp3613
g60
(g81
g62
NtRp3614
(dp3615
g65
(dp3616
sg74
g3610
sg67
(lp3617
g60
(g61
g62
NtRp3618
(dp3619
g65
(dp3620
g73
I1
ssg74
g3614
sg67
(lp3621
(lp3622
(g3384
(S't\x0b\x00\x00\x00Controlador'
tRp3623
I00
S'/admin/default/edit/unioeste_code/controllers/default.py'
tp3624
a(g3384
(S's\x0e\x00\x00\x00Visualiza\xc3\xa7\xc3\xa3o'
tRp3625
I00
S'/admin/default/edit/unioeste_code/views/default/index.html'
tp3626
a(g3384
(S't\x06\x00\x00\x00Layout'
tRp3627
I00
S'/admin/default/edit/unioeste_code/views/layout.html'
tp3628
a(g3384
(S't\n\x00\x00\x00Stylesheet'
tRp3629
I00
S'/admin/default/edit/unioeste_code/static/css/web2py.css'
tp3630
a(g3384
(S's\t\x00\x00\x00Modelo BD'
tRp3631
I00
S'/admin/default/edit/unioeste_code/models/db.py'
tp3632
a(g3384
(S's\x0e\x00\x00\x00Modelo de Menu'
tRp3633
I00
S'/admin/default/edit/unioeste_code/models/menu.py'
tp3634
a(g3384
(S's\x0e\x00\x00\x00Banco de dados'
tRp3635
I00
S'/unioeste_code/appadmin/index'
tp3636
a(g3384
(S't\x06\x00\x00\x00Errors'
tRp3637
I00
S'/admin/default/errors/unioeste_code'
tp3638
a(g3384
(S't\x05\x00\x00\x00About'
tRp3639
I00
S'/admin/default/about/unioeste_code'
tp3640
aasbasbasbasbasbasbasbag60
(g76
g62
NtRp3641
(dp3642
g65
(dp3643
sg74
g3498
sg67
(lp3644
g60
(g81
g62
NtRp3645
(dp3646
g65
(dp3647
sg74
g3641
sg67
(lp3648
g60
(g61
g62
NtRp3649
(dp3650
g65
(dp3651
g73
I2
ssg74
g3645
sg67
(lp3652
g60
(g69
g62
NtRp3653
(dp3654
g65
(dp3655
g73
I1
ssg74
Nsg67
(lp3656
g60
(g76
g62
NtRp3657
(dp3658
g65
(dp3659
sg74
g3653
sg67
(lp3660
g60
(g81
g62
NtRp3661
(dp3662
g65
(dp3663
sg74
g3657
sg67
(lp3664
g60
(g61
g62
NtRp3665
(dp3666
g65
(dp3667
g73
I1
ssg74
g3661
sg67
(lp3668
S'web2py.com'
p3669
asbasbasbag60
(g76
g62
NtRp3670
(dp3671
g65
(dp3672
sg74
g3653
sg67
(lp3673
g60
(g81
g62
NtRp3674
(dp3675
g65
(dp3676
sg74
g3670
sg67
(lp3677
g60
(g61
g62
NtRp3678
(dp3679
g65
(dp3680
g73
I1
ssg74
g3674
sg67
(lp3681
I00
asbasbasbag60
(g76
g62
NtRp3682
(dp3683
g65
(dp3684
sg74
g3653
sg67
(lp3685
g60
(g81
g62
NtRp3686
(dp3687
g65
(dp3688
sg74
g3682
sg67
(lp3689
g60
(g61
g62
NtRp3690
(dp3691
g65
(dp3692
g73
I1
ssg74
g3686
sg67
(lp3693
S'http://www.web2py.com'
p3694
asbasbasbag60
(g76
g62
NtRp3695
(dp3696
g65
(dp3697
sg74
g3653
sg67
(lp3698
g60
(g81
g62
NtRp3699
(dp3700
g65
(dp3701
sg74
g3695
sg67
(lp3702
g60
(g61
g62
NtRp3703
(dp3704
g65
(dp3705
g73
I1
ssg74
g3699
sg67
(lp3706
(lp3707
(g3384
(S't\x08\x00\x00\x00Download'
tRp3708
I00
S'http://www.web2py.com/examples/default/download'
p3709
tp3710
a(g3384
(S't\x07\x00\x00\x00Support'
tRp3711
I00
S'http://www.web2py.com/examples/default/support'
p3712
tp3713
a(g3384
(S't\x04\x00\x00\x00Demo'
tRp3714
I00
S'http://web2py.com/demo_admin'
p3715
tp3716
a(g3384
(S's\x0e\x00\x00\x00Quick Examples'
tRp3717
I00
S'http://web2py.com/examples/default/examples'
p3718
tp3719
a(g3384
(S't\x03\x00\x00\x00FAQ'
tRp3720
I00
S'http://web2py.com/AlterEgo'
p3721
tp3722
a(g3384
(S't\x06\x00\x00\x00Videos'
tRp3723
I00
S'http://www.web2py.com/examples/default/videos/'
p3724
tp3725
a(g3384
(S's\x11\x00\x00\x00Free Applications'
tRp3726
I00
S'http://web2py.com/appliances'
p3727
tp3728
a(g3384
(S't\x07\x00\x00\x00Plugins'
tRp3729
I00
S'http://web2py.com/plugins'
p3730
tp3731
a(g3384
(S't\x07\x00\x00\x00Layouts'
tRp3732
I00
S'http://web2py.com/layouts'
p3733
tp3734
a(g3384
(S't\x07\x00\x00\x00Recipes'
tRp3735
I00
S'http://web2pyslices.com/'
p3736
tp3737
a(g3384
(S't\x08\x00\x00\x00Semantic'
tRp3738
I00
S'http://web2py.com/semantic'
p3739
tp3740
aasbasbasbasbasbasbasbag60
(g76
g62
NtRp3741
(dp3742
g65
(dp3743
sg74
g3498
sg67
(lp3744
g60
(g81
g62
NtRp3745
(dp3746
g65
(dp3747
sg74
g3741
sg67
(lp3748
g60
(g61
g62
NtRp3749
(dp3750
g65
(dp3751
g73
I2
ssg74
g3745
sg67
(lp3752
g60
(g69
g62
NtRp3753
(dp3754
g65
(dp3755
g73
I1
ssg74
Nsg67
(lp3756
g60
(g76
g62
NtRp3757
(dp3758
g65
(dp3759
sg74
g3753
sg67
(lp3760
g60
(g81
g62
NtRp3761
(dp3762
g65
(dp3763
sg74
g3757
sg67
(lp3764
g60
(g61
g62
NtRp3765
(dp3766
g65
(dp3767
g73
I1
ssg74
g3761
sg67
(lp3768
g3384
(S't\r\x00\x00\x00Documentation'
tRp3769
asbasbasbag60
(g76
g62
NtRp3770
(dp3771
g65
(dp3772
sg74
g3753
sg67
(lp3773
g60
(g81
g62
NtRp3774
(dp3775
g65
(dp3776
sg74
g3770
sg67
(lp3777
g60
(g61
g62
NtRp3778
(dp3779
g65
(dp3780
g73
I1
ssg74
g3774
sg67
(lp3781
I00
asbasbasbag60
(g76
g62
NtRp3782
(dp3783
g65
(dp3784
sg74
g3753
sg67
(lp3785
g60
(g81
g62
NtRp3786
(dp3787
g65
(dp3788
sg74
g3782
sg67
(lp3789
g60
(g61
g62
NtRp3790
(dp3791
g65
(dp3792
g73
I1
ssg74
g3786
sg67
(lp3793
S'http://www.web2py.com/book'
p3794
asbasbasbag60
(g76
g62
NtRp3795
(dp3796
g65
(dp3797
sg74
g3753
sg67
(lp3798
g60
(g81
g62
NtRp3799
(dp3800
g65
(dp3801
sg74
g3795
sg67
(lp3802
g60
(g61
g62
NtRp3803
(dp3804
g65
(dp3805
g73
I1
ssg74
g3799
sg67
(lp3806
(lp3807
(g3384
(S't\x07\x00\x00\x00Preface'
tRp3808
I00
S'http://www.web2py.com/book/default/chapter/00'
p3809
tp3810
a(g3384
(S't\x0c\x00\x00\x00Introduction'
tRp3811
I00
S'http://www.web2py.com/book/default/chapter/01'
p3812
tp3813
a(g3384
(S't\x06\x00\x00\x00Python'
tRp3814
I00
S'http://www.web2py.com/book/default/chapter/02'
p3815
tp3816
a(g3384
(S't\x08\x00\x00\x00Overview'
tRp3817
I00
S'http://www.web2py.com/book/default/chapter/03'
p3818
tp3819
a(g3384
(S's\x08\x00\x00\x00The Core'
tRp3820
I00
S'http://www.web2py.com/book/default/chapter/04'
p3821
tp3822
a(g3384
(S's\t\x00\x00\x00The Views'
tRp3823
I00
S'http://www.web2py.com/book/default/chapter/05'
p3824
tp3825
a(g3384
(S's\x0e\x00\x00\x00Banco de dados'
tRp3826
I00
S'http://www.web2py.com/book/default/chapter/06'
p3827
tp3828
a(g3384
(S's\x14\x00\x00\x00Forms and Validators'
tRp3829
I00
S'http://www.web2py.com/book/default/chapter/07'
p3830
tp3831
a(g3384
(S's\r\x00\x00\x00Email and SMS'
tRp3832
I00
S'http://www.web2py.com/book/default/chapter/08'
p3833
tp3834
a(g3384
(S's\x0e\x00\x00\x00Access Control'
tRp3835
I00
S'http://www.web2py.com/book/default/chapter/09'
p3836
tp3837
a(g3384
(S't\x08\x00\x00\x00Services'
tRp3838
I00
S'http://www.web2py.com/book/default/chapter/10'
p3839
tp3840
a(g3384
(S's\x0c\x00\x00\x00Ajax Recipes'
tRp3841
I00
S'http://www.web2py.com/book/default/chapter/11'
p3842
tp3843
a(g3384
(S's\x16\x00\x00\x00Components and Plugins'
tRp3844
I00
S'http://www.web2py.com/book/default/chapter/12'
p3845
tp3846
a(g3384
(S's\x12\x00\x00\x00Deployment Recipes'
tRp3847
I00
S'http://www.web2py.com/book/default/chapter/13'
p3848
tp3849
a(g3384
(S's\r\x00\x00\x00Other Recipes'
tRp3850
I00
S'http://www.web2py.com/book/default/chapter/14'
p3851
tp3852
a(g3384
(S's\r\x00\x00\x00Buy this book'
tRp3853
I00
S'http://stores.lulu.com/web2py'
p3854
tp3855
aasbasbasbasbasbasbasbag60
(g76
g62
NtRp3856
(dp3857
g65
(dp3858
sg74
g3498
sg67
(lp3859
g60
(g81
g62
NtRp3860
(dp3861
g65
(dp3862
sg74
g3856
sg67
(lp3863
g60
(g61
g62
NtRp3864
(dp3865
g65
(dp3866
g73
I2
ssg74
g3860
sg67
(lp3867
g60
(g69
g62
NtRp3868
(dp3869
g65
(dp3870
g73
I1
ssg74
Nsg67
(lp3871
g60
(g76
g62
NtRp3872
(dp3873
g65
(dp3874
sg74
g3868
sg67
(lp3875
g60
(g81
g62
NtRp3876
(dp3877
g65
(dp3878
sg74
g3872
sg67
(lp3879
g60
(g61
g62
NtRp3880
(dp3881
g65
(dp3882
g73
I1
ssg74
g3876
sg67
(lp3883
g3384
(S't\t\x00\x00\x00Community'
tRp3884
asbasbasbag60
(g76
g62
NtRp3885
(dp3886
g65
(dp3887
sg74
g3868
sg67
(lp3888
g60
(g81
g62
NtRp3889
(dp3890
g65
(dp3891
sg74
g3885
sg67
(lp3892
g60
(g61
g62
NtRp3893
(dp3894
g65
(dp3895
g73
I1
ssg74
g3889
sg67
(lp3896
I00
asbasbasbag60
(g76
g62
NtRp3897
(dp3898
g65
(dp3899
sg74
g3868
sg67
(lp3900
g60
(g81
g62
NtRp3901
(dp3902
g65
(dp3903
sg74
g3897
sg67
(lp3904
g60
(g61
g62
NtRp3905
(dp3906
g65
(dp3907
g73
I1
ssg74
g3901
sg67
(lp3908
Nasbasbasbag60
(g76
g62
NtRp3909
(dp3910
g65
(dp3911
sg74
g3868
sg67
(lp3912
g60
(g81
g62
NtRp3913
(dp3914
g65
(dp3915
sg74
g3909
sg67
(lp3916
g60
(g61
g62
NtRp3917
(dp3918
g65
(dp3919
g73
I1
ssg74
g3913
sg67
(lp3920
(lp3921
(g3384
(S't\x06\x00\x00\x00Groups'
tRp3922
I00
S'http://www.web2py.com/examples/default/usergroups'
p3923
tp3924
a(g3384
(S't\x07\x00\x00\x00Twitter'
tRp3925
I00
S'http://twitter.com/web2py'
p3926
tp3927
a(g3384
(S's\t\x00\x00\x00Live Chat'
tRp3928
I00
S'http://webchat.freenode.net/?channels=web2py'
p3929
tp3930
aasbasbasbasbasbasbasbag60
(g76
g62
NtRp3931
(dp3932
g65
(dp3933
sg74
g3498
sg67
(lp3934
g60
(g81
g62
NtRp3935
(dp3936
g65
(dp3937
sg74
g3931
sg67
(lp3938
g60
(g61
g62
NtRp3939
(dp3940
g65
(dp3941
g73
I2
ssg74
g3935
sg67
(lp3942
g60
(g69
g62
NtRp3943
(dp3944
g65
(dp3945
g73
I1
ssg74
Nsg67
(lp3946
g60
(g76
g62
NtRp3947
(dp3948
g65
(dp3949
sg74
g3943
sg67
(lp3950
g60
(g81
g62
NtRp3951
(dp3952
g65
(dp3953
sg74
g3947
sg67
(lp3954
g60
(g61
g62
NtRp3955
(dp3956
g65
(dp3957
g73
I1
ssg74
g3951
sg67
(lp3958
g3384
(S't\x07\x00\x00\x00Plugins'
tRp3959
asbasbasbag60
(g76
g62
NtRp3960
(dp3961
g65
(dp3962
sg74
g3943
sg67
(lp3963
g60
(g81
g62
NtRp3964
(dp3965
g65
(dp3966
sg74
g3960
sg67
(lp3967
g60
(g61
g62
NtRp3968
(dp3969
g65
(dp3970
g73
I1
ssg74
g3964
sg67
(lp3971
I00
asbasbasbag60
(g76
g62
NtRp3972
(dp3973
g65
(dp3974
sg74
g3943
sg67
(lp3975
g60
(g81
g62
NtRp3976
(dp3977
g65
(dp3978
sg74
g3972
sg67
(lp3979
g60
(g61
g62
NtRp3980
(dp3981
g65
(dp3982
g73
I1
ssg74
g3976
sg67
(lp3983
Nasbasbasbag60
(g76
g62
NtRp3984
(dp3985
g65
(dp3986
sg74
g3943
sg67
(lp3987
g60
(g81
g62
NtRp3988
(dp3989
g65
(dp3990
sg74
g3984
sg67
(lp3991
g60
(g61
g62
NtRp3992
(dp3993
g65
(dp3994
g73
I1
ssg74
g3988
sg67
(lp3995
(lp3996
(S'plugin_wiki'
p3997
I00
S'http://web2py.com/examples/default/download'
p3998
tp3999
a(g3384
(S's\r\x00\x00\x00Other Plugins'
tRp4000
I00
g3730
tp4001
a(g3384
(S's\x0e\x00\x00\x00Layout Plugins'
tRp4002
I00
g3733
tp4003
aasbasbasbasbasbasbasbasbasbasbasbasbasbasbasbasbasbasbasbag60
(g76
g62
NtRp4004
(dp4005
g65
(dp4006
sg74
g2860
sg67
(lp4007
g60
(g81
g62
NtRp4008
(dp4009
g65
(dp4010
g85
g86
ssg74
g4004
sg67
(lp4011
S'meta'
p4012
asbag60
(g81
g62
NtRp4013
(dp4014
g65
(dp4015
g92
g93
ssg74
g4004
sg67
(lp4016
S':'
asbag60
(g81
g62
NtRp4017
(dp4018
g65
(dp4019
sg74
g4004
sg67
(lp4020
g60
(g61
g62
NtRp4021
(dp4022
g65
(dp4023
g73
I5
ssg74
g4017
sg67
(lp4024
g60
(g69
g62
NtRp4025
(dp4026
g65
(dp4027
g73
I4
ssg74
Nsg67
(lp4028
g60
(g76
g62
NtRp4029
(dp4030
g65
(dp4031
sg74
g4025
sg67
(lp4032
g60
(g81
g62
NtRp4033
(dp4034
g65
(dp4035
g85
g86
ssg74
g4029
sg67
(lp4036
S'author'
p4037
asbag60
(g81
g62
NtRp4038
(dp4039
g65
(dp4040
g92
g93
ssg74
g4029
sg67
(lp4041
S':'
asbag60
(g81
g62
NtRp4042
(dp4043
g65
(dp4044
sg74
g4029
sg67
(lp4045
g60
(g61
g62
NtRp4046
(dp4047
g65
(dp4048
g73
I4
ssg74
g4042
sg67
(lp4049
S'Your Name <you@example.com>'
p4050
asbasbasbag60
(g76
g62
NtRp4051
(dp4052
g65
(dp4053
sg74
g4025
sg67
(lp4054
g60
(g81
g62
NtRp4055
(dp4056
g65
(dp4057
g85
g86
ssg74
g4051
sg67
(lp4058
S'copyright'
p4059
asbag60
(g81
g62
NtRp4060
(dp4061
g65
(dp4062
g92
g93
ssg74
g4051
sg67
(lp4063
S':'
asbag60
(g81
g62
NtRp4064
(dp4065
g65
(dp4066
sg74
g4051
sg67
(lp4067
g60
(g61
g62
NtRp4068
(dp4069
g65
(dp4070
g73
I4
ssg74
g4064
sg67
(lp4071
S'Copyright 2011'
p4072
asbasbasbag60
(g76
g62
NtRp4073
(dp4074
g65
(dp4075
sg74
g4025
sg67
(lp4076
g60
(g81
g62
NtRp4077
(dp4078
g65
(dp4079
g85
g86
ssg74
g4073
sg67
(lp4080
S'description'
p4081
asbag60
(g81
g62
NtRp4082
(dp4083
g65
(dp4084
g92
g93
ssg74
g4073
sg67
(lp4085
S':'
asbag60
(g81
g62
NtRp4086
(dp4087
g65
(dp4088
sg74
g4073
sg67
(lp4089
g60
(g61
g62
NtRp4090
(dp4091
g65
(dp4092
g73
I4
ssg74
g4086
sg67
(lp4093
S'a cool new app'
p4094
asbasbasbag60
(g76
g62
NtRp4095
(dp4096
g65
(dp4097
sg74
g4025
sg67
(lp4098
g60
(g81
g62
NtRp4099
(dp4100
g65
(dp4101
g85
g86
ssg74
g4095
sg67
(lp4102
S'generator'
p4103
asbag60
(g81
g62
NtRp4104
(dp4105
g65
(dp4106
g92
g93
ssg74
g4095
sg67
(lp4107
S':'
asbag60
(g81
g62
NtRp4108
(dp4109
g65
(dp4110
sg74
g4095
sg67
(lp4111
g60
(g61
g62
NtRp4112
(dp4113
g65
(dp4114
g73
I4
ssg74
g4108
sg67
(lp4115
S'Web2py Web Framework'
p4116
asbasbasbag60
(g76
g62
NtRp4117
(dp4118
g65
(dp4119
sg74
g4025
sg67
(lp4120
g60
(g81
g62
NtRp4121
(dp4122
g65
(dp4123
g85
g86
ssg74
g4117
sg67
(lp4124
S'keywords'
p4125
asbag60
(g81
g62
NtRp4126
(dp4127
g65
(dp4128
g92
g93
ssg74
g4117
sg67
(lp4129
S':'
asbag60
(g81
g62
NtRp4130
(dp4131
g65
(dp4132
sg74
g4117
sg67
(lp4133
g60
(g61
g62
NtRp4134
(dp4135
g65
(dp4136
g73
I4
ssg74
g4130
sg67
(lp4137
S'web2py, python, framework'
p4138
asbasbasbasbasbasbasbag60
(g76
g62
NtRp4139
(dp4140
g65
(dp4141
sg74
g2860
sg67
(lp4142
g60
(g81
g62
NtRp4143
(dp4144
g65
(dp4145
g85
g86
ssg74
g4139
sg67
(lp4146
S'postprocessing'
p4147
asbag60
(g81
g62
NtRp4148
(dp4149
g65
(dp4150
g92
g93
ssg74
g4139
sg67
(lp4151
S':'
asbag60
(g81
g62
NtRp4152
(dp4153
g65
(dp4154
sg74
g4139
sg67
(lp4155
g60
(g61
g62
NtRp4156
(dp4157
g65
(dp4158
g73
I5
ssg74
g4152
sg67
(lp4159
g60
(g69
g62
NtRp4160
(dp4161
g65
(dp4162
g73
I4
ssg74
Nsg67
(lp4163
sbasbasbasbag60
(g76
g62
NtRp4164
(dp4165
g65
(dp4166
sg74
g2860
sg67
(lp4167
g60
(g81
g62
NtRp4168
(dp4169
g65
(dp4170
g85
g86
ssg74
g4164
sg67
(lp4171
S'session_file'
p4172
asbag60
(g81
g62
NtRp4173
(dp4174
g65
(dp4175
g92
g93
ssg74
g4164
sg67
(lp4176
S':'
asbag60
(g81
g62
NtRp4177
(dp4178
g65
(dp4179
sg74
g4164
sg67
(lp4180
g60
(g61
g62
NtRp4181
(dp4182
g65
(dp4183
g73
I5
ssg74
g4177
sg67
(lp4184
S"<open file 'C:\\web2py\\applications\\unioeste_code\\sessions\\127.0.0.1-d4490a4c-4db8-4f67-8e5c-3165535103a7', mode 'rb+' at 0x05FA3650>"
p4185
asbasbasbag60
(g76
g62
NtRp4186
(dp4187
g65
(dp4188
sg74
g2860
sg67
(lp4189
g60
(g81
g62
NtRp4190
(dp4191
g65
(dp4192
g85
g86
ssg74
g4186
sg67
(lp4193
S'session_filename'
p4194
asbag60
(g81
g62
NtRp4195
(dp4196
g65
(dp4197
g92
g93
ssg74
g4186
sg67
(lp4198
S':'
asbag60
(g81
g62
NtRp4199
(dp4200
g65
(dp4201
sg74
g4186
sg67
(lp4202
g60
(g61
g62
NtRp4203
(dp4204
g65
(dp4205
g73
I5
ssg74
g4199
sg67
(lp4206
S'C:\\web2py\\applications\\unioeste_code\\sessions\\127.0.0.1-d4490a4c-4db8-4f67-8e5c-3165535103a7'
p4207
asbasbasbag60
(g76
g62
NtRp4208
(dp4209
g65
(dp4210
sg74
g2860
sg67
(lp4211
g60
(g81
g62
NtRp4212
(dp4213
g65
(dp4214
g85
g86
ssg74
g4208
sg67
(lp4215
S'session_id'
p4216
asbag60
(g81
g62
NtRp4217
(dp4218
g65
(dp4219
g92
g93
ssg74
g4208
sg67
(lp4220
S':'
asbag60
(g81
g62
NtRp4221
(dp4222
g65
(dp4223
sg74
g4208
sg67
(lp4224
g60
(g61
g62
NtRp4225
(dp4226
g65
(dp4227
g73
I5
ssg74
g4221
sg67
(lp4228
S'127.0.0.1-d4490a4c-4db8-4f67-8e5c-3165535103a7'
p4229
asbasbasbag60
(g76
g62
NtRp4230
(dp4231
g65
(dp4232
sg74
g2860
sg67
(lp4233
g60
(g81
g62
NtRp4234
(dp4235
g65
(dp4236
g85
g86
ssg74
g4230
sg67
(lp4237
S'session_id_name'
p4238
asbag60
(g81
g62
NtRp4239
(dp4240
g65
(dp4241
g92
g93
ssg74
g4230
sg67
(lp4242
S':'
asbag60
(g81
g62
NtRp4243
(dp4244
g65
(dp4245
sg74
g4230
sg67
(lp4246
g60
(g61
g62
NtRp4247
(dp4248
g65
(dp4249
g73
I5
ssg74
g4243
sg67
(lp4250
g2917
asbasbasbag60
(g76
g62
NtRp4251
(dp4252
g65
(dp4253
sg74
g2860
sg67
(lp4254
g60
(g81
g62
NtRp4255
(dp4256
g65
(dp4257
g85
g86
ssg74
g4251
sg67
(lp4258
S'session_locked'
p4259
asbag60
(g81
g62
NtRp4260
(dp4261
g65
(dp4262
g92
g93
ssg74
g4251
sg67
(lp4263
S':'
asbag60
(g81
g62
NtRp4264
(dp4265
g65
(dp4266
sg74
g4251
sg67
(lp4267
g60
(g61
g62
NtRp4268
(dp4269
g65
(dp4270
g73
I5
ssg74
g4264
sg67
(lp4271
g1476
asbasbasbag60
(g76
g62
NtRp4272
(dp4273
g65
(dp4274
sg74
g2860
sg67
(lp4275
g60
(g81
g62
NtRp4276
(dp4277
g65
(dp4278
g85
g86
ssg74
g4272
sg67
(lp4279
S'session_new'
p4280
asbag60
(g81
g62
NtRp4281
(dp4282
g65
(dp4283
g92
g93
ssg74
g4272
sg67
(lp4284
S':'
asbag60
(g81
g62
NtRp4285
(dp4286
g65
(dp4287
sg74
g4272
sg67
(lp4288
g60
(g61
g62
NtRp4289
(dp4290
g65
(dp4291
g73
I5
ssg74
g4285
sg67
(lp4292
g103
asbasbasbag60
(g76
g62
NtRp4293
(dp4294
g65
(dp4295
sg74
g2860
sg67
(lp4296
g60
(g81
g62
NtRp4297
(dp4298
g65
(dp4299
g85
g86
ssg74
g4293
sg67
(lp4300
S'status'
p4301
asbag60
(g81
g62
NtRp4302
(dp4303
g65
(dp4304
g92
g93
ssg74
g4293
sg67
(lp4305
S':'
asbag60
(g81
g62
NtRp4306
(dp4307
g65
(dp4308
sg74
g4293
sg67
(lp4309
g60
(g61
g62
NtRp4310
(dp4311
g65
(dp4312
g73
I5
ssg74
g4306
sg67
(lp4313
S'200'
p4314
asbasbasbag60
(g76
g62
NtRp4315
(dp4316
g65
(dp4317
sg74
g2860
sg67
(lp4318
g60
(g81
g62
NtRp4319
(dp4320
g65
(dp4321
g85
g86
ssg74
g4315
sg67
(lp4322
S'subtitle'
p4323
asbag60
(g81
g62
NtRp4324
(dp4325
g65
(dp4326
g92
g93
ssg74
g4315
sg67
(lp4327
S':'
asbag60
(g81
g62
NtRp4328
(dp4329
g65
(dp4330
sg74
g4315
sg67
(lp4331
g60
(g61
g62
NtRp4332
(dp4333
g65
(dp4334
g73
I5
ssg74
g4328
sg67
(lp4335
g3384
(S's\x0f\x00\x00\x00Personalize-me!'
tRp4336
asbasbasbag60
(g76
g62
NtRp4337
(dp4338
g65
(dp4339
sg74
g2860
sg67
(lp4340
g60
(g81
g62
NtRp4341
(dp4342
g65
(dp4343
g85
g86
ssg74
g4337
sg67
(lp4344
S'title'
p4345
asbag60
(g81
g62
NtRp4346
(dp4347
g65
(dp4348
g92
g93
ssg74
g4337
sg67
(lp4349
S':'
asbag60
(g81
g62
NtRp4350
(dp4351
g65
(dp4352
sg74
g4337
sg67
(lp4353
g60
(g61
g62
NtRp4354
(dp4355
g65
(dp4356
g73
I5
ssg74
g4350
sg67
(lp4357
S'Unioeste Code'
p4358
asbasbasbag60
(g76
g62
NtRp4359
(dp4360
g65
(dp4361
sg74
g2860
sg67
(lp4362
g60
(g81
g62
NtRp4363
(dp4364
g65
(dp4365
g85
g86
ssg74
g4359
sg67
(lp4366
g2140
asbag60
(g81
g62
NtRp4367
(dp4368
g65
(dp4369
g92
g93
ssg74
g4359
sg67
(lp4370
S':'
asbag60
(g81
g62
NtRp4371
(dp4372
g65
(dp4373
sg74
g4359
sg67
(lp4374
g60
(g61
g62
NtRp4375
(dp4376
g65
(dp4377
g73
I5
ssg74
g4371
sg67
(lp4378
g2153
asbasbasbag60
(g76
g62
NtRp4379
(dp4380
g65
(dp4381
sg74
g2860
sg67
(lp4382
g60
(g81
g62
NtRp4383
(dp4384
g65
(dp4385
g85
g86
ssg74
g4379
sg67
(lp4386
S'view'
p4387
asbag60
(g81
g62
NtRp4388
(dp4389
g65
(dp4390
g92
g93
ssg74
g4379
sg67
(lp4391
S':'
asbag60
(g81
g62
NtRp4392
(dp4393
g65
(dp4394
sg74
g4379
sg67
(lp4395
g60
(g61
g62
NtRp4396
(dp4397
g65
(dp4398
g73
I5
ssg74
g4392
sg67
(lp4399
S'default/index.html'
p4400
asbasbasbasbasbsS'locals'
p4401
(dp4402
g4
S"r'C:\\web2py\\applications\\unioeste_code\\views\\default/index.html'"
p4403
sg6
S'\'response.write(\\\'<!DOCTYPE html>\\\\r\\\\n<html lang="e...n\\\\r\\\\n  </body>\\\\r\\\\n</html>\\\\r\\\\n\\\\r\\\\n\\\', escape=False)\''
p4404
sssS'traceback'
p4405
S'Traceback (most recent call last):\n  File "gluon/restricted.py", line 204, in restricted\n  File "gluon/restricted.py", line 189, in compile2\n  File "C:\\web2py\\applications\\unioeste_code\\views\\default/index.html", line 4\n    {{=H1(T("Current Problems"))}}\nSyntaxError: keyword can\'t be an expression\n'
p4406
s.