(dp1
S'output'
p2
S"<type 'exceptions.KeyError'> 'codes'"
p3
sS'layer'
p4
S'C:\\web2py\\applications\\unioeste_code\\controllers/default.py'
p5
sS'code'
p6
S'# -*- coding: utf-8 -*-\n# this file is released under public domain and you can use without limitations\n\n#########################################################################\n## This is a samples controller\n## - index is the default action of any application\n## - user is required for authentication and authorization\n## - download is for downloading files uploaded in the db (does streaming)\n## - call exposes all registered services (none by default)\n#########################################################################\n\ndef index():\n    problems = db().select(db.problem.ALL, orderby = db.problem.title)\n    return dict(problems=problems)\n\ndef show():\n    problem = db(db.problem.id==request.args(0)).select().first()\n    db.code.problem_id.default = problem.id\n    form = SQLFORM(db.code)\n    if form.process().accepted:\n        response.flash = \'your code is posted\'\n    codes = db(db.codes.problem_id==problem.id).select()\n    return dict(problem=problem, codes=codes, form=form)\n\ndef problems():\n    problems = db().select(db.problem.ALL, orderby = db.problem.title)\n    return dict(problems=problems)\n\ndef user():\n    """\n    exposes:\n    http://..../[app]/default/user/login\n    http://..../[app]/default/user/logout\n    http://..../[app]/default/user/register\n    http://..../[app]/default/user/profile\n    http://..../[app]/default/user/retrieve_password\n    http://..../[app]/default/user/change_password\n    use @auth.requires_login()\n        @auth.requires_membership(\'group name\')\n        @auth.requires_permission(\'read\',\'table name\',record_id)\n    to decorate functions that need access control\n    """\n    return dict(form=auth())\n\n\ndef download():\n    """\n    allows downloading of uploaded files\n    http://..../[app]/default/download/[filename]\n    """\n    return response.download(request,db)\n\n\ndef call():\n    """\n    exposes services. for example:\n    http://..../[app]/default/call/jsonrpc\n    decorate with @services.jsonrpc the functions to expose\n    supports xml, json, xmlrpc, jsonrpc, amfrpc, rss, csv\n    """\n    return service()\n\n\n@auth.requires_signature()\ndef data():\n    """\n    http://..../[app]/default/data/tables\n    http://..../[app]/default/data/create/[table]\n    http://..../[app]/default/data/read/[table]/[id]\n    http://..../[app]/default/data/update/[table]/[id]\n    http://..../[app]/default/data/delete/[table]/[id]\n    http://..../[app]/default/data/select/[table]\n    http://..../[app]/default/data/search/[table]\n    but URLs must be signed, i.e. linked with\n      A(\'table\',_href=URL(\'data/tables\',user_signature=True))\n    or with the signed load operator\n      LOAD(\'default\',\'data.load\',args=\'tables\',ajax=True,user_signature=True)\n    """\n    return dict(form=crud())\n\n\nresponse._vars=response._caller(show)\n'
p7
sS'snapshot'
p8
(dp9
S'exception'
p10
(dp11
S'__hash__'
p12
S"<method-wrapper '__hash__' of exceptions.KeyError object at 0x069F8A80>"
p13
sS'__setattr__'
p14
S"<method-wrapper '__setattr__' of exceptions.KeyError object at 0x069F8A80>"
p15
sS'__reduce_ex__'
p16
S'<built-in method __reduce_ex__ of exceptions.KeyError object at 0x069F8A80>'
p17
sS'__getslice__'
p18
S"<method-wrapper '__getslice__' of exceptions.KeyError object at 0x069F8A80>"
p19
sS'__getitem__'
p20
S"<method-wrapper '__getitem__' of exceptions.KeyError object at 0x069F8A80>"
p21
sS'__setstate__'
p22
S'<built-in method __setstate__ of exceptions.KeyError object at 0x069F8A80>'
p23
sS'__reduce__'
p24
S'<built-in method __reduce__ of exceptions.KeyError object at 0x069F8A80>'
p25
sS'__str__'
p26
S"<method-wrapper '__str__' of exceptions.KeyError object at 0x069F8A80>"
p27
sS'args'
p28
S"('codes',)"
p29
sS'__getattribute__'
p30
S"<method-wrapper '__getattribute__' of exceptions.KeyError object at 0x069F8A80>"
p31
sS'__class__'
p32
S"<type 'exceptions.KeyError'>"
p33
sS'__delattr__'
p34
S"<method-wrapper '__delattr__' of exceptions.KeyError object at 0x069F8A80>"
p35
sS'__repr__'
p36
S"<method-wrapper '__repr__' of exceptions.KeyError object at 0x069F8A80>"
p37
sS'__dict__'
p38
S'{}'
p39
sS'__doc__'
p40
S"'Mapping key not found.'"
p41
sS'__init__'
p42
S"<method-wrapper '__init__' of exceptions.KeyError object at 0x069F8A80>"
p43
sS'__new__'
p44
S'<built-in method __new__ of type object at 0x1E1CDFB8>'
p45
ssS'evalue'
p46
S"'codes'"
p47
sS'request'
p48
ccopy_reg
_reconstructor
p49
(cgluon.html
BEAUTIFY
p50
c__builtin__
object
p51
NtRp52
(dp53
S'attributes'
p54
(dp55
sS'components'
p56
(lp57
g49
(cgluon.html
TABLE
p58
g51
NtRp59
(dp60
g54
(dp61
S'level'
p62
I5
ssS'parent'
p63
Nsg56
(lp64
g49
(cgluon.html
TR
p65
g51
NtRp66
(dp67
g54
(dp68
sg63
g59
sg56
(lp69
g49
(cgluon.html
TD
p70
g51
NtRp71
(dp72
g54
(dp73
S'_style'
p74
S'font-weight:bold;vertical-align:top'
p75
ssg63
g66
sg56
(lp76
S'ajax'
p77
asbag49
(g70
g51
NtRp78
(dp79
g54
(dp80
S'_valign'
p81
S'top'
p82
ssg63
g66
sg56
(lp83
S':'
asbag49
(g70
g51
NtRp84
(dp85
g54
(dp86
sg63
g66
sg56
(lp87
g49
(g50
g51
NtRp88
(dp89
g54
(dp90
g62
I5
ssg63
g84
sg56
(lp91
S'False'
p92
asbasbasbag49
(g65
g51
NtRp93
(dp94
g54
(dp95
sg63
g59
sg56
(lp96
g49
(g70
g51
NtRp97
(dp98
g54
(dp99
g74
g75
ssg63
g93
sg56
(lp100
S'application'
p101
asbag49
(g70
g51
NtRp102
(dp103
g54
(dp104
g81
g82
ssg63
g93
sg56
(lp105
S':'
asbag49
(g70
g51
NtRp106
(dp107
g54
(dp108
sg63
g93
sg56
(lp109
g49
(g50
g51
NtRp110
(dp111
g54
(dp112
g62
I5
ssg63
g106
sg56
(lp113
S'unioeste_code'
p114
asbasbasbag49
(g65
g51
NtRp115
(dp116
g54
(dp117
sg63
g59
sg56
(lp118
g49
(g70
g51
NtRp119
(dp120
g54
(dp121
g74
g75
ssg63
g115
sg56
(lp122
g28
asbag49
(g70
g51
NtRp123
(dp124
g54
(dp125
g81
g82
ssg63
g115
sg56
(lp126
S':'
asbag49
(g70
g51
NtRp127
(dp128
g54
(dp129
sg63
g115
sg56
(lp130
g49
(g50
g51
NtRp131
(dp132
g54
(dp133
g62
I5
ssg63
g127
sg56
(lp134
g49
(g58
g51
NtRp135
(dp136
g54
(dp137
g62
I4
ssg63
Nsg56
(lp138
g49
(g65
g51
NtRp139
(dp140
g54
(dp141
sg63
g135
sg56
(lp142
g49
(g70
g51
NtRp143
(dp144
g54
(dp145
sg63
g139
sg56
(lp146
g49
(g50
g51
NtRp147
(dp148
g54
(dp149
g62
I4
ssg63
g143
sg56
(lp150
S'1'
asbasbasbasbasbasbasbag49
(g65
g51
NtRp151
(dp152
g54
(dp153
sg63
g59
sg56
(lp154
g49
(g70
g51
NtRp155
(dp156
g54
(dp157
g74
g75
ssg63
g151
sg56
(lp158
S'body'
p159
asbag49
(g70
g51
NtRp160
(dp161
g54
(dp162
g81
g82
ssg63
g151
sg56
(lp163
S':'
asbag49
(g70
g51
NtRp164
(dp165
g54
(dp166
sg63
g151
sg56
(lp167
g49
(g50
g51
NtRp168
(dp169
g54
(dp170
g62
I5
ssg63
g164
sg56
(lp171
S'<cStringIO.StringO object at 0x069C3DE0>'
p172
asbasbasbag49
(g65
g51
NtRp173
(dp174
g54
(dp175
sg63
g59
sg56
(lp176
g49
(g70
g51
NtRp177
(dp178
g54
(dp179
g74
g75
ssg63
g173
sg56
(lp180
S'client'
p181
asbag49
(g70
g51
NtRp182
(dp183
g54
(dp184
g81
g82
ssg63
g173
sg56
(lp185
S':'
asbag49
(g70
g51
NtRp186
(dp187
g54
(dp188
sg63
g173
sg56
(lp189
g49
(g50
g51
NtRp190
(dp191
g54
(dp192
g62
I5
ssg63
g186
sg56
(lp193
S'127.0.0.1'
p194
asbasbasbag49
(g65
g51
NtRp195
(dp196
g54
(dp197
sg63
g59
sg56
(lp198
g49
(g70
g51
NtRp199
(dp200
g54
(dp201
g74
g75
ssg63
g195
sg56
(lp202
S'controller'
p203
asbag49
(g70
g51
NtRp204
(dp205
g54
(dp206
g81
g82
ssg63
g195
sg56
(lp207
S':'
asbag49
(g70
g51
NtRp208
(dp209
g54
(dp210
sg63
g195
sg56
(lp211
g49
(g50
g51
NtRp212
(dp213
g54
(dp214
g62
I5
ssg63
g208
sg56
(lp215
S'default'
p216
asbasbasbag49
(g65
g51
NtRp217
(dp218
g54
(dp219
sg63
g59
sg56
(lp220
g49
(g70
g51
NtRp221
(dp222
g54
(dp223
g74
g75
ssg63
g217
sg56
(lp224
S'cookies'
p225
asbag49
(g70
g51
NtRp226
(dp227
g54
(dp228
g81
g82
ssg63
g217
sg56
(lp229
S':'
asbag49
(g70
g51
NtRp230
(dp231
g54
(dp232
sg63
g217
sg56
(lp233
g49
(g50
g51
NtRp234
(dp235
g54
(dp236
g62
I5
ssg63
g230
sg56
(lp237
g49
(g58
g51
NtRp238
(dp239
g54
(dp240
g62
I4
ssg63
Nsg56
(lp241
g49
(g65
g51
NtRp242
(dp243
g54
(dp244
sg63
g238
sg56
(lp245
g49
(g70
g51
NtRp246
(dp247
g54
(dp248
g74
g75
ssg63
g242
sg56
(lp249
S'session_id_admin'
p250
asbag49
(g70
g51
NtRp251
(dp252
g54
(dp253
g81
g82
ssg63
g242
sg56
(lp254
S':'
asbag49
(g70
g51
NtRp255
(dp256
g54
(dp257
sg63
g242
sg56
(lp258
g49
(g50
g51
NtRp259
(dp260
g54
(dp261
g62
I4
ssg63
g255
sg56
(lp262
g49
(g58
g51
NtRp263
(dp264
g54
(dp265
g62
I3
ssg63
Nsg56
(lp266
g49
(g65
g51
NtRp267
(dp268
g54
(dp269
sg63
g263
sg56
(lp270
g49
(g70
g51
NtRp271
(dp272
g54
(dp273
g74
g75
ssg63
g267
sg56
(lp274
S'comment'
p275
asbag49
(g70
g51
NtRp276
(dp277
g54
(dp278
g81
g82
ssg63
g267
sg56
(lp279
S':'
asbag49
(g70
g51
NtRp280
(dp281
g54
(dp282
sg63
g267
sg56
(lp283
g49
(g50
g51
NtRp284
(dp285
g54
(dp286
g62
I3
ssg63
g280
sg56
(lp287
S''
asbasbasbag49
(g65
g51
NtRp288
(dp289
g54
(dp290
sg63
g263
sg56
(lp291
g49
(g70
g51
NtRp292
(dp293
g54
(dp294
g74
g75
ssg63
g288
sg56
(lp295
S'domain'
p296
asbag49
(g70
g51
NtRp297
(dp298
g54
(dp299
g81
g82
ssg63
g288
sg56
(lp300
S':'
asbag49
(g70
g51
NtRp301
(dp302
g54
(dp303
sg63
g288
sg56
(lp304
g49
(g50
g51
NtRp305
(dp306
g54
(dp307
g62
I3
ssg63
g301
sg56
(lp308
S''
asbasbasbag49
(g65
g51
NtRp309
(dp310
g54
(dp311
sg63
g263
sg56
(lp312
g49
(g70
g51
NtRp313
(dp314
g54
(dp315
g74
g75
ssg63
g309
sg56
(lp316
S'expires'
p317
asbag49
(g70
g51
NtRp318
(dp319
g54
(dp320
g81
g82
ssg63
g309
sg56
(lp321
S':'
asbag49
(g70
g51
NtRp322
(dp323
g54
(dp324
sg63
g309
sg56
(lp325
g49
(g50
g51
NtRp326
(dp327
g54
(dp328
g62
I3
ssg63
g322
sg56
(lp329
S''
asbasbasbag49
(g65
g51
NtRp330
(dp331
g54
(dp332
sg63
g263
sg56
(lp333
g49
(g70
g51
NtRp334
(dp335
g54
(dp336
g74
g75
ssg63
g330
sg56
(lp337
S'max-age'
p338
asbag49
(g70
g51
NtRp339
(dp340
g54
(dp341
g81
g82
ssg63
g330
sg56
(lp342
S':'
asbag49
(g70
g51
NtRp343
(dp344
g54
(dp345
sg63
g330
sg56
(lp346
g49
(g50
g51
NtRp347
(dp348
g54
(dp349
g62
I3
ssg63
g343
sg56
(lp350
S''
asbasbasbag49
(g65
g51
NtRp351
(dp352
g54
(dp353
sg63
g263
sg56
(lp354
g49
(g70
g51
NtRp355
(dp356
g54
(dp357
g74
g75
ssg63
g351
sg56
(lp358
S'path'
p359
asbag49
(g70
g51
NtRp360
(dp361
g54
(dp362
g81
g82
ssg63
g351
sg56
(lp363
S':'
asbag49
(g70
g51
NtRp364
(dp365
g54
(dp366
sg63
g351
sg56
(lp367
g49
(g50
g51
NtRp368
(dp369
g54
(dp370
g62
I3
ssg63
g364
sg56
(lp371
S''
asbasbasbag49
(g65
g51
NtRp372
(dp373
g54
(dp374
sg63
g263
sg56
(lp375
g49
(g70
g51
NtRp376
(dp377
g54
(dp378
g74
g75
ssg63
g372
sg56
(lp379
S'secure'
p380
asbag49
(g70
g51
NtRp381
(dp382
g54
(dp383
g81
g82
ssg63
g372
sg56
(lp384
S':'
asbag49
(g70
g51
NtRp385
(dp386
g54
(dp387
sg63
g372
sg56
(lp388
g49
(g50
g51
NtRp389
(dp390
g54
(dp391
g62
I3
ssg63
g385
sg56
(lp392
S''
asbasbasbag49
(g65
g51
NtRp393
(dp394
g54
(dp395
sg63
g263
sg56
(lp396
g49
(g70
g51
NtRp397
(dp398
g54
(dp399
g74
g75
ssg63
g393
sg56
(lp400
S'version'
p401
asbag49
(g70
g51
NtRp402
(dp403
g54
(dp404
g81
g82
ssg63
g393
sg56
(lp405
S':'
asbag49
(g70
g51
NtRp406
(dp407
g54
(dp408
sg63
g393
sg56
(lp409
g49
(g50
g51
NtRp410
(dp411
g54
(dp412
g62
I3
ssg63
g406
sg56
(lp413
S''
asbasbasbasbasbasbasbag49
(g65
g51
NtRp414
(dp415
g54
(dp416
sg63
g238
sg56
(lp417
g49
(g70
g51
NtRp418
(dp419
g54
(dp420
g74
g75
ssg63
g414
sg56
(lp421
S'session_id_unioeste_code'
p422
asbag49
(g70
g51
NtRp423
(dp424
g54
(dp425
g81
g82
ssg63
g414
sg56
(lp426
S':'
asbag49
(g70
g51
NtRp427
(dp428
g54
(dp429
sg63
g414
sg56
(lp430
g49
(g50
g51
NtRp431
(dp432
g54
(dp433
g62
I4
ssg63
g427
sg56
(lp434
g49
(g58
g51
NtRp435
(dp436
g54
(dp437
g62
I3
ssg63
Nsg56
(lp438
g49
(g65
g51
NtRp439
(dp440
g54
(dp441
sg63
g435
sg56
(lp442
g49
(g70
g51
NtRp443
(dp444
g54
(dp445
g74
g75
ssg63
g439
sg56
(lp446
g275
asbag49
(g70
g51
NtRp447
(dp448
g54
(dp449
g81
g82
ssg63
g439
sg56
(lp450
S':'
asbag49
(g70
g51
NtRp451
(dp452
g54
(dp453
sg63
g439
sg56
(lp454
g49
(g50
g51
NtRp455
(dp456
g54
(dp457
g62
I3
ssg63
g451
sg56
(lp458
S''
asbasbasbag49
(g65
g51
NtRp459
(dp460
g54
(dp461
sg63
g435
sg56
(lp462
g49
(g70
g51
NtRp463
(dp464
g54
(dp465
g74
g75
ssg63
g459
sg56
(lp466
g296
asbag49
(g70
g51
NtRp467
(dp468
g54
(dp469
g81
g82
ssg63
g459
sg56
(lp470
S':'
asbag49
(g70
g51
NtRp471
(dp472
g54
(dp473
sg63
g459
sg56
(lp474
g49
(g50
g51
NtRp475
(dp476
g54
(dp477
g62
I3
ssg63
g471
sg56
(lp478
S''
asbasbasbag49
(g65
g51
NtRp479
(dp480
g54
(dp481
sg63
g435
sg56
(lp482
g49
(g70
g51
NtRp483
(dp484
g54
(dp485
g74
g75
ssg63
g479
sg56
(lp486
g317
asbag49
(g70
g51
NtRp487
(dp488
g54
(dp489
g81
g82
ssg63
g479
sg56
(lp490
S':'
asbag49
(g70
g51
NtRp491
(dp492
g54
(dp493
sg63
g479
sg56
(lp494
g49
(g50
g51
NtRp495
(dp496
g54
(dp497
g62
I3
ssg63
g491
sg56
(lp498
S''
asbasbasbag49
(g65
g51
NtRp499
(dp500
g54
(dp501
sg63
g435
sg56
(lp502
g49
(g70
g51
NtRp503
(dp504
g54
(dp505
g74
g75
ssg63
g499
sg56
(lp506
g338
asbag49
(g70
g51
NtRp507
(dp508
g54
(dp509
g81
g82
ssg63
g499
sg56
(lp510
S':'
asbag49
(g70
g51
NtRp511
(dp512
g54
(dp513
sg63
g499
sg56
(lp514
g49
(g50
g51
NtRp515
(dp516
g54
(dp517
g62
I3
ssg63
g511
sg56
(lp518
S''
asbasbasbag49
(g65
g51
NtRp519
(dp520
g54
(dp521
sg63
g435
sg56
(lp522
g49
(g70
g51
NtRp523
(dp524
g54
(dp525
g74
g75
ssg63
g519
sg56
(lp526
g359
asbag49
(g70
g51
NtRp527
(dp528
g54
(dp529
g81
g82
ssg63
g519
sg56
(lp530
S':'
asbag49
(g70
g51
NtRp531
(dp532
g54
(dp533
sg63
g519
sg56
(lp534
g49
(g50
g51
NtRp535
(dp536
g54
(dp537
g62
I3
ssg63
g531
sg56
(lp538
S''
asbasbasbag49
(g65
g51
NtRp539
(dp540
g54
(dp541
sg63
g435
sg56
(lp542
g49
(g70
g51
NtRp543
(dp544
g54
(dp545
g74
g75
ssg63
g539
sg56
(lp546
g380
asbag49
(g70
g51
NtRp547
(dp548
g54
(dp549
g81
g82
ssg63
g539
sg56
(lp550
S':'
asbag49
(g70
g51
NtRp551
(dp552
g54
(dp553
sg63
g539
sg56
(lp554
g49
(g50
g51
NtRp555
(dp556
g54
(dp557
g62
I3
ssg63
g551
sg56
(lp558
S''
asbasbasbag49
(g65
g51
NtRp559
(dp560
g54
(dp561
sg63
g435
sg56
(lp562
g49
(g70
g51
NtRp563
(dp564
g54
(dp565
g74
g75
ssg63
g559
sg56
(lp566
g401
asbag49
(g70
g51
NtRp567
(dp568
g54
(dp569
g81
g82
ssg63
g559
sg56
(lp570
S':'
asbag49
(g70
g51
NtRp571
(dp572
g54
(dp573
sg63
g559
sg56
(lp574
g49
(g50
g51
NtRp575
(dp576
g54
(dp577
g62
I3
ssg63
g571
sg56
(lp578
S''
asbasbasbasbasbasbasbag49
(g65
g51
NtRp579
(dp580
g54
(dp581
sg63
g238
sg56
(lp582
g49
(g70
g51
NtRp583
(dp584
g54
(dp585
g74
g75
ssg63
g579
sg56
(lp586
S'session_id_welcome'
p587
asbag49
(g70
g51
NtRp588
(dp589
g54
(dp590
g81
g82
ssg63
g579
sg56
(lp591
S':'
asbag49
(g70
g51
NtRp592
(dp593
g54
(dp594
sg63
g579
sg56
(lp595
g49
(g50
g51
NtRp596
(dp597
g54
(dp598
g62
I4
ssg63
g592
sg56
(lp599
g49
(g58
g51
NtRp600
(dp601
g54
(dp602
g62
I3
ssg63
Nsg56
(lp603
g49
(g65
g51
NtRp604
(dp605
g54
(dp606
sg63
g600
sg56
(lp607
g49
(g70
g51
NtRp608
(dp609
g54
(dp610
g74
g75
ssg63
g604
sg56
(lp611
g275
asbag49
(g70
g51
NtRp612
(dp613
g54
(dp614
g81
g82
ssg63
g604
sg56
(lp615
S':'
asbag49
(g70
g51
NtRp616
(dp617
g54
(dp618
sg63
g604
sg56
(lp619
g49
(g50
g51
NtRp620
(dp621
g54
(dp622
g62
I3
ssg63
g616
sg56
(lp623
S''
asbasbasbag49
(g65
g51
NtRp624
(dp625
g54
(dp626
sg63
g600
sg56
(lp627
g49
(g70
g51
NtRp628
(dp629
g54
(dp630
g74
g75
ssg63
g624
sg56
(lp631
g296
asbag49
(g70
g51
NtRp632
(dp633
g54
(dp634
g81
g82
ssg63
g624
sg56
(lp635
S':'
asbag49
(g70
g51
NtRp636
(dp637
g54
(dp638
sg63
g624
sg56
(lp639
g49
(g50
g51
NtRp640
(dp641
g54
(dp642
g62
I3
ssg63
g636
sg56
(lp643
S''
asbasbasbag49
(g65
g51
NtRp644
(dp645
g54
(dp646
sg63
g600
sg56
(lp647
g49
(g70
g51
NtRp648
(dp649
g54
(dp650
g74
g75
ssg63
g644
sg56
(lp651
g317
asbag49
(g70
g51
NtRp652
(dp653
g54
(dp654
g81
g82
ssg63
g644
sg56
(lp655
S':'
asbag49
(g70
g51
NtRp656
(dp657
g54
(dp658
sg63
g644
sg56
(lp659
g49
(g50
g51
NtRp660
(dp661
g54
(dp662
g62
I3
ssg63
g656
sg56
(lp663
S''
asbasbasbag49
(g65
g51
NtRp664
(dp665
g54
(dp666
sg63
g600
sg56
(lp667
g49
(g70
g51
NtRp668
(dp669
g54
(dp670
g74
g75
ssg63
g664
sg56
(lp671
g338
asbag49
(g70
g51
NtRp672
(dp673
g54
(dp674
g81
g82
ssg63
g664
sg56
(lp675
S':'
asbag49
(g70
g51
NtRp676
(dp677
g54
(dp678
sg63
g664
sg56
(lp679
g49
(g50
g51
NtRp680
(dp681
g54
(dp682
g62
I3
ssg63
g676
sg56
(lp683
S''
asbasbasbag49
(g65
g51
NtRp684
(dp685
g54
(dp686
sg63
g600
sg56
(lp687
g49
(g70
g51
NtRp688
(dp689
g54
(dp690
g74
g75
ssg63
g684
sg56
(lp691
g359
asbag49
(g70
g51
NtRp692
(dp693
g54
(dp694
g81
g82
ssg63
g684
sg56
(lp695
S':'
asbag49
(g70
g51
NtRp696
(dp697
g54
(dp698
sg63
g684
sg56
(lp699
g49
(g50
g51
NtRp700
(dp701
g54
(dp702
g62
I3
ssg63
g696
sg56
(lp703
S''
asbasbasbag49
(g65
g51
NtRp704
(dp705
g54
(dp706
sg63
g600
sg56
(lp707
g49
(g70
g51
NtRp708
(dp709
g54
(dp710
g74
g75
ssg63
g704
sg56
(lp711
g380
asbag49
(g70
g51
NtRp712
(dp713
g54
(dp714
g81
g82
ssg63
g704
sg56
(lp715
S':'
asbag49
(g70
g51
NtRp716
(dp717
g54
(dp718
sg63
g704
sg56
(lp719
g49
(g50
g51
NtRp720
(dp721
g54
(dp722
g62
I3
ssg63
g716
sg56
(lp723
S''
asbasbasbag49
(g65
g51
NtRp724
(dp725
g54
(dp726
sg63
g600
sg56
(lp727
g49
(g70
g51
NtRp728
(dp729
g54
(dp730
g74
g75
ssg63
g724
sg56
(lp731
g401
asbag49
(g70
g51
NtRp732
(dp733
g54
(dp734
g81
g82
ssg63
g724
sg56
(lp735
S':'
asbag49
(g70
g51
NtRp736
(dp737
g54
(dp738
sg63
g724
sg56
(lp739
g49
(g50
g51
NtRp740
(dp741
g54
(dp742
g62
I3
ssg63
g736
sg56
(lp743
S''
asbasbasbasbasbasbasbasbasbasbasbag49
(g65
g51
NtRp744
(dp745
g54
(dp746
sg63
g59
sg56
(lp747
g49
(g70
g51
NtRp748
(dp749
g54
(dp750
g74
g75
ssg63
g744
sg56
(lp751
S'env'
p752
asbag49
(g70
g51
NtRp753
(dp754
g54
(dp755
g81
g82
ssg63
g744
sg56
(lp756
S':'
asbag49
(g70
g51
NtRp757
(dp758
g54
(dp759
sg63
g744
sg56
(lp760
g49
(g50
g51
NtRp761
(dp762
g54
(dp763
g62
I5
ssg63
g757
sg56
(lp764
g49
(g58
g51
NtRp765
(dp766
g54
(dp767
g62
I4
ssg63
Nsg56
(lp768
g49
(g65
g51
NtRp769
(dp770
g54
(dp771
sg63
g765
sg56
(lp772
g49
(g70
g51
NtRp773
(dp774
g54
(dp775
g74
g75
ssg63
g769
sg56
(lp776
S'app_folders'
p777
asbag49
(g70
g51
NtRp778
(dp779
g54
(dp780
g81
g82
ssg63
g769
sg56
(lp781
S':'
asbag49
(g70
g51
NtRp782
(dp783
g54
(dp784
sg63
g769
sg56
(lp785
g49
(g50
g51
NtRp786
(dp787
g54
(dp788
g62
I4
ssg63
g782
sg56
(lp789
S"set(['C:\\\\web2py\\\\applications\\\\admin\\\\', 'C:\\\\web2py\\\\applications\\\\welcome\\\\', 'C:\\\\web2py\\\\applications\\\\unioeste_code\\\\'])"
p790
asbasbasbag49
(g65
g51
NtRp791
(dp792
g54
(dp793
sg63
g765
sg56
(lp794
g49
(g70
g51
NtRp795
(dp796
g54
(dp797
g74
g75
ssg63
g791
sg56
(lp798
S'applications_parent'
p799
asbag49
(g70
g51
NtRp800
(dp801
g54
(dp802
g81
g82
ssg63
g791
sg56
(lp803
S':'
asbag49
(g70
g51
NtRp804
(dp805
g54
(dp806
sg63
g791
sg56
(lp807
g49
(g50
g51
NtRp808
(dp809
g54
(dp810
g62
I4
ssg63
g804
sg56
(lp811
S'C:\\web2py'
p812
asbasbasbag49
(g65
g51
NtRp813
(dp814
g54
(dp815
sg63
g765
sg56
(lp816
g49
(g70
g51
NtRp817
(dp818
g54
(dp819
g74
g75
ssg63
g813
sg56
(lp820
S'cmd_args'
p821
asbag49
(g70
g51
NtRp822
(dp823
g54
(dp824
g81
g82
ssg63
g813
sg56
(lp825
S':'
asbag49
(g70
g51
NtRp826
(dp827
g54
(dp828
sg63
g813
sg56
(lp829
g49
(g50
g51
NtRp830
(dp831
g54
(dp832
g62
I4
ssg63
g826
sg56
(lp833
g49
(g58
g51
NtRp834
(dp835
g54
(dp836
g62
I3
ssg63
Nsg56
(lp837
sbasbasbasbag49
(g65
g51
NtRp838
(dp839
g54
(dp840
sg63
g765
sg56
(lp841
g49
(g70
g51
NtRp842
(dp843
g54
(dp844
g74
g75
ssg63
g838
sg56
(lp845
S'cmd_options'
p846
asbag49
(g70
g51
NtRp847
(dp848
g54
(dp849
g81
g82
ssg63
g838
sg56
(lp850
S':'
asbag49
(g70
g51
NtRp851
(dp852
g54
(dp853
sg63
g838
sg56
(lp854
g49
(g50
g51
NtRp855
(dp856
g54
(dp857
g62
I4
ssg63
g851
sg56
(lp858
S"<Values at 0x309c300: {'verbose': False, 'ip': '127.0.0.1', 'shutdown_timeout': 5, 'taskbar': False, 'nocron': False, 'pid_filename': 'httpserver.pid', 'maxthreads': None, 'softcron': False, 'server_name': 'Pedro-PC', 'bpython': False, 'nogui': False, 'port': 8000, 'extcron': False, 'debuglevel': 30, 'test': None, 'folder': 'C:\\\\web2py', 'config': '', 'import_models': False, 'winservice': '', 'shell': None, 'run': '', 'log_filename': 'httpserver.log', 'args': [''], 'socket_timeout': 5, 'ssl_ca_certificate': None, 'scheduler': None, 'profiler_filename': None, 'ssl_private_key': '', 'password': '<ask>', 'request_queue_size': 5, 'ssl_certificate': '', 'cronjob': False, 'numthreads': None, 'quiet': False, 'interfaces': None, 'minthreads': None, 'timeout': 10, 'plain': False, 'nobanner': False}>"
p859
asbasbasbag49
(g65
g51
NtRp860
(dp861
g54
(dp862
sg63
g765
sg56
(lp863
g49
(g70
g51
NtRp864
(dp865
g54
(dp866
g74
g75
ssg63
g860
sg56
(lp867
S'db_sessions'
p868
asbag49
(g70
g51
NtRp869
(dp870
g54
(dp871
g81
g82
ssg63
g860
sg56
(lp872
S':'
asbag49
(g70
g51
NtRp873
(dp874
g54
(dp875
sg63
g860
sg56
(lp876
g49
(g50
g51
NtRp877
(dp878
g54
(dp879
g62
I4
ssg63
g873
sg56
(lp880
S'set([])'
p881
asbasbasbag49
(g65
g51
NtRp882
(dp883
g54
(dp884
sg63
g765
sg56
(lp885
g49
(g70
g51
NtRp886
(dp887
g54
(dp888
g74
g75
ssg63
g882
sg56
(lp889
S'debugging'
p890
asbag49
(g70
g51
NtRp891
(dp892
g54
(dp893
g81
g82
ssg63
g882
sg56
(lp894
S':'
asbag49
(g70
g51
NtRp895
(dp896
g54
(dp897
sg63
g882
sg56
(lp898
g49
(g50
g51
NtRp899
(dp900
g54
(dp901
g62
I4
ssg63
g895
sg56
(lp902
g92
asbasbasbag49
(g65
g51
NtRp903
(dp904
g54
(dp905
sg63
g765
sg56
(lp906
g49
(g70
g51
NtRp907
(dp908
g54
(dp909
g74
g75
ssg63
g903
sg56
(lp910
S'gluon_parent'
p911
asbag49
(g70
g51
NtRp912
(dp913
g54
(dp914
g81
g82
ssg63
g903
sg56
(lp915
S':'
asbag49
(g70
g51
NtRp916
(dp917
g54
(dp918
sg63
g903
sg56
(lp919
g49
(g50
g51
NtRp920
(dp921
g54
(dp922
g62
I4
ssg63
g916
sg56
(lp923
S'C:\\web2py'
p924
asbasbasbag49
(g65
g51
NtRp925
(dp926
g54
(dp927
sg63
g765
sg56
(lp928
g49
(g70
g51
NtRp929
(dp930
g54
(dp931
g74
g75
ssg63
g925
sg56
(lp932
S'http_accept'
p933
asbag49
(g70
g51
NtRp934
(dp935
g54
(dp936
g81
g82
ssg63
g925
sg56
(lp937
S':'
asbag49
(g70
g51
NtRp938
(dp939
g54
(dp940
sg63
g925
sg56
(lp941
g49
(g50
g51
NtRp942
(dp943
g54
(dp944
g62
I4
ssg63
g938
sg56
(lp945
S'text/html,application/xhtml+xml,application/xml;q=0.9,*/*;q=0.8'
p946
asbasbasbag49
(g65
g51
NtRp947
(dp948
g54
(dp949
sg63
g765
sg56
(lp950
g49
(g70
g51
NtRp951
(dp952
g54
(dp953
g74
g75
ssg63
g947
sg56
(lp954
S'http_accept_charset'
p955
asbag49
(g70
g51
NtRp956
(dp957
g54
(dp958
g81
g82
ssg63
g947
sg56
(lp959
S':'
asbag49
(g70
g51
NtRp960
(dp961
g54
(dp962
sg63
g947
sg56
(lp963
g49
(g50
g51
NtRp964
(dp965
g54
(dp966
g62
I4
ssg63
g960
sg56
(lp967
S'ISO-8859-1,utf-8;q=0.7,*;q=0.3'
p968
asbasbasbag49
(g65
g51
NtRp969
(dp970
g54
(dp971
sg63
g765
sg56
(lp972
g49
(g70
g51
NtRp973
(dp974
g54
(dp975
g74
g75
ssg63
g969
sg56
(lp976
S'http_accept_encoding'
p977
asbag49
(g70
g51
NtRp978
(dp979
g54
(dp980
g81
g82
ssg63
g969
sg56
(lp981
S':'
asbag49
(g70
g51
NtRp982
(dp983
g54
(dp984
sg63
g969
sg56
(lp985
g49
(g50
g51
NtRp986
(dp987
g54
(dp988
g62
I4
ssg63
g982
sg56
(lp989
S'gzip,deflate,sdch'
p990
asbasbasbag49
(g65
g51
NtRp991
(dp992
g54
(dp993
sg63
g765
sg56
(lp994
g49
(g70
g51
NtRp995
(dp996
g54
(dp997
g74
g75
ssg63
g991
sg56
(lp998
S'http_accept_language'
p999
asbag49
(g70
g51
NtRp1000
(dp1001
g54
(dp1002
g81
g82
ssg63
g991
sg56
(lp1003
S':'
asbag49
(g70
g51
NtRp1004
(dp1005
g54
(dp1006
sg63
g991
sg56
(lp1007
g49
(g50
g51
NtRp1008
(dp1009
g54
(dp1010
g62
I4
ssg63
g1004
sg56
(lp1011
S'pt-BR,pt;q=0.8,en-US;q=0.6,en;q=0.4'
p1012
asbasbasbag49
(g65
g51
NtRp1013
(dp1014
g54
(dp1015
sg63
g765
sg56
(lp1016
g49
(g70
g51
NtRp1017
(dp1018
g54
(dp1019
g74
g75
ssg63
g1013
sg56
(lp1020
S'http_connection'
p1021
asbag49
(g70
g51
NtRp1022
(dp1023
g54
(dp1024
g81
g82
ssg63
g1013
sg56
(lp1025
S':'
asbag49
(g70
g51
NtRp1026
(dp1027
g54
(dp1028
sg63
g1013
sg56
(lp1029
g49
(g50
g51
NtRp1030
(dp1031
g54
(dp1032
g62
I4
ssg63
g1026
sg56
(lp1033
S'keep-alive'
p1034
asbasbasbag49
(g65
g51
NtRp1035
(dp1036
g54
(dp1037
sg63
g765
sg56
(lp1038
g49
(g70
g51
NtRp1039
(dp1040
g54
(dp1041
g74
g75
ssg63
g1035
sg56
(lp1042
S'http_cookie'
p1043
asbag49
(g70
g51
NtRp1044
(dp1045
g54
(dp1046
g81
g82
ssg63
g1035
sg56
(lp1047
S':'
asbag49
(g70
g51
NtRp1048
(dp1049
g54
(dp1050
sg63
g1035
sg56
(lp1051
g49
(g50
g51
NtRp1052
(dp1053
g54
(dp1054
g62
I4
ssg63
g1048
sg56
(lp1055
S'session_id_welcome=127.0.0.1-1a92f181-8ff8-45e5-a5ea-67695bf9cf4b; session_id_admin=127.0.0.1-74314c3a-3fdd-4faa-80a4-9a8219ae5070; session_id_unioeste_code=127.0.0.1-87142505-8d38-426f-afb9-e3f36884a384'
p1056
asbasbasbag49
(g65
g51
NtRp1057
(dp1058
g54
(dp1059
sg63
g765
sg56
(lp1060
g49
(g70
g51
NtRp1061
(dp1062
g54
(dp1063
g74
g75
ssg63
g1057
sg56
(lp1064
S'http_dnt'
p1065
asbag49
(g70
g51
NtRp1066
(dp1067
g54
(dp1068
g81
g82
ssg63
g1057
sg56
(lp1069
S':'
asbag49
(g70
g51
NtRp1070
(dp1071
g54
(dp1072
sg63
g1057
sg56
(lp1073
g49
(g50
g51
NtRp1074
(dp1075
g54
(dp1076
g62
I4
ssg63
g1070
sg56
(lp1077
S'1'
asbasbasbag49
(g65
g51
NtRp1078
(dp1079
g54
(dp1080
sg63
g765
sg56
(lp1081
g49
(g70
g51
NtRp1082
(dp1083
g54
(dp1084
g74
g75
ssg63
g1078
sg56
(lp1085
S'http_host'
p1086
asbag49
(g70
g51
NtRp1087
(dp1088
g54
(dp1089
g81
g82
ssg63
g1078
sg56
(lp1090
S':'
asbag49
(g70
g51
NtRp1091
(dp1092
g54
(dp1093
sg63
g1078
sg56
(lp1094
g49
(g50
g51
NtRp1095
(dp1096
g54
(dp1097
g62
I4
ssg63
g1091
sg56
(lp1098
S'localhost:8000'
p1099
asbasbasbag49
(g65
g51
NtRp1100
(dp1101
g54
(dp1102
sg63
g765
sg56
(lp1103
g49
(g70
g51
NtRp1104
(dp1105
g54
(dp1106
g74
g75
ssg63
g1100
sg56
(lp1107
S'http_referer'
p1108
asbag49
(g70
g51
NtRp1109
(dp1110
g54
(dp1111
g81
g82
ssg63
g1100
sg56
(lp1112
S':'
asbag49
(g70
g51
NtRp1113
(dp1114
g54
(dp1115
sg63
g1100
sg56
(lp1116
g49
(g50
g51
NtRp1117
(dp1118
g54
(dp1119
g62
I4
ssg63
g1113
sg56
(lp1120
S'http://localhost:8000/unioeste_code/'
p1121
asbasbasbag49
(g65
g51
NtRp1122
(dp1123
g54
(dp1124
sg63
g765
sg56
(lp1125
g49
(g70
g51
NtRp1126
(dp1127
g54
(dp1128
g74
g75
ssg63
g1122
sg56
(lp1129
S'http_user_agent'
p1130
asbag49
(g70
g51
NtRp1131
(dp1132
g54
(dp1133
g81
g82
ssg63
g1122
sg56
(lp1134
S':'
asbag49
(g70
g51
NtRp1135
(dp1136
g54
(dp1137
sg63
g1122
sg56
(lp1138
g49
(g50
g51
NtRp1139
(dp1140
g54
(dp1141
g62
I4
ssg63
g1135
sg56
(lp1142
S'Mozilla/5.0 (Windows NT 6.1; WOW64) AppleWebKit/536.11 (KHTML, like Gecko) Chrome/20.0.1132.57 Safari/536.11'
p1143
asbasbasbag49
(g65
g51
NtRp1144
(dp1145
g54
(dp1146
sg63
g765
sg56
(lp1147
g49
(g70
g51
NtRp1148
(dp1149
g54
(dp1150
g74
g75
ssg63
g1144
sg56
(lp1151
S'is_jython'
p1152
asbag49
(g70
g51
NtRp1153
(dp1154
g54
(dp1155
g81
g82
ssg63
g1144
sg56
(lp1156
S':'
asbag49
(g70
g51
NtRp1157
(dp1158
g54
(dp1159
sg63
g1144
sg56
(lp1160
g49
(g50
g51
NtRp1161
(dp1162
g54
(dp1163
g62
I4
ssg63
g1157
sg56
(lp1164
g92
asbasbasbag49
(g65
g51
NtRp1165
(dp1166
g54
(dp1167
sg63
g765
sg56
(lp1168
g49
(g70
g51
NtRp1169
(dp1170
g54
(dp1171
g74
g75
ssg63
g1165
sg56
(lp1172
S'is_pypy'
p1173
asbag49
(g70
g51
NtRp1174
(dp1175
g54
(dp1176
g81
g82
ssg63
g1165
sg56
(lp1177
S':'
asbag49
(g70
g51
NtRp1178
(dp1179
g54
(dp1180
sg63
g1165
sg56
(lp1181
g49
(g50
g51
NtRp1182
(dp1183
g54
(dp1184
g62
I4
ssg63
g1178
sg56
(lp1185
g92
asbasbasbag49
(g65
g51
NtRp1186
(dp1187
g54
(dp1188
sg63
g765
sg56
(lp1189
g49
(g70
g51
NtRp1190
(dp1191
g54
(dp1192
g74
g75
ssg63
g1186
sg56
(lp1193
S'path_info'
p1194
asbag49
(g70
g51
NtRp1195
(dp1196
g54
(dp1197
g81
g82
ssg63
g1186
sg56
(lp1198
S':'
asbag49
(g70
g51
NtRp1199
(dp1200
g54
(dp1201
sg63
g1186
sg56
(lp1202
g49
(g50
g51
NtRp1203
(dp1204
g54
(dp1205
g62
I4
ssg63
g1199
sg56
(lp1206
S'/unioeste_code/default/show/1'
p1207
asbasbasbag49
(g65
g51
NtRp1208
(dp1209
g54
(dp1210
sg63
g765
sg56
(lp1211
g49
(g70
g51
NtRp1212
(dp1213
g54
(dp1214
g74
g75
ssg63
g1208
sg56
(lp1215
S'query_string'
p1216
asbag49
(g70
g51
NtRp1217
(dp1218
g54
(dp1219
g81
g82
ssg63
g1208
sg56
(lp1220
S':'
asbag49
(g70
g51
NtRp1221
(dp1222
g54
(dp1223
sg63
g1208
sg56
(lp1224
g49
(g50
g51
NtRp1225
(dp1226
g54
(dp1227
g62
I4
ssg63
g1221
sg56
(lp1228
S''
asbasbasbag49
(g65
g51
NtRp1229
(dp1230
g54
(dp1231
sg63
g765
sg56
(lp1232
g49
(g70
g51
NtRp1233
(dp1234
g54
(dp1235
g74
g75
ssg63
g1229
sg56
(lp1236
S'remote_addr'
p1237
asbag49
(g70
g51
NtRp1238
(dp1239
g54
(dp1240
g81
g82
ssg63
g1229
sg56
(lp1241
S':'
asbag49
(g70
g51
NtRp1242
(dp1243
g54
(dp1244
sg63
g1229
sg56
(lp1245
g49
(g50
g51
NtRp1246
(dp1247
g54
(dp1248
g62
I4
ssg63
g1242
sg56
(lp1249
g194
asbasbasbag49
(g65
g51
NtRp1250
(dp1251
g54
(dp1252
sg63
g765
sg56
(lp1253
g49
(g70
g51
NtRp1254
(dp1255
g54
(dp1256
g74
g75
ssg63
g1250
sg56
(lp1257
S'remote_port'
p1258
asbag49
(g70
g51
NtRp1259
(dp1260
g54
(dp1261
g81
g82
ssg63
g1250
sg56
(lp1262
S':'
asbag49
(g70
g51
NtRp1263
(dp1264
g54
(dp1265
sg63
g1250
sg56
(lp1266
g49
(g50
g51
NtRp1267
(dp1268
g54
(dp1269
g62
I4
ssg63
g1263
sg56
(lp1270
S'2589'
p1271
asbasbasbag49
(g65
g51
NtRp1272
(dp1273
g54
(dp1274
sg63
g765
sg56
(lp1275
g49
(g70
g51
NtRp1276
(dp1277
g54
(dp1278
g74
g75
ssg63
g1272
sg56
(lp1279
S'request_method'
p1280
asbag49
(g70
g51
NtRp1281
(dp1282
g54
(dp1283
g81
g82
ssg63
g1272
sg56
(lp1284
S':'
asbag49
(g70
g51
NtRp1285
(dp1286
g54
(dp1287
sg63
g1272
sg56
(lp1288
g49
(g50
g51
NtRp1289
(dp1290
g54
(dp1291
g62
I4
ssg63
g1285
sg56
(lp1292
S'GET'
p1293
asbasbasbag49
(g65
g51
NtRp1294
(dp1295
g54
(dp1296
sg63
g765
sg56
(lp1297
g49
(g70
g51
NtRp1298
(dp1299
g54
(dp1300
g74
g75
ssg63
g1294
sg56
(lp1301
S'script_name'
p1302
asbag49
(g70
g51
NtRp1303
(dp1304
g54
(dp1305
g81
g82
ssg63
g1294
sg56
(lp1306
S':'
asbag49
(g70
g51
NtRp1307
(dp1308
g54
(dp1309
sg63
g1294
sg56
(lp1310
g49
(g50
g51
NtRp1311
(dp1312
g54
(dp1313
g62
I4
ssg63
g1307
sg56
(lp1314
S''
asbasbasbag49
(g65
g51
NtRp1315
(dp1316
g54
(dp1317
sg63
g765
sg56
(lp1318
g49
(g70
g51
NtRp1319
(dp1320
g54
(dp1321
g74
g75
ssg63
g1315
sg56
(lp1322
S'server_name'
p1323
asbag49
(g70
g51
NtRp1324
(dp1325
g54
(dp1326
g81
g82
ssg63
g1315
sg56
(lp1327
S':'
asbag49
(g70
g51
NtRp1328
(dp1329
g54
(dp1330
sg63
g1315
sg56
(lp1331
g49
(g50
g51
NtRp1332
(dp1333
g54
(dp1334
g62
I4
ssg63
g1328
sg56
(lp1335
S'Pedro-PC'
p1336
asbasbasbag49
(g65
g51
NtRp1337
(dp1338
g54
(dp1339
sg63
g765
sg56
(lp1340
g49
(g70
g51
NtRp1341
(dp1342
g54
(dp1343
g74
g75
ssg63
g1337
sg56
(lp1344
S'server_port'
p1345
asbag49
(g70
g51
NtRp1346
(dp1347
g54
(dp1348
g81
g82
ssg63
g1337
sg56
(lp1349
S':'
asbag49
(g70
g51
NtRp1350
(dp1351
g54
(dp1352
sg63
g1337
sg56
(lp1353
g49
(g50
g51
NtRp1354
(dp1355
g54
(dp1356
g62
I4
ssg63
g1350
sg56
(lp1357
S'8000'
p1358
asbasbasbag49
(g65
g51
NtRp1359
(dp1360
g54
(dp1361
sg63
g765
sg56
(lp1362
g49
(g70
g51
NtRp1363
(dp1364
g54
(dp1365
g74
g75
ssg63
g1359
sg56
(lp1366
S'server_protocol'
p1367
asbag49
(g70
g51
NtRp1368
(dp1369
g54
(dp1370
g81
g82
ssg63
g1359
sg56
(lp1371
S':'
asbag49
(g70
g51
NtRp1372
(dp1373
g54
(dp1374
sg63
g1359
sg56
(lp1375
g49
(g50
g51
NtRp1376
(dp1377
g54
(dp1378
g62
I4
ssg63
g1372
sg56
(lp1379
S'HTTP/1.1'
p1380
asbasbasbag49
(g65
g51
NtRp1381
(dp1382
g54
(dp1383
sg63
g765
sg56
(lp1384
g49
(g70
g51
NtRp1385
(dp1386
g54
(dp1387
g74
g75
ssg63
g1381
sg56
(lp1388
S'server_software'
p1389
asbag49
(g70
g51
NtRp1390
(dp1391
g54
(dp1392
g81
g82
ssg63
g1381
sg56
(lp1393
S':'
asbag49
(g70
g51
NtRp1394
(dp1395
g54
(dp1396
sg63
g1381
sg56
(lp1397
g49
(g50
g51
NtRp1398
(dp1399
g54
(dp1400
g62
I4
ssg63
g1394
sg56
(lp1401
S'Rocket 1.2.4'
p1402
asbasbasbag49
(g65
g51
NtRp1403
(dp1404
g54
(dp1405
sg63
g765
sg56
(lp1406
g49
(g70
g51
NtRp1407
(dp1408
g54
(dp1409
g74
g75
ssg63
g1403
sg56
(lp1410
S'web2py_crontype'
p1411
asbag49
(g70
g51
NtRp1412
(dp1413
g54
(dp1414
g81
g82
ssg63
g1403
sg56
(lp1415
S':'
asbag49
(g70
g51
NtRp1416
(dp1417
g54
(dp1418
sg63
g1403
sg56
(lp1419
g49
(g50
g51
NtRp1420
(dp1421
g54
(dp1422
g62
I4
ssg63
g1416
sg56
(lp1423
S'hard'
p1424
asbasbasbag49
(g65
g51
NtRp1425
(dp1426
g54
(dp1427
sg63
g765
sg56
(lp1428
g49
(g70
g51
NtRp1429
(dp1430
g54
(dp1431
g74
g75
ssg63
g1425
sg56
(lp1432
S'web2py_path'
p1433
asbag49
(g70
g51
NtRp1434
(dp1435
g54
(dp1436
g81
g82
ssg63
g1425
sg56
(lp1437
S':'
asbag49
(g70
g51
NtRp1438
(dp1439
g54
(dp1440
sg63
g1425
sg56
(lp1441
g49
(g50
g51
NtRp1442
(dp1443
g54
(dp1444
g62
I4
ssg63
g1438
sg56
(lp1445
g812
asbasbasbag49
(g65
g51
NtRp1446
(dp1447
g54
(dp1448
sg63
g765
sg56
(lp1449
g49
(g70
g51
NtRp1450
(dp1451
g54
(dp1452
g74
g75
ssg63
g1446
sg56
(lp1453
S'web2py_version'
p1454
asbag49
(g70
g51
NtRp1455
(dp1456
g54
(dp1457
g81
g82
ssg63
g1446
sg56
(lp1458
S':'
asbag49
(g70
g51
NtRp1459
(dp1460
g54
(dp1461
sg63
g1446
sg56
(lp1462
g49
(g50
g51
NtRp1463
(dp1464
g54
(dp1465
g62
I4
ssg63
g1459
sg56
(lp1466
g49
(g58
g51
NtRp1467
(dp1468
g54
(dp1469
g62
I3
ssg63
Nsg56
(lp1470
g49
(g65
g51
NtRp1471
(dp1472
g54
(dp1473
sg63
g1467
sg56
(lp1474
g49
(g70
g51
NtRp1475
(dp1476
g54
(dp1477
sg63
g1471
sg56
(lp1478
g49
(g50
g51
NtRp1479
(dp1480
g54
(dp1481
g62
I3
ssg63
g1475
sg56
(lp1482
S'1'
asbasbasbag49
(g65
g51
NtRp1483
(dp1484
g54
(dp1485
sg63
g1467
sg56
(lp1486
g49
(g70
g51
NtRp1487
(dp1488
g54
(dp1489
sg63
g1483
sg56
(lp1490
g49
(g50
g51
NtRp1491
(dp1492
g54
(dp1493
g62
I3
ssg63
g1487
sg56
(lp1494
S'99'
p1495
asbasbasbag49
(g65
g51
NtRp1496
(dp1497
g54
(dp1498
sg63
g1467
sg56
(lp1499
g49
(g70
g51
NtRp1500
(dp1501
g54
(dp1502
sg63
g1496
sg56
(lp1503
g49
(g50
g51
NtRp1504
(dp1505
g54
(dp1506
g62
I3
ssg63
g1500
sg56
(lp1507
S'7'
asbasbasbag49
(g65
g51
NtRp1508
(dp1509
g54
(dp1510
sg63
g1467
sg56
(lp1511
g49
(g70
g51
NtRp1512
(dp1513
g54
(dp1514
sg63
g1508
sg56
(lp1515
g49
(g50
g51
NtRp1516
(dp1517
g54
(dp1518
g62
I3
ssg63
g1512
sg56
(lp1519
S'datetime.datetime(2012, 3, 4, 22, 12, 8)'
p1520
asbasbasbag49
(g65
g51
NtRp1521
(dp1522
g54
(dp1523
sg63
g1467
sg56
(lp1524
g49
(g70
g51
NtRp1525
(dp1526
g54
(dp1527
sg63
g1521
sg56
(lp1528
g49
(g50
g51
NtRp1529
(dp1530
g54
(dp1531
g62
I3
ssg63
g1525
sg56
(lp1532
S'stable'
p1533
asbasbasbasbasbasbasbag49
(g65
g51
NtRp1534
(dp1535
g54
(dp1536
sg63
g765
sg56
(lp1537
g49
(g70
g51
NtRp1538
(dp1539
g54
(dp1540
g74
g75
ssg63
g1534
sg56
(lp1541
S'wsgi_errors'
p1542
asbag49
(g70
g51
NtRp1543
(dp1544
g54
(dp1545
g81
g82
ssg63
g1534
sg56
(lp1546
S':'
asbag49
(g70
g51
NtRp1547
(dp1548
g54
(dp1549
sg63
g1534
sg56
(lp1550
g49
(g50
g51
NtRp1551
(dp1552
g54
(dp1553
g62
I4
ssg63
g1547
sg56
(lp1554
S'<__main__.Stderr object at 0x006F6670>'
p1555
asbasbasbag49
(g65
g51
NtRp1556
(dp1557
g54
(dp1558
sg63
g765
sg56
(lp1559
g49
(g70
g51
NtRp1560
(dp1561
g54
(dp1562
g74
g75
ssg63
g1556
sg56
(lp1563
S'wsgi_file_wrapper'
p1564
asbag49
(g70
g51
NtRp1565
(dp1566
g54
(dp1567
g81
g82
ssg63
g1556
sg56
(lp1568
S':'
asbag49
(g70
g51
NtRp1569
(dp1570
g54
(dp1571
sg63
g1556
sg56
(lp1572
g49
(g50
g51
NtRp1573
(dp1574
g54
(dp1575
g62
I4
ssg63
g1569
sg56
(lp1576
S'<class wsgiref.util.FileWrapper at 0x02E8DE10>'
p1577
asbasbasbag49
(g65
g51
NtRp1578
(dp1579
g54
(dp1580
sg63
g765
sg56
(lp1581
g49
(g70
g51
NtRp1582
(dp1583
g54
(dp1584
g74
g75
ssg63
g1578
sg56
(lp1585
S'wsgi_input'
p1586
asbag49
(g70
g51
NtRp1587
(dp1588
g54
(dp1589
g81
g82
ssg63
g1578
sg56
(lp1590
S':'
asbag49
(g70
g51
NtRp1591
(dp1592
g54
(dp1593
sg63
g1578
sg56
(lp1594
g49
(g50
g51
NtRp1595
(dp1596
g54
(dp1597
g62
I4
ssg63
g1591
sg56
(lp1598
S'<socket._fileobject object at 0x06859BF0>'
p1599
asbasbasbag49
(g65
g51
NtRp1600
(dp1601
g54
(dp1602
sg63
g765
sg56
(lp1603
g49
(g70
g51
NtRp1604
(dp1605
g54
(dp1606
g74
g75
ssg63
g1600
sg56
(lp1607
S'wsgi_multiprocess'
p1608
asbag49
(g70
g51
NtRp1609
(dp1610
g54
(dp1611
g81
g82
ssg63
g1600
sg56
(lp1612
S':'
asbag49
(g70
g51
NtRp1613
(dp1614
g54
(dp1615
sg63
g1600
sg56
(lp1616
g49
(g50
g51
NtRp1617
(dp1618
g54
(dp1619
g62
I4
ssg63
g1613
sg56
(lp1620
g92
asbasbasbag49
(g65
g51
NtRp1621
(dp1622
g54
(dp1623
sg63
g765
sg56
(lp1624
g49
(g70
g51
NtRp1625
(dp1626
g54
(dp1627
g74
g75
ssg63
g1621
sg56
(lp1628
S'wsgi_multithread'
p1629
asbag49
(g70
g51
NtRp1630
(dp1631
g54
(dp1632
g81
g82
ssg63
g1621
sg56
(lp1633
S':'
asbag49
(g70
g51
NtRp1634
(dp1635
g54
(dp1636
sg63
g1621
sg56
(lp1637
g49
(g50
g51
NtRp1638
(dp1639
g54
(dp1640
g62
I4
ssg63
g1634
sg56
(lp1641
S'True'
p1642
asbasbasbag49
(g65
g51
NtRp1643
(dp1644
g54
(dp1645
sg63
g765
sg56
(lp1646
g49
(g70
g51
NtRp1647
(dp1648
g54
(dp1649
g74
g75
ssg63
g1643
sg56
(lp1650
S'wsgi_run_once'
p1651
asbag49
(g70
g51
NtRp1652
(dp1653
g54
(dp1654
g81
g82
ssg63
g1643
sg56
(lp1655
S':'
asbag49
(g70
g51
NtRp1656
(dp1657
g54
(dp1658
sg63
g1643
sg56
(lp1659
g49
(g50
g51
NtRp1660
(dp1661
g54
(dp1662
g62
I4
ssg63
g1656
sg56
(lp1663
g92
asbasbasbag49
(g65
g51
NtRp1664
(dp1665
g54
(dp1666
sg63
g765
sg56
(lp1667
g49
(g70
g51
NtRp1668
(dp1669
g54
(dp1670
g74
g75
ssg63
g1664
sg56
(lp1671
S'wsgi_url_scheme'
p1672
asbag49
(g70
g51
NtRp1673
(dp1674
g54
(dp1675
g81
g82
ssg63
g1664
sg56
(lp1676
S':'
asbag49
(g70
g51
NtRp1677
(dp1678
g54
(dp1679
sg63
g1664
sg56
(lp1680
g49
(g50
g51
NtRp1681
(dp1682
g54
(dp1683
g62
I4
ssg63
g1677
sg56
(lp1684
S'http'
p1685
asbasbasbag49
(g65
g51
NtRp1686
(dp1687
g54
(dp1688
sg63
g765
sg56
(lp1689
g49
(g70
g51
NtRp1690
(dp1691
g54
(dp1692
g74
g75
ssg63
g1686
sg56
(lp1693
S'wsgi_version'
p1694
asbag49
(g70
g51
NtRp1695
(dp1696
g54
(dp1697
g81
g82
ssg63
g1686
sg56
(lp1698
S':'
asbag49
(g70
g51
NtRp1699
(dp1700
g54
(dp1701
sg63
g1686
sg56
(lp1702
g49
(g50
g51
NtRp1703
(dp1704
g54
(dp1705
g62
I4
ssg63
g1699
sg56
(lp1706
g49
(g58
g51
NtRp1707
(dp1708
g54
(dp1709
g62
I3
ssg63
Nsg56
(lp1710
g49
(g65
g51
NtRp1711
(dp1712
g54
(dp1713
sg63
g1707
sg56
(lp1714
g49
(g70
g51
NtRp1715
(dp1716
g54
(dp1717
sg63
g1711
sg56
(lp1718
g49
(g50
g51
NtRp1719
(dp1720
g54
(dp1721
g62
I3
ssg63
g1715
sg56
(lp1722
S'1'
asbasbasbag49
(g65
g51
NtRp1723
(dp1724
g54
(dp1725
sg63
g1707
sg56
(lp1726
g49
(g70
g51
NtRp1727
(dp1728
g54
(dp1729
sg63
g1723
sg56
(lp1730
g49
(g50
g51
NtRp1731
(dp1732
g54
(dp1733
g62
I3
ssg63
g1727
sg56
(lp1734
S'0'
asbasbasbasbasbasbasbasbasbasbasbag49
(g65
g51
NtRp1735
(dp1736
g54
(dp1737
sg63
g59
sg56
(lp1738
g49
(g70
g51
NtRp1739
(dp1740
g54
(dp1741
g74
g75
ssg63
g1735
sg56
(lp1742
S'extension'
p1743
asbag49
(g70
g51
NtRp1744
(dp1745
g54
(dp1746
g81
g82
ssg63
g1735
sg56
(lp1747
S':'
asbag49
(g70
g51
NtRp1748
(dp1749
g54
(dp1750
sg63
g1735
sg56
(lp1751
g49
(g50
g51
NtRp1752
(dp1753
g54
(dp1754
g62
I5
ssg63
g1748
sg56
(lp1755
S'html'
p1756
asbasbasbag49
(g65
g51
NtRp1757
(dp1758
g54
(dp1759
sg63
g59
sg56
(lp1760
g49
(g70
g51
NtRp1761
(dp1762
g54
(dp1763
g74
g75
ssg63
g1757
sg56
(lp1764
S'folder'
p1765
asbag49
(g70
g51
NtRp1766
(dp1767
g54
(dp1768
g81
g82
ssg63
g1757
sg56
(lp1769
S':'
asbag49
(g70
g51
NtRp1770
(dp1771
g54
(dp1772
sg63
g1757
sg56
(lp1773
g49
(g50
g51
NtRp1774
(dp1775
g54
(dp1776
g62
I5
ssg63
g1770
sg56
(lp1777
S'C:\\web2py\\applications\\unioeste_code\\'
p1778
asbasbasbag49
(g65
g51
NtRp1779
(dp1780
g54
(dp1781
sg63
g59
sg56
(lp1782
g49
(g70
g51
NtRp1783
(dp1784
g54
(dp1785
g74
g75
ssg63
g1779
sg56
(lp1786
S'function'
p1787
asbag49
(g70
g51
NtRp1788
(dp1789
g54
(dp1790
g81
g82
ssg63
g1779
sg56
(lp1791
S':'
asbag49
(g70
g51
NtRp1792
(dp1793
g54
(dp1794
sg63
g1779
sg56
(lp1795
g49
(g50
g51
NtRp1796
(dp1797
g54
(dp1798
g62
I5
ssg63
g1792
sg56
(lp1799
S'show'
p1800
asbasbasbag49
(g65
g51
NtRp1801
(dp1802
g54
(dp1803
sg63
g59
sg56
(lp1804
g49
(g70
g51
NtRp1805
(dp1806
g54
(dp1807
g74
g75
ssg63
g1801
sg56
(lp1808
S'get_vars'
p1809
asbag49
(g70
g51
NtRp1810
(dp1811
g54
(dp1812
g81
g82
ssg63
g1801
sg56
(lp1813
S':'
asbag49
(g70
g51
NtRp1814
(dp1815
g54
(dp1816
sg63
g1801
sg56
(lp1817
g49
(g50
g51
NtRp1818
(dp1819
g54
(dp1820
g62
I5
ssg63
g1814
sg56
(lp1821
g49
(g58
g51
NtRp1822
(dp1823
g54
(dp1824
g62
I4
ssg63
Nsg56
(lp1825
sbasbasbasbag49
(g65
g51
NtRp1826
(dp1827
g54
(dp1828
sg63
g59
sg56
(lp1829
g49
(g70
g51
NtRp1830
(dp1831
g54
(dp1832
g74
g75
ssg63
g1826
sg56
(lp1833
S'global_settings'
p1834
asbag49
(g70
g51
NtRp1835
(dp1836
g54
(dp1837
g81
g82
ssg63
g1826
sg56
(lp1838
S':'
asbag49
(g70
g51
NtRp1839
(dp1840
g54
(dp1841
sg63
g1826
sg56
(lp1842
g49
(g50
g51
NtRp1843
(dp1844
g54
(dp1845
g62
I5
ssg63
g1839
sg56
(lp1846
g49
(g58
g51
NtRp1847
(dp1848
g54
(dp1849
g62
I4
ssg63
Nsg56
(lp1850
g49
(g65
g51
NtRp1851
(dp1852
g54
(dp1853
sg63
g1847
sg56
(lp1854
g49
(g70
g51
NtRp1855
(dp1856
g54
(dp1857
g74
g75
ssg63
g1851
sg56
(lp1858
g777
asbag49
(g70
g51
NtRp1859
(dp1860
g54
(dp1861
g81
g82
ssg63
g1851
sg56
(lp1862
S':'
asbag49
(g70
g51
NtRp1863
(dp1864
g54
(dp1865
sg63
g1851
sg56
(lp1866
g49
(g50
g51
NtRp1867
(dp1868
g54
(dp1869
g62
I4
ssg63
g1863
sg56
(lp1870
S"set(['C:\\\\web2py\\\\applications\\\\admin\\\\', 'C:\\\\web2py\\\\applications\\\\welcome\\\\', 'C:\\\\web2py\\\\applications\\\\unioeste_code\\\\'])"
p1871
asbasbasbag49
(g65
g51
NtRp1872
(dp1873
g54
(dp1874
sg63
g1847
sg56
(lp1875
g49
(g70
g51
NtRp1876
(dp1877
g54
(dp1878
g74
g75
ssg63
g1872
sg56
(lp1879
g799
asbag49
(g70
g51
NtRp1880
(dp1881
g54
(dp1882
g81
g82
ssg63
g1872
sg56
(lp1883
S':'
asbag49
(g70
g51
NtRp1884
(dp1885
g54
(dp1886
sg63
g1872
sg56
(lp1887
g49
(g50
g51
NtRp1888
(dp1889
g54
(dp1890
g62
I4
ssg63
g1884
sg56
(lp1891
g812
asbasbasbag49
(g65
g51
NtRp1892
(dp1893
g54
(dp1894
sg63
g1847
sg56
(lp1895
g49
(g70
g51
NtRp1896
(dp1897
g54
(dp1898
g74
g75
ssg63
g1892
sg56
(lp1899
g821
asbag49
(g70
g51
NtRp1900
(dp1901
g54
(dp1902
g81
g82
ssg63
g1892
sg56
(lp1903
S':'
asbag49
(g70
g51
NtRp1904
(dp1905
g54
(dp1906
sg63
g1892
sg56
(lp1907
g49
(g50
g51
NtRp1908
(dp1909
g54
(dp1910
g62
I4
ssg63
g1904
sg56
(lp1911
g49
(g58
g51
NtRp1912
(dp1913
g54
(dp1914
g62
I3
ssg63
Nsg56
(lp1915
sbasbasbasbag49
(g65
g51
NtRp1916
(dp1917
g54
(dp1918
sg63
g1847
sg56
(lp1919
g49
(g70
g51
NtRp1920
(dp1921
g54
(dp1922
g74
g75
ssg63
g1916
sg56
(lp1923
g846
asbag49
(g70
g51
NtRp1924
(dp1925
g54
(dp1926
g81
g82
ssg63
g1916
sg56
(lp1927
S':'
asbag49
(g70
g51
NtRp1928
(dp1929
g54
(dp1930
sg63
g1916
sg56
(lp1931
g49
(g50
g51
NtRp1932
(dp1933
g54
(dp1934
g62
I4
ssg63
g1928
sg56
(lp1935
S"<Values at 0x309c300: {'verbose': False, 'ip': '127.0.0.1', 'shutdown_timeout': 5, 'taskbar': False, 'nocron': False, 'pid_filename': 'httpserver.pid', 'maxthreads': None, 'softcron': False, 'server_name': 'Pedro-PC', 'bpython': False, 'nogui': False, 'port': 8000, 'extcron': False, 'debuglevel': 30, 'test': None, 'folder': 'C:\\\\web2py', 'config': '', 'import_models': False, 'winservice': '', 'shell': None, 'run': '', 'log_filename': 'httpserver.log', 'args': [''], 'socket_timeout': 5, 'ssl_ca_certificate': None, 'scheduler': None, 'profiler_filename': None, 'ssl_private_key': '', 'password': '<ask>', 'request_queue_size': 5, 'ssl_certificate': '', 'cronjob': False, 'numthreads': None, 'quiet': False, 'interfaces': None, 'minthreads': None, 'timeout': 10, 'plain': False, 'nobanner': False}>"
p1936
asbasbasbag49
(g65
g51
NtRp1937
(dp1938
g54
(dp1939
sg63
g1847
sg56
(lp1940
g49
(g70
g51
NtRp1941
(dp1942
g54
(dp1943
g74
g75
ssg63
g1937
sg56
(lp1944
g868
asbag49
(g70
g51
NtRp1945
(dp1946
g54
(dp1947
g81
g82
ssg63
g1937
sg56
(lp1948
S':'
asbag49
(g70
g51
NtRp1949
(dp1950
g54
(dp1951
sg63
g1937
sg56
(lp1952
g49
(g50
g51
NtRp1953
(dp1954
g54
(dp1955
g62
I4
ssg63
g1949
sg56
(lp1956
S'set([])'
p1957
asbasbasbag49
(g65
g51
NtRp1958
(dp1959
g54
(dp1960
sg63
g1847
sg56
(lp1961
g49
(g70
g51
NtRp1962
(dp1963
g54
(dp1964
g74
g75
ssg63
g1958
sg56
(lp1965
g890
asbag49
(g70
g51
NtRp1966
(dp1967
g54
(dp1968
g81
g82
ssg63
g1958
sg56
(lp1969
S':'
asbag49
(g70
g51
NtRp1970
(dp1971
g54
(dp1972
sg63
g1958
sg56
(lp1973
g49
(g50
g51
NtRp1974
(dp1975
g54
(dp1976
g62
I4
ssg63
g1970
sg56
(lp1977
g92
asbasbasbag49
(g65
g51
NtRp1978
(dp1979
g54
(dp1980
sg63
g1847
sg56
(lp1981
g49
(g70
g51
NtRp1982
(dp1983
g54
(dp1984
g74
g75
ssg63
g1978
sg56
(lp1985
g911
asbag49
(g70
g51
NtRp1986
(dp1987
g54
(dp1988
g81
g82
ssg63
g1978
sg56
(lp1989
S':'
asbag49
(g70
g51
NtRp1990
(dp1991
g54
(dp1992
sg63
g1978
sg56
(lp1993
g49
(g50
g51
NtRp1994
(dp1995
g54
(dp1996
g62
I4
ssg63
g1990
sg56
(lp1997
g924
asbasbasbag49
(g65
g51
NtRp1998
(dp1999
g54
(dp2000
sg63
g1847
sg56
(lp2001
g49
(g70
g51
NtRp2002
(dp2003
g54
(dp2004
g74
g75
ssg63
g1998
sg56
(lp2005
g1152
asbag49
(g70
g51
NtRp2006
(dp2007
g54
(dp2008
g81
g82
ssg63
g1998
sg56
(lp2009
S':'
asbag49
(g70
g51
NtRp2010
(dp2011
g54
(dp2012
sg63
g1998
sg56
(lp2013
g49
(g50
g51
NtRp2014
(dp2015
g54
(dp2016
g62
I4
ssg63
g2010
sg56
(lp2017
g92
asbasbasbag49
(g65
g51
NtRp2018
(dp2019
g54
(dp2020
sg63
g1847
sg56
(lp2021
g49
(g70
g51
NtRp2022
(dp2023
g54
(dp2024
g74
g75
ssg63
g2018
sg56
(lp2025
g1173
asbag49
(g70
g51
NtRp2026
(dp2027
g54
(dp2028
g81
g82
ssg63
g2018
sg56
(lp2029
S':'
asbag49
(g70
g51
NtRp2030
(dp2031
g54
(dp2032
sg63
g2018
sg56
(lp2033
g49
(g50
g51
NtRp2034
(dp2035
g54
(dp2036
g62
I4
ssg63
g2030
sg56
(lp2037
g92
asbasbasbag49
(g65
g51
NtRp2038
(dp2039
g54
(dp2040
sg63
g1847
sg56
(lp2041
g49
(g70
g51
NtRp2042
(dp2043
g54
(dp2044
g74
g75
ssg63
g2038
sg56
(lp2045
g1411
asbag49
(g70
g51
NtRp2046
(dp2047
g54
(dp2048
g81
g82
ssg63
g2038
sg56
(lp2049
S':'
asbag49
(g70
g51
NtRp2050
(dp2051
g54
(dp2052
sg63
g2038
sg56
(lp2053
g49
(g50
g51
NtRp2054
(dp2055
g54
(dp2056
g62
I4
ssg63
g2050
sg56
(lp2057
g1424
asbasbasbag49
(g65
g51
NtRp2058
(dp2059
g54
(dp2060
sg63
g1847
sg56
(lp2061
g49
(g70
g51
NtRp2062
(dp2063
g54
(dp2064
g74
g75
ssg63
g2058
sg56
(lp2065
g1454
asbag49
(g70
g51
NtRp2066
(dp2067
g54
(dp2068
g81
g82
ssg63
g2058
sg56
(lp2069
S':'
asbag49
(g70
g51
NtRp2070
(dp2071
g54
(dp2072
sg63
g2058
sg56
(lp2073
g49
(g50
g51
NtRp2074
(dp2075
g54
(dp2076
g62
I4
ssg63
g2070
sg56
(lp2077
g49
(g58
g51
NtRp2078
(dp2079
g54
(dp2080
g62
I3
ssg63
Nsg56
(lp2081
g49
(g65
g51
NtRp2082
(dp2083
g54
(dp2084
sg63
g2078
sg56
(lp2085
g49
(g70
g51
NtRp2086
(dp2087
g54
(dp2088
sg63
g2082
sg56
(lp2089
g49
(g50
g51
NtRp2090
(dp2091
g54
(dp2092
g62
I3
ssg63
g2086
sg56
(lp2093
S'1'
asbasbasbag49
(g65
g51
NtRp2094
(dp2095
g54
(dp2096
sg63
g2078
sg56
(lp2097
g49
(g70
g51
NtRp2098
(dp2099
g54
(dp2100
sg63
g2094
sg56
(lp2101
g49
(g50
g51
NtRp2102
(dp2103
g54
(dp2104
g62
I3
ssg63
g2098
sg56
(lp2105
S'99'
p2106
asbasbasbag49
(g65
g51
NtRp2107
(dp2108
g54
(dp2109
sg63
g2078
sg56
(lp2110
g49
(g70
g51
NtRp2111
(dp2112
g54
(dp2113
sg63
g2107
sg56
(lp2114
g49
(g50
g51
NtRp2115
(dp2116
g54
(dp2117
g62
I3
ssg63
g2111
sg56
(lp2118
S'7'
asbasbasbag49
(g65
g51
NtRp2119
(dp2120
g54
(dp2121
sg63
g2078
sg56
(lp2122
g49
(g70
g51
NtRp2123
(dp2124
g54
(dp2125
sg63
g2119
sg56
(lp2126
g49
(g50
g51
NtRp2127
(dp2128
g54
(dp2129
g62
I3
ssg63
g2123
sg56
(lp2130
S'datetime.datetime(2012, 3, 4, 22, 12, 8)'
p2131
asbasbasbag49
(g65
g51
NtRp2132
(dp2133
g54
(dp2134
sg63
g2078
sg56
(lp2135
g49
(g70
g51
NtRp2136
(dp2137
g54
(dp2138
sg63
g2132
sg56
(lp2139
g49
(g50
g51
NtRp2140
(dp2141
g54
(dp2142
g62
I3
ssg63
g2136
sg56
(lp2143
g1533
asbasbasbasbasbasbasbasbasbasbasbag49
(g65
g51
NtRp2144
(dp2145
g54
(dp2146
sg63
g59
sg56
(lp2147
g49
(g70
g51
NtRp2148
(dp2149
g54
(dp2150
g74
g75
ssg63
g2144
sg56
(lp2151
S'is_https'
p2152
asbag49
(g70
g51
NtRp2153
(dp2154
g54
(dp2155
g81
g82
ssg63
g2144
sg56
(lp2156
S':'
asbag49
(g70
g51
NtRp2157
(dp2158
g54
(dp2159
sg63
g2144
sg56
(lp2160
g49
(g50
g51
NtRp2161
(dp2162
g54
(dp2163
g62
I5
ssg63
g2157
sg56
(lp2164
g92
asbasbasbag49
(g65
g51
NtRp2165
(dp2166
g54
(dp2167
sg63
g59
sg56
(lp2168
g49
(g70
g51
NtRp2169
(dp2170
g54
(dp2171
g74
g75
ssg63
g2165
sg56
(lp2172
S'is_local'
p2173
asbag49
(g70
g51
NtRp2174
(dp2175
g54
(dp2176
g81
g82
ssg63
g2165
sg56
(lp2177
S':'
asbag49
(g70
g51
NtRp2178
(dp2179
g54
(dp2180
sg63
g2165
sg56
(lp2181
g49
(g50
g51
NtRp2182
(dp2183
g54
(dp2184
g62
I5
ssg63
g2178
sg56
(lp2185
g1642
asbasbasbag49
(g65
g51
NtRp2186
(dp2187
g54
(dp2188
sg63
g59
sg56
(lp2189
g49
(g70
g51
NtRp2190
(dp2191
g54
(dp2192
g74
g75
ssg63
g2186
sg56
(lp2193
S'is_restful'
p2194
asbag49
(g70
g51
NtRp2195
(dp2196
g54
(dp2197
g81
g82
ssg63
g2186
sg56
(lp2198
S':'
asbag49
(g70
g51
NtRp2199
(dp2200
g54
(dp2201
sg63
g2186
sg56
(lp2202
g49
(g50
g51
NtRp2203
(dp2204
g54
(dp2205
g62
I5
ssg63
g2199
sg56
(lp2206
g92
asbasbasbag49
(g65
g51
NtRp2207
(dp2208
g54
(dp2209
sg63
g59
sg56
(lp2210
g49
(g70
g51
NtRp2211
(dp2212
g54
(dp2213
g74
g75
ssg63
g2207
sg56
(lp2214
S'now'
p2215
asbag49
(g70
g51
NtRp2216
(dp2217
g54
(dp2218
g81
g82
ssg63
g2207
sg56
(lp2219
S':'
asbag49
(g70
g51
NtRp2220
(dp2221
g54
(dp2222
sg63
g2207
sg56
(lp2223
g49
(g50
g51
NtRp2224
(dp2225
g54
(dp2226
g62
I5
ssg63
g2220
sg56
(lp2227
S'datetime.datetime(2012, 7, 28, 15, 43, 5, 834000)'
p2228
asbasbasbag49
(g65
g51
NtRp2229
(dp2230
g54
(dp2231
sg63
g59
sg56
(lp2232
g49
(g70
g51
NtRp2233
(dp2234
g54
(dp2235
g74
g75
ssg63
g2229
sg56
(lp2236
S'post_vars'
p2237
asbag49
(g70
g51
NtRp2238
(dp2239
g54
(dp2240
g81
g82
ssg63
g2229
sg56
(lp2241
S':'
asbag49
(g70
g51
NtRp2242
(dp2243
g54
(dp2244
sg63
g2229
sg56
(lp2245
g49
(g50
g51
NtRp2246
(dp2247
g54
(dp2248
g62
I5
ssg63
g2242
sg56
(lp2249
g49
(g58
g51
NtRp2250
(dp2251
g54
(dp2252
g62
I4
ssg63
Nsg56
(lp2253
sbasbasbasbag49
(g65
g51
NtRp2254
(dp2255
g54
(dp2256
sg63
g59
sg56
(lp2257
g49
(g70
g51
NtRp2258
(dp2259
g54
(dp2260
g74
g75
ssg63
g2254
sg56
(lp2261
S'raw_args'
p2262
asbag49
(g70
g51
NtRp2263
(dp2264
g54
(dp2265
g81
g82
ssg63
g2254
sg56
(lp2266
S':'
asbag49
(g70
g51
NtRp2267
(dp2268
g54
(dp2269
sg63
g2254
sg56
(lp2270
g49
(g50
g51
NtRp2271
(dp2272
g54
(dp2273
g62
I5
ssg63
g2267
sg56
(lp2274
S'1'
asbasbasbag49
(g65
g51
NtRp2275
(dp2276
g54
(dp2277
sg63
g59
sg56
(lp2278
g49
(g70
g51
NtRp2279
(dp2280
g54
(dp2281
g74
g75
ssg63
g2275
sg56
(lp2282
S'url'
p2283
asbag49
(g70
g51
NtRp2284
(dp2285
g54
(dp2286
g81
g82
ssg63
g2275
sg56
(lp2287
S':'
asbag49
(g70
g51
NtRp2288
(dp2289
g54
(dp2290
sg63
g2275
sg56
(lp2291
g49
(g50
g51
NtRp2292
(dp2293
g54
(dp2294
g62
I5
ssg63
g2288
sg56
(lp2295
S'/unioeste_code/default/show/1'
p2296
asbasbasbag49
(g65
g51
NtRp2297
(dp2298
g54
(dp2299
sg63
g59
sg56
(lp2300
g49
(g70
g51
NtRp2301
(dp2302
g54
(dp2303
g74
g75
ssg63
g2297
sg56
(lp2304
S'utcnow'
p2305
asbag49
(g70
g51
NtRp2306
(dp2307
g54
(dp2308
g81
g82
ssg63
g2297
sg56
(lp2309
S':'
asbag49
(g70
g51
NtRp2310
(dp2311
g54
(dp2312
sg63
g2297
sg56
(lp2313
g49
(g50
g51
NtRp2314
(dp2315
g54
(dp2316
g62
I5
ssg63
g2310
sg56
(lp2317
S'datetime.datetime(2012, 7, 28, 18, 43, 5, 834000)'
p2318
asbasbasbag49
(g65
g51
NtRp2319
(dp2320
g54
(dp2321
sg63
g59
sg56
(lp2322
g49
(g70
g51
NtRp2323
(dp2324
g54
(dp2325
g74
g75
ssg63
g2319
sg56
(lp2326
S'uuid'
p2327
asbag49
(g70
g51
NtRp2328
(dp2329
g54
(dp2330
g81
g82
ssg63
g2319
sg56
(lp2331
S':'
asbag49
(g70
g51
NtRp2332
(dp2333
g54
(dp2334
sg63
g2319
sg56
(lp2335
g49
(g50
g51
NtRp2336
(dp2337
g54
(dp2338
g62
I5
ssg63
g2332
sg56
(lp2339
S'unioeste_code/127.0.0.1.2012-07-28.15-43-05.70317034-d8e8-4205-8e1b-f00363996b88'
p2340
asbasbasbag49
(g65
g51
NtRp2341
(dp2342
g54
(dp2343
sg63
g59
sg56
(lp2344
g49
(g70
g51
NtRp2345
(dp2346
g54
(dp2347
g74
g75
ssg63
g2341
sg56
(lp2348
S'vars'
p2349
asbag49
(g70
g51
NtRp2350
(dp2351
g54
(dp2352
g81
g82
ssg63
g2341
sg56
(lp2353
S':'
asbag49
(g70
g51
NtRp2354
(dp2355
g54
(dp2356
sg63
g2341
sg56
(lp2357
g49
(g50
g51
NtRp2358
(dp2359
g54
(dp2360
g62
I5
ssg63
g2354
sg56
(lp2361
g49
(g58
g51
NtRp2362
(dp2363
g54
(dp2364
g62
I4
ssg63
Nsg56
(lp2365
sbasbasbasbag49
(g65
g51
NtRp2366
(dp2367
g54
(dp2368
sg63
g59
sg56
(lp2369
g49
(g70
g51
NtRp2370
(dp2371
g54
(dp2372
g74
g75
ssg63
g2366
sg56
(lp2373
S'wsgi'
p2374
asbag49
(g70
g51
NtRp2375
(dp2376
g54
(dp2377
g81
g82
ssg63
g2366
sg56
(lp2378
S':'
asbag49
(g70
g51
NtRp2379
(dp2380
g54
(dp2381
sg63
g2366
sg56
(lp2382
g49
(g50
g51
NtRp2383
(dp2384
g54
(dp2385
g62
I5
ssg63
g2379
sg56
(lp2386
g49
(g58
g51
NtRp2387
(dp2388
g54
(dp2389
g62
I4
ssg63
Nsg56
(lp2390
g49
(g65
g51
NtRp2391
(dp2392
g54
(dp2393
sg63
g2387
sg56
(lp2394
g49
(g70
g51
NtRp2395
(dp2396
g54
(dp2397
g74
g75
ssg63
g2391
sg56
(lp2398
S'environ'
p2399
asbag49
(g70
g51
NtRp2400
(dp2401
g54
(dp2402
g81
g82
ssg63
g2391
sg56
(lp2403
S':'
asbag49
(g70
g51
NtRp2404
(dp2405
g54
(dp2406
sg63
g2391
sg56
(lp2407
g49
(g50
g51
NtRp2408
(dp2409
g54
(dp2410
g62
I4
ssg63
g2404
sg56
(lp2411
g49
(g58
g51
NtRp2412
(dp2413
g54
(dp2414
g62
I3
ssg63
Nsg56
(lp2415
g49
(g65
g51
NtRp2416
(dp2417
g54
(dp2418
sg63
g2412
sg56
(lp2419
g49
(g70
g51
NtRp2420
(dp2421
g54
(dp2422
g74
g75
ssg63
g2416
sg56
(lp2423
S'HTTP_ACCEPT'
p2424
asbag49
(g70
g51
NtRp2425
(dp2426
g54
(dp2427
g81
g82
ssg63
g2416
sg56
(lp2428
S':'
asbag49
(g70
g51
NtRp2429
(dp2430
g54
(dp2431
sg63
g2416
sg56
(lp2432
g49
(g50
g51
NtRp2433
(dp2434
g54
(dp2435
g62
I3
ssg63
g2429
sg56
(lp2436
g946
asbasbasbag49
(g65
g51
NtRp2437
(dp2438
g54
(dp2439
sg63
g2412
sg56
(lp2440
g49
(g70
g51
NtRp2441
(dp2442
g54
(dp2443
g74
g75
ssg63
g2437
sg56
(lp2444
S'HTTP_ACCEPT_CHARSET'
p2445
asbag49
(g70
g51
NtRp2446
(dp2447
g54
(dp2448
g81
g82
ssg63
g2437
sg56
(lp2449
S':'
asbag49
(g70
g51
NtRp2450
(dp2451
g54
(dp2452
sg63
g2437
sg56
(lp2453
g49
(g50
g51
NtRp2454
(dp2455
g54
(dp2456
g62
I3
ssg63
g2450
sg56
(lp2457
g968
asbasbasbag49
(g65
g51
NtRp2458
(dp2459
g54
(dp2460
sg63
g2412
sg56
(lp2461
g49
(g70
g51
NtRp2462
(dp2463
g54
(dp2464
g74
g75
ssg63
g2458
sg56
(lp2465
S'HTTP_ACCEPT_ENCODING'
p2466
asbag49
(g70
g51
NtRp2467
(dp2468
g54
(dp2469
g81
g82
ssg63
g2458
sg56
(lp2470
S':'
asbag49
(g70
g51
NtRp2471
(dp2472
g54
(dp2473
sg63
g2458
sg56
(lp2474
g49
(g50
g51
NtRp2475
(dp2476
g54
(dp2477
g62
I3
ssg63
g2471
sg56
(lp2478
g990
asbasbasbag49
(g65
g51
NtRp2479
(dp2480
g54
(dp2481
sg63
g2412
sg56
(lp2482
g49
(g70
g51
NtRp2483
(dp2484
g54
(dp2485
g74
g75
ssg63
g2479
sg56
(lp2486
S'HTTP_ACCEPT_LANGUAGE'
p2487
asbag49
(g70
g51
NtRp2488
(dp2489
g54
(dp2490
g81
g82
ssg63
g2479
sg56
(lp2491
S':'
asbag49
(g70
g51
NtRp2492
(dp2493
g54
(dp2494
sg63
g2479
sg56
(lp2495
g49
(g50
g51
NtRp2496
(dp2497
g54
(dp2498
g62
I3
ssg63
g2492
sg56
(lp2499
g1012
asbasbasbag49
(g65
g51
NtRp2500
(dp2501
g54
(dp2502
sg63
g2412
sg56
(lp2503
g49
(g70
g51
NtRp2504
(dp2505
g54
(dp2506
g74
g75
ssg63
g2500
sg56
(lp2507
S'HTTP_CONNECTION'
p2508
asbag49
(g70
g51
NtRp2509
(dp2510
g54
(dp2511
g81
g82
ssg63
g2500
sg56
(lp2512
S':'
asbag49
(g70
g51
NtRp2513
(dp2514
g54
(dp2515
sg63
g2500
sg56
(lp2516
g49
(g50
g51
NtRp2517
(dp2518
g54
(dp2519
g62
I3
ssg63
g2513
sg56
(lp2520
g1034
asbasbasbag49
(g65
g51
NtRp2521
(dp2522
g54
(dp2523
sg63
g2412
sg56
(lp2524
g49
(g70
g51
NtRp2525
(dp2526
g54
(dp2527
g74
g75
ssg63
g2521
sg56
(lp2528
S'HTTP_COOKIE'
p2529
asbag49
(g70
g51
NtRp2530
(dp2531
g54
(dp2532
g81
g82
ssg63
g2521
sg56
(lp2533
S':'
asbag49
(g70
g51
NtRp2534
(dp2535
g54
(dp2536
sg63
g2521
sg56
(lp2537
g49
(g50
g51
NtRp2538
(dp2539
g54
(dp2540
g62
I3
ssg63
g2534
sg56
(lp2541
g1056
asbasbasbag49
(g65
g51
NtRp2542
(dp2543
g54
(dp2544
sg63
g2412
sg56
(lp2545
g49
(g70
g51
NtRp2546
(dp2547
g54
(dp2548
g74
g75
ssg63
g2542
sg56
(lp2549
S'HTTP_DNT'
p2550
asbag49
(g70
g51
NtRp2551
(dp2552
g54
(dp2553
g81
g82
ssg63
g2542
sg56
(lp2554
S':'
asbag49
(g70
g51
NtRp2555
(dp2556
g54
(dp2557
sg63
g2542
sg56
(lp2558
g49
(g50
g51
NtRp2559
(dp2560
g54
(dp2561
g62
I3
ssg63
g2555
sg56
(lp2562
S'1'
asbasbasbag49
(g65
g51
NtRp2563
(dp2564
g54
(dp2565
sg63
g2412
sg56
(lp2566
g49
(g70
g51
NtRp2567
(dp2568
g54
(dp2569
g74
g75
ssg63
g2563
sg56
(lp2570
S'HTTP_HOST'
p2571
asbag49
(g70
g51
NtRp2572
(dp2573
g54
(dp2574
g81
g82
ssg63
g2563
sg56
(lp2575
S':'
asbag49
(g70
g51
NtRp2576
(dp2577
g54
(dp2578
sg63
g2563
sg56
(lp2579
g49
(g50
g51
NtRp2580
(dp2581
g54
(dp2582
g62
I3
ssg63
g2576
sg56
(lp2583
g1099
asbasbasbag49
(g65
g51
NtRp2584
(dp2585
g54
(dp2586
sg63
g2412
sg56
(lp2587
g49
(g70
g51
NtRp2588
(dp2589
g54
(dp2590
g74
g75
ssg63
g2584
sg56
(lp2591
S'HTTP_REFERER'
p2592
asbag49
(g70
g51
NtRp2593
(dp2594
g54
(dp2595
g81
g82
ssg63
g2584
sg56
(lp2596
S':'
asbag49
(g70
g51
NtRp2597
(dp2598
g54
(dp2599
sg63
g2584
sg56
(lp2600
g49
(g50
g51
NtRp2601
(dp2602
g54
(dp2603
g62
I3
ssg63
g2597
sg56
(lp2604
g1121
asbasbasbag49
(g65
g51
NtRp2605
(dp2606
g54
(dp2607
sg63
g2412
sg56
(lp2608
g49
(g70
g51
NtRp2609
(dp2610
g54
(dp2611
g74
g75
ssg63
g2605
sg56
(lp2612
S'HTTP_USER_AGENT'
p2613
asbag49
(g70
g51
NtRp2614
(dp2615
g54
(dp2616
g81
g82
ssg63
g2605
sg56
(lp2617
S':'
asbag49
(g70
g51
NtRp2618
(dp2619
g54
(dp2620
sg63
g2605
sg56
(lp2621
g49
(g50
g51
NtRp2622
(dp2623
g54
(dp2624
g62
I3
ssg63
g2618
sg56
(lp2625
g1143
asbasbasbag49
(g65
g51
NtRp2626
(dp2627
g54
(dp2628
sg63
g2412
sg56
(lp2629
g49
(g70
g51
NtRp2630
(dp2631
g54
(dp2632
g74
g75
ssg63
g2626
sg56
(lp2633
S'PATH_INFO'
p2634
asbag49
(g70
g51
NtRp2635
(dp2636
g54
(dp2637
g81
g82
ssg63
g2626
sg56
(lp2638
S':'
asbag49
(g70
g51
NtRp2639
(dp2640
g54
(dp2641
sg63
g2626
sg56
(lp2642
g49
(g50
g51
NtRp2643
(dp2644
g54
(dp2645
g62
I3
ssg63
g2639
sg56
(lp2646
g1207
asbasbasbag49
(g65
g51
NtRp2647
(dp2648
g54
(dp2649
sg63
g2412
sg56
(lp2650
g49
(g70
g51
NtRp2651
(dp2652
g54
(dp2653
g74
g75
ssg63
g2647
sg56
(lp2654
S'QUERY_STRING'
p2655
asbag49
(g70
g51
NtRp2656
(dp2657
g54
(dp2658
g81
g82
ssg63
g2647
sg56
(lp2659
S':'
asbag49
(g70
g51
NtRp2660
(dp2661
g54
(dp2662
sg63
g2647
sg56
(lp2663
g49
(g50
g51
NtRp2664
(dp2665
g54
(dp2666
g62
I3
ssg63
g2660
sg56
(lp2667
S''
asbasbasbag49
(g65
g51
NtRp2668
(dp2669
g54
(dp2670
sg63
g2412
sg56
(lp2671
g49
(g70
g51
NtRp2672
(dp2673
g54
(dp2674
g74
g75
ssg63
g2668
sg56
(lp2675
S'REMOTE_ADDR'
p2676
asbag49
(g70
g51
NtRp2677
(dp2678
g54
(dp2679
g81
g82
ssg63
g2668
sg56
(lp2680
S':'
asbag49
(g70
g51
NtRp2681
(dp2682
g54
(dp2683
sg63
g2668
sg56
(lp2684
g49
(g50
g51
NtRp2685
(dp2686
g54
(dp2687
g62
I3
ssg63
g2681
sg56
(lp2688
g194
asbasbasbag49
(g65
g51
NtRp2689
(dp2690
g54
(dp2691
sg63
g2412
sg56
(lp2692
g49
(g70
g51
NtRp2693
(dp2694
g54
(dp2695
g74
g75
ssg63
g2689
sg56
(lp2696
S'REMOTE_PORT'
p2697
asbag49
(g70
g51
NtRp2698
(dp2699
g54
(dp2700
g81
g82
ssg63
g2689
sg56
(lp2701
S':'
asbag49
(g70
g51
NtRp2702
(dp2703
g54
(dp2704
sg63
g2689
sg56
(lp2705
g49
(g50
g51
NtRp2706
(dp2707
g54
(dp2708
g62
I3
ssg63
g2702
sg56
(lp2709
g1271
asbasbasbag49
(g65
g51
NtRp2710
(dp2711
g54
(dp2712
sg63
g2412
sg56
(lp2713
g49
(g70
g51
NtRp2714
(dp2715
g54
(dp2716
g74
g75
ssg63
g2710
sg56
(lp2717
S'REQUEST_METHOD'
p2718
asbag49
(g70
g51
NtRp2719
(dp2720
g54
(dp2721
g81
g82
ssg63
g2710
sg56
(lp2722
S':'
asbag49
(g70
g51
NtRp2723
(dp2724
g54
(dp2725
sg63
g2710
sg56
(lp2726
g49
(g50
g51
NtRp2727
(dp2728
g54
(dp2729
g62
I3
ssg63
g2723
sg56
(lp2730
g1293
asbasbasbag49
(g65
g51
NtRp2731
(dp2732
g54
(dp2733
sg63
g2412
sg56
(lp2734
g49
(g70
g51
NtRp2735
(dp2736
g54
(dp2737
g74
g75
ssg63
g2731
sg56
(lp2738
S'SCRIPT_NAME'
p2739
asbag49
(g70
g51
NtRp2740
(dp2741
g54
(dp2742
g81
g82
ssg63
g2731
sg56
(lp2743
S':'
asbag49
(g70
g51
NtRp2744
(dp2745
g54
(dp2746
sg63
g2731
sg56
(lp2747
g49
(g50
g51
NtRp2748
(dp2749
g54
(dp2750
g62
I3
ssg63
g2744
sg56
(lp2751
S''
asbasbasbag49
(g65
g51
NtRp2752
(dp2753
g54
(dp2754
sg63
g2412
sg56
(lp2755
g49
(g70
g51
NtRp2756
(dp2757
g54
(dp2758
g74
g75
ssg63
g2752
sg56
(lp2759
S'SERVER_NAME'
p2760
asbag49
(g70
g51
NtRp2761
(dp2762
g54
(dp2763
g81
g82
ssg63
g2752
sg56
(lp2764
S':'
asbag49
(g70
g51
NtRp2765
(dp2766
g54
(dp2767
sg63
g2752
sg56
(lp2768
g49
(g50
g51
NtRp2769
(dp2770
g54
(dp2771
g62
I3
ssg63
g2765
sg56
(lp2772
g1336
asbasbasbag49
(g65
g51
NtRp2773
(dp2774
g54
(dp2775
sg63
g2412
sg56
(lp2776
g49
(g70
g51
NtRp2777
(dp2778
g54
(dp2779
g74
g75
ssg63
g2773
sg56
(lp2780
S'SERVER_PORT'
p2781
asbag49
(g70
g51
NtRp2782
(dp2783
g54
(dp2784
g81
g82
ssg63
g2773
sg56
(lp2785
S':'
asbag49
(g70
g51
NtRp2786
(dp2787
g54
(dp2788
sg63
g2773
sg56
(lp2789
g49
(g50
g51
NtRp2790
(dp2791
g54
(dp2792
g62
I3
ssg63
g2786
sg56
(lp2793
g1358
asbasbasbag49
(g65
g51
NtRp2794
(dp2795
g54
(dp2796
sg63
g2412
sg56
(lp2797
g49
(g70
g51
NtRp2798
(dp2799
g54
(dp2800
g74
g75
ssg63
g2794
sg56
(lp2801
S'SERVER_PROTOCOL'
p2802
asbag49
(g70
g51
NtRp2803
(dp2804
g54
(dp2805
g81
g82
ssg63
g2794
sg56
(lp2806
S':'
asbag49
(g70
g51
NtRp2807
(dp2808
g54
(dp2809
sg63
g2794
sg56
(lp2810
g49
(g50
g51
NtRp2811
(dp2812
g54
(dp2813
g62
I3
ssg63
g2807
sg56
(lp2814
g1380
asbasbasbag49
(g65
g51
NtRp2815
(dp2816
g54
(dp2817
sg63
g2412
sg56
(lp2818
g49
(g70
g51
NtRp2819
(dp2820
g54
(dp2821
g74
g75
ssg63
g2815
sg56
(lp2822
S'SERVER_SOFTWARE'
p2823
asbag49
(g70
g51
NtRp2824
(dp2825
g54
(dp2826
g81
g82
ssg63
g2815
sg56
(lp2827
S':'
asbag49
(g70
g51
NtRp2828
(dp2829
g54
(dp2830
sg63
g2815
sg56
(lp2831
g49
(g50
g51
NtRp2832
(dp2833
g54
(dp2834
g62
I3
ssg63
g2828
sg56
(lp2835
g1402
asbasbasbag49
(g65
g51
NtRp2836
(dp2837
g54
(dp2838
sg63
g2412
sg56
(lp2839
g49
(g70
g51
NtRp2840
(dp2841
g54
(dp2842
g74
g75
ssg63
g2836
sg56
(lp2843
S'wsgi.errors'
p2844
asbag49
(g70
g51
NtRp2845
(dp2846
g54
(dp2847
g81
g82
ssg63
g2836
sg56
(lp2848
S':'
asbag49
(g70
g51
NtRp2849
(dp2850
g54
(dp2851
sg63
g2836
sg56
(lp2852
g49
(g50
g51
NtRp2853
(dp2854
g54
(dp2855
g62
I3
ssg63
g2849
sg56
(lp2856
S'<__main__.Stderr object at 0x006F6670>'
p2857
asbasbasbag49
(g65
g51
NtRp2858
(dp2859
g54
(dp2860
sg63
g2412
sg56
(lp2861
g49
(g70
g51
NtRp2862
(dp2863
g54
(dp2864
g74
g75
ssg63
g2858
sg56
(lp2865
S'wsgi.file_wrapper'
p2866
asbag49
(g70
g51
NtRp2867
(dp2868
g54
(dp2869
g81
g82
ssg63
g2858
sg56
(lp2870
S':'
asbag49
(g70
g51
NtRp2871
(dp2872
g54
(dp2873
sg63
g2858
sg56
(lp2874
g49
(g50
g51
NtRp2875
(dp2876
g54
(dp2877
g62
I3
ssg63
g2871
sg56
(lp2878
S'<class wsgiref.util.FileWrapper at 0x02E8DE10>'
p2879
asbasbasbag49
(g65
g51
NtRp2880
(dp2881
g54
(dp2882
sg63
g2412
sg56
(lp2883
g49
(g70
g51
NtRp2884
(dp2885
g54
(dp2886
g74
g75
ssg63
g2880
sg56
(lp2887
S'wsgi.input'
p2888
asbag49
(g70
g51
NtRp2889
(dp2890
g54
(dp2891
g81
g82
ssg63
g2880
sg56
(lp2892
S':'
asbag49
(g70
g51
NtRp2893
(dp2894
g54
(dp2895
sg63
g2880
sg56
(lp2896
g49
(g50
g51
NtRp2897
(dp2898
g54
(dp2899
g62
I3
ssg63
g2893
sg56
(lp2900
S'<cStringIO.StringO object at 0x069C3DE0>'
p2901
asbasbasbag49
(g65
g51
NtRp2902
(dp2903
g54
(dp2904
sg63
g2412
sg56
(lp2905
g49
(g70
g51
NtRp2906
(dp2907
g54
(dp2908
g74
g75
ssg63
g2902
sg56
(lp2909
S'wsgi.multiprocess'
p2910
asbag49
(g70
g51
NtRp2911
(dp2912
g54
(dp2913
g81
g82
ssg63
g2902
sg56
(lp2914
S':'
asbag49
(g70
g51
NtRp2915
(dp2916
g54
(dp2917
sg63
g2902
sg56
(lp2918
g49
(g50
g51
NtRp2919
(dp2920
g54
(dp2921
g62
I3
ssg63
g2915
sg56
(lp2922
g92
asbasbasbag49
(g65
g51
NtRp2923
(dp2924
g54
(dp2925
sg63
g2412
sg56
(lp2926
g49
(g70
g51
NtRp2927
(dp2928
g54
(dp2929
g74
g75
ssg63
g2923
sg56
(lp2930
S'wsgi.multithread'
p2931
asbag49
(g70
g51
NtRp2932
(dp2933
g54
(dp2934
g81
g82
ssg63
g2923
sg56
(lp2935
S':'
asbag49
(g70
g51
NtRp2936
(dp2937
g54
(dp2938
sg63
g2923
sg56
(lp2939
g49
(g50
g51
NtRp2940
(dp2941
g54
(dp2942
g62
I3
ssg63
g2936
sg56
(lp2943
g1642
asbasbasbag49
(g65
g51
NtRp2944
(dp2945
g54
(dp2946
sg63
g2412
sg56
(lp2947
g49
(g70
g51
NtRp2948
(dp2949
g54
(dp2950
g74
g75
ssg63
g2944
sg56
(lp2951
S'wsgi.run_once'
p2952
asbag49
(g70
g51
NtRp2953
(dp2954
g54
(dp2955
g81
g82
ssg63
g2944
sg56
(lp2956
S':'
asbag49
(g70
g51
NtRp2957
(dp2958
g54
(dp2959
sg63
g2944
sg56
(lp2960
g49
(g50
g51
NtRp2961
(dp2962
g54
(dp2963
g62
I3
ssg63
g2957
sg56
(lp2964
g92
asbasbasbag49
(g65
g51
NtRp2965
(dp2966
g54
(dp2967
sg63
g2412
sg56
(lp2968
g49
(g70
g51
NtRp2969
(dp2970
g54
(dp2971
g74
g75
ssg63
g2965
sg56
(lp2972
S'wsgi.url_scheme'
p2973
asbag49
(g70
g51
NtRp2974
(dp2975
g54
(dp2976
g81
g82
ssg63
g2965
sg56
(lp2977
S':'
asbag49
(g70
g51
NtRp2978
(dp2979
g54
(dp2980
sg63
g2965
sg56
(lp2981
g49
(g50
g51
NtRp2982
(dp2983
g54
(dp2984
g62
I3
ssg63
g2978
sg56
(lp2985
g1685
asbasbasbag49
(g65
g51
NtRp2986
(dp2987
g54
(dp2988
sg63
g2412
sg56
(lp2989
g49
(g70
g51
NtRp2990
(dp2991
g54
(dp2992
g74
g75
ssg63
g2986
sg56
(lp2993
S'wsgi.version'
p2994
asbag49
(g70
g51
NtRp2995
(dp2996
g54
(dp2997
g81
g82
ssg63
g2986
sg56
(lp2998
S':'
asbag49
(g70
g51
NtRp2999
(dp3000
g54
(dp3001
sg63
g2986
sg56
(lp3002
g49
(g50
g51
NtRp3003
(dp3004
g54
(dp3005
g62
I3
ssg63
g2999
sg56
(lp3006
S'1'
asbasbasbasbasbasbasbasbasbasbasbasbasbsS'frames'
p3007
(lp3008
(dp3009
S'file'
p3010
S'C:\\web2py\\gluon\\restricted.py'
p3011
sS'dump'
p3012
(dp3013
sS'lnum'
p3014
I205
sS'lines'
p3015
(dp3016
sS'call'
p3017
S"(code='# -*- coding: utf-8 -*-\\n# this file is released ...=crud())\\n\\n\\nresponse._vars=response._caller(show)\\n', environment={'A': <class 'gluon.html.A'>, 'Auth': <class 'gluon.tools.Auth'>, 'B': <class 'gluon.html.B'>, 'BEAUTIFY': <class 'gluon.html.BEAUTIFY'>, 'BODY': <class 'gluon.html.BODY'>, 'BR': <class 'gluon.html.BR'>, 'BUTTON': <class 'gluon.html.BUTTON'>, 'CAT': <class 'gluon.html.CAT'>, 'CENTER': <class 'gluon.html.CENTER'>, 'CLEANUP': <class 'gluon.validators.CLEANUP'>, ...}, layer=r'C:\\web2py\\applications\\unioeste_code\\controllers/default.py')"
p3018
sS'func'
p3019
S'restricted'
p3020
sa(dp3021
g3010
S'C:\\web2py\\applications\\unioeste_code\\controllers\\default.py'
p3022
sg3012
(dp3023
sg3014
I82
sg3015
(dp3024
I71
S'    http://..../[app]/default/data/delete/[table]/[id]'
p3025
sI72
S'    http://..../[app]/default/data/select/[table]'
p3026
sI73
S'    http://..../[app]/default/data/search/[table]'
p3027
sI74
S'    but URLs must be signed, i.e. linked with'
p3028
sI75
S"      A('table',_href=URL('data/tables',user_signature=True))"
p3029
sI76
S'    or with the signed load operator'
p3030
sI77
S"      LOAD('default','data.load',args='tables',ajax=True,user_signature=True)"
p3031
sI78
S'    """'
p3032
sI79
S'    return dict(form=crud())'
p3033
sI80
S''
ssg3017
S'()'
p3034
sg3019
S'<module>'
p3035
sa(dp3036
g3010
S'C:\\web2py\\gluon\\globals.py'
p3037
sg3012
(dp3038
sg3014
I173
sg3015
(dp3039
sg3017
S'(f=<function show at 0x069DCB30>)'
p3040
sg3019
S'<lambda>'
p3041
sa(dp3042
g3010
S'C:\\web2py\\applications\\unioeste_code\\controllers\\default.py'
p3043
sg3012
(dp3044
sg3014
I22
sg3015
(dp3045
I17
S'    problem = db(db.problem.id==request.args(0)).select().first()'
p3046
sI18
S'    db.code.problem_id.default = problem.id'
p3047
sI19
S'    form = SQLFORM(db.code)'
p3048
sI20
S'    if form.process().accepted:'
p3049
sI21
S"        response.flash = 'your code is posted'"
p3050
sI22
S'    codes = db(db.codes.problem_id==problem.id).select()'
p3051
sI23
S'    return dict(problem=problem, codes=codes, form=form)'
p3052
sI24
S''
sI25
S'def problems():'
p3053
sI26
S'    problems = db().select(db.problem.ALL, orderby = db.problem.title)'
p3054
ssg3017
S'()'
p3055
sg3019
S'show'
p3056
sa(dp3057
g3010
S'C:\\web2py\\gluon\\dal.py'
p3058
sg3012
(dp3059
sg3014
I6343
sg3015
(dp3060
sg3017
S"(self=<DAL {'comment': <Table {'body': <gluon.dal.Fiel...object at 0x069F13B0>, '_singular': 'Problem'}>}>, key='codes')"
p3061
sg3019
S'__getattr__'
p3062
sa(dp3063
g3010
S'C:\\web2py\\gluon\\dal.py'
p3064
sg3012
(dp3065
sg3014
I6337
sg3015
(dp3066
sg3017
S"(self=<DAL {'comment': <Table {'body': <gluon.dal.Fiel...object at 0x069F13B0>, '_singular': 'Problem'}>}>, key='codes')"
p3067
sg3019
g20
sasS'pyver'
p3068
S'Python 2.5.4: C:\\web2py\\web2py_no_console.exe'
p3069
sS'session'
p3070
g49
(g50
g51
NtRp3071
(dp3072
g54
(dp3073
sg56
(lp3074
g49
(g58
g51
NtRp3075
(dp3076
g54
(dp3077
g62
I5
ssg63
Nsg56
(lp3078
g49
(g65
g51
NtRp3079
(dp3080
g54
(dp3081
sg63
g3075
sg56
(lp3082
g49
(g70
g51
NtRp3083
(dp3084
g54
(dp3085
g74
g75
ssg63
g3079
sg56
(lp3086
S'auth'
p3087
asbag49
(g70
g51
NtRp3088
(dp3089
g54
(dp3090
g81
g82
ssg63
g3079
sg56
(lp3091
S':'
asbag49
(g70
g51
NtRp3092
(dp3093
g54
(dp3094
sg63
g3079
sg56
(lp3095
g49
(g50
g51
NtRp3096
(dp3097
g54
(dp3098
g62
I5
ssg63
g3092
sg56
(lp3099
g49
(g58
g51
NtRp3100
(dp3101
g54
(dp3102
g62
I4
ssg63
Nsg56
(lp3103
g49
(g65
g51
NtRp3104
(dp3105
g54
(dp3106
sg63
g3100
sg56
(lp3107
g49
(g70
g51
NtRp3108
(dp3109
g54
(dp3110
g74
g75
ssg63
g3104
sg56
(lp3111
S'expiration'
p3112
asbag49
(g70
g51
NtRp3113
(dp3114
g54
(dp3115
g81
g82
ssg63
g3104
sg56
(lp3116
S':'
asbag49
(g70
g51
NtRp3117
(dp3118
g54
(dp3119
sg63
g3104
sg56
(lp3120
g49
(g50
g51
NtRp3121
(dp3122
g54
(dp3123
g62
I4
ssg63
g3117
sg56
(lp3124
S'3600'
p3125
asbasbasbag49
(g65
g51
NtRp3126
(dp3127
g54
(dp3128
sg63
g3100
sg56
(lp3129
g49
(g70
g51
NtRp3130
(dp3131
g54
(dp3132
g74
g75
ssg63
g3126
sg56
(lp3133
S'hmac_key'
p3134
asbag49
(g70
g51
NtRp3135
(dp3136
g54
(dp3137
g81
g82
ssg63
g3126
sg56
(lp3138
S':'
asbag49
(g70
g51
NtRp3139
(dp3140
g54
(dp3141
sg63
g3126
sg56
(lp3142
g49
(g50
g51
NtRp3143
(dp3144
g54
(dp3145
g62
I4
ssg63
g3139
sg56
(lp3146
S'4bb52b95-e0ea-467e-aa01-3d0fe3410574'
p3147
asbasbasbag49
(g65
g51
NtRp3148
(dp3149
g54
(dp3150
sg63
g3100
sg56
(lp3151
g49
(g70
g51
NtRp3152
(dp3153
g54
(dp3154
g74
g75
ssg63
g3148
sg56
(lp3155
S'last_visit'
p3156
asbag49
(g70
g51
NtRp3157
(dp3158
g54
(dp3159
g81
g82
ssg63
g3148
sg56
(lp3160
S':'
asbag49
(g70
g51
NtRp3161
(dp3162
g54
(dp3163
sg63
g3148
sg56
(lp3164
g49
(g50
g51
NtRp3165
(dp3166
g54
(dp3167
g62
I4
ssg63
g3161
sg56
(lp3168
S'datetime.datetime(2012, 7, 28, 15, 43, 3, 622000)'
p3169
asbasbasbag49
(g65
g51
NtRp3170
(dp3171
g54
(dp3172
sg63
g3100
sg56
(lp3173
g49
(g70
g51
NtRp3174
(dp3175
g54
(dp3176
g74
g75
ssg63
g3170
sg56
(lp3177
S'user'
p3178
asbag49
(g70
g51
NtRp3179
(dp3180
g54
(dp3181
g81
g82
ssg63
g3170
sg56
(lp3182
S':'
asbag49
(g70
g51
NtRp3183
(dp3184
g54
(dp3185
sg63
g3170
sg56
(lp3186
g49
(g50
g51
NtRp3187
(dp3188
g54
(dp3189
g62
I4
ssg63
g3183
sg56
(lp3190
g49
(g58
g51
NtRp3191
(dp3192
g54
(dp3193
g62
I3
ssg63
Nsg56
(lp3194
g49
(g65
g51
NtRp3195
(dp3196
g54
(dp3197
sg63
g3191
sg56
(lp3198
g49
(g70
g51
NtRp3199
(dp3200
g54
(dp3201
g74
g75
ssg63
g3195
sg56
(lp3202
S'email'
p3203
asbag49
(g70
g51
NtRp3204
(dp3205
g54
(dp3206
g81
g82
ssg63
g3195
sg56
(lp3207
S':'
asbag49
(g70
g51
NtRp3208
(dp3209
g54
(dp3210
sg63
g3195
sg56
(lp3211
g49
(g50
g51
NtRp3212
(dp3213
g54
(dp3214
g62
I3
ssg63
g3208
sg56
(lp3215
S'scmirror1@gmail.com'
p3216
asbasbasbag49
(g65
g51
NtRp3217
(dp3218
g54
(dp3219
sg63
g3191
sg56
(lp3220
g49
(g70
g51
NtRp3221
(dp3222
g54
(dp3223
g74
g75
ssg63
g3217
sg56
(lp3224
S'first_name'
p3225
asbag49
(g70
g51
NtRp3226
(dp3227
g54
(dp3228
g81
g82
ssg63
g3217
sg56
(lp3229
S':'
asbag49
(g70
g51
NtRp3230
(dp3231
g54
(dp3232
sg63
g3217
sg56
(lp3233
g49
(g50
g51
NtRp3234
(dp3235
g54
(dp3236
g62
I3
ssg63
g3230
sg56
(lp3237
S'Pedro'
p3238
asbasbasbag49
(g65
g51
NtRp3239
(dp3240
g54
(dp3241
sg63
g3191
sg56
(lp3242
g49
(g70
g51
NtRp3243
(dp3244
g54
(dp3245
g74
g75
ssg63
g3239
sg56
(lp3246
S'id'
p3247
asbag49
(g70
g51
NtRp3248
(dp3249
g54
(dp3250
g81
g82
ssg63
g3239
sg56
(lp3251
S':'
asbag49
(g70
g51
NtRp3252
(dp3253
g54
(dp3254
sg63
g3239
sg56
(lp3255
g49
(g50
g51
NtRp3256
(dp3257
g54
(dp3258
g62
I3
ssg63
g3252
sg56
(lp3259
S'1'
asbasbasbag49
(g65
g51
NtRp3260
(dp3261
g54
(dp3262
sg63
g3191
sg56
(lp3263
g49
(g70
g51
NtRp3264
(dp3265
g54
(dp3266
g74
g75
ssg63
g3260
sg56
(lp3267
S'last_name'
p3268
asbag49
(g70
g51
NtRp3269
(dp3270
g54
(dp3271
g81
g82
ssg63
g3260
sg56
(lp3272
S':'
asbag49
(g70
g51
NtRp3273
(dp3274
g54
(dp3275
sg63
g3260
sg56
(lp3276
g49
(g50
g51
NtRp3277
(dp3278
g54
(dp3279
g62
I3
ssg63
g3273
sg56
(lp3280
S'Lacerda'
p3281
asbasbasbag49
(g65
g51
NtRp3282
(dp3283
g54
(dp3284
sg63
g3191
sg56
(lp3285
g49
(g70
g51
NtRp3286
(dp3287
g54
(dp3288
g74
g75
ssg63
g3282
sg56
(lp3289
S'password'
p3290
asbag49
(g70
g51
NtRp3291
(dp3292
g54
(dp3293
g81
g82
ssg63
g3282
sg56
(lp3294
S':'
asbag49
(g70
g51
NtRp3295
(dp3296
g54
(dp3297
sg63
g3282
sg56
(lp3298
g49
(g50
g51
NtRp3299
(dp3300
g54
(dp3301
g62
I3
ssg63
g3295
sg56
(lp3302
S'4297f44b13955235245b2497399d7a93'
p3303
asbasbasbag49
(g65
g51
NtRp3304
(dp3305
g54
(dp3306
sg63
g3191
sg56
(lp3307
g49
(g70
g51
NtRp3308
(dp3309
g54
(dp3310
g74
g75
ssg63
g3304
sg56
(lp3311
S'registration_id'
p3312
asbag49
(g70
g51
NtRp3313
(dp3314
g54
(dp3315
g81
g82
ssg63
g3304
sg56
(lp3316
S':'
asbag49
(g70
g51
NtRp3317
(dp3318
g54
(dp3319
sg63
g3304
sg56
(lp3320
g49
(g50
g51
NtRp3321
(dp3322
g54
(dp3323
g62
I3
ssg63
g3317
sg56
(lp3324
S''
asbasbasbag49
(g65
g51
NtRp3325
(dp3326
g54
(dp3327
sg63
g3191
sg56
(lp3328
g49
(g70
g51
NtRp3329
(dp3330
g54
(dp3331
g74
g75
ssg63
g3325
sg56
(lp3332
S'registration_key'
p3333
asbag49
(g70
g51
NtRp3334
(dp3335
g54
(dp3336
g81
g82
ssg63
g3325
sg56
(lp3337
S':'
asbag49
(g70
g51
NtRp3338
(dp3339
g54
(dp3340
sg63
g3325
sg56
(lp3341
g49
(g50
g51
NtRp3342
(dp3343
g54
(dp3344
g62
I3
ssg63
g3338
sg56
(lp3345
S''
asbasbasbag49
(g65
g51
NtRp3346
(dp3347
g54
(dp3348
sg63
g3191
sg56
(lp3349
g49
(g70
g51
NtRp3350
(dp3351
g54
(dp3352
g74
g75
ssg63
g3346
sg56
(lp3353
S'reset_password_key'
p3354
asbag49
(g70
g51
NtRp3355
(dp3356
g54
(dp3357
g81
g82
ssg63
g3346
sg56
(lp3358
S':'
asbag49
(g70
g51
NtRp3359
(dp3360
g54
(dp3361
sg63
g3346
sg56
(lp3362
g49
(g50
g51
NtRp3363
(dp3364
g54
(dp3365
g62
I3
ssg63
g3359
sg56
(lp3366
S''
asbasbasbasbasbasbasbag49
(g65
g51
NtRp3367
(dp3368
g54
(dp3369
sg63
g3100
sg56
(lp3370
g49
(g70
g51
NtRp3371
(dp3372
g54
(dp3373
g74
g75
ssg63
g3367
sg56
(lp3374
S'user_groups'
p3375
asbag49
(g70
g51
NtRp3376
(dp3377
g54
(dp3378
g81
g82
ssg63
g3367
sg56
(lp3379
S':'
asbag49
(g70
g51
NtRp3380
(dp3381
g54
(dp3382
sg63
g3367
sg56
(lp3383
g49
(g50
g51
NtRp3384
(dp3385
g54
(dp3386
g62
I4
ssg63
g3380
sg56
(lp3387
g49
(g58
g51
NtRp3388
(dp3389
g54
(dp3390
g62
I3
ssg63
Nsg56
(lp3391
g49
(g65
g51
NtRp3392
(dp3393
g54
(dp3394
sg63
g3388
sg56
(lp3395
g49
(g70
g51
NtRp3396
(dp3397
g54
(dp3398
g74
g75
ssg63
g3392
sg56
(lp3399
S'1'
asbag49
(g70
g51
NtRp3400
(dp3401
g54
(dp3402
g81
g82
ssg63
g3392
sg56
(lp3403
S':'
asbag49
(g70
g51
NtRp3404
(dp3405
g54
(dp3406
sg63
g3392
sg56
(lp3407
g49
(g50
g51
NtRp3408
(dp3409
g54
(dp3410
g62
I3
ssg63
g3404
sg56
(lp3411
S'user_1'
p3412
asbasbasbasbasbasbasbasbasbasbasbag49
(g65
g51
NtRp3413
(dp3414
g54
(dp3415
sg63
g3075
sg56
(lp3416
g49
(g70
g51
NtRp3417
(dp3418
g54
(dp3419
g74
g75
ssg63
g3413
sg56
(lp3420
S'last_query'
p3421
asbag49
(g70
g51
NtRp3422
(dp3423
g54
(dp3424
g81
g82
ssg63
g3413
sg56
(lp3425
S':'
asbag49
(g70
g51
NtRp3426
(dp3427
g54
(dp3428
sg63
g3413
sg56
(lp3429
g49
(g50
g51
NtRp3430
(dp3431
g54
(dp3432
g62
I5
ssg63
g3426
sg56
(lp3433
S'db.auth_cas.id>0'
p3434
asbasbasbasbasbsS'etype'
p3435
S"<type 'exceptions.KeyError'>"
p3436
sS'date'
p3437
S'Sat Jul 28 15:43:05 2012'
p3438
sS'response'
p3439
g49
(g50
g51
NtRp3440
(dp3441
g54
(dp3442
sg56
(lp3443
g49
(g58
g51
NtRp3444
(dp3445
g54
(dp3446
g62
I5
ssg63
Nsg56
(lp3447
g49
(g65
g51
NtRp3448
(dp3449
g54
(dp3450
sg63
g3444
sg56
(lp3451
g49
(g70
g51
NtRp3452
(dp3453
g54
(dp3454
g74
g75
ssg63
g3448
sg56
(lp3455
g159
asbag49
(g70
g51
NtRp3456
(dp3457
g54
(dp3458
g81
g82
ssg63
g3448
sg56
(lp3459
S':'
asbag49
(g70
g51
NtRp3460
(dp3461
g54
(dp3462
sg63
g3448
sg56
(lp3463
g49
(g50
g51
NtRp3464
(dp3465
g54
(dp3466
g62
I5
ssg63
g3460
sg56
(lp3467
S'<cStringIO.StringO object at 0x069A2400>'
p3468
asbasbasbag49
(g65
g51
NtRp3469
(dp3470
g54
(dp3471
sg63
g3444
sg56
(lp3472
g49
(g70
g51
NtRp3473
(dp3474
g54
(dp3475
g74
g75
ssg63
g3469
sg56
(lp3476
g225
asbag49
(g70
g51
NtRp3477
(dp3478
g54
(dp3479
g81
g82
ssg63
g3469
sg56
(lp3480
S':'
asbag49
(g70
g51
NtRp3481
(dp3482
g54
(dp3483
sg63
g3469
sg56
(lp3484
g49
(g50
g51
NtRp3485
(dp3486
g54
(dp3487
g62
I5
ssg63
g3481
sg56
(lp3488
g49
(g58
g51
NtRp3489
(dp3490
g54
(dp3491
g62
I4
ssg63
Nsg56
(lp3492
g49
(g65
g51
NtRp3493
(dp3494
g54
(dp3495
sg63
g3489
sg56
(lp3496
g49
(g70
g51
NtRp3497
(dp3498
g54
(dp3499
g74
g75
ssg63
g3493
sg56
(lp3500
S'session_id_unioeste_code'
p3501
asbag49
(g70
g51
NtRp3502
(dp3503
g54
(dp3504
g81
g82
ssg63
g3493
sg56
(lp3505
S':'
asbag49
(g70
g51
NtRp3506
(dp3507
g54
(dp3508
sg63
g3493
sg56
(lp3509
g49
(g50
g51
NtRp3510
(dp3511
g54
(dp3512
g62
I4
ssg63
g3506
sg56
(lp3513
g49
(g58
g51
NtRp3514
(dp3515
g54
(dp3516
g62
I3
ssg63
Nsg56
(lp3517
g49
(g65
g51
NtRp3518
(dp3519
g54
(dp3520
sg63
g3514
sg56
(lp3521
g49
(g70
g51
NtRp3522
(dp3523
g54
(dp3524
g74
g75
ssg63
g3518
sg56
(lp3525
g275
asbag49
(g70
g51
NtRp3526
(dp3527
g54
(dp3528
g81
g82
ssg63
g3518
sg56
(lp3529
S':'
asbag49
(g70
g51
NtRp3530
(dp3531
g54
(dp3532
sg63
g3518
sg56
(lp3533
g49
(g50
g51
NtRp3534
(dp3535
g54
(dp3536
g62
I3
ssg63
g3530
sg56
(lp3537
S''
asbasbasbag49
(g65
g51
NtRp3538
(dp3539
g54
(dp3540
sg63
g3514
sg56
(lp3541
g49
(g70
g51
NtRp3542
(dp3543
g54
(dp3544
g74
g75
ssg63
g3538
sg56
(lp3545
g296
asbag49
(g70
g51
NtRp3546
(dp3547
g54
(dp3548
g81
g82
ssg63
g3538
sg56
(lp3549
S':'
asbag49
(g70
g51
NtRp3550
(dp3551
g54
(dp3552
sg63
g3538
sg56
(lp3553
g49
(g50
g51
NtRp3554
(dp3555
g54
(dp3556
g62
I3
ssg63
g3550
sg56
(lp3557
S''
asbasbasbag49
(g65
g51
NtRp3558
(dp3559
g54
(dp3560
sg63
g3514
sg56
(lp3561
g49
(g70
g51
NtRp3562
(dp3563
g54
(dp3564
g74
g75
ssg63
g3558
sg56
(lp3565
g317
asbag49
(g70
g51
NtRp3566
(dp3567
g54
(dp3568
g81
g82
ssg63
g3558
sg56
(lp3569
S':'
asbag49
(g70
g51
NtRp3570
(dp3571
g54
(dp3572
sg63
g3558
sg56
(lp3573
g49
(g50
g51
NtRp3574
(dp3575
g54
(dp3576
g62
I3
ssg63
g3570
sg56
(lp3577
S''
asbasbasbag49
(g65
g51
NtRp3578
(dp3579
g54
(dp3580
sg63
g3514
sg56
(lp3581
g49
(g70
g51
NtRp3582
(dp3583
g54
(dp3584
g74
g75
ssg63
g3578
sg56
(lp3585
g338
asbag49
(g70
g51
NtRp3586
(dp3587
g54
(dp3588
g81
g82
ssg63
g3578
sg56
(lp3589
S':'
asbag49
(g70
g51
NtRp3590
(dp3591
g54
(dp3592
sg63
g3578
sg56
(lp3593
g49
(g50
g51
NtRp3594
(dp3595
g54
(dp3596
g62
I3
ssg63
g3590
sg56
(lp3597
S''
asbasbasbag49
(g65
g51
NtRp3598
(dp3599
g54
(dp3600
sg63
g3514
sg56
(lp3601
g49
(g70
g51
NtRp3602
(dp3603
g54
(dp3604
g74
g75
ssg63
g3598
sg56
(lp3605
g359
asbag49
(g70
g51
NtRp3606
(dp3607
g54
(dp3608
g81
g82
ssg63
g3598
sg56
(lp3609
S':'
asbag49
(g70
g51
NtRp3610
(dp3611
g54
(dp3612
sg63
g3598
sg56
(lp3613
g49
(g50
g51
NtRp3614
(dp3615
g54
(dp3616
g62
I3
ssg63
g3610
sg56
(lp3617
S'/'
asbasbasbag49
(g65
g51
NtRp3618
(dp3619
g54
(dp3620
sg63
g3514
sg56
(lp3621
g49
(g70
g51
NtRp3622
(dp3623
g54
(dp3624
g74
g75
ssg63
g3618
sg56
(lp3625
g380
asbag49
(g70
g51
NtRp3626
(dp3627
g54
(dp3628
g81
g82
ssg63
g3618
sg56
(lp3629
S':'
asbag49
(g70
g51
NtRp3630
(dp3631
g54
(dp3632
sg63
g3618
sg56
(lp3633
g49
(g50
g51
NtRp3634
(dp3635
g54
(dp3636
g62
I3
ssg63
g3630
sg56
(lp3637
S''
asbasbasbag49
(g65
g51
NtRp3638
(dp3639
g54
(dp3640
sg63
g3514
sg56
(lp3641
g49
(g70
g51
NtRp3642
(dp3643
g54
(dp3644
g74
g75
ssg63
g3638
sg56
(lp3645
g401
asbag49
(g70
g51
NtRp3646
(dp3647
g54
(dp3648
g81
g82
ssg63
g3638
sg56
(lp3649
S':'
asbag49
(g70
g51
NtRp3650
(dp3651
g54
(dp3652
sg63
g3638
sg56
(lp3653
g49
(g50
g51
NtRp3654
(dp3655
g54
(dp3656
g62
I3
ssg63
g3650
sg56
(lp3657
S''
asbasbasbasbasbasbasbasbasbasbasbag49
(g65
g51
NtRp3658
(dp3659
g54
(dp3660
sg63
g3444
sg56
(lp3661
g49
(g70
g51
NtRp3662
(dp3663
g54
(dp3664
g74
g75
ssg63
g3658
sg56
(lp3665
S'delimiters'
p3666
asbag49
(g70
g51
NtRp3667
(dp3668
g54
(dp3669
g81
g82
ssg63
g3658
sg56
(lp3670
S':'
asbag49
(g70
g51
NtRp3671
(dp3672
g54
(dp3673
sg63
g3658
sg56
(lp3674
g49
(g50
g51
NtRp3675
(dp3676
g54
(dp3677
g62
I5
ssg63
g3671
sg56
(lp3678
g49
(g58
g51
NtRp3679
(dp3680
g54
(dp3681
g62
I4
ssg63
Nsg56
(lp3682
g49
(g65
g51
NtRp3683
(dp3684
g54
(dp3685
sg63
g3679
sg56
(lp3686
g49
(g70
g51
NtRp3687
(dp3688
g54
(dp3689
sg63
g3683
sg56
(lp3690
g49
(g50
g51
NtRp3691
(dp3692
g54
(dp3693
g62
I4
ssg63
g3687
sg56
(lp3694
S'{{'
p3695
asbasbasbag49
(g65
g51
NtRp3696
(dp3697
g54
(dp3698
sg63
g3679
sg56
(lp3699
g49
(g70
g51
NtRp3700
(dp3701
g54
(dp3702
sg63
g3696
sg56
(lp3703
g49
(g50
g51
NtRp3704
(dp3705
g54
(dp3706
g62
I4
ssg63
g3700
sg56
(lp3707
S'}}'
p3708
asbasbasbasbasbasbasbag49
(g65
g51
NtRp3709
(dp3710
g54
(dp3711
sg63
g3444
sg56
(lp3712
g49
(g70
g51
NtRp3713
(dp3714
g54
(dp3715
g74
g75
ssg63
g3709
sg56
(lp3716
S'files'
p3717
asbag49
(g70
g51
NtRp3718
(dp3719
g54
(dp3720
g81
g82
ssg63
g3709
sg56
(lp3721
S':'
asbag49
(g70
g51
NtRp3722
(dp3723
g54
(dp3724
sg63
g3709
sg56
(lp3725
g49
(g50
g51
NtRp3726
(dp3727
g54
(dp3728
g62
I5
ssg63
g3722
sg56
(lp3729
g49
(g58
g51
NtRp3730
(dp3731
g54
(dp3732
g62
I4
ssg63
Nsg56
(lp3733
sbasbasbasbag49
(g65
g51
NtRp3734
(dp3735
g54
(dp3736
sg63
g3444
sg56
(lp3737
g49
(g70
g51
NtRp3738
(dp3739
g54
(dp3740
g74
g75
ssg63
g3734
sg56
(lp3741
S'flash'
p3742
asbag49
(g70
g51
NtRp3743
(dp3744
g54
(dp3745
g81
g82
ssg63
g3734
sg56
(lp3746
S':'
asbag49
(g70
g51
NtRp3747
(dp3748
g54
(dp3749
sg63
g3734
sg56
(lp3750
g49
(g50
g51
NtRp3751
(dp3752
g54
(dp3753
g62
I5
ssg63
g3747
sg56
(lp3754
S''
asbasbasbag49
(g65
g51
NtRp3755
(dp3756
g54
(dp3757
sg63
g3444
sg56
(lp3758
g49
(g70
g51
NtRp3759
(dp3760
g54
(dp3761
g74
g75
ssg63
g3755
sg56
(lp3762
S'generic_patterns'
p3763
asbag49
(g70
g51
NtRp3764
(dp3765
g54
(dp3766
g81
g82
ssg63
g3755
sg56
(lp3767
S':'
asbag49
(g70
g51
NtRp3768
(dp3769
g54
(dp3770
sg63
g3755
sg56
(lp3771
g49
(g50
g51
NtRp3772
(dp3773
g54
(dp3774
g62
I5
ssg63
g3768
sg56
(lp3775
g49
(g58
g51
NtRp3776
(dp3777
g54
(dp3778
g62
I4
ssg63
Nsg56
(lp3779
sbasbasbasbag49
(g65
g51
NtRp3780
(dp3781
g54
(dp3782
sg63
g3444
sg56
(lp3783
g49
(g70
g51
NtRp3784
(dp3785
g54
(dp3786
g74
g75
ssg63
g3780
sg56
(lp3787
S'headers'
p3788
asbag49
(g70
g51
NtRp3789
(dp3790
g54
(dp3791
g81
g82
ssg63
g3780
sg56
(lp3792
S':'
asbag49
(g70
g51
NtRp3793
(dp3794
g54
(dp3795
sg63
g3780
sg56
(lp3796
g49
(g50
g51
NtRp3797
(dp3798
g54
(dp3799
g62
I5
ssg63
g3793
sg56
(lp3800
g49
(g58
g51
NtRp3801
(dp3802
g54
(dp3803
g62
I4
ssg63
Nsg56
(lp3804
g49
(g65
g51
NtRp3805
(dp3806
g54
(dp3807
sg63
g3801
sg56
(lp3808
g49
(g70
g51
NtRp3809
(dp3810
g54
(dp3811
g74
g75
ssg63
g3805
sg56
(lp3812
S'Cache-Control'
p3813
asbag49
(g70
g51
NtRp3814
(dp3815
g54
(dp3816
g81
g82
ssg63
g3805
sg56
(lp3817
S':'
asbag49
(g70
g51
NtRp3818
(dp3819
g54
(dp3820
sg63
g3805
sg56
(lp3821
g49
(g50
g51
NtRp3822
(dp3823
g54
(dp3824
g62
I4
ssg63
g3818
sg56
(lp3825
S'no-store, no-cache, must-revalidate, post-check=0, pre-check=0'
p3826
asbasbasbag49
(g65
g51
NtRp3827
(dp3828
g54
(dp3829
sg63
g3801
sg56
(lp3830
g49
(g70
g51
NtRp3831
(dp3832
g54
(dp3833
g74
g75
ssg63
g3827
sg56
(lp3834
S'Content-Type'
p3835
asbag49
(g70
g51
NtRp3836
(dp3837
g54
(dp3838
g81
g82
ssg63
g3827
sg56
(lp3839
S':'
asbag49
(g70
g51
NtRp3840
(dp3841
g54
(dp3842
sg63
g3827
sg56
(lp3843
g49
(g50
g51
NtRp3844
(dp3845
g54
(dp3846
g62
I4
ssg63
g3840
sg56
(lp3847
S'text/html; charset=utf-8'
p3848
asbasbasbag49
(g65
g51
NtRp3849
(dp3850
g54
(dp3851
sg63
g3801
sg56
(lp3852
g49
(g70
g51
NtRp3853
(dp3854
g54
(dp3855
g74
g75
ssg63
g3849
sg56
(lp3856
S'Expires'
p3857
asbag49
(g70
g51
NtRp3858
(dp3859
g54
(dp3860
g81
g82
ssg63
g3849
sg56
(lp3861
S':'
asbag49
(g70
g51
NtRp3862
(dp3863
g54
(dp3864
sg63
g3849
sg56
(lp3865
g49
(g50
g51
NtRp3866
(dp3867
g54
(dp3868
g62
I4
ssg63
g3862
sg56
(lp3869
S'Sat, 28 Jul 2012 18:43:05 GMT'
p3870
asbasbasbag49
(g65
g51
NtRp3871
(dp3872
g54
(dp3873
sg63
g3801
sg56
(lp3874
g49
(g70
g51
NtRp3875
(dp3876
g54
(dp3877
g74
g75
ssg63
g3871
sg56
(lp3878
S'Pragma'
p3879
asbag49
(g70
g51
NtRp3880
(dp3881
g54
(dp3882
g81
g82
ssg63
g3871
sg56
(lp3883
S':'
asbag49
(g70
g51
NtRp3884
(dp3885
g54
(dp3886
sg63
g3871
sg56
(lp3887
g49
(g50
g51
NtRp3888
(dp3889
g54
(dp3890
g62
I4
ssg63
g3884
sg56
(lp3891
S'no-cache'
p3892
asbasbasbag49
(g65
g51
NtRp3893
(dp3894
g54
(dp3895
sg63
g3801
sg56
(lp3896
g49
(g70
g51
NtRp3897
(dp3898
g54
(dp3899
g74
g75
ssg63
g3893
sg56
(lp3900
S'X-Powered-By'
p3901
asbag49
(g70
g51
NtRp3902
(dp3903
g54
(dp3904
g81
g82
ssg63
g3893
sg56
(lp3905
S':'
asbag49
(g70
g51
NtRp3906
(dp3907
g54
(dp3908
sg63
g3893
sg56
(lp3909
g49
(g50
g51
NtRp3910
(dp3911
g54
(dp3912
g62
I4
ssg63
g3906
sg56
(lp3913
S'web2py'
p3914
asbasbasbasbasbasbasbag49
(g65
g51
NtRp3915
(dp3916
g54
(dp3917
sg63
g3444
sg56
(lp3918
g49
(g70
g51
NtRp3919
(dp3920
g54
(dp3921
g74
g75
ssg63
g3915
sg56
(lp3922
S'menu'
p3923
asbag49
(g70
g51
NtRp3924
(dp3925
g54
(dp3926
g81
g82
ssg63
g3915
sg56
(lp3927
S':'
asbag49
(g70
g51
NtRp3928
(dp3929
g54
(dp3930
sg63
g3915
sg56
(lp3931
g49
(g50
g51
NtRp3932
(dp3933
g54
(dp3934
g62
I5
ssg63
g3928
sg56
(lp3935
g49
(g58
g51
NtRp3936
(dp3937
g54
(dp3938
g62
I4
ssg63
Nsg56
(lp3939
g49
(g65
g51
NtRp3940
(dp3941
g54
(dp3942
sg63
g3936
sg56
(lp3943
g49
(g70
g51
NtRp3944
(dp3945
g54
(dp3946
sg63
g3940
sg56
(lp3947
g49
(g50
g51
NtRp3948
(dp3949
g54
(dp3950
g62
I4
ssg63
g3944
sg56
(lp3951
g49
(g58
g51
NtRp3952
(dp3953
g54
(dp3954
g62
I3
ssg63
Nsg56
(lp3955
g49
(g65
g51
NtRp3956
(dp3957
g54
(dp3958
sg63
g3952
sg56
(lp3959
g49
(g70
g51
NtRp3960
(dp3961
g54
(dp3962
sg63
g3956
sg56
(lp3963
g49
(g50
g51
NtRp3964
(dp3965
g54
(dp3966
g62
I3
ssg63
g3960
sg56
(lp3967
cgluon.languages
lazyT_unpickle
p3968
(S't\x04\x00\x00\x00Home'
tRp3969
asbasbasbag49
(g65
g51
NtRp3970
(dp3971
g54
(dp3972
sg63
g3952
sg56
(lp3973
g49
(g70
g51
NtRp3974
(dp3975
g54
(dp3976
sg63
g3970
sg56
(lp3977
g49
(g50
g51
NtRp3978
(dp3979
g54
(dp3980
g62
I3
ssg63
g3974
sg56
(lp3981
g92
asbasbasbag49
(g65
g51
NtRp3982
(dp3983
g54
(dp3984
sg63
g3952
sg56
(lp3985
g49
(g70
g51
NtRp3986
(dp3987
g54
(dp3988
sg63
g3982
sg56
(lp3989
g49
(g50
g51
NtRp3990
(dp3991
g54
(dp3992
g62
I3
ssg63
g3986
sg56
(lp3993
S'/unioeste_code/default/index'
p3994
asbasbasbag49
(g65
g51
NtRp3995
(dp3996
g54
(dp3997
sg63
g3952
sg56
(lp3998
g49
(g70
g51
NtRp3999
(dp4000
g54
(dp4001
sg63
g3995
sg56
(lp4002
g49
(g50
g51
NtRp4003
(dp4004
g54
(dp4005
g62
I3
ssg63
g3999
sg56
(lp4006
g49
(g58
g51
NtRp4007
(dp4008
g54
(dp4009
g62
I2
ssg63
Nsg56
(lp4010
sbasbasbasbasbasbasbasbag49
(g65
g51
NtRp4011
(dp4012
g54
(dp4013
sg63
g3936
sg56
(lp4014
g49
(g70
g51
NtRp4015
(dp4016
g54
(dp4017
sg63
g4011
sg56
(lp4018
g49
(g50
g51
NtRp4019
(dp4020
g54
(dp4021
g62
I4
ssg63
g4015
sg56
(lp4022
g49
(g58
g51
NtRp4023
(dp4024
g54
(dp4025
g62
I3
ssg63
Nsg56
(lp4026
g49
(g65
g51
NtRp4027
(dp4028
g54
(dp4029
sg63
g4023
sg56
(lp4030
g49
(g70
g51
NtRp4031
(dp4032
g54
(dp4033
sg63
g4027
sg56
(lp4034
g49
(g50
g51
NtRp4035
(dp4036
g54
(dp4037
g62
I3
ssg63
g4031
sg56
(lp4038
g49
(cgluon.html
SPAN
p4039
g51
NtRp4040
(dp4041
g54
(dp4042
g74
S'color:yellow'
p4043
ssg63
Nsg56
(lp4044
g3914
asbasbasbasbag49
(g65
g51
NtRp4045
(dp4046
g54
(dp4047
sg63
g4023
sg56
(lp4048
g49
(g70
g51
NtRp4049
(dp4050
g54
(dp4051
sg63
g4045
sg56
(lp4052
g49
(g50
g51
NtRp4053
(dp4054
g54
(dp4055
g62
I3
ssg63
g4049
sg56
(lp4056
g92
asbasbasbag49
(g65
g51
NtRp4057
(dp4058
g54
(dp4059
sg63
g4023
sg56
(lp4060
g49
(g70
g51
NtRp4061
(dp4062
g54
(dp4063
sg63
g4057
sg56
(lp4064
g49
(g50
g51
NtRp4065
(dp4066
g54
(dp4067
g62
I3
ssg63
g4061
sg56
(lp4068
S'None'
p4069
asbasbasbag49
(g65
g51
NtRp4070
(dp4071
g54
(dp4072
sg63
g4023
sg56
(lp4073
g49
(g70
g51
NtRp4074
(dp4075
g54
(dp4076
sg63
g4070
sg56
(lp4077
g49
(g50
g51
NtRp4078
(dp4079
g54
(dp4080
g62
I3
ssg63
g4074
sg56
(lp4081
g49
(g58
g51
NtRp4082
(dp4083
g54
(dp4084
g62
I2
ssg63
Nsg56
(lp4085
g49
(g65
g51
NtRp4086
(dp4087
g54
(dp4088
sg63
g4082
sg56
(lp4089
g49
(g70
g51
NtRp4090
(dp4091
g54
(dp4092
sg63
g4086
sg56
(lp4093
g49
(g50
g51
NtRp4094
(dp4095
g54
(dp4096
g62
I2
ssg63
g4090
sg56
(lp4097
g49
(g58
g51
NtRp4098
(dp4099
g54
(dp4100
g62
I1
ssg63
Nsg56
(lp4101
g49
(g65
g51
NtRp4102
(dp4103
g54
(dp4104
sg63
g4098
sg56
(lp4105
g49
(g70
g51
NtRp4106
(dp4107
g54
(dp4108
sg63
g4102
sg56
(lp4109
g49
(g50
g51
NtRp4110
(dp4111
g54
(dp4112
g62
I1
ssg63
g4106
sg56
(lp4113
g3968
(S's\x08\x00\x00\x00My Sites'
tRp4114
asbasbasbag49
(g65
g51
NtRp4115
(dp4116
g54
(dp4117
sg63
g4098
sg56
(lp4118
g49
(g70
g51
NtRp4119
(dp4120
g54
(dp4121
sg63
g4115
sg56
(lp4122
g49
(g50
g51
NtRp4123
(dp4124
g54
(dp4125
g62
I1
ssg63
g4119
sg56
(lp4126
I00
asbasbasbag49
(g65
g51
NtRp4127
(dp4128
g54
(dp4129
sg63
g4098
sg56
(lp4130
g49
(g70
g51
NtRp4131
(dp4132
g54
(dp4133
sg63
g4127
sg56
(lp4134
g49
(g50
g51
NtRp4135
(dp4136
g54
(dp4137
g62
I1
ssg63
g4131
sg56
(lp4138
S'/admin/default/site'
p4139
asbasbasbasbasbasbasbag49
(g65
g51
NtRp4140
(dp4141
g54
(dp4142
sg63
g4082
sg56
(lp4143
g49
(g70
g51
NtRp4144
(dp4145
g54
(dp4146
sg63
g4140
sg56
(lp4147
g49
(g50
g51
NtRp4148
(dp4149
g54
(dp4150
g62
I2
ssg63
g4144
sg56
(lp4151
g49
(g58
g51
NtRp4152
(dp4153
g54
(dp4154
g62
I1
ssg63
Nsg56
(lp4155
g49
(g65
g51
NtRp4156
(dp4157
g54
(dp4158
sg63
g4152
sg56
(lp4159
g49
(g70
g51
NtRp4160
(dp4161
g54
(dp4162
sg63
g4156
sg56
(lp4163
g49
(g50
g51
NtRp4164
(dp4165
g54
(dp4166
g62
I1
ssg63
g4160
sg56
(lp4167
g3968
(S's\x08\x00\x00\x00This App'
tRp4168
asbasbasbag49
(g65
g51
NtRp4169
(dp4170
g54
(dp4171
sg63
g4152
sg56
(lp4172
g49
(g70
g51
NtRp4173
(dp4174
g54
(dp4175
sg63
g4169
sg56
(lp4176
g49
(g50
g51
NtRp4177
(dp4178
g54
(dp4179
g62
I1
ssg63
g4173
sg56
(lp4180
I00
asbasbasbag49
(g65
g51
NtRp4181
(dp4182
g54
(dp4183
sg63
g4152
sg56
(lp4184
g49
(g70
g51
NtRp4185
(dp4186
g54
(dp4187
sg63
g4181
sg56
(lp4188
g49
(g50
g51
NtRp4189
(dp4190
g54
(dp4191
g62
I1
ssg63
g4185
sg56
(lp4192
S'/admin/default/design/unioeste_code'
p4193
asbasbasbag49
(g65
g51
NtRp4194
(dp4195
g54
(dp4196
sg63
g4152
sg56
(lp4197
g49
(g70
g51
NtRp4198
(dp4199
g54
(dp4200
sg63
g4194
sg56
(lp4201
g49
(g50
g51
NtRp4202
(dp4203
g54
(dp4204
g62
I1
ssg63
g4198
sg56
(lp4205
(lp4206
(g3968
(S't\x0b\x00\x00\x00Controlador'
tRp4207
I00
S'/admin/default/edit/unioeste_code/controllers/default.py'
tp4208
a(g3968
(S's\x0e\x00\x00\x00Visualiza\xc3\xa7\xc3\xa3o'
tRp4209
I00
S'/admin/default/edit/unioeste_code/views/default/show.html'
tp4210
a(g3968
(S't\x06\x00\x00\x00Layout'
tRp4211
I00
S'/admin/default/edit/unioeste_code/views/layout.html'
tp4212
a(g3968
(S't\n\x00\x00\x00Stylesheet'
tRp4213
I00
S'/admin/default/edit/unioeste_code/static/css/web2py.css'
tp4214
a(g3968
(S's\t\x00\x00\x00Modelo BD'
tRp4215
I00
S'/admin/default/edit/unioeste_code/models/db.py'
tp4216
a(g3968
(S's\x0e\x00\x00\x00Modelo de Menu'
tRp4217
I00
S'/admin/default/edit/unioeste_code/models/menu.py'
tp4218
a(g3968
(S's\x0e\x00\x00\x00Banco de dados'
tRp4219
I00
S'/unioeste_code/appadmin/index'
tp4220
a(g3968
(S't\x06\x00\x00\x00Errors'
tRp4221
I00
S'/admin/default/errors/unioeste_code'
tp4222
a(g3968
(S't\x05\x00\x00\x00About'
tRp4223
I00
S'/admin/default/about/unioeste_code'
tp4224
aasbasbasbasbasbasbasbag49
(g65
g51
NtRp4225
(dp4226
g54
(dp4227
sg63
g4082
sg56
(lp4228
g49
(g70
g51
NtRp4229
(dp4230
g54
(dp4231
sg63
g4225
sg56
(lp4232
g49
(g50
g51
NtRp4233
(dp4234
g54
(dp4235
g62
I2
ssg63
g4229
sg56
(lp4236
g49
(g58
g51
NtRp4237
(dp4238
g54
(dp4239
g62
I1
ssg63
Nsg56
(lp4240
g49
(g65
g51
NtRp4241
(dp4242
g54
(dp4243
sg63
g4237
sg56
(lp4244
g49
(g70
g51
NtRp4245
(dp4246
g54
(dp4247
sg63
g4241
sg56
(lp4248
g49
(g50
g51
NtRp4249
(dp4250
g54
(dp4251
g62
I1
ssg63
g4245
sg56
(lp4252
S'web2py.com'
p4253
asbasbasbag49
(g65
g51
NtRp4254
(dp4255
g54
(dp4256
sg63
g4237
sg56
(lp4257
g49
(g70
g51
NtRp4258
(dp4259
g54
(dp4260
sg63
g4254
sg56
(lp4261
g49
(g50
g51
NtRp4262
(dp4263
g54
(dp4264
g62
I1
ssg63
g4258
sg56
(lp4265
I00
asbasbasbag49
(g65
g51
NtRp4266
(dp4267
g54
(dp4268
sg63
g4237
sg56
(lp4269
g49
(g70
g51
NtRp4270
(dp4271
g54
(dp4272
sg63
g4266
sg56
(lp4273
g49
(g50
g51
NtRp4274
(dp4275
g54
(dp4276
g62
I1
ssg63
g4270
sg56
(lp4277
S'http://www.web2py.com'
p4278
asbasbasbag49
(g65
g51
NtRp4279
(dp4280
g54
(dp4281
sg63
g4237
sg56
(lp4282
g49
(g70
g51
NtRp4283
(dp4284
g54
(dp4285
sg63
g4279
sg56
(lp4286
g49
(g50
g51
NtRp4287
(dp4288
g54
(dp4289
g62
I1
ssg63
g4283
sg56
(lp4290
(lp4291
(g3968
(S't\x08\x00\x00\x00Download'
tRp4292
I00
S'http://www.web2py.com/examples/default/download'
p4293
tp4294
a(g3968
(S't\x07\x00\x00\x00Support'
tRp4295
I00
S'http://www.web2py.com/examples/default/support'
p4296
tp4297
a(g3968
(S't\x04\x00\x00\x00Demo'
tRp4298
I00
S'http://web2py.com/demo_admin'
p4299
tp4300
a(g3968
(S's\x0e\x00\x00\x00Quick Examples'
tRp4301
I00
S'http://web2py.com/examples/default/examples'
p4302
tp4303
a(g3968
(S't\x03\x00\x00\x00FAQ'
tRp4304
I00
S'http://web2py.com/AlterEgo'
p4305
tp4306
a(g3968
(S't\x06\x00\x00\x00Videos'
tRp4307
I00
S'http://www.web2py.com/examples/default/videos/'
p4308
tp4309
a(g3968
(S's\x11\x00\x00\x00Free Applications'
tRp4310
I00
S'http://web2py.com/appliances'
p4311
tp4312
a(g3968
(S't\x07\x00\x00\x00Plugins'
tRp4313
I00
S'http://web2py.com/plugins'
p4314
tp4315
a(g3968
(S't\x07\x00\x00\x00Layouts'
tRp4316
I00
S'http://web2py.com/layouts'
p4317
tp4318
a(g3968
(S't\x07\x00\x00\x00Recipes'
tRp4319
I00
S'http://web2pyslices.com/'
p4320
tp4321
a(g3968
(S't\x08\x00\x00\x00Semantic'
tRp4322
I00
S'http://web2py.com/semantic'
p4323
tp4324
aasbasbasbasbasbasbasbag49
(g65
g51
NtRp4325
(dp4326
g54
(dp4327
sg63
g4082
sg56
(lp4328
g49
(g70
g51
NtRp4329
(dp4330
g54
(dp4331
sg63
g4325
sg56
(lp4332
g49
(g50
g51
NtRp4333
(dp4334
g54
(dp4335
g62
I2
ssg63
g4329
sg56
(lp4336
g49
(g58
g51
NtRp4337
(dp4338
g54
(dp4339
g62
I1
ssg63
Nsg56
(lp4340
g49
(g65
g51
NtRp4341
(dp4342
g54
(dp4343
sg63
g4337
sg56
(lp4344
g49
(g70
g51
NtRp4345
(dp4346
g54
(dp4347
sg63
g4341
sg56
(lp4348
g49
(g50
g51
NtRp4349
(dp4350
g54
(dp4351
g62
I1
ssg63
g4345
sg56
(lp4352
g3968
(S't\r\x00\x00\x00Documentation'
tRp4353
asbasbasbag49
(g65
g51
NtRp4354
(dp4355
g54
(dp4356
sg63
g4337
sg56
(lp4357
g49
(g70
g51
NtRp4358
(dp4359
g54
(dp4360
sg63
g4354
sg56
(lp4361
g49
(g50
g51
NtRp4362
(dp4363
g54
(dp4364
g62
I1
ssg63
g4358
sg56
(lp4365
I00
asbasbasbag49
(g65
g51
NtRp4366
(dp4367
g54
(dp4368
sg63
g4337
sg56
(lp4369
g49
(g70
g51
NtRp4370
(dp4371
g54
(dp4372
sg63
g4366
sg56
(lp4373
g49
(g50
g51
NtRp4374
(dp4375
g54
(dp4376
g62
I1
ssg63
g4370
sg56
(lp4377
S'http://www.web2py.com/book'
p4378
asbasbasbag49
(g65
g51
NtRp4379
(dp4380
g54
(dp4381
sg63
g4337
sg56
(lp4382
g49
(g70
g51
NtRp4383
(dp4384
g54
(dp4385
sg63
g4379
sg56
(lp4386
g49
(g50
g51
NtRp4387
(dp4388
g54
(dp4389
g62
I1
ssg63
g4383
sg56
(lp4390
(lp4391
(g3968
(S't\x07\x00\x00\x00Preface'
tRp4392
I00
S'http://www.web2py.com/book/default/chapter/00'
p4393
tp4394
a(g3968
(S't\x0c\x00\x00\x00Introduction'
tRp4395
I00
S'http://www.web2py.com/book/default/chapter/01'
p4396
tp4397
a(g3968
(S't\x06\x00\x00\x00Python'
tRp4398
I00
S'http://www.web2py.com/book/default/chapter/02'
p4399
tp4400
a(g3968
(S't\x08\x00\x00\x00Overview'
tRp4401
I00
S'http://www.web2py.com/book/default/chapter/03'
p4402
tp4403
a(g3968
(S's\x08\x00\x00\x00The Core'
tRp4404
I00
S'http://www.web2py.com/book/default/chapter/04'
p4405
tp4406
a(g3968
(S's\t\x00\x00\x00The Views'
tRp4407
I00
S'http://www.web2py.com/book/default/chapter/05'
p4408
tp4409
a(g3968
(S's\x0e\x00\x00\x00Banco de dados'
tRp4410
I00
S'http://www.web2py.com/book/default/chapter/06'
p4411
tp4412
a(g3968
(S's\x14\x00\x00\x00Forms and Validators'
tRp4413
I00
S'http://www.web2py.com/book/default/chapter/07'
p4414
tp4415
a(g3968
(S's\r\x00\x00\x00Email and SMS'
tRp4416
I00
S'http://www.web2py.com/book/default/chapter/08'
p4417
tp4418
a(g3968
(S's\x0e\x00\x00\x00Access Control'
tRp4419
I00
S'http://www.web2py.com/book/default/chapter/09'
p4420
tp4421
a(g3968
(S't\x08\x00\x00\x00Services'
tRp4422
I00
S'http://www.web2py.com/book/default/chapter/10'
p4423
tp4424
a(g3968
(S's\x0c\x00\x00\x00Ajax Recipes'
tRp4425
I00
S'http://www.web2py.com/book/default/chapter/11'
p4426
tp4427
a(g3968
(S's\x16\x00\x00\x00Components and Plugins'
tRp4428
I00
S'http://www.web2py.com/book/default/chapter/12'
p4429
tp4430
a(g3968
(S's\x12\x00\x00\x00Deployment Recipes'
tRp4431
I00
S'http://www.web2py.com/book/default/chapter/13'
p4432
tp4433
a(g3968
(S's\r\x00\x00\x00Other Recipes'
tRp4434
I00
S'http://www.web2py.com/book/default/chapter/14'
p4435
tp4436
a(g3968
(S's\r\x00\x00\x00Buy this book'
tRp4437
I00
S'http://stores.lulu.com/web2py'
p4438
tp4439
aasbasbasbasbasbasbasbag49
(g65
g51
NtRp4440
(dp4441
g54
(dp4442
sg63
g4082
sg56
(lp4443
g49
(g70
g51
NtRp4444
(dp4445
g54
(dp4446
sg63
g4440
sg56
(lp4447
g49
(g50
g51
NtRp4448
(dp4449
g54
(dp4450
g62
I2
ssg63
g4444
sg56
(lp4451
g49
(g58
g51
NtRp4452
(dp4453
g54
(dp4454
g62
I1
ssg63
Nsg56
(lp4455
g49
(g65
g51
NtRp4456
(dp4457
g54
(dp4458
sg63
g4452
sg56
(lp4459
g49
(g70
g51
NtRp4460
(dp4461
g54
(dp4462
sg63
g4456
sg56
(lp4463
g49
(g50
g51
NtRp4464
(dp4465
g54
(dp4466
g62
I1
ssg63
g4460
sg56
(lp4467
g3968
(S't\t\x00\x00\x00Community'
tRp4468
asbasbasbag49
(g65
g51
NtRp4469
(dp4470
g54
(dp4471
sg63
g4452
sg56
(lp4472
g49
(g70
g51
NtRp4473
(dp4474
g54
(dp4475
sg63
g4469
sg56
(lp4476
g49
(g50
g51
NtRp4477
(dp4478
g54
(dp4479
g62
I1
ssg63
g4473
sg56
(lp4480
I00
asbasbasbag49
(g65
g51
NtRp4481
(dp4482
g54
(dp4483
sg63
g4452
sg56
(lp4484
g49
(g70
g51
NtRp4485
(dp4486
g54
(dp4487
sg63
g4481
sg56
(lp4488
g49
(g50
g51
NtRp4489
(dp4490
g54
(dp4491
g62
I1
ssg63
g4485
sg56
(lp4492
Nasbasbasbag49
(g65
g51
NtRp4493
(dp4494
g54
(dp4495
sg63
g4452
sg56
(lp4496
g49
(g70
g51
NtRp4497
(dp4498
g54
(dp4499
sg63
g4493
sg56
(lp4500
g49
(g50
g51
NtRp4501
(dp4502
g54
(dp4503
g62
I1
ssg63
g4497
sg56
(lp4504
(lp4505
(g3968
(S't\x06\x00\x00\x00Groups'
tRp4506
I00
S'http://www.web2py.com/examples/default/usergroups'
p4507
tp4508
a(g3968
(S't\x07\x00\x00\x00Twitter'
tRp4509
I00
S'http://twitter.com/web2py'
p4510
tp4511
a(g3968
(S's\t\x00\x00\x00Live Chat'
tRp4512
I00
S'http://webchat.freenode.net/?channels=web2py'
p4513
tp4514
aasbasbasbasbasbasbasbag49
(g65
g51
NtRp4515
(dp4516
g54
(dp4517
sg63
g4082
sg56
(lp4518
g49
(g70
g51
NtRp4519
(dp4520
g54
(dp4521
sg63
g4515
sg56
(lp4522
g49
(g50
g51
NtRp4523
(dp4524
g54
(dp4525
g62
I2
ssg63
g4519
sg56
(lp4526
g49
(g58
g51
NtRp4527
(dp4528
g54
(dp4529
g62
I1
ssg63
Nsg56
(lp4530
g49
(g65
g51
NtRp4531
(dp4532
g54
(dp4533
sg63
g4527
sg56
(lp4534
g49
(g70
g51
NtRp4535
(dp4536
g54
(dp4537
sg63
g4531
sg56
(lp4538
g49
(g50
g51
NtRp4539
(dp4540
g54
(dp4541
g62
I1
ssg63
g4535
sg56
(lp4542
g3968
(S't\x07\x00\x00\x00Plugins'
tRp4543
asbasbasbag49
(g65
g51
NtRp4544
(dp4545
g54
(dp4546
sg63
g4527
sg56
(lp4547
g49
(g70
g51
NtRp4548
(dp4549
g54
(dp4550
sg63
g4544
sg56
(lp4551
g49
(g50
g51
NtRp4552
(dp4553
g54
(dp4554
g62
I1
ssg63
g4548
sg56
(lp4555
I00
asbasbasbag49
(g65
g51
NtRp4556
(dp4557
g54
(dp4558
sg63
g4527
sg56
(lp4559
g49
(g70
g51
NtRp4560
(dp4561
g54
(dp4562
sg63
g4556
sg56
(lp4563
g49
(g50
g51
NtRp4564
(dp4565
g54
(dp4566
g62
I1
ssg63
g4560
sg56
(lp4567
Nasbasbasbag49
(g65
g51
NtRp4568
(dp4569
g54
(dp4570
sg63
g4527
sg56
(lp4571
g49
(g70
g51
NtRp4572
(dp4573
g54
(dp4574
sg63
g4568
sg56
(lp4575
g49
(g50
g51
NtRp4576
(dp4577
g54
(dp4578
g62
I1
ssg63
g4572
sg56
(lp4579
(lp4580
(S'plugin_wiki'
p4581
I00
S'http://web2py.com/examples/default/download'
p4582
tp4583
a(g3968
(S's\r\x00\x00\x00Other Plugins'
tRp4584
I00
g4314
tp4585
a(g3968
(S's\x0e\x00\x00\x00Layout Plugins'
tRp4586
I00
g4317
tp4587
aasbasbasbasbasbasbasbasbasbasbasbasbasbasbasbasbasbasbasbag49
(g65
g51
NtRp4588
(dp4589
g54
(dp4590
sg63
g3444
sg56
(lp4591
g49
(g70
g51
NtRp4592
(dp4593
g54
(dp4594
g74
g75
ssg63
g4588
sg56
(lp4595
S'meta'
p4596
asbag49
(g70
g51
NtRp4597
(dp4598
g54
(dp4599
g81
g82
ssg63
g4588
sg56
(lp4600
S':'
asbag49
(g70
g51
NtRp4601
(dp4602
g54
(dp4603
sg63
g4588
sg56
(lp4604
g49
(g50
g51
NtRp4605
(dp4606
g54
(dp4607
g62
I5
ssg63
g4601
sg56
(lp4608
g49
(g58
g51
NtRp4609
(dp4610
g54
(dp4611
g62
I4
ssg63
Nsg56
(lp4612
g49
(g65
g51
NtRp4613
(dp4614
g54
(dp4615
sg63
g4609
sg56
(lp4616
g49
(g70
g51
NtRp4617
(dp4618
g54
(dp4619
g74
g75
ssg63
g4613
sg56
(lp4620
S'author'
p4621
asbag49
(g70
g51
NtRp4622
(dp4623
g54
(dp4624
g81
g82
ssg63
g4613
sg56
(lp4625
S':'
asbag49
(g70
g51
NtRp4626
(dp4627
g54
(dp4628
sg63
g4613
sg56
(lp4629
g49
(g50
g51
NtRp4630
(dp4631
g54
(dp4632
g62
I4
ssg63
g4626
sg56
(lp4633
S'Your Name <you@example.com>'
p4634
asbasbasbag49
(g65
g51
NtRp4635
(dp4636
g54
(dp4637
sg63
g4609
sg56
(lp4638
g49
(g70
g51
NtRp4639
(dp4640
g54
(dp4641
g74
g75
ssg63
g4635
sg56
(lp4642
S'copyright'
p4643
asbag49
(g70
g51
NtRp4644
(dp4645
g54
(dp4646
g81
g82
ssg63
g4635
sg56
(lp4647
S':'
asbag49
(g70
g51
NtRp4648
(dp4649
g54
(dp4650
sg63
g4635
sg56
(lp4651
g49
(g50
g51
NtRp4652
(dp4653
g54
(dp4654
g62
I4
ssg63
g4648
sg56
(lp4655
S'Copyright 2011'
p4656
asbasbasbag49
(g65
g51
NtRp4657
(dp4658
g54
(dp4659
sg63
g4609
sg56
(lp4660
g49
(g70
g51
NtRp4661
(dp4662
g54
(dp4663
g74
g75
ssg63
g4657
sg56
(lp4664
S'description'
p4665
asbag49
(g70
g51
NtRp4666
(dp4667
g54
(dp4668
g81
g82
ssg63
g4657
sg56
(lp4669
S':'
asbag49
(g70
g51
NtRp4670
(dp4671
g54
(dp4672
sg63
g4657
sg56
(lp4673
g49
(g50
g51
NtRp4674
(dp4675
g54
(dp4676
g62
I4
ssg63
g4670
sg56
(lp4677
S'a cool new app'
p4678
asbasbasbag49
(g65
g51
NtRp4679
(dp4680
g54
(dp4681
sg63
g4609
sg56
(lp4682
g49
(g70
g51
NtRp4683
(dp4684
g54
(dp4685
g74
g75
ssg63
g4679
sg56
(lp4686
S'generator'
p4687
asbag49
(g70
g51
NtRp4688
(dp4689
g54
(dp4690
g81
g82
ssg63
g4679
sg56
(lp4691
S':'
asbag49
(g70
g51
NtRp4692
(dp4693
g54
(dp4694
sg63
g4679
sg56
(lp4695
g49
(g50
g51
NtRp4696
(dp4697
g54
(dp4698
g62
I4
ssg63
g4692
sg56
(lp4699
S'Web2py Web Framework'
p4700
asbasbasbag49
(g65
g51
NtRp4701
(dp4702
g54
(dp4703
sg63
g4609
sg56
(lp4704
g49
(g70
g51
NtRp4705
(dp4706
g54
(dp4707
g74
g75
ssg63
g4701
sg56
(lp4708
S'keywords'
p4709
asbag49
(g70
g51
NtRp4710
(dp4711
g54
(dp4712
g81
g82
ssg63
g4701
sg56
(lp4713
S':'
asbag49
(g70
g51
NtRp4714
(dp4715
g54
(dp4716
sg63
g4701
sg56
(lp4717
g49
(g50
g51
NtRp4718
(dp4719
g54
(dp4720
g62
I4
ssg63
g4714
sg56
(lp4721
S'web2py, python, framework'
p4722
asbasbasbasbasbasbasbag49
(g65
g51
NtRp4723
(dp4724
g54
(dp4725
sg63
g3444
sg56
(lp4726
g49
(g70
g51
NtRp4727
(dp4728
g54
(dp4729
g74
g75
ssg63
g4723
sg56
(lp4730
S'postprocessing'
p4731
asbag49
(g70
g51
NtRp4732
(dp4733
g54
(dp4734
g81
g82
ssg63
g4723
sg56
(lp4735
S':'
asbag49
(g70
g51
NtRp4736
(dp4737
g54
(dp4738
sg63
g4723
sg56
(lp4739
g49
(g50
g51
NtRp4740
(dp4741
g54
(dp4742
g62
I5
ssg63
g4736
sg56
(lp4743
g49
(g58
g51
NtRp4744
(dp4745
g54
(dp4746
g62
I4
ssg63
Nsg56
(lp4747
sbasbasbasbag49
(g65
g51
NtRp4748
(dp4749
g54
(dp4750
sg63
g3444
sg56
(lp4751
g49
(g70
g51
NtRp4752
(dp4753
g54
(dp4754
g74
g75
ssg63
g4748
sg56
(lp4755
S'session_file'
p4756
asbag49
(g70
g51
NtRp4757
(dp4758
g54
(dp4759
g81
g82
ssg63
g4748
sg56
(lp4760
S':'
asbag49
(g70
g51
NtRp4761
(dp4762
g54
(dp4763
sg63
g4748
sg56
(lp4764
g49
(g50
g51
NtRp4765
(dp4766
g54
(dp4767
g62
I5
ssg63
g4761
sg56
(lp4768
S"<open file 'C:\\web2py\\applications\\unioeste_code\\sessions\\127.0.0.1-87142505-8d38-426f-afb9-e3f36884a384', mode 'rb+' at 0x069BECC8>"
p4769
asbasbasbag49
(g65
g51
NtRp4770
(dp4771
g54
(dp4772
sg63
g3444
sg56
(lp4773
g49
(g70
g51
NtRp4774
(dp4775
g54
(dp4776
g74
g75
ssg63
g4770
sg56
(lp4777
S'session_filename'
p4778
asbag49
(g70
g51
NtRp4779
(dp4780
g54
(dp4781
g81
g82
ssg63
g4770
sg56
(lp4782
S':'
asbag49
(g70
g51
NtRp4783
(dp4784
g54
(dp4785
sg63
g4770
sg56
(lp4786
g49
(g50
g51
NtRp4787
(dp4788
g54
(dp4789
g62
I5
ssg63
g4783
sg56
(lp4790
S'C:\\web2py\\applications\\unioeste_code\\sessions\\127.0.0.1-87142505-8d38-426f-afb9-e3f36884a384'
p4791
asbasbasbag49
(g65
g51
NtRp4792
(dp4793
g54
(dp4794
sg63
g3444
sg56
(lp4795
g49
(g70
g51
NtRp4796
(dp4797
g54
(dp4798
g74
g75
ssg63
g4792
sg56
(lp4799
S'session_id'
p4800
asbag49
(g70
g51
NtRp4801
(dp4802
g54
(dp4803
g81
g82
ssg63
g4792
sg56
(lp4804
S':'
asbag49
(g70
g51
NtRp4805
(dp4806
g54
(dp4807
sg63
g4792
sg56
(lp4808
g49
(g50
g51
NtRp4809
(dp4810
g54
(dp4811
g62
I5
ssg63
g4805
sg56
(lp4812
S'127.0.0.1-87142505-8d38-426f-afb9-e3f36884a384'
p4813
asbasbasbag49
(g65
g51
NtRp4814
(dp4815
g54
(dp4816
sg63
g3444
sg56
(lp4817
g49
(g70
g51
NtRp4818
(dp4819
g54
(dp4820
g74
g75
ssg63
g4814
sg56
(lp4821
S'session_id_name'
p4822
asbag49
(g70
g51
NtRp4823
(dp4824
g54
(dp4825
g81
g82
ssg63
g4814
sg56
(lp4826
S':'
asbag49
(g70
g51
NtRp4827
(dp4828
g54
(dp4829
sg63
g4814
sg56
(lp4830
g49
(g50
g51
NtRp4831
(dp4832
g54
(dp4833
g62
I5
ssg63
g4827
sg56
(lp4834
g3501
asbasbasbag49
(g65
g51
NtRp4835
(dp4836
g54
(dp4837
sg63
g3444
sg56
(lp4838
g49
(g70
g51
NtRp4839
(dp4840
g54
(dp4841
g74
g75
ssg63
g4835
sg56
(lp4842
S'session_locked'
p4843
asbag49
(g70
g51
NtRp4844
(dp4845
g54
(dp4846
g81
g82
ssg63
g4835
sg56
(lp4847
S':'
asbag49
(g70
g51
NtRp4848
(dp4849
g54
(dp4850
sg63
g4835
sg56
(lp4851
g49
(g50
g51
NtRp4852
(dp4853
g54
(dp4854
g62
I5
ssg63
g4848
sg56
(lp4855
g1642
asbasbasbag49
(g65
g51
NtRp4856
(dp4857
g54
(dp4858
sg63
g3444
sg56
(lp4859
g49
(g70
g51
NtRp4860
(dp4861
g54
(dp4862
g74
g75
ssg63
g4856
sg56
(lp4863
S'session_new'
p4864
asbag49
(g70
g51
NtRp4865
(dp4866
g54
(dp4867
g81
g82
ssg63
g4856
sg56
(lp4868
S':'
asbag49
(g70
g51
NtRp4869
(dp4870
g54
(dp4871
sg63
g4856
sg56
(lp4872
g49
(g50
g51
NtRp4873
(dp4874
g54
(dp4875
g62
I5
ssg63
g4869
sg56
(lp4876
g92
asbasbasbag49
(g65
g51
NtRp4877
(dp4878
g54
(dp4879
sg63
g3444
sg56
(lp4880
g49
(g70
g51
NtRp4881
(dp4882
g54
(dp4883
g74
g75
ssg63
g4877
sg56
(lp4884
S'status'
p4885
asbag49
(g70
g51
NtRp4886
(dp4887
g54
(dp4888
g81
g82
ssg63
g4877
sg56
(lp4889
S':'
asbag49
(g70
g51
NtRp4890
(dp4891
g54
(dp4892
sg63
g4877
sg56
(lp4893
g49
(g50
g51
NtRp4894
(dp4895
g54
(dp4896
g62
I5
ssg63
g4890
sg56
(lp4897
S'200'
p4898
asbasbasbag49
(g65
g51
NtRp4899
(dp4900
g54
(dp4901
sg63
g3444
sg56
(lp4902
g49
(g70
g51
NtRp4903
(dp4904
g54
(dp4905
g74
g75
ssg63
g4899
sg56
(lp4906
S'subtitle'
p4907
asbag49
(g70
g51
NtRp4908
(dp4909
g54
(dp4910
g81
g82
ssg63
g4899
sg56
(lp4911
S':'
asbag49
(g70
g51
NtRp4912
(dp4913
g54
(dp4914
sg63
g4899
sg56
(lp4915
g49
(g50
g51
NtRp4916
(dp4917
g54
(dp4918
g62
I5
ssg63
g4912
sg56
(lp4919
g3968
(S's\x0f\x00\x00\x00Personalize-me!'
tRp4920
asbasbasbag49
(g65
g51
NtRp4921
(dp4922
g54
(dp4923
sg63
g3444
sg56
(lp4924
g49
(g70
g51
NtRp4925
(dp4926
g54
(dp4927
g74
g75
ssg63
g4921
sg56
(lp4928
S'title'
p4929
asbag49
(g70
g51
NtRp4930
(dp4931
g54
(dp4932
g81
g82
ssg63
g4921
sg56
(lp4933
S':'
asbag49
(g70
g51
NtRp4934
(dp4935
g54
(dp4936
sg63
g4921
sg56
(lp4937
g49
(g50
g51
NtRp4938
(dp4939
g54
(dp4940
g62
I5
ssg63
g4934
sg56
(lp4941
S'Unioeste Code'
p4942
asbasbasbag49
(g65
g51
NtRp4943
(dp4944
g54
(dp4945
sg63
g3444
sg56
(lp4946
g49
(g70
g51
NtRp4947
(dp4948
g54
(dp4949
g74
g75
ssg63
g4943
sg56
(lp4950
g2327
asbag49
(g70
g51
NtRp4951
(dp4952
g54
(dp4953
g81
g82
ssg63
g4943
sg56
(lp4954
S':'
asbag49
(g70
g51
NtRp4955
(dp4956
g54
(dp4957
sg63
g4943
sg56
(lp4958
g49
(g50
g51
NtRp4959
(dp4960
g54
(dp4961
g62
I5
ssg63
g4955
sg56
(lp4962
g2340
asbasbasbag49
(g65
g51
NtRp4963
(dp4964
g54
(dp4965
sg63
g3444
sg56
(lp4966
g49
(g70
g51
NtRp4967
(dp4968
g54
(dp4969
g74
g75
ssg63
g4963
sg56
(lp4970
S'view'
p4971
asbag49
(g70
g51
NtRp4972
(dp4973
g54
(dp4974
g81
g82
ssg63
g4963
sg56
(lp4975
S':'
asbag49
(g70
g51
NtRp4976
(dp4977
g54
(dp4978
sg63
g4963
sg56
(lp4979
g49
(g50
g51
NtRp4980
(dp4981
g54
(dp4982
g62
I5
ssg63
g4976
sg56
(lp4983
S'default/show.html'
p4984
asbasbasbasbasbsS'locals'
p4985
(dp4986
S'self'
p4987
S"<DAL {'comment': <Table {'body': <gluon.dal.Fiel...object at 0x069F13B0>, '_singular': 'Problem'}>}>"
p4988
sS'key'
p4989
S"'codes'"
p4990
sssS'traceback'
p4991
S'Traceback (most recent call last):\n  File "gluon/restricted.py", line 205, in restricted\n  File "C:\\web2py\\applications\\unioeste_code\\controllers/default.py", line 82, in <module>\n  File "gluon/globals.py", line 173, in <lambda>\n  File "C:\\web2py\\applications\\unioeste_code\\controllers/default.py", line 22, in show\n  File "gluon/dal.py", line 6343, in __getattr__\n  File "gluon/dal.py", line 6337, in __getitem__\nKeyError: \'codes\'\n'
p4992
s.