(dp1
S'output'
p2
S"<type 'exceptions.SyntaxError'> invalid syntax (default/showProblem.html, line 94)"
p3
sS'layer'
p4
S'C:\\web2py\\applications\\unioeste_code\\views\\default/showProblem.html'
p5
sS'code'
p6
S'response.write(\'<!DOCTYPE html>\\n<!-- paulirish.com/2008/conditional-stylesheets-vs-css-hacks-answer-neither/ -->\\n<!--[if lt IE 7]><html class="ie ie6 ie-lte9 ie-lte8 ie-lte7 no-js" lang="\', escape=False)\nresponse.write(T.accepted_language or \'en\')\nresponse.write(\'"> <![endif]-->\\n<!--[if IE 7]><html class="ie ie7 ie-lte9 ie-lte8 ie-lte7 no-js" lang="\', escape=False)\nresponse.write(T.accepted_language or \'en\')\nresponse.write(\'"> <![endif]-->\\n<!--[if IE 8]><html class="ie ie8 ie-lte9 ie-lte8 no-js" lang="\', escape=False)\nresponse.write(T.accepted_language or \'en\')\nresponse.write(\'"> <![endif]-->\\n<!--[if IE 9]><html class="ie9 ie-lte9 no-js" lang="\', escape=False)\nresponse.write(T.accepted_language or \'en\')\nresponse.write(\'"> <![endif]-->\\n<!--[if (gt IE 9)|!(IE)]><!--> <html class="no-js" lang="\', escape=False)\nresponse.write(T.accepted_language or \'en\')\nresponse.write(\'"> <!--<![endif]-->\\n<head>\\n  <meta charset="utf-8" />\\n  <!-- www.phpied.com/conditional-comments-block-downloads/ -->\\n  <!-- Always force latest IE rendering engine\\n\\t   (even in intranet) & Chrome Frame\\n\\t   Remove this if you use the .htaccess -->\\n  <!--[if IE]>\\n    <meta http-equiv="X-UA-Compatible" content="IE=edge\', escape=False)\nresponse.write(not request.is_local and \',chrome=1\' or \'\')\nresponse.write(\'">\\n  <![endif]-->\\n  \\n  <title>\', escape=False)\nresponse.write(response.title or request.application)\nresponse.write(\'</title>\\n  \\n  <!-- http://dev.w3.org/html5/markup/meta.name.html -->\\n  <meta name="application-name" content="\', escape=False)\nresponse.write(request.application)\nresponse.write(\'" />\\n  \\n  <!-- Speaking of Google, don\\\'t forget to set your site up:\\n\\t   http://google.com/webmasters -->\\n  <meta name="google-site-verification" content="" />\\n\\n  <!--  Mobile Viewport Fix\\n\\t  j.mp/mobileviewport & davidbcalhoun.com/2010/viewport-metatag\\n\\t  device-width: Occupy full width of the screen in its current orientation\\n\\t  initial-scale = 1.0 retains dimensions instead of zooming out if page height > device height\\n\\t  user-scalable = yes allows the user to zoom in -->\\n  <meta name="viewport" content="width=device-width, initial-scale=1.0, user-scalable=yes">\\n  \\n  <!-- Place favicon.ico and apple-touch-icon.png in the root of your domain and delete these references -->\\n  <link rel="shortcut icon" href="\', escape=False)\nresponse.write(URL(\'static\',\'favicon.ico\'))\nresponse.write(\'" type="image/x-icon">\\n  <link rel="apple-touch-icon" href="\', escape=False)\nresponse.write(URL(\'static\',\'favicon.png\'))\nresponse.write(\'">\\n\\n  <script src="../static/lib/codemirror.js"></script>\\n  <link rel="stylesheet" href="../static/lib/codemirror.css">\\n  <script src="../static/mode/clike.js"></script>\\n\\n  <!-- All JavaScript at the bottom, except for Modernizr which enables \\n\\t   HTML5 elements & feature detects -->\\n  <script src="\', escape=False)\nresponse.write(URL(\'static\',\'js/modernizr.custom.js\'))\nresponse.write(\'"></script>  \\n\\n  <!-- include stylesheets -->\\n  \', escape=False)\nresponse.files.append(URL(\'static\',\'css/skeleton.css\'))\nresponse.files.append(URL(\'static\',\'css/web2py.css\'))\nif response.menu:\n    response.files.append(URL(\'static\',\'css/superfish.css\'))\n    response.files.append(URL(\'static\',\'js/superfish.js\'))\n    pass\nresponse.write(\'\\n\\n  \', escape=False)\nresponse.write(\'<script type="text/javascript"><!--\\n    // These variables are used by the web2py_ajax_init function in web2py_ajax.js (which is loaded below).\\n    var w2p_ajax_confirm_message = "\', escape=False)\nresponse.write(T(\'Are you sure you want to delete this object?\'))\nresponse.write(\'";\\n    var w2p_ajax_date_format = "\', escape=False)\nresponse.write(T(\'%Y-%m-%d\'))\nresponse.write(\'";\\n    var w2p_ajax_datetime_format = "\', escape=False)\nresponse.write(T(\'%Y-%m-%d %H:%M:%S\'))\nresponse.write(\'";\\n    //--></script>\\n\', escape=False)\nresponse.files.insert(0,URL(\'static\',\'js/jquery.js\'))\nresponse.files.insert(1,URL(\'static\',\'css/calendar.css\'))\nresponse.files.insert(2,URL(\'static\',\'js/calendar.js\'))\nresponse.files.insert(3,URL(\'static\',\'js/web2py.js\'))\nresponse.include_meta()\nresponse.include_files()\nresponse.write(\'\\n\', escape=False)\nresponse.write(\'\\n\\n  \', escape=False)\nif response.menu:\n    response.write(\'\\n  <script type="text/javascript">\\n    jQuery(function(){ jQuery(\\\'ul.sf-menu\\\').supersubs({minWidth:12,maxWidth:30,extraWidth:3}).superfish(); });\\n  </script>\\n  \', escape=False)\n    pass\nresponse.write(\'\\n\\n  \', escape=False)\n# using sidebars need to know what sidebar you want to use\nleft_sidebar_enabled = globals().get(\'left_sidebar_enabled\',False)\nright_sidebar_enabled = globals().get(\'right_sidebar_enabled\',False)\nmiddle_columns = {0:\'sixteen\',1:\'twelve\',2:\'eight\'}[\n(left_sidebar_enabled and 1 or 0)+(right_sidebar_enabled and 1 or 0)]\nresponse.write(\'\\n\\n  <!-- uncomment here to load jquery-ui\\n  <link rel="stylesheet" href="http://ajax.googleapis.com/ajax/libs/jqueryui/1.8.16/themes/base/jquery-ui.css" type="text/css" media="all" />\\n  <script src="http://ajax.googleapis.com/ajax/libs/jqueryui/1.8.16/jquery-ui.min.js" type="text/javascript"></script>\\n  uncomment to load jquery-ui //-->\\n</head>\\n<body>\\n  <div class="wrapper"><!-- for sticky footer -->\\n  \\n    <div class="topbar">\\n      <div class="container">    \\n        <div class="sixteen columns">\\n          <div id="navbar">\', escape=False)\nresponse.write(\'auth\' in globals() and auth.navbar(separators=(\' \',\' | \',\'\')))\nresponse.write(\'</div>\\n          \', escape=False)\nis_mobile=request.user_agent().is_mobile\nresponse.write(\'\\n\\t  \', escape=False)\nif response.menu:\n    response.write(\'\\n          <div id="menu">\\n             \', escape=False)\n    response.write(MENU(response.menu, _class=\'mobile-menu\' if is_mobile else \'sf-menu\',mobile=is_mobile))\n    response.write(\'\\n          </div>\\n          \', escape=False)\n    pass\nresponse.write(\'\\n        </div>\\n      </div>\\n    </div><!-- topbar -->\\n    \\n    <div class="flash">\', escape=False)\nresponse.write(response.flash or \'\')\nresponse.write(\'</div>\\n    \\n    <div class="header">\\n      <div class="container">         \\n        <div class="sixteen columns">\\n          <h1 class="remove-bottom" style="margin-top: .5em;">\\n          \', escape=False)\nresponse.write(response.title or request.application)\nresponse.write(\'\\n          </h1>\\n          <h5>\', escape=False)\nresponse.write(response.subtitle or \'\')\nresponse.write(\'</h5>\\n        </div>\\n        <div class="sixteen columns">\\n          <div class="statusbar clearfix">\\n            \', escape=False)\nresponse.write(\'\\n            <div class="breadcrumbs">\', escape=False)\nresponse.write(request.function.replace(\'_\', \' \').title())\nresponse.write(\'</div>\\n            \', escape=False)\nresponse.write(\'\\n            <!-- AddToAny BEGIN -->\\n            <div style="float:right; padding-top: .25em;" class="a2a_kit a2a_default_style">\\n            <a class="a2a_dd" href="http://www.addtoany.com/share_save">Share</a></div>\\n            <script type="text/javascript" src="http://static.addtoany.com/menu/page.js"></script>\\n            <!-- AddToAny END -->\\n          </div>\\n        </div>\\n      </div>\\n    </div>\\n\\n    <div class="main">\\n      <div class="container">                 \\n        \', escape=False)\nif left_sidebar_enabled:\n    response.write(\'\\n        <div class="four columns left-sidebar">\\n          \', escape=False)\n    response.write(\'\\n          <h3>Left Sidebar</h3>\\n          <p></p>\\n          \', escape=False)\n    response.write(\'\\n        </div>\\n        \', escape=False)\n    pass\nresponse.write(\'\\n        \\n        <div class="\', escape=False)\nresponse.write(middle_columns)\nresponse.write(\' columns center">\\n          \', escape=False)\nresponse.write(\'\\n          \', escape=False)\nresponse.write(\'\\r\\n\\r\\n\', escape=False)\nresponse.write(H1(problem.title))\nresponse.write(\'\\r\\n\', escape=False)\nresponse.write(H2("C\xc3\xb3digos postados", _style="color:green"))\nresponse.write(\'\\r\\n<ul>\\r\\n\', escape=False)\nfor i,code in codes:\n    response.write(\'\\r\\n\', escape=False)\n    user = db(db.auth_user.id==code.created_by).select().first()\n    response.write(\'\\r\\n\', escape=False)\n    s = user.first_name + " " + user.last_name + " - (" + user.email + ") " )\n    response.write(\'\\r\\n<LI>\\r\\n\', escape=False)\n    response.write((A( + s, _href=URL("showCode", args=problem.id))))\n    response.write(\'\\r\\n\', escape=False)\n    response.write(prettydate(code.created_on))\n    response.write(\'\\r\\n</LI>\\r\\n\', escape=False)\n    pass\nresponse.write(\'\\r\\n</ul>\\r\\n\\r\\n\', escape=False)\nresponse.write(H2(T("Post your code!")))\nresponse.write(\'\\r\\n\', escape=False)\nresponse.write(form.custom.begin)\nresponse.write(\'\\r\\n<div>\\r\\n\', escape=False)\nresponse.write(form.custom.widget.body)\nresponse.write(\'\\r\\n</div>\\r\\n\', escape=False)\nresponse.write(form.custom.submit)\nresponse.write(\'\\r\\n\', escape=False)\nresponse.write(form.custom.end)\nresponse.write(\'\\r\\n\\r\\n\\r\\n\', escape=False)\nresponse.write(\'\\n          \', escape=False)\nresponse.write(\'\\n        </div>\\n        \\n        \', escape=False)\nif right_sidebar_enabled:\n    response.write(\'\\n        <div class="four columns">\\n          \', escape=False)\n    response.write(\'\\n          <h3>Right Sidebar</h3>\\n          <p></p>\\n          \', escape=False)\n    response.write(\'\\n        </div>    \\n        \', escape=False)\n    pass\nresponse.write(\'\\n        \\n      </div><!-- container -->\\n    </div><!-- main -->\\n    \\n    <div class="push"></div>\\n  </div><!-- wrapper -->\\n\\n  <div class="footer">\\n    <div class="container">    \\n      <div class="sixteen columns">\\n        \', escape=False)\nresponse.write(\' <!-- this is default footer -->\\n        <div class="footer-content clearfix">\\n          <div class="copyright">\', escape=False)\nresponse.write(T(\'Copyright\'))\nresponse.write(\' &#169; 2011</div>\\n          <div style="float: right;">\\n            <a href="http://www.web2py.com/">\\n            <img style="padding-bottom: 0;" src="\', escape=False)\nresponse.write(URL(\'static\',\'images/poweredby.png\'))\nresponse.write(\'"/>\\n            </a>\\n          </div>\\n        </div>\\n        \', escape=False)\nresponse.write(\'\\t\\n      </div>\\n    </div><!-- container -->\\n  </div><!-- footer -->\\n  \\n  <!--[if lt IE 7 ]>\\n\\t<script src="\', escape=False)\nresponse.write(URL(\'static\',\'js/dd_belatedpng.js\'))\nresponse.write(\'"></script>\\n\\t<script> DD_belatedPNG.fix(\\\'img, .png_bg\\\'); //fix any <img> or .png_bg background-images </script>\\n\\t<![endif]-->\\n  \', escape=False)\nif response.google_analytics_id:\n    response.write(\'<script type="text/javascript"> var _gaq = _gaq || []; _gaq.push([\\\'_setAccount\\\', \\\'\', escape=False)\n    response.write(response.google_analytics_id)\n    response.write("\']); _gaq.push([\'_trackPageview\']); (function() { var ga = document.createElement(\'script\'); ga.type = \'text/javascript\'; ga.async = true; ga.src = (\'https:\' == document.location.protocol ? \'https://ssl\' : \'http://www\') + \'.google-analytics.com/ga.js\'; var s = document.getElementsByTagName(\'script\')[0]; s.parentNode.insertBefore(ga, s); })(); </script> ", escape=False)\n    pass\nresponse.write(\'\\n</body>\\n</html>\\n\', escape=False)'
p7
sS'snapshot'
p8
(dp9
S'exception'
p10
(dp11
S'__getslice__'
p12
S"<method-wrapper '__getslice__' of exceptions.SyntaxError object at 0x06B6AAF0>"
p13
sS'text'
p14
S'\'    s = user.first_name + " " + user.last_name + " - (" + user.email + ") " )\\n\''
p15
sS'__str__'
p16
S"<method-wrapper '__str__' of exceptions.SyntaxError object at 0x06B6AAF0>"
p17
sS'__reduce__'
p18
S'<built-in method __reduce__ of exceptions.SyntaxError object at 0x06B6AAF0>'
p19
sS'__dict__'
p20
S'{}'
p21
sS'__init__'
p22
S"<method-wrapper '__init__' of exceptions.SyntaxError object at 0x06B6AAF0>"
p23
sS'__setattr__'
p24
S"<method-wrapper '__setattr__' of exceptions.SyntaxError object at 0x06B6AAF0>"
p25
sS'__reduce_ex__'
p26
S'<built-in method __reduce_ex__ of exceptions.SyntaxError object at 0x06B6AAF0>'
p27
sS'__new__'
p28
S'<built-in method __new__ of type object at 0x1E1CDBD0>'
p29
sS'__class__'
p30
S"<type 'exceptions.SyntaxError'>"
p31
sS'filename'
p32
S"r'C:\\web2py\\applications\\unioeste_code\\views\\default/showProblem.html'"
p33
sS'lineno'
p34
S'94'
p35
sS'msg'
p36
S"'invalid syntax'"
p37
sS'__doc__'
p38
S"'Invalid syntax.'"
p39
sS'__getitem__'
p40
S"<method-wrapper '__getitem__' of exceptions.SyntaxError object at 0x06B6AAF0>"
p41
sS'__setstate__'
p42
S'<built-in method __setstate__ of exceptions.SyntaxError object at 0x06B6AAF0>'
p43
sS'__getattribute__'
p44
S"<method-wrapper '__getattribute__' of exceptions.SyntaxError object at 0x06B6AAF0>"
p45
sS'print_file_and_line'
p46
S'None'
p47
sS'args'
p48
S'(\'invalid syntax\', (r\'C:\\web2py\\applications\\unioeste_code\\views\\default/showProblem.html\', 94, 77, \'    s = user.first_name + " " + user.last_name + " - (" + user.email + ") " )\\n\'))'
p49
sS'offset'
p50
S'77'
p51
sS'__delattr__'
p52
S"<method-wrapper '__delattr__' of exceptions.SyntaxError object at 0x06B6AAF0>"
p53
sS'__repr__'
p54
S"<method-wrapper '__repr__' of exceptions.SyntaxError object at 0x06B6AAF0>"
p55
sS'__hash__'
p56
S"<method-wrapper '__hash__' of exceptions.SyntaxError object at 0x06B6AAF0>"
p57
ssS'evalue'
p58
S'invalid syntax (default/showProblem.html, line 94)'
p59
sS'request'
p60
ccopy_reg
_reconstructor
p61
(cgluon.html
BEAUTIFY
p62
c__builtin__
object
p63
NtRp64
(dp65
S'attributes'
p66
(dp67
sS'components'
p68
(lp69
g61
(cgluon.html
TABLE
p70
g63
NtRp71
(dp72
g66
(dp73
S'level'
p74
I5
ssS'parent'
p75
Nsg68
(lp76
g61
(cgluon.html
TR
p77
g63
NtRp78
(dp79
g66
(dp80
sg75
g71
sg68
(lp81
g61
(cgluon.html
TD
p82
g63
NtRp83
(dp84
g66
(dp85
S'_style'
p86
S'font-weight:bold;vertical-align:top'
p87
ssg75
g78
sg68
(lp88
S'ajax'
p89
asbag61
(g82
g63
NtRp90
(dp91
g66
(dp92
S'_valign'
p93
S'top'
p94
ssg75
g78
sg68
(lp95
S':'
asbag61
(g82
g63
NtRp96
(dp97
g66
(dp98
sg75
g78
sg68
(lp99
g61
(g62
g63
NtRp100
(dp101
g66
(dp102
g74
I5
ssg75
g96
sg68
(lp103
S'False'
p104
asbasbasbag61
(g77
g63
NtRp105
(dp106
g66
(dp107
sg75
g71
sg68
(lp108
g61
(g82
g63
NtRp109
(dp110
g66
(dp111
g86
g87
ssg75
g105
sg68
(lp112
S'application'
p113
asbag61
(g82
g63
NtRp114
(dp115
g66
(dp116
g93
g94
ssg75
g105
sg68
(lp117
S':'
asbag61
(g82
g63
NtRp118
(dp119
g66
(dp120
sg75
g105
sg68
(lp121
g61
(g62
g63
NtRp122
(dp123
g66
(dp124
g74
I5
ssg75
g118
sg68
(lp125
S'unioeste_code'
p126
asbasbasbag61
(g77
g63
NtRp127
(dp128
g66
(dp129
sg75
g71
sg68
(lp130
g61
(g82
g63
NtRp131
(dp132
g66
(dp133
g86
g87
ssg75
g127
sg68
(lp134
g48
asbag61
(g82
g63
NtRp135
(dp136
g66
(dp137
g93
g94
ssg75
g127
sg68
(lp138
S':'
asbag61
(g82
g63
NtRp139
(dp140
g66
(dp141
sg75
g127
sg68
(lp142
g61
(g62
g63
NtRp143
(dp144
g66
(dp145
g74
I5
ssg75
g139
sg68
(lp146
g61
(g70
g63
NtRp147
(dp148
g66
(dp149
g74
I4
ssg75
Nsg68
(lp150
g61
(g77
g63
NtRp151
(dp152
g66
(dp153
sg75
g147
sg68
(lp154
g61
(g82
g63
NtRp155
(dp156
g66
(dp157
sg75
g151
sg68
(lp158
g61
(g62
g63
NtRp159
(dp160
g66
(dp161
g74
I4
ssg75
g155
sg68
(lp162
S'1'
asbasbasbasbasbasbasbag61
(g77
g63
NtRp163
(dp164
g66
(dp165
sg75
g71
sg68
(lp166
g61
(g82
g63
NtRp167
(dp168
g66
(dp169
g86
g87
ssg75
g163
sg68
(lp170
S'body'
p171
asbag61
(g82
g63
NtRp172
(dp173
g66
(dp174
g93
g94
ssg75
g163
sg68
(lp175
S':'
asbag61
(g82
g63
NtRp176
(dp177
g66
(dp178
sg75
g163
sg68
(lp179
g61
(g62
g63
NtRp180
(dp181
g66
(dp182
g74
I5
ssg75
g176
sg68
(lp183
S'<cStringIO.StringO object at 0x06B695A0>'
p184
asbasbasbag61
(g77
g63
NtRp185
(dp186
g66
(dp187
sg75
g71
sg68
(lp188
g61
(g82
g63
NtRp189
(dp190
g66
(dp191
g86
g87
ssg75
g185
sg68
(lp192
S'client'
p193
asbag61
(g82
g63
NtRp194
(dp195
g66
(dp196
g93
g94
ssg75
g185
sg68
(lp197
S':'
asbag61
(g82
g63
NtRp198
(dp199
g66
(dp200
sg75
g185
sg68
(lp201
g61
(g62
g63
NtRp202
(dp203
g66
(dp204
g74
I5
ssg75
g198
sg68
(lp205
S'127.0.0.1'
p206
asbasbasbag61
(g77
g63
NtRp207
(dp208
g66
(dp209
sg75
g71
sg68
(lp210
g61
(g82
g63
NtRp211
(dp212
g66
(dp213
g86
g87
ssg75
g207
sg68
(lp214
S'controller'
p215
asbag61
(g82
g63
NtRp216
(dp217
g66
(dp218
g93
g94
ssg75
g207
sg68
(lp219
S':'
asbag61
(g82
g63
NtRp220
(dp221
g66
(dp222
sg75
g207
sg68
(lp223
g61
(g62
g63
NtRp224
(dp225
g66
(dp226
g74
I5
ssg75
g220
sg68
(lp227
S'default'
p228
asbasbasbag61
(g77
g63
NtRp229
(dp230
g66
(dp231
sg75
g71
sg68
(lp232
g61
(g82
g63
NtRp233
(dp234
g66
(dp235
g86
g87
ssg75
g229
sg68
(lp236
S'cookies'
p237
asbag61
(g82
g63
NtRp238
(dp239
g66
(dp240
g93
g94
ssg75
g229
sg68
(lp241
S':'
asbag61
(g82
g63
NtRp242
(dp243
g66
(dp244
sg75
g229
sg68
(lp245
g61
(g62
g63
NtRp246
(dp247
g66
(dp248
g74
I5
ssg75
g242
sg68
(lp249
g61
(g70
g63
NtRp250
(dp251
g66
(dp252
g74
I4
ssg75
Nsg68
(lp253
g61
(g77
g63
NtRp254
(dp255
g66
(dp256
sg75
g250
sg68
(lp257
g61
(g82
g63
NtRp258
(dp259
g66
(dp260
g86
g87
ssg75
g254
sg68
(lp261
S'session_id_admin'
p262
asbag61
(g82
g63
NtRp263
(dp264
g66
(dp265
g93
g94
ssg75
g254
sg68
(lp266
S':'
asbag61
(g82
g63
NtRp267
(dp268
g66
(dp269
sg75
g254
sg68
(lp270
g61
(g62
g63
NtRp271
(dp272
g66
(dp273
g74
I4
ssg75
g267
sg68
(lp274
g61
(g70
g63
NtRp275
(dp276
g66
(dp277
g74
I3
ssg75
Nsg68
(lp278
g61
(g77
g63
NtRp279
(dp280
g66
(dp281
sg75
g275
sg68
(lp282
g61
(g82
g63
NtRp283
(dp284
g66
(dp285
g86
g87
ssg75
g279
sg68
(lp286
S'comment'
p287
asbag61
(g82
g63
NtRp288
(dp289
g66
(dp290
g93
g94
ssg75
g279
sg68
(lp291
S':'
asbag61
(g82
g63
NtRp292
(dp293
g66
(dp294
sg75
g279
sg68
(lp295
g61
(g62
g63
NtRp296
(dp297
g66
(dp298
g74
I3
ssg75
g292
sg68
(lp299
S''
asbasbasbag61
(g77
g63
NtRp300
(dp301
g66
(dp302
sg75
g275
sg68
(lp303
g61
(g82
g63
NtRp304
(dp305
g66
(dp306
g86
g87
ssg75
g300
sg68
(lp307
S'domain'
p308
asbag61
(g82
g63
NtRp309
(dp310
g66
(dp311
g93
g94
ssg75
g300
sg68
(lp312
S':'
asbag61
(g82
g63
NtRp313
(dp314
g66
(dp315
sg75
g300
sg68
(lp316
g61
(g62
g63
NtRp317
(dp318
g66
(dp319
g74
I3
ssg75
g313
sg68
(lp320
S''
asbasbasbag61
(g77
g63
NtRp321
(dp322
g66
(dp323
sg75
g275
sg68
(lp324
g61
(g82
g63
NtRp325
(dp326
g66
(dp327
g86
g87
ssg75
g321
sg68
(lp328
S'expires'
p329
asbag61
(g82
g63
NtRp330
(dp331
g66
(dp332
g93
g94
ssg75
g321
sg68
(lp333
S':'
asbag61
(g82
g63
NtRp334
(dp335
g66
(dp336
sg75
g321
sg68
(lp337
g61
(g62
g63
NtRp338
(dp339
g66
(dp340
g74
I3
ssg75
g334
sg68
(lp341
S''
asbasbasbag61
(g77
g63
NtRp342
(dp343
g66
(dp344
sg75
g275
sg68
(lp345
g61
(g82
g63
NtRp346
(dp347
g66
(dp348
g86
g87
ssg75
g342
sg68
(lp349
S'max-age'
p350
asbag61
(g82
g63
NtRp351
(dp352
g66
(dp353
g93
g94
ssg75
g342
sg68
(lp354
S':'
asbag61
(g82
g63
NtRp355
(dp356
g66
(dp357
sg75
g342
sg68
(lp358
g61
(g62
g63
NtRp359
(dp360
g66
(dp361
g74
I3
ssg75
g355
sg68
(lp362
S''
asbasbasbag61
(g77
g63
NtRp363
(dp364
g66
(dp365
sg75
g275
sg68
(lp366
g61
(g82
g63
NtRp367
(dp368
g66
(dp369
g86
g87
ssg75
g363
sg68
(lp370
S'path'
p371
asbag61
(g82
g63
NtRp372
(dp373
g66
(dp374
g93
g94
ssg75
g363
sg68
(lp375
S':'
asbag61
(g82
g63
NtRp376
(dp377
g66
(dp378
sg75
g363
sg68
(lp379
g61
(g62
g63
NtRp380
(dp381
g66
(dp382
g74
I3
ssg75
g376
sg68
(lp383
S''
asbasbasbag61
(g77
g63
NtRp384
(dp385
g66
(dp386
sg75
g275
sg68
(lp387
g61
(g82
g63
NtRp388
(dp389
g66
(dp390
g86
g87
ssg75
g384
sg68
(lp391
S'secure'
p392
asbag61
(g82
g63
NtRp393
(dp394
g66
(dp395
g93
g94
ssg75
g384
sg68
(lp396
S':'
asbag61
(g82
g63
NtRp397
(dp398
g66
(dp399
sg75
g384
sg68
(lp400
g61
(g62
g63
NtRp401
(dp402
g66
(dp403
g74
I3
ssg75
g397
sg68
(lp404
S''
asbasbasbag61
(g77
g63
NtRp405
(dp406
g66
(dp407
sg75
g275
sg68
(lp408
g61
(g82
g63
NtRp409
(dp410
g66
(dp411
g86
g87
ssg75
g405
sg68
(lp412
S'version'
p413
asbag61
(g82
g63
NtRp414
(dp415
g66
(dp416
g93
g94
ssg75
g405
sg68
(lp417
S':'
asbag61
(g82
g63
NtRp418
(dp419
g66
(dp420
sg75
g405
sg68
(lp421
g61
(g62
g63
NtRp422
(dp423
g66
(dp424
g74
I3
ssg75
g418
sg68
(lp425
S''
asbasbasbasbasbasbasbag61
(g77
g63
NtRp426
(dp427
g66
(dp428
sg75
g250
sg68
(lp429
g61
(g82
g63
NtRp430
(dp431
g66
(dp432
g86
g87
ssg75
g426
sg68
(lp433
S'session_id_unioeste_code'
p434
asbag61
(g82
g63
NtRp435
(dp436
g66
(dp437
g93
g94
ssg75
g426
sg68
(lp438
S':'
asbag61
(g82
g63
NtRp439
(dp440
g66
(dp441
sg75
g426
sg68
(lp442
g61
(g62
g63
NtRp443
(dp444
g66
(dp445
g74
I4
ssg75
g439
sg68
(lp446
g61
(g70
g63
NtRp447
(dp448
g66
(dp449
g74
I3
ssg75
Nsg68
(lp450
g61
(g77
g63
NtRp451
(dp452
g66
(dp453
sg75
g447
sg68
(lp454
g61
(g82
g63
NtRp455
(dp456
g66
(dp457
g86
g87
ssg75
g451
sg68
(lp458
g287
asbag61
(g82
g63
NtRp459
(dp460
g66
(dp461
g93
g94
ssg75
g451
sg68
(lp462
S':'
asbag61
(g82
g63
NtRp463
(dp464
g66
(dp465
sg75
g451
sg68
(lp466
g61
(g62
g63
NtRp467
(dp468
g66
(dp469
g74
I3
ssg75
g463
sg68
(lp470
S''
asbasbasbag61
(g77
g63
NtRp471
(dp472
g66
(dp473
sg75
g447
sg68
(lp474
g61
(g82
g63
NtRp475
(dp476
g66
(dp477
g86
g87
ssg75
g471
sg68
(lp478
g308
asbag61
(g82
g63
NtRp479
(dp480
g66
(dp481
g93
g94
ssg75
g471
sg68
(lp482
S':'
asbag61
(g82
g63
NtRp483
(dp484
g66
(dp485
sg75
g471
sg68
(lp486
g61
(g62
g63
NtRp487
(dp488
g66
(dp489
g74
I3
ssg75
g483
sg68
(lp490
S''
asbasbasbag61
(g77
g63
NtRp491
(dp492
g66
(dp493
sg75
g447
sg68
(lp494
g61
(g82
g63
NtRp495
(dp496
g66
(dp497
g86
g87
ssg75
g491
sg68
(lp498
g329
asbag61
(g82
g63
NtRp499
(dp500
g66
(dp501
g93
g94
ssg75
g491
sg68
(lp502
S':'
asbag61
(g82
g63
NtRp503
(dp504
g66
(dp505
sg75
g491
sg68
(lp506
g61
(g62
g63
NtRp507
(dp508
g66
(dp509
g74
I3
ssg75
g503
sg68
(lp510
S''
asbasbasbag61
(g77
g63
NtRp511
(dp512
g66
(dp513
sg75
g447
sg68
(lp514
g61
(g82
g63
NtRp515
(dp516
g66
(dp517
g86
g87
ssg75
g511
sg68
(lp518
g350
asbag61
(g82
g63
NtRp519
(dp520
g66
(dp521
g93
g94
ssg75
g511
sg68
(lp522
S':'
asbag61
(g82
g63
NtRp523
(dp524
g66
(dp525
sg75
g511
sg68
(lp526
g61
(g62
g63
NtRp527
(dp528
g66
(dp529
g74
I3
ssg75
g523
sg68
(lp530
S''
asbasbasbag61
(g77
g63
NtRp531
(dp532
g66
(dp533
sg75
g447
sg68
(lp534
g61
(g82
g63
NtRp535
(dp536
g66
(dp537
g86
g87
ssg75
g531
sg68
(lp538
g371
asbag61
(g82
g63
NtRp539
(dp540
g66
(dp541
g93
g94
ssg75
g531
sg68
(lp542
S':'
asbag61
(g82
g63
NtRp543
(dp544
g66
(dp545
sg75
g531
sg68
(lp546
g61
(g62
g63
NtRp547
(dp548
g66
(dp549
g74
I3
ssg75
g543
sg68
(lp550
S''
asbasbasbag61
(g77
g63
NtRp551
(dp552
g66
(dp553
sg75
g447
sg68
(lp554
g61
(g82
g63
NtRp555
(dp556
g66
(dp557
g86
g87
ssg75
g551
sg68
(lp558
g392
asbag61
(g82
g63
NtRp559
(dp560
g66
(dp561
g93
g94
ssg75
g551
sg68
(lp562
S':'
asbag61
(g82
g63
NtRp563
(dp564
g66
(dp565
sg75
g551
sg68
(lp566
g61
(g62
g63
NtRp567
(dp568
g66
(dp569
g74
I3
ssg75
g563
sg68
(lp570
S''
asbasbasbag61
(g77
g63
NtRp571
(dp572
g66
(dp573
sg75
g447
sg68
(lp574
g61
(g82
g63
NtRp575
(dp576
g66
(dp577
g86
g87
ssg75
g571
sg68
(lp578
g413
asbag61
(g82
g63
NtRp579
(dp580
g66
(dp581
g93
g94
ssg75
g571
sg68
(lp582
S':'
asbag61
(g82
g63
NtRp583
(dp584
g66
(dp585
sg75
g571
sg68
(lp586
g61
(g62
g63
NtRp587
(dp588
g66
(dp589
g74
I3
ssg75
g583
sg68
(lp590
S''
asbasbasbasbasbasbasbag61
(g77
g63
NtRp591
(dp592
g66
(dp593
sg75
g250
sg68
(lp594
g61
(g82
g63
NtRp595
(dp596
g66
(dp597
g86
g87
ssg75
g591
sg68
(lp598
S'session_id_welcome'
p599
asbag61
(g82
g63
NtRp600
(dp601
g66
(dp602
g93
g94
ssg75
g591
sg68
(lp603
S':'
asbag61
(g82
g63
NtRp604
(dp605
g66
(dp606
sg75
g591
sg68
(lp607
g61
(g62
g63
NtRp608
(dp609
g66
(dp610
g74
I4
ssg75
g604
sg68
(lp611
g61
(g70
g63
NtRp612
(dp613
g66
(dp614
g74
I3
ssg75
Nsg68
(lp615
g61
(g77
g63
NtRp616
(dp617
g66
(dp618
sg75
g612
sg68
(lp619
g61
(g82
g63
NtRp620
(dp621
g66
(dp622
g86
g87
ssg75
g616
sg68
(lp623
g287
asbag61
(g82
g63
NtRp624
(dp625
g66
(dp626
g93
g94
ssg75
g616
sg68
(lp627
S':'
asbag61
(g82
g63
NtRp628
(dp629
g66
(dp630
sg75
g616
sg68
(lp631
g61
(g62
g63
NtRp632
(dp633
g66
(dp634
g74
I3
ssg75
g628
sg68
(lp635
S''
asbasbasbag61
(g77
g63
NtRp636
(dp637
g66
(dp638
sg75
g612
sg68
(lp639
g61
(g82
g63
NtRp640
(dp641
g66
(dp642
g86
g87
ssg75
g636
sg68
(lp643
g308
asbag61
(g82
g63
NtRp644
(dp645
g66
(dp646
g93
g94
ssg75
g636
sg68
(lp647
S':'
asbag61
(g82
g63
NtRp648
(dp649
g66
(dp650
sg75
g636
sg68
(lp651
g61
(g62
g63
NtRp652
(dp653
g66
(dp654
g74
I3
ssg75
g648
sg68
(lp655
S''
asbasbasbag61
(g77
g63
NtRp656
(dp657
g66
(dp658
sg75
g612
sg68
(lp659
g61
(g82
g63
NtRp660
(dp661
g66
(dp662
g86
g87
ssg75
g656
sg68
(lp663
g329
asbag61
(g82
g63
NtRp664
(dp665
g66
(dp666
g93
g94
ssg75
g656
sg68
(lp667
S':'
asbag61
(g82
g63
NtRp668
(dp669
g66
(dp670
sg75
g656
sg68
(lp671
g61
(g62
g63
NtRp672
(dp673
g66
(dp674
g74
I3
ssg75
g668
sg68
(lp675
S''
asbasbasbag61
(g77
g63
NtRp676
(dp677
g66
(dp678
sg75
g612
sg68
(lp679
g61
(g82
g63
NtRp680
(dp681
g66
(dp682
g86
g87
ssg75
g676
sg68
(lp683
g350
asbag61
(g82
g63
NtRp684
(dp685
g66
(dp686
g93
g94
ssg75
g676
sg68
(lp687
S':'
asbag61
(g82
g63
NtRp688
(dp689
g66
(dp690
sg75
g676
sg68
(lp691
g61
(g62
g63
NtRp692
(dp693
g66
(dp694
g74
I3
ssg75
g688
sg68
(lp695
S''
asbasbasbag61
(g77
g63
NtRp696
(dp697
g66
(dp698
sg75
g612
sg68
(lp699
g61
(g82
g63
NtRp700
(dp701
g66
(dp702
g86
g87
ssg75
g696
sg68
(lp703
g371
asbag61
(g82
g63
NtRp704
(dp705
g66
(dp706
g93
g94
ssg75
g696
sg68
(lp707
S':'
asbag61
(g82
g63
NtRp708
(dp709
g66
(dp710
sg75
g696
sg68
(lp711
g61
(g62
g63
NtRp712
(dp713
g66
(dp714
g74
I3
ssg75
g708
sg68
(lp715
S''
asbasbasbag61
(g77
g63
NtRp716
(dp717
g66
(dp718
sg75
g612
sg68
(lp719
g61
(g82
g63
NtRp720
(dp721
g66
(dp722
g86
g87
ssg75
g716
sg68
(lp723
g392
asbag61
(g82
g63
NtRp724
(dp725
g66
(dp726
g93
g94
ssg75
g716
sg68
(lp727
S':'
asbag61
(g82
g63
NtRp728
(dp729
g66
(dp730
sg75
g716
sg68
(lp731
g61
(g62
g63
NtRp732
(dp733
g66
(dp734
g74
I3
ssg75
g728
sg68
(lp735
S''
asbasbasbag61
(g77
g63
NtRp736
(dp737
g66
(dp738
sg75
g612
sg68
(lp739
g61
(g82
g63
NtRp740
(dp741
g66
(dp742
g86
g87
ssg75
g736
sg68
(lp743
g413
asbag61
(g82
g63
NtRp744
(dp745
g66
(dp746
g93
g94
ssg75
g736
sg68
(lp747
S':'
asbag61
(g82
g63
NtRp748
(dp749
g66
(dp750
sg75
g736
sg68
(lp751
g61
(g62
g63
NtRp752
(dp753
g66
(dp754
g74
I3
ssg75
g748
sg68
(lp755
S''
asbasbasbasbasbasbasbasbasbasbasbag61
(g77
g63
NtRp756
(dp757
g66
(dp758
sg75
g71
sg68
(lp759
g61
(g82
g63
NtRp760
(dp761
g66
(dp762
g86
g87
ssg75
g756
sg68
(lp763
S'env'
p764
asbag61
(g82
g63
NtRp765
(dp766
g66
(dp767
g93
g94
ssg75
g756
sg68
(lp768
S':'
asbag61
(g82
g63
NtRp769
(dp770
g66
(dp771
sg75
g756
sg68
(lp772
g61
(g62
g63
NtRp773
(dp774
g66
(dp775
g74
I5
ssg75
g769
sg68
(lp776
g61
(g70
g63
NtRp777
(dp778
g66
(dp779
g74
I4
ssg75
Nsg68
(lp780
g61
(g77
g63
NtRp781
(dp782
g66
(dp783
sg75
g777
sg68
(lp784
g61
(g82
g63
NtRp785
(dp786
g66
(dp787
g86
g87
ssg75
g781
sg68
(lp788
S'app_folders'
p789
asbag61
(g82
g63
NtRp790
(dp791
g66
(dp792
g93
g94
ssg75
g781
sg68
(lp793
S':'
asbag61
(g82
g63
NtRp794
(dp795
g66
(dp796
sg75
g781
sg68
(lp797
g61
(g62
g63
NtRp798
(dp799
g66
(dp800
g74
I4
ssg75
g794
sg68
(lp801
S"set(['C:\\\\web2py\\\\applications\\\\admin\\\\', 'C:\\\\web2py\\\\applications\\\\welcome\\\\', 'C:\\\\web2py\\\\applications\\\\unioeste_code\\\\'])"
p802
asbasbasbag61
(g77
g63
NtRp803
(dp804
g66
(dp805
sg75
g777
sg68
(lp806
g61
(g82
g63
NtRp807
(dp808
g66
(dp809
g86
g87
ssg75
g803
sg68
(lp810
S'applications_parent'
p811
asbag61
(g82
g63
NtRp812
(dp813
g66
(dp814
g93
g94
ssg75
g803
sg68
(lp815
S':'
asbag61
(g82
g63
NtRp816
(dp817
g66
(dp818
sg75
g803
sg68
(lp819
g61
(g62
g63
NtRp820
(dp821
g66
(dp822
g74
I4
ssg75
g816
sg68
(lp823
S'C:\\web2py'
p824
asbasbasbag61
(g77
g63
NtRp825
(dp826
g66
(dp827
sg75
g777
sg68
(lp828
g61
(g82
g63
NtRp829
(dp830
g66
(dp831
g86
g87
ssg75
g825
sg68
(lp832
S'cmd_args'
p833
asbag61
(g82
g63
NtRp834
(dp835
g66
(dp836
g93
g94
ssg75
g825
sg68
(lp837
S':'
asbag61
(g82
g63
NtRp838
(dp839
g66
(dp840
sg75
g825
sg68
(lp841
g61
(g62
g63
NtRp842
(dp843
g66
(dp844
g74
I4
ssg75
g838
sg68
(lp845
g61
(g70
g63
NtRp846
(dp847
g66
(dp848
g74
I3
ssg75
Nsg68
(lp849
sbasbasbasbag61
(g77
g63
NtRp850
(dp851
g66
(dp852
sg75
g777
sg68
(lp853
g61
(g82
g63
NtRp854
(dp855
g66
(dp856
g86
g87
ssg75
g850
sg68
(lp857
S'cmd_options'
p858
asbag61
(g82
g63
NtRp859
(dp860
g66
(dp861
g93
g94
ssg75
g850
sg68
(lp862
S':'
asbag61
(g82
g63
NtRp863
(dp864
g66
(dp865
sg75
g850
sg68
(lp866
g61
(g62
g63
NtRp867
(dp868
g66
(dp869
g74
I4
ssg75
g863
sg68
(lp870
S"<Values at 0x309c300: {'verbose': False, 'ip': '127.0.0.1', 'shutdown_timeout': 5, 'taskbar': False, 'nocron': False, 'pid_filename': 'httpserver.pid', 'maxthreads': None, 'softcron': False, 'server_name': 'Pedro-PC', 'bpython': False, 'nogui': False, 'port': 8000, 'extcron': False, 'debuglevel': 30, 'test': None, 'folder': 'C:\\\\web2py', 'config': '', 'import_models': False, 'winservice': '', 'shell': None, 'run': '', 'log_filename': 'httpserver.log', 'args': [''], 'socket_timeout': 5, 'ssl_ca_certificate': None, 'scheduler': None, 'profiler_filename': None, 'ssl_private_key': '', 'password': '<ask>', 'request_queue_size': 5, 'ssl_certificate': '', 'cronjob': False, 'numthreads': None, 'quiet': False, 'interfaces': None, 'minthreads': None, 'timeout': 10, 'plain': False, 'nobanner': False}>"
p871
asbasbasbag61
(g77
g63
NtRp872
(dp873
g66
(dp874
sg75
g777
sg68
(lp875
g61
(g82
g63
NtRp876
(dp877
g66
(dp878
g86
g87
ssg75
g872
sg68
(lp879
S'db_sessions'
p880
asbag61
(g82
g63
NtRp881
(dp882
g66
(dp883
g93
g94
ssg75
g872
sg68
(lp884
S':'
asbag61
(g82
g63
NtRp885
(dp886
g66
(dp887
sg75
g872
sg68
(lp888
g61
(g62
g63
NtRp889
(dp890
g66
(dp891
g74
I4
ssg75
g885
sg68
(lp892
S'set([])'
p893
asbasbasbag61
(g77
g63
NtRp894
(dp895
g66
(dp896
sg75
g777
sg68
(lp897
g61
(g82
g63
NtRp898
(dp899
g66
(dp900
g86
g87
ssg75
g894
sg68
(lp901
S'debugging'
p902
asbag61
(g82
g63
NtRp903
(dp904
g66
(dp905
g93
g94
ssg75
g894
sg68
(lp906
S':'
asbag61
(g82
g63
NtRp907
(dp908
g66
(dp909
sg75
g894
sg68
(lp910
g61
(g62
g63
NtRp911
(dp912
g66
(dp913
g74
I4
ssg75
g907
sg68
(lp914
g104
asbasbasbag61
(g77
g63
NtRp915
(dp916
g66
(dp917
sg75
g777
sg68
(lp918
g61
(g82
g63
NtRp919
(dp920
g66
(dp921
g86
g87
ssg75
g915
sg68
(lp922
S'gluon_parent'
p923
asbag61
(g82
g63
NtRp924
(dp925
g66
(dp926
g93
g94
ssg75
g915
sg68
(lp927
S':'
asbag61
(g82
g63
NtRp928
(dp929
g66
(dp930
sg75
g915
sg68
(lp931
g61
(g62
g63
NtRp932
(dp933
g66
(dp934
g74
I4
ssg75
g928
sg68
(lp935
S'C:\\web2py'
p936
asbasbasbag61
(g77
g63
NtRp937
(dp938
g66
(dp939
sg75
g777
sg68
(lp940
g61
(g82
g63
NtRp941
(dp942
g66
(dp943
g86
g87
ssg75
g937
sg68
(lp944
S'http_accept'
p945
asbag61
(g82
g63
NtRp946
(dp947
g66
(dp948
g93
g94
ssg75
g937
sg68
(lp949
S':'
asbag61
(g82
g63
NtRp950
(dp951
g66
(dp952
sg75
g937
sg68
(lp953
g61
(g62
g63
NtRp954
(dp955
g66
(dp956
g74
I4
ssg75
g950
sg68
(lp957
S'text/html,application/xhtml+xml,application/xml;q=0.9,*/*;q=0.8'
p958
asbasbasbag61
(g77
g63
NtRp959
(dp960
g66
(dp961
sg75
g777
sg68
(lp962
g61
(g82
g63
NtRp963
(dp964
g66
(dp965
g86
g87
ssg75
g959
sg68
(lp966
S'http_accept_charset'
p967
asbag61
(g82
g63
NtRp968
(dp969
g66
(dp970
g93
g94
ssg75
g959
sg68
(lp971
S':'
asbag61
(g82
g63
NtRp972
(dp973
g66
(dp974
sg75
g959
sg68
(lp975
g61
(g62
g63
NtRp976
(dp977
g66
(dp978
g74
I4
ssg75
g972
sg68
(lp979
S'ISO-8859-1,utf-8;q=0.7,*;q=0.3'
p980
asbasbasbag61
(g77
g63
NtRp981
(dp982
g66
(dp983
sg75
g777
sg68
(lp984
g61
(g82
g63
NtRp985
(dp986
g66
(dp987
g86
g87
ssg75
g981
sg68
(lp988
S'http_accept_encoding'
p989
asbag61
(g82
g63
NtRp990
(dp991
g66
(dp992
g93
g94
ssg75
g981
sg68
(lp993
S':'
asbag61
(g82
g63
NtRp994
(dp995
g66
(dp996
sg75
g981
sg68
(lp997
g61
(g62
g63
NtRp998
(dp999
g66
(dp1000
g74
I4
ssg75
g994
sg68
(lp1001
S'gzip,deflate,sdch'
p1002
asbasbasbag61
(g77
g63
NtRp1003
(dp1004
g66
(dp1005
sg75
g777
sg68
(lp1006
g61
(g82
g63
NtRp1007
(dp1008
g66
(dp1009
g86
g87
ssg75
g1003
sg68
(lp1010
S'http_accept_language'
p1011
asbag61
(g82
g63
NtRp1012
(dp1013
g66
(dp1014
g93
g94
ssg75
g1003
sg68
(lp1015
S':'
asbag61
(g82
g63
NtRp1016
(dp1017
g66
(dp1018
sg75
g1003
sg68
(lp1019
g61
(g62
g63
NtRp1020
(dp1021
g66
(dp1022
g74
I4
ssg75
g1016
sg68
(lp1023
S'pt-BR,pt;q=0.8,en-US;q=0.6,en;q=0.4'
p1024
asbasbasbag61
(g77
g63
NtRp1025
(dp1026
g66
(dp1027
sg75
g777
sg68
(lp1028
g61
(g82
g63
NtRp1029
(dp1030
g66
(dp1031
g86
g87
ssg75
g1025
sg68
(lp1032
S'http_cache_control'
p1033
asbag61
(g82
g63
NtRp1034
(dp1035
g66
(dp1036
g93
g94
ssg75
g1025
sg68
(lp1037
S':'
asbag61
(g82
g63
NtRp1038
(dp1039
g66
(dp1040
sg75
g1025
sg68
(lp1041
g61
(g62
g63
NtRp1042
(dp1043
g66
(dp1044
g74
I4
ssg75
g1038
sg68
(lp1045
S'max-age=0'
p1046
asbasbasbag61
(g77
g63
NtRp1047
(dp1048
g66
(dp1049
sg75
g777
sg68
(lp1050
g61
(g82
g63
NtRp1051
(dp1052
g66
(dp1053
g86
g87
ssg75
g1047
sg68
(lp1054
S'http_connection'
p1055
asbag61
(g82
g63
NtRp1056
(dp1057
g66
(dp1058
g93
g94
ssg75
g1047
sg68
(lp1059
S':'
asbag61
(g82
g63
NtRp1060
(dp1061
g66
(dp1062
sg75
g1047
sg68
(lp1063
g61
(g62
g63
NtRp1064
(dp1065
g66
(dp1066
g74
I4
ssg75
g1060
sg68
(lp1067
S'keep-alive'
p1068
asbasbasbag61
(g77
g63
NtRp1069
(dp1070
g66
(dp1071
sg75
g777
sg68
(lp1072
g61
(g82
g63
NtRp1073
(dp1074
g66
(dp1075
g86
g87
ssg75
g1069
sg68
(lp1076
S'http_cookie'
p1077
asbag61
(g82
g63
NtRp1078
(dp1079
g66
(dp1080
g93
g94
ssg75
g1069
sg68
(lp1081
S':'
asbag61
(g82
g63
NtRp1082
(dp1083
g66
(dp1084
sg75
g1069
sg68
(lp1085
g61
(g62
g63
NtRp1086
(dp1087
g66
(dp1088
g74
I4
ssg75
g1082
sg68
(lp1089
S'session_id_welcome=127.0.0.1-428eee6e-d977-48aa-81f9-d00d95c3e4dd; session_id_admin=127.0.0.1-14baca84-d2d6-4b1f-bf0e-5dde54a5c6a0; session_id_unioeste_code=127.0.0.1-5989d03c-a209-4e60-9ca5-abb9a6550c68'
p1090
asbasbasbag61
(g77
g63
NtRp1091
(dp1092
g66
(dp1093
sg75
g777
sg68
(lp1094
g61
(g82
g63
NtRp1095
(dp1096
g66
(dp1097
g86
g87
ssg75
g1091
sg68
(lp1098
S'http_dnt'
p1099
asbag61
(g82
g63
NtRp1100
(dp1101
g66
(dp1102
g93
g94
ssg75
g1091
sg68
(lp1103
S':'
asbag61
(g82
g63
NtRp1104
(dp1105
g66
(dp1106
sg75
g1091
sg68
(lp1107
g61
(g62
g63
NtRp1108
(dp1109
g66
(dp1110
g74
I4
ssg75
g1104
sg68
(lp1111
S'1'
asbasbasbag61
(g77
g63
NtRp1112
(dp1113
g66
(dp1114
sg75
g777
sg68
(lp1115
g61
(g82
g63
NtRp1116
(dp1117
g66
(dp1118
g86
g87
ssg75
g1112
sg68
(lp1119
S'http_host'
p1120
asbag61
(g82
g63
NtRp1121
(dp1122
g66
(dp1123
g93
g94
ssg75
g1112
sg68
(lp1124
S':'
asbag61
(g82
g63
NtRp1125
(dp1126
g66
(dp1127
sg75
g1112
sg68
(lp1128
g61
(g62
g63
NtRp1129
(dp1130
g66
(dp1131
g74
I4
ssg75
g1125
sg68
(lp1132
S'127.0.0.1:8000'
p1133
asbasbasbag61
(g77
g63
NtRp1134
(dp1135
g66
(dp1136
sg75
g777
sg68
(lp1137
g61
(g82
g63
NtRp1138
(dp1139
g66
(dp1140
g86
g87
ssg75
g1134
sg68
(lp1141
S'http_user_agent'
p1142
asbag61
(g82
g63
NtRp1143
(dp1144
g66
(dp1145
g93
g94
ssg75
g1134
sg68
(lp1146
S':'
asbag61
(g82
g63
NtRp1147
(dp1148
g66
(dp1149
sg75
g1134
sg68
(lp1150
g61
(g62
g63
NtRp1151
(dp1152
g66
(dp1153
g74
I4
ssg75
g1147
sg68
(lp1154
S'Mozilla/5.0 (Windows NT 6.1; WOW64) AppleWebKit/536.11 (KHTML, like Gecko) Chrome/20.0.1132.57 Safari/536.11'
p1155
asbasbasbag61
(g77
g63
NtRp1156
(dp1157
g66
(dp1158
sg75
g777
sg68
(lp1159
g61
(g82
g63
NtRp1160
(dp1161
g66
(dp1162
g86
g87
ssg75
g1156
sg68
(lp1163
S'is_jython'
p1164
asbag61
(g82
g63
NtRp1165
(dp1166
g66
(dp1167
g93
g94
ssg75
g1156
sg68
(lp1168
S':'
asbag61
(g82
g63
NtRp1169
(dp1170
g66
(dp1171
sg75
g1156
sg68
(lp1172
g61
(g62
g63
NtRp1173
(dp1174
g66
(dp1175
g74
I4
ssg75
g1169
sg68
(lp1176
g104
asbasbasbag61
(g77
g63
NtRp1177
(dp1178
g66
(dp1179
sg75
g777
sg68
(lp1180
g61
(g82
g63
NtRp1181
(dp1182
g66
(dp1183
g86
g87
ssg75
g1177
sg68
(lp1184
S'is_pypy'
p1185
asbag61
(g82
g63
NtRp1186
(dp1187
g66
(dp1188
g93
g94
ssg75
g1177
sg68
(lp1189
S':'
asbag61
(g82
g63
NtRp1190
(dp1191
g66
(dp1192
sg75
g1177
sg68
(lp1193
g61
(g62
g63
NtRp1194
(dp1195
g66
(dp1196
g74
I4
ssg75
g1190
sg68
(lp1197
g104
asbasbasbag61
(g77
g63
NtRp1198
(dp1199
g66
(dp1200
sg75
g777
sg68
(lp1201
g61
(g82
g63
NtRp1202
(dp1203
g66
(dp1204
g86
g87
ssg75
g1198
sg68
(lp1205
S'path_info'
p1206
asbag61
(g82
g63
NtRp1207
(dp1208
g66
(dp1209
g93
g94
ssg75
g1198
sg68
(lp1210
S':'
asbag61
(g82
g63
NtRp1211
(dp1212
g66
(dp1213
sg75
g1198
sg68
(lp1214
g61
(g62
g63
NtRp1215
(dp1216
g66
(dp1217
g74
I4
ssg75
g1211
sg68
(lp1218
S'/unioeste_code/default/showProblem/1'
p1219
asbasbasbag61
(g77
g63
NtRp1220
(dp1221
g66
(dp1222
sg75
g777
sg68
(lp1223
g61
(g82
g63
NtRp1224
(dp1225
g66
(dp1226
g86
g87
ssg75
g1220
sg68
(lp1227
S'query_string'
p1228
asbag61
(g82
g63
NtRp1229
(dp1230
g66
(dp1231
g93
g94
ssg75
g1220
sg68
(lp1232
S':'
asbag61
(g82
g63
NtRp1233
(dp1234
g66
(dp1235
sg75
g1220
sg68
(lp1236
g61
(g62
g63
NtRp1237
(dp1238
g66
(dp1239
g74
I4
ssg75
g1233
sg68
(lp1240
S''
asbasbasbag61
(g77
g63
NtRp1241
(dp1242
g66
(dp1243
sg75
g777
sg68
(lp1244
g61
(g82
g63
NtRp1245
(dp1246
g66
(dp1247
g86
g87
ssg75
g1241
sg68
(lp1248
S'remote_addr'
p1249
asbag61
(g82
g63
NtRp1250
(dp1251
g66
(dp1252
g93
g94
ssg75
g1241
sg68
(lp1253
S':'
asbag61
(g82
g63
NtRp1254
(dp1255
g66
(dp1256
sg75
g1241
sg68
(lp1257
g61
(g62
g63
NtRp1258
(dp1259
g66
(dp1260
g74
I4
ssg75
g1254
sg68
(lp1261
g206
asbasbasbag61
(g77
g63
NtRp1262
(dp1263
g66
(dp1264
sg75
g777
sg68
(lp1265
g61
(g82
g63
NtRp1266
(dp1267
g66
(dp1268
g86
g87
ssg75
g1262
sg68
(lp1269
S'remote_port'
p1270
asbag61
(g82
g63
NtRp1271
(dp1272
g66
(dp1273
g93
g94
ssg75
g1262
sg68
(lp1274
S':'
asbag61
(g82
g63
NtRp1275
(dp1276
g66
(dp1277
sg75
g1262
sg68
(lp1278
g61
(g62
g63
NtRp1279
(dp1280
g66
(dp1281
g74
I4
ssg75
g1275
sg68
(lp1282
S'38812'
p1283
asbasbasbag61
(g77
g63
NtRp1284
(dp1285
g66
(dp1286
sg75
g777
sg68
(lp1287
g61
(g82
g63
NtRp1288
(dp1289
g66
(dp1290
g86
g87
ssg75
g1284
sg68
(lp1291
S'request_method'
p1292
asbag61
(g82
g63
NtRp1293
(dp1294
g66
(dp1295
g93
g94
ssg75
g1284
sg68
(lp1296
S':'
asbag61
(g82
g63
NtRp1297
(dp1298
g66
(dp1299
sg75
g1284
sg68
(lp1300
g61
(g62
g63
NtRp1301
(dp1302
g66
(dp1303
g74
I4
ssg75
g1297
sg68
(lp1304
S'GET'
p1305
asbasbasbag61
(g77
g63
NtRp1306
(dp1307
g66
(dp1308
sg75
g777
sg68
(lp1309
g61
(g82
g63
NtRp1310
(dp1311
g66
(dp1312
g86
g87
ssg75
g1306
sg68
(lp1313
S'script_name'
p1314
asbag61
(g82
g63
NtRp1315
(dp1316
g66
(dp1317
g93
g94
ssg75
g1306
sg68
(lp1318
S':'
asbag61
(g82
g63
NtRp1319
(dp1320
g66
(dp1321
sg75
g1306
sg68
(lp1322
g61
(g62
g63
NtRp1323
(dp1324
g66
(dp1325
g74
I4
ssg75
g1319
sg68
(lp1326
S''
asbasbasbag61
(g77
g63
NtRp1327
(dp1328
g66
(dp1329
sg75
g777
sg68
(lp1330
g61
(g82
g63
NtRp1331
(dp1332
g66
(dp1333
g86
g87
ssg75
g1327
sg68
(lp1334
S'server_name'
p1335
asbag61
(g82
g63
NtRp1336
(dp1337
g66
(dp1338
g93
g94
ssg75
g1327
sg68
(lp1339
S':'
asbag61
(g82
g63
NtRp1340
(dp1341
g66
(dp1342
sg75
g1327
sg68
(lp1343
g61
(g62
g63
NtRp1344
(dp1345
g66
(dp1346
g74
I4
ssg75
g1340
sg68
(lp1347
S'Pedro-PC'
p1348
asbasbasbag61
(g77
g63
NtRp1349
(dp1350
g66
(dp1351
sg75
g777
sg68
(lp1352
g61
(g82
g63
NtRp1353
(dp1354
g66
(dp1355
g86
g87
ssg75
g1349
sg68
(lp1356
S'server_port'
p1357
asbag61
(g82
g63
NtRp1358
(dp1359
g66
(dp1360
g93
g94
ssg75
g1349
sg68
(lp1361
S':'
asbag61
(g82
g63
NtRp1362
(dp1363
g66
(dp1364
sg75
g1349
sg68
(lp1365
g61
(g62
g63
NtRp1366
(dp1367
g66
(dp1368
g74
I4
ssg75
g1362
sg68
(lp1369
S'8000'
p1370
asbasbasbag61
(g77
g63
NtRp1371
(dp1372
g66
(dp1373
sg75
g777
sg68
(lp1374
g61
(g82
g63
NtRp1375
(dp1376
g66
(dp1377
g86
g87
ssg75
g1371
sg68
(lp1378
S'server_protocol'
p1379
asbag61
(g82
g63
NtRp1380
(dp1381
g66
(dp1382
g93
g94
ssg75
g1371
sg68
(lp1383
S':'
asbag61
(g82
g63
NtRp1384
(dp1385
g66
(dp1386
sg75
g1371
sg68
(lp1387
g61
(g62
g63
NtRp1388
(dp1389
g66
(dp1390
g74
I4
ssg75
g1384
sg68
(lp1391
S'HTTP/1.1'
p1392
asbasbasbag61
(g77
g63
NtRp1393
(dp1394
g66
(dp1395
sg75
g777
sg68
(lp1396
g61
(g82
g63
NtRp1397
(dp1398
g66
(dp1399
g86
g87
ssg75
g1393
sg68
(lp1400
S'server_software'
p1401
asbag61
(g82
g63
NtRp1402
(dp1403
g66
(dp1404
g93
g94
ssg75
g1393
sg68
(lp1405
S':'
asbag61
(g82
g63
NtRp1406
(dp1407
g66
(dp1408
sg75
g1393
sg68
(lp1409
g61
(g62
g63
NtRp1410
(dp1411
g66
(dp1412
g74
I4
ssg75
g1406
sg68
(lp1413
S'Rocket 1.2.4'
p1414
asbasbasbag61
(g77
g63
NtRp1415
(dp1416
g66
(dp1417
sg75
g777
sg68
(lp1418
g61
(g82
g63
NtRp1419
(dp1420
g66
(dp1421
g86
g87
ssg75
g1415
sg68
(lp1422
S'web2py_crontype'
p1423
asbag61
(g82
g63
NtRp1424
(dp1425
g66
(dp1426
g93
g94
ssg75
g1415
sg68
(lp1427
S':'
asbag61
(g82
g63
NtRp1428
(dp1429
g66
(dp1430
sg75
g1415
sg68
(lp1431
g61
(g62
g63
NtRp1432
(dp1433
g66
(dp1434
g74
I4
ssg75
g1428
sg68
(lp1435
S'hard'
p1436
asbasbasbag61
(g77
g63
NtRp1437
(dp1438
g66
(dp1439
sg75
g777
sg68
(lp1440
g61
(g82
g63
NtRp1441
(dp1442
g66
(dp1443
g86
g87
ssg75
g1437
sg68
(lp1444
S'web2py_path'
p1445
asbag61
(g82
g63
NtRp1446
(dp1447
g66
(dp1448
g93
g94
ssg75
g1437
sg68
(lp1449
S':'
asbag61
(g82
g63
NtRp1450
(dp1451
g66
(dp1452
sg75
g1437
sg68
(lp1453
g61
(g62
g63
NtRp1454
(dp1455
g66
(dp1456
g74
I4
ssg75
g1450
sg68
(lp1457
g824
asbasbasbag61
(g77
g63
NtRp1458
(dp1459
g66
(dp1460
sg75
g777
sg68
(lp1461
g61
(g82
g63
NtRp1462
(dp1463
g66
(dp1464
g86
g87
ssg75
g1458
sg68
(lp1465
S'web2py_version'
p1466
asbag61
(g82
g63
NtRp1467
(dp1468
g66
(dp1469
g93
g94
ssg75
g1458
sg68
(lp1470
S':'
asbag61
(g82
g63
NtRp1471
(dp1472
g66
(dp1473
sg75
g1458
sg68
(lp1474
g61
(g62
g63
NtRp1475
(dp1476
g66
(dp1477
g74
I4
ssg75
g1471
sg68
(lp1478
g61
(g70
g63
NtRp1479
(dp1480
g66
(dp1481
g74
I3
ssg75
Nsg68
(lp1482
g61
(g77
g63
NtRp1483
(dp1484
g66
(dp1485
sg75
g1479
sg68
(lp1486
g61
(g82
g63
NtRp1487
(dp1488
g66
(dp1489
sg75
g1483
sg68
(lp1490
g61
(g62
g63
NtRp1491
(dp1492
g66
(dp1493
g74
I3
ssg75
g1487
sg68
(lp1494
S'1'
asbasbasbag61
(g77
g63
NtRp1495
(dp1496
g66
(dp1497
sg75
g1479
sg68
(lp1498
g61
(g82
g63
NtRp1499
(dp1500
g66
(dp1501
sg75
g1495
sg68
(lp1502
g61
(g62
g63
NtRp1503
(dp1504
g66
(dp1505
g74
I3
ssg75
g1499
sg68
(lp1506
S'99'
p1507
asbasbasbag61
(g77
g63
NtRp1508
(dp1509
g66
(dp1510
sg75
g1479
sg68
(lp1511
g61
(g82
g63
NtRp1512
(dp1513
g66
(dp1514
sg75
g1508
sg68
(lp1515
g61
(g62
g63
NtRp1516
(dp1517
g66
(dp1518
g74
I3
ssg75
g1512
sg68
(lp1519
S'7'
asbasbasbag61
(g77
g63
NtRp1520
(dp1521
g66
(dp1522
sg75
g1479
sg68
(lp1523
g61
(g82
g63
NtRp1524
(dp1525
g66
(dp1526
sg75
g1520
sg68
(lp1527
g61
(g62
g63
NtRp1528
(dp1529
g66
(dp1530
g74
I3
ssg75
g1524
sg68
(lp1531
S'datetime.datetime(2012, 3, 4, 22, 12, 8)'
p1532
asbasbasbag61
(g77
g63
NtRp1533
(dp1534
g66
(dp1535
sg75
g1479
sg68
(lp1536
g61
(g82
g63
NtRp1537
(dp1538
g66
(dp1539
sg75
g1533
sg68
(lp1540
g61
(g62
g63
NtRp1541
(dp1542
g66
(dp1543
g74
I3
ssg75
g1537
sg68
(lp1544
S'stable'
p1545
asbasbasbasbasbasbasbag61
(g77
g63
NtRp1546
(dp1547
g66
(dp1548
sg75
g777
sg68
(lp1549
g61
(g82
g63
NtRp1550
(dp1551
g66
(dp1552
g86
g87
ssg75
g1546
sg68
(lp1553
S'wsgi_errors'
p1554
asbag61
(g82
g63
NtRp1555
(dp1556
g66
(dp1557
g93
g94
ssg75
g1546
sg68
(lp1558
S':'
asbag61
(g82
g63
NtRp1559
(dp1560
g66
(dp1561
sg75
g1546
sg68
(lp1562
g61
(g62
g63
NtRp1563
(dp1564
g66
(dp1565
g74
I4
ssg75
g1559
sg68
(lp1566
S'<__main__.Stderr object at 0x00486670>'
p1567
asbasbasbag61
(g77
g63
NtRp1568
(dp1569
g66
(dp1570
sg75
g777
sg68
(lp1571
g61
(g82
g63
NtRp1572
(dp1573
g66
(dp1574
g86
g87
ssg75
g1568
sg68
(lp1575
S'wsgi_file_wrapper'
p1576
asbag61
(g82
g63
NtRp1577
(dp1578
g66
(dp1579
g93
g94
ssg75
g1568
sg68
(lp1580
S':'
asbag61
(g82
g63
NtRp1581
(dp1582
g66
(dp1583
sg75
g1568
sg68
(lp1584
g61
(g62
g63
NtRp1585
(dp1586
g66
(dp1587
g74
I4
ssg75
g1581
sg68
(lp1588
S'<class wsgiref.util.FileWrapper at 0x02E8DE10>'
p1589
asbasbasbag61
(g77
g63
NtRp1590
(dp1591
g66
(dp1592
sg75
g777
sg68
(lp1593
g61
(g82
g63
NtRp1594
(dp1595
g66
(dp1596
g86
g87
ssg75
g1590
sg68
(lp1597
S'wsgi_input'
p1598
asbag61
(g82
g63
NtRp1599
(dp1600
g66
(dp1601
g93
g94
ssg75
g1590
sg68
(lp1602
S':'
asbag61
(g82
g63
NtRp1603
(dp1604
g66
(dp1605
sg75
g1590
sg68
(lp1606
g61
(g62
g63
NtRp1607
(dp1608
g66
(dp1609
g74
I4
ssg75
g1603
sg68
(lp1610
S'<socket._fileobject object at 0x06947870>'
p1611
asbasbasbag61
(g77
g63
NtRp1612
(dp1613
g66
(dp1614
sg75
g777
sg68
(lp1615
g61
(g82
g63
NtRp1616
(dp1617
g66
(dp1618
g86
g87
ssg75
g1612
sg68
(lp1619
S'wsgi_multiprocess'
p1620
asbag61
(g82
g63
NtRp1621
(dp1622
g66
(dp1623
g93
g94
ssg75
g1612
sg68
(lp1624
S':'
asbag61
(g82
g63
NtRp1625
(dp1626
g66
(dp1627
sg75
g1612
sg68
(lp1628
g61
(g62
g63
NtRp1629
(dp1630
g66
(dp1631
g74
I4
ssg75
g1625
sg68
(lp1632
g104
asbasbasbag61
(g77
g63
NtRp1633
(dp1634
g66
(dp1635
sg75
g777
sg68
(lp1636
g61
(g82
g63
NtRp1637
(dp1638
g66
(dp1639
g86
g87
ssg75
g1633
sg68
(lp1640
S'wsgi_multithread'
p1641
asbag61
(g82
g63
NtRp1642
(dp1643
g66
(dp1644
g93
g94
ssg75
g1633
sg68
(lp1645
S':'
asbag61
(g82
g63
NtRp1646
(dp1647
g66
(dp1648
sg75
g1633
sg68
(lp1649
g61
(g62
g63
NtRp1650
(dp1651
g66
(dp1652
g74
I4
ssg75
g1646
sg68
(lp1653
S'True'
p1654
asbasbasbag61
(g77
g63
NtRp1655
(dp1656
g66
(dp1657
sg75
g777
sg68
(lp1658
g61
(g82
g63
NtRp1659
(dp1660
g66
(dp1661
g86
g87
ssg75
g1655
sg68
(lp1662
S'wsgi_run_once'
p1663
asbag61
(g82
g63
NtRp1664
(dp1665
g66
(dp1666
g93
g94
ssg75
g1655
sg68
(lp1667
S':'
asbag61
(g82
g63
NtRp1668
(dp1669
g66
(dp1670
sg75
g1655
sg68
(lp1671
g61
(g62
g63
NtRp1672
(dp1673
g66
(dp1674
g74
I4
ssg75
g1668
sg68
(lp1675
g104
asbasbasbag61
(g77
g63
NtRp1676
(dp1677
g66
(dp1678
sg75
g777
sg68
(lp1679
g61
(g82
g63
NtRp1680
(dp1681
g66
(dp1682
g86
g87
ssg75
g1676
sg68
(lp1683
S'wsgi_url_scheme'
p1684
asbag61
(g82
g63
NtRp1685
(dp1686
g66
(dp1687
g93
g94
ssg75
g1676
sg68
(lp1688
S':'
asbag61
(g82
g63
NtRp1689
(dp1690
g66
(dp1691
sg75
g1676
sg68
(lp1692
g61
(g62
g63
NtRp1693
(dp1694
g66
(dp1695
g74
I4
ssg75
g1689
sg68
(lp1696
S'http'
p1697
asbasbasbag61
(g77
g63
NtRp1698
(dp1699
g66
(dp1700
sg75
g777
sg68
(lp1701
g61
(g82
g63
NtRp1702
(dp1703
g66
(dp1704
g86
g87
ssg75
g1698
sg68
(lp1705
S'wsgi_version'
p1706
asbag61
(g82
g63
NtRp1707
(dp1708
g66
(dp1709
g93
g94
ssg75
g1698
sg68
(lp1710
S':'
asbag61
(g82
g63
NtRp1711
(dp1712
g66
(dp1713
sg75
g1698
sg68
(lp1714
g61
(g62
g63
NtRp1715
(dp1716
g66
(dp1717
g74
I4
ssg75
g1711
sg68
(lp1718
g61
(g70
g63
NtRp1719
(dp1720
g66
(dp1721
g74
I3
ssg75
Nsg68
(lp1722
g61
(g77
g63
NtRp1723
(dp1724
g66
(dp1725
sg75
g1719
sg68
(lp1726
g61
(g82
g63
NtRp1727
(dp1728
g66
(dp1729
sg75
g1723
sg68
(lp1730
g61
(g62
g63
NtRp1731
(dp1732
g66
(dp1733
g74
I3
ssg75
g1727
sg68
(lp1734
S'1'
asbasbasbag61
(g77
g63
NtRp1735
(dp1736
g66
(dp1737
sg75
g1719
sg68
(lp1738
g61
(g82
g63
NtRp1739
(dp1740
g66
(dp1741
sg75
g1735
sg68
(lp1742
g61
(g62
g63
NtRp1743
(dp1744
g66
(dp1745
g74
I3
ssg75
g1739
sg68
(lp1746
S'0'
asbasbasbasbasbasbasbasbasbasbasbag61
(g77
g63
NtRp1747
(dp1748
g66
(dp1749
sg75
g71
sg68
(lp1750
g61
(g82
g63
NtRp1751
(dp1752
g66
(dp1753
g86
g87
ssg75
g1747
sg68
(lp1754
S'extension'
p1755
asbag61
(g82
g63
NtRp1756
(dp1757
g66
(dp1758
g93
g94
ssg75
g1747
sg68
(lp1759
S':'
asbag61
(g82
g63
NtRp1760
(dp1761
g66
(dp1762
sg75
g1747
sg68
(lp1763
g61
(g62
g63
NtRp1764
(dp1765
g66
(dp1766
g74
I5
ssg75
g1760
sg68
(lp1767
S'html'
p1768
asbasbasbag61
(g77
g63
NtRp1769
(dp1770
g66
(dp1771
sg75
g71
sg68
(lp1772
g61
(g82
g63
NtRp1773
(dp1774
g66
(dp1775
g86
g87
ssg75
g1769
sg68
(lp1776
S'folder'
p1777
asbag61
(g82
g63
NtRp1778
(dp1779
g66
(dp1780
g93
g94
ssg75
g1769
sg68
(lp1781
S':'
asbag61
(g82
g63
NtRp1782
(dp1783
g66
(dp1784
sg75
g1769
sg68
(lp1785
g61
(g62
g63
NtRp1786
(dp1787
g66
(dp1788
g74
I5
ssg75
g1782
sg68
(lp1789
S'C:\\web2py\\applications\\unioeste_code\\'
p1790
asbasbasbag61
(g77
g63
NtRp1791
(dp1792
g66
(dp1793
sg75
g71
sg68
(lp1794
g61
(g82
g63
NtRp1795
(dp1796
g66
(dp1797
g86
g87
ssg75
g1791
sg68
(lp1798
S'function'
p1799
asbag61
(g82
g63
NtRp1800
(dp1801
g66
(dp1802
g93
g94
ssg75
g1791
sg68
(lp1803
S':'
asbag61
(g82
g63
NtRp1804
(dp1805
g66
(dp1806
sg75
g1791
sg68
(lp1807
g61
(g62
g63
NtRp1808
(dp1809
g66
(dp1810
g74
I5
ssg75
g1804
sg68
(lp1811
S'showProblem'
p1812
asbasbasbag61
(g77
g63
NtRp1813
(dp1814
g66
(dp1815
sg75
g71
sg68
(lp1816
g61
(g82
g63
NtRp1817
(dp1818
g66
(dp1819
g86
g87
ssg75
g1813
sg68
(lp1820
S'get_vars'
p1821
asbag61
(g82
g63
NtRp1822
(dp1823
g66
(dp1824
g93
g94
ssg75
g1813
sg68
(lp1825
S':'
asbag61
(g82
g63
NtRp1826
(dp1827
g66
(dp1828
sg75
g1813
sg68
(lp1829
g61
(g62
g63
NtRp1830
(dp1831
g66
(dp1832
g74
I5
ssg75
g1826
sg68
(lp1833
g61
(g70
g63
NtRp1834
(dp1835
g66
(dp1836
g74
I4
ssg75
Nsg68
(lp1837
sbasbasbasbag61
(g77
g63
NtRp1838
(dp1839
g66
(dp1840
sg75
g71
sg68
(lp1841
g61
(g82
g63
NtRp1842
(dp1843
g66
(dp1844
g86
g87
ssg75
g1838
sg68
(lp1845
S'global_settings'
p1846
asbag61
(g82
g63
NtRp1847
(dp1848
g66
(dp1849
g93
g94
ssg75
g1838
sg68
(lp1850
S':'
asbag61
(g82
g63
NtRp1851
(dp1852
g66
(dp1853
sg75
g1838
sg68
(lp1854
g61
(g62
g63
NtRp1855
(dp1856
g66
(dp1857
g74
I5
ssg75
g1851
sg68
(lp1858
g61
(g70
g63
NtRp1859
(dp1860
g66
(dp1861
g74
I4
ssg75
Nsg68
(lp1862
g61
(g77
g63
NtRp1863
(dp1864
g66
(dp1865
sg75
g1859
sg68
(lp1866
g61
(g82
g63
NtRp1867
(dp1868
g66
(dp1869
g86
g87
ssg75
g1863
sg68
(lp1870
g789
asbag61
(g82
g63
NtRp1871
(dp1872
g66
(dp1873
g93
g94
ssg75
g1863
sg68
(lp1874
S':'
asbag61
(g82
g63
NtRp1875
(dp1876
g66
(dp1877
sg75
g1863
sg68
(lp1878
g61
(g62
g63
NtRp1879
(dp1880
g66
(dp1881
g74
I4
ssg75
g1875
sg68
(lp1882
S"set(['C:\\\\web2py\\\\applications\\\\admin\\\\', 'C:\\\\web2py\\\\applications\\\\welcome\\\\', 'C:\\\\web2py\\\\applications\\\\unioeste_code\\\\'])"
p1883
asbasbasbag61
(g77
g63
NtRp1884
(dp1885
g66
(dp1886
sg75
g1859
sg68
(lp1887
g61
(g82
g63
NtRp1888
(dp1889
g66
(dp1890
g86
g87
ssg75
g1884
sg68
(lp1891
g811
asbag61
(g82
g63
NtRp1892
(dp1893
g66
(dp1894
g93
g94
ssg75
g1884
sg68
(lp1895
S':'
asbag61
(g82
g63
NtRp1896
(dp1897
g66
(dp1898
sg75
g1884
sg68
(lp1899
g61
(g62
g63
NtRp1900
(dp1901
g66
(dp1902
g74
I4
ssg75
g1896
sg68
(lp1903
g824
asbasbasbag61
(g77
g63
NtRp1904
(dp1905
g66
(dp1906
sg75
g1859
sg68
(lp1907
g61
(g82
g63
NtRp1908
(dp1909
g66
(dp1910
g86
g87
ssg75
g1904
sg68
(lp1911
g833
asbag61
(g82
g63
NtRp1912
(dp1913
g66
(dp1914
g93
g94
ssg75
g1904
sg68
(lp1915
S':'
asbag61
(g82
g63
NtRp1916
(dp1917
g66
(dp1918
sg75
g1904
sg68
(lp1919
g61
(g62
g63
NtRp1920
(dp1921
g66
(dp1922
g74
I4
ssg75
g1916
sg68
(lp1923
g61
(g70
g63
NtRp1924
(dp1925
g66
(dp1926
g74
I3
ssg75
Nsg68
(lp1927
sbasbasbasbag61
(g77
g63
NtRp1928
(dp1929
g66
(dp1930
sg75
g1859
sg68
(lp1931
g61
(g82
g63
NtRp1932
(dp1933
g66
(dp1934
g86
g87
ssg75
g1928
sg68
(lp1935
g858
asbag61
(g82
g63
NtRp1936
(dp1937
g66
(dp1938
g93
g94
ssg75
g1928
sg68
(lp1939
S':'
asbag61
(g82
g63
NtRp1940
(dp1941
g66
(dp1942
sg75
g1928
sg68
(lp1943
g61
(g62
g63
NtRp1944
(dp1945
g66
(dp1946
g74
I4
ssg75
g1940
sg68
(lp1947
S"<Values at 0x309c300: {'verbose': False, 'ip': '127.0.0.1', 'shutdown_timeout': 5, 'taskbar': False, 'nocron': False, 'pid_filename': 'httpserver.pid', 'maxthreads': None, 'softcron': False, 'server_name': 'Pedro-PC', 'bpython': False, 'nogui': False, 'port': 8000, 'extcron': False, 'debuglevel': 30, 'test': None, 'folder': 'C:\\\\web2py', 'config': '', 'import_models': False, 'winservice': '', 'shell': None, 'run': '', 'log_filename': 'httpserver.log', 'args': [''], 'socket_timeout': 5, 'ssl_ca_certificate': None, 'scheduler': None, 'profiler_filename': None, 'ssl_private_key': '', 'password': '<ask>', 'request_queue_size': 5, 'ssl_certificate': '', 'cronjob': False, 'numthreads': None, 'quiet': False, 'interfaces': None, 'minthreads': None, 'timeout': 10, 'plain': False, 'nobanner': False}>"
p1948
asbasbasbag61
(g77
g63
NtRp1949
(dp1950
g66
(dp1951
sg75
g1859
sg68
(lp1952
g61
(g82
g63
NtRp1953
(dp1954
g66
(dp1955
g86
g87
ssg75
g1949
sg68
(lp1956
g880
asbag61
(g82
g63
NtRp1957
(dp1958
g66
(dp1959
g93
g94
ssg75
g1949
sg68
(lp1960
S':'
asbag61
(g82
g63
NtRp1961
(dp1962
g66
(dp1963
sg75
g1949
sg68
(lp1964
g61
(g62
g63
NtRp1965
(dp1966
g66
(dp1967
g74
I4
ssg75
g1961
sg68
(lp1968
S'set([])'
p1969
asbasbasbag61
(g77
g63
NtRp1970
(dp1971
g66
(dp1972
sg75
g1859
sg68
(lp1973
g61
(g82
g63
NtRp1974
(dp1975
g66
(dp1976
g86
g87
ssg75
g1970
sg68
(lp1977
g902
asbag61
(g82
g63
NtRp1978
(dp1979
g66
(dp1980
g93
g94
ssg75
g1970
sg68
(lp1981
S':'
asbag61
(g82
g63
NtRp1982
(dp1983
g66
(dp1984
sg75
g1970
sg68
(lp1985
g61
(g62
g63
NtRp1986
(dp1987
g66
(dp1988
g74
I4
ssg75
g1982
sg68
(lp1989
g104
asbasbasbag61
(g77
g63
NtRp1990
(dp1991
g66
(dp1992
sg75
g1859
sg68
(lp1993
g61
(g82
g63
NtRp1994
(dp1995
g66
(dp1996
g86
g87
ssg75
g1990
sg68
(lp1997
g923
asbag61
(g82
g63
NtRp1998
(dp1999
g66
(dp2000
g93
g94
ssg75
g1990
sg68
(lp2001
S':'
asbag61
(g82
g63
NtRp2002
(dp2003
g66
(dp2004
sg75
g1990
sg68
(lp2005
g61
(g62
g63
NtRp2006
(dp2007
g66
(dp2008
g74
I4
ssg75
g2002
sg68
(lp2009
g936
asbasbasbag61
(g77
g63
NtRp2010
(dp2011
g66
(dp2012
sg75
g1859
sg68
(lp2013
g61
(g82
g63
NtRp2014
(dp2015
g66
(dp2016
g86
g87
ssg75
g2010
sg68
(lp2017
g1164
asbag61
(g82
g63
NtRp2018
(dp2019
g66
(dp2020
g93
g94
ssg75
g2010
sg68
(lp2021
S':'
asbag61
(g82
g63
NtRp2022
(dp2023
g66
(dp2024
sg75
g2010
sg68
(lp2025
g61
(g62
g63
NtRp2026
(dp2027
g66
(dp2028
g74
I4
ssg75
g2022
sg68
(lp2029
g104
asbasbasbag61
(g77
g63
NtRp2030
(dp2031
g66
(dp2032
sg75
g1859
sg68
(lp2033
g61
(g82
g63
NtRp2034
(dp2035
g66
(dp2036
g86
g87
ssg75
g2030
sg68
(lp2037
g1185
asbag61
(g82
g63
NtRp2038
(dp2039
g66
(dp2040
g93
g94
ssg75
g2030
sg68
(lp2041
S':'
asbag61
(g82
g63
NtRp2042
(dp2043
g66
(dp2044
sg75
g2030
sg68
(lp2045
g61
(g62
g63
NtRp2046
(dp2047
g66
(dp2048
g74
I4
ssg75
g2042
sg68
(lp2049
g104
asbasbasbag61
(g77
g63
NtRp2050
(dp2051
g66
(dp2052
sg75
g1859
sg68
(lp2053
g61
(g82
g63
NtRp2054
(dp2055
g66
(dp2056
g86
g87
ssg75
g2050
sg68
(lp2057
g1423
asbag61
(g82
g63
NtRp2058
(dp2059
g66
(dp2060
g93
g94
ssg75
g2050
sg68
(lp2061
S':'
asbag61
(g82
g63
NtRp2062
(dp2063
g66
(dp2064
sg75
g2050
sg68
(lp2065
g61
(g62
g63
NtRp2066
(dp2067
g66
(dp2068
g74
I4
ssg75
g2062
sg68
(lp2069
g1436
asbasbasbag61
(g77
g63
NtRp2070
(dp2071
g66
(dp2072
sg75
g1859
sg68
(lp2073
g61
(g82
g63
NtRp2074
(dp2075
g66
(dp2076
g86
g87
ssg75
g2070
sg68
(lp2077
g1466
asbag61
(g82
g63
NtRp2078
(dp2079
g66
(dp2080
g93
g94
ssg75
g2070
sg68
(lp2081
S':'
asbag61
(g82
g63
NtRp2082
(dp2083
g66
(dp2084
sg75
g2070
sg68
(lp2085
g61
(g62
g63
NtRp2086
(dp2087
g66
(dp2088
g74
I4
ssg75
g2082
sg68
(lp2089
g61
(g70
g63
NtRp2090
(dp2091
g66
(dp2092
g74
I3
ssg75
Nsg68
(lp2093
g61
(g77
g63
NtRp2094
(dp2095
g66
(dp2096
sg75
g2090
sg68
(lp2097
g61
(g82
g63
NtRp2098
(dp2099
g66
(dp2100
sg75
g2094
sg68
(lp2101
g61
(g62
g63
NtRp2102
(dp2103
g66
(dp2104
g74
I3
ssg75
g2098
sg68
(lp2105
S'1'
asbasbasbag61
(g77
g63
NtRp2106
(dp2107
g66
(dp2108
sg75
g2090
sg68
(lp2109
g61
(g82
g63
NtRp2110
(dp2111
g66
(dp2112
sg75
g2106
sg68
(lp2113
g61
(g62
g63
NtRp2114
(dp2115
g66
(dp2116
g74
I3
ssg75
g2110
sg68
(lp2117
S'99'
p2118
asbasbasbag61
(g77
g63
NtRp2119
(dp2120
g66
(dp2121
sg75
g2090
sg68
(lp2122
g61
(g82
g63
NtRp2123
(dp2124
g66
(dp2125
sg75
g2119
sg68
(lp2126
g61
(g62
g63
NtRp2127
(dp2128
g66
(dp2129
g74
I3
ssg75
g2123
sg68
(lp2130
S'7'
asbasbasbag61
(g77
g63
NtRp2131
(dp2132
g66
(dp2133
sg75
g2090
sg68
(lp2134
g61
(g82
g63
NtRp2135
(dp2136
g66
(dp2137
sg75
g2131
sg68
(lp2138
g61
(g62
g63
NtRp2139
(dp2140
g66
(dp2141
g74
I3
ssg75
g2135
sg68
(lp2142
S'datetime.datetime(2012, 3, 4, 22, 12, 8)'
p2143
asbasbasbag61
(g77
g63
NtRp2144
(dp2145
g66
(dp2146
sg75
g2090
sg68
(lp2147
g61
(g82
g63
NtRp2148
(dp2149
g66
(dp2150
sg75
g2144
sg68
(lp2151
g61
(g62
g63
NtRp2152
(dp2153
g66
(dp2154
g74
I3
ssg75
g2148
sg68
(lp2155
g1545
asbasbasbasbasbasbasbasbasbasbasbag61
(g77
g63
NtRp2156
(dp2157
g66
(dp2158
sg75
g71
sg68
(lp2159
g61
(g82
g63
NtRp2160
(dp2161
g66
(dp2162
g86
g87
ssg75
g2156
sg68
(lp2163
S'is_https'
p2164
asbag61
(g82
g63
NtRp2165
(dp2166
g66
(dp2167
g93
g94
ssg75
g2156
sg68
(lp2168
S':'
asbag61
(g82
g63
NtRp2169
(dp2170
g66
(dp2171
sg75
g2156
sg68
(lp2172
g61
(g62
g63
NtRp2173
(dp2174
g66
(dp2175
g74
I5
ssg75
g2169
sg68
(lp2176
g104
asbasbasbag61
(g77
g63
NtRp2177
(dp2178
g66
(dp2179
sg75
g71
sg68
(lp2180
g61
(g82
g63
NtRp2181
(dp2182
g66
(dp2183
g86
g87
ssg75
g2177
sg68
(lp2184
S'is_local'
p2185
asbag61
(g82
g63
NtRp2186
(dp2187
g66
(dp2188
g93
g94
ssg75
g2177
sg68
(lp2189
S':'
asbag61
(g82
g63
NtRp2190
(dp2191
g66
(dp2192
sg75
g2177
sg68
(lp2193
g61
(g62
g63
NtRp2194
(dp2195
g66
(dp2196
g74
I5
ssg75
g2190
sg68
(lp2197
g1654
asbasbasbag61
(g77
g63
NtRp2198
(dp2199
g66
(dp2200
sg75
g71
sg68
(lp2201
g61
(g82
g63
NtRp2202
(dp2203
g66
(dp2204
g86
g87
ssg75
g2198
sg68
(lp2205
S'is_restful'
p2206
asbag61
(g82
g63
NtRp2207
(dp2208
g66
(dp2209
g93
g94
ssg75
g2198
sg68
(lp2210
S':'
asbag61
(g82
g63
NtRp2211
(dp2212
g66
(dp2213
sg75
g2198
sg68
(lp2214
g61
(g62
g63
NtRp2215
(dp2216
g66
(dp2217
g74
I5
ssg75
g2211
sg68
(lp2218
g104
asbasbasbag61
(g77
g63
NtRp2219
(dp2220
g66
(dp2221
sg75
g71
sg68
(lp2222
g61
(g82
g63
NtRp2223
(dp2224
g66
(dp2225
g86
g87
ssg75
g2219
sg68
(lp2226
S'now'
p2227
asbag61
(g82
g63
NtRp2228
(dp2229
g66
(dp2230
g93
g94
ssg75
g2219
sg68
(lp2231
S':'
asbag61
(g82
g63
NtRp2232
(dp2233
g66
(dp2234
sg75
g2219
sg68
(lp2235
g61
(g62
g63
NtRp2236
(dp2237
g66
(dp2238
g74
I5
ssg75
g2232
sg68
(lp2239
S'datetime.datetime(2012, 7, 29, 23, 51, 52, 465000)'
p2240
asbasbasbag61
(g77
g63
NtRp2241
(dp2242
g66
(dp2243
sg75
g71
sg68
(lp2244
g61
(g82
g63
NtRp2245
(dp2246
g66
(dp2247
g86
g87
ssg75
g2241
sg68
(lp2248
S'post_vars'
p2249
asbag61
(g82
g63
NtRp2250
(dp2251
g66
(dp2252
g93
g94
ssg75
g2241
sg68
(lp2253
S':'
asbag61
(g82
g63
NtRp2254
(dp2255
g66
(dp2256
sg75
g2241
sg68
(lp2257
g61
(g62
g63
NtRp2258
(dp2259
g66
(dp2260
g74
I5
ssg75
g2254
sg68
(lp2261
g61
(g70
g63
NtRp2262
(dp2263
g66
(dp2264
g74
I4
ssg75
Nsg68
(lp2265
sbasbasbasbag61
(g77
g63
NtRp2266
(dp2267
g66
(dp2268
sg75
g71
sg68
(lp2269
g61
(g82
g63
NtRp2270
(dp2271
g66
(dp2272
g86
g87
ssg75
g2266
sg68
(lp2273
S'raw_args'
p2274
asbag61
(g82
g63
NtRp2275
(dp2276
g66
(dp2277
g93
g94
ssg75
g2266
sg68
(lp2278
S':'
asbag61
(g82
g63
NtRp2279
(dp2280
g66
(dp2281
sg75
g2266
sg68
(lp2282
g61
(g62
g63
NtRp2283
(dp2284
g66
(dp2285
g74
I5
ssg75
g2279
sg68
(lp2286
S'1'
asbasbasbag61
(g77
g63
NtRp2287
(dp2288
g66
(dp2289
sg75
g71
sg68
(lp2290
g61
(g82
g63
NtRp2291
(dp2292
g66
(dp2293
g86
g87
ssg75
g2287
sg68
(lp2294
S'url'
p2295
asbag61
(g82
g63
NtRp2296
(dp2297
g66
(dp2298
g93
g94
ssg75
g2287
sg68
(lp2299
S':'
asbag61
(g82
g63
NtRp2300
(dp2301
g66
(dp2302
sg75
g2287
sg68
(lp2303
g61
(g62
g63
NtRp2304
(dp2305
g66
(dp2306
g74
I5
ssg75
g2300
sg68
(lp2307
S'/unioeste_code/default/showProblem/1'
p2308
asbasbasbag61
(g77
g63
NtRp2309
(dp2310
g66
(dp2311
sg75
g71
sg68
(lp2312
g61
(g82
g63
NtRp2313
(dp2314
g66
(dp2315
g86
g87
ssg75
g2309
sg68
(lp2316
S'utcnow'
p2317
asbag61
(g82
g63
NtRp2318
(dp2319
g66
(dp2320
g93
g94
ssg75
g2309
sg68
(lp2321
S':'
asbag61
(g82
g63
NtRp2322
(dp2323
g66
(dp2324
sg75
g2309
sg68
(lp2325
g61
(g62
g63
NtRp2326
(dp2327
g66
(dp2328
g74
I5
ssg75
g2322
sg68
(lp2329
S'datetime.datetime(2012, 7, 30, 2, 51, 52, 466000)'
p2330
asbasbasbag61
(g77
g63
NtRp2331
(dp2332
g66
(dp2333
sg75
g71
sg68
(lp2334
g61
(g82
g63
NtRp2335
(dp2336
g66
(dp2337
g86
g87
ssg75
g2331
sg68
(lp2338
S'uuid'
p2339
asbag61
(g82
g63
NtRp2340
(dp2341
g66
(dp2342
g93
g94
ssg75
g2331
sg68
(lp2343
S':'
asbag61
(g82
g63
NtRp2344
(dp2345
g66
(dp2346
sg75
g2331
sg68
(lp2347
g61
(g62
g63
NtRp2348
(dp2349
g66
(dp2350
g74
I5
ssg75
g2344
sg68
(lp2351
S'unioeste_code/127.0.0.1.2012-07-29.23-51-52.509239dc-7d53-4b39-8fa6-fa3eef880a07'
p2352
asbasbasbag61
(g77
g63
NtRp2353
(dp2354
g66
(dp2355
sg75
g71
sg68
(lp2356
g61
(g82
g63
NtRp2357
(dp2358
g66
(dp2359
g86
g87
ssg75
g2353
sg68
(lp2360
S'vars'
p2361
asbag61
(g82
g63
NtRp2362
(dp2363
g66
(dp2364
g93
g94
ssg75
g2353
sg68
(lp2365
S':'
asbag61
(g82
g63
NtRp2366
(dp2367
g66
(dp2368
sg75
g2353
sg68
(lp2369
g61
(g62
g63
NtRp2370
(dp2371
g66
(dp2372
g74
I5
ssg75
g2366
sg68
(lp2373
g61
(g70
g63
NtRp2374
(dp2375
g66
(dp2376
g74
I4
ssg75
Nsg68
(lp2377
sbasbasbasbag61
(g77
g63
NtRp2378
(dp2379
g66
(dp2380
sg75
g71
sg68
(lp2381
g61
(g82
g63
NtRp2382
(dp2383
g66
(dp2384
g86
g87
ssg75
g2378
sg68
(lp2385
S'wsgi'
p2386
asbag61
(g82
g63
NtRp2387
(dp2388
g66
(dp2389
g93
g94
ssg75
g2378
sg68
(lp2390
S':'
asbag61
(g82
g63
NtRp2391
(dp2392
g66
(dp2393
sg75
g2378
sg68
(lp2394
g61
(g62
g63
NtRp2395
(dp2396
g66
(dp2397
g74
I5
ssg75
g2391
sg68
(lp2398
g61
(g70
g63
NtRp2399
(dp2400
g66
(dp2401
g74
I4
ssg75
Nsg68
(lp2402
g61
(g77
g63
NtRp2403
(dp2404
g66
(dp2405
sg75
g2399
sg68
(lp2406
g61
(g82
g63
NtRp2407
(dp2408
g66
(dp2409
g86
g87
ssg75
g2403
sg68
(lp2410
S'environ'
p2411
asbag61
(g82
g63
NtRp2412
(dp2413
g66
(dp2414
g93
g94
ssg75
g2403
sg68
(lp2415
S':'
asbag61
(g82
g63
NtRp2416
(dp2417
g66
(dp2418
sg75
g2403
sg68
(lp2419
g61
(g62
g63
NtRp2420
(dp2421
g66
(dp2422
g74
I4
ssg75
g2416
sg68
(lp2423
g61
(g70
g63
NtRp2424
(dp2425
g66
(dp2426
g74
I3
ssg75
Nsg68
(lp2427
g61
(g77
g63
NtRp2428
(dp2429
g66
(dp2430
sg75
g2424
sg68
(lp2431
g61
(g82
g63
NtRp2432
(dp2433
g66
(dp2434
g86
g87
ssg75
g2428
sg68
(lp2435
S'HTTP_ACCEPT'
p2436
asbag61
(g82
g63
NtRp2437
(dp2438
g66
(dp2439
g93
g94
ssg75
g2428
sg68
(lp2440
S':'
asbag61
(g82
g63
NtRp2441
(dp2442
g66
(dp2443
sg75
g2428
sg68
(lp2444
g61
(g62
g63
NtRp2445
(dp2446
g66
(dp2447
g74
I3
ssg75
g2441
sg68
(lp2448
g958
asbasbasbag61
(g77
g63
NtRp2449
(dp2450
g66
(dp2451
sg75
g2424
sg68
(lp2452
g61
(g82
g63
NtRp2453
(dp2454
g66
(dp2455
g86
g87
ssg75
g2449
sg68
(lp2456
S'HTTP_ACCEPT_CHARSET'
p2457
asbag61
(g82
g63
NtRp2458
(dp2459
g66
(dp2460
g93
g94
ssg75
g2449
sg68
(lp2461
S':'
asbag61
(g82
g63
NtRp2462
(dp2463
g66
(dp2464
sg75
g2449
sg68
(lp2465
g61
(g62
g63
NtRp2466
(dp2467
g66
(dp2468
g74
I3
ssg75
g2462
sg68
(lp2469
g980
asbasbasbag61
(g77
g63
NtRp2470
(dp2471
g66
(dp2472
sg75
g2424
sg68
(lp2473
g61
(g82
g63
NtRp2474
(dp2475
g66
(dp2476
g86
g87
ssg75
g2470
sg68
(lp2477
S'HTTP_ACCEPT_ENCODING'
p2478
asbag61
(g82
g63
NtRp2479
(dp2480
g66
(dp2481
g93
g94
ssg75
g2470
sg68
(lp2482
S':'
asbag61
(g82
g63
NtRp2483
(dp2484
g66
(dp2485
sg75
g2470
sg68
(lp2486
g61
(g62
g63
NtRp2487
(dp2488
g66
(dp2489
g74
I3
ssg75
g2483
sg68
(lp2490
g1002
asbasbasbag61
(g77
g63
NtRp2491
(dp2492
g66
(dp2493
sg75
g2424
sg68
(lp2494
g61
(g82
g63
NtRp2495
(dp2496
g66
(dp2497
g86
g87
ssg75
g2491
sg68
(lp2498
S'HTTP_ACCEPT_LANGUAGE'
p2499
asbag61
(g82
g63
NtRp2500
(dp2501
g66
(dp2502
g93
g94
ssg75
g2491
sg68
(lp2503
S':'
asbag61
(g82
g63
NtRp2504
(dp2505
g66
(dp2506
sg75
g2491
sg68
(lp2507
g61
(g62
g63
NtRp2508
(dp2509
g66
(dp2510
g74
I3
ssg75
g2504
sg68
(lp2511
g1024
asbasbasbag61
(g77
g63
NtRp2512
(dp2513
g66
(dp2514
sg75
g2424
sg68
(lp2515
g61
(g82
g63
NtRp2516
(dp2517
g66
(dp2518
g86
g87
ssg75
g2512
sg68
(lp2519
S'HTTP_CACHE_CONTROL'
p2520
asbag61
(g82
g63
NtRp2521
(dp2522
g66
(dp2523
g93
g94
ssg75
g2512
sg68
(lp2524
S':'
asbag61
(g82
g63
NtRp2525
(dp2526
g66
(dp2527
sg75
g2512
sg68
(lp2528
g61
(g62
g63
NtRp2529
(dp2530
g66
(dp2531
g74
I3
ssg75
g2525
sg68
(lp2532
g1046
asbasbasbag61
(g77
g63
NtRp2533
(dp2534
g66
(dp2535
sg75
g2424
sg68
(lp2536
g61
(g82
g63
NtRp2537
(dp2538
g66
(dp2539
g86
g87
ssg75
g2533
sg68
(lp2540
S'HTTP_CONNECTION'
p2541
asbag61
(g82
g63
NtRp2542
(dp2543
g66
(dp2544
g93
g94
ssg75
g2533
sg68
(lp2545
S':'
asbag61
(g82
g63
NtRp2546
(dp2547
g66
(dp2548
sg75
g2533
sg68
(lp2549
g61
(g62
g63
NtRp2550
(dp2551
g66
(dp2552
g74
I3
ssg75
g2546
sg68
(lp2553
g1068
asbasbasbag61
(g77
g63
NtRp2554
(dp2555
g66
(dp2556
sg75
g2424
sg68
(lp2557
g61
(g82
g63
NtRp2558
(dp2559
g66
(dp2560
g86
g87
ssg75
g2554
sg68
(lp2561
S'HTTP_COOKIE'
p2562
asbag61
(g82
g63
NtRp2563
(dp2564
g66
(dp2565
g93
g94
ssg75
g2554
sg68
(lp2566
S':'
asbag61
(g82
g63
NtRp2567
(dp2568
g66
(dp2569
sg75
g2554
sg68
(lp2570
g61
(g62
g63
NtRp2571
(dp2572
g66
(dp2573
g74
I3
ssg75
g2567
sg68
(lp2574
g1090
asbasbasbag61
(g77
g63
NtRp2575
(dp2576
g66
(dp2577
sg75
g2424
sg68
(lp2578
g61
(g82
g63
NtRp2579
(dp2580
g66
(dp2581
g86
g87
ssg75
g2575
sg68
(lp2582
S'HTTP_DNT'
p2583
asbag61
(g82
g63
NtRp2584
(dp2585
g66
(dp2586
g93
g94
ssg75
g2575
sg68
(lp2587
S':'
asbag61
(g82
g63
NtRp2588
(dp2589
g66
(dp2590
sg75
g2575
sg68
(lp2591
g61
(g62
g63
NtRp2592
(dp2593
g66
(dp2594
g74
I3
ssg75
g2588
sg68
(lp2595
S'1'
asbasbasbag61
(g77
g63
NtRp2596
(dp2597
g66
(dp2598
sg75
g2424
sg68
(lp2599
g61
(g82
g63
NtRp2600
(dp2601
g66
(dp2602
g86
g87
ssg75
g2596
sg68
(lp2603
S'HTTP_HOST'
p2604
asbag61
(g82
g63
NtRp2605
(dp2606
g66
(dp2607
g93
g94
ssg75
g2596
sg68
(lp2608
S':'
asbag61
(g82
g63
NtRp2609
(dp2610
g66
(dp2611
sg75
g2596
sg68
(lp2612
g61
(g62
g63
NtRp2613
(dp2614
g66
(dp2615
g74
I3
ssg75
g2609
sg68
(lp2616
g1133
asbasbasbag61
(g77
g63
NtRp2617
(dp2618
g66
(dp2619
sg75
g2424
sg68
(lp2620
g61
(g82
g63
NtRp2621
(dp2622
g66
(dp2623
g86
g87
ssg75
g2617
sg68
(lp2624
S'HTTP_USER_AGENT'
p2625
asbag61
(g82
g63
NtRp2626
(dp2627
g66
(dp2628
g93
g94
ssg75
g2617
sg68
(lp2629
S':'
asbag61
(g82
g63
NtRp2630
(dp2631
g66
(dp2632
sg75
g2617
sg68
(lp2633
g61
(g62
g63
NtRp2634
(dp2635
g66
(dp2636
g74
I3
ssg75
g2630
sg68
(lp2637
g1155
asbasbasbag61
(g77
g63
NtRp2638
(dp2639
g66
(dp2640
sg75
g2424
sg68
(lp2641
g61
(g82
g63
NtRp2642
(dp2643
g66
(dp2644
g86
g87
ssg75
g2638
sg68
(lp2645
S'PATH_INFO'
p2646
asbag61
(g82
g63
NtRp2647
(dp2648
g66
(dp2649
g93
g94
ssg75
g2638
sg68
(lp2650
S':'
asbag61
(g82
g63
NtRp2651
(dp2652
g66
(dp2653
sg75
g2638
sg68
(lp2654
g61
(g62
g63
NtRp2655
(dp2656
g66
(dp2657
g74
I3
ssg75
g2651
sg68
(lp2658
g1219
asbasbasbag61
(g77
g63
NtRp2659
(dp2660
g66
(dp2661
sg75
g2424
sg68
(lp2662
g61
(g82
g63
NtRp2663
(dp2664
g66
(dp2665
g86
g87
ssg75
g2659
sg68
(lp2666
S'QUERY_STRING'
p2667
asbag61
(g82
g63
NtRp2668
(dp2669
g66
(dp2670
g93
g94
ssg75
g2659
sg68
(lp2671
S':'
asbag61
(g82
g63
NtRp2672
(dp2673
g66
(dp2674
sg75
g2659
sg68
(lp2675
g61
(g62
g63
NtRp2676
(dp2677
g66
(dp2678
g74
I3
ssg75
g2672
sg68
(lp2679
S''
asbasbasbag61
(g77
g63
NtRp2680
(dp2681
g66
(dp2682
sg75
g2424
sg68
(lp2683
g61
(g82
g63
NtRp2684
(dp2685
g66
(dp2686
g86
g87
ssg75
g2680
sg68
(lp2687
S'REMOTE_ADDR'
p2688
asbag61
(g82
g63
NtRp2689
(dp2690
g66
(dp2691
g93
g94
ssg75
g2680
sg68
(lp2692
S':'
asbag61
(g82
g63
NtRp2693
(dp2694
g66
(dp2695
sg75
g2680
sg68
(lp2696
g61
(g62
g63
NtRp2697
(dp2698
g66
(dp2699
g74
I3
ssg75
g2693
sg68
(lp2700
g206
asbasbasbag61
(g77
g63
NtRp2701
(dp2702
g66
(dp2703
sg75
g2424
sg68
(lp2704
g61
(g82
g63
NtRp2705
(dp2706
g66
(dp2707
g86
g87
ssg75
g2701
sg68
(lp2708
S'REMOTE_PORT'
p2709
asbag61
(g82
g63
NtRp2710
(dp2711
g66
(dp2712
g93
g94
ssg75
g2701
sg68
(lp2713
S':'
asbag61
(g82
g63
NtRp2714
(dp2715
g66
(dp2716
sg75
g2701
sg68
(lp2717
g61
(g62
g63
NtRp2718
(dp2719
g66
(dp2720
g74
I3
ssg75
g2714
sg68
(lp2721
g1283
asbasbasbag61
(g77
g63
NtRp2722
(dp2723
g66
(dp2724
sg75
g2424
sg68
(lp2725
g61
(g82
g63
NtRp2726
(dp2727
g66
(dp2728
g86
g87
ssg75
g2722
sg68
(lp2729
S'REQUEST_METHOD'
p2730
asbag61
(g82
g63
NtRp2731
(dp2732
g66
(dp2733
g93
g94
ssg75
g2722
sg68
(lp2734
S':'
asbag61
(g82
g63
NtRp2735
(dp2736
g66
(dp2737
sg75
g2722
sg68
(lp2738
g61
(g62
g63
NtRp2739
(dp2740
g66
(dp2741
g74
I3
ssg75
g2735
sg68
(lp2742
g1305
asbasbasbag61
(g77
g63
NtRp2743
(dp2744
g66
(dp2745
sg75
g2424
sg68
(lp2746
g61
(g82
g63
NtRp2747
(dp2748
g66
(dp2749
g86
g87
ssg75
g2743
sg68
(lp2750
S'SCRIPT_NAME'
p2751
asbag61
(g82
g63
NtRp2752
(dp2753
g66
(dp2754
g93
g94
ssg75
g2743
sg68
(lp2755
S':'
asbag61
(g82
g63
NtRp2756
(dp2757
g66
(dp2758
sg75
g2743
sg68
(lp2759
g61
(g62
g63
NtRp2760
(dp2761
g66
(dp2762
g74
I3
ssg75
g2756
sg68
(lp2763
S''
asbasbasbag61
(g77
g63
NtRp2764
(dp2765
g66
(dp2766
sg75
g2424
sg68
(lp2767
g61
(g82
g63
NtRp2768
(dp2769
g66
(dp2770
g86
g87
ssg75
g2764
sg68
(lp2771
S'SERVER_NAME'
p2772
asbag61
(g82
g63
NtRp2773
(dp2774
g66
(dp2775
g93
g94
ssg75
g2764
sg68
(lp2776
S':'
asbag61
(g82
g63
NtRp2777
(dp2778
g66
(dp2779
sg75
g2764
sg68
(lp2780
g61
(g62
g63
NtRp2781
(dp2782
g66
(dp2783
g74
I3
ssg75
g2777
sg68
(lp2784
g1348
asbasbasbag61
(g77
g63
NtRp2785
(dp2786
g66
(dp2787
sg75
g2424
sg68
(lp2788
g61
(g82
g63
NtRp2789
(dp2790
g66
(dp2791
g86
g87
ssg75
g2785
sg68
(lp2792
S'SERVER_PORT'
p2793
asbag61
(g82
g63
NtRp2794
(dp2795
g66
(dp2796
g93
g94
ssg75
g2785
sg68
(lp2797
S':'
asbag61
(g82
g63
NtRp2798
(dp2799
g66
(dp2800
sg75
g2785
sg68
(lp2801
g61
(g62
g63
NtRp2802
(dp2803
g66
(dp2804
g74
I3
ssg75
g2798
sg68
(lp2805
g1370
asbasbasbag61
(g77
g63
NtRp2806
(dp2807
g66
(dp2808
sg75
g2424
sg68
(lp2809
g61
(g82
g63
NtRp2810
(dp2811
g66
(dp2812
g86
g87
ssg75
g2806
sg68
(lp2813
S'SERVER_PROTOCOL'
p2814
asbag61
(g82
g63
NtRp2815
(dp2816
g66
(dp2817
g93
g94
ssg75
g2806
sg68
(lp2818
S':'
asbag61
(g82
g63
NtRp2819
(dp2820
g66
(dp2821
sg75
g2806
sg68
(lp2822
g61
(g62
g63
NtRp2823
(dp2824
g66
(dp2825
g74
I3
ssg75
g2819
sg68
(lp2826
g1392
asbasbasbag61
(g77
g63
NtRp2827
(dp2828
g66
(dp2829
sg75
g2424
sg68
(lp2830
g61
(g82
g63
NtRp2831
(dp2832
g66
(dp2833
g86
g87
ssg75
g2827
sg68
(lp2834
S'SERVER_SOFTWARE'
p2835
asbag61
(g82
g63
NtRp2836
(dp2837
g66
(dp2838
g93
g94
ssg75
g2827
sg68
(lp2839
S':'
asbag61
(g82
g63
NtRp2840
(dp2841
g66
(dp2842
sg75
g2827
sg68
(lp2843
g61
(g62
g63
NtRp2844
(dp2845
g66
(dp2846
g74
I3
ssg75
g2840
sg68
(lp2847
g1414
asbasbasbag61
(g77
g63
NtRp2848
(dp2849
g66
(dp2850
sg75
g2424
sg68
(lp2851
g61
(g82
g63
NtRp2852
(dp2853
g66
(dp2854
g86
g87
ssg75
g2848
sg68
(lp2855
S'wsgi.errors'
p2856
asbag61
(g82
g63
NtRp2857
(dp2858
g66
(dp2859
g93
g94
ssg75
g2848
sg68
(lp2860
S':'
asbag61
(g82
g63
NtRp2861
(dp2862
g66
(dp2863
sg75
g2848
sg68
(lp2864
g61
(g62
g63
NtRp2865
(dp2866
g66
(dp2867
g74
I3
ssg75
g2861
sg68
(lp2868
S'<__main__.Stderr object at 0x00486670>'
p2869
asbasbasbag61
(g77
g63
NtRp2870
(dp2871
g66
(dp2872
sg75
g2424
sg68
(lp2873
g61
(g82
g63
NtRp2874
(dp2875
g66
(dp2876
g86
g87
ssg75
g2870
sg68
(lp2877
S'wsgi.file_wrapper'
p2878
asbag61
(g82
g63
NtRp2879
(dp2880
g66
(dp2881
g93
g94
ssg75
g2870
sg68
(lp2882
S':'
asbag61
(g82
g63
NtRp2883
(dp2884
g66
(dp2885
sg75
g2870
sg68
(lp2886
g61
(g62
g63
NtRp2887
(dp2888
g66
(dp2889
g74
I3
ssg75
g2883
sg68
(lp2890
S'<class wsgiref.util.FileWrapper at 0x02E8DE10>'
p2891
asbasbasbag61
(g77
g63
NtRp2892
(dp2893
g66
(dp2894
sg75
g2424
sg68
(lp2895
g61
(g82
g63
NtRp2896
(dp2897
g66
(dp2898
g86
g87
ssg75
g2892
sg68
(lp2899
S'wsgi.input'
p2900
asbag61
(g82
g63
NtRp2901
(dp2902
g66
(dp2903
g93
g94
ssg75
g2892
sg68
(lp2904
S':'
asbag61
(g82
g63
NtRp2905
(dp2906
g66
(dp2907
sg75
g2892
sg68
(lp2908
g61
(g62
g63
NtRp2909
(dp2910
g66
(dp2911
g74
I3
ssg75
g2905
sg68
(lp2912
S'<cStringIO.StringO object at 0x06B695A0>'
p2913
asbasbasbag61
(g77
g63
NtRp2914
(dp2915
g66
(dp2916
sg75
g2424
sg68
(lp2917
g61
(g82
g63
NtRp2918
(dp2919
g66
(dp2920
g86
g87
ssg75
g2914
sg68
(lp2921
S'wsgi.multiprocess'
p2922
asbag61
(g82
g63
NtRp2923
(dp2924
g66
(dp2925
g93
g94
ssg75
g2914
sg68
(lp2926
S':'
asbag61
(g82
g63
NtRp2927
(dp2928
g66
(dp2929
sg75
g2914
sg68
(lp2930
g61
(g62
g63
NtRp2931
(dp2932
g66
(dp2933
g74
I3
ssg75
g2927
sg68
(lp2934
g104
asbasbasbag61
(g77
g63
NtRp2935
(dp2936
g66
(dp2937
sg75
g2424
sg68
(lp2938
g61
(g82
g63
NtRp2939
(dp2940
g66
(dp2941
g86
g87
ssg75
g2935
sg68
(lp2942
S'wsgi.multithread'
p2943
asbag61
(g82
g63
NtRp2944
(dp2945
g66
(dp2946
g93
g94
ssg75
g2935
sg68
(lp2947
S':'
asbag61
(g82
g63
NtRp2948
(dp2949
g66
(dp2950
sg75
g2935
sg68
(lp2951
g61
(g62
g63
NtRp2952
(dp2953
g66
(dp2954
g74
I3
ssg75
g2948
sg68
(lp2955
g1654
asbasbasbag61
(g77
g63
NtRp2956
(dp2957
g66
(dp2958
sg75
g2424
sg68
(lp2959
g61
(g82
g63
NtRp2960
(dp2961
g66
(dp2962
g86
g87
ssg75
g2956
sg68
(lp2963
S'wsgi.run_once'
p2964
asbag61
(g82
g63
NtRp2965
(dp2966
g66
(dp2967
g93
g94
ssg75
g2956
sg68
(lp2968
S':'
asbag61
(g82
g63
NtRp2969
(dp2970
g66
(dp2971
sg75
g2956
sg68
(lp2972
g61
(g62
g63
NtRp2973
(dp2974
g66
(dp2975
g74
I3
ssg75
g2969
sg68
(lp2976
g104
asbasbasbag61
(g77
g63
NtRp2977
(dp2978
g66
(dp2979
sg75
g2424
sg68
(lp2980
g61
(g82
g63
NtRp2981
(dp2982
g66
(dp2983
g86
g87
ssg75
g2977
sg68
(lp2984
S'wsgi.url_scheme'
p2985
asbag61
(g82
g63
NtRp2986
(dp2987
g66
(dp2988
g93
g94
ssg75
g2977
sg68
(lp2989
S':'
asbag61
(g82
g63
NtRp2990
(dp2991
g66
(dp2992
sg75
g2977
sg68
(lp2993
g61
(g62
g63
NtRp2994
(dp2995
g66
(dp2996
g74
I3
ssg75
g2990
sg68
(lp2997
g1697
asbasbasbag61
(g77
g63
NtRp2998
(dp2999
g66
(dp3000
sg75
g2424
sg68
(lp3001
g61
(g82
g63
NtRp3002
(dp3003
g66
(dp3004
g86
g87
ssg75
g2998
sg68
(lp3005
S'wsgi.version'
p3006
asbag61
(g82
g63
NtRp3007
(dp3008
g66
(dp3009
g93
g94
ssg75
g2998
sg68
(lp3010
S':'
asbag61
(g82
g63
NtRp3011
(dp3012
g66
(dp3013
sg75
g2998
sg68
(lp3014
g61
(g62
g63
NtRp3015
(dp3016
g66
(dp3017
g74
I3
ssg75
g3011
sg68
(lp3018
S'1'
asbasbasbasbasbasbasbasbasbasbasbasbasbsS'frames'
p3019
(lp3020
(dp3021
S'file'
p3022
S'C:\\web2py\\gluon\\restricted.py'
p3023
sS'dump'
p3024
(dp3025
sS'lnum'
p3026
I204
sS'lines'
p3027
(dp3028
sS'call'
p3029
S'(code=r"response.write(\'<!DOCTYPE html>\\n<!-- paulirish....ponse.write(\'\\n</body>\\n</html>\\n\', escape=False)", environment={\'A\': <class \'gluon.html.A\'>, \'Auth\': <class \'gluon.tools.Auth\'>, \'B\': <class \'gluon.html.B\'>, \'BEAUTIFY\': <class \'gluon.html.BEAUTIFY\'>, \'BODY\': <class \'gluon.html.BODY\'>, \'BR\': <class \'gluon.html.BR\'>, \'BUTTON\': <class \'gluon.html.BUTTON\'>, \'CAT\': <class \'gluon.html.CAT\'>, \'CENTER\': <class \'gluon.html.CENTER\'>, \'CLEANUP\': <class \'gluon.validators.CLEANUP\'>, ...}, layer=r\'C:\\web2py\\applications\\unioeste_code\\views\\default/showProblem.html\')'
p3030
sS'func'
p3031
S'restricted'
p3032
sa(dp3033
g3022
S'C:\\web2py\\gluon\\restricted.py'
p3034
sg3024
(dp3035
sg3026
I189
sg3027
(dp3036
sg3029
S'(code=r"response.write(\'<!DOCTYPE html>\\n<!-- paulirish....ponse.write(\'\\n</body>\\n</html>\\n\', escape=False)", layer=r\'C:\\web2py\\applications\\unioeste_code\\views\\default/showProblem.html\')'
p3037
sg3031
S'compile2'
p3038
sasS'pyver'
p3039
S'Python 2.5.4: C:\\web2py\\web2py_no_console.exe'
p3040
sS'session'
p3041
g61
(g62
g63
NtRp3042
(dp3043
g66
(dp3044
sg68
(lp3045
g61
(g70
g63
NtRp3046
(dp3047
g66
(dp3048
g74
I5
ssg75
Nsg68
(lp3049
sbasbsS'etype'
p3050
S"<type 'exceptions.SyntaxError'>"
p3051
sS'date'
p3052
S'Sun Jul 29 23:51:52 2012'
p3053
sS'response'
p3054
g61
(g62
g63
NtRp3055
(dp3056
g66
(dp3057
sg68
(lp3058
g61
(g70
g63
NtRp3059
(dp3060
g66
(dp3061
g74
I5
ssg75
Nsg68
(lp3062
g61
(g77
g63
NtRp3063
(dp3064
g66
(dp3065
sg75
g3059
sg68
(lp3066
g61
(g82
g63
NtRp3067
(dp3068
g66
(dp3069
g86
g87
ssg75
g3063
sg68
(lp3070
g171
asbag61
(g82
g63
NtRp3071
(dp3072
g66
(dp3073
g93
g94
ssg75
g3063
sg68
(lp3074
S':'
asbag61
(g82
g63
NtRp3075
(dp3076
g66
(dp3077
sg75
g3063
sg68
(lp3078
g61
(g62
g63
NtRp3079
(dp3080
g66
(dp3081
g74
I5
ssg75
g3075
sg68
(lp3082
S'<cStringIO.StringO object at 0x06067C80>'
p3083
asbasbasbag61
(g77
g63
NtRp3084
(dp3085
g66
(dp3086
sg75
g3059
sg68
(lp3087
g61
(g82
g63
NtRp3088
(dp3089
g66
(dp3090
g86
g87
ssg75
g3084
sg68
(lp3091
g237
asbag61
(g82
g63
NtRp3092
(dp3093
g66
(dp3094
g93
g94
ssg75
g3084
sg68
(lp3095
S':'
asbag61
(g82
g63
NtRp3096
(dp3097
g66
(dp3098
sg75
g3084
sg68
(lp3099
g61
(g62
g63
NtRp3100
(dp3101
g66
(dp3102
g74
I5
ssg75
g3096
sg68
(lp3103
g61
(g70
g63
NtRp3104
(dp3105
g66
(dp3106
g74
I4
ssg75
Nsg68
(lp3107
g61
(g77
g63
NtRp3108
(dp3109
g66
(dp3110
sg75
g3104
sg68
(lp3111
g61
(g82
g63
NtRp3112
(dp3113
g66
(dp3114
g86
g87
ssg75
g3108
sg68
(lp3115
S'session_id_unioeste_code'
p3116
asbag61
(g82
g63
NtRp3117
(dp3118
g66
(dp3119
g93
g94
ssg75
g3108
sg68
(lp3120
S':'
asbag61
(g82
g63
NtRp3121
(dp3122
g66
(dp3123
sg75
g3108
sg68
(lp3124
g61
(g62
g63
NtRp3125
(dp3126
g66
(dp3127
g74
I4
ssg75
g3121
sg68
(lp3128
g61
(g70
g63
NtRp3129
(dp3130
g66
(dp3131
g74
I3
ssg75
Nsg68
(lp3132
g61
(g77
g63
NtRp3133
(dp3134
g66
(dp3135
sg75
g3129
sg68
(lp3136
g61
(g82
g63
NtRp3137
(dp3138
g66
(dp3139
g86
g87
ssg75
g3133
sg68
(lp3140
g287
asbag61
(g82
g63
NtRp3141
(dp3142
g66
(dp3143
g93
g94
ssg75
g3133
sg68
(lp3144
S':'
asbag61
(g82
g63
NtRp3145
(dp3146
g66
(dp3147
sg75
g3133
sg68
(lp3148
g61
(g62
g63
NtRp3149
(dp3150
g66
(dp3151
g74
I3
ssg75
g3145
sg68
(lp3152
S''
asbasbasbag61
(g77
g63
NtRp3153
(dp3154
g66
(dp3155
sg75
g3129
sg68
(lp3156
g61
(g82
g63
NtRp3157
(dp3158
g66
(dp3159
g86
g87
ssg75
g3153
sg68
(lp3160
g308
asbag61
(g82
g63
NtRp3161
(dp3162
g66
(dp3163
g93
g94
ssg75
g3153
sg68
(lp3164
S':'
asbag61
(g82
g63
NtRp3165
(dp3166
g66
(dp3167
sg75
g3153
sg68
(lp3168
g61
(g62
g63
NtRp3169
(dp3170
g66
(dp3171
g74
I3
ssg75
g3165
sg68
(lp3172
S''
asbasbasbag61
(g77
g63
NtRp3173
(dp3174
g66
(dp3175
sg75
g3129
sg68
(lp3176
g61
(g82
g63
NtRp3177
(dp3178
g66
(dp3179
g86
g87
ssg75
g3173
sg68
(lp3180
g329
asbag61
(g82
g63
NtRp3181
(dp3182
g66
(dp3183
g93
g94
ssg75
g3173
sg68
(lp3184
S':'
asbag61
(g82
g63
NtRp3185
(dp3186
g66
(dp3187
sg75
g3173
sg68
(lp3188
g61
(g62
g63
NtRp3189
(dp3190
g66
(dp3191
g74
I3
ssg75
g3185
sg68
(lp3192
S''
asbasbasbag61
(g77
g63
NtRp3193
(dp3194
g66
(dp3195
sg75
g3129
sg68
(lp3196
g61
(g82
g63
NtRp3197
(dp3198
g66
(dp3199
g86
g87
ssg75
g3193
sg68
(lp3200
g350
asbag61
(g82
g63
NtRp3201
(dp3202
g66
(dp3203
g93
g94
ssg75
g3193
sg68
(lp3204
S':'
asbag61
(g82
g63
NtRp3205
(dp3206
g66
(dp3207
sg75
g3193
sg68
(lp3208
g61
(g62
g63
NtRp3209
(dp3210
g66
(dp3211
g74
I3
ssg75
g3205
sg68
(lp3212
S''
asbasbasbag61
(g77
g63
NtRp3213
(dp3214
g66
(dp3215
sg75
g3129
sg68
(lp3216
g61
(g82
g63
NtRp3217
(dp3218
g66
(dp3219
g86
g87
ssg75
g3213
sg68
(lp3220
g371
asbag61
(g82
g63
NtRp3221
(dp3222
g66
(dp3223
g93
g94
ssg75
g3213
sg68
(lp3224
S':'
asbag61
(g82
g63
NtRp3225
(dp3226
g66
(dp3227
sg75
g3213
sg68
(lp3228
g61
(g62
g63
NtRp3229
(dp3230
g66
(dp3231
g74
I3
ssg75
g3225
sg68
(lp3232
S'/'
asbasbasbag61
(g77
g63
NtRp3233
(dp3234
g66
(dp3235
sg75
g3129
sg68
(lp3236
g61
(g82
g63
NtRp3237
(dp3238
g66
(dp3239
g86
g87
ssg75
g3233
sg68
(lp3240
g392
asbag61
(g82
g63
NtRp3241
(dp3242
g66
(dp3243
g93
g94
ssg75
g3233
sg68
(lp3244
S':'
asbag61
(g82
g63
NtRp3245
(dp3246
g66
(dp3247
sg75
g3233
sg68
(lp3248
g61
(g62
g63
NtRp3249
(dp3250
g66
(dp3251
g74
I3
ssg75
g3245
sg68
(lp3252
S''
asbasbasbag61
(g77
g63
NtRp3253
(dp3254
g66
(dp3255
sg75
g3129
sg68
(lp3256
g61
(g82
g63
NtRp3257
(dp3258
g66
(dp3259
g86
g87
ssg75
g3253
sg68
(lp3260
g413
asbag61
(g82
g63
NtRp3261
(dp3262
g66
(dp3263
g93
g94
ssg75
g3253
sg68
(lp3264
S':'
asbag61
(g82
g63
NtRp3265
(dp3266
g66
(dp3267
sg75
g3253
sg68
(lp3268
g61
(g62
g63
NtRp3269
(dp3270
g66
(dp3271
g74
I3
ssg75
g3265
sg68
(lp3272
S''
asbasbasbasbasbasbasbasbasbasbasbag61
(g77
g63
NtRp3273
(dp3274
g66
(dp3275
sg75
g3059
sg68
(lp3276
g61
(g82
g63
NtRp3277
(dp3278
g66
(dp3279
g86
g87
ssg75
g3273
sg68
(lp3280
S'delimiters'
p3281
asbag61
(g82
g63
NtRp3282
(dp3283
g66
(dp3284
g93
g94
ssg75
g3273
sg68
(lp3285
S':'
asbag61
(g82
g63
NtRp3286
(dp3287
g66
(dp3288
sg75
g3273
sg68
(lp3289
g61
(g62
g63
NtRp3290
(dp3291
g66
(dp3292
g74
I5
ssg75
g3286
sg68
(lp3293
g61
(g70
g63
NtRp3294
(dp3295
g66
(dp3296
g74
I4
ssg75
Nsg68
(lp3297
g61
(g77
g63
NtRp3298
(dp3299
g66
(dp3300
sg75
g3294
sg68
(lp3301
g61
(g82
g63
NtRp3302
(dp3303
g66
(dp3304
sg75
g3298
sg68
(lp3305
g61
(g62
g63
NtRp3306
(dp3307
g66
(dp3308
g74
I4
ssg75
g3302
sg68
(lp3309
S'{{'
p3310
asbasbasbag61
(g77
g63
NtRp3311
(dp3312
g66
(dp3313
sg75
g3294
sg68
(lp3314
g61
(g82
g63
NtRp3315
(dp3316
g66
(dp3317
sg75
g3311
sg68
(lp3318
g61
(g62
g63
NtRp3319
(dp3320
g66
(dp3321
g74
I4
ssg75
g3315
sg68
(lp3322
S'}}'
p3323
asbasbasbasbasbasbasbag61
(g77
g63
NtRp3324
(dp3325
g66
(dp3326
sg75
g3059
sg68
(lp3327
g61
(g82
g63
NtRp3328
(dp3329
g66
(dp3330
g86
g87
ssg75
g3324
sg68
(lp3331
S'files'
p3332
asbag61
(g82
g63
NtRp3333
(dp3334
g66
(dp3335
g93
g94
ssg75
g3324
sg68
(lp3336
S':'
asbag61
(g82
g63
NtRp3337
(dp3338
g66
(dp3339
sg75
g3324
sg68
(lp3340
g61
(g62
g63
NtRp3341
(dp3342
g66
(dp3343
g74
I5
ssg75
g3337
sg68
(lp3344
g61
(g70
g63
NtRp3345
(dp3346
g66
(dp3347
g74
I4
ssg75
Nsg68
(lp3348
sbasbasbasbag61
(g77
g63
NtRp3349
(dp3350
g66
(dp3351
sg75
g3059
sg68
(lp3352
g61
(g82
g63
NtRp3353
(dp3354
g66
(dp3355
g86
g87
ssg75
g3349
sg68
(lp3356
S'flash'
p3357
asbag61
(g82
g63
NtRp3358
(dp3359
g66
(dp3360
g93
g94
ssg75
g3349
sg68
(lp3361
S':'
asbag61
(g82
g63
NtRp3362
(dp3363
g66
(dp3364
sg75
g3349
sg68
(lp3365
g61
(g62
g63
NtRp3366
(dp3367
g66
(dp3368
g74
I5
ssg75
g3362
sg68
(lp3369
S''
asbasbasbag61
(g77
g63
NtRp3370
(dp3371
g66
(dp3372
sg75
g3059
sg68
(lp3373
g61
(g82
g63
NtRp3374
(dp3375
g66
(dp3376
g86
g87
ssg75
g3370
sg68
(lp3377
S'generic_patterns'
p3378
asbag61
(g82
g63
NtRp3379
(dp3380
g66
(dp3381
g93
g94
ssg75
g3370
sg68
(lp3382
S':'
asbag61
(g82
g63
NtRp3383
(dp3384
g66
(dp3385
sg75
g3370
sg68
(lp3386
g61
(g62
g63
NtRp3387
(dp3388
g66
(dp3389
g74
I5
ssg75
g3383
sg68
(lp3390
g61
(g70
g63
NtRp3391
(dp3392
g66
(dp3393
g74
I4
ssg75
Nsg68
(lp3394
sbasbasbasbag61
(g77
g63
NtRp3395
(dp3396
g66
(dp3397
sg75
g3059
sg68
(lp3398
g61
(g82
g63
NtRp3399
(dp3400
g66
(dp3401
g86
g87
ssg75
g3395
sg68
(lp3402
S'headers'
p3403
asbag61
(g82
g63
NtRp3404
(dp3405
g66
(dp3406
g93
g94
ssg75
g3395
sg68
(lp3407
S':'
asbag61
(g82
g63
NtRp3408
(dp3409
g66
(dp3410
sg75
g3395
sg68
(lp3411
g61
(g62
g63
NtRp3412
(dp3413
g66
(dp3414
g74
I5
ssg75
g3408
sg68
(lp3415
g61
(g70
g63
NtRp3416
(dp3417
g66
(dp3418
g74
I4
ssg75
Nsg68
(lp3419
g61
(g77
g63
NtRp3420
(dp3421
g66
(dp3422
sg75
g3416
sg68
(lp3423
g61
(g82
g63
NtRp3424
(dp3425
g66
(dp3426
g86
g87
ssg75
g3420
sg68
(lp3427
S'Cache-Control'
p3428
asbag61
(g82
g63
NtRp3429
(dp3430
g66
(dp3431
g93
g94
ssg75
g3420
sg68
(lp3432
S':'
asbag61
(g82
g63
NtRp3433
(dp3434
g66
(dp3435
sg75
g3420
sg68
(lp3436
g61
(g62
g63
NtRp3437
(dp3438
g66
(dp3439
g74
I4
ssg75
g3433
sg68
(lp3440
S'no-store, no-cache, must-revalidate, post-check=0, pre-check=0'
p3441
asbasbasbag61
(g77
g63
NtRp3442
(dp3443
g66
(dp3444
sg75
g3416
sg68
(lp3445
g61
(g82
g63
NtRp3446
(dp3447
g66
(dp3448
g86
g87
ssg75
g3442
sg68
(lp3449
S'Content-Type'
p3450
asbag61
(g82
g63
NtRp3451
(dp3452
g66
(dp3453
g93
g94
ssg75
g3442
sg68
(lp3454
S':'
asbag61
(g82
g63
NtRp3455
(dp3456
g66
(dp3457
sg75
g3442
sg68
(lp3458
g61
(g62
g63
NtRp3459
(dp3460
g66
(dp3461
g74
I4
ssg75
g3455
sg68
(lp3462
S'text/html; charset=utf-8'
p3463
asbasbasbag61
(g77
g63
NtRp3464
(dp3465
g66
(dp3466
sg75
g3416
sg68
(lp3467
g61
(g82
g63
NtRp3468
(dp3469
g66
(dp3470
g86
g87
ssg75
g3464
sg68
(lp3471
S'Expires'
p3472
asbag61
(g82
g63
NtRp3473
(dp3474
g66
(dp3475
g93
g94
ssg75
g3464
sg68
(lp3476
S':'
asbag61
(g82
g63
NtRp3477
(dp3478
g66
(dp3479
sg75
g3464
sg68
(lp3480
g61
(g62
g63
NtRp3481
(dp3482
g66
(dp3483
g74
I4
ssg75
g3477
sg68
(lp3484
S'Mon, 30 Jul 2012 02:51:52 GMT'
p3485
asbasbasbag61
(g77
g63
NtRp3486
(dp3487
g66
(dp3488
sg75
g3416
sg68
(lp3489
g61
(g82
g63
NtRp3490
(dp3491
g66
(dp3492
g86
g87
ssg75
g3486
sg68
(lp3493
S'Pragma'
p3494
asbag61
(g82
g63
NtRp3495
(dp3496
g66
(dp3497
g93
g94
ssg75
g3486
sg68
(lp3498
S':'
asbag61
(g82
g63
NtRp3499
(dp3500
g66
(dp3501
sg75
g3486
sg68
(lp3502
g61
(g62
g63
NtRp3503
(dp3504
g66
(dp3505
g74
I4
ssg75
g3499
sg68
(lp3506
S'no-cache'
p3507
asbasbasbag61
(g77
g63
NtRp3508
(dp3509
g66
(dp3510
sg75
g3416
sg68
(lp3511
g61
(g82
g63
NtRp3512
(dp3513
g66
(dp3514
g86
g87
ssg75
g3508
sg68
(lp3515
S'X-Powered-By'
p3516
asbag61
(g82
g63
NtRp3517
(dp3518
g66
(dp3519
g93
g94
ssg75
g3508
sg68
(lp3520
S':'
asbag61
(g82
g63
NtRp3521
(dp3522
g66
(dp3523
sg75
g3508
sg68
(lp3524
g61
(g62
g63
NtRp3525
(dp3526
g66
(dp3527
g74
I4
ssg75
g3521
sg68
(lp3528
S'web2py'
p3529
asbasbasbasbasbasbasbag61
(g77
g63
NtRp3530
(dp3531
g66
(dp3532
sg75
g3059
sg68
(lp3533
g61
(g82
g63
NtRp3534
(dp3535
g66
(dp3536
g86
g87
ssg75
g3530
sg68
(lp3537
S'menu'
p3538
asbag61
(g82
g63
NtRp3539
(dp3540
g66
(dp3541
g93
g94
ssg75
g3530
sg68
(lp3542
S':'
asbag61
(g82
g63
NtRp3543
(dp3544
g66
(dp3545
sg75
g3530
sg68
(lp3546
g61
(g62
g63
NtRp3547
(dp3548
g66
(dp3549
g74
I5
ssg75
g3543
sg68
(lp3550
g61
(g70
g63
NtRp3551
(dp3552
g66
(dp3553
g74
I4
ssg75
Nsg68
(lp3554
g61
(g77
g63
NtRp3555
(dp3556
g66
(dp3557
sg75
g3551
sg68
(lp3558
g61
(g82
g63
NtRp3559
(dp3560
g66
(dp3561
sg75
g3555
sg68
(lp3562
g61
(g62
g63
NtRp3563
(dp3564
g66
(dp3565
g74
I4
ssg75
g3559
sg68
(lp3566
g61
(g70
g63
NtRp3567
(dp3568
g66
(dp3569
g74
I3
ssg75
Nsg68
(lp3570
g61
(g77
g63
NtRp3571
(dp3572
g66
(dp3573
sg75
g3567
sg68
(lp3574
g61
(g82
g63
NtRp3575
(dp3576
g66
(dp3577
sg75
g3571
sg68
(lp3578
g61
(g62
g63
NtRp3579
(dp3580
g66
(dp3581
g74
I3
ssg75
g3575
sg68
(lp3582
cgluon.languages
lazyT_unpickle
p3583
(S't\x04\x00\x00\x00Home'
tRp3584
asbasbasbag61
(g77
g63
NtRp3585
(dp3586
g66
(dp3587
sg75
g3567
sg68
(lp3588
g61
(g82
g63
NtRp3589
(dp3590
g66
(dp3591
sg75
g3585
sg68
(lp3592
g61
(g62
g63
NtRp3593
(dp3594
g66
(dp3595
g74
I3
ssg75
g3589
sg68
(lp3596
g104
asbasbasbag61
(g77
g63
NtRp3597
(dp3598
g66
(dp3599
sg75
g3567
sg68
(lp3600
g61
(g82
g63
NtRp3601
(dp3602
g66
(dp3603
sg75
g3597
sg68
(lp3604
g61
(g62
g63
NtRp3605
(dp3606
g66
(dp3607
g74
I3
ssg75
g3601
sg68
(lp3608
S'/unioeste_code/default/index'
p3609
asbasbasbag61
(g77
g63
NtRp3610
(dp3611
g66
(dp3612
sg75
g3567
sg68
(lp3613
g61
(g82
g63
NtRp3614
(dp3615
g66
(dp3616
sg75
g3610
sg68
(lp3617
g61
(g62
g63
NtRp3618
(dp3619
g66
(dp3620
g74
I3
ssg75
g3614
sg68
(lp3621
g61
(g70
g63
NtRp3622
(dp3623
g66
(dp3624
g74
I2
ssg75
Nsg68
(lp3625
sbasbasbasbasbasbasbasbag61
(g77
g63
NtRp3626
(dp3627
g66
(dp3628
sg75
g3551
sg68
(lp3629
g61
(g82
g63
NtRp3630
(dp3631
g66
(dp3632
sg75
g3626
sg68
(lp3633
g61
(g62
g63
NtRp3634
(dp3635
g66
(dp3636
g74
I4
ssg75
g3630
sg68
(lp3637
g61
(g70
g63
NtRp3638
(dp3639
g66
(dp3640
g74
I3
ssg75
Nsg68
(lp3641
g61
(g77
g63
NtRp3642
(dp3643
g66
(dp3644
sg75
g3638
sg68
(lp3645
g61
(g82
g63
NtRp3646
(dp3647
g66
(dp3648
sg75
g3642
sg68
(lp3649
g61
(g62
g63
NtRp3650
(dp3651
g66
(dp3652
g74
I3
ssg75
g3646
sg68
(lp3653
g61
(cgluon.html
SPAN
p3654
g63
NtRp3655
(dp3656
g66
(dp3657
g86
S'color:yellow'
p3658
ssg75
Nsg68
(lp3659
g3529
asbasbasbasbag61
(g77
g63
NtRp3660
(dp3661
g66
(dp3662
sg75
g3638
sg68
(lp3663
g61
(g82
g63
NtRp3664
(dp3665
g66
(dp3666
sg75
g3660
sg68
(lp3667
g61
(g62
g63
NtRp3668
(dp3669
g66
(dp3670
g74
I3
ssg75
g3664
sg68
(lp3671
g104
asbasbasbag61
(g77
g63
NtRp3672
(dp3673
g66
(dp3674
sg75
g3638
sg68
(lp3675
g61
(g82
g63
NtRp3676
(dp3677
g66
(dp3678
sg75
g3672
sg68
(lp3679
g61
(g62
g63
NtRp3680
(dp3681
g66
(dp3682
g74
I3
ssg75
g3676
sg68
(lp3683
S'None'
p3684
asbasbasbag61
(g77
g63
NtRp3685
(dp3686
g66
(dp3687
sg75
g3638
sg68
(lp3688
g61
(g82
g63
NtRp3689
(dp3690
g66
(dp3691
sg75
g3685
sg68
(lp3692
g61
(g62
g63
NtRp3693
(dp3694
g66
(dp3695
g74
I3
ssg75
g3689
sg68
(lp3696
g61
(g70
g63
NtRp3697
(dp3698
g66
(dp3699
g74
I2
ssg75
Nsg68
(lp3700
g61
(g77
g63
NtRp3701
(dp3702
g66
(dp3703
sg75
g3697
sg68
(lp3704
g61
(g82
g63
NtRp3705
(dp3706
g66
(dp3707
sg75
g3701
sg68
(lp3708
g61
(g62
g63
NtRp3709
(dp3710
g66
(dp3711
g74
I2
ssg75
g3705
sg68
(lp3712
g61
(g70
g63
NtRp3713
(dp3714
g66
(dp3715
g74
I1
ssg75
Nsg68
(lp3716
g61
(g77
g63
NtRp3717
(dp3718
g66
(dp3719
sg75
g3713
sg68
(lp3720
g61
(g82
g63
NtRp3721
(dp3722
g66
(dp3723
sg75
g3717
sg68
(lp3724
g61
(g62
g63
NtRp3725
(dp3726
g66
(dp3727
g74
I1
ssg75
g3721
sg68
(lp3728
g3583
(S's\x08\x00\x00\x00My Sites'
tRp3729
asbasbasbag61
(g77
g63
NtRp3730
(dp3731
g66
(dp3732
sg75
g3713
sg68
(lp3733
g61
(g82
g63
NtRp3734
(dp3735
g66
(dp3736
sg75
g3730
sg68
(lp3737
g61
(g62
g63
NtRp3738
(dp3739
g66
(dp3740
g74
I1
ssg75
g3734
sg68
(lp3741
I00
asbasbasbag61
(g77
g63
NtRp3742
(dp3743
g66
(dp3744
sg75
g3713
sg68
(lp3745
g61
(g82
g63
NtRp3746
(dp3747
g66
(dp3748
sg75
g3742
sg68
(lp3749
g61
(g62
g63
NtRp3750
(dp3751
g66
(dp3752
g74
I1
ssg75
g3746
sg68
(lp3753
S'/admin/default/site'
p3754
asbasbasbasbasbasbasbag61
(g77
g63
NtRp3755
(dp3756
g66
(dp3757
sg75
g3697
sg68
(lp3758
g61
(g82
g63
NtRp3759
(dp3760
g66
(dp3761
sg75
g3755
sg68
(lp3762
g61
(g62
g63
NtRp3763
(dp3764
g66
(dp3765
g74
I2
ssg75
g3759
sg68
(lp3766
g61
(g70
g63
NtRp3767
(dp3768
g66
(dp3769
g74
I1
ssg75
Nsg68
(lp3770
g61
(g77
g63
NtRp3771
(dp3772
g66
(dp3773
sg75
g3767
sg68
(lp3774
g61
(g82
g63
NtRp3775
(dp3776
g66
(dp3777
sg75
g3771
sg68
(lp3778
g61
(g62
g63
NtRp3779
(dp3780
g66
(dp3781
g74
I1
ssg75
g3775
sg68
(lp3782
g3583
(S's\x08\x00\x00\x00This App'
tRp3783
asbasbasbag61
(g77
g63
NtRp3784
(dp3785
g66
(dp3786
sg75
g3767
sg68
(lp3787
g61
(g82
g63
NtRp3788
(dp3789
g66
(dp3790
sg75
g3784
sg68
(lp3791
g61
(g62
g63
NtRp3792
(dp3793
g66
(dp3794
g74
I1
ssg75
g3788
sg68
(lp3795
I00
asbasbasbag61
(g77
g63
NtRp3796
(dp3797
g66
(dp3798
sg75
g3767
sg68
(lp3799
g61
(g82
g63
NtRp3800
(dp3801
g66
(dp3802
sg75
g3796
sg68
(lp3803
g61
(g62
g63
NtRp3804
(dp3805
g66
(dp3806
g74
I1
ssg75
g3800
sg68
(lp3807
S'/admin/default/design/unioeste_code'
p3808
asbasbasbag61
(g77
g63
NtRp3809
(dp3810
g66
(dp3811
sg75
g3767
sg68
(lp3812
g61
(g82
g63
NtRp3813
(dp3814
g66
(dp3815
sg75
g3809
sg68
(lp3816
g61
(g62
g63
NtRp3817
(dp3818
g66
(dp3819
g74
I1
ssg75
g3813
sg68
(lp3820
(lp3821
(g3583
(S't\x0b\x00\x00\x00Controlador'
tRp3822
I00
S'/admin/default/edit/unioeste_code/controllers/default.py'
tp3823
a(g3583
(S's\x0e\x00\x00\x00Visualiza\xc3\xa7\xc3\xa3o'
tRp3824
I00
S'/admin/default/edit/unioeste_code/views/default/showProblem.html'
tp3825
a(g3583
(S't\x06\x00\x00\x00Layout'
tRp3826
I00
S'/admin/default/edit/unioeste_code/views/layout.html'
tp3827
a(g3583
(S't\n\x00\x00\x00Stylesheet'
tRp3828
I00
S'/admin/default/edit/unioeste_code/static/css/web2py.css'
tp3829
a(g3583
(S's\t\x00\x00\x00Modelo BD'
tRp3830
I00
S'/admin/default/edit/unioeste_code/models/db.py'
tp3831
a(g3583
(S's\x0e\x00\x00\x00Modelo de Menu'
tRp3832
I00
S'/admin/default/edit/unioeste_code/models/menu.py'
tp3833
a(g3583
(S's\x0e\x00\x00\x00Banco de dados'
tRp3834
I00
S'/unioeste_code/appadmin/index'
tp3835
a(g3583
(S't\x06\x00\x00\x00Errors'
tRp3836
I00
S'/admin/default/errors/unioeste_code'
tp3837
a(g3583
(S't\x05\x00\x00\x00About'
tRp3838
I00
S'/admin/default/about/unioeste_code'
tp3839
aasbasbasbasbasbasbasbag61
(g77
g63
NtRp3840
(dp3841
g66
(dp3842
sg75
g3697
sg68
(lp3843
g61
(g82
g63
NtRp3844
(dp3845
g66
(dp3846
sg75
g3840
sg68
(lp3847
g61
(g62
g63
NtRp3848
(dp3849
g66
(dp3850
g74
I2
ssg75
g3844
sg68
(lp3851
g61
(g70
g63
NtRp3852
(dp3853
g66
(dp3854
g74
I1
ssg75
Nsg68
(lp3855
g61
(g77
g63
NtRp3856
(dp3857
g66
(dp3858
sg75
g3852
sg68
(lp3859
g61
(g82
g63
NtRp3860
(dp3861
g66
(dp3862
sg75
g3856
sg68
(lp3863
g61
(g62
g63
NtRp3864
(dp3865
g66
(dp3866
g74
I1
ssg75
g3860
sg68
(lp3867
S'web2py.com'
p3868
asbasbasbag61
(g77
g63
NtRp3869
(dp3870
g66
(dp3871
sg75
g3852
sg68
(lp3872
g61
(g82
g63
NtRp3873
(dp3874
g66
(dp3875
sg75
g3869
sg68
(lp3876
g61
(g62
g63
NtRp3877
(dp3878
g66
(dp3879
g74
I1
ssg75
g3873
sg68
(lp3880
I00
asbasbasbag61
(g77
g63
NtRp3881
(dp3882
g66
(dp3883
sg75
g3852
sg68
(lp3884
g61
(g82
g63
NtRp3885
(dp3886
g66
(dp3887
sg75
g3881
sg68
(lp3888
g61
(g62
g63
NtRp3889
(dp3890
g66
(dp3891
g74
I1
ssg75
g3885
sg68
(lp3892
S'http://www.web2py.com'
p3893
asbasbasbag61
(g77
g63
NtRp3894
(dp3895
g66
(dp3896
sg75
g3852
sg68
(lp3897
g61
(g82
g63
NtRp3898
(dp3899
g66
(dp3900
sg75
g3894
sg68
(lp3901
g61
(g62
g63
NtRp3902
(dp3903
g66
(dp3904
g74
I1
ssg75
g3898
sg68
(lp3905
(lp3906
(g3583
(S't\x08\x00\x00\x00Download'
tRp3907
I00
S'http://www.web2py.com/examples/default/download'
p3908
tp3909
a(g3583
(S't\x07\x00\x00\x00Support'
tRp3910
I00
S'http://www.web2py.com/examples/default/support'
p3911
tp3912
a(g3583
(S't\x04\x00\x00\x00Demo'
tRp3913
I00
S'http://web2py.com/demo_admin'
p3914
tp3915
a(g3583
(S's\x0e\x00\x00\x00Quick Examples'
tRp3916
I00
S'http://web2py.com/examples/default/examples'
p3917
tp3918
a(g3583
(S't\x03\x00\x00\x00FAQ'
tRp3919
I00
S'http://web2py.com/AlterEgo'
p3920
tp3921
a(g3583
(S't\x06\x00\x00\x00Videos'
tRp3922
I00
S'http://www.web2py.com/examples/default/videos/'
p3923
tp3924
a(g3583
(S's\x11\x00\x00\x00Free Applications'
tRp3925
I00
S'http://web2py.com/appliances'
p3926
tp3927
a(g3583
(S't\x07\x00\x00\x00Plugins'
tRp3928
I00
S'http://web2py.com/plugins'
p3929
tp3930
a(g3583
(S't\x07\x00\x00\x00Layouts'
tRp3931
I00
S'http://web2py.com/layouts'
p3932
tp3933
a(g3583
(S't\x07\x00\x00\x00Recipes'
tRp3934
I00
S'http://web2pyslices.com/'
p3935
tp3936
a(g3583
(S't\x08\x00\x00\x00Semantic'
tRp3937
I00
S'http://web2py.com/semantic'
p3938
tp3939
aasbasbasbasbasbasbasbag61
(g77
g63
NtRp3940
(dp3941
g66
(dp3942
sg75
g3697
sg68
(lp3943
g61
(g82
g63
NtRp3944
(dp3945
g66
(dp3946
sg75
g3940
sg68
(lp3947
g61
(g62
g63
NtRp3948
(dp3949
g66
(dp3950
g74
I2
ssg75
g3944
sg68
(lp3951
g61
(g70
g63
NtRp3952
(dp3953
g66
(dp3954
g74
I1
ssg75
Nsg68
(lp3955
g61
(g77
g63
NtRp3956
(dp3957
g66
(dp3958
sg75
g3952
sg68
(lp3959
g61
(g82
g63
NtRp3960
(dp3961
g66
(dp3962
sg75
g3956
sg68
(lp3963
g61
(g62
g63
NtRp3964
(dp3965
g66
(dp3966
g74
I1
ssg75
g3960
sg68
(lp3967
g3583
(S't\r\x00\x00\x00Documentation'
tRp3968
asbasbasbag61
(g77
g63
NtRp3969
(dp3970
g66
(dp3971
sg75
g3952
sg68
(lp3972
g61
(g82
g63
NtRp3973
(dp3974
g66
(dp3975
sg75
g3969
sg68
(lp3976
g61
(g62
g63
NtRp3977
(dp3978
g66
(dp3979
g74
I1
ssg75
g3973
sg68
(lp3980
I00
asbasbasbag61
(g77
g63
NtRp3981
(dp3982
g66
(dp3983
sg75
g3952
sg68
(lp3984
g61
(g82
g63
NtRp3985
(dp3986
g66
(dp3987
sg75
g3981
sg68
(lp3988
g61
(g62
g63
NtRp3989
(dp3990
g66
(dp3991
g74
I1
ssg75
g3985
sg68
(lp3992
S'http://www.web2py.com/book'
p3993
asbasbasbag61
(g77
g63
NtRp3994
(dp3995
g66
(dp3996
sg75
g3952
sg68
(lp3997
g61
(g82
g63
NtRp3998
(dp3999
g66
(dp4000
sg75
g3994
sg68
(lp4001
g61
(g62
g63
NtRp4002
(dp4003
g66
(dp4004
g74
I1
ssg75
g3998
sg68
(lp4005
(lp4006
(g3583
(S't\x07\x00\x00\x00Preface'
tRp4007
I00
S'http://www.web2py.com/book/default/chapter/00'
p4008
tp4009
a(g3583
(S't\x0c\x00\x00\x00Introduction'
tRp4010
I00
S'http://www.web2py.com/book/default/chapter/01'
p4011
tp4012
a(g3583
(S't\x06\x00\x00\x00Python'
tRp4013
I00
S'http://www.web2py.com/book/default/chapter/02'
p4014
tp4015
a(g3583
(S't\x08\x00\x00\x00Overview'
tRp4016
I00
S'http://www.web2py.com/book/default/chapter/03'
p4017
tp4018
a(g3583
(S's\x08\x00\x00\x00The Core'
tRp4019
I00
S'http://www.web2py.com/book/default/chapter/04'
p4020
tp4021
a(g3583
(S's\t\x00\x00\x00The Views'
tRp4022
I00
S'http://www.web2py.com/book/default/chapter/05'
p4023
tp4024
a(g3583
(S's\x0e\x00\x00\x00Banco de dados'
tRp4025
I00
S'http://www.web2py.com/book/default/chapter/06'
p4026
tp4027
a(g3583
(S's\x14\x00\x00\x00Forms and Validators'
tRp4028
I00
S'http://www.web2py.com/book/default/chapter/07'
p4029
tp4030
a(g3583
(S's\r\x00\x00\x00Email and SMS'
tRp4031
I00
S'http://www.web2py.com/book/default/chapter/08'
p4032
tp4033
a(g3583
(S's\x0e\x00\x00\x00Access Control'
tRp4034
I00
S'http://www.web2py.com/book/default/chapter/09'
p4035
tp4036
a(g3583
(S't\x08\x00\x00\x00Services'
tRp4037
I00
S'http://www.web2py.com/book/default/chapter/10'
p4038
tp4039
a(g3583
(S's\x0c\x00\x00\x00Ajax Recipes'
tRp4040
I00
S'http://www.web2py.com/book/default/chapter/11'
p4041
tp4042
a(g3583
(S's\x16\x00\x00\x00Components and Plugins'
tRp4043
I00
S'http://www.web2py.com/book/default/chapter/12'
p4044
tp4045
a(g3583
(S's\x12\x00\x00\x00Deployment Recipes'
tRp4046
I00
S'http://www.web2py.com/book/default/chapter/13'
p4047
tp4048
a(g3583
(S's\r\x00\x00\x00Other Recipes'
tRp4049
I00
S'http://www.web2py.com/book/default/chapter/14'
p4050
tp4051
a(g3583
(S's\r\x00\x00\x00Buy this book'
tRp4052
I00
S'http://stores.lulu.com/web2py'
p4053
tp4054
aasbasbasbasbasbasbasbag61
(g77
g63
NtRp4055
(dp4056
g66
(dp4057
sg75
g3697
sg68
(lp4058
g61
(g82
g63
NtRp4059
(dp4060
g66
(dp4061
sg75
g4055
sg68
(lp4062
g61
(g62
g63
NtRp4063
(dp4064
g66
(dp4065
g74
I2
ssg75
g4059
sg68
(lp4066
g61
(g70
g63
NtRp4067
(dp4068
g66
(dp4069
g74
I1
ssg75
Nsg68
(lp4070
g61
(g77
g63
NtRp4071
(dp4072
g66
(dp4073
sg75
g4067
sg68
(lp4074
g61
(g82
g63
NtRp4075
(dp4076
g66
(dp4077
sg75
g4071
sg68
(lp4078
g61
(g62
g63
NtRp4079
(dp4080
g66
(dp4081
g74
I1
ssg75
g4075
sg68
(lp4082
g3583
(S't\t\x00\x00\x00Community'
tRp4083
asbasbasbag61
(g77
g63
NtRp4084
(dp4085
g66
(dp4086
sg75
g4067
sg68
(lp4087
g61
(g82
g63
NtRp4088
(dp4089
g66
(dp4090
sg75
g4084
sg68
(lp4091
g61
(g62
g63
NtRp4092
(dp4093
g66
(dp4094
g74
I1
ssg75
g4088
sg68
(lp4095
I00
asbasbasbag61
(g77
g63
NtRp4096
(dp4097
g66
(dp4098
sg75
g4067
sg68
(lp4099
g61
(g82
g63
NtRp4100
(dp4101
g66
(dp4102
sg75
g4096
sg68
(lp4103
g61
(g62
g63
NtRp4104
(dp4105
g66
(dp4106
g74
I1
ssg75
g4100
sg68
(lp4107
Nasbasbasbag61
(g77
g63
NtRp4108
(dp4109
g66
(dp4110
sg75
g4067
sg68
(lp4111
g61
(g82
g63
NtRp4112
(dp4113
g66
(dp4114
sg75
g4108
sg68
(lp4115
g61
(g62
g63
NtRp4116
(dp4117
g66
(dp4118
g74
I1
ssg75
g4112
sg68
(lp4119
(lp4120
(g3583
(S't\x06\x00\x00\x00Groups'
tRp4121
I00
S'http://www.web2py.com/examples/default/usergroups'
p4122
tp4123
a(g3583
(S't\x07\x00\x00\x00Twitter'
tRp4124
I00
S'http://twitter.com/web2py'
p4125
tp4126
a(g3583
(S's\t\x00\x00\x00Live Chat'
tRp4127
I00
S'http://webchat.freenode.net/?channels=web2py'
p4128
tp4129
aasbasbasbasbasbasbasbag61
(g77
g63
NtRp4130
(dp4131
g66
(dp4132
sg75
g3697
sg68
(lp4133
g61
(g82
g63
NtRp4134
(dp4135
g66
(dp4136
sg75
g4130
sg68
(lp4137
g61
(g62
g63
NtRp4138
(dp4139
g66
(dp4140
g74
I2
ssg75
g4134
sg68
(lp4141
g61
(g70
g63
NtRp4142
(dp4143
g66
(dp4144
g74
I1
ssg75
Nsg68
(lp4145
g61
(g77
g63
NtRp4146
(dp4147
g66
(dp4148
sg75
g4142
sg68
(lp4149
g61
(g82
g63
NtRp4150
(dp4151
g66
(dp4152
sg75
g4146
sg68
(lp4153
g61
(g62
g63
NtRp4154
(dp4155
g66
(dp4156
g74
I1
ssg75
g4150
sg68
(lp4157
g3583
(S't\x07\x00\x00\x00Plugins'
tRp4158
asbasbasbag61
(g77
g63
NtRp4159
(dp4160
g66
(dp4161
sg75
g4142
sg68
(lp4162
g61
(g82
g63
NtRp4163
(dp4164
g66
(dp4165
sg75
g4159
sg68
(lp4166
g61
(g62
g63
NtRp4167
(dp4168
g66
(dp4169
g74
I1
ssg75
g4163
sg68
(lp4170
I00
asbasbasbag61
(g77
g63
NtRp4171
(dp4172
g66
(dp4173
sg75
g4142
sg68
(lp4174
g61
(g82
g63
NtRp4175
(dp4176
g66
(dp4177
sg75
g4171
sg68
(lp4178
g61
(g62
g63
NtRp4179
(dp4180
g66
(dp4181
g74
I1
ssg75
g4175
sg68
(lp4182
Nasbasbasbag61
(g77
g63
NtRp4183
(dp4184
g66
(dp4185
sg75
g4142
sg68
(lp4186
g61
(g82
g63
NtRp4187
(dp4188
g66
(dp4189
sg75
g4183
sg68
(lp4190
g61
(g62
g63
NtRp4191
(dp4192
g66
(dp4193
g74
I1
ssg75
g4187
sg68
(lp4194
(lp4195
(S'plugin_wiki'
p4196
I00
S'http://web2py.com/examples/default/download'
p4197
tp4198
a(g3583
(S's\r\x00\x00\x00Other Plugins'
tRp4199
I00
g3929
tp4200
a(g3583
(S's\x0e\x00\x00\x00Layout Plugins'
tRp4201
I00
g3932
tp4202
aasbasbasbasbasbasbasbasbasbasbasbasbasbasbasbasbasbasbasbag61
(g77
g63
NtRp4203
(dp4204
g66
(dp4205
sg75
g3059
sg68
(lp4206
g61
(g82
g63
NtRp4207
(dp4208
g66
(dp4209
g86
g87
ssg75
g4203
sg68
(lp4210
S'meta'
p4211
asbag61
(g82
g63
NtRp4212
(dp4213
g66
(dp4214
g93
g94
ssg75
g4203
sg68
(lp4215
S':'
asbag61
(g82
g63
NtRp4216
(dp4217
g66
(dp4218
sg75
g4203
sg68
(lp4219
g61
(g62
g63
NtRp4220
(dp4221
g66
(dp4222
g74
I5
ssg75
g4216
sg68
(lp4223
g61
(g70
g63
NtRp4224
(dp4225
g66
(dp4226
g74
I4
ssg75
Nsg68
(lp4227
g61
(g77
g63
NtRp4228
(dp4229
g66
(dp4230
sg75
g4224
sg68
(lp4231
g61
(g82
g63
NtRp4232
(dp4233
g66
(dp4234
g86
g87
ssg75
g4228
sg68
(lp4235
S'author'
p4236
asbag61
(g82
g63
NtRp4237
(dp4238
g66
(dp4239
g93
g94
ssg75
g4228
sg68
(lp4240
S':'
asbag61
(g82
g63
NtRp4241
(dp4242
g66
(dp4243
sg75
g4228
sg68
(lp4244
g61
(g62
g63
NtRp4245
(dp4246
g66
(dp4247
g74
I4
ssg75
g4241
sg68
(lp4248
S'Your Name <you@example.com>'
p4249
asbasbasbag61
(g77
g63
NtRp4250
(dp4251
g66
(dp4252
sg75
g4224
sg68
(lp4253
g61
(g82
g63
NtRp4254
(dp4255
g66
(dp4256
g86
g87
ssg75
g4250
sg68
(lp4257
S'copyright'
p4258
asbag61
(g82
g63
NtRp4259
(dp4260
g66
(dp4261
g93
g94
ssg75
g4250
sg68
(lp4262
S':'
asbag61
(g82
g63
NtRp4263
(dp4264
g66
(dp4265
sg75
g4250
sg68
(lp4266
g61
(g62
g63
NtRp4267
(dp4268
g66
(dp4269
g74
I4
ssg75
g4263
sg68
(lp4270
S'Copyright 2011'
p4271
asbasbasbag61
(g77
g63
NtRp4272
(dp4273
g66
(dp4274
sg75
g4224
sg68
(lp4275
g61
(g82
g63
NtRp4276
(dp4277
g66
(dp4278
g86
g87
ssg75
g4272
sg68
(lp4279
S'description'
p4280
asbag61
(g82
g63
NtRp4281
(dp4282
g66
(dp4283
g93
g94
ssg75
g4272
sg68
(lp4284
S':'
asbag61
(g82
g63
NtRp4285
(dp4286
g66
(dp4287
sg75
g4272
sg68
(lp4288
g61
(g62
g63
NtRp4289
(dp4290
g66
(dp4291
g74
I4
ssg75
g4285
sg68
(lp4292
S'a cool new app'
p4293
asbasbasbag61
(g77
g63
NtRp4294
(dp4295
g66
(dp4296
sg75
g4224
sg68
(lp4297
g61
(g82
g63
NtRp4298
(dp4299
g66
(dp4300
g86
g87
ssg75
g4294
sg68
(lp4301
S'generator'
p4302
asbag61
(g82
g63
NtRp4303
(dp4304
g66
(dp4305
g93
g94
ssg75
g4294
sg68
(lp4306
S':'
asbag61
(g82
g63
NtRp4307
(dp4308
g66
(dp4309
sg75
g4294
sg68
(lp4310
g61
(g62
g63
NtRp4311
(dp4312
g66
(dp4313
g74
I4
ssg75
g4307
sg68
(lp4314
S'Web2py Web Framework'
p4315
asbasbasbag61
(g77
g63
NtRp4316
(dp4317
g66
(dp4318
sg75
g4224
sg68
(lp4319
g61
(g82
g63
NtRp4320
(dp4321
g66
(dp4322
g86
g87
ssg75
g4316
sg68
(lp4323
S'keywords'
p4324
asbag61
(g82
g63
NtRp4325
(dp4326
g66
(dp4327
g93
g94
ssg75
g4316
sg68
(lp4328
S':'
asbag61
(g82
g63
NtRp4329
(dp4330
g66
(dp4331
sg75
g4316
sg68
(lp4332
g61
(g62
g63
NtRp4333
(dp4334
g66
(dp4335
g74
I4
ssg75
g4329
sg68
(lp4336
S'web2py, python, framework'
p4337
asbasbasbasbasbasbasbag61
(g77
g63
NtRp4338
(dp4339
g66
(dp4340
sg75
g3059
sg68
(lp4341
g61
(g82
g63
NtRp4342
(dp4343
g66
(dp4344
g86
g87
ssg75
g4338
sg68
(lp4345
S'postprocessing'
p4346
asbag61
(g82
g63
NtRp4347
(dp4348
g66
(dp4349
g93
g94
ssg75
g4338
sg68
(lp4350
S':'
asbag61
(g82
g63
NtRp4351
(dp4352
g66
(dp4353
sg75
g4338
sg68
(lp4354
g61
(g62
g63
NtRp4355
(dp4356
g66
(dp4357
g74
I5
ssg75
g4351
sg68
(lp4358
g61
(g70
g63
NtRp4359
(dp4360
g66
(dp4361
g74
I4
ssg75
Nsg68
(lp4362
sbasbasbasbag61
(g77
g63
NtRp4363
(dp4364
g66
(dp4365
sg75
g3059
sg68
(lp4366
g61
(g82
g63
NtRp4367
(dp4368
g66
(dp4369
g86
g87
ssg75
g4363
sg68
(lp4370
S'session_file'
p4371
asbag61
(g82
g63
NtRp4372
(dp4373
g66
(dp4374
g93
g94
ssg75
g4363
sg68
(lp4375
S':'
asbag61
(g82
g63
NtRp4376
(dp4377
g66
(dp4378
sg75
g4363
sg68
(lp4379
g61
(g62
g63
NtRp4380
(dp4381
g66
(dp4382
g74
I5
ssg75
g4376
sg68
(lp4383
S"<open file 'C:\\web2py\\applications\\unioeste_code\\sessions\\127.0.0.1-5989d03c-a209-4e60-9ca5-abb9a6550c68', mode 'rb+' at 0x06B89CC8>"
p4384
asbasbasbag61
(g77
g63
NtRp4385
(dp4386
g66
(dp4387
sg75
g3059
sg68
(lp4388
g61
(g82
g63
NtRp4389
(dp4390
g66
(dp4391
g86
g87
ssg75
g4385
sg68
(lp4392
S'session_filename'
p4393
asbag61
(g82
g63
NtRp4394
(dp4395
g66
(dp4396
g93
g94
ssg75
g4385
sg68
(lp4397
S':'
asbag61
(g82
g63
NtRp4398
(dp4399
g66
(dp4400
sg75
g4385
sg68
(lp4401
g61
(g62
g63
NtRp4402
(dp4403
g66
(dp4404
g74
I5
ssg75
g4398
sg68
(lp4405
S'C:\\web2py\\applications\\unioeste_code\\sessions\\127.0.0.1-5989d03c-a209-4e60-9ca5-abb9a6550c68'
p4406
asbasbasbag61
(g77
g63
NtRp4407
(dp4408
g66
(dp4409
sg75
g3059
sg68
(lp4410
g61
(g82
g63
NtRp4411
(dp4412
g66
(dp4413
g86
g87
ssg75
g4407
sg68
(lp4414
S'session_id'
p4415
asbag61
(g82
g63
NtRp4416
(dp4417
g66
(dp4418
g93
g94
ssg75
g4407
sg68
(lp4419
S':'
asbag61
(g82
g63
NtRp4420
(dp4421
g66
(dp4422
sg75
g4407
sg68
(lp4423
g61
(g62
g63
NtRp4424
(dp4425
g66
(dp4426
g74
I5
ssg75
g4420
sg68
(lp4427
S'127.0.0.1-5989d03c-a209-4e60-9ca5-abb9a6550c68'
p4428
asbasbasbag61
(g77
g63
NtRp4429
(dp4430
g66
(dp4431
sg75
g3059
sg68
(lp4432
g61
(g82
g63
NtRp4433
(dp4434
g66
(dp4435
g86
g87
ssg75
g4429
sg68
(lp4436
S'session_id_name'
p4437
asbag61
(g82
g63
NtRp4438
(dp4439
g66
(dp4440
g93
g94
ssg75
g4429
sg68
(lp4441
S':'
asbag61
(g82
g63
NtRp4442
(dp4443
g66
(dp4444
sg75
g4429
sg68
(lp4445
g61
(g62
g63
NtRp4446
(dp4447
g66
(dp4448
g74
I5
ssg75
g4442
sg68
(lp4449
g3116
asbasbasbag61
(g77
g63
NtRp4450
(dp4451
g66
(dp4452
sg75
g3059
sg68
(lp4453
g61
(g82
g63
NtRp4454
(dp4455
g66
(dp4456
g86
g87
ssg75
g4450
sg68
(lp4457
S'session_locked'
p4458
asbag61
(g82
g63
NtRp4459
(dp4460
g66
(dp4461
g93
g94
ssg75
g4450
sg68
(lp4462
S':'
asbag61
(g82
g63
NtRp4463
(dp4464
g66
(dp4465
sg75
g4450
sg68
(lp4466
g61
(g62
g63
NtRp4467
(dp4468
g66
(dp4469
g74
I5
ssg75
g4463
sg68
(lp4470
g1654
asbasbasbag61
(g77
g63
NtRp4471
(dp4472
g66
(dp4473
sg75
g3059
sg68
(lp4474
g61
(g82
g63
NtRp4475
(dp4476
g66
(dp4477
g86
g87
ssg75
g4471
sg68
(lp4478
S'session_new'
p4479
asbag61
(g82
g63
NtRp4480
(dp4481
g66
(dp4482
g93
g94
ssg75
g4471
sg68
(lp4483
S':'
asbag61
(g82
g63
NtRp4484
(dp4485
g66
(dp4486
sg75
g4471
sg68
(lp4487
g61
(g62
g63
NtRp4488
(dp4489
g66
(dp4490
g74
I5
ssg75
g4484
sg68
(lp4491
g104
asbasbasbag61
(g77
g63
NtRp4492
(dp4493
g66
(dp4494
sg75
g3059
sg68
(lp4495
g61
(g82
g63
NtRp4496
(dp4497
g66
(dp4498
g86
g87
ssg75
g4492
sg68
(lp4499
S'status'
p4500
asbag61
(g82
g63
NtRp4501
(dp4502
g66
(dp4503
g93
g94
ssg75
g4492
sg68
(lp4504
S':'
asbag61
(g82
g63
NtRp4505
(dp4506
g66
(dp4507
sg75
g4492
sg68
(lp4508
g61
(g62
g63
NtRp4509
(dp4510
g66
(dp4511
g74
I5
ssg75
g4505
sg68
(lp4512
S'200'
p4513
asbasbasbag61
(g77
g63
NtRp4514
(dp4515
g66
(dp4516
sg75
g3059
sg68
(lp4517
g61
(g82
g63
NtRp4518
(dp4519
g66
(dp4520
g86
g87
ssg75
g4514
sg68
(lp4521
S'subtitle'
p4522
asbag61
(g82
g63
NtRp4523
(dp4524
g66
(dp4525
g93
g94
ssg75
g4514
sg68
(lp4526
S':'
asbag61
(g82
g63
NtRp4527
(dp4528
g66
(dp4529
sg75
g4514
sg68
(lp4530
g61
(g62
g63
NtRp4531
(dp4532
g66
(dp4533
g74
I5
ssg75
g4527
sg68
(lp4534
g3583
(S's\x0f\x00\x00\x00Personalize-me!'
tRp4535
asbasbasbag61
(g77
g63
NtRp4536
(dp4537
g66
(dp4538
sg75
g3059
sg68
(lp4539
g61
(g82
g63
NtRp4540
(dp4541
g66
(dp4542
g86
g87
ssg75
g4536
sg68
(lp4543
S'title'
p4544
asbag61
(g82
g63
NtRp4545
(dp4546
g66
(dp4547
g93
g94
ssg75
g4536
sg68
(lp4548
S':'
asbag61
(g82
g63
NtRp4549
(dp4550
g66
(dp4551
sg75
g4536
sg68
(lp4552
g61
(g62
g63
NtRp4553
(dp4554
g66
(dp4555
g74
I5
ssg75
g4549
sg68
(lp4556
S'Unioeste Code'
p4557
asbasbasbag61
(g77
g63
NtRp4558
(dp4559
g66
(dp4560
sg75
g3059
sg68
(lp4561
g61
(g82
g63
NtRp4562
(dp4563
g66
(dp4564
g86
g87
ssg75
g4558
sg68
(lp4565
g2339
asbag61
(g82
g63
NtRp4566
(dp4567
g66
(dp4568
g93
g94
ssg75
g4558
sg68
(lp4569
S':'
asbag61
(g82
g63
NtRp4570
(dp4571
g66
(dp4572
sg75
g4558
sg68
(lp4573
g61
(g62
g63
NtRp4574
(dp4575
g66
(dp4576
g74
I5
ssg75
g4570
sg68
(lp4577
g2352
asbasbasbag61
(g77
g63
NtRp4578
(dp4579
g66
(dp4580
sg75
g3059
sg68
(lp4581
g61
(g82
g63
NtRp4582
(dp4583
g66
(dp4584
g86
g87
ssg75
g4578
sg68
(lp4585
S'view'
p4586
asbag61
(g82
g63
NtRp4587
(dp4588
g66
(dp4589
g93
g94
ssg75
g4578
sg68
(lp4590
S':'
asbag61
(g82
g63
NtRp4591
(dp4592
g66
(dp4593
sg75
g4578
sg68
(lp4594
g61
(g62
g63
NtRp4595
(dp4596
g66
(dp4597
g74
I5
ssg75
g4591
sg68
(lp4598
S'default/showProblem.html'
p4599
asbasbasbasbasbsS'locals'
p4600
(dp4601
g4
S"r'C:\\web2py\\applications\\unioeste_code\\views\\default/showProblem.html'"
p4602
sg6
S'r"response.write(\'<!DOCTYPE html>\\n<!-- paulirish....ponse.write(\'\\n</body>\\n</html>\\n\', escape=False)"'
p4603
sssS'traceback'
p4604
S'Traceback (most recent call last):\n  File "gluon/restricted.py", line 204, in restricted\n  File "gluon/restricted.py", line 189, in compile2\n  File "C:\\web2py\\applications\\unioeste_code\\views\\default/showProblem.html", line 94\n    s = user.first_name + " " + user.last_name + " - (" + user.email + ") " )\n                                                                            ^\nSyntaxError: invalid syntax\n'
p4605
s.