(dp1
S'output'
p2
S"<type 'exceptions.SyntaxError'> invalid syntax (default/Problem.html, line 10)"
p3
sS'layer'
p4
S'C:\\web2py\\applications\\unioeste_code\\views\\default/Problem.html'
p5
sS'code'
p6
S'response.write(\' \', escape=False)\nresponse.write(\'<!DOCTYPE html>\\r\\n<html lang="en">\\r\\n  <head>\\r\\n    <meta charset="utf-8">\\r\\n    <title>\', escape=False)\nresponse.write(response.title or request.application)\nresponse.write(\'</title>\\r\\n    <meta name="viewport" content="width=device-width, initial-scale=1.0">\\r\\n    <meta name="description" content="">\\r\\n    <meta name="author" content="">\\r\\n\\r\\n    <!-- Le HTML5 shim, for IE6-8 support of HTML5 elements -->\\r\\n    <!--[if lt IE 9]>\\r\\n      <script src="http://html5shim.googlecode.com/svn/trunk/html5.js"></script>\\r\\n    <![endif]-->\\r\\n\\r\\n    <!-- Le fav and touch icons -->\\r\\n    <link rel="shortcut icon" href="../assets/ico/favicon.ico">\\r\\n    <link rel="apple-touch-icon-precomposed" sizes="144x144" href="../assets/ico/apple-touch-icon-144-precomposed.png">\\r\\n    <link rel="apple-touch-icon-precomposed" sizes="114x114" href="../assets/ico/apple-touch-icon-114-precomposed.png">\\r\\n    <link rel="apple-touch-icon-precomposed" sizes="72x72" href="../assets/ico/apple-touch-icon-72-precomposed.png">\\r\\n    <link rel="apple-touch-icon-precomposed" href="../assets/ico/apple-touch-icon-57-precomposed.png">\\r\\n\\r\\n    <!-- include stylesheets -->\\r\\n\\r\\n    <link href="/unioeste_code/static/css/bootstrap.css" rel="stylesheet">\\r\\n    <link href="/unioeste_code/static/css/bootstrap-responsive.css" rel="stylesheet">\\r\\n    <script src="/unioeste_code/static/js/jquery.js" type="text/javascript"></script>\\r\\n    <script src="/unioeste_code/static/js/bootstrap.js" type="text/javascript"></script>\\r\\n\\r\\n    <!-- Distancia do topo pro layout-->\\r\\n      <style>\\r\\n      body {\\r\\n        padding-top: 60px; /* 60px to make the container go all the way to the bottom of the topbar */\\r\\n      }\\r\\n      </style>\\r\\n\\r\\n      <!-- Le CSS customizado, font e tals-->\\r\\n      <link href="/unioeste_code/static/css/font_style.css" rel="stylesheet">\\r\\n\\r\\n  </head>\\r\\n\\r\\n  <body>\\r\\n\\r\\n    <div class="navbar navbar-fixed-top">\\r\\n      <div class="navbar-inner">\\r\\n        <div class="container">\\r\\n          <a class="btn btn-navbar" data-toggle="collapse" data-target=".nav-collapse">\\r\\n            <span class="icon-bar"></span>\\r\\n            <span class="icon-bar"></span>\\r\\n            <span class="icon-bar"></span>\\r\\n          </a>\\r\\n          <a class="brand" href="\', escape=False)\nresponse.write(URL(\'index\'))\nresponse.write(\'">\', escape=False)\nresponse.write(response.title or request.application)\nresponse.write(\'</a>\\r\\n          <div class="nav-collapse">\\r\\n          <ul class="nav pull-right">\\r\\n            <li class="divider-vertical"></li>\\r\\n            <li class="uc_topbar"><a href="#">Sobre</a></li>\\r\\n            <li class="divider-vertical"></li>\\r\\n            <li class="uc_topbar"><a href="#">Login!</a></li>\\r\\n            <li class="divider-vertical"></li>\\r\\n\\r\\n<!-- Drop Down Login\\r\\n            <li class="dropdown">\\r\\n              <a href="#" class="dropdown-toggle" data-toggle="dropdown">Dropdown <b class="caret"></b></a>\\r\\n              <ul class="dropdown-menu">\\r\\n                <li><a href="#">Action</a></li>\\r\\n                <li><a href="#">Another action</a></li>\\r\\n                <li><a href="#">Something else here</a></li>\\r\\n                <li class="divider"></li>\\r\\n                <li><a href="#">Separated link</a></li>\\r\\n              </ul>\\r\\n            </li>\\r\\n          </ul>\\r\\n-->\\r\\n          </div><!--/.nav-collapse -->\\r\\n        </div>\\r\\n      </div>\\r\\n    </div>\\r\\n\\r\\n<!-- Corpo principal da p\\xc3\\xa1gina! -->\\r\\n  \\r\\n    <div class="container">\\r\\n      \', escape=False)\nresponse.write(\'auth\' in globals() and auth.navbar(prefix=\'\')\nresponse.write(\'\\r\\n\\r\\n      \', escape=False)\nresponse.write(\'\\r\\n      \', escape=False)\nresponse.write(\'\\r\\n\\r\\n\\r\\n <head>\\r\\n <script src="../../static/lib/codemirror.js"></script>\\r\\n <link rel="stylesheet" href="../../static/lib/codemirror.css">\\r\\n <script src="../../static/mode/clike.js"></script>\\r\\n <style>.CodeMirror {border: 3px solid #cccccc;}</style>\\r\\n\\r\\n\\r\\n    <style type="text/css">\\r\\n      .CodeMirror-fullscreen {\\r\\n        display: block;\\r\\n        position: absolute;\\r\\n        top: 0; left: 0;\\r\\n        width: 100%;\\r\\n        z-index: 9999;\\r\\n      }\\r\\n    </style>\\r\\n\\r\\n</head>\\r\\n\\r\\n\\r\\n\', escape=False)\nfrom uc_utils import shortify\nresponse.write(\'\\r\\n\\r\\n\', escape=False)\nresponse.write(H1(problem.title))\nresponse.write(\'\\r\\n\\r\\n<div class="hero-unit" style="border: 1em dotted #fff">\\r\\n\', escape=False)\nresponse.write(problem.body)\nresponse.write(\'\\t\\r\\n</div>\\r\\n\\r\\n\', escape=False)\nresponse.write(H2("C\xc3\xb3digos postados", _style="color:green"))\nresponse.write(\'\\r\\n<div>\\r\\n<ul class="nav nav-list">\\r\\n\', escape=False)\nfor code in codes:\n    response.write(\'\\r\\n\', escape=False)\n    user = db(db.auth_user.id==code.created_by).select().first()\n    response.write(\'\\r\\n\\r\\n<li>\\r\\n      \\r\\n  <div>\\r\\n  <i class="icon-flag">\\r\\n  \\r\\n  </i>\\r\\n       \', escape=False)\n    response.write(A(B(shortify(user)),_href=URL("Code", args=code.id)))\n    response.write(\'\\r\\n       \', escape=False)\n    response.write(SPAN(prettydate(code.created_on),_style="font-size: 80%"))\n    response.write(\'\\r\\n</div>\\r\\n</li>\\r\\n\\r\\n\', escape=False)\n    pass\nresponse.write(\'\\r\\n</ul>\\r\\n</div>\\r\\n\\r\\n\', escape=False)\nresponse.write(H2(T("Post your code!")))\nresponse.write(\'\\r\\n\', escape=False)\nresponse.write(form.custom.begin)\nresponse.write(\'\\r\\n<div>\\r\\n\', escape=False)\nresponse.write(form.custom.widget.body)\nresponse.write(\'\\r\\n</div>\\r\\n\\r\\n<script type="text/javascript">\\r\\n      var editor = CodeMirror.fromTextArea(document.getElementById("code_body"), {\\r\\n        lineNumbers: true,\\r\\n        matchBrackets: true,\\r\\n        mode: "text/x-c++src"\\r\\n      });\\r\\n</script>\\r\\n <p style="float: center;">Press <strong>F11</strong> when cursor is in the editor to toggle full screen editing. <strong>Esc</strong> can also be used to <i>exit</i> full screen editing.</p>\\r\\n<input type="submit" class="btn btn-primary btn-large pull-right" value=\', escape=False)\nresponse.write(T("Submit"))\nresponse.write(\'>\\r\\n\', escape=False)\nresponse.write(form.custom.end)\nresponse.write(\'\\r\\n\\r\\n\\r\\n\\r\\n\', escape=False)\nresponse.write(\'\\r\\n      \', escape=False)\nresponse.write(\'\\r\\n\\r\\n    </div> <!-- /container -->\\r\\n\\r\\n  </body>\\r\\n</html>\\r\\n\\r\\n\', escape=False)'
p7
sS'snapshot'
p8
(dp9
S'exception'
p10
(dp11
S'__getslice__'
p12
S"<method-wrapper '__getslice__' of exceptions.SyntaxError object at 0x06361AB0>"
p13
sS'text'
p14
S'"response.write(\'\\\\r\\\\n\\\\r\\\\n      \', escape=False)\\n"'
p15
sS'__str__'
p16
S"<method-wrapper '__str__' of exceptions.SyntaxError object at 0x06361AB0>"
p17
sS'__reduce__'
p18
S'<built-in method __reduce__ of exceptions.SyntaxError object at 0x06361AB0>'
p19
sS'__dict__'
p20
S'{}'
p21
sS'__init__'
p22
S"<method-wrapper '__init__' of exceptions.SyntaxError object at 0x06361AB0>"
p23
sS'__setattr__'
p24
S"<method-wrapper '__setattr__' of exceptions.SyntaxError object at 0x06361AB0>"
p25
sS'__reduce_ex__'
p26
S'<built-in method __reduce_ex__ of exceptions.SyntaxError object at 0x06361AB0>'
p27
sS'__new__'
p28
S'<built-in method __new__ of type object at 0x1E1CDBD0>'
p29
sS'__class__'
p30
S"<type 'exceptions.SyntaxError'>"
p31
sS'filename'
p32
S"r'C:\\web2py\\applications\\unioeste_code\\views\\default/Problem.html'"
p33
sS'lineno'
p34
S'10'
p35
sS'msg'
p36
S"'invalid syntax'"
p37
sS'__doc__'
p38
S"'Invalid syntax.'"
p39
sS'__getitem__'
p40
S"<method-wrapper '__getitem__' of exceptions.SyntaxError object at 0x06361AB0>"
p41
sS'__setstate__'
p42
S'<built-in method __setstate__ of exceptions.SyntaxError object at 0x06361AB0>'
p43
sS'__getattribute__'
p44
S"<method-wrapper '__getattribute__' of exceptions.SyntaxError object at 0x06361AB0>"
p45
sS'print_file_and_line'
p46
S'None'
p47
sS'args'
p48
S'(\'invalid syntax\', (r\'C:\\web2py\\applications\\unioeste_code\\views\\default/Problem.html\', 10, 8, "response.write(\'\\\\r\\\\n\\\\r\\\\n      \', escape=False)\\n"))'
p49
sS'offset'
p50
S'8'
sS'__delattr__'
p51
S"<method-wrapper '__delattr__' of exceptions.SyntaxError object at 0x06361AB0>"
p52
sS'__repr__'
p53
S"<method-wrapper '__repr__' of exceptions.SyntaxError object at 0x06361AB0>"
p54
sS'__hash__'
p55
S"<method-wrapper '__hash__' of exceptions.SyntaxError object at 0x06361AB0>"
p56
ssS'evalue'
p57
S'invalid syntax (default/Problem.html, line 10)'
p58
sS'request'
p59
ccopy_reg
_reconstructor
p60
(cgluon.html
BEAUTIFY
p61
c__builtin__
object
p62
NtRp63
(dp64
S'attributes'
p65
(dp66
sS'components'
p67
(lp68
g60
(cgluon.html
TABLE
p69
g62
NtRp70
(dp71
g65
(dp72
S'level'
p73
I5
ssS'parent'
p74
Nsg67
(lp75
g60
(cgluon.html
TR
p76
g62
NtRp77
(dp78
g65
(dp79
sg74
g70
sg67
(lp80
g60
(cgluon.html
TD
p81
g62
NtRp82
(dp83
g65
(dp84
S'_style'
p85
S'font-weight:bold;vertical-align:top'
p86
ssg74
g77
sg67
(lp87
S'ajax'
p88
asbag60
(g81
g62
NtRp89
(dp90
g65
(dp91
S'_valign'
p92
S'top'
p93
ssg74
g77
sg67
(lp94
S':'
asbag60
(g81
g62
NtRp95
(dp96
g65
(dp97
sg74
g77
sg67
(lp98
g60
(g61
g62
NtRp99
(dp100
g65
(dp101
g73
I5
ssg74
g95
sg67
(lp102
S'False'
p103
asbasbasbag60
(g76
g62
NtRp104
(dp105
g65
(dp106
sg74
g70
sg67
(lp107
g60
(g81
g62
NtRp108
(dp109
g65
(dp110
g85
g86
ssg74
g104
sg67
(lp111
S'application'
p112
asbag60
(g81
g62
NtRp113
(dp114
g65
(dp115
g92
g93
ssg74
g104
sg67
(lp116
S':'
asbag60
(g81
g62
NtRp117
(dp118
g65
(dp119
sg74
g104
sg67
(lp120
g60
(g61
g62
NtRp121
(dp122
g65
(dp123
g73
I5
ssg74
g117
sg67
(lp124
S'unioeste_code'
p125
asbasbasbag60
(g76
g62
NtRp126
(dp127
g65
(dp128
sg74
g70
sg67
(lp129
g60
(g81
g62
NtRp130
(dp131
g65
(dp132
g85
g86
ssg74
g126
sg67
(lp133
g48
asbag60
(g81
g62
NtRp134
(dp135
g65
(dp136
g92
g93
ssg74
g126
sg67
(lp137
S':'
asbag60
(g81
g62
NtRp138
(dp139
g65
(dp140
sg74
g126
sg67
(lp141
g60
(g61
g62
NtRp142
(dp143
g65
(dp144
g73
I5
ssg74
g138
sg67
(lp145
g60
(g69
g62
NtRp146
(dp147
g65
(dp148
g73
I4
ssg74
Nsg67
(lp149
g60
(g76
g62
NtRp150
(dp151
g65
(dp152
sg74
g146
sg67
(lp153
g60
(g81
g62
NtRp154
(dp155
g65
(dp156
sg74
g150
sg67
(lp157
g60
(g61
g62
NtRp158
(dp159
g65
(dp160
g73
I4
ssg74
g154
sg67
(lp161
S'1'
asbasbasbasbasbasbasbag60
(g76
g62
NtRp162
(dp163
g65
(dp164
sg74
g70
sg67
(lp165
g60
(g81
g62
NtRp166
(dp167
g65
(dp168
g85
g86
ssg74
g162
sg67
(lp169
S'body'
p170
asbag60
(g81
g62
NtRp171
(dp172
g65
(dp173
g92
g93
ssg74
g162
sg67
(lp174
S':'
asbag60
(g81
g62
NtRp175
(dp176
g65
(dp177
sg74
g162
sg67
(lp178
g60
(g61
g62
NtRp179
(dp180
g65
(dp181
g73
I5
ssg74
g175
sg67
(lp182
S'<cStringIO.StringO object at 0x0685E520>'
p183
asbasbasbag60
(g76
g62
NtRp184
(dp185
g65
(dp186
sg74
g70
sg67
(lp187
g60
(g81
g62
NtRp188
(dp189
g65
(dp190
g85
g86
ssg74
g184
sg67
(lp191
S'client'
p192
asbag60
(g81
g62
NtRp193
(dp194
g65
(dp195
g92
g93
ssg74
g184
sg67
(lp196
S':'
asbag60
(g81
g62
NtRp197
(dp198
g65
(dp199
sg74
g184
sg67
(lp200
g60
(g61
g62
NtRp201
(dp202
g65
(dp203
g73
I5
ssg74
g197
sg67
(lp204
S'127.0.0.1'
p205
asbasbasbag60
(g76
g62
NtRp206
(dp207
g65
(dp208
sg74
g70
sg67
(lp209
g60
(g81
g62
NtRp210
(dp211
g65
(dp212
g85
g86
ssg74
g206
sg67
(lp213
S'controller'
p214
asbag60
(g81
g62
NtRp215
(dp216
g65
(dp217
g92
g93
ssg74
g206
sg67
(lp218
S':'
asbag60
(g81
g62
NtRp219
(dp220
g65
(dp221
sg74
g206
sg67
(lp222
g60
(g61
g62
NtRp223
(dp224
g65
(dp225
g73
I5
ssg74
g219
sg67
(lp226
S'default'
p227
asbasbasbag60
(g76
g62
NtRp228
(dp229
g65
(dp230
sg74
g70
sg67
(lp231
g60
(g81
g62
NtRp232
(dp233
g65
(dp234
g85
g86
ssg74
g228
sg67
(lp235
S'cookies'
p236
asbag60
(g81
g62
NtRp237
(dp238
g65
(dp239
g92
g93
ssg74
g228
sg67
(lp240
S':'
asbag60
(g81
g62
NtRp241
(dp242
g65
(dp243
sg74
g228
sg67
(lp244
g60
(g61
g62
NtRp245
(dp246
g65
(dp247
g73
I5
ssg74
g241
sg67
(lp248
g60
(g69
g62
NtRp249
(dp250
g65
(dp251
g73
I4
ssg74
Nsg67
(lp252
g60
(g76
g62
NtRp253
(dp254
g65
(dp255
sg74
g249
sg67
(lp256
g60
(g81
g62
NtRp257
(dp258
g65
(dp259
g85
g86
ssg74
g253
sg67
(lp260
S'session_id_admin'
p261
asbag60
(g81
g62
NtRp262
(dp263
g65
(dp264
g92
g93
ssg74
g253
sg67
(lp265
S':'
asbag60
(g81
g62
NtRp266
(dp267
g65
(dp268
sg74
g253
sg67
(lp269
g60
(g61
g62
NtRp270
(dp271
g65
(dp272
g73
I4
ssg74
g266
sg67
(lp273
g60
(g69
g62
NtRp274
(dp275
g65
(dp276
g73
I3
ssg74
Nsg67
(lp277
g60
(g76
g62
NtRp278
(dp279
g65
(dp280
sg74
g274
sg67
(lp281
g60
(g81
g62
NtRp282
(dp283
g65
(dp284
g85
g86
ssg74
g278
sg67
(lp285
S'comment'
p286
asbag60
(g81
g62
NtRp287
(dp288
g65
(dp289
g92
g93
ssg74
g278
sg67
(lp290
S':'
asbag60
(g81
g62
NtRp291
(dp292
g65
(dp293
sg74
g278
sg67
(lp294
g60
(g61
g62
NtRp295
(dp296
g65
(dp297
g73
I3
ssg74
g291
sg67
(lp298
S''
asbasbasbag60
(g76
g62
NtRp299
(dp300
g65
(dp301
sg74
g274
sg67
(lp302
g60
(g81
g62
NtRp303
(dp304
g65
(dp305
g85
g86
ssg74
g299
sg67
(lp306
S'domain'
p307
asbag60
(g81
g62
NtRp308
(dp309
g65
(dp310
g92
g93
ssg74
g299
sg67
(lp311
S':'
asbag60
(g81
g62
NtRp312
(dp313
g65
(dp314
sg74
g299
sg67
(lp315
g60
(g61
g62
NtRp316
(dp317
g65
(dp318
g73
I3
ssg74
g312
sg67
(lp319
S''
asbasbasbag60
(g76
g62
NtRp320
(dp321
g65
(dp322
sg74
g274
sg67
(lp323
g60
(g81
g62
NtRp324
(dp325
g65
(dp326
g85
g86
ssg74
g320
sg67
(lp327
S'expires'
p328
asbag60
(g81
g62
NtRp329
(dp330
g65
(dp331
g92
g93
ssg74
g320
sg67
(lp332
S':'
asbag60
(g81
g62
NtRp333
(dp334
g65
(dp335
sg74
g320
sg67
(lp336
g60
(g61
g62
NtRp337
(dp338
g65
(dp339
g73
I3
ssg74
g333
sg67
(lp340
S''
asbasbasbag60
(g76
g62
NtRp341
(dp342
g65
(dp343
sg74
g274
sg67
(lp344
g60
(g81
g62
NtRp345
(dp346
g65
(dp347
g85
g86
ssg74
g341
sg67
(lp348
S'max-age'
p349
asbag60
(g81
g62
NtRp350
(dp351
g65
(dp352
g92
g93
ssg74
g341
sg67
(lp353
S':'
asbag60
(g81
g62
NtRp354
(dp355
g65
(dp356
sg74
g341
sg67
(lp357
g60
(g61
g62
NtRp358
(dp359
g65
(dp360
g73
I3
ssg74
g354
sg67
(lp361
S''
asbasbasbag60
(g76
g62
NtRp362
(dp363
g65
(dp364
sg74
g274
sg67
(lp365
g60
(g81
g62
NtRp366
(dp367
g65
(dp368
g85
g86
ssg74
g362
sg67
(lp369
S'path'
p370
asbag60
(g81
g62
NtRp371
(dp372
g65
(dp373
g92
g93
ssg74
g362
sg67
(lp374
S':'
asbag60
(g81
g62
NtRp375
(dp376
g65
(dp377
sg74
g362
sg67
(lp378
g60
(g61
g62
NtRp379
(dp380
g65
(dp381
g73
I3
ssg74
g375
sg67
(lp382
S''
asbasbasbag60
(g76
g62
NtRp383
(dp384
g65
(dp385
sg74
g274
sg67
(lp386
g60
(g81
g62
NtRp387
(dp388
g65
(dp389
g85
g86
ssg74
g383
sg67
(lp390
S'secure'
p391
asbag60
(g81
g62
NtRp392
(dp393
g65
(dp394
g92
g93
ssg74
g383
sg67
(lp395
S':'
asbag60
(g81
g62
NtRp396
(dp397
g65
(dp398
sg74
g383
sg67
(lp399
g60
(g61
g62
NtRp400
(dp401
g65
(dp402
g73
I3
ssg74
g396
sg67
(lp403
S''
asbasbasbag60
(g76
g62
NtRp404
(dp405
g65
(dp406
sg74
g274
sg67
(lp407
g60
(g81
g62
NtRp408
(dp409
g65
(dp410
g85
g86
ssg74
g404
sg67
(lp411
S'version'
p412
asbag60
(g81
g62
NtRp413
(dp414
g65
(dp415
g92
g93
ssg74
g404
sg67
(lp416
S':'
asbag60
(g81
g62
NtRp417
(dp418
g65
(dp419
sg74
g404
sg67
(lp420
g60
(g61
g62
NtRp421
(dp422
g65
(dp423
g73
I3
ssg74
g417
sg67
(lp424
S''
asbasbasbasbasbasbasbag60
(g76
g62
NtRp425
(dp426
g65
(dp427
sg74
g249
sg67
(lp428
g60
(g81
g62
NtRp429
(dp430
g65
(dp431
g85
g86
ssg74
g425
sg67
(lp432
S'session_id_unioeste_code'
p433
asbag60
(g81
g62
NtRp434
(dp435
g65
(dp436
g92
g93
ssg74
g425
sg67
(lp437
S':'
asbag60
(g81
g62
NtRp438
(dp439
g65
(dp440
sg74
g425
sg67
(lp441
g60
(g61
g62
NtRp442
(dp443
g65
(dp444
g73
I4
ssg74
g438
sg67
(lp445
g60
(g69
g62
NtRp446
(dp447
g65
(dp448
g73
I3
ssg74
Nsg67
(lp449
g60
(g76
g62
NtRp450
(dp451
g65
(dp452
sg74
g446
sg67
(lp453
g60
(g81
g62
NtRp454
(dp455
g65
(dp456
g85
g86
ssg74
g450
sg67
(lp457
g286
asbag60
(g81
g62
NtRp458
(dp459
g65
(dp460
g92
g93
ssg74
g450
sg67
(lp461
S':'
asbag60
(g81
g62
NtRp462
(dp463
g65
(dp464
sg74
g450
sg67
(lp465
g60
(g61
g62
NtRp466
(dp467
g65
(dp468
g73
I3
ssg74
g462
sg67
(lp469
S''
asbasbasbag60
(g76
g62
NtRp470
(dp471
g65
(dp472
sg74
g446
sg67
(lp473
g60
(g81
g62
NtRp474
(dp475
g65
(dp476
g85
g86
ssg74
g470
sg67
(lp477
g307
asbag60
(g81
g62
NtRp478
(dp479
g65
(dp480
g92
g93
ssg74
g470
sg67
(lp481
S':'
asbag60
(g81
g62
NtRp482
(dp483
g65
(dp484
sg74
g470
sg67
(lp485
g60
(g61
g62
NtRp486
(dp487
g65
(dp488
g73
I3
ssg74
g482
sg67
(lp489
S''
asbasbasbag60
(g76
g62
NtRp490
(dp491
g65
(dp492
sg74
g446
sg67
(lp493
g60
(g81
g62
NtRp494
(dp495
g65
(dp496
g85
g86
ssg74
g490
sg67
(lp497
g328
asbag60
(g81
g62
NtRp498
(dp499
g65
(dp500
g92
g93
ssg74
g490
sg67
(lp501
S':'
asbag60
(g81
g62
NtRp502
(dp503
g65
(dp504
sg74
g490
sg67
(lp505
g60
(g61
g62
NtRp506
(dp507
g65
(dp508
g73
I3
ssg74
g502
sg67
(lp509
S''
asbasbasbag60
(g76
g62
NtRp510
(dp511
g65
(dp512
sg74
g446
sg67
(lp513
g60
(g81
g62
NtRp514
(dp515
g65
(dp516
g85
g86
ssg74
g510
sg67
(lp517
g349
asbag60
(g81
g62
NtRp518
(dp519
g65
(dp520
g92
g93
ssg74
g510
sg67
(lp521
S':'
asbag60
(g81
g62
NtRp522
(dp523
g65
(dp524
sg74
g510
sg67
(lp525
g60
(g61
g62
NtRp526
(dp527
g65
(dp528
g73
I3
ssg74
g522
sg67
(lp529
S''
asbasbasbag60
(g76
g62
NtRp530
(dp531
g65
(dp532
sg74
g446
sg67
(lp533
g60
(g81
g62
NtRp534
(dp535
g65
(dp536
g85
g86
ssg74
g530
sg67
(lp537
g370
asbag60
(g81
g62
NtRp538
(dp539
g65
(dp540
g92
g93
ssg74
g530
sg67
(lp541
S':'
asbag60
(g81
g62
NtRp542
(dp543
g65
(dp544
sg74
g530
sg67
(lp545
g60
(g61
g62
NtRp546
(dp547
g65
(dp548
g73
I3
ssg74
g542
sg67
(lp549
S''
asbasbasbag60
(g76
g62
NtRp550
(dp551
g65
(dp552
sg74
g446
sg67
(lp553
g60
(g81
g62
NtRp554
(dp555
g65
(dp556
g85
g86
ssg74
g550
sg67
(lp557
g391
asbag60
(g81
g62
NtRp558
(dp559
g65
(dp560
g92
g93
ssg74
g550
sg67
(lp561
S':'
asbag60
(g81
g62
NtRp562
(dp563
g65
(dp564
sg74
g550
sg67
(lp565
g60
(g61
g62
NtRp566
(dp567
g65
(dp568
g73
I3
ssg74
g562
sg67
(lp569
S''
asbasbasbag60
(g76
g62
NtRp570
(dp571
g65
(dp572
sg74
g446
sg67
(lp573
g60
(g81
g62
NtRp574
(dp575
g65
(dp576
g85
g86
ssg74
g570
sg67
(lp577
g412
asbag60
(g81
g62
NtRp578
(dp579
g65
(dp580
g92
g93
ssg74
g570
sg67
(lp581
S':'
asbag60
(g81
g62
NtRp582
(dp583
g65
(dp584
sg74
g570
sg67
(lp585
g60
(g61
g62
NtRp586
(dp587
g65
(dp588
g73
I3
ssg74
g582
sg67
(lp589
S''
asbasbasbasbasbasbasbag60
(g76
g62
NtRp590
(dp591
g65
(dp592
sg74
g249
sg67
(lp593
g60
(g81
g62
NtRp594
(dp595
g65
(dp596
g85
g86
ssg74
g590
sg67
(lp597
S'session_id_welcome'
p598
asbag60
(g81
g62
NtRp599
(dp600
g65
(dp601
g92
g93
ssg74
g590
sg67
(lp602
S':'
asbag60
(g81
g62
NtRp603
(dp604
g65
(dp605
sg74
g590
sg67
(lp606
g60
(g61
g62
NtRp607
(dp608
g65
(dp609
g73
I4
ssg74
g603
sg67
(lp610
g60
(g69
g62
NtRp611
(dp612
g65
(dp613
g73
I3
ssg74
Nsg67
(lp614
g60
(g76
g62
NtRp615
(dp616
g65
(dp617
sg74
g611
sg67
(lp618
g60
(g81
g62
NtRp619
(dp620
g65
(dp621
g85
g86
ssg74
g615
sg67
(lp622
g286
asbag60
(g81
g62
NtRp623
(dp624
g65
(dp625
g92
g93
ssg74
g615
sg67
(lp626
S':'
asbag60
(g81
g62
NtRp627
(dp628
g65
(dp629
sg74
g615
sg67
(lp630
g60
(g61
g62
NtRp631
(dp632
g65
(dp633
g73
I3
ssg74
g627
sg67
(lp634
S''
asbasbasbag60
(g76
g62
NtRp635
(dp636
g65
(dp637
sg74
g611
sg67
(lp638
g60
(g81
g62
NtRp639
(dp640
g65
(dp641
g85
g86
ssg74
g635
sg67
(lp642
g307
asbag60
(g81
g62
NtRp643
(dp644
g65
(dp645
g92
g93
ssg74
g635
sg67
(lp646
S':'
asbag60
(g81
g62
NtRp647
(dp648
g65
(dp649
sg74
g635
sg67
(lp650
g60
(g61
g62
NtRp651
(dp652
g65
(dp653
g73
I3
ssg74
g647
sg67
(lp654
S''
asbasbasbag60
(g76
g62
NtRp655
(dp656
g65
(dp657
sg74
g611
sg67
(lp658
g60
(g81
g62
NtRp659
(dp660
g65
(dp661
g85
g86
ssg74
g655
sg67
(lp662
g328
asbag60
(g81
g62
NtRp663
(dp664
g65
(dp665
g92
g93
ssg74
g655
sg67
(lp666
S':'
asbag60
(g81
g62
NtRp667
(dp668
g65
(dp669
sg74
g655
sg67
(lp670
g60
(g61
g62
NtRp671
(dp672
g65
(dp673
g73
I3
ssg74
g667
sg67
(lp674
S''
asbasbasbag60
(g76
g62
NtRp675
(dp676
g65
(dp677
sg74
g611
sg67
(lp678
g60
(g81
g62
NtRp679
(dp680
g65
(dp681
g85
g86
ssg74
g675
sg67
(lp682
g349
asbag60
(g81
g62
NtRp683
(dp684
g65
(dp685
g92
g93
ssg74
g675
sg67
(lp686
S':'
asbag60
(g81
g62
NtRp687
(dp688
g65
(dp689
sg74
g675
sg67
(lp690
g60
(g61
g62
NtRp691
(dp692
g65
(dp693
g73
I3
ssg74
g687
sg67
(lp694
S''
asbasbasbag60
(g76
g62
NtRp695
(dp696
g65
(dp697
sg74
g611
sg67
(lp698
g60
(g81
g62
NtRp699
(dp700
g65
(dp701
g85
g86
ssg74
g695
sg67
(lp702
g370
asbag60
(g81
g62
NtRp703
(dp704
g65
(dp705
g92
g93
ssg74
g695
sg67
(lp706
S':'
asbag60
(g81
g62
NtRp707
(dp708
g65
(dp709
sg74
g695
sg67
(lp710
g60
(g61
g62
NtRp711
(dp712
g65
(dp713
g73
I3
ssg74
g707
sg67
(lp714
S''
asbasbasbag60
(g76
g62
NtRp715
(dp716
g65
(dp717
sg74
g611
sg67
(lp718
g60
(g81
g62
NtRp719
(dp720
g65
(dp721
g85
g86
ssg74
g715
sg67
(lp722
g391
asbag60
(g81
g62
NtRp723
(dp724
g65
(dp725
g92
g93
ssg74
g715
sg67
(lp726
S':'
asbag60
(g81
g62
NtRp727
(dp728
g65
(dp729
sg74
g715
sg67
(lp730
g60
(g61
g62
NtRp731
(dp732
g65
(dp733
g73
I3
ssg74
g727
sg67
(lp734
S''
asbasbasbag60
(g76
g62
NtRp735
(dp736
g65
(dp737
sg74
g611
sg67
(lp738
g60
(g81
g62
NtRp739
(dp740
g65
(dp741
g85
g86
ssg74
g735
sg67
(lp742
g412
asbag60
(g81
g62
NtRp743
(dp744
g65
(dp745
g92
g93
ssg74
g735
sg67
(lp746
S':'
asbag60
(g81
g62
NtRp747
(dp748
g65
(dp749
sg74
g735
sg67
(lp750
g60
(g61
g62
NtRp751
(dp752
g65
(dp753
g73
I3
ssg74
g747
sg67
(lp754
S''
asbasbasbasbasbasbasbasbasbasbasbag60
(g76
g62
NtRp755
(dp756
g65
(dp757
sg74
g70
sg67
(lp758
g60
(g81
g62
NtRp759
(dp760
g65
(dp761
g85
g86
ssg74
g755
sg67
(lp762
S'env'
p763
asbag60
(g81
g62
NtRp764
(dp765
g65
(dp766
g92
g93
ssg74
g755
sg67
(lp767
S':'
asbag60
(g81
g62
NtRp768
(dp769
g65
(dp770
sg74
g755
sg67
(lp771
g60
(g61
g62
NtRp772
(dp773
g65
(dp774
g73
I5
ssg74
g768
sg67
(lp775
g60
(g69
g62
NtRp776
(dp777
g65
(dp778
g73
I4
ssg74
Nsg67
(lp779
g60
(g76
g62
NtRp780
(dp781
g65
(dp782
sg74
g776
sg67
(lp783
g60
(g81
g62
NtRp784
(dp785
g65
(dp786
g85
g86
ssg74
g780
sg67
(lp787
S'app_folders'
p788
asbag60
(g81
g62
NtRp789
(dp790
g65
(dp791
g92
g93
ssg74
g780
sg67
(lp792
S':'
asbag60
(g81
g62
NtRp793
(dp794
g65
(dp795
sg74
g780
sg67
(lp796
g60
(g61
g62
NtRp797
(dp798
g65
(dp799
g73
I4
ssg74
g793
sg67
(lp800
S"set(['C:\\\\web2py\\\\applications\\\\admin\\\\', 'C:\\\\web2py\\\\applications\\\\welcome\\\\', 'C:\\\\web2py\\\\applications\\\\unioeste_code\\\\'])"
p801
asbasbasbag60
(g76
g62
NtRp802
(dp803
g65
(dp804
sg74
g776
sg67
(lp805
g60
(g81
g62
NtRp806
(dp807
g65
(dp808
g85
g86
ssg74
g802
sg67
(lp809
S'applications_parent'
p810
asbag60
(g81
g62
NtRp811
(dp812
g65
(dp813
g92
g93
ssg74
g802
sg67
(lp814
S':'
asbag60
(g81
g62
NtRp815
(dp816
g65
(dp817
sg74
g802
sg67
(lp818
g60
(g61
g62
NtRp819
(dp820
g65
(dp821
g73
I4
ssg74
g815
sg67
(lp822
S'C:\\web2py'
p823
asbasbasbag60
(g76
g62
NtRp824
(dp825
g65
(dp826
sg74
g776
sg67
(lp827
g60
(g81
g62
NtRp828
(dp829
g65
(dp830
g85
g86
ssg74
g824
sg67
(lp831
S'cmd_args'
p832
asbag60
(g81
g62
NtRp833
(dp834
g65
(dp835
g92
g93
ssg74
g824
sg67
(lp836
S':'
asbag60
(g81
g62
NtRp837
(dp838
g65
(dp839
sg74
g824
sg67
(lp840
g60
(g61
g62
NtRp841
(dp842
g65
(dp843
g73
I4
ssg74
g837
sg67
(lp844
g60
(g69
g62
NtRp845
(dp846
g65
(dp847
g73
I3
ssg74
Nsg67
(lp848
sbasbasbasbag60
(g76
g62
NtRp849
(dp850
g65
(dp851
sg74
g776
sg67
(lp852
g60
(g81
g62
NtRp853
(dp854
g65
(dp855
g85
g86
ssg74
g849
sg67
(lp856
S'cmd_options'
p857
asbag60
(g81
g62
NtRp858
(dp859
g65
(dp860
g92
g93
ssg74
g849
sg67
(lp861
S':'
asbag60
(g81
g62
NtRp862
(dp863
g65
(dp864
sg74
g849
sg67
(lp865
g60
(g61
g62
NtRp866
(dp867
g65
(dp868
g73
I4
ssg74
g862
sg67
(lp869
S"<Values at 0x314c300: {'verbose': False, 'ip': '127.0.0.1', 'shutdown_timeout': 5, 'taskbar': False, 'nocron': False, 'pid_filename': 'httpserver.pid', 'maxthreads': None, 'softcron': False, 'server_name': 'Pedro-PC', 'bpython': False, 'nogui': False, 'port': 8000, 'extcron': False, 'debuglevel': 30, 'test': None, 'folder': 'C:\\\\web2py', 'config': '', 'import_models': False, 'winservice': '', 'shell': None, 'run': '', 'log_filename': 'httpserver.log', 'args': [''], 'socket_timeout': 5, 'ssl_ca_certificate': None, 'scheduler': None, 'profiler_filename': None, 'ssl_private_key': '', 'password': '<ask>', 'request_queue_size': 5, 'ssl_certificate': '', 'cronjob': False, 'numthreads': None, 'quiet': False, 'interfaces': None, 'minthreads': None, 'timeout': 10, 'plain': False, 'nobanner': False}>"
p870
asbasbasbag60
(g76
g62
NtRp871
(dp872
g65
(dp873
sg74
g776
sg67
(lp874
g60
(g81
g62
NtRp875
(dp876
g65
(dp877
g85
g86
ssg74
g871
sg67
(lp878
S'db_sessions'
p879
asbag60
(g81
g62
NtRp880
(dp881
g65
(dp882
g92
g93
ssg74
g871
sg67
(lp883
S':'
asbag60
(g81
g62
NtRp884
(dp885
g65
(dp886
sg74
g871
sg67
(lp887
g60
(g61
g62
NtRp888
(dp889
g65
(dp890
g73
I4
ssg74
g884
sg67
(lp891
S'set([])'
p892
asbasbasbag60
(g76
g62
NtRp893
(dp894
g65
(dp895
sg74
g776
sg67
(lp896
g60
(g81
g62
NtRp897
(dp898
g65
(dp899
g85
g86
ssg74
g893
sg67
(lp900
S'debugging'
p901
asbag60
(g81
g62
NtRp902
(dp903
g65
(dp904
g92
g93
ssg74
g893
sg67
(lp905
S':'
asbag60
(g81
g62
NtRp906
(dp907
g65
(dp908
sg74
g893
sg67
(lp909
g60
(g61
g62
NtRp910
(dp911
g65
(dp912
g73
I4
ssg74
g906
sg67
(lp913
g103
asbasbasbag60
(g76
g62
NtRp914
(dp915
g65
(dp916
sg74
g776
sg67
(lp917
g60
(g81
g62
NtRp918
(dp919
g65
(dp920
g85
g86
ssg74
g914
sg67
(lp921
S'gluon_parent'
p922
asbag60
(g81
g62
NtRp923
(dp924
g65
(dp925
g92
g93
ssg74
g914
sg67
(lp926
S':'
asbag60
(g81
g62
NtRp927
(dp928
g65
(dp929
sg74
g914
sg67
(lp930
g60
(g61
g62
NtRp931
(dp932
g65
(dp933
g73
I4
ssg74
g927
sg67
(lp934
S'C:\\web2py'
p935
asbasbasbag60
(g76
g62
NtRp936
(dp937
g65
(dp938
sg74
g776
sg67
(lp939
g60
(g81
g62
NtRp940
(dp941
g65
(dp942
g85
g86
ssg74
g936
sg67
(lp943
S'http_accept'
p944
asbag60
(g81
g62
NtRp945
(dp946
g65
(dp947
g92
g93
ssg74
g936
sg67
(lp948
S':'
asbag60
(g81
g62
NtRp949
(dp950
g65
(dp951
sg74
g936
sg67
(lp952
g60
(g61
g62
NtRp953
(dp954
g65
(dp955
g73
I4
ssg74
g949
sg67
(lp956
S'text/html,application/xhtml+xml,application/xml;q=0.9,*/*;q=0.8'
p957
asbasbasbag60
(g76
g62
NtRp958
(dp959
g65
(dp960
sg74
g776
sg67
(lp961
g60
(g81
g62
NtRp962
(dp963
g65
(dp964
g85
g86
ssg74
g958
sg67
(lp965
S'http_accept_charset'
p966
asbag60
(g81
g62
NtRp967
(dp968
g65
(dp969
g92
g93
ssg74
g958
sg67
(lp970
S':'
asbag60
(g81
g62
NtRp971
(dp972
g65
(dp973
sg74
g958
sg67
(lp974
g60
(g61
g62
NtRp975
(dp976
g65
(dp977
g73
I4
ssg74
g971
sg67
(lp978
S'ISO-8859-1,utf-8;q=0.7,*;q=0.3'
p979
asbasbasbag60
(g76
g62
NtRp980
(dp981
g65
(dp982
sg74
g776
sg67
(lp983
g60
(g81
g62
NtRp984
(dp985
g65
(dp986
g85
g86
ssg74
g980
sg67
(lp987
S'http_accept_encoding'
p988
asbag60
(g81
g62
NtRp989
(dp990
g65
(dp991
g92
g93
ssg74
g980
sg67
(lp992
S':'
asbag60
(g81
g62
NtRp993
(dp994
g65
(dp995
sg74
g980
sg67
(lp996
g60
(g61
g62
NtRp997
(dp998
g65
(dp999
g73
I4
ssg74
g993
sg67
(lp1000
S'gzip,deflate,sdch'
p1001
asbasbasbag60
(g76
g62
NtRp1002
(dp1003
g65
(dp1004
sg74
g776
sg67
(lp1005
g60
(g81
g62
NtRp1006
(dp1007
g65
(dp1008
g85
g86
ssg74
g1002
sg67
(lp1009
S'http_accept_language'
p1010
asbag60
(g81
g62
NtRp1011
(dp1012
g65
(dp1013
g92
g93
ssg74
g1002
sg67
(lp1014
S':'
asbag60
(g81
g62
NtRp1015
(dp1016
g65
(dp1017
sg74
g1002
sg67
(lp1018
g60
(g61
g62
NtRp1019
(dp1020
g65
(dp1021
g73
I4
ssg74
g1015
sg67
(lp1022
S'pt-BR,pt;q=0.8,en-US;q=0.6,en;q=0.4'
p1023
asbasbasbag60
(g76
g62
NtRp1024
(dp1025
g65
(dp1026
sg74
g776
sg67
(lp1027
g60
(g81
g62
NtRp1028
(dp1029
g65
(dp1030
g85
g86
ssg74
g1024
sg67
(lp1031
S'http_cache_control'
p1032
asbag60
(g81
g62
NtRp1033
(dp1034
g65
(dp1035
g92
g93
ssg74
g1024
sg67
(lp1036
S':'
asbag60
(g81
g62
NtRp1037
(dp1038
g65
(dp1039
sg74
g1024
sg67
(lp1040
g60
(g61
g62
NtRp1041
(dp1042
g65
(dp1043
g73
I4
ssg74
g1037
sg67
(lp1044
S'max-age=0'
p1045
asbasbasbag60
(g76
g62
NtRp1046
(dp1047
g65
(dp1048
sg74
g776
sg67
(lp1049
g60
(g81
g62
NtRp1050
(dp1051
g65
(dp1052
g85
g86
ssg74
g1046
sg67
(lp1053
S'http_connection'
p1054
asbag60
(g81
g62
NtRp1055
(dp1056
g65
(dp1057
g92
g93
ssg74
g1046
sg67
(lp1058
S':'
asbag60
(g81
g62
NtRp1059
(dp1060
g65
(dp1061
sg74
g1046
sg67
(lp1062
g60
(g61
g62
NtRp1063
(dp1064
g65
(dp1065
g73
I4
ssg74
g1059
sg67
(lp1066
S'keep-alive'
p1067
asbasbasbag60
(g76
g62
NtRp1068
(dp1069
g65
(dp1070
sg74
g776
sg67
(lp1071
g60
(g81
g62
NtRp1072
(dp1073
g65
(dp1074
g85
g86
ssg74
g1068
sg67
(lp1075
S'http_cookie'
p1076
asbag60
(g81
g62
NtRp1077
(dp1078
g65
(dp1079
g92
g93
ssg74
g1068
sg67
(lp1080
S':'
asbag60
(g81
g62
NtRp1081
(dp1082
g65
(dp1083
sg74
g1068
sg67
(lp1084
g60
(g61
g62
NtRp1085
(dp1086
g65
(dp1087
g73
I4
ssg74
g1081
sg67
(lp1088
S'session_id_welcome=127.0.0.1-8c1e7b0b-efab-4a1b-a824-79b2fdf9399f; session_id_unioeste_code=127.0.0.1-6a17e692-996f-4fa9-84f1-38283f8585af; session_id_admin=127.0.0.1-a1608abe-db7c-4d8d-8d32-7776ff512d25'
p1089
asbasbasbag60
(g76
g62
NtRp1090
(dp1091
g65
(dp1092
sg74
g776
sg67
(lp1093
g60
(g81
g62
NtRp1094
(dp1095
g65
(dp1096
g85
g86
ssg74
g1090
sg67
(lp1097
S'http_dnt'
p1098
asbag60
(g81
g62
NtRp1099
(dp1100
g65
(dp1101
g92
g93
ssg74
g1090
sg67
(lp1102
S':'
asbag60
(g81
g62
NtRp1103
(dp1104
g65
(dp1105
sg74
g1090
sg67
(lp1106
g60
(g61
g62
NtRp1107
(dp1108
g65
(dp1109
g73
I4
ssg74
g1103
sg67
(lp1110
S'1'
asbasbasbag60
(g76
g62
NtRp1111
(dp1112
g65
(dp1113
sg74
g776
sg67
(lp1114
g60
(g81
g62
NtRp1115
(dp1116
g65
(dp1117
g85
g86
ssg74
g1111
sg67
(lp1118
S'http_host'
p1119
asbag60
(g81
g62
NtRp1120
(dp1121
g65
(dp1122
g92
g93
ssg74
g1111
sg67
(lp1123
S':'
asbag60
(g81
g62
NtRp1124
(dp1125
g65
(dp1126
sg74
g1111
sg67
(lp1127
g60
(g61
g62
NtRp1128
(dp1129
g65
(dp1130
g73
I4
ssg74
g1124
sg67
(lp1131
S'127.0.0.1:8000'
p1132
asbasbasbag60
(g76
g62
NtRp1133
(dp1134
g65
(dp1135
sg74
g776
sg67
(lp1136
g60
(g81
g62
NtRp1137
(dp1138
g65
(dp1139
g85
g86
ssg74
g1133
sg67
(lp1140
S'http_user_agent'
p1141
asbag60
(g81
g62
NtRp1142
(dp1143
g65
(dp1144
g92
g93
ssg74
g1133
sg67
(lp1145
S':'
asbag60
(g81
g62
NtRp1146
(dp1147
g65
(dp1148
sg74
g1133
sg67
(lp1149
g60
(g61
g62
NtRp1150
(dp1151
g65
(dp1152
g73
I4
ssg74
g1146
sg67
(lp1153
S'Mozilla/5.0 (Windows NT 6.1; WOW64) AppleWebKit/536.11 (KHTML, like Gecko) Chrome/20.0.1132.57 Safari/536.11'
p1154
asbasbasbag60
(g76
g62
NtRp1155
(dp1156
g65
(dp1157
sg74
g776
sg67
(lp1158
g60
(g81
g62
NtRp1159
(dp1160
g65
(dp1161
g85
g86
ssg74
g1155
sg67
(lp1162
S'is_jython'
p1163
asbag60
(g81
g62
NtRp1164
(dp1165
g65
(dp1166
g92
g93
ssg74
g1155
sg67
(lp1167
S':'
asbag60
(g81
g62
NtRp1168
(dp1169
g65
(dp1170
sg74
g1155
sg67
(lp1171
g60
(g61
g62
NtRp1172
(dp1173
g65
(dp1174
g73
I4
ssg74
g1168
sg67
(lp1175
g103
asbasbasbag60
(g76
g62
NtRp1176
(dp1177
g65
(dp1178
sg74
g776
sg67
(lp1179
g60
(g81
g62
NtRp1180
(dp1181
g65
(dp1182
g85
g86
ssg74
g1176
sg67
(lp1183
S'is_pypy'
p1184
asbag60
(g81
g62
NtRp1185
(dp1186
g65
(dp1187
g92
g93
ssg74
g1176
sg67
(lp1188
S':'
asbag60
(g81
g62
NtRp1189
(dp1190
g65
(dp1191
sg74
g1176
sg67
(lp1192
g60
(g61
g62
NtRp1193
(dp1194
g65
(dp1195
g73
I4
ssg74
g1189
sg67
(lp1196
g103
asbasbasbag60
(g76
g62
NtRp1197
(dp1198
g65
(dp1199
sg74
g776
sg67
(lp1200
g60
(g81
g62
NtRp1201
(dp1202
g65
(dp1203
g85
g86
ssg74
g1197
sg67
(lp1204
S'path_info'
p1205
asbag60
(g81
g62
NtRp1206
(dp1207
g65
(dp1208
g92
g93
ssg74
g1197
sg67
(lp1209
S':'
asbag60
(g81
g62
NtRp1210
(dp1211
g65
(dp1212
sg74
g1197
sg67
(lp1213
g60
(g61
g62
NtRp1214
(dp1215
g65
(dp1216
g73
I4
ssg74
g1210
sg67
(lp1217
S'/unioeste_code/default/Problem/1'
p1218
asbasbasbag60
(g76
g62
NtRp1219
(dp1220
g65
(dp1221
sg74
g776
sg67
(lp1222
g60
(g81
g62
NtRp1223
(dp1224
g65
(dp1225
g85
g86
ssg74
g1219
sg67
(lp1226
S'query_string'
p1227
asbag60
(g81
g62
NtRp1228
(dp1229
g65
(dp1230
g92
g93
ssg74
g1219
sg67
(lp1231
S':'
asbag60
(g81
g62
NtRp1232
(dp1233
g65
(dp1234
sg74
g1219
sg67
(lp1235
g60
(g61
g62
NtRp1236
(dp1237
g65
(dp1238
g73
I4
ssg74
g1232
sg67
(lp1239
S''
asbasbasbag60
(g76
g62
NtRp1240
(dp1241
g65
(dp1242
sg74
g776
sg67
(lp1243
g60
(g81
g62
NtRp1244
(dp1245
g65
(dp1246
g85
g86
ssg74
g1240
sg67
(lp1247
S'remote_addr'
p1248
asbag60
(g81
g62
NtRp1249
(dp1250
g65
(dp1251
g92
g93
ssg74
g1240
sg67
(lp1252
S':'
asbag60
(g81
g62
NtRp1253
(dp1254
g65
(dp1255
sg74
g1240
sg67
(lp1256
g60
(g61
g62
NtRp1257
(dp1258
g65
(dp1259
g73
I4
ssg74
g1253
sg67
(lp1260
g205
asbasbasbag60
(g76
g62
NtRp1261
(dp1262
g65
(dp1263
sg74
g776
sg67
(lp1264
g60
(g81
g62
NtRp1265
(dp1266
g65
(dp1267
g85
g86
ssg74
g1261
sg67
(lp1268
S'remote_port'
p1269
asbag60
(g81
g62
NtRp1270
(dp1271
g65
(dp1272
g92
g93
ssg74
g1261
sg67
(lp1273
S':'
asbag60
(g81
g62
NtRp1274
(dp1275
g65
(dp1276
sg74
g1261
sg67
(lp1277
g60
(g61
g62
NtRp1278
(dp1279
g65
(dp1280
g73
I4
ssg74
g1274
sg67
(lp1281
S'1379'
p1282
asbasbasbag60
(g76
g62
NtRp1283
(dp1284
g65
(dp1285
sg74
g776
sg67
(lp1286
g60
(g81
g62
NtRp1287
(dp1288
g65
(dp1289
g85
g86
ssg74
g1283
sg67
(lp1290
S'request_method'
p1291
asbag60
(g81
g62
NtRp1292
(dp1293
g65
(dp1294
g92
g93
ssg74
g1283
sg67
(lp1295
S':'
asbag60
(g81
g62
NtRp1296
(dp1297
g65
(dp1298
sg74
g1283
sg67
(lp1299
g60
(g61
g62
NtRp1300
(dp1301
g65
(dp1302
g73
I4
ssg74
g1296
sg67
(lp1303
S'GET'
p1304
asbasbasbag60
(g76
g62
NtRp1305
(dp1306
g65
(dp1307
sg74
g776
sg67
(lp1308
g60
(g81
g62
NtRp1309
(dp1310
g65
(dp1311
g85
g86
ssg74
g1305
sg67
(lp1312
S'script_name'
p1313
asbag60
(g81
g62
NtRp1314
(dp1315
g65
(dp1316
g92
g93
ssg74
g1305
sg67
(lp1317
S':'
asbag60
(g81
g62
NtRp1318
(dp1319
g65
(dp1320
sg74
g1305
sg67
(lp1321
g60
(g61
g62
NtRp1322
(dp1323
g65
(dp1324
g73
I4
ssg74
g1318
sg67
(lp1325
S''
asbasbasbag60
(g76
g62
NtRp1326
(dp1327
g65
(dp1328
sg74
g776
sg67
(lp1329
g60
(g81
g62
NtRp1330
(dp1331
g65
(dp1332
g85
g86
ssg74
g1326
sg67
(lp1333
S'server_name'
p1334
asbag60
(g81
g62
NtRp1335
(dp1336
g65
(dp1337
g92
g93
ssg74
g1326
sg67
(lp1338
S':'
asbag60
(g81
g62
NtRp1339
(dp1340
g65
(dp1341
sg74
g1326
sg67
(lp1342
g60
(g61
g62
NtRp1343
(dp1344
g65
(dp1345
g73
I4
ssg74
g1339
sg67
(lp1346
S'Pedro-PC'
p1347
asbasbasbag60
(g76
g62
NtRp1348
(dp1349
g65
(dp1350
sg74
g776
sg67
(lp1351
g60
(g81
g62
NtRp1352
(dp1353
g65
(dp1354
g85
g86
ssg74
g1348
sg67
(lp1355
S'server_port'
p1356
asbag60
(g81
g62
NtRp1357
(dp1358
g65
(dp1359
g92
g93
ssg74
g1348
sg67
(lp1360
S':'
asbag60
(g81
g62
NtRp1361
(dp1362
g65
(dp1363
sg74
g1348
sg67
(lp1364
g60
(g61
g62
NtRp1365
(dp1366
g65
(dp1367
g73
I4
ssg74
g1361
sg67
(lp1368
S'8000'
p1369
asbasbasbag60
(g76
g62
NtRp1370
(dp1371
g65
(dp1372
sg74
g776
sg67
(lp1373
g60
(g81
g62
NtRp1374
(dp1375
g65
(dp1376
g85
g86
ssg74
g1370
sg67
(lp1377
S'server_protocol'
p1378
asbag60
(g81
g62
NtRp1379
(dp1380
g65
(dp1381
g92
g93
ssg74
g1370
sg67
(lp1382
S':'
asbag60
(g81
g62
NtRp1383
(dp1384
g65
(dp1385
sg74
g1370
sg67
(lp1386
g60
(g61
g62
NtRp1387
(dp1388
g65
(dp1389
g73
I4
ssg74
g1383
sg67
(lp1390
S'HTTP/1.1'
p1391
asbasbasbag60
(g76
g62
NtRp1392
(dp1393
g65
(dp1394
sg74
g776
sg67
(lp1395
g60
(g81
g62
NtRp1396
(dp1397
g65
(dp1398
g85
g86
ssg74
g1392
sg67
(lp1399
S'server_software'
p1400
asbag60
(g81
g62
NtRp1401
(dp1402
g65
(dp1403
g92
g93
ssg74
g1392
sg67
(lp1404
S':'
asbag60
(g81
g62
NtRp1405
(dp1406
g65
(dp1407
sg74
g1392
sg67
(lp1408
g60
(g61
g62
NtRp1409
(dp1410
g65
(dp1411
g73
I4
ssg74
g1405
sg67
(lp1412
S'Rocket 1.2.4'
p1413
asbasbasbag60
(g76
g62
NtRp1414
(dp1415
g65
(dp1416
sg74
g776
sg67
(lp1417
g60
(g81
g62
NtRp1418
(dp1419
g65
(dp1420
g85
g86
ssg74
g1414
sg67
(lp1421
S'web2py_crontype'
p1422
asbag60
(g81
g62
NtRp1423
(dp1424
g65
(dp1425
g92
g93
ssg74
g1414
sg67
(lp1426
S':'
asbag60
(g81
g62
NtRp1427
(dp1428
g65
(dp1429
sg74
g1414
sg67
(lp1430
g60
(g61
g62
NtRp1431
(dp1432
g65
(dp1433
g73
I4
ssg74
g1427
sg67
(lp1434
S'hard'
p1435
asbasbasbag60
(g76
g62
NtRp1436
(dp1437
g65
(dp1438
sg74
g776
sg67
(lp1439
g60
(g81
g62
NtRp1440
(dp1441
g65
(dp1442
g85
g86
ssg74
g1436
sg67
(lp1443
S'web2py_path'
p1444
asbag60
(g81
g62
NtRp1445
(dp1446
g65
(dp1447
g92
g93
ssg74
g1436
sg67
(lp1448
S':'
asbag60
(g81
g62
NtRp1449
(dp1450
g65
(dp1451
sg74
g1436
sg67
(lp1452
g60
(g61
g62
NtRp1453
(dp1454
g65
(dp1455
g73
I4
ssg74
g1449
sg67
(lp1456
g823
asbasbasbag60
(g76
g62
NtRp1457
(dp1458
g65
(dp1459
sg74
g776
sg67
(lp1460
g60
(g81
g62
NtRp1461
(dp1462
g65
(dp1463
g85
g86
ssg74
g1457
sg67
(lp1464
S'web2py_version'
p1465
asbag60
(g81
g62
NtRp1466
(dp1467
g65
(dp1468
g92
g93
ssg74
g1457
sg67
(lp1469
S':'
asbag60
(g81
g62
NtRp1470
(dp1471
g65
(dp1472
sg74
g1457
sg67
(lp1473
g60
(g61
g62
NtRp1474
(dp1475
g65
(dp1476
g73
I4
ssg74
g1470
sg67
(lp1477
g60
(g69
g62
NtRp1478
(dp1479
g65
(dp1480
g73
I3
ssg74
Nsg67
(lp1481
g60
(g76
g62
NtRp1482
(dp1483
g65
(dp1484
sg74
g1478
sg67
(lp1485
g60
(g81
g62
NtRp1486
(dp1487
g65
(dp1488
sg74
g1482
sg67
(lp1489
g60
(g61
g62
NtRp1490
(dp1491
g65
(dp1492
g73
I3
ssg74
g1486
sg67
(lp1493
S'1'
asbasbasbag60
(g76
g62
NtRp1494
(dp1495
g65
(dp1496
sg74
g1478
sg67
(lp1497
g60
(g81
g62
NtRp1498
(dp1499
g65
(dp1500
sg74
g1494
sg67
(lp1501
g60
(g61
g62
NtRp1502
(dp1503
g65
(dp1504
g73
I3
ssg74
g1498
sg67
(lp1505
S'99'
p1506
asbasbasbag60
(g76
g62
NtRp1507
(dp1508
g65
(dp1509
sg74
g1478
sg67
(lp1510
g60
(g81
g62
NtRp1511
(dp1512
g65
(dp1513
sg74
g1507
sg67
(lp1514
g60
(g61
g62
NtRp1515
(dp1516
g65
(dp1517
g73
I3
ssg74
g1511
sg67
(lp1518
S'7'
asbasbasbag60
(g76
g62
NtRp1519
(dp1520
g65
(dp1521
sg74
g1478
sg67
(lp1522
g60
(g81
g62
NtRp1523
(dp1524
g65
(dp1525
sg74
g1519
sg67
(lp1526
g60
(g61
g62
NtRp1527
(dp1528
g65
(dp1529
g73
I3
ssg74
g1523
sg67
(lp1530
S'datetime.datetime(2012, 3, 4, 22, 12, 8)'
p1531
asbasbasbag60
(g76
g62
NtRp1532
(dp1533
g65
(dp1534
sg74
g1478
sg67
(lp1535
g60
(g81
g62
NtRp1536
(dp1537
g65
(dp1538
sg74
g1532
sg67
(lp1539
g60
(g61
g62
NtRp1540
(dp1541
g65
(dp1542
g73
I3
ssg74
g1536
sg67
(lp1543
S'stable'
p1544
asbasbasbasbasbasbasbag60
(g76
g62
NtRp1545
(dp1546
g65
(dp1547
sg74
g776
sg67
(lp1548
g60
(g81
g62
NtRp1549
(dp1550
g65
(dp1551
g85
g86
ssg74
g1545
sg67
(lp1552
S'wsgi_errors'
p1553
asbag60
(g81
g62
NtRp1554
(dp1555
g65
(dp1556
g92
g93
ssg74
g1545
sg67
(lp1557
S':'
asbag60
(g81
g62
NtRp1558
(dp1559
g65
(dp1560
sg74
g1545
sg67
(lp1561
g60
(g61
g62
NtRp1562
(dp1563
g65
(dp1564
g73
I4
ssg74
g1558
sg67
(lp1565
S'<__main__.Stderr object at 0x00296670>'
p1566
asbasbasbag60
(g76
g62
NtRp1567
(dp1568
g65
(dp1569
sg74
g776
sg67
(lp1570
g60
(g81
g62
NtRp1571
(dp1572
g65
(dp1573
g85
g86
ssg74
g1567
sg67
(lp1574
S'wsgi_file_wrapper'
p1575
asbag60
(g81
g62
NtRp1576
(dp1577
g65
(dp1578
g92
g93
ssg74
g1567
sg67
(lp1579
S':'
asbag60
(g81
g62
NtRp1580
(dp1581
g65
(dp1582
sg74
g1567
sg67
(lp1583
g60
(g61
g62
NtRp1584
(dp1585
g65
(dp1586
g73
I4
ssg74
g1580
sg67
(lp1587
S'<class wsgiref.util.FileWrapper at 0x02F3DE10>'
p1588
asbasbasbag60
(g76
g62
NtRp1589
(dp1590
g65
(dp1591
sg74
g776
sg67
(lp1592
g60
(g81
g62
NtRp1593
(dp1594
g65
(dp1595
g85
g86
ssg74
g1589
sg67
(lp1596
S'wsgi_input'
p1597
asbag60
(g81
g62
NtRp1598
(dp1599
g65
(dp1600
g92
g93
ssg74
g1589
sg67
(lp1601
S':'
asbag60
(g81
g62
NtRp1602
(dp1603
g65
(dp1604
sg74
g1589
sg67
(lp1605
g60
(g61
g62
NtRp1606
(dp1607
g65
(dp1608
g73
I4
ssg74
g1602
sg67
(lp1609
S'<socket._fileobject object at 0x032E9FB0>'
p1610
asbasbasbag60
(g76
g62
NtRp1611
(dp1612
g65
(dp1613
sg74
g776
sg67
(lp1614
g60
(g81
g62
NtRp1615
(dp1616
g65
(dp1617
g85
g86
ssg74
g1611
sg67
(lp1618
S'wsgi_multiprocess'
p1619
asbag60
(g81
g62
NtRp1620
(dp1621
g65
(dp1622
g92
g93
ssg74
g1611
sg67
(lp1623
S':'
asbag60
(g81
g62
NtRp1624
(dp1625
g65
(dp1626
sg74
g1611
sg67
(lp1627
g60
(g61
g62
NtRp1628
(dp1629
g65
(dp1630
g73
I4
ssg74
g1624
sg67
(lp1631
g103
asbasbasbag60
(g76
g62
NtRp1632
(dp1633
g65
(dp1634
sg74
g776
sg67
(lp1635
g60
(g81
g62
NtRp1636
(dp1637
g65
(dp1638
g85
g86
ssg74
g1632
sg67
(lp1639
S'wsgi_multithread'
p1640
asbag60
(g81
g62
NtRp1641
(dp1642
g65
(dp1643
g92
g93
ssg74
g1632
sg67
(lp1644
S':'
asbag60
(g81
g62
NtRp1645
(dp1646
g65
(dp1647
sg74
g1632
sg67
(lp1648
g60
(g61
g62
NtRp1649
(dp1650
g65
(dp1651
g73
I4
ssg74
g1645
sg67
(lp1652
S'True'
p1653
asbasbasbag60
(g76
g62
NtRp1654
(dp1655
g65
(dp1656
sg74
g776
sg67
(lp1657
g60
(g81
g62
NtRp1658
(dp1659
g65
(dp1660
g85
g86
ssg74
g1654
sg67
(lp1661
S'wsgi_run_once'
p1662
asbag60
(g81
g62
NtRp1663
(dp1664
g65
(dp1665
g92
g93
ssg74
g1654
sg67
(lp1666
S':'
asbag60
(g81
g62
NtRp1667
(dp1668
g65
(dp1669
sg74
g1654
sg67
(lp1670
g60
(g61
g62
NtRp1671
(dp1672
g65
(dp1673
g73
I4
ssg74
g1667
sg67
(lp1674
g103
asbasbasbag60
(g76
g62
NtRp1675
(dp1676
g65
(dp1677
sg74
g776
sg67
(lp1678
g60
(g81
g62
NtRp1679
(dp1680
g65
(dp1681
g85
g86
ssg74
g1675
sg67
(lp1682
S'wsgi_url_scheme'
p1683
asbag60
(g81
g62
NtRp1684
(dp1685
g65
(dp1686
g92
g93
ssg74
g1675
sg67
(lp1687
S':'
asbag60
(g81
g62
NtRp1688
(dp1689
g65
(dp1690
sg74
g1675
sg67
(lp1691
g60
(g61
g62
NtRp1692
(dp1693
g65
(dp1694
g73
I4
ssg74
g1688
sg67
(lp1695
S'http'
p1696
asbasbasbag60
(g76
g62
NtRp1697
(dp1698
g65
(dp1699
sg74
g776
sg67
(lp1700
g60
(g81
g62
NtRp1701
(dp1702
g65
(dp1703
g85
g86
ssg74
g1697
sg67
(lp1704
S'wsgi_version'
p1705
asbag60
(g81
g62
NtRp1706
(dp1707
g65
(dp1708
g92
g93
ssg74
g1697
sg67
(lp1709
S':'
asbag60
(g81
g62
NtRp1710
(dp1711
g65
(dp1712
sg74
g1697
sg67
(lp1713
g60
(g61
g62
NtRp1714
(dp1715
g65
(dp1716
g73
I4
ssg74
g1710
sg67
(lp1717
g60
(g69
g62
NtRp1718
(dp1719
g65
(dp1720
g73
I3
ssg74
Nsg67
(lp1721
g60
(g76
g62
NtRp1722
(dp1723
g65
(dp1724
sg74
g1718
sg67
(lp1725
g60
(g81
g62
NtRp1726
(dp1727
g65
(dp1728
sg74
g1722
sg67
(lp1729
g60
(g61
g62
NtRp1730
(dp1731
g65
(dp1732
g73
I3
ssg74
g1726
sg67
(lp1733
S'1'
asbasbasbag60
(g76
g62
NtRp1734
(dp1735
g65
(dp1736
sg74
g1718
sg67
(lp1737
g60
(g81
g62
NtRp1738
(dp1739
g65
(dp1740
sg74
g1734
sg67
(lp1741
g60
(g61
g62
NtRp1742
(dp1743
g65
(dp1744
g73
I3
ssg74
g1738
sg67
(lp1745
S'0'
asbasbasbasbasbasbasbasbasbasbasbag60
(g76
g62
NtRp1746
(dp1747
g65
(dp1748
sg74
g70
sg67
(lp1749
g60
(g81
g62
NtRp1750
(dp1751
g65
(dp1752
g85
g86
ssg74
g1746
sg67
(lp1753
S'extension'
p1754
asbag60
(g81
g62
NtRp1755
(dp1756
g65
(dp1757
g92
g93
ssg74
g1746
sg67
(lp1758
S':'
asbag60
(g81
g62
NtRp1759
(dp1760
g65
(dp1761
sg74
g1746
sg67
(lp1762
g60
(g61
g62
NtRp1763
(dp1764
g65
(dp1765
g73
I5
ssg74
g1759
sg67
(lp1766
S'html'
p1767
asbasbasbag60
(g76
g62
NtRp1768
(dp1769
g65
(dp1770
sg74
g70
sg67
(lp1771
g60
(g81
g62
NtRp1772
(dp1773
g65
(dp1774
g85
g86
ssg74
g1768
sg67
(lp1775
S'folder'
p1776
asbag60
(g81
g62
NtRp1777
(dp1778
g65
(dp1779
g92
g93
ssg74
g1768
sg67
(lp1780
S':'
asbag60
(g81
g62
NtRp1781
(dp1782
g65
(dp1783
sg74
g1768
sg67
(lp1784
g60
(g61
g62
NtRp1785
(dp1786
g65
(dp1787
g73
I5
ssg74
g1781
sg67
(lp1788
S'C:\\web2py\\applications\\unioeste_code\\'
p1789
asbasbasbag60
(g76
g62
NtRp1790
(dp1791
g65
(dp1792
sg74
g70
sg67
(lp1793
g60
(g81
g62
NtRp1794
(dp1795
g65
(dp1796
g85
g86
ssg74
g1790
sg67
(lp1797
S'function'
p1798
asbag60
(g81
g62
NtRp1799
(dp1800
g65
(dp1801
g92
g93
ssg74
g1790
sg67
(lp1802
S':'
asbag60
(g81
g62
NtRp1803
(dp1804
g65
(dp1805
sg74
g1790
sg67
(lp1806
g60
(g61
g62
NtRp1807
(dp1808
g65
(dp1809
g73
I5
ssg74
g1803
sg67
(lp1810
S'Problem'
p1811
asbasbasbag60
(g76
g62
NtRp1812
(dp1813
g65
(dp1814
sg74
g70
sg67
(lp1815
g60
(g81
g62
NtRp1816
(dp1817
g65
(dp1818
g85
g86
ssg74
g1812
sg67
(lp1819
S'get_vars'
p1820
asbag60
(g81
g62
NtRp1821
(dp1822
g65
(dp1823
g92
g93
ssg74
g1812
sg67
(lp1824
S':'
asbag60
(g81
g62
NtRp1825
(dp1826
g65
(dp1827
sg74
g1812
sg67
(lp1828
g60
(g61
g62
NtRp1829
(dp1830
g65
(dp1831
g73
I5
ssg74
g1825
sg67
(lp1832
g60
(g69
g62
NtRp1833
(dp1834
g65
(dp1835
g73
I4
ssg74
Nsg67
(lp1836
sbasbasbasbag60
(g76
g62
NtRp1837
(dp1838
g65
(dp1839
sg74
g70
sg67
(lp1840
g60
(g81
g62
NtRp1841
(dp1842
g65
(dp1843
g85
g86
ssg74
g1837
sg67
(lp1844
S'global_settings'
p1845
asbag60
(g81
g62
NtRp1846
(dp1847
g65
(dp1848
g92
g93
ssg74
g1837
sg67
(lp1849
S':'
asbag60
(g81
g62
NtRp1850
(dp1851
g65
(dp1852
sg74
g1837
sg67
(lp1853
g60
(g61
g62
NtRp1854
(dp1855
g65
(dp1856
g73
I5
ssg74
g1850
sg67
(lp1857
g60
(g69
g62
NtRp1858
(dp1859
g65
(dp1860
g73
I4
ssg74
Nsg67
(lp1861
g60
(g76
g62
NtRp1862
(dp1863
g65
(dp1864
sg74
g1858
sg67
(lp1865
g60
(g81
g62
NtRp1866
(dp1867
g65
(dp1868
g85
g86
ssg74
g1862
sg67
(lp1869
g788
asbag60
(g81
g62
NtRp1870
(dp1871
g65
(dp1872
g92
g93
ssg74
g1862
sg67
(lp1873
S':'
asbag60
(g81
g62
NtRp1874
(dp1875
g65
(dp1876
sg74
g1862
sg67
(lp1877
g60
(g61
g62
NtRp1878
(dp1879
g65
(dp1880
g73
I4
ssg74
g1874
sg67
(lp1881
S"set(['C:\\\\web2py\\\\applications\\\\admin\\\\', 'C:\\\\web2py\\\\applications\\\\welcome\\\\', 'C:\\\\web2py\\\\applications\\\\unioeste_code\\\\'])"
p1882
asbasbasbag60
(g76
g62
NtRp1883
(dp1884
g65
(dp1885
sg74
g1858
sg67
(lp1886
g60
(g81
g62
NtRp1887
(dp1888
g65
(dp1889
g85
g86
ssg74
g1883
sg67
(lp1890
g810
asbag60
(g81
g62
NtRp1891
(dp1892
g65
(dp1893
g92
g93
ssg74
g1883
sg67
(lp1894
S':'
asbag60
(g81
g62
NtRp1895
(dp1896
g65
(dp1897
sg74
g1883
sg67
(lp1898
g60
(g61
g62
NtRp1899
(dp1900
g65
(dp1901
g73
I4
ssg74
g1895
sg67
(lp1902
g823
asbasbasbag60
(g76
g62
NtRp1903
(dp1904
g65
(dp1905
sg74
g1858
sg67
(lp1906
g60
(g81
g62
NtRp1907
(dp1908
g65
(dp1909
g85
g86
ssg74
g1903
sg67
(lp1910
g832
asbag60
(g81
g62
NtRp1911
(dp1912
g65
(dp1913
g92
g93
ssg74
g1903
sg67
(lp1914
S':'
asbag60
(g81
g62
NtRp1915
(dp1916
g65
(dp1917
sg74
g1903
sg67
(lp1918
g60
(g61
g62
NtRp1919
(dp1920
g65
(dp1921
g73
I4
ssg74
g1915
sg67
(lp1922
g60
(g69
g62
NtRp1923
(dp1924
g65
(dp1925
g73
I3
ssg74
Nsg67
(lp1926
sbasbasbasbag60
(g76
g62
NtRp1927
(dp1928
g65
(dp1929
sg74
g1858
sg67
(lp1930
g60
(g81
g62
NtRp1931
(dp1932
g65
(dp1933
g85
g86
ssg74
g1927
sg67
(lp1934
g857
asbag60
(g81
g62
NtRp1935
(dp1936
g65
(dp1937
g92
g93
ssg74
g1927
sg67
(lp1938
S':'
asbag60
(g81
g62
NtRp1939
(dp1940
g65
(dp1941
sg74
g1927
sg67
(lp1942
g60
(g61
g62
NtRp1943
(dp1944
g65
(dp1945
g73
I4
ssg74
g1939
sg67
(lp1946
S"<Values at 0x314c300: {'verbose': False, 'ip': '127.0.0.1', 'shutdown_timeout': 5, 'taskbar': False, 'nocron': False, 'pid_filename': 'httpserver.pid', 'maxthreads': None, 'softcron': False, 'server_name': 'Pedro-PC', 'bpython': False, 'nogui': False, 'port': 8000, 'extcron': False, 'debuglevel': 30, 'test': None, 'folder': 'C:\\\\web2py', 'config': '', 'import_models': False, 'winservice': '', 'shell': None, 'run': '', 'log_filename': 'httpserver.log', 'args': [''], 'socket_timeout': 5, 'ssl_ca_certificate': None, 'scheduler': None, 'profiler_filename': None, 'ssl_private_key': '', 'password': '<ask>', 'request_queue_size': 5, 'ssl_certificate': '', 'cronjob': False, 'numthreads': None, 'quiet': False, 'interfaces': None, 'minthreads': None, 'timeout': 10, 'plain': False, 'nobanner': False}>"
p1947
asbasbasbag60
(g76
g62
NtRp1948
(dp1949
g65
(dp1950
sg74
g1858
sg67
(lp1951
g60
(g81
g62
NtRp1952
(dp1953
g65
(dp1954
g85
g86
ssg74
g1948
sg67
(lp1955
g879
asbag60
(g81
g62
NtRp1956
(dp1957
g65
(dp1958
g92
g93
ssg74
g1948
sg67
(lp1959
S':'
asbag60
(g81
g62
NtRp1960
(dp1961
g65
(dp1962
sg74
g1948
sg67
(lp1963
g60
(g61
g62
NtRp1964
(dp1965
g65
(dp1966
g73
I4
ssg74
g1960
sg67
(lp1967
S'set([])'
p1968
asbasbasbag60
(g76
g62
NtRp1969
(dp1970
g65
(dp1971
sg74
g1858
sg67
(lp1972
g60
(g81
g62
NtRp1973
(dp1974
g65
(dp1975
g85
g86
ssg74
g1969
sg67
(lp1976
g901
asbag60
(g81
g62
NtRp1977
(dp1978
g65
(dp1979
g92
g93
ssg74
g1969
sg67
(lp1980
S':'
asbag60
(g81
g62
NtRp1981
(dp1982
g65
(dp1983
sg74
g1969
sg67
(lp1984
g60
(g61
g62
NtRp1985
(dp1986
g65
(dp1987
g73
I4
ssg74
g1981
sg67
(lp1988
g103
asbasbasbag60
(g76
g62
NtRp1989
(dp1990
g65
(dp1991
sg74
g1858
sg67
(lp1992
g60
(g81
g62
NtRp1993
(dp1994
g65
(dp1995
g85
g86
ssg74
g1989
sg67
(lp1996
g922
asbag60
(g81
g62
NtRp1997
(dp1998
g65
(dp1999
g92
g93
ssg74
g1989
sg67
(lp2000
S':'
asbag60
(g81
g62
NtRp2001
(dp2002
g65
(dp2003
sg74
g1989
sg67
(lp2004
g60
(g61
g62
NtRp2005
(dp2006
g65
(dp2007
g73
I4
ssg74
g2001
sg67
(lp2008
g935
asbasbasbag60
(g76
g62
NtRp2009
(dp2010
g65
(dp2011
sg74
g1858
sg67
(lp2012
g60
(g81
g62
NtRp2013
(dp2014
g65
(dp2015
g85
g86
ssg74
g2009
sg67
(lp2016
g1163
asbag60
(g81
g62
NtRp2017
(dp2018
g65
(dp2019
g92
g93
ssg74
g2009
sg67
(lp2020
S':'
asbag60
(g81
g62
NtRp2021
(dp2022
g65
(dp2023
sg74
g2009
sg67
(lp2024
g60
(g61
g62
NtRp2025
(dp2026
g65
(dp2027
g73
I4
ssg74
g2021
sg67
(lp2028
g103
asbasbasbag60
(g76
g62
NtRp2029
(dp2030
g65
(dp2031
sg74
g1858
sg67
(lp2032
g60
(g81
g62
NtRp2033
(dp2034
g65
(dp2035
g85
g86
ssg74
g2029
sg67
(lp2036
g1184
asbag60
(g81
g62
NtRp2037
(dp2038
g65
(dp2039
g92
g93
ssg74
g2029
sg67
(lp2040
S':'
asbag60
(g81
g62
NtRp2041
(dp2042
g65
(dp2043
sg74
g2029
sg67
(lp2044
g60
(g61
g62
NtRp2045
(dp2046
g65
(dp2047
g73
I4
ssg74
g2041
sg67
(lp2048
g103
asbasbasbag60
(g76
g62
NtRp2049
(dp2050
g65
(dp2051
sg74
g1858
sg67
(lp2052
g60
(g81
g62
NtRp2053
(dp2054
g65
(dp2055
g85
g86
ssg74
g2049
sg67
(lp2056
g1422
asbag60
(g81
g62
NtRp2057
(dp2058
g65
(dp2059
g92
g93
ssg74
g2049
sg67
(lp2060
S':'
asbag60
(g81
g62
NtRp2061
(dp2062
g65
(dp2063
sg74
g2049
sg67
(lp2064
g60
(g61
g62
NtRp2065
(dp2066
g65
(dp2067
g73
I4
ssg74
g2061
sg67
(lp2068
g1435
asbasbasbag60
(g76
g62
NtRp2069
(dp2070
g65
(dp2071
sg74
g1858
sg67
(lp2072
g60
(g81
g62
NtRp2073
(dp2074
g65
(dp2075
g85
g86
ssg74
g2069
sg67
(lp2076
g1465
asbag60
(g81
g62
NtRp2077
(dp2078
g65
(dp2079
g92
g93
ssg74
g2069
sg67
(lp2080
S':'
asbag60
(g81
g62
NtRp2081
(dp2082
g65
(dp2083
sg74
g2069
sg67
(lp2084
g60
(g61
g62
NtRp2085
(dp2086
g65
(dp2087
g73
I4
ssg74
g2081
sg67
(lp2088
g60
(g69
g62
NtRp2089
(dp2090
g65
(dp2091
g73
I3
ssg74
Nsg67
(lp2092
g60
(g76
g62
NtRp2093
(dp2094
g65
(dp2095
sg74
g2089
sg67
(lp2096
g60
(g81
g62
NtRp2097
(dp2098
g65
(dp2099
sg74
g2093
sg67
(lp2100
g60
(g61
g62
NtRp2101
(dp2102
g65
(dp2103
g73
I3
ssg74
g2097
sg67
(lp2104
S'1'
asbasbasbag60
(g76
g62
NtRp2105
(dp2106
g65
(dp2107
sg74
g2089
sg67
(lp2108
g60
(g81
g62
NtRp2109
(dp2110
g65
(dp2111
sg74
g2105
sg67
(lp2112
g60
(g61
g62
NtRp2113
(dp2114
g65
(dp2115
g73
I3
ssg74
g2109
sg67
(lp2116
S'99'
p2117
asbasbasbag60
(g76
g62
NtRp2118
(dp2119
g65
(dp2120
sg74
g2089
sg67
(lp2121
g60
(g81
g62
NtRp2122
(dp2123
g65
(dp2124
sg74
g2118
sg67
(lp2125
g60
(g61
g62
NtRp2126
(dp2127
g65
(dp2128
g73
I3
ssg74
g2122
sg67
(lp2129
S'7'
asbasbasbag60
(g76
g62
NtRp2130
(dp2131
g65
(dp2132
sg74
g2089
sg67
(lp2133
g60
(g81
g62
NtRp2134
(dp2135
g65
(dp2136
sg74
g2130
sg67
(lp2137
g60
(g61
g62
NtRp2138
(dp2139
g65
(dp2140
g73
I3
ssg74
g2134
sg67
(lp2141
S'datetime.datetime(2012, 3, 4, 22, 12, 8)'
p2142
asbasbasbag60
(g76
g62
NtRp2143
(dp2144
g65
(dp2145
sg74
g2089
sg67
(lp2146
g60
(g81
g62
NtRp2147
(dp2148
g65
(dp2149
sg74
g2143
sg67
(lp2150
g60
(g61
g62
NtRp2151
(dp2152
g65
(dp2153
g73
I3
ssg74
g2147
sg67
(lp2154
g1544
asbasbasbasbasbasbasbasbasbasbasbag60
(g76
g62
NtRp2155
(dp2156
g65
(dp2157
sg74
g70
sg67
(lp2158
g60
(g81
g62
NtRp2159
(dp2160
g65
(dp2161
g85
g86
ssg74
g2155
sg67
(lp2162
S'is_https'
p2163
asbag60
(g81
g62
NtRp2164
(dp2165
g65
(dp2166
g92
g93
ssg74
g2155
sg67
(lp2167
S':'
asbag60
(g81
g62
NtRp2168
(dp2169
g65
(dp2170
sg74
g2155
sg67
(lp2171
g60
(g61
g62
NtRp2172
(dp2173
g65
(dp2174
g73
I5
ssg74
g2168
sg67
(lp2175
g103
asbasbasbag60
(g76
g62
NtRp2176
(dp2177
g65
(dp2178
sg74
g70
sg67
(lp2179
g60
(g81
g62
NtRp2180
(dp2181
g65
(dp2182
g85
g86
ssg74
g2176
sg67
(lp2183
S'is_local'
p2184
asbag60
(g81
g62
NtRp2185
(dp2186
g65
(dp2187
g92
g93
ssg74
g2176
sg67
(lp2188
S':'
asbag60
(g81
g62
NtRp2189
(dp2190
g65
(dp2191
sg74
g2176
sg67
(lp2192
g60
(g61
g62
NtRp2193
(dp2194
g65
(dp2195
g73
I5
ssg74
g2189
sg67
(lp2196
g1653
asbasbasbag60
(g76
g62
NtRp2197
(dp2198
g65
(dp2199
sg74
g70
sg67
(lp2200
g60
(g81
g62
NtRp2201
(dp2202
g65
(dp2203
g85
g86
ssg74
g2197
sg67
(lp2204
S'is_restful'
p2205
asbag60
(g81
g62
NtRp2206
(dp2207
g65
(dp2208
g92
g93
ssg74
g2197
sg67
(lp2209
S':'
asbag60
(g81
g62
NtRp2210
(dp2211
g65
(dp2212
sg74
g2197
sg67
(lp2213
g60
(g61
g62
NtRp2214
(dp2215
g65
(dp2216
g73
I5
ssg74
g2210
sg67
(lp2217
g103
asbasbasbag60
(g76
g62
NtRp2218
(dp2219
g65
(dp2220
sg74
g70
sg67
(lp2221
g60
(g81
g62
NtRp2222
(dp2223
g65
(dp2224
g85
g86
ssg74
g2218
sg67
(lp2225
S'now'
p2226
asbag60
(g81
g62
NtRp2227
(dp2228
g65
(dp2229
g92
g93
ssg74
g2218
sg67
(lp2230
S':'
asbag60
(g81
g62
NtRp2231
(dp2232
g65
(dp2233
sg74
g2218
sg67
(lp2234
g60
(g61
g62
NtRp2235
(dp2236
g65
(dp2237
g73
I5
ssg74
g2231
sg67
(lp2238
S'datetime.datetime(2012, 8, 2, 13, 31, 36, 696000)'
p2239
asbasbasbag60
(g76
g62
NtRp2240
(dp2241
g65
(dp2242
sg74
g70
sg67
(lp2243
g60
(g81
g62
NtRp2244
(dp2245
g65
(dp2246
g85
g86
ssg74
g2240
sg67
(lp2247
S'post_vars'
p2248
asbag60
(g81
g62
NtRp2249
(dp2250
g65
(dp2251
g92
g93
ssg74
g2240
sg67
(lp2252
S':'
asbag60
(g81
g62
NtRp2253
(dp2254
g65
(dp2255
sg74
g2240
sg67
(lp2256
g60
(g61
g62
NtRp2257
(dp2258
g65
(dp2259
g73
I5
ssg74
g2253
sg67
(lp2260
g60
(g69
g62
NtRp2261
(dp2262
g65
(dp2263
g73
I4
ssg74
Nsg67
(lp2264
sbasbasbasbag60
(g76
g62
NtRp2265
(dp2266
g65
(dp2267
sg74
g70
sg67
(lp2268
g60
(g81
g62
NtRp2269
(dp2270
g65
(dp2271
g85
g86
ssg74
g2265
sg67
(lp2272
S'raw_args'
p2273
asbag60
(g81
g62
NtRp2274
(dp2275
g65
(dp2276
g92
g93
ssg74
g2265
sg67
(lp2277
S':'
asbag60
(g81
g62
NtRp2278
(dp2279
g65
(dp2280
sg74
g2265
sg67
(lp2281
g60
(g61
g62
NtRp2282
(dp2283
g65
(dp2284
g73
I5
ssg74
g2278
sg67
(lp2285
S'1'
asbasbasbag60
(g76
g62
NtRp2286
(dp2287
g65
(dp2288
sg74
g70
sg67
(lp2289
g60
(g81
g62
NtRp2290
(dp2291
g65
(dp2292
g85
g86
ssg74
g2286
sg67
(lp2293
S'url'
p2294
asbag60
(g81
g62
NtRp2295
(dp2296
g65
(dp2297
g92
g93
ssg74
g2286
sg67
(lp2298
S':'
asbag60
(g81
g62
NtRp2299
(dp2300
g65
(dp2301
sg74
g2286
sg67
(lp2302
g60
(g61
g62
NtRp2303
(dp2304
g65
(dp2305
g73
I5
ssg74
g2299
sg67
(lp2306
S'/unioeste_code/default/Problem/1'
p2307
asbasbasbag60
(g76
g62
NtRp2308
(dp2309
g65
(dp2310
sg74
g70
sg67
(lp2311
g60
(g81
g62
NtRp2312
(dp2313
g65
(dp2314
g85
g86
ssg74
g2308
sg67
(lp2315
S'utcnow'
p2316
asbag60
(g81
g62
NtRp2317
(dp2318
g65
(dp2319
g92
g93
ssg74
g2308
sg67
(lp2320
S':'
asbag60
(g81
g62
NtRp2321
(dp2322
g65
(dp2323
sg74
g2308
sg67
(lp2324
g60
(g61
g62
NtRp2325
(dp2326
g65
(dp2327
g73
I5
ssg74
g2321
sg67
(lp2328
S'datetime.datetime(2012, 8, 2, 16, 31, 36, 696000)'
p2329
asbasbasbag60
(g76
g62
NtRp2330
(dp2331
g65
(dp2332
sg74
g70
sg67
(lp2333
g60
(g81
g62
NtRp2334
(dp2335
g65
(dp2336
g85
g86
ssg74
g2330
sg67
(lp2337
S'uuid'
p2338
asbag60
(g81
g62
NtRp2339
(dp2340
g65
(dp2341
g92
g93
ssg74
g2330
sg67
(lp2342
S':'
asbag60
(g81
g62
NtRp2343
(dp2344
g65
(dp2345
sg74
g2330
sg67
(lp2346
g60
(g61
g62
NtRp2347
(dp2348
g65
(dp2349
g73
I5
ssg74
g2343
sg67
(lp2350
S'unioeste_code/127.0.0.1.2012-08-02.13-31-36.c9d33a26-cbf0-434e-a5f3-5562f15e882f'
p2351
asbasbasbag60
(g76
g62
NtRp2352
(dp2353
g65
(dp2354
sg74
g70
sg67
(lp2355
g60
(g81
g62
NtRp2356
(dp2357
g65
(dp2358
g85
g86
ssg74
g2352
sg67
(lp2359
S'vars'
p2360
asbag60
(g81
g62
NtRp2361
(dp2362
g65
(dp2363
g92
g93
ssg74
g2352
sg67
(lp2364
S':'
asbag60
(g81
g62
NtRp2365
(dp2366
g65
(dp2367
sg74
g2352
sg67
(lp2368
g60
(g61
g62
NtRp2369
(dp2370
g65
(dp2371
g73
I5
ssg74
g2365
sg67
(lp2372
g60
(g69
g62
NtRp2373
(dp2374
g65
(dp2375
g73
I4
ssg74
Nsg67
(lp2376
sbasbasbasbag60
(g76
g62
NtRp2377
(dp2378
g65
(dp2379
sg74
g70
sg67
(lp2380
g60
(g81
g62
NtRp2381
(dp2382
g65
(dp2383
g85
g86
ssg74
g2377
sg67
(lp2384
S'wsgi'
p2385
asbag60
(g81
g62
NtRp2386
(dp2387
g65
(dp2388
g92
g93
ssg74
g2377
sg67
(lp2389
S':'
asbag60
(g81
g62
NtRp2390
(dp2391
g65
(dp2392
sg74
g2377
sg67
(lp2393
g60
(g61
g62
NtRp2394
(dp2395
g65
(dp2396
g73
I5
ssg74
g2390
sg67
(lp2397
g60
(g69
g62
NtRp2398
(dp2399
g65
(dp2400
g73
I4
ssg74
Nsg67
(lp2401
g60
(g76
g62
NtRp2402
(dp2403
g65
(dp2404
sg74
g2398
sg67
(lp2405
g60
(g81
g62
NtRp2406
(dp2407
g65
(dp2408
g85
g86
ssg74
g2402
sg67
(lp2409
S'environ'
p2410
asbag60
(g81
g62
NtRp2411
(dp2412
g65
(dp2413
g92
g93
ssg74
g2402
sg67
(lp2414
S':'
asbag60
(g81
g62
NtRp2415
(dp2416
g65
(dp2417
sg74
g2402
sg67
(lp2418
g60
(g61
g62
NtRp2419
(dp2420
g65
(dp2421
g73
I4
ssg74
g2415
sg67
(lp2422
g60
(g69
g62
NtRp2423
(dp2424
g65
(dp2425
g73
I3
ssg74
Nsg67
(lp2426
g60
(g76
g62
NtRp2427
(dp2428
g65
(dp2429
sg74
g2423
sg67
(lp2430
g60
(g81
g62
NtRp2431
(dp2432
g65
(dp2433
g85
g86
ssg74
g2427
sg67
(lp2434
S'HTTP_ACCEPT'
p2435
asbag60
(g81
g62
NtRp2436
(dp2437
g65
(dp2438
g92
g93
ssg74
g2427
sg67
(lp2439
S':'
asbag60
(g81
g62
NtRp2440
(dp2441
g65
(dp2442
sg74
g2427
sg67
(lp2443
g60
(g61
g62
NtRp2444
(dp2445
g65
(dp2446
g73
I3
ssg74
g2440
sg67
(lp2447
g957
asbasbasbag60
(g76
g62
NtRp2448
(dp2449
g65
(dp2450
sg74
g2423
sg67
(lp2451
g60
(g81
g62
NtRp2452
(dp2453
g65
(dp2454
g85
g86
ssg74
g2448
sg67
(lp2455
S'HTTP_ACCEPT_CHARSET'
p2456
asbag60
(g81
g62
NtRp2457
(dp2458
g65
(dp2459
g92
g93
ssg74
g2448
sg67
(lp2460
S':'
asbag60
(g81
g62
NtRp2461
(dp2462
g65
(dp2463
sg74
g2448
sg67
(lp2464
g60
(g61
g62
NtRp2465
(dp2466
g65
(dp2467
g73
I3
ssg74
g2461
sg67
(lp2468
g979
asbasbasbag60
(g76
g62
NtRp2469
(dp2470
g65
(dp2471
sg74
g2423
sg67
(lp2472
g60
(g81
g62
NtRp2473
(dp2474
g65
(dp2475
g85
g86
ssg74
g2469
sg67
(lp2476
S'HTTP_ACCEPT_ENCODING'
p2477
asbag60
(g81
g62
NtRp2478
(dp2479
g65
(dp2480
g92
g93
ssg74
g2469
sg67
(lp2481
S':'
asbag60
(g81
g62
NtRp2482
(dp2483
g65
(dp2484
sg74
g2469
sg67
(lp2485
g60
(g61
g62
NtRp2486
(dp2487
g65
(dp2488
g73
I3
ssg74
g2482
sg67
(lp2489
g1001
asbasbasbag60
(g76
g62
NtRp2490
(dp2491
g65
(dp2492
sg74
g2423
sg67
(lp2493
g60
(g81
g62
NtRp2494
(dp2495
g65
(dp2496
g85
g86
ssg74
g2490
sg67
(lp2497
S'HTTP_ACCEPT_LANGUAGE'
p2498
asbag60
(g81
g62
NtRp2499
(dp2500
g65
(dp2501
g92
g93
ssg74
g2490
sg67
(lp2502
S':'
asbag60
(g81
g62
NtRp2503
(dp2504
g65
(dp2505
sg74
g2490
sg67
(lp2506
g60
(g61
g62
NtRp2507
(dp2508
g65
(dp2509
g73
I3
ssg74
g2503
sg67
(lp2510
g1023
asbasbasbag60
(g76
g62
NtRp2511
(dp2512
g65
(dp2513
sg74
g2423
sg67
(lp2514
g60
(g81
g62
NtRp2515
(dp2516
g65
(dp2517
g85
g86
ssg74
g2511
sg67
(lp2518
S'HTTP_CACHE_CONTROL'
p2519
asbag60
(g81
g62
NtRp2520
(dp2521
g65
(dp2522
g92
g93
ssg74
g2511
sg67
(lp2523
S':'
asbag60
(g81
g62
NtRp2524
(dp2525
g65
(dp2526
sg74
g2511
sg67
(lp2527
g60
(g61
g62
NtRp2528
(dp2529
g65
(dp2530
g73
I3
ssg74
g2524
sg67
(lp2531
g1045
asbasbasbag60
(g76
g62
NtRp2532
(dp2533
g65
(dp2534
sg74
g2423
sg67
(lp2535
g60
(g81
g62
NtRp2536
(dp2537
g65
(dp2538
g85
g86
ssg74
g2532
sg67
(lp2539
S'HTTP_CONNECTION'
p2540
asbag60
(g81
g62
NtRp2541
(dp2542
g65
(dp2543
g92
g93
ssg74
g2532
sg67
(lp2544
S':'
asbag60
(g81
g62
NtRp2545
(dp2546
g65
(dp2547
sg74
g2532
sg67
(lp2548
g60
(g61
g62
NtRp2549
(dp2550
g65
(dp2551
g73
I3
ssg74
g2545
sg67
(lp2552
g1067
asbasbasbag60
(g76
g62
NtRp2553
(dp2554
g65
(dp2555
sg74
g2423
sg67
(lp2556
g60
(g81
g62
NtRp2557
(dp2558
g65
(dp2559
g85
g86
ssg74
g2553
sg67
(lp2560
S'HTTP_COOKIE'
p2561
asbag60
(g81
g62
NtRp2562
(dp2563
g65
(dp2564
g92
g93
ssg74
g2553
sg67
(lp2565
S':'
asbag60
(g81
g62
NtRp2566
(dp2567
g65
(dp2568
sg74
g2553
sg67
(lp2569
g60
(g61
g62
NtRp2570
(dp2571
g65
(dp2572
g73
I3
ssg74
g2566
sg67
(lp2573
g1089
asbasbasbag60
(g76
g62
NtRp2574
(dp2575
g65
(dp2576
sg74
g2423
sg67
(lp2577
g60
(g81
g62
NtRp2578
(dp2579
g65
(dp2580
g85
g86
ssg74
g2574
sg67
(lp2581
S'HTTP_DNT'
p2582
asbag60
(g81
g62
NtRp2583
(dp2584
g65
(dp2585
g92
g93
ssg74
g2574
sg67
(lp2586
S':'
asbag60
(g81
g62
NtRp2587
(dp2588
g65
(dp2589
sg74
g2574
sg67
(lp2590
g60
(g61
g62
NtRp2591
(dp2592
g65
(dp2593
g73
I3
ssg74
g2587
sg67
(lp2594
S'1'
asbasbasbag60
(g76
g62
NtRp2595
(dp2596
g65
(dp2597
sg74
g2423
sg67
(lp2598
g60
(g81
g62
NtRp2599
(dp2600
g65
(dp2601
g85
g86
ssg74
g2595
sg67
(lp2602
S'HTTP_HOST'
p2603
asbag60
(g81
g62
NtRp2604
(dp2605
g65
(dp2606
g92
g93
ssg74
g2595
sg67
(lp2607
S':'
asbag60
(g81
g62
NtRp2608
(dp2609
g65
(dp2610
sg74
g2595
sg67
(lp2611
g60
(g61
g62
NtRp2612
(dp2613
g65
(dp2614
g73
I3
ssg74
g2608
sg67
(lp2615
g1132
asbasbasbag60
(g76
g62
NtRp2616
(dp2617
g65
(dp2618
sg74
g2423
sg67
(lp2619
g60
(g81
g62
NtRp2620
(dp2621
g65
(dp2622
g85
g86
ssg74
g2616
sg67
(lp2623
S'HTTP_USER_AGENT'
p2624
asbag60
(g81
g62
NtRp2625
(dp2626
g65
(dp2627
g92
g93
ssg74
g2616
sg67
(lp2628
S':'
asbag60
(g81
g62
NtRp2629
(dp2630
g65
(dp2631
sg74
g2616
sg67
(lp2632
g60
(g61
g62
NtRp2633
(dp2634
g65
(dp2635
g73
I3
ssg74
g2629
sg67
(lp2636
g1154
asbasbasbag60
(g76
g62
NtRp2637
(dp2638
g65
(dp2639
sg74
g2423
sg67
(lp2640
g60
(g81
g62
NtRp2641
(dp2642
g65
(dp2643
g85
g86
ssg74
g2637
sg67
(lp2644
S'PATH_INFO'
p2645
asbag60
(g81
g62
NtRp2646
(dp2647
g65
(dp2648
g92
g93
ssg74
g2637
sg67
(lp2649
S':'
asbag60
(g81
g62
NtRp2650
(dp2651
g65
(dp2652
sg74
g2637
sg67
(lp2653
g60
(g61
g62
NtRp2654
(dp2655
g65
(dp2656
g73
I3
ssg74
g2650
sg67
(lp2657
g1218
asbasbasbag60
(g76
g62
NtRp2658
(dp2659
g65
(dp2660
sg74
g2423
sg67
(lp2661
g60
(g81
g62
NtRp2662
(dp2663
g65
(dp2664
g85
g86
ssg74
g2658
sg67
(lp2665
S'QUERY_STRING'
p2666
asbag60
(g81
g62
NtRp2667
(dp2668
g65
(dp2669
g92
g93
ssg74
g2658
sg67
(lp2670
S':'
asbag60
(g81
g62
NtRp2671
(dp2672
g65
(dp2673
sg74
g2658
sg67
(lp2674
g60
(g61
g62
NtRp2675
(dp2676
g65
(dp2677
g73
I3
ssg74
g2671
sg67
(lp2678
S''
asbasbasbag60
(g76
g62
NtRp2679
(dp2680
g65
(dp2681
sg74
g2423
sg67
(lp2682
g60
(g81
g62
NtRp2683
(dp2684
g65
(dp2685
g85
g86
ssg74
g2679
sg67
(lp2686
S'REMOTE_ADDR'
p2687
asbag60
(g81
g62
NtRp2688
(dp2689
g65
(dp2690
g92
g93
ssg74
g2679
sg67
(lp2691
S':'
asbag60
(g81
g62
NtRp2692
(dp2693
g65
(dp2694
sg74
g2679
sg67
(lp2695
g60
(g61
g62
NtRp2696
(dp2697
g65
(dp2698
g73
I3
ssg74
g2692
sg67
(lp2699
g205
asbasbasbag60
(g76
g62
NtRp2700
(dp2701
g65
(dp2702
sg74
g2423
sg67
(lp2703
g60
(g81
g62
NtRp2704
(dp2705
g65
(dp2706
g85
g86
ssg74
g2700
sg67
(lp2707
S'REMOTE_PORT'
p2708
asbag60
(g81
g62
NtRp2709
(dp2710
g65
(dp2711
g92
g93
ssg74
g2700
sg67
(lp2712
S':'
asbag60
(g81
g62
NtRp2713
(dp2714
g65
(dp2715
sg74
g2700
sg67
(lp2716
g60
(g61
g62
NtRp2717
(dp2718
g65
(dp2719
g73
I3
ssg74
g2713
sg67
(lp2720
g1282
asbasbasbag60
(g76
g62
NtRp2721
(dp2722
g65
(dp2723
sg74
g2423
sg67
(lp2724
g60
(g81
g62
NtRp2725
(dp2726
g65
(dp2727
g85
g86
ssg74
g2721
sg67
(lp2728
S'REQUEST_METHOD'
p2729
asbag60
(g81
g62
NtRp2730
(dp2731
g65
(dp2732
g92
g93
ssg74
g2721
sg67
(lp2733
S':'
asbag60
(g81
g62
NtRp2734
(dp2735
g65
(dp2736
sg74
g2721
sg67
(lp2737
g60
(g61
g62
NtRp2738
(dp2739
g65
(dp2740
g73
I3
ssg74
g2734
sg67
(lp2741
g1304
asbasbasbag60
(g76
g62
NtRp2742
(dp2743
g65
(dp2744
sg74
g2423
sg67
(lp2745
g60
(g81
g62
NtRp2746
(dp2747
g65
(dp2748
g85
g86
ssg74
g2742
sg67
(lp2749
S'SCRIPT_NAME'
p2750
asbag60
(g81
g62
NtRp2751
(dp2752
g65
(dp2753
g92
g93
ssg74
g2742
sg67
(lp2754
S':'
asbag60
(g81
g62
NtRp2755
(dp2756
g65
(dp2757
sg74
g2742
sg67
(lp2758
g60
(g61
g62
NtRp2759
(dp2760
g65
(dp2761
g73
I3
ssg74
g2755
sg67
(lp2762
S''
asbasbasbag60
(g76
g62
NtRp2763
(dp2764
g65
(dp2765
sg74
g2423
sg67
(lp2766
g60
(g81
g62
NtRp2767
(dp2768
g65
(dp2769
g85
g86
ssg74
g2763
sg67
(lp2770
S'SERVER_NAME'
p2771
asbag60
(g81
g62
NtRp2772
(dp2773
g65
(dp2774
g92
g93
ssg74
g2763
sg67
(lp2775
S':'
asbag60
(g81
g62
NtRp2776
(dp2777
g65
(dp2778
sg74
g2763
sg67
(lp2779
g60
(g61
g62
NtRp2780
(dp2781
g65
(dp2782
g73
I3
ssg74
g2776
sg67
(lp2783
g1347
asbasbasbag60
(g76
g62
NtRp2784
(dp2785
g65
(dp2786
sg74
g2423
sg67
(lp2787
g60
(g81
g62
NtRp2788
(dp2789
g65
(dp2790
g85
g86
ssg74
g2784
sg67
(lp2791
S'SERVER_PORT'
p2792
asbag60
(g81
g62
NtRp2793
(dp2794
g65
(dp2795
g92
g93
ssg74
g2784
sg67
(lp2796
S':'
asbag60
(g81
g62
NtRp2797
(dp2798
g65
(dp2799
sg74
g2784
sg67
(lp2800
g60
(g61
g62
NtRp2801
(dp2802
g65
(dp2803
g73
I3
ssg74
g2797
sg67
(lp2804
g1369
asbasbasbag60
(g76
g62
NtRp2805
(dp2806
g65
(dp2807
sg74
g2423
sg67
(lp2808
g60
(g81
g62
NtRp2809
(dp2810
g65
(dp2811
g85
g86
ssg74
g2805
sg67
(lp2812
S'SERVER_PROTOCOL'
p2813
asbag60
(g81
g62
NtRp2814
(dp2815
g65
(dp2816
g92
g93
ssg74
g2805
sg67
(lp2817
S':'
asbag60
(g81
g62
NtRp2818
(dp2819
g65
(dp2820
sg74
g2805
sg67
(lp2821
g60
(g61
g62
NtRp2822
(dp2823
g65
(dp2824
g73
I3
ssg74
g2818
sg67
(lp2825
g1391
asbasbasbag60
(g76
g62
NtRp2826
(dp2827
g65
(dp2828
sg74
g2423
sg67
(lp2829
g60
(g81
g62
NtRp2830
(dp2831
g65
(dp2832
g85
g86
ssg74
g2826
sg67
(lp2833
S'SERVER_SOFTWARE'
p2834
asbag60
(g81
g62
NtRp2835
(dp2836
g65
(dp2837
g92
g93
ssg74
g2826
sg67
(lp2838
S':'
asbag60
(g81
g62
NtRp2839
(dp2840
g65
(dp2841
sg74
g2826
sg67
(lp2842
g60
(g61
g62
NtRp2843
(dp2844
g65
(dp2845
g73
I3
ssg74
g2839
sg67
(lp2846
g1413
asbasbasbag60
(g76
g62
NtRp2847
(dp2848
g65
(dp2849
sg74
g2423
sg67
(lp2850
g60
(g81
g62
NtRp2851
(dp2852
g65
(dp2853
g85
g86
ssg74
g2847
sg67
(lp2854
S'wsgi.errors'
p2855
asbag60
(g81
g62
NtRp2856
(dp2857
g65
(dp2858
g92
g93
ssg74
g2847
sg67
(lp2859
S':'
asbag60
(g81
g62
NtRp2860
(dp2861
g65
(dp2862
sg74
g2847
sg67
(lp2863
g60
(g61
g62
NtRp2864
(dp2865
g65
(dp2866
g73
I3
ssg74
g2860
sg67
(lp2867
S'<__main__.Stderr object at 0x00296670>'
p2868
asbasbasbag60
(g76
g62
NtRp2869
(dp2870
g65
(dp2871
sg74
g2423
sg67
(lp2872
g60
(g81
g62
NtRp2873
(dp2874
g65
(dp2875
g85
g86
ssg74
g2869
sg67
(lp2876
S'wsgi.file_wrapper'
p2877
asbag60
(g81
g62
NtRp2878
(dp2879
g65
(dp2880
g92
g93
ssg74
g2869
sg67
(lp2881
S':'
asbag60
(g81
g62
NtRp2882
(dp2883
g65
(dp2884
sg74
g2869
sg67
(lp2885
g60
(g61
g62
NtRp2886
(dp2887
g65
(dp2888
g73
I3
ssg74
g2882
sg67
(lp2889
S'<class wsgiref.util.FileWrapper at 0x02F3DE10>'
p2890
asbasbasbag60
(g76
g62
NtRp2891
(dp2892
g65
(dp2893
sg74
g2423
sg67
(lp2894
g60
(g81
g62
NtRp2895
(dp2896
g65
(dp2897
g85
g86
ssg74
g2891
sg67
(lp2898
S'wsgi.input'
p2899
asbag60
(g81
g62
NtRp2900
(dp2901
g65
(dp2902
g92
g93
ssg74
g2891
sg67
(lp2903
S':'
asbag60
(g81
g62
NtRp2904
(dp2905
g65
(dp2906
sg74
g2891
sg67
(lp2907
g60
(g61
g62
NtRp2908
(dp2909
g65
(dp2910
g73
I3
ssg74
g2904
sg67
(lp2911
S'<cStringIO.StringO object at 0x0685E520>'
p2912
asbasbasbag60
(g76
g62
NtRp2913
(dp2914
g65
(dp2915
sg74
g2423
sg67
(lp2916
g60
(g81
g62
NtRp2917
(dp2918
g65
(dp2919
g85
g86
ssg74
g2913
sg67
(lp2920
S'wsgi.multiprocess'
p2921
asbag60
(g81
g62
NtRp2922
(dp2923
g65
(dp2924
g92
g93
ssg74
g2913
sg67
(lp2925
S':'
asbag60
(g81
g62
NtRp2926
(dp2927
g65
(dp2928
sg74
g2913
sg67
(lp2929
g60
(g61
g62
NtRp2930
(dp2931
g65
(dp2932
g73
I3
ssg74
g2926
sg67
(lp2933
g103
asbasbasbag60
(g76
g62
NtRp2934
(dp2935
g65
(dp2936
sg74
g2423
sg67
(lp2937
g60
(g81
g62
NtRp2938
(dp2939
g65
(dp2940
g85
g86
ssg74
g2934
sg67
(lp2941
S'wsgi.multithread'
p2942
asbag60
(g81
g62
NtRp2943
(dp2944
g65
(dp2945
g92
g93
ssg74
g2934
sg67
(lp2946
S':'
asbag60
(g81
g62
NtRp2947
(dp2948
g65
(dp2949
sg74
g2934
sg67
(lp2950
g60
(g61
g62
NtRp2951
(dp2952
g65
(dp2953
g73
I3
ssg74
g2947
sg67
(lp2954
g1653
asbasbasbag60
(g76
g62
NtRp2955
(dp2956
g65
(dp2957
sg74
g2423
sg67
(lp2958
g60
(g81
g62
NtRp2959
(dp2960
g65
(dp2961
g85
g86
ssg74
g2955
sg67
(lp2962
S'wsgi.run_once'
p2963
asbag60
(g81
g62
NtRp2964
(dp2965
g65
(dp2966
g92
g93
ssg74
g2955
sg67
(lp2967
S':'
asbag60
(g81
g62
NtRp2968
(dp2969
g65
(dp2970
sg74
g2955
sg67
(lp2971
g60
(g61
g62
NtRp2972
(dp2973
g65
(dp2974
g73
I3
ssg74
g2968
sg67
(lp2975
g103
asbasbasbag60
(g76
g62
NtRp2976
(dp2977
g65
(dp2978
sg74
g2423
sg67
(lp2979
g60
(g81
g62
NtRp2980
(dp2981
g65
(dp2982
g85
g86
ssg74
g2976
sg67
(lp2983
S'wsgi.url_scheme'
p2984
asbag60
(g81
g62
NtRp2985
(dp2986
g65
(dp2987
g92
g93
ssg74
g2976
sg67
(lp2988
S':'
asbag60
(g81
g62
NtRp2989
(dp2990
g65
(dp2991
sg74
g2976
sg67
(lp2992
g60
(g61
g62
NtRp2993
(dp2994
g65
(dp2995
g73
I3
ssg74
g2989
sg67
(lp2996
g1696
asbasbasbag60
(g76
g62
NtRp2997
(dp2998
g65
(dp2999
sg74
g2423
sg67
(lp3000
g60
(g81
g62
NtRp3001
(dp3002
g65
(dp3003
g85
g86
ssg74
g2997
sg67
(lp3004
S'wsgi.version'
p3005
asbag60
(g81
g62
NtRp3006
(dp3007
g65
(dp3008
g92
g93
ssg74
g2997
sg67
(lp3009
S':'
asbag60
(g81
g62
NtRp3010
(dp3011
g65
(dp3012
sg74
g2997
sg67
(lp3013
g60
(g61
g62
NtRp3014
(dp3015
g65
(dp3016
g73
I3
ssg74
g3010
sg67
(lp3017
S'1'
asbasbasbasbasbasbasbasbasbasbasbasbasbsS'frames'
p3018
(lp3019
(dp3020
S'file'
p3021
S'C:\\web2py\\gluon\\restricted.py'
p3022
sS'dump'
p3023
(dp3024
sS'lnum'
p3025
I204
sS'lines'
p3026
(dp3027
sS'call'
p3028
S'(code="response.write(\' \', escape=False)\\nresponse.write...n\\\\r\\\\n  </body>\\\\r\\\\n</html>\\\\r\\\\n\\\\r\\\\n\', escape=False)", environment={\'A\': <class \'gluon.html.A\'>, \'Auth\': <class \'gluon.tools.Auth\'>, \'B\': <class \'gluon.html.B\'>, \'BEAUTIFY\': <class \'gluon.html.BEAUTIFY\'>, \'BODY\': <class \'gluon.html.BODY\'>, \'BR\': <class \'gluon.html.BR\'>, \'BUTTON\': <class \'gluon.html.BUTTON\'>, \'CAT\': <class \'gluon.html.CAT\'>, \'CENTER\': <class \'gluon.html.CENTER\'>, \'CLEANUP\': <class \'gluon.validators.CLEANUP\'>, ...}, layer=r\'C:\\web2py\\applications\\unioeste_code\\views\\default/Problem.html\')'
p3029
sS'func'
p3030
S'restricted'
p3031
sa(dp3032
g3021
S'C:\\web2py\\gluon\\restricted.py'
p3033
sg3023
(dp3034
sg3025
I189
sg3026
(dp3035
sg3028
S'(code="response.write(\' \', escape=False)\\nresponse.write...n\\\\r\\\\n  </body>\\\\r\\\\n</html>\\\\r\\\\n\\\\r\\\\n\', escape=False)", layer=r\'C:\\web2py\\applications\\unioeste_code\\views\\default/Problem.html\')'
p3036
sg3030
S'compile2'
p3037
sasS'pyver'
p3038
S'Python 2.5.4: C:\\web2py\\web2py_no_console.exe'
p3039
sS'session'
p3040
g60
(g61
g62
NtRp3041
(dp3042
g65
(dp3043
sg67
(lp3044
g60
(g69
g62
NtRp3045
(dp3046
g65
(dp3047
g73
I5
ssg74
Nsg67
(lp3048
g60
(g76
g62
NtRp3049
(dp3050
g65
(dp3051
sg74
g3045
sg67
(lp3052
g60
(g81
g62
NtRp3053
(dp3054
g65
(dp3055
g85
g86
ssg74
g3049
sg67
(lp3056
S'auth'
p3057
asbag60
(g81
g62
NtRp3058
(dp3059
g65
(dp3060
g92
g93
ssg74
g3049
sg67
(lp3061
S':'
asbag60
(g81
g62
NtRp3062
(dp3063
g65
(dp3064
sg74
g3049
sg67
(lp3065
g60
(g61
g62
NtRp3066
(dp3067
g65
(dp3068
g73
I5
ssg74
g3062
sg67
(lp3069
g60
(g69
g62
NtRp3070
(dp3071
g65
(dp3072
g73
I4
ssg74
Nsg67
(lp3073
g60
(g76
g62
NtRp3074
(dp3075
g65
(dp3076
sg74
g3070
sg67
(lp3077
g60
(g81
g62
NtRp3078
(dp3079
g65
(dp3080
g85
g86
ssg74
g3074
sg67
(lp3081
S'expiration'
p3082
asbag60
(g81
g62
NtRp3083
(dp3084
g65
(dp3085
g92
g93
ssg74
g3074
sg67
(lp3086
S':'
asbag60
(g81
g62
NtRp3087
(dp3088
g65
(dp3089
sg74
g3074
sg67
(lp3090
g60
(g61
g62
NtRp3091
(dp3092
g65
(dp3093
g73
I4
ssg74
g3087
sg67
(lp3094
S'3600'
p3095
asbasbasbag60
(g76
g62
NtRp3096
(dp3097
g65
(dp3098
sg74
g3070
sg67
(lp3099
g60
(g81
g62
NtRp3100
(dp3101
g65
(dp3102
g85
g86
ssg74
g3096
sg67
(lp3103
S'hmac_key'
p3104
asbag60
(g81
g62
NtRp3105
(dp3106
g65
(dp3107
g92
g93
ssg74
g3096
sg67
(lp3108
S':'
asbag60
(g81
g62
NtRp3109
(dp3110
g65
(dp3111
sg74
g3096
sg67
(lp3112
g60
(g61
g62
NtRp3113
(dp3114
g65
(dp3115
g73
I4
ssg74
g3109
sg67
(lp3116
S'6bf00636-5e98-4287-a7e3-a357097f7d5f'
p3117
asbasbasbag60
(g76
g62
NtRp3118
(dp3119
g65
(dp3120
sg74
g3070
sg67
(lp3121
g60
(g81
g62
NtRp3122
(dp3123
g65
(dp3124
g85
g86
ssg74
g3118
sg67
(lp3125
S'last_visit'
p3126
asbag60
(g81
g62
NtRp3127
(dp3128
g65
(dp3129
g92
g93
ssg74
g3118
sg67
(lp3130
S':'
asbag60
(g81
g62
NtRp3131
(dp3132
g65
(dp3133
sg74
g3118
sg67
(lp3134
g60
(g61
g62
NtRp3135
(dp3136
g65
(dp3137
g73
I4
ssg74
g3131
sg67
(lp3138
S'datetime.datetime(2012, 8, 2, 13, 27, 29, 582000)'
p3139
asbasbasbag60
(g76
g62
NtRp3140
(dp3141
g65
(dp3142
sg74
g3070
sg67
(lp3143
g60
(g81
g62
NtRp3144
(dp3145
g65
(dp3146
g85
g86
ssg74
g3140
sg67
(lp3147
S'remember'
p3148
asbag60
(g81
g62
NtRp3149
(dp3150
g65
(dp3151
g92
g93
ssg74
g3140
sg67
(lp3152
S':'
asbag60
(g81
g62
NtRp3153
(dp3154
g65
(dp3155
sg74
g3140
sg67
(lp3156
g60
(g61
g62
NtRp3157
(dp3158
g65
(dp3159
g73
I4
ssg74
g3153
sg67
(lp3160
g103
asbasbasbag60
(g76
g62
NtRp3161
(dp3162
g65
(dp3163
sg74
g3070
sg67
(lp3164
g60
(g81
g62
NtRp3165
(dp3166
g65
(dp3167
g85
g86
ssg74
g3161
sg67
(lp3168
S'user'
p3169
asbag60
(g81
g62
NtRp3170
(dp3171
g65
(dp3172
g92
g93
ssg74
g3161
sg67
(lp3173
S':'
asbag60
(g81
g62
NtRp3174
(dp3175
g65
(dp3176
sg74
g3161
sg67
(lp3177
g60
(g61
g62
NtRp3178
(dp3179
g65
(dp3180
g73
I4
ssg74
g3174
sg67
(lp3181
g60
(g69
g62
NtRp3182
(dp3183
g65
(dp3184
g73
I3
ssg74
Nsg67
(lp3185
g60
(g76
g62
NtRp3186
(dp3187
g65
(dp3188
sg74
g3182
sg67
(lp3189
g60
(g81
g62
NtRp3190
(dp3191
g65
(dp3192
g85
g86
ssg74
g3186
sg67
(lp3193
S'email'
p3194
asbag60
(g81
g62
NtRp3195
(dp3196
g65
(dp3197
g92
g93
ssg74
g3186
sg67
(lp3198
S':'
asbag60
(g81
g62
NtRp3199
(dp3200
g65
(dp3201
sg74
g3186
sg67
(lp3202
g60
(g61
g62
NtRp3203
(dp3204
g65
(dp3205
g73
I3
ssg74
g3199
sg67
(lp3206
S'scmirror1@gmail.com'
p3207
asbasbasbag60
(g76
g62
NtRp3208
(dp3209
g65
(dp3210
sg74
g3182
sg67
(lp3211
g60
(g81
g62
NtRp3212
(dp3213
g65
(dp3214
g85
g86
ssg74
g3208
sg67
(lp3215
S'first_name'
p3216
asbag60
(g81
g62
NtRp3217
(dp3218
g65
(dp3219
g92
g93
ssg74
g3208
sg67
(lp3220
S':'
asbag60
(g81
g62
NtRp3221
(dp3222
g65
(dp3223
sg74
g3208
sg67
(lp3224
g60
(g61
g62
NtRp3225
(dp3226
g65
(dp3227
g73
I3
ssg74
g3221
sg67
(lp3228
S'Pedro'
p3229
asbasbasbag60
(g76
g62
NtRp3230
(dp3231
g65
(dp3232
sg74
g3182
sg67
(lp3233
g60
(g81
g62
NtRp3234
(dp3235
g65
(dp3236
g85
g86
ssg74
g3230
sg67
(lp3237
S'id'
p3238
asbag60
(g81
g62
NtRp3239
(dp3240
g65
(dp3241
g92
g93
ssg74
g3230
sg67
(lp3242
S':'
asbag60
(g81
g62
NtRp3243
(dp3244
g65
(dp3245
sg74
g3230
sg67
(lp3246
g60
(g61
g62
NtRp3247
(dp3248
g65
(dp3249
g73
I3
ssg74
g3243
sg67
(lp3250
S'1'
asbasbasbag60
(g76
g62
NtRp3251
(dp3252
g65
(dp3253
sg74
g3182
sg67
(lp3254
g60
(g81
g62
NtRp3255
(dp3256
g65
(dp3257
g85
g86
ssg74
g3251
sg67
(lp3258
S'last_name'
p3259
asbag60
(g81
g62
NtRp3260
(dp3261
g65
(dp3262
g92
g93
ssg74
g3251
sg67
(lp3263
S':'
asbag60
(g81
g62
NtRp3264
(dp3265
g65
(dp3266
sg74
g3251
sg67
(lp3267
g60
(g61
g62
NtRp3268
(dp3269
g65
(dp3270
g73
I3
ssg74
g3264
sg67
(lp3271
S'Lacerda'
p3272
asbasbasbag60
(g76
g62
NtRp3273
(dp3274
g65
(dp3275
sg74
g3182
sg67
(lp3276
g60
(g81
g62
NtRp3277
(dp3278
g65
(dp3279
g85
g86
ssg74
g3273
sg67
(lp3280
S'password'
p3281
asbag60
(g81
g62
NtRp3282
(dp3283
g65
(dp3284
g92
g93
ssg74
g3273
sg67
(lp3285
S':'
asbag60
(g81
g62
NtRp3286
(dp3287
g65
(dp3288
sg74
g3273
sg67
(lp3289
g60
(g61
g62
NtRp3290
(dp3291
g65
(dp3292
g73
I3
ssg74
g3286
sg67
(lp3293
S'4297f44b13955235245b2497399d7a93'
p3294
asbasbasbag60
(g76
g62
NtRp3295
(dp3296
g65
(dp3297
sg74
g3182
sg67
(lp3298
g60
(g81
g62
NtRp3299
(dp3300
g65
(dp3301
g85
g86
ssg74
g3295
sg67
(lp3302
S'registration_id'
p3303
asbag60
(g81
g62
NtRp3304
(dp3305
g65
(dp3306
g92
g93
ssg74
g3295
sg67
(lp3307
S':'
asbag60
(g81
g62
NtRp3308
(dp3309
g65
(dp3310
sg74
g3295
sg67
(lp3311
g60
(g61
g62
NtRp3312
(dp3313
g65
(dp3314
g73
I3
ssg74
g3308
sg67
(lp3315
S''
asbasbasbag60
(g76
g62
NtRp3316
(dp3317
g65
(dp3318
sg74
g3182
sg67
(lp3319
g60
(g81
g62
NtRp3320
(dp3321
g65
(dp3322
g85
g86
ssg74
g3316
sg67
(lp3323
S'registration_key'
p3324
asbag60
(g81
g62
NtRp3325
(dp3326
g65
(dp3327
g92
g93
ssg74
g3316
sg67
(lp3328
S':'
asbag60
(g81
g62
NtRp3329
(dp3330
g65
(dp3331
sg74
g3316
sg67
(lp3332
g60
(g61
g62
NtRp3333
(dp3334
g65
(dp3335
g73
I3
ssg74
g3329
sg67
(lp3336
S''
asbasbasbag60
(g76
g62
NtRp3337
(dp3338
g65
(dp3339
sg74
g3182
sg67
(lp3340
g60
(g81
g62
NtRp3341
(dp3342
g65
(dp3343
g85
g86
ssg74
g3337
sg67
(lp3344
S'reset_password_key'
p3345
asbag60
(g81
g62
NtRp3346
(dp3347
g65
(dp3348
g92
g93
ssg74
g3337
sg67
(lp3349
S':'
asbag60
(g81
g62
NtRp3350
(dp3351
g65
(dp3352
sg74
g3337
sg67
(lp3353
g60
(g61
g62
NtRp3354
(dp3355
g65
(dp3356
g73
I3
ssg74
g3350
sg67
(lp3357
S''
asbasbasbasbasbasbasbag60
(g76
g62
NtRp3358
(dp3359
g65
(dp3360
sg74
g3070
sg67
(lp3361
g60
(g81
g62
NtRp3362
(dp3363
g65
(dp3364
g85
g86
ssg74
g3358
sg67
(lp3365
S'user_groups'
p3366
asbag60
(g81
g62
NtRp3367
(dp3368
g65
(dp3369
g92
g93
ssg74
g3358
sg67
(lp3370
S':'
asbag60
(g81
g62
NtRp3371
(dp3372
g65
(dp3373
sg74
g3358
sg67
(lp3374
g60
(g61
g62
NtRp3375
(dp3376
g65
(dp3377
g73
I4
ssg74
g3371
sg67
(lp3378
g60
(g69
g62
NtRp3379
(dp3380
g65
(dp3381
g73
I3
ssg74
Nsg67
(lp3382
g60
(g76
g62
NtRp3383
(dp3384
g65
(dp3385
sg74
g3379
sg67
(lp3386
g60
(g81
g62
NtRp3387
(dp3388
g65
(dp3389
g85
g86
ssg74
g3383
sg67
(lp3390
S'1'
asbag60
(g81
g62
NtRp3391
(dp3392
g65
(dp3393
g92
g93
ssg74
g3383
sg67
(lp3394
S':'
asbag60
(g81
g62
NtRp3395
(dp3396
g65
(dp3397
sg74
g3383
sg67
(lp3398
g60
(g61
g62
NtRp3399
(dp3400
g65
(dp3401
g73
I3
ssg74
g3395
sg67
(lp3402
S'user_1'
p3403
asbasbasbag60
(g76
g62
NtRp3404
(dp3405
g65
(dp3406
sg74
g3379
sg67
(lp3407
g60
(g81
g62
NtRp3408
(dp3409
g65
(dp3410
g85
g86
ssg74
g3404
sg67
(lp3411
S'2'
asbag60
(g81
g62
NtRp3412
(dp3413
g65
(dp3414
g92
g93
ssg74
g3404
sg67
(lp3415
S':'
asbag60
(g81
g62
NtRp3416
(dp3417
g65
(dp3418
sg74
g3404
sg67
(lp3419
g60
(g61
g62
NtRp3420
(dp3421
g65
(dp3422
g73
I3
ssg74
g3416
sg67
(lp3423
S'manager'
p3424
asbasbasbasbasbasbasbasbasbasbasbasbasbsS'etype'
p3425
S"<type 'exceptions.SyntaxError'>"
p3426
sS'date'
p3427
S'Thu Aug 02 13:31:36 2012'
p3428
sS'response'
p3429
g60
(g61
g62
NtRp3430
(dp3431
g65
(dp3432
sg67
(lp3433
g60
(g69
g62
NtRp3434
(dp3435
g65
(dp3436
g73
I5
ssg74
Nsg67
(lp3437
g60
(g76
g62
NtRp3438
(dp3439
g65
(dp3440
sg74
g3434
sg67
(lp3441
g60
(g81
g62
NtRp3442
(dp3443
g65
(dp3444
g85
g86
ssg74
g3438
sg67
(lp3445
g170
asbag60
(g81
g62
NtRp3446
(dp3447
g65
(dp3448
g92
g93
ssg74
g3438
sg67
(lp3449
S':'
asbag60
(g81
g62
NtRp3450
(dp3451
g65
(dp3452
sg74
g3438
sg67
(lp3453
g60
(g61
g62
NtRp3454
(dp3455
g65
(dp3456
g73
I5
ssg74
g3450
sg67
(lp3457
S'<cStringIO.StringO object at 0x0685E220>'
p3458
asbasbasbag60
(g76
g62
NtRp3459
(dp3460
g65
(dp3461
sg74
g3434
sg67
(lp3462
g60
(g81
g62
NtRp3463
(dp3464
g65
(dp3465
g85
g86
ssg74
g3459
sg67
(lp3466
g236
asbag60
(g81
g62
NtRp3467
(dp3468
g65
(dp3469
g92
g93
ssg74
g3459
sg67
(lp3470
S':'
asbag60
(g81
g62
NtRp3471
(dp3472
g65
(dp3473
sg74
g3459
sg67
(lp3474
g60
(g61
g62
NtRp3475
(dp3476
g65
(dp3477
g73
I5
ssg74
g3471
sg67
(lp3478
g60
(g69
g62
NtRp3479
(dp3480
g65
(dp3481
g73
I4
ssg74
Nsg67
(lp3482
g60
(g76
g62
NtRp3483
(dp3484
g65
(dp3485
sg74
g3479
sg67
(lp3486
g60
(g81
g62
NtRp3487
(dp3488
g65
(dp3489
g85
g86
ssg74
g3483
sg67
(lp3490
S'session_id_unioeste_code'
p3491
asbag60
(g81
g62
NtRp3492
(dp3493
g65
(dp3494
g92
g93
ssg74
g3483
sg67
(lp3495
S':'
asbag60
(g81
g62
NtRp3496
(dp3497
g65
(dp3498
sg74
g3483
sg67
(lp3499
g60
(g61
g62
NtRp3500
(dp3501
g65
(dp3502
g73
I4
ssg74
g3496
sg67
(lp3503
g60
(g69
g62
NtRp3504
(dp3505
g65
(dp3506
g73
I3
ssg74
Nsg67
(lp3507
g60
(g76
g62
NtRp3508
(dp3509
g65
(dp3510
sg74
g3504
sg67
(lp3511
g60
(g81
g62
NtRp3512
(dp3513
g65
(dp3514
g85
g86
ssg74
g3508
sg67
(lp3515
g286
asbag60
(g81
g62
NtRp3516
(dp3517
g65
(dp3518
g92
g93
ssg74
g3508
sg67
(lp3519
S':'
asbag60
(g81
g62
NtRp3520
(dp3521
g65
(dp3522
sg74
g3508
sg67
(lp3523
g60
(g61
g62
NtRp3524
(dp3525
g65
(dp3526
g73
I3
ssg74
g3520
sg67
(lp3527
S''
asbasbasbag60
(g76
g62
NtRp3528
(dp3529
g65
(dp3530
sg74
g3504
sg67
(lp3531
g60
(g81
g62
NtRp3532
(dp3533
g65
(dp3534
g85
g86
ssg74
g3528
sg67
(lp3535
g307
asbag60
(g81
g62
NtRp3536
(dp3537
g65
(dp3538
g92
g93
ssg74
g3528
sg67
(lp3539
S':'
asbag60
(g81
g62
NtRp3540
(dp3541
g65
(dp3542
sg74
g3528
sg67
(lp3543
g60
(g61
g62
NtRp3544
(dp3545
g65
(dp3546
g73
I3
ssg74
g3540
sg67
(lp3547
S''
asbasbasbag60
(g76
g62
NtRp3548
(dp3549
g65
(dp3550
sg74
g3504
sg67
(lp3551
g60
(g81
g62
NtRp3552
(dp3553
g65
(dp3554
g85
g86
ssg74
g3548
sg67
(lp3555
g328
asbag60
(g81
g62
NtRp3556
(dp3557
g65
(dp3558
g92
g93
ssg74
g3548
sg67
(lp3559
S':'
asbag60
(g81
g62
NtRp3560
(dp3561
g65
(dp3562
sg74
g3548
sg67
(lp3563
g60
(g61
g62
NtRp3564
(dp3565
g65
(dp3566
g73
I3
ssg74
g3560
sg67
(lp3567
S''
asbasbasbag60
(g76
g62
NtRp3568
(dp3569
g65
(dp3570
sg74
g3504
sg67
(lp3571
g60
(g81
g62
NtRp3572
(dp3573
g65
(dp3574
g85
g86
ssg74
g3568
sg67
(lp3575
g349
asbag60
(g81
g62
NtRp3576
(dp3577
g65
(dp3578
g92
g93
ssg74
g3568
sg67
(lp3579
S':'
asbag60
(g81
g62
NtRp3580
(dp3581
g65
(dp3582
sg74
g3568
sg67
(lp3583
g60
(g61
g62
NtRp3584
(dp3585
g65
(dp3586
g73
I3
ssg74
g3580
sg67
(lp3587
S''
asbasbasbag60
(g76
g62
NtRp3588
(dp3589
g65
(dp3590
sg74
g3504
sg67
(lp3591
g60
(g81
g62
NtRp3592
(dp3593
g65
(dp3594
g85
g86
ssg74
g3588
sg67
(lp3595
g370
asbag60
(g81
g62
NtRp3596
(dp3597
g65
(dp3598
g92
g93
ssg74
g3588
sg67
(lp3599
S':'
asbag60
(g81
g62
NtRp3600
(dp3601
g65
(dp3602
sg74
g3588
sg67
(lp3603
g60
(g61
g62
NtRp3604
(dp3605
g65
(dp3606
g73
I3
ssg74
g3600
sg67
(lp3607
S'/'
asbasbasbag60
(g76
g62
NtRp3608
(dp3609
g65
(dp3610
sg74
g3504
sg67
(lp3611
g60
(g81
g62
NtRp3612
(dp3613
g65
(dp3614
g85
g86
ssg74
g3608
sg67
(lp3615
g391
asbag60
(g81
g62
NtRp3616
(dp3617
g65
(dp3618
g92
g93
ssg74
g3608
sg67
(lp3619
S':'
asbag60
(g81
g62
NtRp3620
(dp3621
g65
(dp3622
sg74
g3608
sg67
(lp3623
g60
(g61
g62
NtRp3624
(dp3625
g65
(dp3626
g73
I3
ssg74
g3620
sg67
(lp3627
S''
asbasbasbag60
(g76
g62
NtRp3628
(dp3629
g65
(dp3630
sg74
g3504
sg67
(lp3631
g60
(g81
g62
NtRp3632
(dp3633
g65
(dp3634
g85
g86
ssg74
g3628
sg67
(lp3635
g412
asbag60
(g81
g62
NtRp3636
(dp3637
g65
(dp3638
g92
g93
ssg74
g3628
sg67
(lp3639
S':'
asbag60
(g81
g62
NtRp3640
(dp3641
g65
(dp3642
sg74
g3628
sg67
(lp3643
g60
(g61
g62
NtRp3644
(dp3645
g65
(dp3646
g73
I3
ssg74
g3640
sg67
(lp3647
S''
asbasbasbasbasbasbasbasbasbasbasbag60
(g76
g62
NtRp3648
(dp3649
g65
(dp3650
sg74
g3434
sg67
(lp3651
g60
(g81
g62
NtRp3652
(dp3653
g65
(dp3654
g85
g86
ssg74
g3648
sg67
(lp3655
S'delimiters'
p3656
asbag60
(g81
g62
NtRp3657
(dp3658
g65
(dp3659
g92
g93
ssg74
g3648
sg67
(lp3660
S':'
asbag60
(g81
g62
NtRp3661
(dp3662
g65
(dp3663
sg74
g3648
sg67
(lp3664
g60
(g61
g62
NtRp3665
(dp3666
g65
(dp3667
g73
I5
ssg74
g3661
sg67
(lp3668
g60
(g69
g62
NtRp3669
(dp3670
g65
(dp3671
g73
I4
ssg74
Nsg67
(lp3672
g60
(g76
g62
NtRp3673
(dp3674
g65
(dp3675
sg74
g3669
sg67
(lp3676
g60
(g81
g62
NtRp3677
(dp3678
g65
(dp3679
sg74
g3673
sg67
(lp3680
g60
(g61
g62
NtRp3681
(dp3682
g65
(dp3683
g73
I4
ssg74
g3677
sg67
(lp3684
S'{{'
p3685
asbasbasbag60
(g76
g62
NtRp3686
(dp3687
g65
(dp3688
sg74
g3669
sg67
(lp3689
g60
(g81
g62
NtRp3690
(dp3691
g65
(dp3692
sg74
g3686
sg67
(lp3693
g60
(g61
g62
NtRp3694
(dp3695
g65
(dp3696
g73
I4
ssg74
g3690
sg67
(lp3697
S'}}'
p3698
asbasbasbasbasbasbasbag60
(g76
g62
NtRp3699
(dp3700
g65
(dp3701
sg74
g3434
sg67
(lp3702
g60
(g81
g62
NtRp3703
(dp3704
g65
(dp3705
g85
g86
ssg74
g3699
sg67
(lp3706
S'files'
p3707
asbag60
(g81
g62
NtRp3708
(dp3709
g65
(dp3710
g92
g93
ssg74
g3699
sg67
(lp3711
S':'
asbag60
(g81
g62
NtRp3712
(dp3713
g65
(dp3714
sg74
g3699
sg67
(lp3715
g60
(g61
g62
NtRp3716
(dp3717
g65
(dp3718
g73
I5
ssg74
g3712
sg67
(lp3719
g60
(g69
g62
NtRp3720
(dp3721
g65
(dp3722
g73
I4
ssg74
Nsg67
(lp3723
sbasbasbasbag60
(g76
g62
NtRp3724
(dp3725
g65
(dp3726
sg74
g3434
sg67
(lp3727
g60
(g81
g62
NtRp3728
(dp3729
g65
(dp3730
g85
g86
ssg74
g3724
sg67
(lp3731
S'flash'
p3732
asbag60
(g81
g62
NtRp3733
(dp3734
g65
(dp3735
g92
g93
ssg74
g3724
sg67
(lp3736
S':'
asbag60
(g81
g62
NtRp3737
(dp3738
g65
(dp3739
sg74
g3724
sg67
(lp3740
g60
(g61
g62
NtRp3741
(dp3742
g65
(dp3743
g73
I5
ssg74
g3737
sg67
(lp3744
S''
asbasbasbag60
(g76
g62
NtRp3745
(dp3746
g65
(dp3747
sg74
g3434
sg67
(lp3748
g60
(g81
g62
NtRp3749
(dp3750
g65
(dp3751
g85
g86
ssg74
g3745
sg67
(lp3752
S'generic_patterns'
p3753
asbag60
(g81
g62
NtRp3754
(dp3755
g65
(dp3756
g92
g93
ssg74
g3745
sg67
(lp3757
S':'
asbag60
(g81
g62
NtRp3758
(dp3759
g65
(dp3760
sg74
g3745
sg67
(lp3761
g60
(g61
g62
NtRp3762
(dp3763
g65
(dp3764
g73
I5
ssg74
g3758
sg67
(lp3765
g60
(g69
g62
NtRp3766
(dp3767
g65
(dp3768
g73
I4
ssg74
Nsg67
(lp3769
sbasbasbasbag60
(g76
g62
NtRp3770
(dp3771
g65
(dp3772
sg74
g3434
sg67
(lp3773
g60
(g81
g62
NtRp3774
(dp3775
g65
(dp3776
g85
g86
ssg74
g3770
sg67
(lp3777
S'headers'
p3778
asbag60
(g81
g62
NtRp3779
(dp3780
g65
(dp3781
g92
g93
ssg74
g3770
sg67
(lp3782
S':'
asbag60
(g81
g62
NtRp3783
(dp3784
g65
(dp3785
sg74
g3770
sg67
(lp3786
g60
(g61
g62
NtRp3787
(dp3788
g65
(dp3789
g73
I5
ssg74
g3783
sg67
(lp3790
g60
(g69
g62
NtRp3791
(dp3792
g65
(dp3793
g73
I4
ssg74
Nsg67
(lp3794
g60
(g76
g62
NtRp3795
(dp3796
g65
(dp3797
sg74
g3791
sg67
(lp3798
g60
(g81
g62
NtRp3799
(dp3800
g65
(dp3801
g85
g86
ssg74
g3795
sg67
(lp3802
S'Cache-Control'
p3803
asbag60
(g81
g62
NtRp3804
(dp3805
g65
(dp3806
g92
g93
ssg74
g3795
sg67
(lp3807
S':'
asbag60
(g81
g62
NtRp3808
(dp3809
g65
(dp3810
sg74
g3795
sg67
(lp3811
g60
(g61
g62
NtRp3812
(dp3813
g65
(dp3814
g73
I4
ssg74
g3808
sg67
(lp3815
S'no-store, no-cache, must-revalidate, post-check=0, pre-check=0'
p3816
asbasbasbag60
(g76
g62
NtRp3817
(dp3818
g65
(dp3819
sg74
g3791
sg67
(lp3820
g60
(g81
g62
NtRp3821
(dp3822
g65
(dp3823
g85
g86
ssg74
g3817
sg67
(lp3824
S'Content-Type'
p3825
asbag60
(g81
g62
NtRp3826
(dp3827
g65
(dp3828
g92
g93
ssg74
g3817
sg67
(lp3829
S':'
asbag60
(g81
g62
NtRp3830
(dp3831
g65
(dp3832
sg74
g3817
sg67
(lp3833
g60
(g61
g62
NtRp3834
(dp3835
g65
(dp3836
g73
I4
ssg74
g3830
sg67
(lp3837
S'text/html; charset=utf-8'
p3838
asbasbasbag60
(g76
g62
NtRp3839
(dp3840
g65
(dp3841
sg74
g3791
sg67
(lp3842
g60
(g81
g62
NtRp3843
(dp3844
g65
(dp3845
g85
g86
ssg74
g3839
sg67
(lp3846
S'Expires'
p3847
asbag60
(g81
g62
NtRp3848
(dp3849
g65
(dp3850
g92
g93
ssg74
g3839
sg67
(lp3851
S':'
asbag60
(g81
g62
NtRp3852
(dp3853
g65
(dp3854
sg74
g3839
sg67
(lp3855
g60
(g61
g62
NtRp3856
(dp3857
g65
(dp3858
g73
I4
ssg74
g3852
sg67
(lp3859
S'Thu, 02 Aug 2012 16:31:36 GMT'
p3860
asbasbasbag60
(g76
g62
NtRp3861
(dp3862
g65
(dp3863
sg74
g3791
sg67
(lp3864
g60
(g81
g62
NtRp3865
(dp3866
g65
(dp3867
g85
g86
ssg74
g3861
sg67
(lp3868
S'Pragma'
p3869
asbag60
(g81
g62
NtRp3870
(dp3871
g65
(dp3872
g92
g93
ssg74
g3861
sg67
(lp3873
S':'
asbag60
(g81
g62
NtRp3874
(dp3875
g65
(dp3876
sg74
g3861
sg67
(lp3877
g60
(g61
g62
NtRp3878
(dp3879
g65
(dp3880
g73
I4
ssg74
g3874
sg67
(lp3881
S'no-cache'
p3882
asbasbasbag60
(g76
g62
NtRp3883
(dp3884
g65
(dp3885
sg74
g3791
sg67
(lp3886
g60
(g81
g62
NtRp3887
(dp3888
g65
(dp3889
g85
g86
ssg74
g3883
sg67
(lp3890
S'X-Powered-By'
p3891
asbag60
(g81
g62
NtRp3892
(dp3893
g65
(dp3894
g92
g93
ssg74
g3883
sg67
(lp3895
S':'
asbag60
(g81
g62
NtRp3896
(dp3897
g65
(dp3898
sg74
g3883
sg67
(lp3899
g60
(g61
g62
NtRp3900
(dp3901
g65
(dp3902
g73
I4
ssg74
g3896
sg67
(lp3903
S'web2py'
p3904
asbasbasbasbasbasbasbag60
(g76
g62
NtRp3905
(dp3906
g65
(dp3907
sg74
g3434
sg67
(lp3908
g60
(g81
g62
NtRp3909
(dp3910
g65
(dp3911
g85
g86
ssg74
g3905
sg67
(lp3912
S'menu'
p3913
asbag60
(g81
g62
NtRp3914
(dp3915
g65
(dp3916
g92
g93
ssg74
g3905
sg67
(lp3917
S':'
asbag60
(g81
g62
NtRp3918
(dp3919
g65
(dp3920
sg74
g3905
sg67
(lp3921
g60
(g61
g62
NtRp3922
(dp3923
g65
(dp3924
g73
I5
ssg74
g3918
sg67
(lp3925
g60
(g69
g62
NtRp3926
(dp3927
g65
(dp3928
g73
I4
ssg74
Nsg67
(lp3929
g60
(g76
g62
NtRp3930
(dp3931
g65
(dp3932
sg74
g3926
sg67
(lp3933
g60
(g81
g62
NtRp3934
(dp3935
g65
(dp3936
sg74
g3930
sg67
(lp3937
g60
(g61
g62
NtRp3938
(dp3939
g65
(dp3940
g73
I4
ssg74
g3934
sg67
(lp3941
g60
(g69
g62
NtRp3942
(dp3943
g65
(dp3944
g73
I3
ssg74
Nsg67
(lp3945
g60
(g76
g62
NtRp3946
(dp3947
g65
(dp3948
sg74
g3942
sg67
(lp3949
g60
(g81
g62
NtRp3950
(dp3951
g65
(dp3952
sg74
g3946
sg67
(lp3953
g60
(g61
g62
NtRp3954
(dp3955
g65
(dp3956
g73
I3
ssg74
g3950
sg67
(lp3957
cgluon.languages
lazyT_unpickle
p3958
(S't\x04\x00\x00\x00Home'
tRp3959
asbasbasbag60
(g76
g62
NtRp3960
(dp3961
g65
(dp3962
sg74
g3942
sg67
(lp3963
g60
(g81
g62
NtRp3964
(dp3965
g65
(dp3966
sg74
g3960
sg67
(lp3967
g60
(g61
g62
NtRp3968
(dp3969
g65
(dp3970
g73
I3
ssg74
g3964
sg67
(lp3971
g103
asbasbasbag60
(g76
g62
NtRp3972
(dp3973
g65
(dp3974
sg74
g3942
sg67
(lp3975
g60
(g81
g62
NtRp3976
(dp3977
g65
(dp3978
sg74
g3972
sg67
(lp3979
g60
(g61
g62
NtRp3980
(dp3981
g65
(dp3982
g73
I3
ssg74
g3976
sg67
(lp3983
S'/unioeste_code/default/index'
p3984
asbasbasbag60
(g76
g62
NtRp3985
(dp3986
g65
(dp3987
sg74
g3942
sg67
(lp3988
g60
(g81
g62
NtRp3989
(dp3990
g65
(dp3991
sg74
g3985
sg67
(lp3992
g60
(g61
g62
NtRp3993
(dp3994
g65
(dp3995
g73
I3
ssg74
g3989
sg67
(lp3996
g60
(g69
g62
NtRp3997
(dp3998
g65
(dp3999
g73
I2
ssg74
Nsg67
(lp4000
sbasbasbasbasbasbasbasbag60
(g76
g62
NtRp4001
(dp4002
g65
(dp4003
sg74
g3926
sg67
(lp4004
g60
(g81
g62
NtRp4005
(dp4006
g65
(dp4007
sg74
g4001
sg67
(lp4008
g60
(g61
g62
NtRp4009
(dp4010
g65
(dp4011
g73
I4
ssg74
g4005
sg67
(lp4012
g60
(g69
g62
NtRp4013
(dp4014
g65
(dp4015
g73
I3
ssg74
Nsg67
(lp4016
g60
(g76
g62
NtRp4017
(dp4018
g65
(dp4019
sg74
g4013
sg67
(lp4020
g60
(g81
g62
NtRp4021
(dp4022
g65
(dp4023
sg74
g4017
sg67
(lp4024
g60
(g61
g62
NtRp4025
(dp4026
g65
(dp4027
g73
I3
ssg74
g4021
sg67
(lp4028
g60
(cgluon.html
SPAN
p4029
g62
NtRp4030
(dp4031
g65
(dp4032
g85
S'color:yellow'
p4033
ssg74
Nsg67
(lp4034
g3904
asbasbasbasbag60
(g76
g62
NtRp4035
(dp4036
g65
(dp4037
sg74
g4013
sg67
(lp4038
g60
(g81
g62
NtRp4039
(dp4040
g65
(dp4041
sg74
g4035
sg67
(lp4042
g60
(g61
g62
NtRp4043
(dp4044
g65
(dp4045
g73
I3
ssg74
g4039
sg67
(lp4046
g103
asbasbasbag60
(g76
g62
NtRp4047
(dp4048
g65
(dp4049
sg74
g4013
sg67
(lp4050
g60
(g81
g62
NtRp4051
(dp4052
g65
(dp4053
sg74
g4047
sg67
(lp4054
g60
(g61
g62
NtRp4055
(dp4056
g65
(dp4057
g73
I3
ssg74
g4051
sg67
(lp4058
S'None'
p4059
asbasbasbag60
(g76
g62
NtRp4060
(dp4061
g65
(dp4062
sg74
g4013
sg67
(lp4063
g60
(g81
g62
NtRp4064
(dp4065
g65
(dp4066
sg74
g4060
sg67
(lp4067
g60
(g61
g62
NtRp4068
(dp4069
g65
(dp4070
g73
I3
ssg74
g4064
sg67
(lp4071
g60
(g69
g62
NtRp4072
(dp4073
g65
(dp4074
g73
I2
ssg74
Nsg67
(lp4075
g60
(g76
g62
NtRp4076
(dp4077
g65
(dp4078
sg74
g4072
sg67
(lp4079
g60
(g81
g62
NtRp4080
(dp4081
g65
(dp4082
sg74
g4076
sg67
(lp4083
g60
(g61
g62
NtRp4084
(dp4085
g65
(dp4086
g73
I2
ssg74
g4080
sg67
(lp4087
g60
(g69
g62
NtRp4088
(dp4089
g65
(dp4090
g73
I1
ssg74
Nsg67
(lp4091
g60
(g76
g62
NtRp4092
(dp4093
g65
(dp4094
sg74
g4088
sg67
(lp4095
g60
(g81
g62
NtRp4096
(dp4097
g65
(dp4098
sg74
g4092
sg67
(lp4099
g60
(g61
g62
NtRp4100
(dp4101
g65
(dp4102
g73
I1
ssg74
g4096
sg67
(lp4103
g3958
(S's\x08\x00\x00\x00My Sites'
tRp4104
asbasbasbag60
(g76
g62
NtRp4105
(dp4106
g65
(dp4107
sg74
g4088
sg67
(lp4108
g60
(g81
g62
NtRp4109
(dp4110
g65
(dp4111
sg74
g4105
sg67
(lp4112
g60
(g61
g62
NtRp4113
(dp4114
g65
(dp4115
g73
I1
ssg74
g4109
sg67
(lp4116
I00
asbasbasbag60
(g76
g62
NtRp4117
(dp4118
g65
(dp4119
sg74
g4088
sg67
(lp4120
g60
(g81
g62
NtRp4121
(dp4122
g65
(dp4123
sg74
g4117
sg67
(lp4124
g60
(g61
g62
NtRp4125
(dp4126
g65
(dp4127
g73
I1
ssg74
g4121
sg67
(lp4128
S'/admin/default/site'
p4129
asbasbasbasbasbasbasbag60
(g76
g62
NtRp4130
(dp4131
g65
(dp4132
sg74
g4072
sg67
(lp4133
g60
(g81
g62
NtRp4134
(dp4135
g65
(dp4136
sg74
g4130
sg67
(lp4137
g60
(g61
g62
NtRp4138
(dp4139
g65
(dp4140
g73
I2
ssg74
g4134
sg67
(lp4141
g60
(g69
g62
NtRp4142
(dp4143
g65
(dp4144
g73
I1
ssg74
Nsg67
(lp4145
g60
(g76
g62
NtRp4146
(dp4147
g65
(dp4148
sg74
g4142
sg67
(lp4149
g60
(g81
g62
NtRp4150
(dp4151
g65
(dp4152
sg74
g4146
sg67
(lp4153
g60
(g61
g62
NtRp4154
(dp4155
g65
(dp4156
g73
I1
ssg74
g4150
sg67
(lp4157
g3958
(S's\x08\x00\x00\x00This App'
tRp4158
asbasbasbag60
(g76
g62
NtRp4159
(dp4160
g65
(dp4161
sg74
g4142
sg67
(lp4162
g60
(g81
g62
NtRp4163
(dp4164
g65
(dp4165
sg74
g4159
sg67
(lp4166
g60
(g61
g62
NtRp4167
(dp4168
g65
(dp4169
g73
I1
ssg74
g4163
sg67
(lp4170
I00
asbasbasbag60
(g76
g62
NtRp4171
(dp4172
g65
(dp4173
sg74
g4142
sg67
(lp4174
g60
(g81
g62
NtRp4175
(dp4176
g65
(dp4177
sg74
g4171
sg67
(lp4178
g60
(g61
g62
NtRp4179
(dp4180
g65
(dp4181
g73
I1
ssg74
g4175
sg67
(lp4182
S'/admin/default/design/unioeste_code'
p4183
asbasbasbag60
(g76
g62
NtRp4184
(dp4185
g65
(dp4186
sg74
g4142
sg67
(lp4187
g60
(g81
g62
NtRp4188
(dp4189
g65
(dp4190
sg74
g4184
sg67
(lp4191
g60
(g61
g62
NtRp4192
(dp4193
g65
(dp4194
g73
I1
ssg74
g4188
sg67
(lp4195
(lp4196
(g3958
(S't\x0b\x00\x00\x00Controlador'
tRp4197
I00
S'/admin/default/edit/unioeste_code/controllers/default.py'
tp4198
a(g3958
(S's\x0e\x00\x00\x00Visualiza\xc3\xa7\xc3\xa3o'
tRp4199
I00
S'/admin/default/edit/unioeste_code/views/default/Problem.html'
tp4200
a(g3958
(S't\x06\x00\x00\x00Layout'
tRp4201
I00
S'/admin/default/edit/unioeste_code/views/layout.html'
tp4202
a(g3958
(S't\n\x00\x00\x00Stylesheet'
tRp4203
I00
S'/admin/default/edit/unioeste_code/static/css/web2py.css'
tp4204
a(g3958
(S's\t\x00\x00\x00Modelo BD'
tRp4205
I00
S'/admin/default/edit/unioeste_code/models/db.py'
tp4206
a(g3958
(S's\x0e\x00\x00\x00Modelo de Menu'
tRp4207
I00
S'/admin/default/edit/unioeste_code/models/menu.py'
tp4208
a(g3958
(S's\x0e\x00\x00\x00Banco de dados'
tRp4209
I00
S'/unioeste_code/appadmin/index'
tp4210
a(g3958
(S't\x06\x00\x00\x00Errors'
tRp4211
I00
S'/admin/default/errors/unioeste_code'
tp4212
a(g3958
(S't\x05\x00\x00\x00About'
tRp4213
I00
S'/admin/default/about/unioeste_code'
tp4214
aasbasbasbasbasbasbasbag60
(g76
g62
NtRp4215
(dp4216
g65
(dp4217
sg74
g4072
sg67
(lp4218
g60
(g81
g62
NtRp4219
(dp4220
g65
(dp4221
sg74
g4215
sg67
(lp4222
g60
(g61
g62
NtRp4223
(dp4224
g65
(dp4225
g73
I2
ssg74
g4219
sg67
(lp4226
g60
(g69
g62
NtRp4227
(dp4228
g65
(dp4229
g73
I1
ssg74
Nsg67
(lp4230
g60
(g76
g62
NtRp4231
(dp4232
g65
(dp4233
sg74
g4227
sg67
(lp4234
g60
(g81
g62
NtRp4235
(dp4236
g65
(dp4237
sg74
g4231
sg67
(lp4238
g60
(g61
g62
NtRp4239
(dp4240
g65
(dp4241
g73
I1
ssg74
g4235
sg67
(lp4242
S'web2py.com'
p4243
asbasbasbag60
(g76
g62
NtRp4244
(dp4245
g65
(dp4246
sg74
g4227
sg67
(lp4247
g60
(g81
g62
NtRp4248
(dp4249
g65
(dp4250
sg74
g4244
sg67
(lp4251
g60
(g61
g62
NtRp4252
(dp4253
g65
(dp4254
g73
I1
ssg74
g4248
sg67
(lp4255
I00
asbasbasbag60
(g76
g62
NtRp4256
(dp4257
g65
(dp4258
sg74
g4227
sg67
(lp4259
g60
(g81
g62
NtRp4260
(dp4261
g65
(dp4262
sg74
g4256
sg67
(lp4263
g60
(g61
g62
NtRp4264
(dp4265
g65
(dp4266
g73
I1
ssg74
g4260
sg67
(lp4267
S'http://www.web2py.com'
p4268
asbasbasbag60
(g76
g62
NtRp4269
(dp4270
g65
(dp4271
sg74
g4227
sg67
(lp4272
g60
(g81
g62
NtRp4273
(dp4274
g65
(dp4275
sg74
g4269
sg67
(lp4276
g60
(g61
g62
NtRp4277
(dp4278
g65
(dp4279
g73
I1
ssg74
g4273
sg67
(lp4280
(lp4281
(g3958
(S't\x08\x00\x00\x00Download'
tRp4282
I00
S'http://www.web2py.com/examples/default/download'
p4283
tp4284
a(g3958
(S't\x07\x00\x00\x00Support'
tRp4285
I00
S'http://www.web2py.com/examples/default/support'
p4286
tp4287
a(g3958
(S't\x04\x00\x00\x00Demo'
tRp4288
I00
S'http://web2py.com/demo_admin'
p4289
tp4290
a(g3958
(S's\x0e\x00\x00\x00Quick Examples'
tRp4291
I00
S'http://web2py.com/examples/default/examples'
p4292
tp4293
a(g3958
(S't\x03\x00\x00\x00FAQ'
tRp4294
I00
S'http://web2py.com/AlterEgo'
p4295
tp4296
a(g3958
(S't\x06\x00\x00\x00Videos'
tRp4297
I00
S'http://www.web2py.com/examples/default/videos/'
p4298
tp4299
a(g3958
(S's\x11\x00\x00\x00Free Applications'
tRp4300
I00
S'http://web2py.com/appliances'
p4301
tp4302
a(g3958
(S't\x07\x00\x00\x00Plugins'
tRp4303
I00
S'http://web2py.com/plugins'
p4304
tp4305
a(g3958
(S't\x07\x00\x00\x00Layouts'
tRp4306
I00
S'http://web2py.com/layouts'
p4307
tp4308
a(g3958
(S't\x07\x00\x00\x00Recipes'
tRp4309
I00
S'http://web2pyslices.com/'
p4310
tp4311
a(g3958
(S't\x08\x00\x00\x00Semantic'
tRp4312
I00
S'http://web2py.com/semantic'
p4313
tp4314
aasbasbasbasbasbasbasbag60
(g76
g62
NtRp4315
(dp4316
g65
(dp4317
sg74
g4072
sg67
(lp4318
g60
(g81
g62
NtRp4319
(dp4320
g65
(dp4321
sg74
g4315
sg67
(lp4322
g60
(g61
g62
NtRp4323
(dp4324
g65
(dp4325
g73
I2
ssg74
g4319
sg67
(lp4326
g60
(g69
g62
NtRp4327
(dp4328
g65
(dp4329
g73
I1
ssg74
Nsg67
(lp4330
g60
(g76
g62
NtRp4331
(dp4332
g65
(dp4333
sg74
g4327
sg67
(lp4334
g60
(g81
g62
NtRp4335
(dp4336
g65
(dp4337
sg74
g4331
sg67
(lp4338
g60
(g61
g62
NtRp4339
(dp4340
g65
(dp4341
g73
I1
ssg74
g4335
sg67
(lp4342
g3958
(S't\r\x00\x00\x00Documentation'
tRp4343
asbasbasbag60
(g76
g62
NtRp4344
(dp4345
g65
(dp4346
sg74
g4327
sg67
(lp4347
g60
(g81
g62
NtRp4348
(dp4349
g65
(dp4350
sg74
g4344
sg67
(lp4351
g60
(g61
g62
NtRp4352
(dp4353
g65
(dp4354
g73
I1
ssg74
g4348
sg67
(lp4355
I00
asbasbasbag60
(g76
g62
NtRp4356
(dp4357
g65
(dp4358
sg74
g4327
sg67
(lp4359
g60
(g81
g62
NtRp4360
(dp4361
g65
(dp4362
sg74
g4356
sg67
(lp4363
g60
(g61
g62
NtRp4364
(dp4365
g65
(dp4366
g73
I1
ssg74
g4360
sg67
(lp4367
S'http://www.web2py.com/book'
p4368
asbasbasbag60
(g76
g62
NtRp4369
(dp4370
g65
(dp4371
sg74
g4327
sg67
(lp4372
g60
(g81
g62
NtRp4373
(dp4374
g65
(dp4375
sg74
g4369
sg67
(lp4376
g60
(g61
g62
NtRp4377
(dp4378
g65
(dp4379
g73
I1
ssg74
g4373
sg67
(lp4380
(lp4381
(g3958
(S't\x07\x00\x00\x00Preface'
tRp4382
I00
S'http://www.web2py.com/book/default/chapter/00'
p4383
tp4384
a(g3958
(S't\x0c\x00\x00\x00Introduction'
tRp4385
I00
S'http://www.web2py.com/book/default/chapter/01'
p4386
tp4387
a(g3958
(S't\x06\x00\x00\x00Python'
tRp4388
I00
S'http://www.web2py.com/book/default/chapter/02'
p4389
tp4390
a(g3958
(S't\x08\x00\x00\x00Overview'
tRp4391
I00
S'http://www.web2py.com/book/default/chapter/03'
p4392
tp4393
a(g3958
(S's\x08\x00\x00\x00The Core'
tRp4394
I00
S'http://www.web2py.com/book/default/chapter/04'
p4395
tp4396
a(g3958
(S's\t\x00\x00\x00The Views'
tRp4397
I00
S'http://www.web2py.com/book/default/chapter/05'
p4398
tp4399
a(g3958
(S's\x0e\x00\x00\x00Banco de dados'
tRp4400
I00
S'http://www.web2py.com/book/default/chapter/06'
p4401
tp4402
a(g3958
(S's\x14\x00\x00\x00Forms and Validators'
tRp4403
I00
S'http://www.web2py.com/book/default/chapter/07'
p4404
tp4405
a(g3958
(S's\r\x00\x00\x00Email and SMS'
tRp4406
I00
S'http://www.web2py.com/book/default/chapter/08'
p4407
tp4408
a(g3958
(S's\x0e\x00\x00\x00Access Control'
tRp4409
I00
S'http://www.web2py.com/book/default/chapter/09'
p4410
tp4411
a(g3958
(S't\x08\x00\x00\x00Services'
tRp4412
I00
S'http://www.web2py.com/book/default/chapter/10'
p4413
tp4414
a(g3958
(S's\x0c\x00\x00\x00Ajax Recipes'
tRp4415
I00
S'http://www.web2py.com/book/default/chapter/11'
p4416
tp4417
a(g3958
(S's\x16\x00\x00\x00Components and Plugins'
tRp4418
I00
S'http://www.web2py.com/book/default/chapter/12'
p4419
tp4420
a(g3958
(S's\x12\x00\x00\x00Deployment Recipes'
tRp4421
I00
S'http://www.web2py.com/book/default/chapter/13'
p4422
tp4423
a(g3958
(S's\r\x00\x00\x00Other Recipes'
tRp4424
I00
S'http://www.web2py.com/book/default/chapter/14'
p4425
tp4426
a(g3958
(S's\r\x00\x00\x00Buy this book'
tRp4427
I00
S'http://stores.lulu.com/web2py'
p4428
tp4429
aasbasbasbasbasbasbasbag60
(g76
g62
NtRp4430
(dp4431
g65
(dp4432
sg74
g4072
sg67
(lp4433
g60
(g81
g62
NtRp4434
(dp4435
g65
(dp4436
sg74
g4430
sg67
(lp4437
g60
(g61
g62
NtRp4438
(dp4439
g65
(dp4440
g73
I2
ssg74
g4434
sg67
(lp4441
g60
(g69
g62
NtRp4442
(dp4443
g65
(dp4444
g73
I1
ssg74
Nsg67
(lp4445
g60
(g76
g62
NtRp4446
(dp4447
g65
(dp4448
sg74
g4442
sg67
(lp4449
g60
(g81
g62
NtRp4450
(dp4451
g65
(dp4452
sg74
g4446
sg67
(lp4453
g60
(g61
g62
NtRp4454
(dp4455
g65
(dp4456
g73
I1
ssg74
g4450
sg67
(lp4457
g3958
(S't\t\x00\x00\x00Community'
tRp4458
asbasbasbag60
(g76
g62
NtRp4459
(dp4460
g65
(dp4461
sg74
g4442
sg67
(lp4462
g60
(g81
g62
NtRp4463
(dp4464
g65
(dp4465
sg74
g4459
sg67
(lp4466
g60
(g61
g62
NtRp4467
(dp4468
g65
(dp4469
g73
I1
ssg74
g4463
sg67
(lp4470
I00
asbasbasbag60
(g76
g62
NtRp4471
(dp4472
g65
(dp4473
sg74
g4442
sg67
(lp4474
g60
(g81
g62
NtRp4475
(dp4476
g65
(dp4477
sg74
g4471
sg67
(lp4478
g60
(g61
g62
NtRp4479
(dp4480
g65
(dp4481
g73
I1
ssg74
g4475
sg67
(lp4482
Nasbasbasbag60
(g76
g62
NtRp4483
(dp4484
g65
(dp4485
sg74
g4442
sg67
(lp4486
g60
(g81
g62
NtRp4487
(dp4488
g65
(dp4489
sg74
g4483
sg67
(lp4490
g60
(g61
g62
NtRp4491
(dp4492
g65
(dp4493
g73
I1
ssg74
g4487
sg67
(lp4494
(lp4495
(g3958
(S't\x06\x00\x00\x00Groups'
tRp4496
I00
S'http://www.web2py.com/examples/default/usergroups'
p4497
tp4498
a(g3958
(S't\x07\x00\x00\x00Twitter'
tRp4499
I00
S'http://twitter.com/web2py'
p4500
tp4501
a(g3958
(S's\t\x00\x00\x00Live Chat'
tRp4502
I00
S'http://webchat.freenode.net/?channels=web2py'
p4503
tp4504
aasbasbasbasbasbasbasbag60
(g76
g62
NtRp4505
(dp4506
g65
(dp4507
sg74
g4072
sg67
(lp4508
g60
(g81
g62
NtRp4509
(dp4510
g65
(dp4511
sg74
g4505
sg67
(lp4512
g60
(g61
g62
NtRp4513
(dp4514
g65
(dp4515
g73
I2
ssg74
g4509
sg67
(lp4516
g60
(g69
g62
NtRp4517
(dp4518
g65
(dp4519
g73
I1
ssg74
Nsg67
(lp4520
g60
(g76
g62
NtRp4521
(dp4522
g65
(dp4523
sg74
g4517
sg67
(lp4524
g60
(g81
g62
NtRp4525
(dp4526
g65
(dp4527
sg74
g4521
sg67
(lp4528
g60
(g61
g62
NtRp4529
(dp4530
g65
(dp4531
g73
I1
ssg74
g4525
sg67
(lp4532
g3958
(S't\x07\x00\x00\x00Plugins'
tRp4533
asbasbasbag60
(g76
g62
NtRp4534
(dp4535
g65
(dp4536
sg74
g4517
sg67
(lp4537
g60
(g81
g62
NtRp4538
(dp4539
g65
(dp4540
sg74
g4534
sg67
(lp4541
g60
(g61
g62
NtRp4542
(dp4543
g65
(dp4544
g73
I1
ssg74
g4538
sg67
(lp4545
I00
asbasbasbag60
(g76
g62
NtRp4546
(dp4547
g65
(dp4548
sg74
g4517
sg67
(lp4549
g60
(g81
g62
NtRp4550
(dp4551
g65
(dp4552
sg74
g4546
sg67
(lp4553
g60
(g61
g62
NtRp4554
(dp4555
g65
(dp4556
g73
I1
ssg74
g4550
sg67
(lp4557
Nasbasbasbag60
(g76
g62
NtRp4558
(dp4559
g65
(dp4560
sg74
g4517
sg67
(lp4561
g60
(g81
g62
NtRp4562
(dp4563
g65
(dp4564
sg74
g4558
sg67
(lp4565
g60
(g61
g62
NtRp4566
(dp4567
g65
(dp4568
g73
I1
ssg74
g4562
sg67
(lp4569
(lp4570
(S'plugin_wiki'
p4571
I00
S'http://web2py.com/examples/default/download'
p4572
tp4573
a(g3958
(S's\r\x00\x00\x00Other Plugins'
tRp4574
I00
g4304
tp4575
a(g3958
(S's\x0e\x00\x00\x00Layout Plugins'
tRp4576
I00
g4307
tp4577
aasbasbasbasbasbasbasbasbasbasbasbasbasbasbasbasbasbasbasbag60
(g76
g62
NtRp4578
(dp4579
g65
(dp4580
sg74
g3434
sg67
(lp4581
g60
(g81
g62
NtRp4582
(dp4583
g65
(dp4584
g85
g86
ssg74
g4578
sg67
(lp4585
S'meta'
p4586
asbag60
(g81
g62
NtRp4587
(dp4588
g65
(dp4589
g92
g93
ssg74
g4578
sg67
(lp4590
S':'
asbag60
(g81
g62
NtRp4591
(dp4592
g65
(dp4593
sg74
g4578
sg67
(lp4594
g60
(g61
g62
NtRp4595
(dp4596
g65
(dp4597
g73
I5
ssg74
g4591
sg67
(lp4598
g60
(g69
g62
NtRp4599
(dp4600
g65
(dp4601
g73
I4
ssg74
Nsg67
(lp4602
g60
(g76
g62
NtRp4603
(dp4604
g65
(dp4605
sg74
g4599
sg67
(lp4606
g60
(g81
g62
NtRp4607
(dp4608
g65
(dp4609
g85
g86
ssg74
g4603
sg67
(lp4610
S'author'
p4611
asbag60
(g81
g62
NtRp4612
(dp4613
g65
(dp4614
g92
g93
ssg74
g4603
sg67
(lp4615
S':'
asbag60
(g81
g62
NtRp4616
(dp4617
g65
(dp4618
sg74
g4603
sg67
(lp4619
g60
(g61
g62
NtRp4620
(dp4621
g65
(dp4622
g73
I4
ssg74
g4616
sg67
(lp4623
S'Your Name <you@example.com>'
p4624
asbasbasbag60
(g76
g62
NtRp4625
(dp4626
g65
(dp4627
sg74
g4599
sg67
(lp4628
g60
(g81
g62
NtRp4629
(dp4630
g65
(dp4631
g85
g86
ssg74
g4625
sg67
(lp4632
S'copyright'
p4633
asbag60
(g81
g62
NtRp4634
(dp4635
g65
(dp4636
g92
g93
ssg74
g4625
sg67
(lp4637
S':'
asbag60
(g81
g62
NtRp4638
(dp4639
g65
(dp4640
sg74
g4625
sg67
(lp4641
g60
(g61
g62
NtRp4642
(dp4643
g65
(dp4644
g73
I4
ssg74
g4638
sg67
(lp4645
S'Copyright 2011'
p4646
asbasbasbag60
(g76
g62
NtRp4647
(dp4648
g65
(dp4649
sg74
g4599
sg67
(lp4650
g60
(g81
g62
NtRp4651
(dp4652
g65
(dp4653
g85
g86
ssg74
g4647
sg67
(lp4654
S'description'
p4655
asbag60
(g81
g62
NtRp4656
(dp4657
g65
(dp4658
g92
g93
ssg74
g4647
sg67
(lp4659
S':'
asbag60
(g81
g62
NtRp4660
(dp4661
g65
(dp4662
sg74
g4647
sg67
(lp4663
g60
(g61
g62
NtRp4664
(dp4665
g65
(dp4666
g73
I4
ssg74
g4660
sg67
(lp4667
S'a cool new app'
p4668
asbasbasbag60
(g76
g62
NtRp4669
(dp4670
g65
(dp4671
sg74
g4599
sg67
(lp4672
g60
(g81
g62
NtRp4673
(dp4674
g65
(dp4675
g85
g86
ssg74
g4669
sg67
(lp4676
S'generator'
p4677
asbag60
(g81
g62
NtRp4678
(dp4679
g65
(dp4680
g92
g93
ssg74
g4669
sg67
(lp4681
S':'
asbag60
(g81
g62
NtRp4682
(dp4683
g65
(dp4684
sg74
g4669
sg67
(lp4685
g60
(g61
g62
NtRp4686
(dp4687
g65
(dp4688
g73
I4
ssg74
g4682
sg67
(lp4689
S'Web2py Web Framework'
p4690
asbasbasbag60
(g76
g62
NtRp4691
(dp4692
g65
(dp4693
sg74
g4599
sg67
(lp4694
g60
(g81
g62
NtRp4695
(dp4696
g65
(dp4697
g85
g86
ssg74
g4691
sg67
(lp4698
S'keywords'
p4699
asbag60
(g81
g62
NtRp4700
(dp4701
g65
(dp4702
g92
g93
ssg74
g4691
sg67
(lp4703
S':'
asbag60
(g81
g62
NtRp4704
(dp4705
g65
(dp4706
sg74
g4691
sg67
(lp4707
g60
(g61
g62
NtRp4708
(dp4709
g65
(dp4710
g73
I4
ssg74
g4704
sg67
(lp4711
S'web2py, python, framework'
p4712
asbasbasbasbasbasbasbag60
(g76
g62
NtRp4713
(dp4714
g65
(dp4715
sg74
g3434
sg67
(lp4716
g60
(g81
g62
NtRp4717
(dp4718
g65
(dp4719
g85
g86
ssg74
g4713
sg67
(lp4720
S'postprocessing'
p4721
asbag60
(g81
g62
NtRp4722
(dp4723
g65
(dp4724
g92
g93
ssg74
g4713
sg67
(lp4725
S':'
asbag60
(g81
g62
NtRp4726
(dp4727
g65
(dp4728
sg74
g4713
sg67
(lp4729
g60
(g61
g62
NtRp4730
(dp4731
g65
(dp4732
g73
I5
ssg74
g4726
sg67
(lp4733
g60
(g69
g62
NtRp4734
(dp4735
g65
(dp4736
g73
I4
ssg74
Nsg67
(lp4737
sbasbasbasbag60
(g76
g62
NtRp4738
(dp4739
g65
(dp4740
sg74
g3434
sg67
(lp4741
g60
(g81
g62
NtRp4742
(dp4743
g65
(dp4744
g85
g86
ssg74
g4738
sg67
(lp4745
S'session_file'
p4746
asbag60
(g81
g62
NtRp4747
(dp4748
g65
(dp4749
g92
g93
ssg74
g4738
sg67
(lp4750
S':'
asbag60
(g81
g62
NtRp4751
(dp4752
g65
(dp4753
sg74
g4738
sg67
(lp4754
g60
(g61
g62
NtRp4755
(dp4756
g65
(dp4757
g73
I5
ssg74
g4751
sg67
(lp4758
S"<open file 'C:\\web2py\\applications\\unioeste_code\\sessions\\127.0.0.1-6a17e692-996f-4fa9-84f1-38283f8585af', mode 'rb+' at 0x063981D0>"
p4759
asbasbasbag60
(g76
g62
NtRp4760
(dp4761
g65
(dp4762
sg74
g3434
sg67
(lp4763
g60
(g81
g62
NtRp4764
(dp4765
g65
(dp4766
g85
g86
ssg74
g4760
sg67
(lp4767
S'session_filename'
p4768
asbag60
(g81
g62
NtRp4769
(dp4770
g65
(dp4771
g92
g93
ssg74
g4760
sg67
(lp4772
S':'
asbag60
(g81
g62
NtRp4773
(dp4774
g65
(dp4775
sg74
g4760
sg67
(lp4776
g60
(g61
g62
NtRp4777
(dp4778
g65
(dp4779
g73
I5
ssg74
g4773
sg67
(lp4780
S'C:\\web2py\\applications\\unioeste_code\\sessions\\127.0.0.1-6a17e692-996f-4fa9-84f1-38283f8585af'
p4781
asbasbasbag60
(g76
g62
NtRp4782
(dp4783
g65
(dp4784
sg74
g3434
sg67
(lp4785
g60
(g81
g62
NtRp4786
(dp4787
g65
(dp4788
g85
g86
ssg74
g4782
sg67
(lp4789
S'session_id'
p4790
asbag60
(g81
g62
NtRp4791
(dp4792
g65
(dp4793
g92
g93
ssg74
g4782
sg67
(lp4794
S':'
asbag60
(g81
g62
NtRp4795
(dp4796
g65
(dp4797
sg74
g4782
sg67
(lp4798
g60
(g61
g62
NtRp4799
(dp4800
g65
(dp4801
g73
I5
ssg74
g4795
sg67
(lp4802
S'127.0.0.1-6a17e692-996f-4fa9-84f1-38283f8585af'
p4803
asbasbasbag60
(g76
g62
NtRp4804
(dp4805
g65
(dp4806
sg74
g3434
sg67
(lp4807
g60
(g81
g62
NtRp4808
(dp4809
g65
(dp4810
g85
g86
ssg74
g4804
sg67
(lp4811
S'session_id_name'
p4812
asbag60
(g81
g62
NtRp4813
(dp4814
g65
(dp4815
g92
g93
ssg74
g4804
sg67
(lp4816
S':'
asbag60
(g81
g62
NtRp4817
(dp4818
g65
(dp4819
sg74
g4804
sg67
(lp4820
g60
(g61
g62
NtRp4821
(dp4822
g65
(dp4823
g73
I5
ssg74
g4817
sg67
(lp4824
g3491
asbasbasbag60
(g76
g62
NtRp4825
(dp4826
g65
(dp4827
sg74
g3434
sg67
(lp4828
g60
(g81
g62
NtRp4829
(dp4830
g65
(dp4831
g85
g86
ssg74
g4825
sg67
(lp4832
S'session_locked'
p4833
asbag60
(g81
g62
NtRp4834
(dp4835
g65
(dp4836
g92
g93
ssg74
g4825
sg67
(lp4837
S':'
asbag60
(g81
g62
NtRp4838
(dp4839
g65
(dp4840
sg74
g4825
sg67
(lp4841
g60
(g61
g62
NtRp4842
(dp4843
g65
(dp4844
g73
I5
ssg74
g4838
sg67
(lp4845
g1653
asbasbasbag60
(g76
g62
NtRp4846
(dp4847
g65
(dp4848
sg74
g3434
sg67
(lp4849
g60
(g81
g62
NtRp4850
(dp4851
g65
(dp4852
g85
g86
ssg74
g4846
sg67
(lp4853
S'session_new'
p4854
asbag60
(g81
g62
NtRp4855
(dp4856
g65
(dp4857
g92
g93
ssg74
g4846
sg67
(lp4858
S':'
asbag60
(g81
g62
NtRp4859
(dp4860
g65
(dp4861
sg74
g4846
sg67
(lp4862
g60
(g61
g62
NtRp4863
(dp4864
g65
(dp4865
g73
I5
ssg74
g4859
sg67
(lp4866
g103
asbasbasbag60
(g76
g62
NtRp4867
(dp4868
g65
(dp4869
sg74
g3434
sg67
(lp4870
g60
(g81
g62
NtRp4871
(dp4872
g65
(dp4873
g85
g86
ssg74
g4867
sg67
(lp4874
S'status'
p4875
asbag60
(g81
g62
NtRp4876
(dp4877
g65
(dp4878
g92
g93
ssg74
g4867
sg67
(lp4879
S':'
asbag60
(g81
g62
NtRp4880
(dp4881
g65
(dp4882
sg74
g4867
sg67
(lp4883
g60
(g61
g62
NtRp4884
(dp4885
g65
(dp4886
g73
I5
ssg74
g4880
sg67
(lp4887
S'200'
p4888
asbasbasbag60
(g76
g62
NtRp4889
(dp4890
g65
(dp4891
sg74
g3434
sg67
(lp4892
g60
(g81
g62
NtRp4893
(dp4894
g65
(dp4895
g85
g86
ssg74
g4889
sg67
(lp4896
S'subtitle'
p4897
asbag60
(g81
g62
NtRp4898
(dp4899
g65
(dp4900
g92
g93
ssg74
g4889
sg67
(lp4901
S':'
asbag60
(g81
g62
NtRp4902
(dp4903
g65
(dp4904
sg74
g4889
sg67
(lp4905
g60
(g61
g62
NtRp4906
(dp4907
g65
(dp4908
g73
I5
ssg74
g4902
sg67
(lp4909
g3958
(S's\x0f\x00\x00\x00Personalize-me!'
tRp4910
asbasbasbag60
(g76
g62
NtRp4911
(dp4912
g65
(dp4913
sg74
g3434
sg67
(lp4914
g60
(g81
g62
NtRp4915
(dp4916
g65
(dp4917
g85
g86
ssg74
g4911
sg67
(lp4918
S'title'
p4919
asbag60
(g81
g62
NtRp4920
(dp4921
g65
(dp4922
g92
g93
ssg74
g4911
sg67
(lp4923
S':'
asbag60
(g81
g62
NtRp4924
(dp4925
g65
(dp4926
sg74
g4911
sg67
(lp4927
g60
(g61
g62
NtRp4928
(dp4929
g65
(dp4930
g73
I5
ssg74
g4924
sg67
(lp4931
S'Unioeste Code'
p4932
asbasbasbag60
(g76
g62
NtRp4933
(dp4934
g65
(dp4935
sg74
g3434
sg67
(lp4936
g60
(g81
g62
NtRp4937
(dp4938
g65
(dp4939
g85
g86
ssg74
g4933
sg67
(lp4940
g2338
asbag60
(g81
g62
NtRp4941
(dp4942
g65
(dp4943
g92
g93
ssg74
g4933
sg67
(lp4944
S':'
asbag60
(g81
g62
NtRp4945
(dp4946
g65
(dp4947
sg74
g4933
sg67
(lp4948
g60
(g61
g62
NtRp4949
(dp4950
g65
(dp4951
g73
I5
ssg74
g4945
sg67
(lp4952
g2351
asbasbasbag60
(g76
g62
NtRp4953
(dp4954
g65
(dp4955
sg74
g3434
sg67
(lp4956
g60
(g81
g62
NtRp4957
(dp4958
g65
(dp4959
g85
g86
ssg74
g4953
sg67
(lp4960
S'view'
p4961
asbag60
(g81
g62
NtRp4962
(dp4963
g65
(dp4964
g92
g93
ssg74
g4953
sg67
(lp4965
S':'
asbag60
(g81
g62
NtRp4966
(dp4967
g65
(dp4968
sg74
g4953
sg67
(lp4969
g60
(g61
g62
NtRp4970
(dp4971
g65
(dp4972
g73
I5
ssg74
g4966
sg67
(lp4973
S'default/Problem.html'
p4974
asbasbasbasbasbsS'locals'
p4975
(dp4976
g4
S"r'C:\\web2py\\applications\\unioeste_code\\views\\default/Problem.html'"
p4977
sg6
S'"response.write(\' \', escape=False)\\nresponse.write...n\\\\r\\\\n  </body>\\\\r\\\\n</html>\\\\r\\\\n\\\\r\\\\n\', escape=False)"'
p4978
sssS'traceback'
p4979
S'Traceback (most recent call last):\n  File "gluon/restricted.py", line 204, in restricted\n  File "gluon/restricted.py", line 189, in compile2\n  File "C:\\web2py\\applications\\unioeste_code\\views\\default/Problem.html", line 10\n    response.write(\'\\r\\n\\r\\n      \', escape=False)\n           ^\nSyntaxError: invalid syntax\n'
p4980
s.