(dp1
S'output'
p2
S"<type 'exceptions.SyntaxError'> invalid syntax (default/index.html, line 87)"
p3
sS'layer'
p4
S'C:\\web2py\\applications\\unioeste_code\\views\\default/index.html'
p5
sS'code'
p6
S'response.write(\'<!DOCTYPE html>\\n<!-- paulirish.com/2008/conditional-stylesheets-vs-css-hacks-answer-neither/ -->\\n<!--[if lt IE 7]><html class="ie ie6 ie-lte9 ie-lte8 ie-lte7 no-js" lang="\', escape=False)\nresponse.write(T.accepted_language or \'en\')\nresponse.write(\'"> <![endif]-->\\n<!--[if IE 7]><html class="ie ie7 ie-lte9 ie-lte8 ie-lte7 no-js" lang="\', escape=False)\nresponse.write(T.accepted_language or \'en\')\nresponse.write(\'"> <![endif]-->\\n<!--[if IE 8]><html class="ie ie8 ie-lte9 ie-lte8 no-js" lang="\', escape=False)\nresponse.write(T.accepted_language or \'en\')\nresponse.write(\'"> <![endif]-->\\n<!--[if IE 9]><html class="ie9 ie-lte9 no-js" lang="\', escape=False)\nresponse.write(T.accepted_language or \'en\')\nresponse.write(\'"> <![endif]-->\\n<!--[if (gt IE 9)|!(IE)]><!--> <html class="no-js" lang="\', escape=False)\nresponse.write(T.accepted_language or \'en\')\nresponse.write(\'"> <!--<![endif]-->\\n<head>\\n  <meta charset="utf-8" />\\n  <!-- www.phpied.com/conditional-comments-block-downloads/ -->\\n  <!-- Always force latest IE rendering engine\\n\\t   (even in intranet) & Chrome Frame\\n\\t   Remove this if you use the .htaccess -->\\n  <!--[if IE]>\\n    <meta http-equiv="X-UA-Compatible" content="IE=edge\', escape=False)\nresponse.write(not request.is_local and \',chrome=1\' or \'\')\nresponse.write(\'">\\n  <![endif]-->\\n  \\n  <title>\', escape=False)\nresponse.write(response.title or request.application)\nresponse.write(\'</title>\\n  \\n  <!-- http://dev.w3.org/html5/markup/meta.name.html -->\\n  <meta name="application-name" content="\', escape=False)\nresponse.write(request.application)\nresponse.write(\'" />\\n  \\n  <!-- Speaking of Google, don\\\'t forget to set your site up:\\n\\t   http://google.com/webmasters -->\\n  <meta name="google-site-verification" content="" />\\n\\n  <!--  Mobile Viewport Fix\\n\\t  j.mp/mobileviewport & davidbcalhoun.com/2010/viewport-metatag\\n\\t  device-width: Occupy full width of the screen in its current orientation\\n\\t  initial-scale = 1.0 retains dimensions instead of zooming out if page height > device height\\n\\t  user-scalable = yes allows the user to zoom in -->\\n  <meta name="viewport" content="width=device-width, initial-scale=1.0, user-scalable=yes">\\n  \\n  <!-- Place favicon.ico and apple-touch-icon.png in the root of your domain and delete these references -->\\n  <link rel="shortcut icon" href="\', escape=False)\nresponse.write(URL(\'static\',\'favicon.ico\'))\nresponse.write(\'" type="image/x-icon">\\n  <link rel="apple-touch-icon" href="\', escape=False)\nresponse.write(URL(\'static\',\'favicon.png\'))\nresponse.write(\'">\\n\\n  <!-- All JavaScript at the bottom, except for Modernizr which enables \\n\\t   HTML5 elements & feature detects -->\\n  <script src="\', escape=False)\nresponse.write(URL(\'static\',\'js/modernizr.custom.js\'))\nresponse.write(\'"></script>  \\n\\n  <!-- include stylesheets -->\\n  \', escape=False)\nresponse.files.append(URL(\'static\',\'css/skeleton.css\'))\nresponse.files.append(URL(\'static\',\'css/web2py.css\'))\nif response.menu:\n    response.files.append(URL(\'static\',\'css/superfish.css\'))\n    response.files.append(URL(\'static\',\'js/superfish.js\'))\n    pass\nresponse.write(\'\\n\\n  \', escape=False)\nresponse.write(\'<script type="text/javascript"><!--\\n    // These variables are used by the web2py_ajax_init function in web2py_ajax.js (which is loaded below).\\n    var w2p_ajax_confirm_message = "\', escape=False)\nresponse.write(T(\'Are you sure you want to delete this object?\'))\nresponse.write(\'";\\n    var w2p_ajax_date_format = "\', escape=False)\nresponse.write(T(\'%Y-%m-%d\'))\nresponse.write(\'";\\n    var w2p_ajax_datetime_format = "\', escape=False)\nresponse.write(T(\'%Y-%m-%d %H:%M:%S\'))\nresponse.write(\'";\\n    //--></script>\\n\', escape=False)\nresponse.files.insert(0,URL(\'static\',\'js/jquery.js\'))\nresponse.files.insert(1,URL(\'static\',\'css/calendar.css\'))\nresponse.files.insert(2,URL(\'static\',\'js/calendar.js\'))\nresponse.files.insert(3,URL(\'static\',\'js/web2py.js\'))\nresponse.include_meta()\nresponse.include_files()\nresponse.write(\'\\n\', escape=False)\nresponse.write(\'\\n\\n  \', escape=False)\nif response.menu:\n    response.write(\'\\n  <script type="text/javascript">\\n    jQuery(function(){ jQuery(\\\'ul.sf-menu\\\').supersubs({minWidth:12,maxWidth:30,extraWidth:3}).superfish(); });\\n  </script>\\n  \', escape=False)\n    pass\nresponse.write(\'\\n\\n  \', escape=False)\n# using sidebars need to know what sidebar you want to use\nleft_sidebar_enabled = globals().get(\'left_sidebar_enabled\',False)\nright_sidebar_enabled = globals().get(\'right_sidebar_enabled\',False)\nmiddle_columns = {0:\'sixteen\',1:\'twelve\',2:\'eight\'}[\n(left_sidebar_enabled and 1 or 0)+(right_sidebar_enabled and 1 or 0)]\nresponse.write(\'\\n\\n  <!-- uncomment here to load jquery-ui\\n  <link rel="stylesheet" href="http://ajax.googleapis.com/ajax/libs/jqueryui/1.8.16/themes/base/jquery-ui.css" type="text/css" media="all" />\\n  <script src="http://ajax.googleapis.com/ajax/libs/jqueryui/1.8.16/jquery-ui.min.js" type="text/javascript"></script>\\n  uncomment to load jquery-ui //-->\\n</head>\\n<body>\\n  <div class="wrapper"><!-- for sticky footer -->\\n  \\n    <div class="topbar">\\n      <div class="container">    \\n        <div class="sixteen columns">\\n          <div id="navbar">\', escape=False)\nresponse.write(\'auth\' in globals() and auth.navbar(separators=(\' \',\' | \',\'\')))\nresponse.write(\'</div>\\n          \', escape=False)\nis_mobile=request.user_agent().is_mobile\nresponse.write(\'\\n\\t  \', escape=False)\nif response.menu:\n    response.write(\'\\n          <div id="menu">\\n             \', escape=False)\n    response.write(MENU(response.menu, _class=\'mobile-menu\' if is_mobile else \'sf-menu\',mobile=is_mobile))\n    response.write(\'\\n          </div>\\n          \', escape=False)\n    pass\nresponse.write(\'\\n        </div>\\n      </div>\\n    </div><!-- topbar -->\\n    \\n    <div class="flash">\', escape=False)\nresponse.write(response.flash or \'\')\nresponse.write(\'</div>\\n    \\n    <div class="header">\\n      <div class="container">         \\n        <div class="sixteen columns">\\n          <img src="\', escape=False)\nresponse.write(URL(\'static\',\'images/logo-code.png\'))\nresponse.write(\'" class="remove-bottom" style="margin-top: .5em;" />\\n          <!-- H5 subtitle-->\\n        </div>\\n        <div class="sixteen columns">\\n          <div style="border: 1px solid #000000; ">\\n            <div style="float:right; padding-top: .25em;" class="a2a_kit a2a_default_style">\\n            <a class="a2a_dd" href="http://www.addtoany.com/share_save">Share</a></div>\\n            <script type="text/javascript" src="http://static.addtoany.com/menu/page.js"></script>\\n          </div>\\n        </div>\\n      </div>\\n    </div>\\n\\n    <div class="main">\\n      <div class="container">                 \\n        \', escape=False)\nif left_sidebar_enabled:\n    response.write(\'\\n        <div class="four columns left-sidebar">\\n          \', escape=False)\n    response.write(\'\\n          <h3>Left Sidebar</h3>\\n          <p></p>\\n          \', escape=False)\n    response.write(\'\\n        </div>\\n        \', escape=False)\n    pass\nresponse.write(\'\\n        \\n        <div class="\', escape=False)\nresponse.write(middle_columns)\nresponse.write(\' columns center">\\n          \', escape=False)\nresponse.write(\'\\n          \', escape=False)\nresponse.write(\'\\n\\n\\n\', escape=False)\nresponse.write(H1(T("Current Problems")))\nresponse.write(\'\\n<ul>\\n\', escape=False)\nfor problem in problems:\n    response.write(\'\\n\', escape=False)\n    user = db(db.auth_user.id==problem.created_by).select().first()\n    response.write(\'\\n\', escape=False)\n    response.write(LI(A(problem.title, _href=URL("Problem", args=problem.id)), " by " + user.first_name + " " + user.last_name + " " + SPAN(prettydate(problem.created_on), _style="color:green"))\n    response.write(\'\\n\', escape=False)\n    pass\nresponse.write(\'\\n\\n</ul>\', escape=False)\nresponse.write(\'\\n          \', escape=False)\nresponse.write(\'\\n        </div>\\n        \\n        \', escape=False)\nif right_sidebar_enabled:\n    response.write(\'\\n        <div class="four columns">\\n          \', escape=False)\n    response.write(\'\\n          <h3>Right Sidebar</h3>\\n          <p></p>\\n          \', escape=False)\n    response.write(\'\\n        </div>    \\n        \', escape=False)\n    pass\nresponse.write(\'\\n        \\n      </div><!-- container -->\\n    </div><!-- main -->\\n    \\n    <div class="push"></div>\\n  </div><!-- wrapper -->\\n\\n  <div class="footer">\\n    <div class="container">    \\n      <div class="sixteen columns">\\n        \', escape=False)\nresponse.write(\' <!-- this is default footer -->\\n        <div class="footer-content clearfix">\\n            <div style="float: left;">\\n            <a href="https://developers.google.com//"> \\n            <img style="padding-left: 8em; padding-bottom:1em; " src="https://developers.google.com/appengine/images/appengine-noborder-120x30.gif" alt="Powered by Google App Engine"/>\\n            </a>\\n          </div>\\n          <div class="footer-content clearfix">\\n            <div style="float: left;   ">\\n            <a href="http://www.python.org/"> \\n            <img style="" src="http://www.python.org/community/logos/python-powered-w-70x28.png" alt="Powered by Python"/>\\n            </a>\\n          </div>\\n          <div style="padding-left: 19.5em; padding-top: 0.25em;">\\n            <a href="http://www.web2py.com/">\\n            <img style="" src="\', escape=False)\nresponse.write(URL(\'static\',\'images/poweredby.png\'))\nresponse.write(\'"/>\\n            </a>\\n          </div>\\n        </div>\\n        \', escape=False)\nresponse.write(\'\\t\\n      </div>\\n    </div><!-- container -->\\n  </div><!-- footer -->\\n  \\n  <!--[if lt IE 7 ]>\\n\\t<script src="\', escape=False)\nresponse.write(URL(\'static\',\'js/dd_belatedpng.js\'))\nresponse.write(\'"></script>\\n\\t<script> DD_belatedPNG.fix(\\\'img, .png_bg\\\'); //fix any <img> or .png_bg background-images </script>\\n\\t<![endif]-->\\n  \', escape=False)\nif response.google_analytics_id:\n    response.write(\'<script type="text/javascript"> var _gaq = _gaq || []; _gaq.push([\\\'_setAccount\\\', \\\'\', escape=False)\n    response.write(response.google_analytics_id)\n    response.write("\']); _gaq.push([\'_trackPageview\']); (function() { var ga = document.createElement(\'script\'); ga.type = \'text/javascript\'; ga.async = true; ga.src = (\'https:\' == document.location.protocol ? \'https://ssl\' : \'http://www\') + \'.google-analytics.com/ga.js\'; var s = document.getElementsByTagName(\'script\')[0]; s.parentNode.insertBefore(ga, s); })(); </script> ", escape=False)\n    pass\nresponse.write(\'\\n</body>\\n</html>\\n\', escape=False)'
p7
sS'snapshot'
p8
(dp9
S'exception'
p10
(dp11
S'__getslice__'
p12
S"<method-wrapper '__getslice__' of exceptions.SyntaxError object at 0x06B86030>"
p13
sS'text'
p14
S'"    response.write(\'\\\\n\', escape=False)\\n"'
p15
sS'__str__'
p16
S"<method-wrapper '__str__' of exceptions.SyntaxError object at 0x06B86030>"
p17
sS'__reduce__'
p18
S'<built-in method __reduce__ of exceptions.SyntaxError object at 0x06B86030>'
p19
sS'__dict__'
p20
S'{}'
p21
sS'__init__'
p22
S"<method-wrapper '__init__' of exceptions.SyntaxError object at 0x06B86030>"
p23
sS'__setattr__'
p24
S"<method-wrapper '__setattr__' of exceptions.SyntaxError object at 0x06B86030>"
p25
sS'__reduce_ex__'
p26
S'<built-in method __reduce_ex__ of exceptions.SyntaxError object at 0x06B86030>'
p27
sS'__new__'
p28
S'<built-in method __new__ of type object at 0x1E1CDBD0>'
p29
sS'__class__'
p30
S"<type 'exceptions.SyntaxError'>"
p31
sS'filename'
p32
S"r'C:\\web2py\\applications\\unioeste_code\\views\\default/index.html'"
p33
sS'lineno'
p34
S'87'
p35
sS'msg'
p36
S"'invalid syntax'"
p37
sS'__doc__'
p38
S"'Invalid syntax.'"
p39
sS'__getitem__'
p40
S"<method-wrapper '__getitem__' of exceptions.SyntaxError object at 0x06B86030>"
p41
sS'__setstate__'
p42
S'<built-in method __setstate__ of exceptions.SyntaxError object at 0x06B86030>'
p43
sS'__getattribute__'
p44
S"<method-wrapper '__getattribute__' of exceptions.SyntaxError object at 0x06B86030>"
p45
sS'print_file_and_line'
p46
S'None'
p47
sS'args'
p48
S'(\'invalid syntax\', (r\'C:\\web2py\\applications\\unioeste_code\\views\\default/index.html\', 87, 12, "    response.write(\'\\\\n\', escape=False)\\n"))'
p49
sS'offset'
p50
S'12'
p51
sS'__delattr__'
p52
S"<method-wrapper '__delattr__' of exceptions.SyntaxError object at 0x06B86030>"
p53
sS'__repr__'
p54
S"<method-wrapper '__repr__' of exceptions.SyntaxError object at 0x06B86030>"
p55
sS'__hash__'
p56
S"<method-wrapper '__hash__' of exceptions.SyntaxError object at 0x06B86030>"
p57
ssS'evalue'
p58
S'invalid syntax (default/index.html, line 87)'
p59
sS'request'
p60
ccopy_reg
_reconstructor
p61
(cgluon.html
BEAUTIFY
p62
c__builtin__
object
p63
NtRp64
(dp65
S'attributes'
p66
(dp67
sS'components'
p68
(lp69
g61
(cgluon.html
TABLE
p70
g63
NtRp71
(dp72
g66
(dp73
S'level'
p74
I5
ssS'parent'
p75
Nsg68
(lp76
g61
(cgluon.html
TR
p77
g63
NtRp78
(dp79
g66
(dp80
sg75
g71
sg68
(lp81
g61
(cgluon.html
TD
p82
g63
NtRp83
(dp84
g66
(dp85
S'_style'
p86
S'font-weight:bold;vertical-align:top'
p87
ssg75
g78
sg68
(lp88
S'ajax'
p89
asbag61
(g82
g63
NtRp90
(dp91
g66
(dp92
S'_valign'
p93
S'top'
p94
ssg75
g78
sg68
(lp95
S':'
asbag61
(g82
g63
NtRp96
(dp97
g66
(dp98
sg75
g78
sg68
(lp99
g61
(g62
g63
NtRp100
(dp101
g66
(dp102
g74
I5
ssg75
g96
sg68
(lp103
S'False'
p104
asbasbasbag61
(g77
g63
NtRp105
(dp106
g66
(dp107
sg75
g71
sg68
(lp108
g61
(g82
g63
NtRp109
(dp110
g66
(dp111
g86
g87
ssg75
g105
sg68
(lp112
S'application'
p113
asbag61
(g82
g63
NtRp114
(dp115
g66
(dp116
g93
g94
ssg75
g105
sg68
(lp117
S':'
asbag61
(g82
g63
NtRp118
(dp119
g66
(dp120
sg75
g105
sg68
(lp121
g61
(g62
g63
NtRp122
(dp123
g66
(dp124
g74
I5
ssg75
g118
sg68
(lp125
S'unioeste_code'
p126
asbasbasbag61
(g77
g63
NtRp127
(dp128
g66
(dp129
sg75
g71
sg68
(lp130
g61
(g82
g63
NtRp131
(dp132
g66
(dp133
g86
g87
ssg75
g127
sg68
(lp134
g48
asbag61
(g82
g63
NtRp135
(dp136
g66
(dp137
g93
g94
ssg75
g127
sg68
(lp138
S':'
asbag61
(g82
g63
NtRp139
(dp140
g66
(dp141
sg75
g127
sg68
(lp142
g61
(g62
g63
NtRp143
(dp144
g66
(dp145
g74
I5
ssg75
g139
sg68
(lp146
g61
(g70
g63
NtRp147
(dp148
g66
(dp149
g74
I4
ssg75
Nsg68
(lp150
sbasbasbasbag61
(g77
g63
NtRp151
(dp152
g66
(dp153
sg75
g71
sg68
(lp154
g61
(g82
g63
NtRp155
(dp156
g66
(dp157
g86
g87
ssg75
g151
sg68
(lp158
S'body'
p159
asbag61
(g82
g63
NtRp160
(dp161
g66
(dp162
g93
g94
ssg75
g151
sg68
(lp163
S':'
asbag61
(g82
g63
NtRp164
(dp165
g66
(dp166
sg75
g151
sg68
(lp167
g61
(g62
g63
NtRp168
(dp169
g66
(dp170
g74
I5
ssg75
g164
sg68
(lp171
S'<cStringIO.StringO object at 0x06B3F760>'
p172
asbasbasbag61
(g77
g63
NtRp173
(dp174
g66
(dp175
sg75
g71
sg68
(lp176
g61
(g82
g63
NtRp177
(dp178
g66
(dp179
g86
g87
ssg75
g173
sg68
(lp180
S'client'
p181
asbag61
(g82
g63
NtRp182
(dp183
g66
(dp184
g93
g94
ssg75
g173
sg68
(lp185
S':'
asbag61
(g82
g63
NtRp186
(dp187
g66
(dp188
sg75
g173
sg68
(lp189
g61
(g62
g63
NtRp190
(dp191
g66
(dp192
g74
I5
ssg75
g186
sg68
(lp193
S'127.0.0.1'
p194
asbasbasbag61
(g77
g63
NtRp195
(dp196
g66
(dp197
sg75
g71
sg68
(lp198
g61
(g82
g63
NtRp199
(dp200
g66
(dp201
g86
g87
ssg75
g195
sg68
(lp202
S'controller'
p203
asbag61
(g82
g63
NtRp204
(dp205
g66
(dp206
g93
g94
ssg75
g195
sg68
(lp207
S':'
asbag61
(g82
g63
NtRp208
(dp209
g66
(dp210
sg75
g195
sg68
(lp211
g61
(g62
g63
NtRp212
(dp213
g66
(dp214
g74
I5
ssg75
g208
sg68
(lp215
S'default'
p216
asbasbasbag61
(g77
g63
NtRp217
(dp218
g66
(dp219
sg75
g71
sg68
(lp220
g61
(g82
g63
NtRp221
(dp222
g66
(dp223
g86
g87
ssg75
g217
sg68
(lp224
S'cookies'
p225
asbag61
(g82
g63
NtRp226
(dp227
g66
(dp228
g93
g94
ssg75
g217
sg68
(lp229
S':'
asbag61
(g82
g63
NtRp230
(dp231
g66
(dp232
sg75
g217
sg68
(lp233
g61
(g62
g63
NtRp234
(dp235
g66
(dp236
g74
I5
ssg75
g230
sg68
(lp237
g61
(g70
g63
NtRp238
(dp239
g66
(dp240
g74
I4
ssg75
Nsg68
(lp241
g61
(g77
g63
NtRp242
(dp243
g66
(dp244
sg75
g238
sg68
(lp245
g61
(g82
g63
NtRp246
(dp247
g66
(dp248
g86
g87
ssg75
g242
sg68
(lp249
S'session_id_unioeste_code'
p250
asbag61
(g82
g63
NtRp251
(dp252
g66
(dp253
g93
g94
ssg75
g242
sg68
(lp254
S':'
asbag61
(g82
g63
NtRp255
(dp256
g66
(dp257
sg75
g242
sg68
(lp258
g61
(g62
g63
NtRp259
(dp260
g66
(dp261
g74
I4
ssg75
g255
sg68
(lp262
g61
(g70
g63
NtRp263
(dp264
g66
(dp265
g74
I3
ssg75
Nsg68
(lp266
g61
(g77
g63
NtRp267
(dp268
g66
(dp269
sg75
g263
sg68
(lp270
g61
(g82
g63
NtRp271
(dp272
g66
(dp273
g86
g87
ssg75
g267
sg68
(lp274
S'comment'
p275
asbag61
(g82
g63
NtRp276
(dp277
g66
(dp278
g93
g94
ssg75
g267
sg68
(lp279
S':'
asbag61
(g82
g63
NtRp280
(dp281
g66
(dp282
sg75
g267
sg68
(lp283
g61
(g62
g63
NtRp284
(dp285
g66
(dp286
g74
I3
ssg75
g280
sg68
(lp287
S''
asbasbasbag61
(g77
g63
NtRp288
(dp289
g66
(dp290
sg75
g263
sg68
(lp291
g61
(g82
g63
NtRp292
(dp293
g66
(dp294
g86
g87
ssg75
g288
sg68
(lp295
S'domain'
p296
asbag61
(g82
g63
NtRp297
(dp298
g66
(dp299
g93
g94
ssg75
g288
sg68
(lp300
S':'
asbag61
(g82
g63
NtRp301
(dp302
g66
(dp303
sg75
g288
sg68
(lp304
g61
(g62
g63
NtRp305
(dp306
g66
(dp307
g74
I3
ssg75
g301
sg68
(lp308
S''
asbasbasbag61
(g77
g63
NtRp309
(dp310
g66
(dp311
sg75
g263
sg68
(lp312
g61
(g82
g63
NtRp313
(dp314
g66
(dp315
g86
g87
ssg75
g309
sg68
(lp316
S'expires'
p317
asbag61
(g82
g63
NtRp318
(dp319
g66
(dp320
g93
g94
ssg75
g309
sg68
(lp321
S':'
asbag61
(g82
g63
NtRp322
(dp323
g66
(dp324
sg75
g309
sg68
(lp325
g61
(g62
g63
NtRp326
(dp327
g66
(dp328
g74
I3
ssg75
g322
sg68
(lp329
S''
asbasbasbag61
(g77
g63
NtRp330
(dp331
g66
(dp332
sg75
g263
sg68
(lp333
g61
(g82
g63
NtRp334
(dp335
g66
(dp336
g86
g87
ssg75
g330
sg68
(lp337
S'max-age'
p338
asbag61
(g82
g63
NtRp339
(dp340
g66
(dp341
g93
g94
ssg75
g330
sg68
(lp342
S':'
asbag61
(g82
g63
NtRp343
(dp344
g66
(dp345
sg75
g330
sg68
(lp346
g61
(g62
g63
NtRp347
(dp348
g66
(dp349
g74
I3
ssg75
g343
sg68
(lp350
S''
asbasbasbag61
(g77
g63
NtRp351
(dp352
g66
(dp353
sg75
g263
sg68
(lp354
g61
(g82
g63
NtRp355
(dp356
g66
(dp357
g86
g87
ssg75
g351
sg68
(lp358
S'path'
p359
asbag61
(g82
g63
NtRp360
(dp361
g66
(dp362
g93
g94
ssg75
g351
sg68
(lp363
S':'
asbag61
(g82
g63
NtRp364
(dp365
g66
(dp366
sg75
g351
sg68
(lp367
g61
(g62
g63
NtRp368
(dp369
g66
(dp370
g74
I3
ssg75
g364
sg68
(lp371
S''
asbasbasbag61
(g77
g63
NtRp372
(dp373
g66
(dp374
sg75
g263
sg68
(lp375
g61
(g82
g63
NtRp376
(dp377
g66
(dp378
g86
g87
ssg75
g372
sg68
(lp379
S'secure'
p380
asbag61
(g82
g63
NtRp381
(dp382
g66
(dp383
g93
g94
ssg75
g372
sg68
(lp384
S':'
asbag61
(g82
g63
NtRp385
(dp386
g66
(dp387
sg75
g372
sg68
(lp388
g61
(g62
g63
NtRp389
(dp390
g66
(dp391
g74
I3
ssg75
g385
sg68
(lp392
S''
asbasbasbag61
(g77
g63
NtRp393
(dp394
g66
(dp395
sg75
g263
sg68
(lp396
g61
(g82
g63
NtRp397
(dp398
g66
(dp399
g86
g87
ssg75
g393
sg68
(lp400
S'version'
p401
asbag61
(g82
g63
NtRp402
(dp403
g66
(dp404
g93
g94
ssg75
g393
sg68
(lp405
S':'
asbag61
(g82
g63
NtRp406
(dp407
g66
(dp408
sg75
g393
sg68
(lp409
g61
(g62
g63
NtRp410
(dp411
g66
(dp412
g74
I3
ssg75
g406
sg68
(lp413
S''
asbasbasbasbasbasbasbasbasbasbasbag61
(g77
g63
NtRp414
(dp415
g66
(dp416
sg75
g71
sg68
(lp417
g61
(g82
g63
NtRp418
(dp419
g66
(dp420
g86
g87
ssg75
g414
sg68
(lp421
S'env'
p422
asbag61
(g82
g63
NtRp423
(dp424
g66
(dp425
g93
g94
ssg75
g414
sg68
(lp426
S':'
asbag61
(g82
g63
NtRp427
(dp428
g66
(dp429
sg75
g414
sg68
(lp430
g61
(g62
g63
NtRp431
(dp432
g66
(dp433
g74
I5
ssg75
g427
sg68
(lp434
g61
(g70
g63
NtRp435
(dp436
g66
(dp437
g74
I4
ssg75
Nsg68
(lp438
g61
(g77
g63
NtRp439
(dp440
g66
(dp441
sg75
g435
sg68
(lp442
g61
(g82
g63
NtRp443
(dp444
g66
(dp445
g86
g87
ssg75
g439
sg68
(lp446
S'app_folders'
p447
asbag61
(g82
g63
NtRp448
(dp449
g66
(dp450
g93
g94
ssg75
g439
sg68
(lp451
S':'
asbag61
(g82
g63
NtRp452
(dp453
g66
(dp454
sg75
g439
sg68
(lp455
g61
(g62
g63
NtRp456
(dp457
g66
(dp458
g74
I4
ssg75
g452
sg68
(lp459
S"set(['C:\\\\web2py\\\\applications\\\\admin\\\\', 'C:\\\\web2py\\\\applications\\\\welcome\\\\', 'C:\\\\web2py\\\\applications\\\\unioeste_code\\\\'])"
p460
asbasbasbag61
(g77
g63
NtRp461
(dp462
g66
(dp463
sg75
g435
sg68
(lp464
g61
(g82
g63
NtRp465
(dp466
g66
(dp467
g86
g87
ssg75
g461
sg68
(lp468
S'applications_parent'
p469
asbag61
(g82
g63
NtRp470
(dp471
g66
(dp472
g93
g94
ssg75
g461
sg68
(lp473
S':'
asbag61
(g82
g63
NtRp474
(dp475
g66
(dp476
sg75
g461
sg68
(lp477
g61
(g62
g63
NtRp478
(dp479
g66
(dp480
g74
I4
ssg75
g474
sg68
(lp481
S'C:\\web2py'
p482
asbasbasbag61
(g77
g63
NtRp483
(dp484
g66
(dp485
sg75
g435
sg68
(lp486
g61
(g82
g63
NtRp487
(dp488
g66
(dp489
g86
g87
ssg75
g483
sg68
(lp490
S'cmd_args'
p491
asbag61
(g82
g63
NtRp492
(dp493
g66
(dp494
g93
g94
ssg75
g483
sg68
(lp495
S':'
asbag61
(g82
g63
NtRp496
(dp497
g66
(dp498
sg75
g483
sg68
(lp499
g61
(g62
g63
NtRp500
(dp501
g66
(dp502
g74
I4
ssg75
g496
sg68
(lp503
g61
(g70
g63
NtRp504
(dp505
g66
(dp506
g74
I3
ssg75
Nsg68
(lp507
sbasbasbasbag61
(g77
g63
NtRp508
(dp509
g66
(dp510
sg75
g435
sg68
(lp511
g61
(g82
g63
NtRp512
(dp513
g66
(dp514
g86
g87
ssg75
g508
sg68
(lp515
S'cmd_options'
p516
asbag61
(g82
g63
NtRp517
(dp518
g66
(dp519
g93
g94
ssg75
g508
sg68
(lp520
S':'
asbag61
(g82
g63
NtRp521
(dp522
g66
(dp523
sg75
g508
sg68
(lp524
g61
(g62
g63
NtRp525
(dp526
g66
(dp527
g74
I4
ssg75
g521
sg68
(lp528
S"<Values at 0x30fc300: {'verbose': False, 'ip': '127.0.0.1', 'shutdown_timeout': 5, 'taskbar': False, 'nocron': False, 'pid_filename': 'httpserver.pid', 'maxthreads': None, 'softcron': False, 'server_name': 'Pedro-PC', 'bpython': False, 'nogui': False, 'port': 8000, 'extcron': False, 'debuglevel': 30, 'test': None, 'folder': 'C:\\\\web2py', 'config': '', 'import_models': False, 'winservice': '', 'shell': None, 'run': '', 'log_filename': 'httpserver.log', 'args': [''], 'socket_timeout': 5, 'ssl_ca_certificate': None, 'scheduler': None, 'profiler_filename': None, 'ssl_private_key': '', 'password': '<ask>', 'request_queue_size': 5, 'ssl_certificate': '', 'cronjob': False, 'numthreads': None, 'quiet': False, 'interfaces': None, 'minthreads': None, 'timeout': 10, 'plain': False, 'nobanner': False}>"
p529
asbasbasbag61
(g77
g63
NtRp530
(dp531
g66
(dp532
sg75
g435
sg68
(lp533
g61
(g82
g63
NtRp534
(dp535
g66
(dp536
g86
g87
ssg75
g530
sg68
(lp537
S'db_sessions'
p538
asbag61
(g82
g63
NtRp539
(dp540
g66
(dp541
g93
g94
ssg75
g530
sg68
(lp542
S':'
asbag61
(g82
g63
NtRp543
(dp544
g66
(dp545
sg75
g530
sg68
(lp546
g61
(g62
g63
NtRp547
(dp548
g66
(dp549
g74
I4
ssg75
g543
sg68
(lp550
S'set([])'
p551
asbasbasbag61
(g77
g63
NtRp552
(dp553
g66
(dp554
sg75
g435
sg68
(lp555
g61
(g82
g63
NtRp556
(dp557
g66
(dp558
g86
g87
ssg75
g552
sg68
(lp559
S'debugging'
p560
asbag61
(g82
g63
NtRp561
(dp562
g66
(dp563
g93
g94
ssg75
g552
sg68
(lp564
S':'
asbag61
(g82
g63
NtRp565
(dp566
g66
(dp567
sg75
g552
sg68
(lp568
g61
(g62
g63
NtRp569
(dp570
g66
(dp571
g74
I4
ssg75
g565
sg68
(lp572
g104
asbasbasbag61
(g77
g63
NtRp573
(dp574
g66
(dp575
sg75
g435
sg68
(lp576
g61
(g82
g63
NtRp577
(dp578
g66
(dp579
g86
g87
ssg75
g573
sg68
(lp580
S'gluon_parent'
p581
asbag61
(g82
g63
NtRp582
(dp583
g66
(dp584
g93
g94
ssg75
g573
sg68
(lp585
S':'
asbag61
(g82
g63
NtRp586
(dp587
g66
(dp588
sg75
g573
sg68
(lp589
g61
(g62
g63
NtRp590
(dp591
g66
(dp592
g74
I4
ssg75
g586
sg68
(lp593
S'C:\\web2py'
p594
asbasbasbag61
(g77
g63
NtRp595
(dp596
g66
(dp597
sg75
g435
sg68
(lp598
g61
(g82
g63
NtRp599
(dp600
g66
(dp601
g86
g87
ssg75
g595
sg68
(lp602
S'http_accept'
p603
asbag61
(g82
g63
NtRp604
(dp605
g66
(dp606
g93
g94
ssg75
g595
sg68
(lp607
S':'
asbag61
(g82
g63
NtRp608
(dp609
g66
(dp610
sg75
g595
sg68
(lp611
g61
(g62
g63
NtRp612
(dp613
g66
(dp614
g74
I4
ssg75
g608
sg68
(lp615
S'text/html,application/xhtml+xml,application/xml;q=0.9,*/*;q=0.8'
p616
asbasbasbag61
(g77
g63
NtRp617
(dp618
g66
(dp619
sg75
g435
sg68
(lp620
g61
(g82
g63
NtRp621
(dp622
g66
(dp623
g86
g87
ssg75
g617
sg68
(lp624
S'http_accept_charset'
p625
asbag61
(g82
g63
NtRp626
(dp627
g66
(dp628
g93
g94
ssg75
g617
sg68
(lp629
S':'
asbag61
(g82
g63
NtRp630
(dp631
g66
(dp632
sg75
g617
sg68
(lp633
g61
(g62
g63
NtRp634
(dp635
g66
(dp636
g74
I4
ssg75
g630
sg68
(lp637
S'ISO-8859-1,utf-8;q=0.7,*;q=0.3'
p638
asbasbasbag61
(g77
g63
NtRp639
(dp640
g66
(dp641
sg75
g435
sg68
(lp642
g61
(g82
g63
NtRp643
(dp644
g66
(dp645
g86
g87
ssg75
g639
sg68
(lp646
S'http_accept_encoding'
p647
asbag61
(g82
g63
NtRp648
(dp649
g66
(dp650
g93
g94
ssg75
g639
sg68
(lp651
S':'
asbag61
(g82
g63
NtRp652
(dp653
g66
(dp654
sg75
g639
sg68
(lp655
g61
(g62
g63
NtRp656
(dp657
g66
(dp658
g74
I4
ssg75
g652
sg68
(lp659
S'gzip,deflate,sdch'
p660
asbasbasbag61
(g77
g63
NtRp661
(dp662
g66
(dp663
sg75
g435
sg68
(lp664
g61
(g82
g63
NtRp665
(dp666
g66
(dp667
g86
g87
ssg75
g661
sg68
(lp668
S'http_accept_language'
p669
asbag61
(g82
g63
NtRp670
(dp671
g66
(dp672
g93
g94
ssg75
g661
sg68
(lp673
S':'
asbag61
(g82
g63
NtRp674
(dp675
g66
(dp676
sg75
g661
sg68
(lp677
g61
(g62
g63
NtRp678
(dp679
g66
(dp680
g74
I4
ssg75
g674
sg68
(lp681
S'pt-BR,pt;q=0.8,en-US;q=0.6,en;q=0.4'
p682
asbasbasbag61
(g77
g63
NtRp683
(dp684
g66
(dp685
sg75
g435
sg68
(lp686
g61
(g82
g63
NtRp687
(dp688
g66
(dp689
g86
g87
ssg75
g683
sg68
(lp690
S'http_cache_control'
p691
asbag61
(g82
g63
NtRp692
(dp693
g66
(dp694
g93
g94
ssg75
g683
sg68
(lp695
S':'
asbag61
(g82
g63
NtRp696
(dp697
g66
(dp698
sg75
g683
sg68
(lp699
g61
(g62
g63
NtRp700
(dp701
g66
(dp702
g74
I4
ssg75
g696
sg68
(lp703
S'max-age=0'
p704
asbasbasbag61
(g77
g63
NtRp705
(dp706
g66
(dp707
sg75
g435
sg68
(lp708
g61
(g82
g63
NtRp709
(dp710
g66
(dp711
g86
g87
ssg75
g705
sg68
(lp712
S'http_connection'
p713
asbag61
(g82
g63
NtRp714
(dp715
g66
(dp716
g93
g94
ssg75
g705
sg68
(lp717
S':'
asbag61
(g82
g63
NtRp718
(dp719
g66
(dp720
sg75
g705
sg68
(lp721
g61
(g62
g63
NtRp722
(dp723
g66
(dp724
g74
I4
ssg75
g718
sg68
(lp725
S'keep-alive'
p726
asbasbasbag61
(g77
g63
NtRp727
(dp728
g66
(dp729
sg75
g435
sg68
(lp730
g61
(g82
g63
NtRp731
(dp732
g66
(dp733
g86
g87
ssg75
g727
sg68
(lp734
S'http_cookie'
p735
asbag61
(g82
g63
NtRp736
(dp737
g66
(dp738
g93
g94
ssg75
g727
sg68
(lp739
S':'
asbag61
(g82
g63
NtRp740
(dp741
g66
(dp742
sg75
g727
sg68
(lp743
g61
(g62
g63
NtRp744
(dp745
g66
(dp746
g74
I4
ssg75
g740
sg68
(lp747
S'session_id_unioeste_code=127.0.0.1-e2123eb0-50ff-4f28-8e81-a6ab4f6057bb'
p748
asbasbasbag61
(g77
g63
NtRp749
(dp750
g66
(dp751
sg75
g435
sg68
(lp752
g61
(g82
g63
NtRp753
(dp754
g66
(dp755
g86
g87
ssg75
g749
sg68
(lp756
S'http_dnt'
p757
asbag61
(g82
g63
NtRp758
(dp759
g66
(dp760
g93
g94
ssg75
g749
sg68
(lp761
S':'
asbag61
(g82
g63
NtRp762
(dp763
g66
(dp764
sg75
g749
sg68
(lp765
g61
(g62
g63
NtRp766
(dp767
g66
(dp768
g74
I4
ssg75
g762
sg68
(lp769
S'1'
asbasbasbag61
(g77
g63
NtRp770
(dp771
g66
(dp772
sg75
g435
sg68
(lp773
g61
(g82
g63
NtRp774
(dp775
g66
(dp776
g86
g87
ssg75
g770
sg68
(lp777
S'http_host'
p778
asbag61
(g82
g63
NtRp779
(dp780
g66
(dp781
g93
g94
ssg75
g770
sg68
(lp782
S':'
asbag61
(g82
g63
NtRp783
(dp784
g66
(dp785
sg75
g770
sg68
(lp786
g61
(g62
g63
NtRp787
(dp788
g66
(dp789
g74
I4
ssg75
g783
sg68
(lp790
S'localhost:8000'
p791
asbasbasbag61
(g77
g63
NtRp792
(dp793
g66
(dp794
sg75
g435
sg68
(lp795
g61
(g82
g63
NtRp796
(dp797
g66
(dp798
g86
g87
ssg75
g792
sg68
(lp799
S'http_user_agent'
p800
asbag61
(g82
g63
NtRp801
(dp802
g66
(dp803
g93
g94
ssg75
g792
sg68
(lp804
S':'
asbag61
(g82
g63
NtRp805
(dp806
g66
(dp807
sg75
g792
sg68
(lp808
g61
(g62
g63
NtRp809
(dp810
g66
(dp811
g74
I4
ssg75
g805
sg68
(lp812
S'Mozilla/5.0 (Windows NT 6.1; WOW64) AppleWebKit/536.11 (KHTML, like Gecko) Chrome/20.0.1132.57 Safari/536.11'
p813
asbasbasbag61
(g77
g63
NtRp814
(dp815
g66
(dp816
sg75
g435
sg68
(lp817
g61
(g82
g63
NtRp818
(dp819
g66
(dp820
g86
g87
ssg75
g814
sg68
(lp821
S'is_jython'
p822
asbag61
(g82
g63
NtRp823
(dp824
g66
(dp825
g93
g94
ssg75
g814
sg68
(lp826
S':'
asbag61
(g82
g63
NtRp827
(dp828
g66
(dp829
sg75
g814
sg68
(lp830
g61
(g62
g63
NtRp831
(dp832
g66
(dp833
g74
I4
ssg75
g827
sg68
(lp834
g104
asbasbasbag61
(g77
g63
NtRp835
(dp836
g66
(dp837
sg75
g435
sg68
(lp838
g61
(g82
g63
NtRp839
(dp840
g66
(dp841
g86
g87
ssg75
g835
sg68
(lp842
S'is_pypy'
p843
asbag61
(g82
g63
NtRp844
(dp845
g66
(dp846
g93
g94
ssg75
g835
sg68
(lp847
S':'
asbag61
(g82
g63
NtRp848
(dp849
g66
(dp850
sg75
g835
sg68
(lp851
g61
(g62
g63
NtRp852
(dp853
g66
(dp854
g74
I4
ssg75
g848
sg68
(lp855
g104
asbasbasbag61
(g77
g63
NtRp856
(dp857
g66
(dp858
sg75
g435
sg68
(lp859
g61
(g82
g63
NtRp860
(dp861
g66
(dp862
g86
g87
ssg75
g856
sg68
(lp863
S'path_info'
p864
asbag61
(g82
g63
NtRp865
(dp866
g66
(dp867
g93
g94
ssg75
g856
sg68
(lp868
S':'
asbag61
(g82
g63
NtRp869
(dp870
g66
(dp871
sg75
g856
sg68
(lp872
g61
(g62
g63
NtRp873
(dp874
g66
(dp875
g74
I4
ssg75
g869
sg68
(lp876
S'/unioeste_code/'
p877
asbasbasbag61
(g77
g63
NtRp878
(dp879
g66
(dp880
sg75
g435
sg68
(lp881
g61
(g82
g63
NtRp882
(dp883
g66
(dp884
g86
g87
ssg75
g878
sg68
(lp885
S'query_string'
p886
asbag61
(g82
g63
NtRp887
(dp888
g66
(dp889
g93
g94
ssg75
g878
sg68
(lp890
S':'
asbag61
(g82
g63
NtRp891
(dp892
g66
(dp893
sg75
g878
sg68
(lp894
g61
(g62
g63
NtRp895
(dp896
g66
(dp897
g74
I4
ssg75
g891
sg68
(lp898
S''
asbasbasbag61
(g77
g63
NtRp899
(dp900
g66
(dp901
sg75
g435
sg68
(lp902
g61
(g82
g63
NtRp903
(dp904
g66
(dp905
g86
g87
ssg75
g899
sg68
(lp906
S'remote_addr'
p907
asbag61
(g82
g63
NtRp908
(dp909
g66
(dp910
g93
g94
ssg75
g899
sg68
(lp911
S':'
asbag61
(g82
g63
NtRp912
(dp913
g66
(dp914
sg75
g899
sg68
(lp915
g61
(g62
g63
NtRp916
(dp917
g66
(dp918
g74
I4
ssg75
g912
sg68
(lp919
g194
asbasbasbag61
(g77
g63
NtRp920
(dp921
g66
(dp922
sg75
g435
sg68
(lp923
g61
(g82
g63
NtRp924
(dp925
g66
(dp926
g86
g87
ssg75
g920
sg68
(lp927
S'remote_port'
p928
asbag61
(g82
g63
NtRp929
(dp930
g66
(dp931
g93
g94
ssg75
g920
sg68
(lp932
S':'
asbag61
(g82
g63
NtRp933
(dp934
g66
(dp935
sg75
g920
sg68
(lp936
g61
(g62
g63
NtRp937
(dp938
g66
(dp939
g74
I4
ssg75
g933
sg68
(lp940
S'1674'
p941
asbasbasbag61
(g77
g63
NtRp942
(dp943
g66
(dp944
sg75
g435
sg68
(lp945
g61
(g82
g63
NtRp946
(dp947
g66
(dp948
g86
g87
ssg75
g942
sg68
(lp949
S'request_method'
p950
asbag61
(g82
g63
NtRp951
(dp952
g66
(dp953
g93
g94
ssg75
g942
sg68
(lp954
S':'
asbag61
(g82
g63
NtRp955
(dp956
g66
(dp957
sg75
g942
sg68
(lp958
g61
(g62
g63
NtRp959
(dp960
g66
(dp961
g74
I4
ssg75
g955
sg68
(lp962
S'GET'
p963
asbasbasbag61
(g77
g63
NtRp964
(dp965
g66
(dp966
sg75
g435
sg68
(lp967
g61
(g82
g63
NtRp968
(dp969
g66
(dp970
g86
g87
ssg75
g964
sg68
(lp971
S'script_name'
p972
asbag61
(g82
g63
NtRp973
(dp974
g66
(dp975
g93
g94
ssg75
g964
sg68
(lp976
S':'
asbag61
(g82
g63
NtRp977
(dp978
g66
(dp979
sg75
g964
sg68
(lp980
g61
(g62
g63
NtRp981
(dp982
g66
(dp983
g74
I4
ssg75
g977
sg68
(lp984
S''
asbasbasbag61
(g77
g63
NtRp985
(dp986
g66
(dp987
sg75
g435
sg68
(lp988
g61
(g82
g63
NtRp989
(dp990
g66
(dp991
g86
g87
ssg75
g985
sg68
(lp992
S'server_name'
p993
asbag61
(g82
g63
NtRp994
(dp995
g66
(dp996
g93
g94
ssg75
g985
sg68
(lp997
S':'
asbag61
(g82
g63
NtRp998
(dp999
g66
(dp1000
sg75
g985
sg68
(lp1001
g61
(g62
g63
NtRp1002
(dp1003
g66
(dp1004
g74
I4
ssg75
g998
sg68
(lp1005
S'Pedro-PC'
p1006
asbasbasbag61
(g77
g63
NtRp1007
(dp1008
g66
(dp1009
sg75
g435
sg68
(lp1010
g61
(g82
g63
NtRp1011
(dp1012
g66
(dp1013
g86
g87
ssg75
g1007
sg68
(lp1014
S'server_port'
p1015
asbag61
(g82
g63
NtRp1016
(dp1017
g66
(dp1018
g93
g94
ssg75
g1007
sg68
(lp1019
S':'
asbag61
(g82
g63
NtRp1020
(dp1021
g66
(dp1022
sg75
g1007
sg68
(lp1023
g61
(g62
g63
NtRp1024
(dp1025
g66
(dp1026
g74
I4
ssg75
g1020
sg68
(lp1027
S'8000'
p1028
asbasbasbag61
(g77
g63
NtRp1029
(dp1030
g66
(dp1031
sg75
g435
sg68
(lp1032
g61
(g82
g63
NtRp1033
(dp1034
g66
(dp1035
g86
g87
ssg75
g1029
sg68
(lp1036
S'server_protocol'
p1037
asbag61
(g82
g63
NtRp1038
(dp1039
g66
(dp1040
g93
g94
ssg75
g1029
sg68
(lp1041
S':'
asbag61
(g82
g63
NtRp1042
(dp1043
g66
(dp1044
sg75
g1029
sg68
(lp1045
g61
(g62
g63
NtRp1046
(dp1047
g66
(dp1048
g74
I4
ssg75
g1042
sg68
(lp1049
S'HTTP/1.1'
p1050
asbasbasbag61
(g77
g63
NtRp1051
(dp1052
g66
(dp1053
sg75
g435
sg68
(lp1054
g61
(g82
g63
NtRp1055
(dp1056
g66
(dp1057
g86
g87
ssg75
g1051
sg68
(lp1058
S'server_software'
p1059
asbag61
(g82
g63
NtRp1060
(dp1061
g66
(dp1062
g93
g94
ssg75
g1051
sg68
(lp1063
S':'
asbag61
(g82
g63
NtRp1064
(dp1065
g66
(dp1066
sg75
g1051
sg68
(lp1067
g61
(g62
g63
NtRp1068
(dp1069
g66
(dp1070
g74
I4
ssg75
g1064
sg68
(lp1071
S'Rocket 1.2.4'
p1072
asbasbasbag61
(g77
g63
NtRp1073
(dp1074
g66
(dp1075
sg75
g435
sg68
(lp1076
g61
(g82
g63
NtRp1077
(dp1078
g66
(dp1079
g86
g87
ssg75
g1073
sg68
(lp1080
S'web2py_crontype'
p1081
asbag61
(g82
g63
NtRp1082
(dp1083
g66
(dp1084
g93
g94
ssg75
g1073
sg68
(lp1085
S':'
asbag61
(g82
g63
NtRp1086
(dp1087
g66
(dp1088
sg75
g1073
sg68
(lp1089
g61
(g62
g63
NtRp1090
(dp1091
g66
(dp1092
g74
I4
ssg75
g1086
sg68
(lp1093
S'hard'
p1094
asbasbasbag61
(g77
g63
NtRp1095
(dp1096
g66
(dp1097
sg75
g435
sg68
(lp1098
g61
(g82
g63
NtRp1099
(dp1100
g66
(dp1101
g86
g87
ssg75
g1095
sg68
(lp1102
S'web2py_path'
p1103
asbag61
(g82
g63
NtRp1104
(dp1105
g66
(dp1106
g93
g94
ssg75
g1095
sg68
(lp1107
S':'
asbag61
(g82
g63
NtRp1108
(dp1109
g66
(dp1110
sg75
g1095
sg68
(lp1111
g61
(g62
g63
NtRp1112
(dp1113
g66
(dp1114
g74
I4
ssg75
g1108
sg68
(lp1115
g482
asbasbasbag61
(g77
g63
NtRp1116
(dp1117
g66
(dp1118
sg75
g435
sg68
(lp1119
g61
(g82
g63
NtRp1120
(dp1121
g66
(dp1122
g86
g87
ssg75
g1116
sg68
(lp1123
S'web2py_version'
p1124
asbag61
(g82
g63
NtRp1125
(dp1126
g66
(dp1127
g93
g94
ssg75
g1116
sg68
(lp1128
S':'
asbag61
(g82
g63
NtRp1129
(dp1130
g66
(dp1131
sg75
g1116
sg68
(lp1132
g61
(g62
g63
NtRp1133
(dp1134
g66
(dp1135
g74
I4
ssg75
g1129
sg68
(lp1136
g61
(g70
g63
NtRp1137
(dp1138
g66
(dp1139
g74
I3
ssg75
Nsg68
(lp1140
g61
(g77
g63
NtRp1141
(dp1142
g66
(dp1143
sg75
g1137
sg68
(lp1144
g61
(g82
g63
NtRp1145
(dp1146
g66
(dp1147
sg75
g1141
sg68
(lp1148
g61
(g62
g63
NtRp1149
(dp1150
g66
(dp1151
g74
I3
ssg75
g1145
sg68
(lp1152
S'1'
asbasbasbag61
(g77
g63
NtRp1153
(dp1154
g66
(dp1155
sg75
g1137
sg68
(lp1156
g61
(g82
g63
NtRp1157
(dp1158
g66
(dp1159
sg75
g1153
sg68
(lp1160
g61
(g62
g63
NtRp1161
(dp1162
g66
(dp1163
g74
I3
ssg75
g1157
sg68
(lp1164
S'99'
p1165
asbasbasbag61
(g77
g63
NtRp1166
(dp1167
g66
(dp1168
sg75
g1137
sg68
(lp1169
g61
(g82
g63
NtRp1170
(dp1171
g66
(dp1172
sg75
g1166
sg68
(lp1173
g61
(g62
g63
NtRp1174
(dp1175
g66
(dp1176
g74
I3
ssg75
g1170
sg68
(lp1177
S'7'
asbasbasbag61
(g77
g63
NtRp1178
(dp1179
g66
(dp1180
sg75
g1137
sg68
(lp1181
g61
(g82
g63
NtRp1182
(dp1183
g66
(dp1184
sg75
g1178
sg68
(lp1185
g61
(g62
g63
NtRp1186
(dp1187
g66
(dp1188
g74
I3
ssg75
g1182
sg68
(lp1189
S'datetime.datetime(2012, 3, 4, 22, 12, 8)'
p1190
asbasbasbag61
(g77
g63
NtRp1191
(dp1192
g66
(dp1193
sg75
g1137
sg68
(lp1194
g61
(g82
g63
NtRp1195
(dp1196
g66
(dp1197
sg75
g1191
sg68
(lp1198
g61
(g62
g63
NtRp1199
(dp1200
g66
(dp1201
g74
I3
ssg75
g1195
sg68
(lp1202
S'stable'
p1203
asbasbasbasbasbasbasbag61
(g77
g63
NtRp1204
(dp1205
g66
(dp1206
sg75
g435
sg68
(lp1207
g61
(g82
g63
NtRp1208
(dp1209
g66
(dp1210
g86
g87
ssg75
g1204
sg68
(lp1211
S'wsgi_errors'
p1212
asbag61
(g82
g63
NtRp1213
(dp1214
g66
(dp1215
g93
g94
ssg75
g1204
sg68
(lp1216
S':'
asbag61
(g82
g63
NtRp1217
(dp1218
g66
(dp1219
sg75
g1204
sg68
(lp1220
g61
(g62
g63
NtRp1221
(dp1222
g66
(dp1223
g74
I4
ssg75
g1217
sg68
(lp1224
S'<__main__.Stderr object at 0x00486670>'
p1225
asbasbasbag61
(g77
g63
NtRp1226
(dp1227
g66
(dp1228
sg75
g435
sg68
(lp1229
g61
(g82
g63
NtRp1230
(dp1231
g66
(dp1232
g86
g87
ssg75
g1226
sg68
(lp1233
S'wsgi_file_wrapper'
p1234
asbag61
(g82
g63
NtRp1235
(dp1236
g66
(dp1237
g93
g94
ssg75
g1226
sg68
(lp1238
S':'
asbag61
(g82
g63
NtRp1239
(dp1240
g66
(dp1241
sg75
g1226
sg68
(lp1242
g61
(g62
g63
NtRp1243
(dp1244
g66
(dp1245
g74
I4
ssg75
g1239
sg68
(lp1246
S'<class wsgiref.util.FileWrapper at 0x02EEDE10>'
p1247
asbasbasbag61
(g77
g63
NtRp1248
(dp1249
g66
(dp1250
sg75
g435
sg68
(lp1251
g61
(g82
g63
NtRp1252
(dp1253
g66
(dp1254
g86
g87
ssg75
g1248
sg68
(lp1255
S'wsgi_input'
p1256
asbag61
(g82
g63
NtRp1257
(dp1258
g66
(dp1259
g93
g94
ssg75
g1248
sg68
(lp1260
S':'
asbag61
(g82
g63
NtRp1261
(dp1262
g66
(dp1263
sg75
g1248
sg68
(lp1264
g61
(g62
g63
NtRp1265
(dp1266
g66
(dp1267
g74
I4
ssg75
g1261
sg68
(lp1268
S'<socket._fileobject object at 0x065ABEB0>'
p1269
asbasbasbag61
(g77
g63
NtRp1270
(dp1271
g66
(dp1272
sg75
g435
sg68
(lp1273
g61
(g82
g63
NtRp1274
(dp1275
g66
(dp1276
g86
g87
ssg75
g1270
sg68
(lp1277
S'wsgi_multiprocess'
p1278
asbag61
(g82
g63
NtRp1279
(dp1280
g66
(dp1281
g93
g94
ssg75
g1270
sg68
(lp1282
S':'
asbag61
(g82
g63
NtRp1283
(dp1284
g66
(dp1285
sg75
g1270
sg68
(lp1286
g61
(g62
g63
NtRp1287
(dp1288
g66
(dp1289
g74
I4
ssg75
g1283
sg68
(lp1290
g104
asbasbasbag61
(g77
g63
NtRp1291
(dp1292
g66
(dp1293
sg75
g435
sg68
(lp1294
g61
(g82
g63
NtRp1295
(dp1296
g66
(dp1297
g86
g87
ssg75
g1291
sg68
(lp1298
S'wsgi_multithread'
p1299
asbag61
(g82
g63
NtRp1300
(dp1301
g66
(dp1302
g93
g94
ssg75
g1291
sg68
(lp1303
S':'
asbag61
(g82
g63
NtRp1304
(dp1305
g66
(dp1306
sg75
g1291
sg68
(lp1307
g61
(g62
g63
NtRp1308
(dp1309
g66
(dp1310
g74
I4
ssg75
g1304
sg68
(lp1311
S'True'
p1312
asbasbasbag61
(g77
g63
NtRp1313
(dp1314
g66
(dp1315
sg75
g435
sg68
(lp1316
g61
(g82
g63
NtRp1317
(dp1318
g66
(dp1319
g86
g87
ssg75
g1313
sg68
(lp1320
S'wsgi_run_once'
p1321
asbag61
(g82
g63
NtRp1322
(dp1323
g66
(dp1324
g93
g94
ssg75
g1313
sg68
(lp1325
S':'
asbag61
(g82
g63
NtRp1326
(dp1327
g66
(dp1328
sg75
g1313
sg68
(lp1329
g61
(g62
g63
NtRp1330
(dp1331
g66
(dp1332
g74
I4
ssg75
g1326
sg68
(lp1333
g104
asbasbasbag61
(g77
g63
NtRp1334
(dp1335
g66
(dp1336
sg75
g435
sg68
(lp1337
g61
(g82
g63
NtRp1338
(dp1339
g66
(dp1340
g86
g87
ssg75
g1334
sg68
(lp1341
S'wsgi_url_scheme'
p1342
asbag61
(g82
g63
NtRp1343
(dp1344
g66
(dp1345
g93
g94
ssg75
g1334
sg68
(lp1346
S':'
asbag61
(g82
g63
NtRp1347
(dp1348
g66
(dp1349
sg75
g1334
sg68
(lp1350
g61
(g62
g63
NtRp1351
(dp1352
g66
(dp1353
g74
I4
ssg75
g1347
sg68
(lp1354
S'http'
p1355
asbasbasbag61
(g77
g63
NtRp1356
(dp1357
g66
(dp1358
sg75
g435
sg68
(lp1359
g61
(g82
g63
NtRp1360
(dp1361
g66
(dp1362
g86
g87
ssg75
g1356
sg68
(lp1363
S'wsgi_version'
p1364
asbag61
(g82
g63
NtRp1365
(dp1366
g66
(dp1367
g93
g94
ssg75
g1356
sg68
(lp1368
S':'
asbag61
(g82
g63
NtRp1369
(dp1370
g66
(dp1371
sg75
g1356
sg68
(lp1372
g61
(g62
g63
NtRp1373
(dp1374
g66
(dp1375
g74
I4
ssg75
g1369
sg68
(lp1376
g61
(g70
g63
NtRp1377
(dp1378
g66
(dp1379
g74
I3
ssg75
Nsg68
(lp1380
g61
(g77
g63
NtRp1381
(dp1382
g66
(dp1383
sg75
g1377
sg68
(lp1384
g61
(g82
g63
NtRp1385
(dp1386
g66
(dp1387
sg75
g1381
sg68
(lp1388
g61
(g62
g63
NtRp1389
(dp1390
g66
(dp1391
g74
I3
ssg75
g1385
sg68
(lp1392
S'1'
asbasbasbag61
(g77
g63
NtRp1393
(dp1394
g66
(dp1395
sg75
g1377
sg68
(lp1396
g61
(g82
g63
NtRp1397
(dp1398
g66
(dp1399
sg75
g1393
sg68
(lp1400
g61
(g62
g63
NtRp1401
(dp1402
g66
(dp1403
g74
I3
ssg75
g1397
sg68
(lp1404
S'0'
asbasbasbasbasbasbasbasbasbasbasbag61
(g77
g63
NtRp1405
(dp1406
g66
(dp1407
sg75
g71
sg68
(lp1408
g61
(g82
g63
NtRp1409
(dp1410
g66
(dp1411
g86
g87
ssg75
g1405
sg68
(lp1412
S'extension'
p1413
asbag61
(g82
g63
NtRp1414
(dp1415
g66
(dp1416
g93
g94
ssg75
g1405
sg68
(lp1417
S':'
asbag61
(g82
g63
NtRp1418
(dp1419
g66
(dp1420
sg75
g1405
sg68
(lp1421
g61
(g62
g63
NtRp1422
(dp1423
g66
(dp1424
g74
I5
ssg75
g1418
sg68
(lp1425
S'html'
p1426
asbasbasbag61
(g77
g63
NtRp1427
(dp1428
g66
(dp1429
sg75
g71
sg68
(lp1430
g61
(g82
g63
NtRp1431
(dp1432
g66
(dp1433
g86
g87
ssg75
g1427
sg68
(lp1434
S'folder'
p1435
asbag61
(g82
g63
NtRp1436
(dp1437
g66
(dp1438
g93
g94
ssg75
g1427
sg68
(lp1439
S':'
asbag61
(g82
g63
NtRp1440
(dp1441
g66
(dp1442
sg75
g1427
sg68
(lp1443
g61
(g62
g63
NtRp1444
(dp1445
g66
(dp1446
g74
I5
ssg75
g1440
sg68
(lp1447
S'C:\\web2py\\applications\\unioeste_code\\'
p1448
asbasbasbag61
(g77
g63
NtRp1449
(dp1450
g66
(dp1451
sg75
g71
sg68
(lp1452
g61
(g82
g63
NtRp1453
(dp1454
g66
(dp1455
g86
g87
ssg75
g1449
sg68
(lp1456
S'function'
p1457
asbag61
(g82
g63
NtRp1458
(dp1459
g66
(dp1460
g93
g94
ssg75
g1449
sg68
(lp1461
S':'
asbag61
(g82
g63
NtRp1462
(dp1463
g66
(dp1464
sg75
g1449
sg68
(lp1465
g61
(g62
g63
NtRp1466
(dp1467
g66
(dp1468
g74
I5
ssg75
g1462
sg68
(lp1469
S'index'
p1470
asbasbasbag61
(g77
g63
NtRp1471
(dp1472
g66
(dp1473
sg75
g71
sg68
(lp1474
g61
(g82
g63
NtRp1475
(dp1476
g66
(dp1477
g86
g87
ssg75
g1471
sg68
(lp1478
S'get_vars'
p1479
asbag61
(g82
g63
NtRp1480
(dp1481
g66
(dp1482
g93
g94
ssg75
g1471
sg68
(lp1483
S':'
asbag61
(g82
g63
NtRp1484
(dp1485
g66
(dp1486
sg75
g1471
sg68
(lp1487
g61
(g62
g63
NtRp1488
(dp1489
g66
(dp1490
g74
I5
ssg75
g1484
sg68
(lp1491
g61
(g70
g63
NtRp1492
(dp1493
g66
(dp1494
g74
I4
ssg75
Nsg68
(lp1495
sbasbasbasbag61
(g77
g63
NtRp1496
(dp1497
g66
(dp1498
sg75
g71
sg68
(lp1499
g61
(g82
g63
NtRp1500
(dp1501
g66
(dp1502
g86
g87
ssg75
g1496
sg68
(lp1503
S'global_settings'
p1504
asbag61
(g82
g63
NtRp1505
(dp1506
g66
(dp1507
g93
g94
ssg75
g1496
sg68
(lp1508
S':'
asbag61
(g82
g63
NtRp1509
(dp1510
g66
(dp1511
sg75
g1496
sg68
(lp1512
g61
(g62
g63
NtRp1513
(dp1514
g66
(dp1515
g74
I5
ssg75
g1509
sg68
(lp1516
g61
(g70
g63
NtRp1517
(dp1518
g66
(dp1519
g74
I4
ssg75
Nsg68
(lp1520
g61
(g77
g63
NtRp1521
(dp1522
g66
(dp1523
sg75
g1517
sg68
(lp1524
g61
(g82
g63
NtRp1525
(dp1526
g66
(dp1527
g86
g87
ssg75
g1521
sg68
(lp1528
g447
asbag61
(g82
g63
NtRp1529
(dp1530
g66
(dp1531
g93
g94
ssg75
g1521
sg68
(lp1532
S':'
asbag61
(g82
g63
NtRp1533
(dp1534
g66
(dp1535
sg75
g1521
sg68
(lp1536
g61
(g62
g63
NtRp1537
(dp1538
g66
(dp1539
g74
I4
ssg75
g1533
sg68
(lp1540
S"set(['C:\\\\web2py\\\\applications\\\\admin\\\\', 'C:\\\\web2py\\\\applications\\\\welcome\\\\', 'C:\\\\web2py\\\\applications\\\\unioeste_code\\\\'])"
p1541
asbasbasbag61
(g77
g63
NtRp1542
(dp1543
g66
(dp1544
sg75
g1517
sg68
(lp1545
g61
(g82
g63
NtRp1546
(dp1547
g66
(dp1548
g86
g87
ssg75
g1542
sg68
(lp1549
g469
asbag61
(g82
g63
NtRp1550
(dp1551
g66
(dp1552
g93
g94
ssg75
g1542
sg68
(lp1553
S':'
asbag61
(g82
g63
NtRp1554
(dp1555
g66
(dp1556
sg75
g1542
sg68
(lp1557
g61
(g62
g63
NtRp1558
(dp1559
g66
(dp1560
g74
I4
ssg75
g1554
sg68
(lp1561
g482
asbasbasbag61
(g77
g63
NtRp1562
(dp1563
g66
(dp1564
sg75
g1517
sg68
(lp1565
g61
(g82
g63
NtRp1566
(dp1567
g66
(dp1568
g86
g87
ssg75
g1562
sg68
(lp1569
g491
asbag61
(g82
g63
NtRp1570
(dp1571
g66
(dp1572
g93
g94
ssg75
g1562
sg68
(lp1573
S':'
asbag61
(g82
g63
NtRp1574
(dp1575
g66
(dp1576
sg75
g1562
sg68
(lp1577
g61
(g62
g63
NtRp1578
(dp1579
g66
(dp1580
g74
I4
ssg75
g1574
sg68
(lp1581
g61
(g70
g63
NtRp1582
(dp1583
g66
(dp1584
g74
I3
ssg75
Nsg68
(lp1585
sbasbasbasbag61
(g77
g63
NtRp1586
(dp1587
g66
(dp1588
sg75
g1517
sg68
(lp1589
g61
(g82
g63
NtRp1590
(dp1591
g66
(dp1592
g86
g87
ssg75
g1586
sg68
(lp1593
g516
asbag61
(g82
g63
NtRp1594
(dp1595
g66
(dp1596
g93
g94
ssg75
g1586
sg68
(lp1597
S':'
asbag61
(g82
g63
NtRp1598
(dp1599
g66
(dp1600
sg75
g1586
sg68
(lp1601
g61
(g62
g63
NtRp1602
(dp1603
g66
(dp1604
g74
I4
ssg75
g1598
sg68
(lp1605
S"<Values at 0x30fc300: {'verbose': False, 'ip': '127.0.0.1', 'shutdown_timeout': 5, 'taskbar': False, 'nocron': False, 'pid_filename': 'httpserver.pid', 'maxthreads': None, 'softcron': False, 'server_name': 'Pedro-PC', 'bpython': False, 'nogui': False, 'port': 8000, 'extcron': False, 'debuglevel': 30, 'test': None, 'folder': 'C:\\\\web2py', 'config': '', 'import_models': False, 'winservice': '', 'shell': None, 'run': '', 'log_filename': 'httpserver.log', 'args': [''], 'socket_timeout': 5, 'ssl_ca_certificate': None, 'scheduler': None, 'profiler_filename': None, 'ssl_private_key': '', 'password': '<ask>', 'request_queue_size': 5, 'ssl_certificate': '', 'cronjob': False, 'numthreads': None, 'quiet': False, 'interfaces': None, 'minthreads': None, 'timeout': 10, 'plain': False, 'nobanner': False}>"
p1606
asbasbasbag61
(g77
g63
NtRp1607
(dp1608
g66
(dp1609
sg75
g1517
sg68
(lp1610
g61
(g82
g63
NtRp1611
(dp1612
g66
(dp1613
g86
g87
ssg75
g1607
sg68
(lp1614
g538
asbag61
(g82
g63
NtRp1615
(dp1616
g66
(dp1617
g93
g94
ssg75
g1607
sg68
(lp1618
S':'
asbag61
(g82
g63
NtRp1619
(dp1620
g66
(dp1621
sg75
g1607
sg68
(lp1622
g61
(g62
g63
NtRp1623
(dp1624
g66
(dp1625
g74
I4
ssg75
g1619
sg68
(lp1626
S'set([])'
p1627
asbasbasbag61
(g77
g63
NtRp1628
(dp1629
g66
(dp1630
sg75
g1517
sg68
(lp1631
g61
(g82
g63
NtRp1632
(dp1633
g66
(dp1634
g86
g87
ssg75
g1628
sg68
(lp1635
g560
asbag61
(g82
g63
NtRp1636
(dp1637
g66
(dp1638
g93
g94
ssg75
g1628
sg68
(lp1639
S':'
asbag61
(g82
g63
NtRp1640
(dp1641
g66
(dp1642
sg75
g1628
sg68
(lp1643
g61
(g62
g63
NtRp1644
(dp1645
g66
(dp1646
g74
I4
ssg75
g1640
sg68
(lp1647
g104
asbasbasbag61
(g77
g63
NtRp1648
(dp1649
g66
(dp1650
sg75
g1517
sg68
(lp1651
g61
(g82
g63
NtRp1652
(dp1653
g66
(dp1654
g86
g87
ssg75
g1648
sg68
(lp1655
g581
asbag61
(g82
g63
NtRp1656
(dp1657
g66
(dp1658
g93
g94
ssg75
g1648
sg68
(lp1659
S':'
asbag61
(g82
g63
NtRp1660
(dp1661
g66
(dp1662
sg75
g1648
sg68
(lp1663
g61
(g62
g63
NtRp1664
(dp1665
g66
(dp1666
g74
I4
ssg75
g1660
sg68
(lp1667
g594
asbasbasbag61
(g77
g63
NtRp1668
(dp1669
g66
(dp1670
sg75
g1517
sg68
(lp1671
g61
(g82
g63
NtRp1672
(dp1673
g66
(dp1674
g86
g87
ssg75
g1668
sg68
(lp1675
g822
asbag61
(g82
g63
NtRp1676
(dp1677
g66
(dp1678
g93
g94
ssg75
g1668
sg68
(lp1679
S':'
asbag61
(g82
g63
NtRp1680
(dp1681
g66
(dp1682
sg75
g1668
sg68
(lp1683
g61
(g62
g63
NtRp1684
(dp1685
g66
(dp1686
g74
I4
ssg75
g1680
sg68
(lp1687
g104
asbasbasbag61
(g77
g63
NtRp1688
(dp1689
g66
(dp1690
sg75
g1517
sg68
(lp1691
g61
(g82
g63
NtRp1692
(dp1693
g66
(dp1694
g86
g87
ssg75
g1688
sg68
(lp1695
g843
asbag61
(g82
g63
NtRp1696
(dp1697
g66
(dp1698
g93
g94
ssg75
g1688
sg68
(lp1699
S':'
asbag61
(g82
g63
NtRp1700
(dp1701
g66
(dp1702
sg75
g1688
sg68
(lp1703
g61
(g62
g63
NtRp1704
(dp1705
g66
(dp1706
g74
I4
ssg75
g1700
sg68
(lp1707
g104
asbasbasbag61
(g77
g63
NtRp1708
(dp1709
g66
(dp1710
sg75
g1517
sg68
(lp1711
g61
(g82
g63
NtRp1712
(dp1713
g66
(dp1714
g86
g87
ssg75
g1708
sg68
(lp1715
g1081
asbag61
(g82
g63
NtRp1716
(dp1717
g66
(dp1718
g93
g94
ssg75
g1708
sg68
(lp1719
S':'
asbag61
(g82
g63
NtRp1720
(dp1721
g66
(dp1722
sg75
g1708
sg68
(lp1723
g61
(g62
g63
NtRp1724
(dp1725
g66
(dp1726
g74
I4
ssg75
g1720
sg68
(lp1727
g1094
asbasbasbag61
(g77
g63
NtRp1728
(dp1729
g66
(dp1730
sg75
g1517
sg68
(lp1731
g61
(g82
g63
NtRp1732
(dp1733
g66
(dp1734
g86
g87
ssg75
g1728
sg68
(lp1735
g1124
asbag61
(g82
g63
NtRp1736
(dp1737
g66
(dp1738
g93
g94
ssg75
g1728
sg68
(lp1739
S':'
asbag61
(g82
g63
NtRp1740
(dp1741
g66
(dp1742
sg75
g1728
sg68
(lp1743
g61
(g62
g63
NtRp1744
(dp1745
g66
(dp1746
g74
I4
ssg75
g1740
sg68
(lp1747
g61
(g70
g63
NtRp1748
(dp1749
g66
(dp1750
g74
I3
ssg75
Nsg68
(lp1751
g61
(g77
g63
NtRp1752
(dp1753
g66
(dp1754
sg75
g1748
sg68
(lp1755
g61
(g82
g63
NtRp1756
(dp1757
g66
(dp1758
sg75
g1752
sg68
(lp1759
g61
(g62
g63
NtRp1760
(dp1761
g66
(dp1762
g74
I3
ssg75
g1756
sg68
(lp1763
S'1'
asbasbasbag61
(g77
g63
NtRp1764
(dp1765
g66
(dp1766
sg75
g1748
sg68
(lp1767
g61
(g82
g63
NtRp1768
(dp1769
g66
(dp1770
sg75
g1764
sg68
(lp1771
g61
(g62
g63
NtRp1772
(dp1773
g66
(dp1774
g74
I3
ssg75
g1768
sg68
(lp1775
S'99'
p1776
asbasbasbag61
(g77
g63
NtRp1777
(dp1778
g66
(dp1779
sg75
g1748
sg68
(lp1780
g61
(g82
g63
NtRp1781
(dp1782
g66
(dp1783
sg75
g1777
sg68
(lp1784
g61
(g62
g63
NtRp1785
(dp1786
g66
(dp1787
g74
I3
ssg75
g1781
sg68
(lp1788
S'7'
asbasbasbag61
(g77
g63
NtRp1789
(dp1790
g66
(dp1791
sg75
g1748
sg68
(lp1792
g61
(g82
g63
NtRp1793
(dp1794
g66
(dp1795
sg75
g1789
sg68
(lp1796
g61
(g62
g63
NtRp1797
(dp1798
g66
(dp1799
g74
I3
ssg75
g1793
sg68
(lp1800
S'datetime.datetime(2012, 3, 4, 22, 12, 8)'
p1801
asbasbasbag61
(g77
g63
NtRp1802
(dp1803
g66
(dp1804
sg75
g1748
sg68
(lp1805
g61
(g82
g63
NtRp1806
(dp1807
g66
(dp1808
sg75
g1802
sg68
(lp1809
g61
(g62
g63
NtRp1810
(dp1811
g66
(dp1812
g74
I3
ssg75
g1806
sg68
(lp1813
g1203
asbasbasbasbasbasbasbasbasbasbasbag61
(g77
g63
NtRp1814
(dp1815
g66
(dp1816
sg75
g71
sg68
(lp1817
g61
(g82
g63
NtRp1818
(dp1819
g66
(dp1820
g86
g87
ssg75
g1814
sg68
(lp1821
S'is_https'
p1822
asbag61
(g82
g63
NtRp1823
(dp1824
g66
(dp1825
g93
g94
ssg75
g1814
sg68
(lp1826
S':'
asbag61
(g82
g63
NtRp1827
(dp1828
g66
(dp1829
sg75
g1814
sg68
(lp1830
g61
(g62
g63
NtRp1831
(dp1832
g66
(dp1833
g74
I5
ssg75
g1827
sg68
(lp1834
g104
asbasbasbag61
(g77
g63
NtRp1835
(dp1836
g66
(dp1837
sg75
g71
sg68
(lp1838
g61
(g82
g63
NtRp1839
(dp1840
g66
(dp1841
g86
g87
ssg75
g1835
sg68
(lp1842
S'is_local'
p1843
asbag61
(g82
g63
NtRp1844
(dp1845
g66
(dp1846
g93
g94
ssg75
g1835
sg68
(lp1847
S':'
asbag61
(g82
g63
NtRp1848
(dp1849
g66
(dp1850
sg75
g1835
sg68
(lp1851
g61
(g62
g63
NtRp1852
(dp1853
g66
(dp1854
g74
I5
ssg75
g1848
sg68
(lp1855
g1312
asbasbasbag61
(g77
g63
NtRp1856
(dp1857
g66
(dp1858
sg75
g71
sg68
(lp1859
g61
(g82
g63
NtRp1860
(dp1861
g66
(dp1862
g86
g87
ssg75
g1856
sg68
(lp1863
S'is_restful'
p1864
asbag61
(g82
g63
NtRp1865
(dp1866
g66
(dp1867
g93
g94
ssg75
g1856
sg68
(lp1868
S':'
asbag61
(g82
g63
NtRp1869
(dp1870
g66
(dp1871
sg75
g1856
sg68
(lp1872
g61
(g62
g63
NtRp1873
(dp1874
g66
(dp1875
g74
I5
ssg75
g1869
sg68
(lp1876
g104
asbasbasbag61
(g77
g63
NtRp1877
(dp1878
g66
(dp1879
sg75
g71
sg68
(lp1880
g61
(g82
g63
NtRp1881
(dp1882
g66
(dp1883
g86
g87
ssg75
g1877
sg68
(lp1884
S'now'
p1885
asbag61
(g82
g63
NtRp1886
(dp1887
g66
(dp1888
g93
g94
ssg75
g1877
sg68
(lp1889
S':'
asbag61
(g82
g63
NtRp1890
(dp1891
g66
(dp1892
sg75
g1877
sg68
(lp1893
g61
(g62
g63
NtRp1894
(dp1895
g66
(dp1896
g74
I5
ssg75
g1890
sg68
(lp1897
S'datetime.datetime(2012, 7, 30, 15, 46, 53, 278000)'
p1898
asbasbasbag61
(g77
g63
NtRp1899
(dp1900
g66
(dp1901
sg75
g71
sg68
(lp1902
g61
(g82
g63
NtRp1903
(dp1904
g66
(dp1905
g86
g87
ssg75
g1899
sg68
(lp1906
S'post_vars'
p1907
asbag61
(g82
g63
NtRp1908
(dp1909
g66
(dp1910
g93
g94
ssg75
g1899
sg68
(lp1911
S':'
asbag61
(g82
g63
NtRp1912
(dp1913
g66
(dp1914
sg75
g1899
sg68
(lp1915
g61
(g62
g63
NtRp1916
(dp1917
g66
(dp1918
g74
I5
ssg75
g1912
sg68
(lp1919
g61
(g70
g63
NtRp1920
(dp1921
g66
(dp1922
g74
I4
ssg75
Nsg68
(lp1923
sbasbasbasbag61
(g77
g63
NtRp1924
(dp1925
g66
(dp1926
sg75
g71
sg68
(lp1927
g61
(g82
g63
NtRp1928
(dp1929
g66
(dp1930
g86
g87
ssg75
g1924
sg68
(lp1931
S'url'
p1932
asbag61
(g82
g63
NtRp1933
(dp1934
g66
(dp1935
g93
g94
ssg75
g1924
sg68
(lp1936
S':'
asbag61
(g82
g63
NtRp1937
(dp1938
g66
(dp1939
sg75
g1924
sg68
(lp1940
g61
(g62
g63
NtRp1941
(dp1942
g66
(dp1943
g74
I5
ssg75
g1937
sg68
(lp1944
S'/unioeste_code/default/index'
p1945
asbasbasbag61
(g77
g63
NtRp1946
(dp1947
g66
(dp1948
sg75
g71
sg68
(lp1949
g61
(g82
g63
NtRp1950
(dp1951
g66
(dp1952
g86
g87
ssg75
g1946
sg68
(lp1953
S'utcnow'
p1954
asbag61
(g82
g63
NtRp1955
(dp1956
g66
(dp1957
g93
g94
ssg75
g1946
sg68
(lp1958
S':'
asbag61
(g82
g63
NtRp1959
(dp1960
g66
(dp1961
sg75
g1946
sg68
(lp1962
g61
(g62
g63
NtRp1963
(dp1964
g66
(dp1965
g74
I5
ssg75
g1959
sg68
(lp1966
S'datetime.datetime(2012, 7, 30, 18, 46, 53, 278000)'
p1967
asbasbasbag61
(g77
g63
NtRp1968
(dp1969
g66
(dp1970
sg75
g71
sg68
(lp1971
g61
(g82
g63
NtRp1972
(dp1973
g66
(dp1974
g86
g87
ssg75
g1968
sg68
(lp1975
S'uuid'
p1976
asbag61
(g82
g63
NtRp1977
(dp1978
g66
(dp1979
g93
g94
ssg75
g1968
sg68
(lp1980
S':'
asbag61
(g82
g63
NtRp1981
(dp1982
g66
(dp1983
sg75
g1968
sg68
(lp1984
g61
(g62
g63
NtRp1985
(dp1986
g66
(dp1987
g74
I5
ssg75
g1981
sg68
(lp1988
S'unioeste_code/127.0.0.1.2012-07-30.15-46-53.e369a594-a593-4da2-afbf-56bcb470adf7'
p1989
asbasbasbag61
(g77
g63
NtRp1990
(dp1991
g66
(dp1992
sg75
g71
sg68
(lp1993
g61
(g82
g63
NtRp1994
(dp1995
g66
(dp1996
g86
g87
ssg75
g1990
sg68
(lp1997
S'vars'
p1998
asbag61
(g82
g63
NtRp1999
(dp2000
g66
(dp2001
g93
g94
ssg75
g1990
sg68
(lp2002
S':'
asbag61
(g82
g63
NtRp2003
(dp2004
g66
(dp2005
sg75
g1990
sg68
(lp2006
g61
(g62
g63
NtRp2007
(dp2008
g66
(dp2009
g74
I5
ssg75
g2003
sg68
(lp2010
g61
(g70
g63
NtRp2011
(dp2012
g66
(dp2013
g74
I4
ssg75
Nsg68
(lp2014
sbasbasbasbag61
(g77
g63
NtRp2015
(dp2016
g66
(dp2017
sg75
g71
sg68
(lp2018
g61
(g82
g63
NtRp2019
(dp2020
g66
(dp2021
g86
g87
ssg75
g2015
sg68
(lp2022
S'wsgi'
p2023
asbag61
(g82
g63
NtRp2024
(dp2025
g66
(dp2026
g93
g94
ssg75
g2015
sg68
(lp2027
S':'
asbag61
(g82
g63
NtRp2028
(dp2029
g66
(dp2030
sg75
g2015
sg68
(lp2031
g61
(g62
g63
NtRp2032
(dp2033
g66
(dp2034
g74
I5
ssg75
g2028
sg68
(lp2035
g61
(g70
g63
NtRp2036
(dp2037
g66
(dp2038
g74
I4
ssg75
Nsg68
(lp2039
g61
(g77
g63
NtRp2040
(dp2041
g66
(dp2042
sg75
g2036
sg68
(lp2043
g61
(g82
g63
NtRp2044
(dp2045
g66
(dp2046
g86
g87
ssg75
g2040
sg68
(lp2047
S'environ'
p2048
asbag61
(g82
g63
NtRp2049
(dp2050
g66
(dp2051
g93
g94
ssg75
g2040
sg68
(lp2052
S':'
asbag61
(g82
g63
NtRp2053
(dp2054
g66
(dp2055
sg75
g2040
sg68
(lp2056
g61
(g62
g63
NtRp2057
(dp2058
g66
(dp2059
g74
I4
ssg75
g2053
sg68
(lp2060
g61
(g70
g63
NtRp2061
(dp2062
g66
(dp2063
g74
I3
ssg75
Nsg68
(lp2064
g61
(g77
g63
NtRp2065
(dp2066
g66
(dp2067
sg75
g2061
sg68
(lp2068
g61
(g82
g63
NtRp2069
(dp2070
g66
(dp2071
g86
g87
ssg75
g2065
sg68
(lp2072
S'HTTP_ACCEPT'
p2073
asbag61
(g82
g63
NtRp2074
(dp2075
g66
(dp2076
g93
g94
ssg75
g2065
sg68
(lp2077
S':'
asbag61
(g82
g63
NtRp2078
(dp2079
g66
(dp2080
sg75
g2065
sg68
(lp2081
g61
(g62
g63
NtRp2082
(dp2083
g66
(dp2084
g74
I3
ssg75
g2078
sg68
(lp2085
g616
asbasbasbag61
(g77
g63
NtRp2086
(dp2087
g66
(dp2088
sg75
g2061
sg68
(lp2089
g61
(g82
g63
NtRp2090
(dp2091
g66
(dp2092
g86
g87
ssg75
g2086
sg68
(lp2093
S'HTTP_ACCEPT_CHARSET'
p2094
asbag61
(g82
g63
NtRp2095
(dp2096
g66
(dp2097
g93
g94
ssg75
g2086
sg68
(lp2098
S':'
asbag61
(g82
g63
NtRp2099
(dp2100
g66
(dp2101
sg75
g2086
sg68
(lp2102
g61
(g62
g63
NtRp2103
(dp2104
g66
(dp2105
g74
I3
ssg75
g2099
sg68
(lp2106
g638
asbasbasbag61
(g77
g63
NtRp2107
(dp2108
g66
(dp2109
sg75
g2061
sg68
(lp2110
g61
(g82
g63
NtRp2111
(dp2112
g66
(dp2113
g86
g87
ssg75
g2107
sg68
(lp2114
S'HTTP_ACCEPT_ENCODING'
p2115
asbag61
(g82
g63
NtRp2116
(dp2117
g66
(dp2118
g93
g94
ssg75
g2107
sg68
(lp2119
S':'
asbag61
(g82
g63
NtRp2120
(dp2121
g66
(dp2122
sg75
g2107
sg68
(lp2123
g61
(g62
g63
NtRp2124
(dp2125
g66
(dp2126
g74
I3
ssg75
g2120
sg68
(lp2127
g660
asbasbasbag61
(g77
g63
NtRp2128
(dp2129
g66
(dp2130
sg75
g2061
sg68
(lp2131
g61
(g82
g63
NtRp2132
(dp2133
g66
(dp2134
g86
g87
ssg75
g2128
sg68
(lp2135
S'HTTP_ACCEPT_LANGUAGE'
p2136
asbag61
(g82
g63
NtRp2137
(dp2138
g66
(dp2139
g93
g94
ssg75
g2128
sg68
(lp2140
S':'
asbag61
(g82
g63
NtRp2141
(dp2142
g66
(dp2143
sg75
g2128
sg68
(lp2144
g61
(g62
g63
NtRp2145
(dp2146
g66
(dp2147
g74
I3
ssg75
g2141
sg68
(lp2148
g682
asbasbasbag61
(g77
g63
NtRp2149
(dp2150
g66
(dp2151
sg75
g2061
sg68
(lp2152
g61
(g82
g63
NtRp2153
(dp2154
g66
(dp2155
g86
g87
ssg75
g2149
sg68
(lp2156
S'HTTP_CACHE_CONTROL'
p2157
asbag61
(g82
g63
NtRp2158
(dp2159
g66
(dp2160
g93
g94
ssg75
g2149
sg68
(lp2161
S':'
asbag61
(g82
g63
NtRp2162
(dp2163
g66
(dp2164
sg75
g2149
sg68
(lp2165
g61
(g62
g63
NtRp2166
(dp2167
g66
(dp2168
g74
I3
ssg75
g2162
sg68
(lp2169
g704
asbasbasbag61
(g77
g63
NtRp2170
(dp2171
g66
(dp2172
sg75
g2061
sg68
(lp2173
g61
(g82
g63
NtRp2174
(dp2175
g66
(dp2176
g86
g87
ssg75
g2170
sg68
(lp2177
S'HTTP_CONNECTION'
p2178
asbag61
(g82
g63
NtRp2179
(dp2180
g66
(dp2181
g93
g94
ssg75
g2170
sg68
(lp2182
S':'
asbag61
(g82
g63
NtRp2183
(dp2184
g66
(dp2185
sg75
g2170
sg68
(lp2186
g61
(g62
g63
NtRp2187
(dp2188
g66
(dp2189
g74
I3
ssg75
g2183
sg68
(lp2190
g726
asbasbasbag61
(g77
g63
NtRp2191
(dp2192
g66
(dp2193
sg75
g2061
sg68
(lp2194
g61
(g82
g63
NtRp2195
(dp2196
g66
(dp2197
g86
g87
ssg75
g2191
sg68
(lp2198
S'HTTP_COOKIE'
p2199
asbag61
(g82
g63
NtRp2200
(dp2201
g66
(dp2202
g93
g94
ssg75
g2191
sg68
(lp2203
S':'
asbag61
(g82
g63
NtRp2204
(dp2205
g66
(dp2206
sg75
g2191
sg68
(lp2207
g61
(g62
g63
NtRp2208
(dp2209
g66
(dp2210
g74
I3
ssg75
g2204
sg68
(lp2211
g748
asbasbasbag61
(g77
g63
NtRp2212
(dp2213
g66
(dp2214
sg75
g2061
sg68
(lp2215
g61
(g82
g63
NtRp2216
(dp2217
g66
(dp2218
g86
g87
ssg75
g2212
sg68
(lp2219
S'HTTP_DNT'
p2220
asbag61
(g82
g63
NtRp2221
(dp2222
g66
(dp2223
g93
g94
ssg75
g2212
sg68
(lp2224
S':'
asbag61
(g82
g63
NtRp2225
(dp2226
g66
(dp2227
sg75
g2212
sg68
(lp2228
g61
(g62
g63
NtRp2229
(dp2230
g66
(dp2231
g74
I3
ssg75
g2225
sg68
(lp2232
S'1'
asbasbasbag61
(g77
g63
NtRp2233
(dp2234
g66
(dp2235
sg75
g2061
sg68
(lp2236
g61
(g82
g63
NtRp2237
(dp2238
g66
(dp2239
g86
g87
ssg75
g2233
sg68
(lp2240
S'HTTP_HOST'
p2241
asbag61
(g82
g63
NtRp2242
(dp2243
g66
(dp2244
g93
g94
ssg75
g2233
sg68
(lp2245
S':'
asbag61
(g82
g63
NtRp2246
(dp2247
g66
(dp2248
sg75
g2233
sg68
(lp2249
g61
(g62
g63
NtRp2250
(dp2251
g66
(dp2252
g74
I3
ssg75
g2246
sg68
(lp2253
g791
asbasbasbag61
(g77
g63
NtRp2254
(dp2255
g66
(dp2256
sg75
g2061
sg68
(lp2257
g61
(g82
g63
NtRp2258
(dp2259
g66
(dp2260
g86
g87
ssg75
g2254
sg68
(lp2261
S'HTTP_USER_AGENT'
p2262
asbag61
(g82
g63
NtRp2263
(dp2264
g66
(dp2265
g93
g94
ssg75
g2254
sg68
(lp2266
S':'
asbag61
(g82
g63
NtRp2267
(dp2268
g66
(dp2269
sg75
g2254
sg68
(lp2270
g61
(g62
g63
NtRp2271
(dp2272
g66
(dp2273
g74
I3
ssg75
g2267
sg68
(lp2274
g813
asbasbasbag61
(g77
g63
NtRp2275
(dp2276
g66
(dp2277
sg75
g2061
sg68
(lp2278
g61
(g82
g63
NtRp2279
(dp2280
g66
(dp2281
g86
g87
ssg75
g2275
sg68
(lp2282
S'PATH_INFO'
p2283
asbag61
(g82
g63
NtRp2284
(dp2285
g66
(dp2286
g93
g94
ssg75
g2275
sg68
(lp2287
S':'
asbag61
(g82
g63
NtRp2288
(dp2289
g66
(dp2290
sg75
g2275
sg68
(lp2291
g61
(g62
g63
NtRp2292
(dp2293
g66
(dp2294
g74
I3
ssg75
g2288
sg68
(lp2295
g877
asbasbasbag61
(g77
g63
NtRp2296
(dp2297
g66
(dp2298
sg75
g2061
sg68
(lp2299
g61
(g82
g63
NtRp2300
(dp2301
g66
(dp2302
g86
g87
ssg75
g2296
sg68
(lp2303
S'QUERY_STRING'
p2304
asbag61
(g82
g63
NtRp2305
(dp2306
g66
(dp2307
g93
g94
ssg75
g2296
sg68
(lp2308
S':'
asbag61
(g82
g63
NtRp2309
(dp2310
g66
(dp2311
sg75
g2296
sg68
(lp2312
g61
(g62
g63
NtRp2313
(dp2314
g66
(dp2315
g74
I3
ssg75
g2309
sg68
(lp2316
S''
asbasbasbag61
(g77
g63
NtRp2317
(dp2318
g66
(dp2319
sg75
g2061
sg68
(lp2320
g61
(g82
g63
NtRp2321
(dp2322
g66
(dp2323
g86
g87
ssg75
g2317
sg68
(lp2324
S'REMOTE_ADDR'
p2325
asbag61
(g82
g63
NtRp2326
(dp2327
g66
(dp2328
g93
g94
ssg75
g2317
sg68
(lp2329
S':'
asbag61
(g82
g63
NtRp2330
(dp2331
g66
(dp2332
sg75
g2317
sg68
(lp2333
g61
(g62
g63
NtRp2334
(dp2335
g66
(dp2336
g74
I3
ssg75
g2330
sg68
(lp2337
g194
asbasbasbag61
(g77
g63
NtRp2338
(dp2339
g66
(dp2340
sg75
g2061
sg68
(lp2341
g61
(g82
g63
NtRp2342
(dp2343
g66
(dp2344
g86
g87
ssg75
g2338
sg68
(lp2345
S'REMOTE_PORT'
p2346
asbag61
(g82
g63
NtRp2347
(dp2348
g66
(dp2349
g93
g94
ssg75
g2338
sg68
(lp2350
S':'
asbag61
(g82
g63
NtRp2351
(dp2352
g66
(dp2353
sg75
g2338
sg68
(lp2354
g61
(g62
g63
NtRp2355
(dp2356
g66
(dp2357
g74
I3
ssg75
g2351
sg68
(lp2358
g941
asbasbasbag61
(g77
g63
NtRp2359
(dp2360
g66
(dp2361
sg75
g2061
sg68
(lp2362
g61
(g82
g63
NtRp2363
(dp2364
g66
(dp2365
g86
g87
ssg75
g2359
sg68
(lp2366
S'REQUEST_METHOD'
p2367
asbag61
(g82
g63
NtRp2368
(dp2369
g66
(dp2370
g93
g94
ssg75
g2359
sg68
(lp2371
S':'
asbag61
(g82
g63
NtRp2372
(dp2373
g66
(dp2374
sg75
g2359
sg68
(lp2375
g61
(g62
g63
NtRp2376
(dp2377
g66
(dp2378
g74
I3
ssg75
g2372
sg68
(lp2379
g963
asbasbasbag61
(g77
g63
NtRp2380
(dp2381
g66
(dp2382
sg75
g2061
sg68
(lp2383
g61
(g82
g63
NtRp2384
(dp2385
g66
(dp2386
g86
g87
ssg75
g2380
sg68
(lp2387
S'SCRIPT_NAME'
p2388
asbag61
(g82
g63
NtRp2389
(dp2390
g66
(dp2391
g93
g94
ssg75
g2380
sg68
(lp2392
S':'
asbag61
(g82
g63
NtRp2393
(dp2394
g66
(dp2395
sg75
g2380
sg68
(lp2396
g61
(g62
g63
NtRp2397
(dp2398
g66
(dp2399
g74
I3
ssg75
g2393
sg68
(lp2400
S''
asbasbasbag61
(g77
g63
NtRp2401
(dp2402
g66
(dp2403
sg75
g2061
sg68
(lp2404
g61
(g82
g63
NtRp2405
(dp2406
g66
(dp2407
g86
g87
ssg75
g2401
sg68
(lp2408
S'SERVER_NAME'
p2409
asbag61
(g82
g63
NtRp2410
(dp2411
g66
(dp2412
g93
g94
ssg75
g2401
sg68
(lp2413
S':'
asbag61
(g82
g63
NtRp2414
(dp2415
g66
(dp2416
sg75
g2401
sg68
(lp2417
g61
(g62
g63
NtRp2418
(dp2419
g66
(dp2420
g74
I3
ssg75
g2414
sg68
(lp2421
g1006
asbasbasbag61
(g77
g63
NtRp2422
(dp2423
g66
(dp2424
sg75
g2061
sg68
(lp2425
g61
(g82
g63
NtRp2426
(dp2427
g66
(dp2428
g86
g87
ssg75
g2422
sg68
(lp2429
S'SERVER_PORT'
p2430
asbag61
(g82
g63
NtRp2431
(dp2432
g66
(dp2433
g93
g94
ssg75
g2422
sg68
(lp2434
S':'
asbag61
(g82
g63
NtRp2435
(dp2436
g66
(dp2437
sg75
g2422
sg68
(lp2438
g61
(g62
g63
NtRp2439
(dp2440
g66
(dp2441
g74
I3
ssg75
g2435
sg68
(lp2442
g1028
asbasbasbag61
(g77
g63
NtRp2443
(dp2444
g66
(dp2445
sg75
g2061
sg68
(lp2446
g61
(g82
g63
NtRp2447
(dp2448
g66
(dp2449
g86
g87
ssg75
g2443
sg68
(lp2450
S'SERVER_PROTOCOL'
p2451
asbag61
(g82
g63
NtRp2452
(dp2453
g66
(dp2454
g93
g94
ssg75
g2443
sg68
(lp2455
S':'
asbag61
(g82
g63
NtRp2456
(dp2457
g66
(dp2458
sg75
g2443
sg68
(lp2459
g61
(g62
g63
NtRp2460
(dp2461
g66
(dp2462
g74
I3
ssg75
g2456
sg68
(lp2463
g1050
asbasbasbag61
(g77
g63
NtRp2464
(dp2465
g66
(dp2466
sg75
g2061
sg68
(lp2467
g61
(g82
g63
NtRp2468
(dp2469
g66
(dp2470
g86
g87
ssg75
g2464
sg68
(lp2471
S'SERVER_SOFTWARE'
p2472
asbag61
(g82
g63
NtRp2473
(dp2474
g66
(dp2475
g93
g94
ssg75
g2464
sg68
(lp2476
S':'
asbag61
(g82
g63
NtRp2477
(dp2478
g66
(dp2479
sg75
g2464
sg68
(lp2480
g61
(g62
g63
NtRp2481
(dp2482
g66
(dp2483
g74
I3
ssg75
g2477
sg68
(lp2484
g1072
asbasbasbag61
(g77
g63
NtRp2485
(dp2486
g66
(dp2487
sg75
g2061
sg68
(lp2488
g61
(g82
g63
NtRp2489
(dp2490
g66
(dp2491
g86
g87
ssg75
g2485
sg68
(lp2492
S'wsgi.errors'
p2493
asbag61
(g82
g63
NtRp2494
(dp2495
g66
(dp2496
g93
g94
ssg75
g2485
sg68
(lp2497
S':'
asbag61
(g82
g63
NtRp2498
(dp2499
g66
(dp2500
sg75
g2485
sg68
(lp2501
g61
(g62
g63
NtRp2502
(dp2503
g66
(dp2504
g74
I3
ssg75
g2498
sg68
(lp2505
S'<__main__.Stderr object at 0x00486670>'
p2506
asbasbasbag61
(g77
g63
NtRp2507
(dp2508
g66
(dp2509
sg75
g2061
sg68
(lp2510
g61
(g82
g63
NtRp2511
(dp2512
g66
(dp2513
g86
g87
ssg75
g2507
sg68
(lp2514
S'wsgi.file_wrapper'
p2515
asbag61
(g82
g63
NtRp2516
(dp2517
g66
(dp2518
g93
g94
ssg75
g2507
sg68
(lp2519
S':'
asbag61
(g82
g63
NtRp2520
(dp2521
g66
(dp2522
sg75
g2507
sg68
(lp2523
g61
(g62
g63
NtRp2524
(dp2525
g66
(dp2526
g74
I3
ssg75
g2520
sg68
(lp2527
S'<class wsgiref.util.FileWrapper at 0x02EEDE10>'
p2528
asbasbasbag61
(g77
g63
NtRp2529
(dp2530
g66
(dp2531
sg75
g2061
sg68
(lp2532
g61
(g82
g63
NtRp2533
(dp2534
g66
(dp2535
g86
g87
ssg75
g2529
sg68
(lp2536
S'wsgi.input'
p2537
asbag61
(g82
g63
NtRp2538
(dp2539
g66
(dp2540
g93
g94
ssg75
g2529
sg68
(lp2541
S':'
asbag61
(g82
g63
NtRp2542
(dp2543
g66
(dp2544
sg75
g2529
sg68
(lp2545
g61
(g62
g63
NtRp2546
(dp2547
g66
(dp2548
g74
I3
ssg75
g2542
sg68
(lp2549
S'<cStringIO.StringO object at 0x06B3F760>'
p2550
asbasbasbag61
(g77
g63
NtRp2551
(dp2552
g66
(dp2553
sg75
g2061
sg68
(lp2554
g61
(g82
g63
NtRp2555
(dp2556
g66
(dp2557
g86
g87
ssg75
g2551
sg68
(lp2558
S'wsgi.multiprocess'
p2559
asbag61
(g82
g63
NtRp2560
(dp2561
g66
(dp2562
g93
g94
ssg75
g2551
sg68
(lp2563
S':'
asbag61
(g82
g63
NtRp2564
(dp2565
g66
(dp2566
sg75
g2551
sg68
(lp2567
g61
(g62
g63
NtRp2568
(dp2569
g66
(dp2570
g74
I3
ssg75
g2564
sg68
(lp2571
g104
asbasbasbag61
(g77
g63
NtRp2572
(dp2573
g66
(dp2574
sg75
g2061
sg68
(lp2575
g61
(g82
g63
NtRp2576
(dp2577
g66
(dp2578
g86
g87
ssg75
g2572
sg68
(lp2579
S'wsgi.multithread'
p2580
asbag61
(g82
g63
NtRp2581
(dp2582
g66
(dp2583
g93
g94
ssg75
g2572
sg68
(lp2584
S':'
asbag61
(g82
g63
NtRp2585
(dp2586
g66
(dp2587
sg75
g2572
sg68
(lp2588
g61
(g62
g63
NtRp2589
(dp2590
g66
(dp2591
g74
I3
ssg75
g2585
sg68
(lp2592
g1312
asbasbasbag61
(g77
g63
NtRp2593
(dp2594
g66
(dp2595
sg75
g2061
sg68
(lp2596
g61
(g82
g63
NtRp2597
(dp2598
g66
(dp2599
g86
g87
ssg75
g2593
sg68
(lp2600
S'wsgi.run_once'
p2601
asbag61
(g82
g63
NtRp2602
(dp2603
g66
(dp2604
g93
g94
ssg75
g2593
sg68
(lp2605
S':'
asbag61
(g82
g63
NtRp2606
(dp2607
g66
(dp2608
sg75
g2593
sg68
(lp2609
g61
(g62
g63
NtRp2610
(dp2611
g66
(dp2612
g74
I3
ssg75
g2606
sg68
(lp2613
g104
asbasbasbag61
(g77
g63
NtRp2614
(dp2615
g66
(dp2616
sg75
g2061
sg68
(lp2617
g61
(g82
g63
NtRp2618
(dp2619
g66
(dp2620
g86
g87
ssg75
g2614
sg68
(lp2621
S'wsgi.url_scheme'
p2622
asbag61
(g82
g63
NtRp2623
(dp2624
g66
(dp2625
g93
g94
ssg75
g2614
sg68
(lp2626
S':'
asbag61
(g82
g63
NtRp2627
(dp2628
g66
(dp2629
sg75
g2614
sg68
(lp2630
g61
(g62
g63
NtRp2631
(dp2632
g66
(dp2633
g74
I3
ssg75
g2627
sg68
(lp2634
g1355
asbasbasbag61
(g77
g63
NtRp2635
(dp2636
g66
(dp2637
sg75
g2061
sg68
(lp2638
g61
(g82
g63
NtRp2639
(dp2640
g66
(dp2641
g86
g87
ssg75
g2635
sg68
(lp2642
S'wsgi.version'
p2643
asbag61
(g82
g63
NtRp2644
(dp2645
g66
(dp2646
g93
g94
ssg75
g2635
sg68
(lp2647
S':'
asbag61
(g82
g63
NtRp2648
(dp2649
g66
(dp2650
sg75
g2635
sg68
(lp2651
g61
(g62
g63
NtRp2652
(dp2653
g66
(dp2654
g74
I3
ssg75
g2648
sg68
(lp2655
S'1'
asbasbasbasbasbasbasbasbasbasbasbasbasbsS'frames'
p2656
(lp2657
(dp2658
S'file'
p2659
S'C:\\web2py\\gluon\\restricted.py'
p2660
sS'dump'
p2661
(dp2662
sS'lnum'
p2663
I204
sS'lines'
p2664
(dp2665
sS'call'
p2666
S'(code=r"response.write(\'<!DOCTYPE html>\\n<!-- paulirish....ponse.write(\'\\n</body>\\n</html>\\n\', escape=False)", environment={\'A\': <class \'gluon.html.A\'>, \'Auth\': <class \'gluon.tools.Auth\'>, \'B\': <class \'gluon.html.B\'>, \'BEAUTIFY\': <class \'gluon.html.BEAUTIFY\'>, \'BODY\': <class \'gluon.html.BODY\'>, \'BR\': <class \'gluon.html.BR\'>, \'BUTTON\': <class \'gluon.html.BUTTON\'>, \'CAT\': <class \'gluon.html.CAT\'>, \'CENTER\': <class \'gluon.html.CENTER\'>, \'CLEANUP\': <class \'gluon.validators.CLEANUP\'>, ...}, layer=r\'C:\\web2py\\applications\\unioeste_code\\views\\default/index.html\')'
p2667
sS'func'
p2668
S'restricted'
p2669
sa(dp2670
g2659
S'C:\\web2py\\gluon\\restricted.py'
p2671
sg2661
(dp2672
sg2663
I189
sg2664
(dp2673
sg2666
S'(code=r"response.write(\'<!DOCTYPE html>\\n<!-- paulirish....ponse.write(\'\\n</body>\\n</html>\\n\', escape=False)", layer=r\'C:\\web2py\\applications\\unioeste_code\\views\\default/index.html\')'
p2674
sg2668
S'compile2'
p2675
sasS'pyver'
p2676
S'Python 2.5.4: C:\\web2py\\web2py_no_console.exe'
p2677
sS'session'
p2678
g61
(g62
g63
NtRp2679
(dp2680
g66
(dp2681
sg68
(lp2682
g61
(g70
g63
NtRp2683
(dp2684
g66
(dp2685
g74
I5
ssg75
Nsg68
(lp2686
sbasbsS'etype'
p2687
S"<type 'exceptions.SyntaxError'>"
p2688
sS'date'
p2689
S'Mon Jul 30 15:46:53 2012'
p2690
sS'response'
p2691
g61
(g62
g63
NtRp2692
(dp2693
g66
(dp2694
sg68
(lp2695
g61
(g70
g63
NtRp2696
(dp2697
g66
(dp2698
g74
I5
ssg75
Nsg68
(lp2699
g61
(g77
g63
NtRp2700
(dp2701
g66
(dp2702
sg75
g2696
sg68
(lp2703
g61
(g82
g63
NtRp2704
(dp2705
g66
(dp2706
g86
g87
ssg75
g2700
sg68
(lp2707
g159
asbag61
(g82
g63
NtRp2708
(dp2709
g66
(dp2710
g93
g94
ssg75
g2700
sg68
(lp2711
S':'
asbag61
(g82
g63
NtRp2712
(dp2713
g66
(dp2714
sg75
g2700
sg68
(lp2715
g61
(g62
g63
NtRp2716
(dp2717
g66
(dp2718
g74
I5
ssg75
g2712
sg68
(lp2719
S'<cStringIO.StringO object at 0x06B3F680>'
p2720
asbasbasbag61
(g77
g63
NtRp2721
(dp2722
g66
(dp2723
sg75
g2696
sg68
(lp2724
g61
(g82
g63
NtRp2725
(dp2726
g66
(dp2727
g86
g87
ssg75
g2721
sg68
(lp2728
g225
asbag61
(g82
g63
NtRp2729
(dp2730
g66
(dp2731
g93
g94
ssg75
g2721
sg68
(lp2732
S':'
asbag61
(g82
g63
NtRp2733
(dp2734
g66
(dp2735
sg75
g2721
sg68
(lp2736
g61
(g62
g63
NtRp2737
(dp2738
g66
(dp2739
g74
I5
ssg75
g2733
sg68
(lp2740
g61
(g70
g63
NtRp2741
(dp2742
g66
(dp2743
g74
I4
ssg75
Nsg68
(lp2744
g61
(g77
g63
NtRp2745
(dp2746
g66
(dp2747
sg75
g2741
sg68
(lp2748
g61
(g82
g63
NtRp2749
(dp2750
g66
(dp2751
g86
g87
ssg75
g2745
sg68
(lp2752
S'session_id_unioeste_code'
p2753
asbag61
(g82
g63
NtRp2754
(dp2755
g66
(dp2756
g93
g94
ssg75
g2745
sg68
(lp2757
S':'
asbag61
(g82
g63
NtRp2758
(dp2759
g66
(dp2760
sg75
g2745
sg68
(lp2761
g61
(g62
g63
NtRp2762
(dp2763
g66
(dp2764
g74
I4
ssg75
g2758
sg68
(lp2765
g61
(g70
g63
NtRp2766
(dp2767
g66
(dp2768
g74
I3
ssg75
Nsg68
(lp2769
g61
(g77
g63
NtRp2770
(dp2771
g66
(dp2772
sg75
g2766
sg68
(lp2773
g61
(g82
g63
NtRp2774
(dp2775
g66
(dp2776
g86
g87
ssg75
g2770
sg68
(lp2777
g275
asbag61
(g82
g63
NtRp2778
(dp2779
g66
(dp2780
g93
g94
ssg75
g2770
sg68
(lp2781
S':'
asbag61
(g82
g63
NtRp2782
(dp2783
g66
(dp2784
sg75
g2770
sg68
(lp2785
g61
(g62
g63
NtRp2786
(dp2787
g66
(dp2788
g74
I3
ssg75
g2782
sg68
(lp2789
S''
asbasbasbag61
(g77
g63
NtRp2790
(dp2791
g66
(dp2792
sg75
g2766
sg68
(lp2793
g61
(g82
g63
NtRp2794
(dp2795
g66
(dp2796
g86
g87
ssg75
g2790
sg68
(lp2797
g296
asbag61
(g82
g63
NtRp2798
(dp2799
g66
(dp2800
g93
g94
ssg75
g2790
sg68
(lp2801
S':'
asbag61
(g82
g63
NtRp2802
(dp2803
g66
(dp2804
sg75
g2790
sg68
(lp2805
g61
(g62
g63
NtRp2806
(dp2807
g66
(dp2808
g74
I3
ssg75
g2802
sg68
(lp2809
S''
asbasbasbag61
(g77
g63
NtRp2810
(dp2811
g66
(dp2812
sg75
g2766
sg68
(lp2813
g61
(g82
g63
NtRp2814
(dp2815
g66
(dp2816
g86
g87
ssg75
g2810
sg68
(lp2817
g317
asbag61
(g82
g63
NtRp2818
(dp2819
g66
(dp2820
g93
g94
ssg75
g2810
sg68
(lp2821
S':'
asbag61
(g82
g63
NtRp2822
(dp2823
g66
(dp2824
sg75
g2810
sg68
(lp2825
g61
(g62
g63
NtRp2826
(dp2827
g66
(dp2828
g74
I3
ssg75
g2822
sg68
(lp2829
S''
asbasbasbag61
(g77
g63
NtRp2830
(dp2831
g66
(dp2832
sg75
g2766
sg68
(lp2833
g61
(g82
g63
NtRp2834
(dp2835
g66
(dp2836
g86
g87
ssg75
g2830
sg68
(lp2837
g338
asbag61
(g82
g63
NtRp2838
(dp2839
g66
(dp2840
g93
g94
ssg75
g2830
sg68
(lp2841
S':'
asbag61
(g82
g63
NtRp2842
(dp2843
g66
(dp2844
sg75
g2830
sg68
(lp2845
g61
(g62
g63
NtRp2846
(dp2847
g66
(dp2848
g74
I3
ssg75
g2842
sg68
(lp2849
S''
asbasbasbag61
(g77
g63
NtRp2850
(dp2851
g66
(dp2852
sg75
g2766
sg68
(lp2853
g61
(g82
g63
NtRp2854
(dp2855
g66
(dp2856
g86
g87
ssg75
g2850
sg68
(lp2857
g359
asbag61
(g82
g63
NtRp2858
(dp2859
g66
(dp2860
g93
g94
ssg75
g2850
sg68
(lp2861
S':'
asbag61
(g82
g63
NtRp2862
(dp2863
g66
(dp2864
sg75
g2850
sg68
(lp2865
g61
(g62
g63
NtRp2866
(dp2867
g66
(dp2868
g74
I3
ssg75
g2862
sg68
(lp2869
S'/'
asbasbasbag61
(g77
g63
NtRp2870
(dp2871
g66
(dp2872
sg75
g2766
sg68
(lp2873
g61
(g82
g63
NtRp2874
(dp2875
g66
(dp2876
g86
g87
ssg75
g2870
sg68
(lp2877
g380
asbag61
(g82
g63
NtRp2878
(dp2879
g66
(dp2880
g93
g94
ssg75
g2870
sg68
(lp2881
S':'
asbag61
(g82
g63
NtRp2882
(dp2883
g66
(dp2884
sg75
g2870
sg68
(lp2885
g61
(g62
g63
NtRp2886
(dp2887
g66
(dp2888
g74
I3
ssg75
g2882
sg68
(lp2889
S''
asbasbasbag61
(g77
g63
NtRp2890
(dp2891
g66
(dp2892
sg75
g2766
sg68
(lp2893
g61
(g82
g63
NtRp2894
(dp2895
g66
(dp2896
g86
g87
ssg75
g2890
sg68
(lp2897
g401
asbag61
(g82
g63
NtRp2898
(dp2899
g66
(dp2900
g93
g94
ssg75
g2890
sg68
(lp2901
S':'
asbag61
(g82
g63
NtRp2902
(dp2903
g66
(dp2904
sg75
g2890
sg68
(lp2905
g61
(g62
g63
NtRp2906
(dp2907
g66
(dp2908
g74
I3
ssg75
g2902
sg68
(lp2909
S''
asbasbasbasbasbasbasbasbasbasbasbag61
(g77
g63
NtRp2910
(dp2911
g66
(dp2912
sg75
g2696
sg68
(lp2913
g61
(g82
g63
NtRp2914
(dp2915
g66
(dp2916
g86
g87
ssg75
g2910
sg68
(lp2917
S'delimiters'
p2918
asbag61
(g82
g63
NtRp2919
(dp2920
g66
(dp2921
g93
g94
ssg75
g2910
sg68
(lp2922
S':'
asbag61
(g82
g63
NtRp2923
(dp2924
g66
(dp2925
sg75
g2910
sg68
(lp2926
g61
(g62
g63
NtRp2927
(dp2928
g66
(dp2929
g74
I5
ssg75
g2923
sg68
(lp2930
g61
(g70
g63
NtRp2931
(dp2932
g66
(dp2933
g74
I4
ssg75
Nsg68
(lp2934
g61
(g77
g63
NtRp2935
(dp2936
g66
(dp2937
sg75
g2931
sg68
(lp2938
g61
(g82
g63
NtRp2939
(dp2940
g66
(dp2941
sg75
g2935
sg68
(lp2942
g61
(g62
g63
NtRp2943
(dp2944
g66
(dp2945
g74
I4
ssg75
g2939
sg68
(lp2946
S'{{'
p2947
asbasbasbag61
(g77
g63
NtRp2948
(dp2949
g66
(dp2950
sg75
g2931
sg68
(lp2951
g61
(g82
g63
NtRp2952
(dp2953
g66
(dp2954
sg75
g2948
sg68
(lp2955
g61
(g62
g63
NtRp2956
(dp2957
g66
(dp2958
g74
I4
ssg75
g2952
sg68
(lp2959
S'}}'
p2960
asbasbasbasbasbasbasbag61
(g77
g63
NtRp2961
(dp2962
g66
(dp2963
sg75
g2696
sg68
(lp2964
g61
(g82
g63
NtRp2965
(dp2966
g66
(dp2967
g86
g87
ssg75
g2961
sg68
(lp2968
S'files'
p2969
asbag61
(g82
g63
NtRp2970
(dp2971
g66
(dp2972
g93
g94
ssg75
g2961
sg68
(lp2973
S':'
asbag61
(g82
g63
NtRp2974
(dp2975
g66
(dp2976
sg75
g2961
sg68
(lp2977
g61
(g62
g63
NtRp2978
(dp2979
g66
(dp2980
g74
I5
ssg75
g2974
sg68
(lp2981
g61
(g70
g63
NtRp2982
(dp2983
g66
(dp2984
g74
I4
ssg75
Nsg68
(lp2985
sbasbasbasbag61
(g77
g63
NtRp2986
(dp2987
g66
(dp2988
sg75
g2696
sg68
(lp2989
g61
(g82
g63
NtRp2990
(dp2991
g66
(dp2992
g86
g87
ssg75
g2986
sg68
(lp2993
S'flash'
p2994
asbag61
(g82
g63
NtRp2995
(dp2996
g66
(dp2997
g93
g94
ssg75
g2986
sg68
(lp2998
S':'
asbag61
(g82
g63
NtRp2999
(dp3000
g66
(dp3001
sg75
g2986
sg68
(lp3002
g61
(g62
g63
NtRp3003
(dp3004
g66
(dp3005
g74
I5
ssg75
g2999
sg68
(lp3006
S''
asbasbasbag61
(g77
g63
NtRp3007
(dp3008
g66
(dp3009
sg75
g2696
sg68
(lp3010
g61
(g82
g63
NtRp3011
(dp3012
g66
(dp3013
g86
g87
ssg75
g3007
sg68
(lp3014
S'generic_patterns'
p3015
asbag61
(g82
g63
NtRp3016
(dp3017
g66
(dp3018
g93
g94
ssg75
g3007
sg68
(lp3019
S':'
asbag61
(g82
g63
NtRp3020
(dp3021
g66
(dp3022
sg75
g3007
sg68
(lp3023
g61
(g62
g63
NtRp3024
(dp3025
g66
(dp3026
g74
I5
ssg75
g3020
sg68
(lp3027
g61
(g70
g63
NtRp3028
(dp3029
g66
(dp3030
g74
I4
ssg75
Nsg68
(lp3031
sbasbasbasbag61
(g77
g63
NtRp3032
(dp3033
g66
(dp3034
sg75
g2696
sg68
(lp3035
g61
(g82
g63
NtRp3036
(dp3037
g66
(dp3038
g86
g87
ssg75
g3032
sg68
(lp3039
S'headers'
p3040
asbag61
(g82
g63
NtRp3041
(dp3042
g66
(dp3043
g93
g94
ssg75
g3032
sg68
(lp3044
S':'
asbag61
(g82
g63
NtRp3045
(dp3046
g66
(dp3047
sg75
g3032
sg68
(lp3048
g61
(g62
g63
NtRp3049
(dp3050
g66
(dp3051
g74
I5
ssg75
g3045
sg68
(lp3052
g61
(g70
g63
NtRp3053
(dp3054
g66
(dp3055
g74
I4
ssg75
Nsg68
(lp3056
g61
(g77
g63
NtRp3057
(dp3058
g66
(dp3059
sg75
g3053
sg68
(lp3060
g61
(g82
g63
NtRp3061
(dp3062
g66
(dp3063
g86
g87
ssg75
g3057
sg68
(lp3064
S'Cache-Control'
p3065
asbag61
(g82
g63
NtRp3066
(dp3067
g66
(dp3068
g93
g94
ssg75
g3057
sg68
(lp3069
S':'
asbag61
(g82
g63
NtRp3070
(dp3071
g66
(dp3072
sg75
g3057
sg68
(lp3073
g61
(g62
g63
NtRp3074
(dp3075
g66
(dp3076
g74
I4
ssg75
g3070
sg68
(lp3077
S'no-store, no-cache, must-revalidate, post-check=0, pre-check=0'
p3078
asbasbasbag61
(g77
g63
NtRp3079
(dp3080
g66
(dp3081
sg75
g3053
sg68
(lp3082
g61
(g82
g63
NtRp3083
(dp3084
g66
(dp3085
g86
g87
ssg75
g3079
sg68
(lp3086
S'Content-Type'
p3087
asbag61
(g82
g63
NtRp3088
(dp3089
g66
(dp3090
g93
g94
ssg75
g3079
sg68
(lp3091
S':'
asbag61
(g82
g63
NtRp3092
(dp3093
g66
(dp3094
sg75
g3079
sg68
(lp3095
g61
(g62
g63
NtRp3096
(dp3097
g66
(dp3098
g74
I4
ssg75
g3092
sg68
(lp3099
S'text/html; charset=utf-8'
p3100
asbasbasbag61
(g77
g63
NtRp3101
(dp3102
g66
(dp3103
sg75
g3053
sg68
(lp3104
g61
(g82
g63
NtRp3105
(dp3106
g66
(dp3107
g86
g87
ssg75
g3101
sg68
(lp3108
S'Expires'
p3109
asbag61
(g82
g63
NtRp3110
(dp3111
g66
(dp3112
g93
g94
ssg75
g3101
sg68
(lp3113
S':'
asbag61
(g82
g63
NtRp3114
(dp3115
g66
(dp3116
sg75
g3101
sg68
(lp3117
g61
(g62
g63
NtRp3118
(dp3119
g66
(dp3120
g74
I4
ssg75
g3114
sg68
(lp3121
S'Mon, 30 Jul 2012 18:46:53 GMT'
p3122
asbasbasbag61
(g77
g63
NtRp3123
(dp3124
g66
(dp3125
sg75
g3053
sg68
(lp3126
g61
(g82
g63
NtRp3127
(dp3128
g66
(dp3129
g86
g87
ssg75
g3123
sg68
(lp3130
S'Pragma'
p3131
asbag61
(g82
g63
NtRp3132
(dp3133
g66
(dp3134
g93
g94
ssg75
g3123
sg68
(lp3135
S':'
asbag61
(g82
g63
NtRp3136
(dp3137
g66
(dp3138
sg75
g3123
sg68
(lp3139
g61
(g62
g63
NtRp3140
(dp3141
g66
(dp3142
g74
I4
ssg75
g3136
sg68
(lp3143
S'no-cache'
p3144
asbasbasbag61
(g77
g63
NtRp3145
(dp3146
g66
(dp3147
sg75
g3053
sg68
(lp3148
g61
(g82
g63
NtRp3149
(dp3150
g66
(dp3151
g86
g87
ssg75
g3145
sg68
(lp3152
S'X-Powered-By'
p3153
asbag61
(g82
g63
NtRp3154
(dp3155
g66
(dp3156
g93
g94
ssg75
g3145
sg68
(lp3157
S':'
asbag61
(g82
g63
NtRp3158
(dp3159
g66
(dp3160
sg75
g3145
sg68
(lp3161
g61
(g62
g63
NtRp3162
(dp3163
g66
(dp3164
g74
I4
ssg75
g3158
sg68
(lp3165
S'web2py'
p3166
asbasbasbasbasbasbasbag61
(g77
g63
NtRp3167
(dp3168
g66
(dp3169
sg75
g2696
sg68
(lp3170
g61
(g82
g63
NtRp3171
(dp3172
g66
(dp3173
g86
g87
ssg75
g3167
sg68
(lp3174
S'menu'
p3175
asbag61
(g82
g63
NtRp3176
(dp3177
g66
(dp3178
g93
g94
ssg75
g3167
sg68
(lp3179
S':'
asbag61
(g82
g63
NtRp3180
(dp3181
g66
(dp3182
sg75
g3167
sg68
(lp3183
g61
(g62
g63
NtRp3184
(dp3185
g66
(dp3186
g74
I5
ssg75
g3180
sg68
(lp3187
g61
(g70
g63
NtRp3188
(dp3189
g66
(dp3190
g74
I4
ssg75
Nsg68
(lp3191
g61
(g77
g63
NtRp3192
(dp3193
g66
(dp3194
sg75
g3188
sg68
(lp3195
g61
(g82
g63
NtRp3196
(dp3197
g66
(dp3198
sg75
g3192
sg68
(lp3199
g61
(g62
g63
NtRp3200
(dp3201
g66
(dp3202
g74
I4
ssg75
g3196
sg68
(lp3203
g61
(g70
g63
NtRp3204
(dp3205
g66
(dp3206
g74
I3
ssg75
Nsg68
(lp3207
g61
(g77
g63
NtRp3208
(dp3209
g66
(dp3210
sg75
g3204
sg68
(lp3211
g61
(g82
g63
NtRp3212
(dp3213
g66
(dp3214
sg75
g3208
sg68
(lp3215
g61
(g62
g63
NtRp3216
(dp3217
g66
(dp3218
g74
I3
ssg75
g3212
sg68
(lp3219
cgluon.languages
lazyT_unpickle
p3220
(S't\x04\x00\x00\x00Home'
tRp3221
asbasbasbag61
(g77
g63
NtRp3222
(dp3223
g66
(dp3224
sg75
g3204
sg68
(lp3225
g61
(g82
g63
NtRp3226
(dp3227
g66
(dp3228
sg75
g3222
sg68
(lp3229
g61
(g62
g63
NtRp3230
(dp3231
g66
(dp3232
g74
I3
ssg75
g3226
sg68
(lp3233
g104
asbasbasbag61
(g77
g63
NtRp3234
(dp3235
g66
(dp3236
sg75
g3204
sg68
(lp3237
g61
(g82
g63
NtRp3238
(dp3239
g66
(dp3240
sg75
g3234
sg68
(lp3241
g61
(g62
g63
NtRp3242
(dp3243
g66
(dp3244
g74
I3
ssg75
g3238
sg68
(lp3245
S'/unioeste_code/default/index'
p3246
asbasbasbag61
(g77
g63
NtRp3247
(dp3248
g66
(dp3249
sg75
g3204
sg68
(lp3250
g61
(g82
g63
NtRp3251
(dp3252
g66
(dp3253
sg75
g3247
sg68
(lp3254
g61
(g62
g63
NtRp3255
(dp3256
g66
(dp3257
g74
I3
ssg75
g3251
sg68
(lp3258
g61
(g70
g63
NtRp3259
(dp3260
g66
(dp3261
g74
I2
ssg75
Nsg68
(lp3262
sbasbasbasbasbasbasbasbag61
(g77
g63
NtRp3263
(dp3264
g66
(dp3265
sg75
g3188
sg68
(lp3266
g61
(g82
g63
NtRp3267
(dp3268
g66
(dp3269
sg75
g3263
sg68
(lp3270
g61
(g62
g63
NtRp3271
(dp3272
g66
(dp3273
g74
I4
ssg75
g3267
sg68
(lp3274
g61
(g70
g63
NtRp3275
(dp3276
g66
(dp3277
g74
I3
ssg75
Nsg68
(lp3278
g61
(g77
g63
NtRp3279
(dp3280
g66
(dp3281
sg75
g3275
sg68
(lp3282
g61
(g82
g63
NtRp3283
(dp3284
g66
(dp3285
sg75
g3279
sg68
(lp3286
g61
(g62
g63
NtRp3287
(dp3288
g66
(dp3289
g74
I3
ssg75
g3283
sg68
(lp3290
g61
(cgluon.html
SPAN
p3291
g63
NtRp3292
(dp3293
g66
(dp3294
g86
S'color:yellow'
p3295
ssg75
Nsg68
(lp3296
g3166
asbasbasbasbag61
(g77
g63
NtRp3297
(dp3298
g66
(dp3299
sg75
g3275
sg68
(lp3300
g61
(g82
g63
NtRp3301
(dp3302
g66
(dp3303
sg75
g3297
sg68
(lp3304
g61
(g62
g63
NtRp3305
(dp3306
g66
(dp3307
g74
I3
ssg75
g3301
sg68
(lp3308
g104
asbasbasbag61
(g77
g63
NtRp3309
(dp3310
g66
(dp3311
sg75
g3275
sg68
(lp3312
g61
(g82
g63
NtRp3313
(dp3314
g66
(dp3315
sg75
g3309
sg68
(lp3316
g61
(g62
g63
NtRp3317
(dp3318
g66
(dp3319
g74
I3
ssg75
g3313
sg68
(lp3320
S'None'
p3321
asbasbasbag61
(g77
g63
NtRp3322
(dp3323
g66
(dp3324
sg75
g3275
sg68
(lp3325
g61
(g82
g63
NtRp3326
(dp3327
g66
(dp3328
sg75
g3322
sg68
(lp3329
g61
(g62
g63
NtRp3330
(dp3331
g66
(dp3332
g74
I3
ssg75
g3326
sg68
(lp3333
g61
(g70
g63
NtRp3334
(dp3335
g66
(dp3336
g74
I2
ssg75
Nsg68
(lp3337
g61
(g77
g63
NtRp3338
(dp3339
g66
(dp3340
sg75
g3334
sg68
(lp3341
g61
(g82
g63
NtRp3342
(dp3343
g66
(dp3344
sg75
g3338
sg68
(lp3345
g61
(g62
g63
NtRp3346
(dp3347
g66
(dp3348
g74
I2
ssg75
g3342
sg68
(lp3349
g61
(g70
g63
NtRp3350
(dp3351
g66
(dp3352
g74
I1
ssg75
Nsg68
(lp3353
g61
(g77
g63
NtRp3354
(dp3355
g66
(dp3356
sg75
g3350
sg68
(lp3357
g61
(g82
g63
NtRp3358
(dp3359
g66
(dp3360
sg75
g3354
sg68
(lp3361
g61
(g62
g63
NtRp3362
(dp3363
g66
(dp3364
g74
I1
ssg75
g3358
sg68
(lp3365
g3220
(S's\x08\x00\x00\x00My Sites'
tRp3366
asbasbasbag61
(g77
g63
NtRp3367
(dp3368
g66
(dp3369
sg75
g3350
sg68
(lp3370
g61
(g82
g63
NtRp3371
(dp3372
g66
(dp3373
sg75
g3367
sg68
(lp3374
g61
(g62
g63
NtRp3375
(dp3376
g66
(dp3377
g74
I1
ssg75
g3371
sg68
(lp3378
I00
asbasbasbag61
(g77
g63
NtRp3379
(dp3380
g66
(dp3381
sg75
g3350
sg68
(lp3382
g61
(g82
g63
NtRp3383
(dp3384
g66
(dp3385
sg75
g3379
sg68
(lp3386
g61
(g62
g63
NtRp3387
(dp3388
g66
(dp3389
g74
I1
ssg75
g3383
sg68
(lp3390
S'/admin/default/site'
p3391
asbasbasbasbasbasbasbag61
(g77
g63
NtRp3392
(dp3393
g66
(dp3394
sg75
g3334
sg68
(lp3395
g61
(g82
g63
NtRp3396
(dp3397
g66
(dp3398
sg75
g3392
sg68
(lp3399
g61
(g62
g63
NtRp3400
(dp3401
g66
(dp3402
g74
I2
ssg75
g3396
sg68
(lp3403
g61
(g70
g63
NtRp3404
(dp3405
g66
(dp3406
g74
I1
ssg75
Nsg68
(lp3407
g61
(g77
g63
NtRp3408
(dp3409
g66
(dp3410
sg75
g3404
sg68
(lp3411
g61
(g82
g63
NtRp3412
(dp3413
g66
(dp3414
sg75
g3408
sg68
(lp3415
g61
(g62
g63
NtRp3416
(dp3417
g66
(dp3418
g74
I1
ssg75
g3412
sg68
(lp3419
g3220
(S's\x08\x00\x00\x00This App'
tRp3420
asbasbasbag61
(g77
g63
NtRp3421
(dp3422
g66
(dp3423
sg75
g3404
sg68
(lp3424
g61
(g82
g63
NtRp3425
(dp3426
g66
(dp3427
sg75
g3421
sg68
(lp3428
g61
(g62
g63
NtRp3429
(dp3430
g66
(dp3431
g74
I1
ssg75
g3425
sg68
(lp3432
I00
asbasbasbag61
(g77
g63
NtRp3433
(dp3434
g66
(dp3435
sg75
g3404
sg68
(lp3436
g61
(g82
g63
NtRp3437
(dp3438
g66
(dp3439
sg75
g3433
sg68
(lp3440
g61
(g62
g63
NtRp3441
(dp3442
g66
(dp3443
g74
I1
ssg75
g3437
sg68
(lp3444
S'/admin/default/design/unioeste_code'
p3445
asbasbasbag61
(g77
g63
NtRp3446
(dp3447
g66
(dp3448
sg75
g3404
sg68
(lp3449
g61
(g82
g63
NtRp3450
(dp3451
g66
(dp3452
sg75
g3446
sg68
(lp3453
g61
(g62
g63
NtRp3454
(dp3455
g66
(dp3456
g74
I1
ssg75
g3450
sg68
(lp3457
(lp3458
(g3220
(S't\x0b\x00\x00\x00Controlador'
tRp3459
I00
S'/admin/default/edit/unioeste_code/controllers/default.py'
tp3460
a(g3220
(S's\x0e\x00\x00\x00Visualiza\xc3\xa7\xc3\xa3o'
tRp3461
I00
S'/admin/default/edit/unioeste_code/views/default/index.html'
tp3462
a(g3220
(S't\x06\x00\x00\x00Layout'
tRp3463
I00
S'/admin/default/edit/unioeste_code/views/layout.html'
tp3464
a(g3220
(S't\n\x00\x00\x00Stylesheet'
tRp3465
I00
S'/admin/default/edit/unioeste_code/static/css/web2py.css'
tp3466
a(g3220
(S's\t\x00\x00\x00Modelo BD'
tRp3467
I00
S'/admin/default/edit/unioeste_code/models/db.py'
tp3468
a(g3220
(S's\x0e\x00\x00\x00Modelo de Menu'
tRp3469
I00
S'/admin/default/edit/unioeste_code/models/menu.py'
tp3470
a(g3220
(S's\x0e\x00\x00\x00Banco de dados'
tRp3471
I00
S'/unioeste_code/appadmin/index'
tp3472
a(g3220
(S't\x06\x00\x00\x00Errors'
tRp3473
I00
S'/admin/default/errors/unioeste_code'
tp3474
a(g3220
(S't\x05\x00\x00\x00About'
tRp3475
I00
S'/admin/default/about/unioeste_code'
tp3476
aasbasbasbasbasbasbasbag61
(g77
g63
NtRp3477
(dp3478
g66
(dp3479
sg75
g3334
sg68
(lp3480
g61
(g82
g63
NtRp3481
(dp3482
g66
(dp3483
sg75
g3477
sg68
(lp3484
g61
(g62
g63
NtRp3485
(dp3486
g66
(dp3487
g74
I2
ssg75
g3481
sg68
(lp3488
g61
(g70
g63
NtRp3489
(dp3490
g66
(dp3491
g74
I1
ssg75
Nsg68
(lp3492
g61
(g77
g63
NtRp3493
(dp3494
g66
(dp3495
sg75
g3489
sg68
(lp3496
g61
(g82
g63
NtRp3497
(dp3498
g66
(dp3499
sg75
g3493
sg68
(lp3500
g61
(g62
g63
NtRp3501
(dp3502
g66
(dp3503
g74
I1
ssg75
g3497
sg68
(lp3504
S'web2py.com'
p3505
asbasbasbag61
(g77
g63
NtRp3506
(dp3507
g66
(dp3508
sg75
g3489
sg68
(lp3509
g61
(g82
g63
NtRp3510
(dp3511
g66
(dp3512
sg75
g3506
sg68
(lp3513
g61
(g62
g63
NtRp3514
(dp3515
g66
(dp3516
g74
I1
ssg75
g3510
sg68
(lp3517
I00
asbasbasbag61
(g77
g63
NtRp3518
(dp3519
g66
(dp3520
sg75
g3489
sg68
(lp3521
g61
(g82
g63
NtRp3522
(dp3523
g66
(dp3524
sg75
g3518
sg68
(lp3525
g61
(g62
g63
NtRp3526
(dp3527
g66
(dp3528
g74
I1
ssg75
g3522
sg68
(lp3529
S'http://www.web2py.com'
p3530
asbasbasbag61
(g77
g63
NtRp3531
(dp3532
g66
(dp3533
sg75
g3489
sg68
(lp3534
g61
(g82
g63
NtRp3535
(dp3536
g66
(dp3537
sg75
g3531
sg68
(lp3538
g61
(g62
g63
NtRp3539
(dp3540
g66
(dp3541
g74
I1
ssg75
g3535
sg68
(lp3542
(lp3543
(g3220
(S't\x08\x00\x00\x00Download'
tRp3544
I00
S'http://www.web2py.com/examples/default/download'
p3545
tp3546
a(g3220
(S't\x07\x00\x00\x00Support'
tRp3547
I00
S'http://www.web2py.com/examples/default/support'
p3548
tp3549
a(g3220
(S't\x04\x00\x00\x00Demo'
tRp3550
I00
S'http://web2py.com/demo_admin'
p3551
tp3552
a(g3220
(S's\x0e\x00\x00\x00Quick Examples'
tRp3553
I00
S'http://web2py.com/examples/default/examples'
p3554
tp3555
a(g3220
(S't\x03\x00\x00\x00FAQ'
tRp3556
I00
S'http://web2py.com/AlterEgo'
p3557
tp3558
a(g3220
(S't\x06\x00\x00\x00Videos'
tRp3559
I00
S'http://www.web2py.com/examples/default/videos/'
p3560
tp3561
a(g3220
(S's\x11\x00\x00\x00Free Applications'
tRp3562
I00
S'http://web2py.com/appliances'
p3563
tp3564
a(g3220
(S't\x07\x00\x00\x00Plugins'
tRp3565
I00
S'http://web2py.com/plugins'
p3566
tp3567
a(g3220
(S't\x07\x00\x00\x00Layouts'
tRp3568
I00
S'http://web2py.com/layouts'
p3569
tp3570
a(g3220
(S't\x07\x00\x00\x00Recipes'
tRp3571
I00
S'http://web2pyslices.com/'
p3572
tp3573
a(g3220
(S't\x08\x00\x00\x00Semantic'
tRp3574
I00
S'http://web2py.com/semantic'
p3575
tp3576
aasbasbasbasbasbasbasbag61
(g77
g63
NtRp3577
(dp3578
g66
(dp3579
sg75
g3334
sg68
(lp3580
g61
(g82
g63
NtRp3581
(dp3582
g66
(dp3583
sg75
g3577
sg68
(lp3584
g61
(g62
g63
NtRp3585
(dp3586
g66
(dp3587
g74
I2
ssg75
g3581
sg68
(lp3588
g61
(g70
g63
NtRp3589
(dp3590
g66
(dp3591
g74
I1
ssg75
Nsg68
(lp3592
g61
(g77
g63
NtRp3593
(dp3594
g66
(dp3595
sg75
g3589
sg68
(lp3596
g61
(g82
g63
NtRp3597
(dp3598
g66
(dp3599
sg75
g3593
sg68
(lp3600
g61
(g62
g63
NtRp3601
(dp3602
g66
(dp3603
g74
I1
ssg75
g3597
sg68
(lp3604
g3220
(S't\r\x00\x00\x00Documentation'
tRp3605
asbasbasbag61
(g77
g63
NtRp3606
(dp3607
g66
(dp3608
sg75
g3589
sg68
(lp3609
g61
(g82
g63
NtRp3610
(dp3611
g66
(dp3612
sg75
g3606
sg68
(lp3613
g61
(g62
g63
NtRp3614
(dp3615
g66
(dp3616
g74
I1
ssg75
g3610
sg68
(lp3617
I00
asbasbasbag61
(g77
g63
NtRp3618
(dp3619
g66
(dp3620
sg75
g3589
sg68
(lp3621
g61
(g82
g63
NtRp3622
(dp3623
g66
(dp3624
sg75
g3618
sg68
(lp3625
g61
(g62
g63
NtRp3626
(dp3627
g66
(dp3628
g74
I1
ssg75
g3622
sg68
(lp3629
S'http://www.web2py.com/book'
p3630
asbasbasbag61
(g77
g63
NtRp3631
(dp3632
g66
(dp3633
sg75
g3589
sg68
(lp3634
g61
(g82
g63
NtRp3635
(dp3636
g66
(dp3637
sg75
g3631
sg68
(lp3638
g61
(g62
g63
NtRp3639
(dp3640
g66
(dp3641
g74
I1
ssg75
g3635
sg68
(lp3642
(lp3643
(g3220
(S't\x07\x00\x00\x00Preface'
tRp3644
I00
S'http://www.web2py.com/book/default/chapter/00'
p3645
tp3646
a(g3220
(S't\x0c\x00\x00\x00Introduction'
tRp3647
I00
S'http://www.web2py.com/book/default/chapter/01'
p3648
tp3649
a(g3220
(S't\x06\x00\x00\x00Python'
tRp3650
I00
S'http://www.web2py.com/book/default/chapter/02'
p3651
tp3652
a(g3220
(S't\x08\x00\x00\x00Overview'
tRp3653
I00
S'http://www.web2py.com/book/default/chapter/03'
p3654
tp3655
a(g3220
(S's\x08\x00\x00\x00The Core'
tRp3656
I00
S'http://www.web2py.com/book/default/chapter/04'
p3657
tp3658
a(g3220
(S's\t\x00\x00\x00The Views'
tRp3659
I00
S'http://www.web2py.com/book/default/chapter/05'
p3660
tp3661
a(g3220
(S's\x0e\x00\x00\x00Banco de dados'
tRp3662
I00
S'http://www.web2py.com/book/default/chapter/06'
p3663
tp3664
a(g3220
(S's\x14\x00\x00\x00Forms and Validators'
tRp3665
I00
S'http://www.web2py.com/book/default/chapter/07'
p3666
tp3667
a(g3220
(S's\r\x00\x00\x00Email and SMS'
tRp3668
I00
S'http://www.web2py.com/book/default/chapter/08'
p3669
tp3670
a(g3220
(S's\x0e\x00\x00\x00Access Control'
tRp3671
I00
S'http://www.web2py.com/book/default/chapter/09'
p3672
tp3673
a(g3220
(S't\x08\x00\x00\x00Services'
tRp3674
I00
S'http://www.web2py.com/book/default/chapter/10'
p3675
tp3676
a(g3220
(S's\x0c\x00\x00\x00Ajax Recipes'
tRp3677
I00
S'http://www.web2py.com/book/default/chapter/11'
p3678
tp3679
a(g3220
(S's\x16\x00\x00\x00Components and Plugins'
tRp3680
I00
S'http://www.web2py.com/book/default/chapter/12'
p3681
tp3682
a(g3220
(S's\x12\x00\x00\x00Deployment Recipes'
tRp3683
I00
S'http://www.web2py.com/book/default/chapter/13'
p3684
tp3685
a(g3220
(S's\r\x00\x00\x00Other Recipes'
tRp3686
I00
S'http://www.web2py.com/book/default/chapter/14'
p3687
tp3688
a(g3220
(S's\r\x00\x00\x00Buy this book'
tRp3689
I00
S'http://stores.lulu.com/web2py'
p3690
tp3691
aasbasbasbasbasbasbasbag61
(g77
g63
NtRp3692
(dp3693
g66
(dp3694
sg75
g3334
sg68
(lp3695
g61
(g82
g63
NtRp3696
(dp3697
g66
(dp3698
sg75
g3692
sg68
(lp3699
g61
(g62
g63
NtRp3700
(dp3701
g66
(dp3702
g74
I2
ssg75
g3696
sg68
(lp3703
g61
(g70
g63
NtRp3704
(dp3705
g66
(dp3706
g74
I1
ssg75
Nsg68
(lp3707
g61
(g77
g63
NtRp3708
(dp3709
g66
(dp3710
sg75
g3704
sg68
(lp3711
g61
(g82
g63
NtRp3712
(dp3713
g66
(dp3714
sg75
g3708
sg68
(lp3715
g61
(g62
g63
NtRp3716
(dp3717
g66
(dp3718
g74
I1
ssg75
g3712
sg68
(lp3719
g3220
(S't\t\x00\x00\x00Community'
tRp3720
asbasbasbag61
(g77
g63
NtRp3721
(dp3722
g66
(dp3723
sg75
g3704
sg68
(lp3724
g61
(g82
g63
NtRp3725
(dp3726
g66
(dp3727
sg75
g3721
sg68
(lp3728
g61
(g62
g63
NtRp3729
(dp3730
g66
(dp3731
g74
I1
ssg75
g3725
sg68
(lp3732
I00
asbasbasbag61
(g77
g63
NtRp3733
(dp3734
g66
(dp3735
sg75
g3704
sg68
(lp3736
g61
(g82
g63
NtRp3737
(dp3738
g66
(dp3739
sg75
g3733
sg68
(lp3740
g61
(g62
g63
NtRp3741
(dp3742
g66
(dp3743
g74
I1
ssg75
g3737
sg68
(lp3744
Nasbasbasbag61
(g77
g63
NtRp3745
(dp3746
g66
(dp3747
sg75
g3704
sg68
(lp3748
g61
(g82
g63
NtRp3749
(dp3750
g66
(dp3751
sg75
g3745
sg68
(lp3752
g61
(g62
g63
NtRp3753
(dp3754
g66
(dp3755
g74
I1
ssg75
g3749
sg68
(lp3756
(lp3757
(g3220
(S't\x06\x00\x00\x00Groups'
tRp3758
I00
S'http://www.web2py.com/examples/default/usergroups'
p3759
tp3760
a(g3220
(S't\x07\x00\x00\x00Twitter'
tRp3761
I00
S'http://twitter.com/web2py'
p3762
tp3763
a(g3220
(S's\t\x00\x00\x00Live Chat'
tRp3764
I00
S'http://webchat.freenode.net/?channels=web2py'
p3765
tp3766
aasbasbasbasbasbasbasbag61
(g77
g63
NtRp3767
(dp3768
g66
(dp3769
sg75
g3334
sg68
(lp3770
g61
(g82
g63
NtRp3771
(dp3772
g66
(dp3773
sg75
g3767
sg68
(lp3774
g61
(g62
g63
NtRp3775
(dp3776
g66
(dp3777
g74
I2
ssg75
g3771
sg68
(lp3778
g61
(g70
g63
NtRp3779
(dp3780
g66
(dp3781
g74
I1
ssg75
Nsg68
(lp3782
g61
(g77
g63
NtRp3783
(dp3784
g66
(dp3785
sg75
g3779
sg68
(lp3786
g61
(g82
g63
NtRp3787
(dp3788
g66
(dp3789
sg75
g3783
sg68
(lp3790
g61
(g62
g63
NtRp3791
(dp3792
g66
(dp3793
g74
I1
ssg75
g3787
sg68
(lp3794
g3220
(S't\x07\x00\x00\x00Plugins'
tRp3795
asbasbasbag61
(g77
g63
NtRp3796
(dp3797
g66
(dp3798
sg75
g3779
sg68
(lp3799
g61
(g82
g63
NtRp3800
(dp3801
g66
(dp3802
sg75
g3796
sg68
(lp3803
g61
(g62
g63
NtRp3804
(dp3805
g66
(dp3806
g74
I1
ssg75
g3800
sg68
(lp3807
I00
asbasbasbag61
(g77
g63
NtRp3808
(dp3809
g66
(dp3810
sg75
g3779
sg68
(lp3811
g61
(g82
g63
NtRp3812
(dp3813
g66
(dp3814
sg75
g3808
sg68
(lp3815
g61
(g62
g63
NtRp3816
(dp3817
g66
(dp3818
g74
I1
ssg75
g3812
sg68
(lp3819
Nasbasbasbag61
(g77
g63
NtRp3820
(dp3821
g66
(dp3822
sg75
g3779
sg68
(lp3823
g61
(g82
g63
NtRp3824
(dp3825
g66
(dp3826
sg75
g3820
sg68
(lp3827
g61
(g62
g63
NtRp3828
(dp3829
g66
(dp3830
g74
I1
ssg75
g3824
sg68
(lp3831
(lp3832
(S'plugin_wiki'
p3833
I00
S'http://web2py.com/examples/default/download'
p3834
tp3835
a(g3220
(S's\r\x00\x00\x00Other Plugins'
tRp3836
I00
g3566
tp3837
a(g3220
(S's\x0e\x00\x00\x00Layout Plugins'
tRp3838
I00
g3569
tp3839
aasbasbasbasbasbasbasbasbasbasbasbasbasbasbasbasbasbasbasbag61
(g77
g63
NtRp3840
(dp3841
g66
(dp3842
sg75
g2696
sg68
(lp3843
g61
(g82
g63
NtRp3844
(dp3845
g66
(dp3846
g86
g87
ssg75
g3840
sg68
(lp3847
S'meta'
p3848
asbag61
(g82
g63
NtRp3849
(dp3850
g66
(dp3851
g93
g94
ssg75
g3840
sg68
(lp3852
S':'
asbag61
(g82
g63
NtRp3853
(dp3854
g66
(dp3855
sg75
g3840
sg68
(lp3856
g61
(g62
g63
NtRp3857
(dp3858
g66
(dp3859
g74
I5
ssg75
g3853
sg68
(lp3860
g61
(g70
g63
NtRp3861
(dp3862
g66
(dp3863
g74
I4
ssg75
Nsg68
(lp3864
g61
(g77
g63
NtRp3865
(dp3866
g66
(dp3867
sg75
g3861
sg68
(lp3868
g61
(g82
g63
NtRp3869
(dp3870
g66
(dp3871
g86
g87
ssg75
g3865
sg68
(lp3872
S'author'
p3873
asbag61
(g82
g63
NtRp3874
(dp3875
g66
(dp3876
g93
g94
ssg75
g3865
sg68
(lp3877
S':'
asbag61
(g82
g63
NtRp3878
(dp3879
g66
(dp3880
sg75
g3865
sg68
(lp3881
g61
(g62
g63
NtRp3882
(dp3883
g66
(dp3884
g74
I4
ssg75
g3878
sg68
(lp3885
S'Your Name <you@example.com>'
p3886
asbasbasbag61
(g77
g63
NtRp3887
(dp3888
g66
(dp3889
sg75
g3861
sg68
(lp3890
g61
(g82
g63
NtRp3891
(dp3892
g66
(dp3893
g86
g87
ssg75
g3887
sg68
(lp3894
S'copyright'
p3895
asbag61
(g82
g63
NtRp3896
(dp3897
g66
(dp3898
g93
g94
ssg75
g3887
sg68
(lp3899
S':'
asbag61
(g82
g63
NtRp3900
(dp3901
g66
(dp3902
sg75
g3887
sg68
(lp3903
g61
(g62
g63
NtRp3904
(dp3905
g66
(dp3906
g74
I4
ssg75
g3900
sg68
(lp3907
S'Copyright 2011'
p3908
asbasbasbag61
(g77
g63
NtRp3909
(dp3910
g66
(dp3911
sg75
g3861
sg68
(lp3912
g61
(g82
g63
NtRp3913
(dp3914
g66
(dp3915
g86
g87
ssg75
g3909
sg68
(lp3916
S'description'
p3917
asbag61
(g82
g63
NtRp3918
(dp3919
g66
(dp3920
g93
g94
ssg75
g3909
sg68
(lp3921
S':'
asbag61
(g82
g63
NtRp3922
(dp3923
g66
(dp3924
sg75
g3909
sg68
(lp3925
g61
(g62
g63
NtRp3926
(dp3927
g66
(dp3928
g74
I4
ssg75
g3922
sg68
(lp3929
S'a cool new app'
p3930
asbasbasbag61
(g77
g63
NtRp3931
(dp3932
g66
(dp3933
sg75
g3861
sg68
(lp3934
g61
(g82
g63
NtRp3935
(dp3936
g66
(dp3937
g86
g87
ssg75
g3931
sg68
(lp3938
S'generator'
p3939
asbag61
(g82
g63
NtRp3940
(dp3941
g66
(dp3942
g93
g94
ssg75
g3931
sg68
(lp3943
S':'
asbag61
(g82
g63
NtRp3944
(dp3945
g66
(dp3946
sg75
g3931
sg68
(lp3947
g61
(g62
g63
NtRp3948
(dp3949
g66
(dp3950
g74
I4
ssg75
g3944
sg68
(lp3951
S'Web2py Web Framework'
p3952
asbasbasbag61
(g77
g63
NtRp3953
(dp3954
g66
(dp3955
sg75
g3861
sg68
(lp3956
g61
(g82
g63
NtRp3957
(dp3958
g66
(dp3959
g86
g87
ssg75
g3953
sg68
(lp3960
S'keywords'
p3961
asbag61
(g82
g63
NtRp3962
(dp3963
g66
(dp3964
g93
g94
ssg75
g3953
sg68
(lp3965
S':'
asbag61
(g82
g63
NtRp3966
(dp3967
g66
(dp3968
sg75
g3953
sg68
(lp3969
g61
(g62
g63
NtRp3970
(dp3971
g66
(dp3972
g74
I4
ssg75
g3966
sg68
(lp3973
S'web2py, python, framework'
p3974
asbasbasbasbasbasbasbag61
(g77
g63
NtRp3975
(dp3976
g66
(dp3977
sg75
g2696
sg68
(lp3978
g61
(g82
g63
NtRp3979
(dp3980
g66
(dp3981
g86
g87
ssg75
g3975
sg68
(lp3982
S'postprocessing'
p3983
asbag61
(g82
g63
NtRp3984
(dp3985
g66
(dp3986
g93
g94
ssg75
g3975
sg68
(lp3987
S':'
asbag61
(g82
g63
NtRp3988
(dp3989
g66
(dp3990
sg75
g3975
sg68
(lp3991
g61
(g62
g63
NtRp3992
(dp3993
g66
(dp3994
g74
I5
ssg75
g3988
sg68
(lp3995
g61
(g70
g63
NtRp3996
(dp3997
g66
(dp3998
g74
I4
ssg75
Nsg68
(lp3999
sbasbasbasbag61
(g77
g63
NtRp4000
(dp4001
g66
(dp4002
sg75
g2696
sg68
(lp4003
g61
(g82
g63
NtRp4004
(dp4005
g66
(dp4006
g86
g87
ssg75
g4000
sg68
(lp4007
S'session_file'
p4008
asbag61
(g82
g63
NtRp4009
(dp4010
g66
(dp4011
g93
g94
ssg75
g4000
sg68
(lp4012
S':'
asbag61
(g82
g63
NtRp4013
(dp4014
g66
(dp4015
sg75
g4000
sg68
(lp4016
g61
(g62
g63
NtRp4017
(dp4018
g66
(dp4019
g74
I5
ssg75
g4013
sg68
(lp4020
S"<open file 'C:\\web2py\\applications\\unioeste_code\\sessions\\127.0.0.1-e2123eb0-50ff-4f28-8e81-a6ab4f6057bb', mode 'rb+' at 0x06C05D58>"
p4021
asbasbasbag61
(g77
g63
NtRp4022
(dp4023
g66
(dp4024
sg75
g2696
sg68
(lp4025
g61
(g82
g63
NtRp4026
(dp4027
g66
(dp4028
g86
g87
ssg75
g4022
sg68
(lp4029
S'session_filename'
p4030
asbag61
(g82
g63
NtRp4031
(dp4032
g66
(dp4033
g93
g94
ssg75
g4022
sg68
(lp4034
S':'
asbag61
(g82
g63
NtRp4035
(dp4036
g66
(dp4037
sg75
g4022
sg68
(lp4038
g61
(g62
g63
NtRp4039
(dp4040
g66
(dp4041
g74
I5
ssg75
g4035
sg68
(lp4042
S'C:\\web2py\\applications\\unioeste_code\\sessions\\127.0.0.1-e2123eb0-50ff-4f28-8e81-a6ab4f6057bb'
p4043
asbasbasbag61
(g77
g63
NtRp4044
(dp4045
g66
(dp4046
sg75
g2696
sg68
(lp4047
g61
(g82
g63
NtRp4048
(dp4049
g66
(dp4050
g86
g87
ssg75
g4044
sg68
(lp4051
S'session_id'
p4052
asbag61
(g82
g63
NtRp4053
(dp4054
g66
(dp4055
g93
g94
ssg75
g4044
sg68
(lp4056
S':'
asbag61
(g82
g63
NtRp4057
(dp4058
g66
(dp4059
sg75
g4044
sg68
(lp4060
g61
(g62
g63
NtRp4061
(dp4062
g66
(dp4063
g74
I5
ssg75
g4057
sg68
(lp4064
S'127.0.0.1-e2123eb0-50ff-4f28-8e81-a6ab4f6057bb'
p4065
asbasbasbag61
(g77
g63
NtRp4066
(dp4067
g66
(dp4068
sg75
g2696
sg68
(lp4069
g61
(g82
g63
NtRp4070
(dp4071
g66
(dp4072
g86
g87
ssg75
g4066
sg68
(lp4073
S'session_id_name'
p4074
asbag61
(g82
g63
NtRp4075
(dp4076
g66
(dp4077
g93
g94
ssg75
g4066
sg68
(lp4078
S':'
asbag61
(g82
g63
NtRp4079
(dp4080
g66
(dp4081
sg75
g4066
sg68
(lp4082
g61
(g62
g63
NtRp4083
(dp4084
g66
(dp4085
g74
I5
ssg75
g4079
sg68
(lp4086
g2753
asbasbasbag61
(g77
g63
NtRp4087
(dp4088
g66
(dp4089
sg75
g2696
sg68
(lp4090
g61
(g82
g63
NtRp4091
(dp4092
g66
(dp4093
g86
g87
ssg75
g4087
sg68
(lp4094
S'session_locked'
p4095
asbag61
(g82
g63
NtRp4096
(dp4097
g66
(dp4098
g93
g94
ssg75
g4087
sg68
(lp4099
S':'
asbag61
(g82
g63
NtRp4100
(dp4101
g66
(dp4102
sg75
g4087
sg68
(lp4103
g61
(g62
g63
NtRp4104
(dp4105
g66
(dp4106
g74
I5
ssg75
g4100
sg68
(lp4107
g1312
asbasbasbag61
(g77
g63
NtRp4108
(dp4109
g66
(dp4110
sg75
g2696
sg68
(lp4111
g61
(g82
g63
NtRp4112
(dp4113
g66
(dp4114
g86
g87
ssg75
g4108
sg68
(lp4115
S'session_new'
p4116
asbag61
(g82
g63
NtRp4117
(dp4118
g66
(dp4119
g93
g94
ssg75
g4108
sg68
(lp4120
S':'
asbag61
(g82
g63
NtRp4121
(dp4122
g66
(dp4123
sg75
g4108
sg68
(lp4124
g61
(g62
g63
NtRp4125
(dp4126
g66
(dp4127
g74
I5
ssg75
g4121
sg68
(lp4128
g104
asbasbasbag61
(g77
g63
NtRp4129
(dp4130
g66
(dp4131
sg75
g2696
sg68
(lp4132
g61
(g82
g63
NtRp4133
(dp4134
g66
(dp4135
g86
g87
ssg75
g4129
sg68
(lp4136
S'status'
p4137
asbag61
(g82
g63
NtRp4138
(dp4139
g66
(dp4140
g93
g94
ssg75
g4129
sg68
(lp4141
S':'
asbag61
(g82
g63
NtRp4142
(dp4143
g66
(dp4144
sg75
g4129
sg68
(lp4145
g61
(g62
g63
NtRp4146
(dp4147
g66
(dp4148
g74
I5
ssg75
g4142
sg68
(lp4149
S'200'
p4150
asbasbasbag61
(g77
g63
NtRp4151
(dp4152
g66
(dp4153
sg75
g2696
sg68
(lp4154
g61
(g82
g63
NtRp4155
(dp4156
g66
(dp4157
g86
g87
ssg75
g4151
sg68
(lp4158
S'subtitle'
p4159
asbag61
(g82
g63
NtRp4160
(dp4161
g66
(dp4162
g93
g94
ssg75
g4151
sg68
(lp4163
S':'
asbag61
(g82
g63
NtRp4164
(dp4165
g66
(dp4166
sg75
g4151
sg68
(lp4167
g61
(g62
g63
NtRp4168
(dp4169
g66
(dp4170
g74
I5
ssg75
g4164
sg68
(lp4171
g3220
(S's\x0f\x00\x00\x00Personalize-me!'
tRp4172
asbasbasbag61
(g77
g63
NtRp4173
(dp4174
g66
(dp4175
sg75
g2696
sg68
(lp4176
g61
(g82
g63
NtRp4177
(dp4178
g66
(dp4179
g86
g87
ssg75
g4173
sg68
(lp4180
S'title'
p4181
asbag61
(g82
g63
NtRp4182
(dp4183
g66
(dp4184
g93
g94
ssg75
g4173
sg68
(lp4185
S':'
asbag61
(g82
g63
NtRp4186
(dp4187
g66
(dp4188
sg75
g4173
sg68
(lp4189
g61
(g62
g63
NtRp4190
(dp4191
g66
(dp4192
g74
I5
ssg75
g4186
sg68
(lp4193
S'Unioeste Code'
p4194
asbasbasbag61
(g77
g63
NtRp4195
(dp4196
g66
(dp4197
sg75
g2696
sg68
(lp4198
g61
(g82
g63
NtRp4199
(dp4200
g66
(dp4201
g86
g87
ssg75
g4195
sg68
(lp4202
g1976
asbag61
(g82
g63
NtRp4203
(dp4204
g66
(dp4205
g93
g94
ssg75
g4195
sg68
(lp4206
S':'
asbag61
(g82
g63
NtRp4207
(dp4208
g66
(dp4209
sg75
g4195
sg68
(lp4210
g61
(g62
g63
NtRp4211
(dp4212
g66
(dp4213
g74
I5
ssg75
g4207
sg68
(lp4214
g1989
asbasbasbag61
(g77
g63
NtRp4215
(dp4216
g66
(dp4217
sg75
g2696
sg68
(lp4218
g61
(g82
g63
NtRp4219
(dp4220
g66
(dp4221
g86
g87
ssg75
g4215
sg68
(lp4222
S'view'
p4223
asbag61
(g82
g63
NtRp4224
(dp4225
g66
(dp4226
g93
g94
ssg75
g4215
sg68
(lp4227
S':'
asbag61
(g82
g63
NtRp4228
(dp4229
g66
(dp4230
sg75
g4215
sg68
(lp4231
g61
(g62
g63
NtRp4232
(dp4233
g66
(dp4234
g74
I5
ssg75
g4228
sg68
(lp4235
S'default/index.html'
p4236
asbasbasbasbasbsS'locals'
p4237
(dp4238
g4
S"r'C:\\web2py\\applications\\unioeste_code\\views\\default/index.html'"
p4239
sg6
S'r"response.write(\'<!DOCTYPE html>\\n<!-- paulirish....ponse.write(\'\\n</body>\\n</html>\\n\', escape=False)"'
p4240
sssS'traceback'
p4241
S'Traceback (most recent call last):\n  File "gluon/restricted.py", line 204, in restricted\n  File "gluon/restricted.py", line 189, in compile2\n  File "C:\\web2py\\applications\\unioeste_code\\views\\default/index.html", line 87\n    response.write(\'\\n\', escape=False)\n           ^\nSyntaxError: invalid syntax\n'
p4242
s.