(dp1
S'output'
p2
S"<type 'exceptions.TypeError'> cannot concatenate 'str' and 'B' objects"
p3
sS'layer'
p4
S'C:\\web2py\\applications\\unioeste_code\\views\\default/index.html'
p5
sS'code'
p6
S'response.write(\'<!DOCTYPE html>\\n<!-- paulirish.com/2008/conditional-stylesheets-vs-css-hacks-answer-neither/ -->\\n<!--[if lt IE 7]><html class="ie ie6 ie-lte9 ie-lte8 ie-lte7 no-js" lang="\', escape=False)\nresponse.write(T.accepted_language or \'en\')\nresponse.write(\'"> <![endif]-->\\n<!--[if IE 7]><html class="ie ie7 ie-lte9 ie-lte8 ie-lte7 no-js" lang="\', escape=False)\nresponse.write(T.accepted_language or \'en\')\nresponse.write(\'"> <![endif]-->\\n<!--[if IE 8]><html class="ie ie8 ie-lte9 ie-lte8 no-js" lang="\', escape=False)\nresponse.write(T.accepted_language or \'en\')\nresponse.write(\'"> <![endif]-->\\n<!--[if IE 9]><html class="ie9 ie-lte9 no-js" lang="\', escape=False)\nresponse.write(T.accepted_language or \'en\')\nresponse.write(\'"> <![endif]-->\\n<!--[if (gt IE 9)|!(IE)]><!--> <html class="no-js" lang="\', escape=False)\nresponse.write(T.accepted_language or \'en\')\nresponse.write(\'"> <!--<![endif]-->\\n<head>\\n  <meta charset="utf-8" />\\n  <!-- www.phpied.com/conditional-comments-block-downloads/ -->\\n  <!-- Always force latest IE rendering engine\\n\\t   (even in intranet) & Chrome Frame\\n\\t   Remove this if you use the .htaccess -->\\n  <!--[if IE]>\\n    <meta http-equiv="X-UA-Compatible" content="IE=edge\', escape=False)\nresponse.write(not request.is_local and \',chrome=1\' or \'\')\nresponse.write(\'">\\n  <![endif]-->\\n  \\n  <title>\', escape=False)\nresponse.write(response.title or request.application)\nresponse.write(\'</title>\\n  \\n  <!-- http://dev.w3.org/html5/markup/meta.name.html -->\\n  <meta name="application-name" content="\', escape=False)\nresponse.write(request.application)\nresponse.write(\'" />\\n  \\n  <!-- Speaking of Google, don\\\'t forget to set your site up:\\n\\t   http://google.com/webmasters -->\\n  <meta name="google-site-verification" content="" />\\n\\n  <!--  Mobile Viewport Fix\\n\\t  j.mp/mobileviewport & davidbcalhoun.com/2010/viewport-metatag\\n\\t  device-width: Occupy full width of the screen in its current orientation\\n\\t  initial-scale = 1.0 retains dimensions instead of zooming out if page height > device height\\n\\t  user-scalable = yes allows the user to zoom in -->\\n  <meta name="viewport" content="width=device-width, initial-scale=1.0, user-scalable=yes">\\n  \\n  <!-- Place favicon.ico and apple-touch-icon.png in the root of your domain and delete these references -->\\n  <link rel="shortcut icon" href="\', escape=False)\nresponse.write(URL(\'static\',\'favicon.ico\'))\nresponse.write(\'" type="image/x-icon">\\n  <link rel="apple-touch-icon" href="\', escape=False)\nresponse.write(URL(\'static\',\'favicon.png\'))\nresponse.write(\'">\\n\\n  <!-- All JavaScript at the bottom, except for Modernizr which enables \\n\\t   HTML5 elements & feature detects -->\\n  <script src="\', escape=False)\nresponse.write(URL(\'static\',\'js/modernizr.custom.js\'))\nresponse.write(\'"></script>  \\n\\n  <!-- include stylesheets -->\\n  \', escape=False)\nresponse.files.append(URL(\'static\',\'css/skeleton.css\'))\nresponse.files.append(URL(\'static\',\'css/web2py.css\'))\nif response.menu:\n    response.files.append(URL(\'static\',\'css/superfish.css\'))\n    response.files.append(URL(\'static\',\'js/superfish.js\'))\n    pass\nresponse.write(\'\\n\\n  \', escape=False)\nresponse.write(\'<script type="text/javascript"><!--\\n    // These variables are used by the web2py_ajax_init function in web2py_ajax.js (which is loaded below).\\n    var w2p_ajax_confirm_message = "\', escape=False)\nresponse.write(T(\'Are you sure you want to delete this object?\'))\nresponse.write(\'";\\n    var w2p_ajax_date_format = "\', escape=False)\nresponse.write(T(\'%Y-%m-%d\'))\nresponse.write(\'";\\n    var w2p_ajax_datetime_format = "\', escape=False)\nresponse.write(T(\'%Y-%m-%d %H:%M:%S\'))\nresponse.write(\'";\\n    //--></script>\\n\', escape=False)\nresponse.files.insert(0,URL(\'static\',\'js/jquery.js\'))\nresponse.files.insert(1,URL(\'static\',\'css/calendar.css\'))\nresponse.files.insert(2,URL(\'static\',\'js/calendar.js\'))\nresponse.files.insert(3,URL(\'static\',\'js/web2py.js\'))\nresponse.include_meta()\nresponse.include_files()\nresponse.write(\'\\n\', escape=False)\nresponse.write(\'\\n\\n  \', escape=False)\nif response.menu:\n    response.write(\'\\n  <script type="text/javascript">\\n    jQuery(function(){ jQuery(\\\'ul.sf-menu\\\').supersubs({minWidth:12,maxWidth:30,extraWidth:3}).superfish(); });\\n  </script>\\n  \', escape=False)\n    pass\nresponse.write(\'\\n\\n  \', escape=False)\n# using sidebars need to know what sidebar you want to use\nleft_sidebar_enabled = globals().get(\'left_sidebar_enabled\',False)\nright_sidebar_enabled = globals().get(\'right_sidebar_enabled\',False)\nmiddle_columns = {0:\'sixteen\',1:\'twelve\',2:\'eight\'}[\n(left_sidebar_enabled and 1 or 0)+(right_sidebar_enabled and 1 or 0)]\nresponse.write(\'\\n\\n  <!-- uncomment here to load jquery-ui\\n  <link rel="stylesheet" href="http://ajax.googleapis.com/ajax/libs/jqueryui/1.8.16/themes/base/jquery-ui.css" type="text/css" media="all" />\\n  <script src="http://ajax.googleapis.com/ajax/libs/jqueryui/1.8.16/jquery-ui.min.js" type="text/javascript"></script>\\n  uncomment to load jquery-ui //-->\\n</head>\\n<body>\\n  <div class="wrapper"><!-- for sticky footer -->\\n  \\n    <div class="topbar">\\n      <div class="container">    \\n        <div class="sixteen columns">\\n          <div id="navbar">\', escape=False)\nresponse.write(\'auth\' in globals() and auth.navbar(separators=(\' \',\' | \',\'\')))\nresponse.write(\'</div>\\n          \', escape=False)\nis_mobile=request.user_agent().is_mobile\nresponse.write(\'\\n\\t  \', escape=False)\nif response.menu:\n    response.write(\'\\n          <div id="menu">\\n             \', escape=False)\n    response.write(MENU(response.menu, _class=\'mobile-menu\' if is_mobile else \'sf-menu\',mobile=is_mobile))\n    response.write(\'\\n          </div>\\n          \', escape=False)\n    pass\nresponse.write(\'\\n        </div>\\n      </div>\\n    </div><!-- topbar -->\\n    \\n    <div class="flash">\', escape=False)\nresponse.write(response.flash or \'\')\nresponse.write(\'</div>\\n    \\n    <div class="header">\\n      <div class="container">         \\n        <div class="sixteen columns">\\n          <img src="\', escape=False)\nresponse.write(URL(\'static\',\'images/logo-code.png\'))\nresponse.write(\'" class="remove-bottom" style="margin-top: .5em;" />\\n          <!-- H5 subtitle-->\\n        </div>\\n        <div class="sixteen columns">\\n          <div style="border: 1px solid #000000; ">\\n            <div style="float:right; padding-top: .25em;" class="a2a_kit a2a_default_style">\\n            <a class="a2a_dd" href="http://www.addtoany.com/share_save">Share</a></div>\\n            <script type="text/javascript" src="http://static.addtoany.com/menu/page.js"></script>\\n          </div>\\n        </div>\\n      </div>\\n    </div>\\n\\n    <div class="main">\\n      <div class="container">                 \\n        \', escape=False)\nif left_sidebar_enabled:\n    response.write(\'\\n        <div class="four columns left-sidebar">\\n          \', escape=False)\n    response.write(\'\\n          <h3>Left Sidebar</h3>\\n          <p></p>\\n          \', escape=False)\n    response.write(\'\\n        </div>\\n        \', escape=False)\n    pass\nresponse.write(\'\\n        \\n        <div class="\', escape=False)\nresponse.write(middle_columns)\nresponse.write(\' columns center">\\n          \', escape=False)\nresponse.write(\'\\n          \', escape=False)\nresponse.write(\'\\n\\n\\n\', escape=False)\nresponse.write(H1(T("Current Problems")))\nresponse.write(\'\\n<ul>\\n\', escape=False)\nfor problem in problems:\n    response.write(\'\\n\', escape=False)\n    user = db(db.auth_user.id==problem.created_by).select().first()\n    response.write(\'\\n\', escape=False)\n    response.write(LI(A(problem.title, _href=URL("Problem", args=problem.id)), " by " + B(user.first_name) + " " + user.last_name + " ", (SPAN(value=prettydate(problem.created_on), _style="color:green"))))\n    response.write(\'\\n\', escape=False)\n    pass\nresponse.write(\'\\n\\n</ul>\', escape=False)\nresponse.write(\'\\n          \', escape=False)\nresponse.write(\'\\n        </div>\\n        \\n        \', escape=False)\nif right_sidebar_enabled:\n    response.write(\'\\n        <div class="four columns">\\n          \', escape=False)\n    response.write(\'\\n          <h3>Right Sidebar</h3>\\n          <p></p>\\n          \', escape=False)\n    response.write(\'\\n        </div>    \\n        \', escape=False)\n    pass\nresponse.write(\'\\n        \\n      </div><!-- container -->\\n    </div><!-- main -->\\n    \\n    <div class="push"></div>\\n  </div><!-- wrapper -->\\n\\n  <div class="footer">\\n    <div class="container">    \\n      <div class="sixteen columns">\\n        \', escape=False)\nresponse.write(\' <!-- this is default footer -->\\n        <div class="footer-content clearfix">\\n            <div style="float: left;">\\n            <a href="https://developers.google.com//"> \\n            <img style="padding-left: 8em; padding-bottom:1em; " src="https://developers.google.com/appengine/images/appengine-noborder-120x30.gif" alt="Powered by Google App Engine"/>\\n            </a>\\n          </div>\\n          <div class="footer-content clearfix">\\n            <div style="float: left;   ">\\n            <a href="http://www.python.org/"> \\n            <img style="" src="http://www.python.org/community/logos/python-powered-w-70x28.png" alt="Powered by Python"/>\\n            </a>\\n          </div>\\n          <div style="padding-left: 19.5em; padding-top: 0.25em;">\\n            <a href="http://www.web2py.com/">\\n            <img style="" src="\', escape=False)\nresponse.write(URL(\'static\',\'images/poweredby.png\'))\nresponse.write(\'"/>\\n            </a>\\n          </div>\\n        </div>\\n        \', escape=False)\nresponse.write(\'\\t\\n      </div>\\n    </div><!-- container -->\\n  </div><!-- footer -->\\n  \\n  <!--[if lt IE 7 ]>\\n\\t<script src="\', escape=False)\nresponse.write(URL(\'static\',\'js/dd_belatedpng.js\'))\nresponse.write(\'"></script>\\n\\t<script> DD_belatedPNG.fix(\\\'img, .png_bg\\\'); //fix any <img> or .png_bg background-images </script>\\n\\t<![endif]-->\\n  \', escape=False)\nif response.google_analytics_id:\n    response.write(\'<script type="text/javascript"> var _gaq = _gaq || []; _gaq.push([\\\'_setAccount\\\', \\\'\', escape=False)\n    response.write(response.google_analytics_id)\n    response.write("\']); _gaq.push([\'_trackPageview\']); (function() { var ga = document.createElement(\'script\'); ga.type = \'text/javascript\'; ga.async = true; ga.src = (\'https:\' == document.location.protocol ? \'https://ssl\' : \'http://www\') + \'.google-analytics.com/ga.js\'; var s = document.getElementsByTagName(\'script\')[0]; s.parentNode.insertBefore(ga, s); })(); </script> ", escape=False)\n    pass\nresponse.write(\'\\n</body>\\n</html>\\n\', escape=False)'
p7
sS'snapshot'
p8
(dp9
S'exception'
p10
(dp11
S'__hash__'
p12
S"<method-wrapper '__hash__' of exceptions.TypeError object at 0x06980760>"
p13
sS'__setattr__'
p14
S"<method-wrapper '__setattr__' of exceptions.TypeError object at 0x06980760>"
p15
sS'__reduce_ex__'
p16
S'<built-in method __reduce_ex__ of exceptions.TypeError object at 0x06980760>'
p17
sS'__getslice__'
p18
S"<method-wrapper '__getslice__' of exceptions.TypeError object at 0x06980760>"
p19
sS'__getitem__'
p20
S"<method-wrapper '__getitem__' of exceptions.TypeError object at 0x06980760>"
p21
sS'__setstate__'
p22
S'<built-in method __setstate__ of exceptions.TypeError object at 0x06980760>'
p23
sS'__reduce__'
p24
S'<built-in method __reduce__ of exceptions.TypeError object at 0x06980760>'
p25
sS'__str__'
p26
S"<method-wrapper '__str__' of exceptions.TypeError object at 0x06980760>"
p27
sS'args'
p28
S'("cannot concatenate \'str\' and \'B\' objects",)'
p29
sS'__getattribute__'
p30
S"<method-wrapper '__getattribute__' of exceptions.TypeError object at 0x06980760>"
p31
sS'__class__'
p32
S"<type 'exceptions.TypeError'>"
p33
sS'__delattr__'
p34
S"<method-wrapper '__delattr__' of exceptions.TypeError object at 0x06980760>"
p35
sS'__repr__'
p36
S"<method-wrapper '__repr__' of exceptions.TypeError object at 0x06980760>"
p37
sS'__dict__'
p38
S'{}'
p39
sS'__doc__'
p40
S"'Inappropriate argument type.'"
p41
sS'__init__'
p42
S"<method-wrapper '__init__' of exceptions.TypeError object at 0x06980760>"
p43
sS'__new__'
p44
S'<built-in method __new__ of type object at 0x1E1CCD78>'
p45
ssS'evalue'
p46
S"cannot concatenate 'str' and 'B' objects"
p47
sS'request'
p48
ccopy_reg
_reconstructor
p49
(cgluon.html
BEAUTIFY
p50
c__builtin__
object
p51
NtRp52
(dp53
S'attributes'
p54
(dp55
sS'components'
p56
(lp57
g49
(cgluon.html
TABLE
p58
g51
NtRp59
(dp60
g54
(dp61
S'level'
p62
I5
ssS'parent'
p63
Nsg56
(lp64
g49
(cgluon.html
TR
p65
g51
NtRp66
(dp67
g54
(dp68
sg63
g59
sg56
(lp69
g49
(cgluon.html
TD
p70
g51
NtRp71
(dp72
g54
(dp73
S'_style'
p74
S'font-weight:bold;vertical-align:top'
p75
ssg63
g66
sg56
(lp76
S'ajax'
p77
asbag49
(g70
g51
NtRp78
(dp79
g54
(dp80
S'_valign'
p81
S'top'
p82
ssg63
g66
sg56
(lp83
S':'
asbag49
(g70
g51
NtRp84
(dp85
g54
(dp86
sg63
g66
sg56
(lp87
g49
(g50
g51
NtRp88
(dp89
g54
(dp90
g62
I5
ssg63
g84
sg56
(lp91
S'False'
p92
asbasbasbag49
(g65
g51
NtRp93
(dp94
g54
(dp95
sg63
g59
sg56
(lp96
g49
(g70
g51
NtRp97
(dp98
g54
(dp99
g74
g75
ssg63
g93
sg56
(lp100
S'application'
p101
asbag49
(g70
g51
NtRp102
(dp103
g54
(dp104
g81
g82
ssg63
g93
sg56
(lp105
S':'
asbag49
(g70
g51
NtRp106
(dp107
g54
(dp108
sg63
g93
sg56
(lp109
g49
(g50
g51
NtRp110
(dp111
g54
(dp112
g62
I5
ssg63
g106
sg56
(lp113
S'unioeste_code'
p114
asbasbasbag49
(g65
g51
NtRp115
(dp116
g54
(dp117
sg63
g59
sg56
(lp118
g49
(g70
g51
NtRp119
(dp120
g54
(dp121
g74
g75
ssg63
g115
sg56
(lp122
g28
asbag49
(g70
g51
NtRp123
(dp124
g54
(dp125
g81
g82
ssg63
g115
sg56
(lp126
S':'
asbag49
(g70
g51
NtRp127
(dp128
g54
(dp129
sg63
g115
sg56
(lp130
g49
(g50
g51
NtRp131
(dp132
g54
(dp133
g62
I5
ssg63
g127
sg56
(lp134
g49
(g58
g51
NtRp135
(dp136
g54
(dp137
g62
I4
ssg63
Nsg56
(lp138
sbasbasbasbag49
(g65
g51
NtRp139
(dp140
g54
(dp141
sg63
g59
sg56
(lp142
g49
(g70
g51
NtRp143
(dp144
g54
(dp145
g74
g75
ssg63
g139
sg56
(lp146
S'body'
p147
asbag49
(g70
g51
NtRp148
(dp149
g54
(dp150
g81
g82
ssg63
g139
sg56
(lp151
S':'
asbag49
(g70
g51
NtRp152
(dp153
g54
(dp154
sg63
g139
sg56
(lp155
g49
(g50
g51
NtRp156
(dp157
g54
(dp158
g62
I5
ssg63
g152
sg56
(lp159
S'<cStringIO.StringO object at 0x06B2CC00>'
p160
asbasbasbag49
(g65
g51
NtRp161
(dp162
g54
(dp163
sg63
g59
sg56
(lp164
g49
(g70
g51
NtRp165
(dp166
g54
(dp167
g74
g75
ssg63
g161
sg56
(lp168
S'client'
p169
asbag49
(g70
g51
NtRp170
(dp171
g54
(dp172
g81
g82
ssg63
g161
sg56
(lp173
S':'
asbag49
(g70
g51
NtRp174
(dp175
g54
(dp176
sg63
g161
sg56
(lp177
g49
(g50
g51
NtRp178
(dp179
g54
(dp180
g62
I5
ssg63
g174
sg56
(lp181
S'127.0.0.1'
p182
asbasbasbag49
(g65
g51
NtRp183
(dp184
g54
(dp185
sg63
g59
sg56
(lp186
g49
(g70
g51
NtRp187
(dp188
g54
(dp189
g74
g75
ssg63
g183
sg56
(lp190
S'controller'
p191
asbag49
(g70
g51
NtRp192
(dp193
g54
(dp194
g81
g82
ssg63
g183
sg56
(lp195
S':'
asbag49
(g70
g51
NtRp196
(dp197
g54
(dp198
sg63
g183
sg56
(lp199
g49
(g50
g51
NtRp200
(dp201
g54
(dp202
g62
I5
ssg63
g196
sg56
(lp203
S'default'
p204
asbasbasbag49
(g65
g51
NtRp205
(dp206
g54
(dp207
sg63
g59
sg56
(lp208
g49
(g70
g51
NtRp209
(dp210
g54
(dp211
g74
g75
ssg63
g205
sg56
(lp212
S'cookies'
p213
asbag49
(g70
g51
NtRp214
(dp215
g54
(dp216
g81
g82
ssg63
g205
sg56
(lp217
S':'
asbag49
(g70
g51
NtRp218
(dp219
g54
(dp220
sg63
g205
sg56
(lp221
g49
(g50
g51
NtRp222
(dp223
g54
(dp224
g62
I5
ssg63
g218
sg56
(lp225
g49
(g58
g51
NtRp226
(dp227
g54
(dp228
g62
I4
ssg63
Nsg56
(lp229
g49
(g65
g51
NtRp230
(dp231
g54
(dp232
sg63
g226
sg56
(lp233
g49
(g70
g51
NtRp234
(dp235
g54
(dp236
g74
g75
ssg63
g230
sg56
(lp237
S'session_id_admin'
p238
asbag49
(g70
g51
NtRp239
(dp240
g54
(dp241
g81
g82
ssg63
g230
sg56
(lp242
S':'
asbag49
(g70
g51
NtRp243
(dp244
g54
(dp245
sg63
g230
sg56
(lp246
g49
(g50
g51
NtRp247
(dp248
g54
(dp249
g62
I4
ssg63
g243
sg56
(lp250
g49
(g58
g51
NtRp251
(dp252
g54
(dp253
g62
I3
ssg63
Nsg56
(lp254
g49
(g65
g51
NtRp255
(dp256
g54
(dp257
sg63
g251
sg56
(lp258
g49
(g70
g51
NtRp259
(dp260
g54
(dp261
g74
g75
ssg63
g255
sg56
(lp262
S'comment'
p263
asbag49
(g70
g51
NtRp264
(dp265
g54
(dp266
g81
g82
ssg63
g255
sg56
(lp267
S':'
asbag49
(g70
g51
NtRp268
(dp269
g54
(dp270
sg63
g255
sg56
(lp271
g49
(g50
g51
NtRp272
(dp273
g54
(dp274
g62
I3
ssg63
g268
sg56
(lp275
S''
asbasbasbag49
(g65
g51
NtRp276
(dp277
g54
(dp278
sg63
g251
sg56
(lp279
g49
(g70
g51
NtRp280
(dp281
g54
(dp282
g74
g75
ssg63
g276
sg56
(lp283
S'domain'
p284
asbag49
(g70
g51
NtRp285
(dp286
g54
(dp287
g81
g82
ssg63
g276
sg56
(lp288
S':'
asbag49
(g70
g51
NtRp289
(dp290
g54
(dp291
sg63
g276
sg56
(lp292
g49
(g50
g51
NtRp293
(dp294
g54
(dp295
g62
I3
ssg63
g289
sg56
(lp296
S''
asbasbasbag49
(g65
g51
NtRp297
(dp298
g54
(dp299
sg63
g251
sg56
(lp300
g49
(g70
g51
NtRp301
(dp302
g54
(dp303
g74
g75
ssg63
g297
sg56
(lp304
S'expires'
p305
asbag49
(g70
g51
NtRp306
(dp307
g54
(dp308
g81
g82
ssg63
g297
sg56
(lp309
S':'
asbag49
(g70
g51
NtRp310
(dp311
g54
(dp312
sg63
g297
sg56
(lp313
g49
(g50
g51
NtRp314
(dp315
g54
(dp316
g62
I3
ssg63
g310
sg56
(lp317
S''
asbasbasbag49
(g65
g51
NtRp318
(dp319
g54
(dp320
sg63
g251
sg56
(lp321
g49
(g70
g51
NtRp322
(dp323
g54
(dp324
g74
g75
ssg63
g318
sg56
(lp325
S'max-age'
p326
asbag49
(g70
g51
NtRp327
(dp328
g54
(dp329
g81
g82
ssg63
g318
sg56
(lp330
S':'
asbag49
(g70
g51
NtRp331
(dp332
g54
(dp333
sg63
g318
sg56
(lp334
g49
(g50
g51
NtRp335
(dp336
g54
(dp337
g62
I3
ssg63
g331
sg56
(lp338
S''
asbasbasbag49
(g65
g51
NtRp339
(dp340
g54
(dp341
sg63
g251
sg56
(lp342
g49
(g70
g51
NtRp343
(dp344
g54
(dp345
g74
g75
ssg63
g339
sg56
(lp346
S'path'
p347
asbag49
(g70
g51
NtRp348
(dp349
g54
(dp350
g81
g82
ssg63
g339
sg56
(lp351
S':'
asbag49
(g70
g51
NtRp352
(dp353
g54
(dp354
sg63
g339
sg56
(lp355
g49
(g50
g51
NtRp356
(dp357
g54
(dp358
g62
I3
ssg63
g352
sg56
(lp359
S''
asbasbasbag49
(g65
g51
NtRp360
(dp361
g54
(dp362
sg63
g251
sg56
(lp363
g49
(g70
g51
NtRp364
(dp365
g54
(dp366
g74
g75
ssg63
g360
sg56
(lp367
S'secure'
p368
asbag49
(g70
g51
NtRp369
(dp370
g54
(dp371
g81
g82
ssg63
g360
sg56
(lp372
S':'
asbag49
(g70
g51
NtRp373
(dp374
g54
(dp375
sg63
g360
sg56
(lp376
g49
(g50
g51
NtRp377
(dp378
g54
(dp379
g62
I3
ssg63
g373
sg56
(lp380
S''
asbasbasbag49
(g65
g51
NtRp381
(dp382
g54
(dp383
sg63
g251
sg56
(lp384
g49
(g70
g51
NtRp385
(dp386
g54
(dp387
g74
g75
ssg63
g381
sg56
(lp388
S'version'
p389
asbag49
(g70
g51
NtRp390
(dp391
g54
(dp392
g81
g82
ssg63
g381
sg56
(lp393
S':'
asbag49
(g70
g51
NtRp394
(dp395
g54
(dp396
sg63
g381
sg56
(lp397
g49
(g50
g51
NtRp398
(dp399
g54
(dp400
g62
I3
ssg63
g394
sg56
(lp401
S''
asbasbasbasbasbasbasbag49
(g65
g51
NtRp402
(dp403
g54
(dp404
sg63
g226
sg56
(lp405
g49
(g70
g51
NtRp406
(dp407
g54
(dp408
g74
g75
ssg63
g402
sg56
(lp409
S'session_id_unioeste_code'
p410
asbag49
(g70
g51
NtRp411
(dp412
g54
(dp413
g81
g82
ssg63
g402
sg56
(lp414
S':'
asbag49
(g70
g51
NtRp415
(dp416
g54
(dp417
sg63
g402
sg56
(lp418
g49
(g50
g51
NtRp419
(dp420
g54
(dp421
g62
I4
ssg63
g415
sg56
(lp422
g49
(g58
g51
NtRp423
(dp424
g54
(dp425
g62
I3
ssg63
Nsg56
(lp426
g49
(g65
g51
NtRp427
(dp428
g54
(dp429
sg63
g423
sg56
(lp430
g49
(g70
g51
NtRp431
(dp432
g54
(dp433
g74
g75
ssg63
g427
sg56
(lp434
g263
asbag49
(g70
g51
NtRp435
(dp436
g54
(dp437
g81
g82
ssg63
g427
sg56
(lp438
S':'
asbag49
(g70
g51
NtRp439
(dp440
g54
(dp441
sg63
g427
sg56
(lp442
g49
(g50
g51
NtRp443
(dp444
g54
(dp445
g62
I3
ssg63
g439
sg56
(lp446
S''
asbasbasbag49
(g65
g51
NtRp447
(dp448
g54
(dp449
sg63
g423
sg56
(lp450
g49
(g70
g51
NtRp451
(dp452
g54
(dp453
g74
g75
ssg63
g447
sg56
(lp454
g284
asbag49
(g70
g51
NtRp455
(dp456
g54
(dp457
g81
g82
ssg63
g447
sg56
(lp458
S':'
asbag49
(g70
g51
NtRp459
(dp460
g54
(dp461
sg63
g447
sg56
(lp462
g49
(g50
g51
NtRp463
(dp464
g54
(dp465
g62
I3
ssg63
g459
sg56
(lp466
S''
asbasbasbag49
(g65
g51
NtRp467
(dp468
g54
(dp469
sg63
g423
sg56
(lp470
g49
(g70
g51
NtRp471
(dp472
g54
(dp473
g74
g75
ssg63
g467
sg56
(lp474
g305
asbag49
(g70
g51
NtRp475
(dp476
g54
(dp477
g81
g82
ssg63
g467
sg56
(lp478
S':'
asbag49
(g70
g51
NtRp479
(dp480
g54
(dp481
sg63
g467
sg56
(lp482
g49
(g50
g51
NtRp483
(dp484
g54
(dp485
g62
I3
ssg63
g479
sg56
(lp486
S''
asbasbasbag49
(g65
g51
NtRp487
(dp488
g54
(dp489
sg63
g423
sg56
(lp490
g49
(g70
g51
NtRp491
(dp492
g54
(dp493
g74
g75
ssg63
g487
sg56
(lp494
g326
asbag49
(g70
g51
NtRp495
(dp496
g54
(dp497
g81
g82
ssg63
g487
sg56
(lp498
S':'
asbag49
(g70
g51
NtRp499
(dp500
g54
(dp501
sg63
g487
sg56
(lp502
g49
(g50
g51
NtRp503
(dp504
g54
(dp505
g62
I3
ssg63
g499
sg56
(lp506
S''
asbasbasbag49
(g65
g51
NtRp507
(dp508
g54
(dp509
sg63
g423
sg56
(lp510
g49
(g70
g51
NtRp511
(dp512
g54
(dp513
g74
g75
ssg63
g507
sg56
(lp514
g347
asbag49
(g70
g51
NtRp515
(dp516
g54
(dp517
g81
g82
ssg63
g507
sg56
(lp518
S':'
asbag49
(g70
g51
NtRp519
(dp520
g54
(dp521
sg63
g507
sg56
(lp522
g49
(g50
g51
NtRp523
(dp524
g54
(dp525
g62
I3
ssg63
g519
sg56
(lp526
S''
asbasbasbag49
(g65
g51
NtRp527
(dp528
g54
(dp529
sg63
g423
sg56
(lp530
g49
(g70
g51
NtRp531
(dp532
g54
(dp533
g74
g75
ssg63
g527
sg56
(lp534
g368
asbag49
(g70
g51
NtRp535
(dp536
g54
(dp537
g81
g82
ssg63
g527
sg56
(lp538
S':'
asbag49
(g70
g51
NtRp539
(dp540
g54
(dp541
sg63
g527
sg56
(lp542
g49
(g50
g51
NtRp543
(dp544
g54
(dp545
g62
I3
ssg63
g539
sg56
(lp546
S''
asbasbasbag49
(g65
g51
NtRp547
(dp548
g54
(dp549
sg63
g423
sg56
(lp550
g49
(g70
g51
NtRp551
(dp552
g54
(dp553
g74
g75
ssg63
g547
sg56
(lp554
g389
asbag49
(g70
g51
NtRp555
(dp556
g54
(dp557
g81
g82
ssg63
g547
sg56
(lp558
S':'
asbag49
(g70
g51
NtRp559
(dp560
g54
(dp561
sg63
g547
sg56
(lp562
g49
(g50
g51
NtRp563
(dp564
g54
(dp565
g62
I3
ssg63
g559
sg56
(lp566
S''
asbasbasbasbasbasbasbasbasbasbasbag49
(g65
g51
NtRp567
(dp568
g54
(dp569
sg63
g59
sg56
(lp570
g49
(g70
g51
NtRp571
(dp572
g54
(dp573
g74
g75
ssg63
g567
sg56
(lp574
S'env'
p575
asbag49
(g70
g51
NtRp576
(dp577
g54
(dp578
g81
g82
ssg63
g567
sg56
(lp579
S':'
asbag49
(g70
g51
NtRp580
(dp581
g54
(dp582
sg63
g567
sg56
(lp583
g49
(g50
g51
NtRp584
(dp585
g54
(dp586
g62
I5
ssg63
g580
sg56
(lp587
g49
(g58
g51
NtRp588
(dp589
g54
(dp590
g62
I4
ssg63
Nsg56
(lp591
g49
(g65
g51
NtRp592
(dp593
g54
(dp594
sg63
g588
sg56
(lp595
g49
(g70
g51
NtRp596
(dp597
g54
(dp598
g74
g75
ssg63
g592
sg56
(lp599
S'app_folders'
p600
asbag49
(g70
g51
NtRp601
(dp602
g54
(dp603
g81
g82
ssg63
g592
sg56
(lp604
S':'
asbag49
(g70
g51
NtRp605
(dp606
g54
(dp607
sg63
g592
sg56
(lp608
g49
(g50
g51
NtRp609
(dp610
g54
(dp611
g62
I4
ssg63
g605
sg56
(lp612
S"set(['C:\\\\web2py\\\\applications\\\\admin\\\\', 'C:\\\\web2py\\\\applications\\\\welcome\\\\', 'C:\\\\web2py\\\\applications\\\\unioeste_code\\\\'])"
p613
asbasbasbag49
(g65
g51
NtRp614
(dp615
g54
(dp616
sg63
g588
sg56
(lp617
g49
(g70
g51
NtRp618
(dp619
g54
(dp620
g74
g75
ssg63
g614
sg56
(lp621
S'applications_parent'
p622
asbag49
(g70
g51
NtRp623
(dp624
g54
(dp625
g81
g82
ssg63
g614
sg56
(lp626
S':'
asbag49
(g70
g51
NtRp627
(dp628
g54
(dp629
sg63
g614
sg56
(lp630
g49
(g50
g51
NtRp631
(dp632
g54
(dp633
g62
I4
ssg63
g627
sg56
(lp634
S'C:\\web2py'
p635
asbasbasbag49
(g65
g51
NtRp636
(dp637
g54
(dp638
sg63
g588
sg56
(lp639
g49
(g70
g51
NtRp640
(dp641
g54
(dp642
g74
g75
ssg63
g636
sg56
(lp643
S'cmd_args'
p644
asbag49
(g70
g51
NtRp645
(dp646
g54
(dp647
g81
g82
ssg63
g636
sg56
(lp648
S':'
asbag49
(g70
g51
NtRp649
(dp650
g54
(dp651
sg63
g636
sg56
(lp652
g49
(g50
g51
NtRp653
(dp654
g54
(dp655
g62
I4
ssg63
g649
sg56
(lp656
g49
(g58
g51
NtRp657
(dp658
g54
(dp659
g62
I3
ssg63
Nsg56
(lp660
sbasbasbasbag49
(g65
g51
NtRp661
(dp662
g54
(dp663
sg63
g588
sg56
(lp664
g49
(g70
g51
NtRp665
(dp666
g54
(dp667
g74
g75
ssg63
g661
sg56
(lp668
S'cmd_options'
p669
asbag49
(g70
g51
NtRp670
(dp671
g54
(dp672
g81
g82
ssg63
g661
sg56
(lp673
S':'
asbag49
(g70
g51
NtRp674
(dp675
g54
(dp676
sg63
g661
sg56
(lp677
g49
(g50
g51
NtRp678
(dp679
g54
(dp680
g62
I4
ssg63
g674
sg56
(lp681
S"<Values at 0x30fc300: {'verbose': False, 'ip': '127.0.0.1', 'shutdown_timeout': 5, 'taskbar': False, 'nocron': False, 'pid_filename': 'httpserver.pid', 'maxthreads': None, 'softcron': False, 'server_name': 'Pedro-PC', 'bpython': False, 'nogui': False, 'port': 8000, 'extcron': False, 'debuglevel': 30, 'test': None, 'folder': 'C:\\\\web2py', 'config': '', 'import_models': False, 'winservice': '', 'shell': None, 'run': '', 'log_filename': 'httpserver.log', 'args': [''], 'socket_timeout': 5, 'ssl_ca_certificate': None, 'scheduler': None, 'profiler_filename': None, 'ssl_private_key': '', 'password': '<ask>', 'request_queue_size': 5, 'ssl_certificate': '', 'cronjob': False, 'numthreads': None, 'quiet': False, 'interfaces': None, 'minthreads': None, 'timeout': 10, 'plain': False, 'nobanner': False}>"
p682
asbasbasbag49
(g65
g51
NtRp683
(dp684
g54
(dp685
sg63
g588
sg56
(lp686
g49
(g70
g51
NtRp687
(dp688
g54
(dp689
g74
g75
ssg63
g683
sg56
(lp690
S'db_sessions'
p691
asbag49
(g70
g51
NtRp692
(dp693
g54
(dp694
g81
g82
ssg63
g683
sg56
(lp695
S':'
asbag49
(g70
g51
NtRp696
(dp697
g54
(dp698
sg63
g683
sg56
(lp699
g49
(g50
g51
NtRp700
(dp701
g54
(dp702
g62
I4
ssg63
g696
sg56
(lp703
S'set([])'
p704
asbasbasbag49
(g65
g51
NtRp705
(dp706
g54
(dp707
sg63
g588
sg56
(lp708
g49
(g70
g51
NtRp709
(dp710
g54
(dp711
g74
g75
ssg63
g705
sg56
(lp712
S'debugging'
p713
asbag49
(g70
g51
NtRp714
(dp715
g54
(dp716
g81
g82
ssg63
g705
sg56
(lp717
S':'
asbag49
(g70
g51
NtRp718
(dp719
g54
(dp720
sg63
g705
sg56
(lp721
g49
(g50
g51
NtRp722
(dp723
g54
(dp724
g62
I4
ssg63
g718
sg56
(lp725
g92
asbasbasbag49
(g65
g51
NtRp726
(dp727
g54
(dp728
sg63
g588
sg56
(lp729
g49
(g70
g51
NtRp730
(dp731
g54
(dp732
g74
g75
ssg63
g726
sg56
(lp733
S'gluon_parent'
p734
asbag49
(g70
g51
NtRp735
(dp736
g54
(dp737
g81
g82
ssg63
g726
sg56
(lp738
S':'
asbag49
(g70
g51
NtRp739
(dp740
g54
(dp741
sg63
g726
sg56
(lp742
g49
(g50
g51
NtRp743
(dp744
g54
(dp745
g62
I4
ssg63
g739
sg56
(lp746
S'C:\\web2py'
p747
asbasbasbag49
(g65
g51
NtRp748
(dp749
g54
(dp750
sg63
g588
sg56
(lp751
g49
(g70
g51
NtRp752
(dp753
g54
(dp754
g74
g75
ssg63
g748
sg56
(lp755
S'http_accept'
p756
asbag49
(g70
g51
NtRp757
(dp758
g54
(dp759
g81
g82
ssg63
g748
sg56
(lp760
S':'
asbag49
(g70
g51
NtRp761
(dp762
g54
(dp763
sg63
g748
sg56
(lp764
g49
(g50
g51
NtRp765
(dp766
g54
(dp767
g62
I4
ssg63
g761
sg56
(lp768
S'text/html,application/xhtml+xml,application/xml;q=0.9,*/*;q=0.8'
p769
asbasbasbag49
(g65
g51
NtRp770
(dp771
g54
(dp772
sg63
g588
sg56
(lp773
g49
(g70
g51
NtRp774
(dp775
g54
(dp776
g74
g75
ssg63
g770
sg56
(lp777
S'http_accept_charset'
p778
asbag49
(g70
g51
NtRp779
(dp780
g54
(dp781
g81
g82
ssg63
g770
sg56
(lp782
S':'
asbag49
(g70
g51
NtRp783
(dp784
g54
(dp785
sg63
g770
sg56
(lp786
g49
(g50
g51
NtRp787
(dp788
g54
(dp789
g62
I4
ssg63
g783
sg56
(lp790
S'ISO-8859-1,utf-8;q=0.7,*;q=0.3'
p791
asbasbasbag49
(g65
g51
NtRp792
(dp793
g54
(dp794
sg63
g588
sg56
(lp795
g49
(g70
g51
NtRp796
(dp797
g54
(dp798
g74
g75
ssg63
g792
sg56
(lp799
S'http_accept_encoding'
p800
asbag49
(g70
g51
NtRp801
(dp802
g54
(dp803
g81
g82
ssg63
g792
sg56
(lp804
S':'
asbag49
(g70
g51
NtRp805
(dp806
g54
(dp807
sg63
g792
sg56
(lp808
g49
(g50
g51
NtRp809
(dp810
g54
(dp811
g62
I4
ssg63
g805
sg56
(lp812
S'gzip,deflate,sdch'
p813
asbasbasbag49
(g65
g51
NtRp814
(dp815
g54
(dp816
sg63
g588
sg56
(lp817
g49
(g70
g51
NtRp818
(dp819
g54
(dp820
g74
g75
ssg63
g814
sg56
(lp821
S'http_accept_language'
p822
asbag49
(g70
g51
NtRp823
(dp824
g54
(dp825
g81
g82
ssg63
g814
sg56
(lp826
S':'
asbag49
(g70
g51
NtRp827
(dp828
g54
(dp829
sg63
g814
sg56
(lp830
g49
(g50
g51
NtRp831
(dp832
g54
(dp833
g62
I4
ssg63
g827
sg56
(lp834
S'pt-BR,pt;q=0.8,en-US;q=0.6,en;q=0.4'
p835
asbasbasbag49
(g65
g51
NtRp836
(dp837
g54
(dp838
sg63
g588
sg56
(lp839
g49
(g70
g51
NtRp840
(dp841
g54
(dp842
g74
g75
ssg63
g836
sg56
(lp843
S'http_connection'
p844
asbag49
(g70
g51
NtRp845
(dp846
g54
(dp847
g81
g82
ssg63
g836
sg56
(lp848
S':'
asbag49
(g70
g51
NtRp849
(dp850
g54
(dp851
sg63
g836
sg56
(lp852
g49
(g50
g51
NtRp853
(dp854
g54
(dp855
g62
I4
ssg63
g849
sg56
(lp856
S'keep-alive'
p857
asbasbasbag49
(g65
g51
NtRp858
(dp859
g54
(dp860
sg63
g588
sg56
(lp861
g49
(g70
g51
NtRp862
(dp863
g54
(dp864
g74
g75
ssg63
g858
sg56
(lp865
S'http_cookie'
p866
asbag49
(g70
g51
NtRp867
(dp868
g54
(dp869
g81
g82
ssg63
g858
sg56
(lp870
S':'
asbag49
(g70
g51
NtRp871
(dp872
g54
(dp873
sg63
g858
sg56
(lp874
g49
(g50
g51
NtRp875
(dp876
g54
(dp877
g62
I4
ssg63
g871
sg56
(lp878
S'session_id_admin=127.0.0.1-cc566d59-dba8-48ee-8cf4-2064528a917b; session_id_unioeste_code=127.0.0.1-e2123eb0-50ff-4f28-8e81-a6ab4f6057bb'
p879
asbasbasbag49
(g65
g51
NtRp880
(dp881
g54
(dp882
sg63
g588
sg56
(lp883
g49
(g70
g51
NtRp884
(dp885
g54
(dp886
g74
g75
ssg63
g880
sg56
(lp887
S'http_dnt'
p888
asbag49
(g70
g51
NtRp889
(dp890
g54
(dp891
g81
g82
ssg63
g880
sg56
(lp892
S':'
asbag49
(g70
g51
NtRp893
(dp894
g54
(dp895
sg63
g880
sg56
(lp896
g49
(g50
g51
NtRp897
(dp898
g54
(dp899
g62
I4
ssg63
g893
sg56
(lp900
S'1'
asbasbasbag49
(g65
g51
NtRp901
(dp902
g54
(dp903
sg63
g588
sg56
(lp904
g49
(g70
g51
NtRp905
(dp906
g54
(dp907
g74
g75
ssg63
g901
sg56
(lp908
S'http_host'
p909
asbag49
(g70
g51
NtRp910
(dp911
g54
(dp912
g81
g82
ssg63
g901
sg56
(lp913
S':'
asbag49
(g70
g51
NtRp914
(dp915
g54
(dp916
sg63
g901
sg56
(lp917
g49
(g50
g51
NtRp918
(dp919
g54
(dp920
g62
I4
ssg63
g914
sg56
(lp921
S'localhost:8000'
p922
asbasbasbag49
(g65
g51
NtRp923
(dp924
g54
(dp925
sg63
g588
sg56
(lp926
g49
(g70
g51
NtRp927
(dp928
g54
(dp929
g74
g75
ssg63
g923
sg56
(lp930
S'http_user_agent'
p931
asbag49
(g70
g51
NtRp932
(dp933
g54
(dp934
g81
g82
ssg63
g923
sg56
(lp935
S':'
asbag49
(g70
g51
NtRp936
(dp937
g54
(dp938
sg63
g923
sg56
(lp939
g49
(g50
g51
NtRp940
(dp941
g54
(dp942
g62
I4
ssg63
g936
sg56
(lp943
S'Mozilla/5.0 (Windows NT 6.1; WOW64) AppleWebKit/536.11 (KHTML, like Gecko) Chrome/20.0.1132.57 Safari/536.11'
p944
asbasbasbag49
(g65
g51
NtRp945
(dp946
g54
(dp947
sg63
g588
sg56
(lp948
g49
(g70
g51
NtRp949
(dp950
g54
(dp951
g74
g75
ssg63
g945
sg56
(lp952
S'is_jython'
p953
asbag49
(g70
g51
NtRp954
(dp955
g54
(dp956
g81
g82
ssg63
g945
sg56
(lp957
S':'
asbag49
(g70
g51
NtRp958
(dp959
g54
(dp960
sg63
g945
sg56
(lp961
g49
(g50
g51
NtRp962
(dp963
g54
(dp964
g62
I4
ssg63
g958
sg56
(lp965
g92
asbasbasbag49
(g65
g51
NtRp966
(dp967
g54
(dp968
sg63
g588
sg56
(lp969
g49
(g70
g51
NtRp970
(dp971
g54
(dp972
g74
g75
ssg63
g966
sg56
(lp973
S'is_pypy'
p974
asbag49
(g70
g51
NtRp975
(dp976
g54
(dp977
g81
g82
ssg63
g966
sg56
(lp978
S':'
asbag49
(g70
g51
NtRp979
(dp980
g54
(dp981
sg63
g966
sg56
(lp982
g49
(g50
g51
NtRp983
(dp984
g54
(dp985
g62
I4
ssg63
g979
sg56
(lp986
g92
asbasbasbag49
(g65
g51
NtRp987
(dp988
g54
(dp989
sg63
g588
sg56
(lp990
g49
(g70
g51
NtRp991
(dp992
g54
(dp993
g74
g75
ssg63
g987
sg56
(lp994
S'path_info'
p995
asbag49
(g70
g51
NtRp996
(dp997
g54
(dp998
g81
g82
ssg63
g987
sg56
(lp999
S':'
asbag49
(g70
g51
NtRp1000
(dp1001
g54
(dp1002
sg63
g987
sg56
(lp1003
g49
(g50
g51
NtRp1004
(dp1005
g54
(dp1006
g62
I4
ssg63
g1000
sg56
(lp1007
S'/unioeste_code/'
p1008
asbasbasbag49
(g65
g51
NtRp1009
(dp1010
g54
(dp1011
sg63
g588
sg56
(lp1012
g49
(g70
g51
NtRp1013
(dp1014
g54
(dp1015
g74
g75
ssg63
g1009
sg56
(lp1016
S'query_string'
p1017
asbag49
(g70
g51
NtRp1018
(dp1019
g54
(dp1020
g81
g82
ssg63
g1009
sg56
(lp1021
S':'
asbag49
(g70
g51
NtRp1022
(dp1023
g54
(dp1024
sg63
g1009
sg56
(lp1025
g49
(g50
g51
NtRp1026
(dp1027
g54
(dp1028
g62
I4
ssg63
g1022
sg56
(lp1029
S''
asbasbasbag49
(g65
g51
NtRp1030
(dp1031
g54
(dp1032
sg63
g588
sg56
(lp1033
g49
(g70
g51
NtRp1034
(dp1035
g54
(dp1036
g74
g75
ssg63
g1030
sg56
(lp1037
S'remote_addr'
p1038
asbag49
(g70
g51
NtRp1039
(dp1040
g54
(dp1041
g81
g82
ssg63
g1030
sg56
(lp1042
S':'
asbag49
(g70
g51
NtRp1043
(dp1044
g54
(dp1045
sg63
g1030
sg56
(lp1046
g49
(g50
g51
NtRp1047
(dp1048
g54
(dp1049
g62
I4
ssg63
g1043
sg56
(lp1050
g182
asbasbasbag49
(g65
g51
NtRp1051
(dp1052
g54
(dp1053
sg63
g588
sg56
(lp1054
g49
(g70
g51
NtRp1055
(dp1056
g54
(dp1057
g74
g75
ssg63
g1051
sg56
(lp1058
S'remote_port'
p1059
asbag49
(g70
g51
NtRp1060
(dp1061
g54
(dp1062
g81
g82
ssg63
g1051
sg56
(lp1063
S':'
asbag49
(g70
g51
NtRp1064
(dp1065
g54
(dp1066
sg63
g1051
sg56
(lp1067
g49
(g50
g51
NtRp1068
(dp1069
g54
(dp1070
g62
I4
ssg63
g1064
sg56
(lp1071
S'1750'
p1072
asbasbasbag49
(g65
g51
NtRp1073
(dp1074
g54
(dp1075
sg63
g588
sg56
(lp1076
g49
(g70
g51
NtRp1077
(dp1078
g54
(dp1079
g74
g75
ssg63
g1073
sg56
(lp1080
S'request_method'
p1081
asbag49
(g70
g51
NtRp1082
(dp1083
g54
(dp1084
g81
g82
ssg63
g1073
sg56
(lp1085
S':'
asbag49
(g70
g51
NtRp1086
(dp1087
g54
(dp1088
sg63
g1073
sg56
(lp1089
g49
(g50
g51
NtRp1090
(dp1091
g54
(dp1092
g62
I4
ssg63
g1086
sg56
(lp1093
S'GET'
p1094
asbasbasbag49
(g65
g51
NtRp1095
(dp1096
g54
(dp1097
sg63
g588
sg56
(lp1098
g49
(g70
g51
NtRp1099
(dp1100
g54
(dp1101
g74
g75
ssg63
g1095
sg56
(lp1102
S'script_name'
p1103
asbag49
(g70
g51
NtRp1104
(dp1105
g54
(dp1106
g81
g82
ssg63
g1095
sg56
(lp1107
S':'
asbag49
(g70
g51
NtRp1108
(dp1109
g54
(dp1110
sg63
g1095
sg56
(lp1111
g49
(g50
g51
NtRp1112
(dp1113
g54
(dp1114
g62
I4
ssg63
g1108
sg56
(lp1115
S''
asbasbasbag49
(g65
g51
NtRp1116
(dp1117
g54
(dp1118
sg63
g588
sg56
(lp1119
g49
(g70
g51
NtRp1120
(dp1121
g54
(dp1122
g74
g75
ssg63
g1116
sg56
(lp1123
S'server_name'
p1124
asbag49
(g70
g51
NtRp1125
(dp1126
g54
(dp1127
g81
g82
ssg63
g1116
sg56
(lp1128
S':'
asbag49
(g70
g51
NtRp1129
(dp1130
g54
(dp1131
sg63
g1116
sg56
(lp1132
g49
(g50
g51
NtRp1133
(dp1134
g54
(dp1135
g62
I4
ssg63
g1129
sg56
(lp1136
S'Pedro-PC'
p1137
asbasbasbag49
(g65
g51
NtRp1138
(dp1139
g54
(dp1140
sg63
g588
sg56
(lp1141
g49
(g70
g51
NtRp1142
(dp1143
g54
(dp1144
g74
g75
ssg63
g1138
sg56
(lp1145
S'server_port'
p1146
asbag49
(g70
g51
NtRp1147
(dp1148
g54
(dp1149
g81
g82
ssg63
g1138
sg56
(lp1150
S':'
asbag49
(g70
g51
NtRp1151
(dp1152
g54
(dp1153
sg63
g1138
sg56
(lp1154
g49
(g50
g51
NtRp1155
(dp1156
g54
(dp1157
g62
I4
ssg63
g1151
sg56
(lp1158
S'8000'
p1159
asbasbasbag49
(g65
g51
NtRp1160
(dp1161
g54
(dp1162
sg63
g588
sg56
(lp1163
g49
(g70
g51
NtRp1164
(dp1165
g54
(dp1166
g74
g75
ssg63
g1160
sg56
(lp1167
S'server_protocol'
p1168
asbag49
(g70
g51
NtRp1169
(dp1170
g54
(dp1171
g81
g82
ssg63
g1160
sg56
(lp1172
S':'
asbag49
(g70
g51
NtRp1173
(dp1174
g54
(dp1175
sg63
g1160
sg56
(lp1176
g49
(g50
g51
NtRp1177
(dp1178
g54
(dp1179
g62
I4
ssg63
g1173
sg56
(lp1180
S'HTTP/1.1'
p1181
asbasbasbag49
(g65
g51
NtRp1182
(dp1183
g54
(dp1184
sg63
g588
sg56
(lp1185
g49
(g70
g51
NtRp1186
(dp1187
g54
(dp1188
g74
g75
ssg63
g1182
sg56
(lp1189
S'server_software'
p1190
asbag49
(g70
g51
NtRp1191
(dp1192
g54
(dp1193
g81
g82
ssg63
g1182
sg56
(lp1194
S':'
asbag49
(g70
g51
NtRp1195
(dp1196
g54
(dp1197
sg63
g1182
sg56
(lp1198
g49
(g50
g51
NtRp1199
(dp1200
g54
(dp1201
g62
I4
ssg63
g1195
sg56
(lp1202
S'Rocket 1.2.4'
p1203
asbasbasbag49
(g65
g51
NtRp1204
(dp1205
g54
(dp1206
sg63
g588
sg56
(lp1207
g49
(g70
g51
NtRp1208
(dp1209
g54
(dp1210
g74
g75
ssg63
g1204
sg56
(lp1211
S'web2py_crontype'
p1212
asbag49
(g70
g51
NtRp1213
(dp1214
g54
(dp1215
g81
g82
ssg63
g1204
sg56
(lp1216
S':'
asbag49
(g70
g51
NtRp1217
(dp1218
g54
(dp1219
sg63
g1204
sg56
(lp1220
g49
(g50
g51
NtRp1221
(dp1222
g54
(dp1223
g62
I4
ssg63
g1217
sg56
(lp1224
S'hard'
p1225
asbasbasbag49
(g65
g51
NtRp1226
(dp1227
g54
(dp1228
sg63
g588
sg56
(lp1229
g49
(g70
g51
NtRp1230
(dp1231
g54
(dp1232
g74
g75
ssg63
g1226
sg56
(lp1233
S'web2py_path'
p1234
asbag49
(g70
g51
NtRp1235
(dp1236
g54
(dp1237
g81
g82
ssg63
g1226
sg56
(lp1238
S':'
asbag49
(g70
g51
NtRp1239
(dp1240
g54
(dp1241
sg63
g1226
sg56
(lp1242
g49
(g50
g51
NtRp1243
(dp1244
g54
(dp1245
g62
I4
ssg63
g1239
sg56
(lp1246
g635
asbasbasbag49
(g65
g51
NtRp1247
(dp1248
g54
(dp1249
sg63
g588
sg56
(lp1250
g49
(g70
g51
NtRp1251
(dp1252
g54
(dp1253
g74
g75
ssg63
g1247
sg56
(lp1254
S'web2py_version'
p1255
asbag49
(g70
g51
NtRp1256
(dp1257
g54
(dp1258
g81
g82
ssg63
g1247
sg56
(lp1259
S':'
asbag49
(g70
g51
NtRp1260
(dp1261
g54
(dp1262
sg63
g1247
sg56
(lp1263
g49
(g50
g51
NtRp1264
(dp1265
g54
(dp1266
g62
I4
ssg63
g1260
sg56
(lp1267
g49
(g58
g51
NtRp1268
(dp1269
g54
(dp1270
g62
I3
ssg63
Nsg56
(lp1271
g49
(g65
g51
NtRp1272
(dp1273
g54
(dp1274
sg63
g1268
sg56
(lp1275
g49
(g70
g51
NtRp1276
(dp1277
g54
(dp1278
sg63
g1272
sg56
(lp1279
g49
(g50
g51
NtRp1280
(dp1281
g54
(dp1282
g62
I3
ssg63
g1276
sg56
(lp1283
S'1'
asbasbasbag49
(g65
g51
NtRp1284
(dp1285
g54
(dp1286
sg63
g1268
sg56
(lp1287
g49
(g70
g51
NtRp1288
(dp1289
g54
(dp1290
sg63
g1284
sg56
(lp1291
g49
(g50
g51
NtRp1292
(dp1293
g54
(dp1294
g62
I3
ssg63
g1288
sg56
(lp1295
S'99'
p1296
asbasbasbag49
(g65
g51
NtRp1297
(dp1298
g54
(dp1299
sg63
g1268
sg56
(lp1300
g49
(g70
g51
NtRp1301
(dp1302
g54
(dp1303
sg63
g1297
sg56
(lp1304
g49
(g50
g51
NtRp1305
(dp1306
g54
(dp1307
g62
I3
ssg63
g1301
sg56
(lp1308
S'7'
asbasbasbag49
(g65
g51
NtRp1309
(dp1310
g54
(dp1311
sg63
g1268
sg56
(lp1312
g49
(g70
g51
NtRp1313
(dp1314
g54
(dp1315
sg63
g1309
sg56
(lp1316
g49
(g50
g51
NtRp1317
(dp1318
g54
(dp1319
g62
I3
ssg63
g1313
sg56
(lp1320
S'datetime.datetime(2012, 3, 4, 22, 12, 8)'
p1321
asbasbasbag49
(g65
g51
NtRp1322
(dp1323
g54
(dp1324
sg63
g1268
sg56
(lp1325
g49
(g70
g51
NtRp1326
(dp1327
g54
(dp1328
sg63
g1322
sg56
(lp1329
g49
(g50
g51
NtRp1330
(dp1331
g54
(dp1332
g62
I3
ssg63
g1326
sg56
(lp1333
S'stable'
p1334
asbasbasbasbasbasbasbag49
(g65
g51
NtRp1335
(dp1336
g54
(dp1337
sg63
g588
sg56
(lp1338
g49
(g70
g51
NtRp1339
(dp1340
g54
(dp1341
g74
g75
ssg63
g1335
sg56
(lp1342
S'wsgi_errors'
p1343
asbag49
(g70
g51
NtRp1344
(dp1345
g54
(dp1346
g81
g82
ssg63
g1335
sg56
(lp1347
S':'
asbag49
(g70
g51
NtRp1348
(dp1349
g54
(dp1350
sg63
g1335
sg56
(lp1351
g49
(g50
g51
NtRp1352
(dp1353
g54
(dp1354
g62
I4
ssg63
g1348
sg56
(lp1355
S'<__main__.Stderr object at 0x00486670>'
p1356
asbasbasbag49
(g65
g51
NtRp1357
(dp1358
g54
(dp1359
sg63
g588
sg56
(lp1360
g49
(g70
g51
NtRp1361
(dp1362
g54
(dp1363
g74
g75
ssg63
g1357
sg56
(lp1364
S'wsgi_file_wrapper'
p1365
asbag49
(g70
g51
NtRp1366
(dp1367
g54
(dp1368
g81
g82
ssg63
g1357
sg56
(lp1369
S':'
asbag49
(g70
g51
NtRp1370
(dp1371
g54
(dp1372
sg63
g1357
sg56
(lp1373
g49
(g50
g51
NtRp1374
(dp1375
g54
(dp1376
g62
I4
ssg63
g1370
sg56
(lp1377
S'<class wsgiref.util.FileWrapper at 0x02EEDE10>'
p1378
asbasbasbag49
(g65
g51
NtRp1379
(dp1380
g54
(dp1381
sg63
g588
sg56
(lp1382
g49
(g70
g51
NtRp1383
(dp1384
g54
(dp1385
g74
g75
ssg63
g1379
sg56
(lp1386
S'wsgi_input'
p1387
asbag49
(g70
g51
NtRp1388
(dp1389
g54
(dp1390
g81
g82
ssg63
g1379
sg56
(lp1391
S':'
asbag49
(g70
g51
NtRp1392
(dp1393
g54
(dp1394
sg63
g1379
sg56
(lp1395
g49
(g50
g51
NtRp1396
(dp1397
g54
(dp1398
g62
I4
ssg63
g1392
sg56
(lp1399
S'<socket._fileobject object at 0x06B60170>'
p1400
asbasbasbag49
(g65
g51
NtRp1401
(dp1402
g54
(dp1403
sg63
g588
sg56
(lp1404
g49
(g70
g51
NtRp1405
(dp1406
g54
(dp1407
g74
g75
ssg63
g1401
sg56
(lp1408
S'wsgi_multiprocess'
p1409
asbag49
(g70
g51
NtRp1410
(dp1411
g54
(dp1412
g81
g82
ssg63
g1401
sg56
(lp1413
S':'
asbag49
(g70
g51
NtRp1414
(dp1415
g54
(dp1416
sg63
g1401
sg56
(lp1417
g49
(g50
g51
NtRp1418
(dp1419
g54
(dp1420
g62
I4
ssg63
g1414
sg56
(lp1421
g92
asbasbasbag49
(g65
g51
NtRp1422
(dp1423
g54
(dp1424
sg63
g588
sg56
(lp1425
g49
(g70
g51
NtRp1426
(dp1427
g54
(dp1428
g74
g75
ssg63
g1422
sg56
(lp1429
S'wsgi_multithread'
p1430
asbag49
(g70
g51
NtRp1431
(dp1432
g54
(dp1433
g81
g82
ssg63
g1422
sg56
(lp1434
S':'
asbag49
(g70
g51
NtRp1435
(dp1436
g54
(dp1437
sg63
g1422
sg56
(lp1438
g49
(g50
g51
NtRp1439
(dp1440
g54
(dp1441
g62
I4
ssg63
g1435
sg56
(lp1442
S'True'
p1443
asbasbasbag49
(g65
g51
NtRp1444
(dp1445
g54
(dp1446
sg63
g588
sg56
(lp1447
g49
(g70
g51
NtRp1448
(dp1449
g54
(dp1450
g74
g75
ssg63
g1444
sg56
(lp1451
S'wsgi_run_once'
p1452
asbag49
(g70
g51
NtRp1453
(dp1454
g54
(dp1455
g81
g82
ssg63
g1444
sg56
(lp1456
S':'
asbag49
(g70
g51
NtRp1457
(dp1458
g54
(dp1459
sg63
g1444
sg56
(lp1460
g49
(g50
g51
NtRp1461
(dp1462
g54
(dp1463
g62
I4
ssg63
g1457
sg56
(lp1464
g92
asbasbasbag49
(g65
g51
NtRp1465
(dp1466
g54
(dp1467
sg63
g588
sg56
(lp1468
g49
(g70
g51
NtRp1469
(dp1470
g54
(dp1471
g74
g75
ssg63
g1465
sg56
(lp1472
S'wsgi_url_scheme'
p1473
asbag49
(g70
g51
NtRp1474
(dp1475
g54
(dp1476
g81
g82
ssg63
g1465
sg56
(lp1477
S':'
asbag49
(g70
g51
NtRp1478
(dp1479
g54
(dp1480
sg63
g1465
sg56
(lp1481
g49
(g50
g51
NtRp1482
(dp1483
g54
(dp1484
g62
I4
ssg63
g1478
sg56
(lp1485
S'http'
p1486
asbasbasbag49
(g65
g51
NtRp1487
(dp1488
g54
(dp1489
sg63
g588
sg56
(lp1490
g49
(g70
g51
NtRp1491
(dp1492
g54
(dp1493
g74
g75
ssg63
g1487
sg56
(lp1494
S'wsgi_version'
p1495
asbag49
(g70
g51
NtRp1496
(dp1497
g54
(dp1498
g81
g82
ssg63
g1487
sg56
(lp1499
S':'
asbag49
(g70
g51
NtRp1500
(dp1501
g54
(dp1502
sg63
g1487
sg56
(lp1503
g49
(g50
g51
NtRp1504
(dp1505
g54
(dp1506
g62
I4
ssg63
g1500
sg56
(lp1507
g49
(g58
g51
NtRp1508
(dp1509
g54
(dp1510
g62
I3
ssg63
Nsg56
(lp1511
g49
(g65
g51
NtRp1512
(dp1513
g54
(dp1514
sg63
g1508
sg56
(lp1515
g49
(g70
g51
NtRp1516
(dp1517
g54
(dp1518
sg63
g1512
sg56
(lp1519
g49
(g50
g51
NtRp1520
(dp1521
g54
(dp1522
g62
I3
ssg63
g1516
sg56
(lp1523
S'1'
asbasbasbag49
(g65
g51
NtRp1524
(dp1525
g54
(dp1526
sg63
g1508
sg56
(lp1527
g49
(g70
g51
NtRp1528
(dp1529
g54
(dp1530
sg63
g1524
sg56
(lp1531
g49
(g50
g51
NtRp1532
(dp1533
g54
(dp1534
g62
I3
ssg63
g1528
sg56
(lp1535
S'0'
asbasbasbasbasbasbasbasbasbasbasbag49
(g65
g51
NtRp1536
(dp1537
g54
(dp1538
sg63
g59
sg56
(lp1539
g49
(g70
g51
NtRp1540
(dp1541
g54
(dp1542
g74
g75
ssg63
g1536
sg56
(lp1543
S'extension'
p1544
asbag49
(g70
g51
NtRp1545
(dp1546
g54
(dp1547
g81
g82
ssg63
g1536
sg56
(lp1548
S':'
asbag49
(g70
g51
NtRp1549
(dp1550
g54
(dp1551
sg63
g1536
sg56
(lp1552
g49
(g50
g51
NtRp1553
(dp1554
g54
(dp1555
g62
I5
ssg63
g1549
sg56
(lp1556
S'html'
p1557
asbasbasbag49
(g65
g51
NtRp1558
(dp1559
g54
(dp1560
sg63
g59
sg56
(lp1561
g49
(g70
g51
NtRp1562
(dp1563
g54
(dp1564
g74
g75
ssg63
g1558
sg56
(lp1565
S'folder'
p1566
asbag49
(g70
g51
NtRp1567
(dp1568
g54
(dp1569
g81
g82
ssg63
g1558
sg56
(lp1570
S':'
asbag49
(g70
g51
NtRp1571
(dp1572
g54
(dp1573
sg63
g1558
sg56
(lp1574
g49
(g50
g51
NtRp1575
(dp1576
g54
(dp1577
g62
I5
ssg63
g1571
sg56
(lp1578
S'C:\\web2py\\applications\\unioeste_code\\'
p1579
asbasbasbag49
(g65
g51
NtRp1580
(dp1581
g54
(dp1582
sg63
g59
sg56
(lp1583
g49
(g70
g51
NtRp1584
(dp1585
g54
(dp1586
g74
g75
ssg63
g1580
sg56
(lp1587
S'function'
p1588
asbag49
(g70
g51
NtRp1589
(dp1590
g54
(dp1591
g81
g82
ssg63
g1580
sg56
(lp1592
S':'
asbag49
(g70
g51
NtRp1593
(dp1594
g54
(dp1595
sg63
g1580
sg56
(lp1596
g49
(g50
g51
NtRp1597
(dp1598
g54
(dp1599
g62
I5
ssg63
g1593
sg56
(lp1600
S'index'
p1601
asbasbasbag49
(g65
g51
NtRp1602
(dp1603
g54
(dp1604
sg63
g59
sg56
(lp1605
g49
(g70
g51
NtRp1606
(dp1607
g54
(dp1608
g74
g75
ssg63
g1602
sg56
(lp1609
S'get_vars'
p1610
asbag49
(g70
g51
NtRp1611
(dp1612
g54
(dp1613
g81
g82
ssg63
g1602
sg56
(lp1614
S':'
asbag49
(g70
g51
NtRp1615
(dp1616
g54
(dp1617
sg63
g1602
sg56
(lp1618
g49
(g50
g51
NtRp1619
(dp1620
g54
(dp1621
g62
I5
ssg63
g1615
sg56
(lp1622
g49
(g58
g51
NtRp1623
(dp1624
g54
(dp1625
g62
I4
ssg63
Nsg56
(lp1626
sbasbasbasbag49
(g65
g51
NtRp1627
(dp1628
g54
(dp1629
sg63
g59
sg56
(lp1630
g49
(g70
g51
NtRp1631
(dp1632
g54
(dp1633
g74
g75
ssg63
g1627
sg56
(lp1634
S'global_settings'
p1635
asbag49
(g70
g51
NtRp1636
(dp1637
g54
(dp1638
g81
g82
ssg63
g1627
sg56
(lp1639
S':'
asbag49
(g70
g51
NtRp1640
(dp1641
g54
(dp1642
sg63
g1627
sg56
(lp1643
g49
(g50
g51
NtRp1644
(dp1645
g54
(dp1646
g62
I5
ssg63
g1640
sg56
(lp1647
g49
(g58
g51
NtRp1648
(dp1649
g54
(dp1650
g62
I4
ssg63
Nsg56
(lp1651
g49
(g65
g51
NtRp1652
(dp1653
g54
(dp1654
sg63
g1648
sg56
(lp1655
g49
(g70
g51
NtRp1656
(dp1657
g54
(dp1658
g74
g75
ssg63
g1652
sg56
(lp1659
g600
asbag49
(g70
g51
NtRp1660
(dp1661
g54
(dp1662
g81
g82
ssg63
g1652
sg56
(lp1663
S':'
asbag49
(g70
g51
NtRp1664
(dp1665
g54
(dp1666
sg63
g1652
sg56
(lp1667
g49
(g50
g51
NtRp1668
(dp1669
g54
(dp1670
g62
I4
ssg63
g1664
sg56
(lp1671
S"set(['C:\\\\web2py\\\\applications\\\\admin\\\\', 'C:\\\\web2py\\\\applications\\\\welcome\\\\', 'C:\\\\web2py\\\\applications\\\\unioeste_code\\\\'])"
p1672
asbasbasbag49
(g65
g51
NtRp1673
(dp1674
g54
(dp1675
sg63
g1648
sg56
(lp1676
g49
(g70
g51
NtRp1677
(dp1678
g54
(dp1679
g74
g75
ssg63
g1673
sg56
(lp1680
g622
asbag49
(g70
g51
NtRp1681
(dp1682
g54
(dp1683
g81
g82
ssg63
g1673
sg56
(lp1684
S':'
asbag49
(g70
g51
NtRp1685
(dp1686
g54
(dp1687
sg63
g1673
sg56
(lp1688
g49
(g50
g51
NtRp1689
(dp1690
g54
(dp1691
g62
I4
ssg63
g1685
sg56
(lp1692
g635
asbasbasbag49
(g65
g51
NtRp1693
(dp1694
g54
(dp1695
sg63
g1648
sg56
(lp1696
g49
(g70
g51
NtRp1697
(dp1698
g54
(dp1699
g74
g75
ssg63
g1693
sg56
(lp1700
g644
asbag49
(g70
g51
NtRp1701
(dp1702
g54
(dp1703
g81
g82
ssg63
g1693
sg56
(lp1704
S':'
asbag49
(g70
g51
NtRp1705
(dp1706
g54
(dp1707
sg63
g1693
sg56
(lp1708
g49
(g50
g51
NtRp1709
(dp1710
g54
(dp1711
g62
I4
ssg63
g1705
sg56
(lp1712
g49
(g58
g51
NtRp1713
(dp1714
g54
(dp1715
g62
I3
ssg63
Nsg56
(lp1716
sbasbasbasbag49
(g65
g51
NtRp1717
(dp1718
g54
(dp1719
sg63
g1648
sg56
(lp1720
g49
(g70
g51
NtRp1721
(dp1722
g54
(dp1723
g74
g75
ssg63
g1717
sg56
(lp1724
g669
asbag49
(g70
g51
NtRp1725
(dp1726
g54
(dp1727
g81
g82
ssg63
g1717
sg56
(lp1728
S':'
asbag49
(g70
g51
NtRp1729
(dp1730
g54
(dp1731
sg63
g1717
sg56
(lp1732
g49
(g50
g51
NtRp1733
(dp1734
g54
(dp1735
g62
I4
ssg63
g1729
sg56
(lp1736
S"<Values at 0x30fc300: {'verbose': False, 'ip': '127.0.0.1', 'shutdown_timeout': 5, 'taskbar': False, 'nocron': False, 'pid_filename': 'httpserver.pid', 'maxthreads': None, 'softcron': False, 'server_name': 'Pedro-PC', 'bpython': False, 'nogui': False, 'port': 8000, 'extcron': False, 'debuglevel': 30, 'test': None, 'folder': 'C:\\\\web2py', 'config': '', 'import_models': False, 'winservice': '', 'shell': None, 'run': '', 'log_filename': 'httpserver.log', 'args': [''], 'socket_timeout': 5, 'ssl_ca_certificate': None, 'scheduler': None, 'profiler_filename': None, 'ssl_private_key': '', 'password': '<ask>', 'request_queue_size': 5, 'ssl_certificate': '', 'cronjob': False, 'numthreads': None, 'quiet': False, 'interfaces': None, 'minthreads': None, 'timeout': 10, 'plain': False, 'nobanner': False}>"
p1737
asbasbasbag49
(g65
g51
NtRp1738
(dp1739
g54
(dp1740
sg63
g1648
sg56
(lp1741
g49
(g70
g51
NtRp1742
(dp1743
g54
(dp1744
g74
g75
ssg63
g1738
sg56
(lp1745
g691
asbag49
(g70
g51
NtRp1746
(dp1747
g54
(dp1748
g81
g82
ssg63
g1738
sg56
(lp1749
S':'
asbag49
(g70
g51
NtRp1750
(dp1751
g54
(dp1752
sg63
g1738
sg56
(lp1753
g49
(g50
g51
NtRp1754
(dp1755
g54
(dp1756
g62
I4
ssg63
g1750
sg56
(lp1757
S'set([])'
p1758
asbasbasbag49
(g65
g51
NtRp1759
(dp1760
g54
(dp1761
sg63
g1648
sg56
(lp1762
g49
(g70
g51
NtRp1763
(dp1764
g54
(dp1765
g74
g75
ssg63
g1759
sg56
(lp1766
g713
asbag49
(g70
g51
NtRp1767
(dp1768
g54
(dp1769
g81
g82
ssg63
g1759
sg56
(lp1770
S':'
asbag49
(g70
g51
NtRp1771
(dp1772
g54
(dp1773
sg63
g1759
sg56
(lp1774
g49
(g50
g51
NtRp1775
(dp1776
g54
(dp1777
g62
I4
ssg63
g1771
sg56
(lp1778
g92
asbasbasbag49
(g65
g51
NtRp1779
(dp1780
g54
(dp1781
sg63
g1648
sg56
(lp1782
g49
(g70
g51
NtRp1783
(dp1784
g54
(dp1785
g74
g75
ssg63
g1779
sg56
(lp1786
g734
asbag49
(g70
g51
NtRp1787
(dp1788
g54
(dp1789
g81
g82
ssg63
g1779
sg56
(lp1790
S':'
asbag49
(g70
g51
NtRp1791
(dp1792
g54
(dp1793
sg63
g1779
sg56
(lp1794
g49
(g50
g51
NtRp1795
(dp1796
g54
(dp1797
g62
I4
ssg63
g1791
sg56
(lp1798
g747
asbasbasbag49
(g65
g51
NtRp1799
(dp1800
g54
(dp1801
sg63
g1648
sg56
(lp1802
g49
(g70
g51
NtRp1803
(dp1804
g54
(dp1805
g74
g75
ssg63
g1799
sg56
(lp1806
g953
asbag49
(g70
g51
NtRp1807
(dp1808
g54
(dp1809
g81
g82
ssg63
g1799
sg56
(lp1810
S':'
asbag49
(g70
g51
NtRp1811
(dp1812
g54
(dp1813
sg63
g1799
sg56
(lp1814
g49
(g50
g51
NtRp1815
(dp1816
g54
(dp1817
g62
I4
ssg63
g1811
sg56
(lp1818
g92
asbasbasbag49
(g65
g51
NtRp1819
(dp1820
g54
(dp1821
sg63
g1648
sg56
(lp1822
g49
(g70
g51
NtRp1823
(dp1824
g54
(dp1825
g74
g75
ssg63
g1819
sg56
(lp1826
g974
asbag49
(g70
g51
NtRp1827
(dp1828
g54
(dp1829
g81
g82
ssg63
g1819
sg56
(lp1830
S':'
asbag49
(g70
g51
NtRp1831
(dp1832
g54
(dp1833
sg63
g1819
sg56
(lp1834
g49
(g50
g51
NtRp1835
(dp1836
g54
(dp1837
g62
I4
ssg63
g1831
sg56
(lp1838
g92
asbasbasbag49
(g65
g51
NtRp1839
(dp1840
g54
(dp1841
sg63
g1648
sg56
(lp1842
g49
(g70
g51
NtRp1843
(dp1844
g54
(dp1845
g74
g75
ssg63
g1839
sg56
(lp1846
g1212
asbag49
(g70
g51
NtRp1847
(dp1848
g54
(dp1849
g81
g82
ssg63
g1839
sg56
(lp1850
S':'
asbag49
(g70
g51
NtRp1851
(dp1852
g54
(dp1853
sg63
g1839
sg56
(lp1854
g49
(g50
g51
NtRp1855
(dp1856
g54
(dp1857
g62
I4
ssg63
g1851
sg56
(lp1858
g1225
asbasbasbag49
(g65
g51
NtRp1859
(dp1860
g54
(dp1861
sg63
g1648
sg56
(lp1862
g49
(g70
g51
NtRp1863
(dp1864
g54
(dp1865
g74
g75
ssg63
g1859
sg56
(lp1866
g1255
asbag49
(g70
g51
NtRp1867
(dp1868
g54
(dp1869
g81
g82
ssg63
g1859
sg56
(lp1870
S':'
asbag49
(g70
g51
NtRp1871
(dp1872
g54
(dp1873
sg63
g1859
sg56
(lp1874
g49
(g50
g51
NtRp1875
(dp1876
g54
(dp1877
g62
I4
ssg63
g1871
sg56
(lp1878
g49
(g58
g51
NtRp1879
(dp1880
g54
(dp1881
g62
I3
ssg63
Nsg56
(lp1882
g49
(g65
g51
NtRp1883
(dp1884
g54
(dp1885
sg63
g1879
sg56
(lp1886
g49
(g70
g51
NtRp1887
(dp1888
g54
(dp1889
sg63
g1883
sg56
(lp1890
g49
(g50
g51
NtRp1891
(dp1892
g54
(dp1893
g62
I3
ssg63
g1887
sg56
(lp1894
S'1'
asbasbasbag49
(g65
g51
NtRp1895
(dp1896
g54
(dp1897
sg63
g1879
sg56
(lp1898
g49
(g70
g51
NtRp1899
(dp1900
g54
(dp1901
sg63
g1895
sg56
(lp1902
g49
(g50
g51
NtRp1903
(dp1904
g54
(dp1905
g62
I3
ssg63
g1899
sg56
(lp1906
S'99'
p1907
asbasbasbag49
(g65
g51
NtRp1908
(dp1909
g54
(dp1910
sg63
g1879
sg56
(lp1911
g49
(g70
g51
NtRp1912
(dp1913
g54
(dp1914
sg63
g1908
sg56
(lp1915
g49
(g50
g51
NtRp1916
(dp1917
g54
(dp1918
g62
I3
ssg63
g1912
sg56
(lp1919
S'7'
asbasbasbag49
(g65
g51
NtRp1920
(dp1921
g54
(dp1922
sg63
g1879
sg56
(lp1923
g49
(g70
g51
NtRp1924
(dp1925
g54
(dp1926
sg63
g1920
sg56
(lp1927
g49
(g50
g51
NtRp1928
(dp1929
g54
(dp1930
g62
I3
ssg63
g1924
sg56
(lp1931
S'datetime.datetime(2012, 3, 4, 22, 12, 8)'
p1932
asbasbasbag49
(g65
g51
NtRp1933
(dp1934
g54
(dp1935
sg63
g1879
sg56
(lp1936
g49
(g70
g51
NtRp1937
(dp1938
g54
(dp1939
sg63
g1933
sg56
(lp1940
g49
(g50
g51
NtRp1941
(dp1942
g54
(dp1943
g62
I3
ssg63
g1937
sg56
(lp1944
g1334
asbasbasbasbasbasbasbasbasbasbasbag49
(g65
g51
NtRp1945
(dp1946
g54
(dp1947
sg63
g59
sg56
(lp1948
g49
(g70
g51
NtRp1949
(dp1950
g54
(dp1951
g74
g75
ssg63
g1945
sg56
(lp1952
S'is_https'
p1953
asbag49
(g70
g51
NtRp1954
(dp1955
g54
(dp1956
g81
g82
ssg63
g1945
sg56
(lp1957
S':'
asbag49
(g70
g51
NtRp1958
(dp1959
g54
(dp1960
sg63
g1945
sg56
(lp1961
g49
(g50
g51
NtRp1962
(dp1963
g54
(dp1964
g62
I5
ssg63
g1958
sg56
(lp1965
g92
asbasbasbag49
(g65
g51
NtRp1966
(dp1967
g54
(dp1968
sg63
g59
sg56
(lp1969
g49
(g70
g51
NtRp1970
(dp1971
g54
(dp1972
g74
g75
ssg63
g1966
sg56
(lp1973
S'is_local'
p1974
asbag49
(g70
g51
NtRp1975
(dp1976
g54
(dp1977
g81
g82
ssg63
g1966
sg56
(lp1978
S':'
asbag49
(g70
g51
NtRp1979
(dp1980
g54
(dp1981
sg63
g1966
sg56
(lp1982
g49
(g50
g51
NtRp1983
(dp1984
g54
(dp1985
g62
I5
ssg63
g1979
sg56
(lp1986
g1443
asbasbasbag49
(g65
g51
NtRp1987
(dp1988
g54
(dp1989
sg63
g59
sg56
(lp1990
g49
(g70
g51
NtRp1991
(dp1992
g54
(dp1993
g74
g75
ssg63
g1987
sg56
(lp1994
S'is_restful'
p1995
asbag49
(g70
g51
NtRp1996
(dp1997
g54
(dp1998
g81
g82
ssg63
g1987
sg56
(lp1999
S':'
asbag49
(g70
g51
NtRp2000
(dp2001
g54
(dp2002
sg63
g1987
sg56
(lp2003
g49
(g50
g51
NtRp2004
(dp2005
g54
(dp2006
g62
I5
ssg63
g2000
sg56
(lp2007
g92
asbasbasbag49
(g65
g51
NtRp2008
(dp2009
g54
(dp2010
sg63
g59
sg56
(lp2011
g49
(g70
g51
NtRp2012
(dp2013
g54
(dp2014
g74
g75
ssg63
g2008
sg56
(lp2015
S'now'
p2016
asbag49
(g70
g51
NtRp2017
(dp2018
g54
(dp2019
g81
g82
ssg63
g2008
sg56
(lp2020
S':'
asbag49
(g70
g51
NtRp2021
(dp2022
g54
(dp2023
sg63
g2008
sg56
(lp2024
g49
(g50
g51
NtRp2025
(dp2026
g54
(dp2027
g62
I5
ssg63
g2021
sg56
(lp2028
S'datetime.datetime(2012, 7, 30, 15, 50, 51, 400000)'
p2029
asbasbasbag49
(g65
g51
NtRp2030
(dp2031
g54
(dp2032
sg63
g59
sg56
(lp2033
g49
(g70
g51
NtRp2034
(dp2035
g54
(dp2036
g74
g75
ssg63
g2030
sg56
(lp2037
S'post_vars'
p2038
asbag49
(g70
g51
NtRp2039
(dp2040
g54
(dp2041
g81
g82
ssg63
g2030
sg56
(lp2042
S':'
asbag49
(g70
g51
NtRp2043
(dp2044
g54
(dp2045
sg63
g2030
sg56
(lp2046
g49
(g50
g51
NtRp2047
(dp2048
g54
(dp2049
g62
I5
ssg63
g2043
sg56
(lp2050
g49
(g58
g51
NtRp2051
(dp2052
g54
(dp2053
g62
I4
ssg63
Nsg56
(lp2054
sbasbasbasbag49
(g65
g51
NtRp2055
(dp2056
g54
(dp2057
sg63
g59
sg56
(lp2058
g49
(g70
g51
NtRp2059
(dp2060
g54
(dp2061
g74
g75
ssg63
g2055
sg56
(lp2062
S'url'
p2063
asbag49
(g70
g51
NtRp2064
(dp2065
g54
(dp2066
g81
g82
ssg63
g2055
sg56
(lp2067
S':'
asbag49
(g70
g51
NtRp2068
(dp2069
g54
(dp2070
sg63
g2055
sg56
(lp2071
g49
(g50
g51
NtRp2072
(dp2073
g54
(dp2074
g62
I5
ssg63
g2068
sg56
(lp2075
S'/unioeste_code/default/index'
p2076
asbasbasbag49
(g65
g51
NtRp2077
(dp2078
g54
(dp2079
sg63
g59
sg56
(lp2080
g49
(g70
g51
NtRp2081
(dp2082
g54
(dp2083
g74
g75
ssg63
g2077
sg56
(lp2084
S'utcnow'
p2085
asbag49
(g70
g51
NtRp2086
(dp2087
g54
(dp2088
g81
g82
ssg63
g2077
sg56
(lp2089
S':'
asbag49
(g70
g51
NtRp2090
(dp2091
g54
(dp2092
sg63
g2077
sg56
(lp2093
g49
(g50
g51
NtRp2094
(dp2095
g54
(dp2096
g62
I5
ssg63
g2090
sg56
(lp2097
S'datetime.datetime(2012, 7, 30, 18, 50, 51, 400000)'
p2098
asbasbasbag49
(g65
g51
NtRp2099
(dp2100
g54
(dp2101
sg63
g59
sg56
(lp2102
g49
(g70
g51
NtRp2103
(dp2104
g54
(dp2105
g74
g75
ssg63
g2099
sg56
(lp2106
S'uuid'
p2107
asbag49
(g70
g51
NtRp2108
(dp2109
g54
(dp2110
g81
g82
ssg63
g2099
sg56
(lp2111
S':'
asbag49
(g70
g51
NtRp2112
(dp2113
g54
(dp2114
sg63
g2099
sg56
(lp2115
g49
(g50
g51
NtRp2116
(dp2117
g54
(dp2118
g62
I5
ssg63
g2112
sg56
(lp2119
S'unioeste_code/127.0.0.1.2012-07-30.15-50-51.d4e5086c-00cb-4f03-b848-1520d565f19f'
p2120
asbasbasbag49
(g65
g51
NtRp2121
(dp2122
g54
(dp2123
sg63
g59
sg56
(lp2124
g49
(g70
g51
NtRp2125
(dp2126
g54
(dp2127
g74
g75
ssg63
g2121
sg56
(lp2128
S'vars'
p2129
asbag49
(g70
g51
NtRp2130
(dp2131
g54
(dp2132
g81
g82
ssg63
g2121
sg56
(lp2133
S':'
asbag49
(g70
g51
NtRp2134
(dp2135
g54
(dp2136
sg63
g2121
sg56
(lp2137
g49
(g50
g51
NtRp2138
(dp2139
g54
(dp2140
g62
I5
ssg63
g2134
sg56
(lp2141
g49
(g58
g51
NtRp2142
(dp2143
g54
(dp2144
g62
I4
ssg63
Nsg56
(lp2145
sbasbasbasbag49
(g65
g51
NtRp2146
(dp2147
g54
(dp2148
sg63
g59
sg56
(lp2149
g49
(g70
g51
NtRp2150
(dp2151
g54
(dp2152
g74
g75
ssg63
g2146
sg56
(lp2153
S'wsgi'
p2154
asbag49
(g70
g51
NtRp2155
(dp2156
g54
(dp2157
g81
g82
ssg63
g2146
sg56
(lp2158
S':'
asbag49
(g70
g51
NtRp2159
(dp2160
g54
(dp2161
sg63
g2146
sg56
(lp2162
g49
(g50
g51
NtRp2163
(dp2164
g54
(dp2165
g62
I5
ssg63
g2159
sg56
(lp2166
g49
(g58
g51
NtRp2167
(dp2168
g54
(dp2169
g62
I4
ssg63
Nsg56
(lp2170
g49
(g65
g51
NtRp2171
(dp2172
g54
(dp2173
sg63
g2167
sg56
(lp2174
g49
(g70
g51
NtRp2175
(dp2176
g54
(dp2177
g74
g75
ssg63
g2171
sg56
(lp2178
S'environ'
p2179
asbag49
(g70
g51
NtRp2180
(dp2181
g54
(dp2182
g81
g82
ssg63
g2171
sg56
(lp2183
S':'
asbag49
(g70
g51
NtRp2184
(dp2185
g54
(dp2186
sg63
g2171
sg56
(lp2187
g49
(g50
g51
NtRp2188
(dp2189
g54
(dp2190
g62
I4
ssg63
g2184
sg56
(lp2191
g49
(g58
g51
NtRp2192
(dp2193
g54
(dp2194
g62
I3
ssg63
Nsg56
(lp2195
g49
(g65
g51
NtRp2196
(dp2197
g54
(dp2198
sg63
g2192
sg56
(lp2199
g49
(g70
g51
NtRp2200
(dp2201
g54
(dp2202
g74
g75
ssg63
g2196
sg56
(lp2203
S'HTTP_ACCEPT'
p2204
asbag49
(g70
g51
NtRp2205
(dp2206
g54
(dp2207
g81
g82
ssg63
g2196
sg56
(lp2208
S':'
asbag49
(g70
g51
NtRp2209
(dp2210
g54
(dp2211
sg63
g2196
sg56
(lp2212
g49
(g50
g51
NtRp2213
(dp2214
g54
(dp2215
g62
I3
ssg63
g2209
sg56
(lp2216
g769
asbasbasbag49
(g65
g51
NtRp2217
(dp2218
g54
(dp2219
sg63
g2192
sg56
(lp2220
g49
(g70
g51
NtRp2221
(dp2222
g54
(dp2223
g74
g75
ssg63
g2217
sg56
(lp2224
S'HTTP_ACCEPT_CHARSET'
p2225
asbag49
(g70
g51
NtRp2226
(dp2227
g54
(dp2228
g81
g82
ssg63
g2217
sg56
(lp2229
S':'
asbag49
(g70
g51
NtRp2230
(dp2231
g54
(dp2232
sg63
g2217
sg56
(lp2233
g49
(g50
g51
NtRp2234
(dp2235
g54
(dp2236
g62
I3
ssg63
g2230
sg56
(lp2237
g791
asbasbasbag49
(g65
g51
NtRp2238
(dp2239
g54
(dp2240
sg63
g2192
sg56
(lp2241
g49
(g70
g51
NtRp2242
(dp2243
g54
(dp2244
g74
g75
ssg63
g2238
sg56
(lp2245
S'HTTP_ACCEPT_ENCODING'
p2246
asbag49
(g70
g51
NtRp2247
(dp2248
g54
(dp2249
g81
g82
ssg63
g2238
sg56
(lp2250
S':'
asbag49
(g70
g51
NtRp2251
(dp2252
g54
(dp2253
sg63
g2238
sg56
(lp2254
g49
(g50
g51
NtRp2255
(dp2256
g54
(dp2257
g62
I3
ssg63
g2251
sg56
(lp2258
g813
asbasbasbag49
(g65
g51
NtRp2259
(dp2260
g54
(dp2261
sg63
g2192
sg56
(lp2262
g49
(g70
g51
NtRp2263
(dp2264
g54
(dp2265
g74
g75
ssg63
g2259
sg56
(lp2266
S'HTTP_ACCEPT_LANGUAGE'
p2267
asbag49
(g70
g51
NtRp2268
(dp2269
g54
(dp2270
g81
g82
ssg63
g2259
sg56
(lp2271
S':'
asbag49
(g70
g51
NtRp2272
(dp2273
g54
(dp2274
sg63
g2259
sg56
(lp2275
g49
(g50
g51
NtRp2276
(dp2277
g54
(dp2278
g62
I3
ssg63
g2272
sg56
(lp2279
g835
asbasbasbag49
(g65
g51
NtRp2280
(dp2281
g54
(dp2282
sg63
g2192
sg56
(lp2283
g49
(g70
g51
NtRp2284
(dp2285
g54
(dp2286
g74
g75
ssg63
g2280
sg56
(lp2287
S'HTTP_CONNECTION'
p2288
asbag49
(g70
g51
NtRp2289
(dp2290
g54
(dp2291
g81
g82
ssg63
g2280
sg56
(lp2292
S':'
asbag49
(g70
g51
NtRp2293
(dp2294
g54
(dp2295
sg63
g2280
sg56
(lp2296
g49
(g50
g51
NtRp2297
(dp2298
g54
(dp2299
g62
I3
ssg63
g2293
sg56
(lp2300
g857
asbasbasbag49
(g65
g51
NtRp2301
(dp2302
g54
(dp2303
sg63
g2192
sg56
(lp2304
g49
(g70
g51
NtRp2305
(dp2306
g54
(dp2307
g74
g75
ssg63
g2301
sg56
(lp2308
S'HTTP_COOKIE'
p2309
asbag49
(g70
g51
NtRp2310
(dp2311
g54
(dp2312
g81
g82
ssg63
g2301
sg56
(lp2313
S':'
asbag49
(g70
g51
NtRp2314
(dp2315
g54
(dp2316
sg63
g2301
sg56
(lp2317
g49
(g50
g51
NtRp2318
(dp2319
g54
(dp2320
g62
I3
ssg63
g2314
sg56
(lp2321
g879
asbasbasbag49
(g65
g51
NtRp2322
(dp2323
g54
(dp2324
sg63
g2192
sg56
(lp2325
g49
(g70
g51
NtRp2326
(dp2327
g54
(dp2328
g74
g75
ssg63
g2322
sg56
(lp2329
S'HTTP_DNT'
p2330
asbag49
(g70
g51
NtRp2331
(dp2332
g54
(dp2333
g81
g82
ssg63
g2322
sg56
(lp2334
S':'
asbag49
(g70
g51
NtRp2335
(dp2336
g54
(dp2337
sg63
g2322
sg56
(lp2338
g49
(g50
g51
NtRp2339
(dp2340
g54
(dp2341
g62
I3
ssg63
g2335
sg56
(lp2342
S'1'
asbasbasbag49
(g65
g51
NtRp2343
(dp2344
g54
(dp2345
sg63
g2192
sg56
(lp2346
g49
(g70
g51
NtRp2347
(dp2348
g54
(dp2349
g74
g75
ssg63
g2343
sg56
(lp2350
S'HTTP_HOST'
p2351
asbag49
(g70
g51
NtRp2352
(dp2353
g54
(dp2354
g81
g82
ssg63
g2343
sg56
(lp2355
S':'
asbag49
(g70
g51
NtRp2356
(dp2357
g54
(dp2358
sg63
g2343
sg56
(lp2359
g49
(g50
g51
NtRp2360
(dp2361
g54
(dp2362
g62
I3
ssg63
g2356
sg56
(lp2363
g922
asbasbasbag49
(g65
g51
NtRp2364
(dp2365
g54
(dp2366
sg63
g2192
sg56
(lp2367
g49
(g70
g51
NtRp2368
(dp2369
g54
(dp2370
g74
g75
ssg63
g2364
sg56
(lp2371
S'HTTP_USER_AGENT'
p2372
asbag49
(g70
g51
NtRp2373
(dp2374
g54
(dp2375
g81
g82
ssg63
g2364
sg56
(lp2376
S':'
asbag49
(g70
g51
NtRp2377
(dp2378
g54
(dp2379
sg63
g2364
sg56
(lp2380
g49
(g50
g51
NtRp2381
(dp2382
g54
(dp2383
g62
I3
ssg63
g2377
sg56
(lp2384
g944
asbasbasbag49
(g65
g51
NtRp2385
(dp2386
g54
(dp2387
sg63
g2192
sg56
(lp2388
g49
(g70
g51
NtRp2389
(dp2390
g54
(dp2391
g74
g75
ssg63
g2385
sg56
(lp2392
S'PATH_INFO'
p2393
asbag49
(g70
g51
NtRp2394
(dp2395
g54
(dp2396
g81
g82
ssg63
g2385
sg56
(lp2397
S':'
asbag49
(g70
g51
NtRp2398
(dp2399
g54
(dp2400
sg63
g2385
sg56
(lp2401
g49
(g50
g51
NtRp2402
(dp2403
g54
(dp2404
g62
I3
ssg63
g2398
sg56
(lp2405
g1008
asbasbasbag49
(g65
g51
NtRp2406
(dp2407
g54
(dp2408
sg63
g2192
sg56
(lp2409
g49
(g70
g51
NtRp2410
(dp2411
g54
(dp2412
g74
g75
ssg63
g2406
sg56
(lp2413
S'QUERY_STRING'
p2414
asbag49
(g70
g51
NtRp2415
(dp2416
g54
(dp2417
g81
g82
ssg63
g2406
sg56
(lp2418
S':'
asbag49
(g70
g51
NtRp2419
(dp2420
g54
(dp2421
sg63
g2406
sg56
(lp2422
g49
(g50
g51
NtRp2423
(dp2424
g54
(dp2425
g62
I3
ssg63
g2419
sg56
(lp2426
S''
asbasbasbag49
(g65
g51
NtRp2427
(dp2428
g54
(dp2429
sg63
g2192
sg56
(lp2430
g49
(g70
g51
NtRp2431
(dp2432
g54
(dp2433
g74
g75
ssg63
g2427
sg56
(lp2434
S'REMOTE_ADDR'
p2435
asbag49
(g70
g51
NtRp2436
(dp2437
g54
(dp2438
g81
g82
ssg63
g2427
sg56
(lp2439
S':'
asbag49
(g70
g51
NtRp2440
(dp2441
g54
(dp2442
sg63
g2427
sg56
(lp2443
g49
(g50
g51
NtRp2444
(dp2445
g54
(dp2446
g62
I3
ssg63
g2440
sg56
(lp2447
g182
asbasbasbag49
(g65
g51
NtRp2448
(dp2449
g54
(dp2450
sg63
g2192
sg56
(lp2451
g49
(g70
g51
NtRp2452
(dp2453
g54
(dp2454
g74
g75
ssg63
g2448
sg56
(lp2455
S'REMOTE_PORT'
p2456
asbag49
(g70
g51
NtRp2457
(dp2458
g54
(dp2459
g81
g82
ssg63
g2448
sg56
(lp2460
S':'
asbag49
(g70
g51
NtRp2461
(dp2462
g54
(dp2463
sg63
g2448
sg56
(lp2464
g49
(g50
g51
NtRp2465
(dp2466
g54
(dp2467
g62
I3
ssg63
g2461
sg56
(lp2468
g1072
asbasbasbag49
(g65
g51
NtRp2469
(dp2470
g54
(dp2471
sg63
g2192
sg56
(lp2472
g49
(g70
g51
NtRp2473
(dp2474
g54
(dp2475
g74
g75
ssg63
g2469
sg56
(lp2476
S'REQUEST_METHOD'
p2477
asbag49
(g70
g51
NtRp2478
(dp2479
g54
(dp2480
g81
g82
ssg63
g2469
sg56
(lp2481
S':'
asbag49
(g70
g51
NtRp2482
(dp2483
g54
(dp2484
sg63
g2469
sg56
(lp2485
g49
(g50
g51
NtRp2486
(dp2487
g54
(dp2488
g62
I3
ssg63
g2482
sg56
(lp2489
g1094
asbasbasbag49
(g65
g51
NtRp2490
(dp2491
g54
(dp2492
sg63
g2192
sg56
(lp2493
g49
(g70
g51
NtRp2494
(dp2495
g54
(dp2496
g74
g75
ssg63
g2490
sg56
(lp2497
S'SCRIPT_NAME'
p2498
asbag49
(g70
g51
NtRp2499
(dp2500
g54
(dp2501
g81
g82
ssg63
g2490
sg56
(lp2502
S':'
asbag49
(g70
g51
NtRp2503
(dp2504
g54
(dp2505
sg63
g2490
sg56
(lp2506
g49
(g50
g51
NtRp2507
(dp2508
g54
(dp2509
g62
I3
ssg63
g2503
sg56
(lp2510
S''
asbasbasbag49
(g65
g51
NtRp2511
(dp2512
g54
(dp2513
sg63
g2192
sg56
(lp2514
g49
(g70
g51
NtRp2515
(dp2516
g54
(dp2517
g74
g75
ssg63
g2511
sg56
(lp2518
S'SERVER_NAME'
p2519
asbag49
(g70
g51
NtRp2520
(dp2521
g54
(dp2522
g81
g82
ssg63
g2511
sg56
(lp2523
S':'
asbag49
(g70
g51
NtRp2524
(dp2525
g54
(dp2526
sg63
g2511
sg56
(lp2527
g49
(g50
g51
NtRp2528
(dp2529
g54
(dp2530
g62
I3
ssg63
g2524
sg56
(lp2531
g1137
asbasbasbag49
(g65
g51
NtRp2532
(dp2533
g54
(dp2534
sg63
g2192
sg56
(lp2535
g49
(g70
g51
NtRp2536
(dp2537
g54
(dp2538
g74
g75
ssg63
g2532
sg56
(lp2539
S'SERVER_PORT'
p2540
asbag49
(g70
g51
NtRp2541
(dp2542
g54
(dp2543
g81
g82
ssg63
g2532
sg56
(lp2544
S':'
asbag49
(g70
g51
NtRp2545
(dp2546
g54
(dp2547
sg63
g2532
sg56
(lp2548
g49
(g50
g51
NtRp2549
(dp2550
g54
(dp2551
g62
I3
ssg63
g2545
sg56
(lp2552
g1159
asbasbasbag49
(g65
g51
NtRp2553
(dp2554
g54
(dp2555
sg63
g2192
sg56
(lp2556
g49
(g70
g51
NtRp2557
(dp2558
g54
(dp2559
g74
g75
ssg63
g2553
sg56
(lp2560
S'SERVER_PROTOCOL'
p2561
asbag49
(g70
g51
NtRp2562
(dp2563
g54
(dp2564
g81
g82
ssg63
g2553
sg56
(lp2565
S':'
asbag49
(g70
g51
NtRp2566
(dp2567
g54
(dp2568
sg63
g2553
sg56
(lp2569
g49
(g50
g51
NtRp2570
(dp2571
g54
(dp2572
g62
I3
ssg63
g2566
sg56
(lp2573
g1181
asbasbasbag49
(g65
g51
NtRp2574
(dp2575
g54
(dp2576
sg63
g2192
sg56
(lp2577
g49
(g70
g51
NtRp2578
(dp2579
g54
(dp2580
g74
g75
ssg63
g2574
sg56
(lp2581
S'SERVER_SOFTWARE'
p2582
asbag49
(g70
g51
NtRp2583
(dp2584
g54
(dp2585
g81
g82
ssg63
g2574
sg56
(lp2586
S':'
asbag49
(g70
g51
NtRp2587
(dp2588
g54
(dp2589
sg63
g2574
sg56
(lp2590
g49
(g50
g51
NtRp2591
(dp2592
g54
(dp2593
g62
I3
ssg63
g2587
sg56
(lp2594
g1203
asbasbasbag49
(g65
g51
NtRp2595
(dp2596
g54
(dp2597
sg63
g2192
sg56
(lp2598
g49
(g70
g51
NtRp2599
(dp2600
g54
(dp2601
g74
g75
ssg63
g2595
sg56
(lp2602
S'wsgi.errors'
p2603
asbag49
(g70
g51
NtRp2604
(dp2605
g54
(dp2606
g81
g82
ssg63
g2595
sg56
(lp2607
S':'
asbag49
(g70
g51
NtRp2608
(dp2609
g54
(dp2610
sg63
g2595
sg56
(lp2611
g49
(g50
g51
NtRp2612
(dp2613
g54
(dp2614
g62
I3
ssg63
g2608
sg56
(lp2615
S'<__main__.Stderr object at 0x00486670>'
p2616
asbasbasbag49
(g65
g51
NtRp2617
(dp2618
g54
(dp2619
sg63
g2192
sg56
(lp2620
g49
(g70
g51
NtRp2621
(dp2622
g54
(dp2623
g74
g75
ssg63
g2617
sg56
(lp2624
S'wsgi.file_wrapper'
p2625
asbag49
(g70
g51
NtRp2626
(dp2627
g54
(dp2628
g81
g82
ssg63
g2617
sg56
(lp2629
S':'
asbag49
(g70
g51
NtRp2630
(dp2631
g54
(dp2632
sg63
g2617
sg56
(lp2633
g49
(g50
g51
NtRp2634
(dp2635
g54
(dp2636
g62
I3
ssg63
g2630
sg56
(lp2637
S'<class wsgiref.util.FileWrapper at 0x02EEDE10>'
p2638
asbasbasbag49
(g65
g51
NtRp2639
(dp2640
g54
(dp2641
sg63
g2192
sg56
(lp2642
g49
(g70
g51
NtRp2643
(dp2644
g54
(dp2645
g74
g75
ssg63
g2639
sg56
(lp2646
S'wsgi.input'
p2647
asbag49
(g70
g51
NtRp2648
(dp2649
g54
(dp2650
g81
g82
ssg63
g2639
sg56
(lp2651
S':'
asbag49
(g70
g51
NtRp2652
(dp2653
g54
(dp2654
sg63
g2639
sg56
(lp2655
g49
(g50
g51
NtRp2656
(dp2657
g54
(dp2658
g62
I3
ssg63
g2652
sg56
(lp2659
S'<cStringIO.StringO object at 0x06B2CC00>'
p2660
asbasbasbag49
(g65
g51
NtRp2661
(dp2662
g54
(dp2663
sg63
g2192
sg56
(lp2664
g49
(g70
g51
NtRp2665
(dp2666
g54
(dp2667
g74
g75
ssg63
g2661
sg56
(lp2668
S'wsgi.multiprocess'
p2669
asbag49
(g70
g51
NtRp2670
(dp2671
g54
(dp2672
g81
g82
ssg63
g2661
sg56
(lp2673
S':'
asbag49
(g70
g51
NtRp2674
(dp2675
g54
(dp2676
sg63
g2661
sg56
(lp2677
g49
(g50
g51
NtRp2678
(dp2679
g54
(dp2680
g62
I3
ssg63
g2674
sg56
(lp2681
g92
asbasbasbag49
(g65
g51
NtRp2682
(dp2683
g54
(dp2684
sg63
g2192
sg56
(lp2685
g49
(g70
g51
NtRp2686
(dp2687
g54
(dp2688
g74
g75
ssg63
g2682
sg56
(lp2689
S'wsgi.multithread'
p2690
asbag49
(g70
g51
NtRp2691
(dp2692
g54
(dp2693
g81
g82
ssg63
g2682
sg56
(lp2694
S':'
asbag49
(g70
g51
NtRp2695
(dp2696
g54
(dp2697
sg63
g2682
sg56
(lp2698
g49
(g50
g51
NtRp2699
(dp2700
g54
(dp2701
g62
I3
ssg63
g2695
sg56
(lp2702
g1443
asbasbasbag49
(g65
g51
NtRp2703
(dp2704
g54
(dp2705
sg63
g2192
sg56
(lp2706
g49
(g70
g51
NtRp2707
(dp2708
g54
(dp2709
g74
g75
ssg63
g2703
sg56
(lp2710
S'wsgi.run_once'
p2711
asbag49
(g70
g51
NtRp2712
(dp2713
g54
(dp2714
g81
g82
ssg63
g2703
sg56
(lp2715
S':'
asbag49
(g70
g51
NtRp2716
(dp2717
g54
(dp2718
sg63
g2703
sg56
(lp2719
g49
(g50
g51
NtRp2720
(dp2721
g54
(dp2722
g62
I3
ssg63
g2716
sg56
(lp2723
g92
asbasbasbag49
(g65
g51
NtRp2724
(dp2725
g54
(dp2726
sg63
g2192
sg56
(lp2727
g49
(g70
g51
NtRp2728
(dp2729
g54
(dp2730
g74
g75
ssg63
g2724
sg56
(lp2731
S'wsgi.url_scheme'
p2732
asbag49
(g70
g51
NtRp2733
(dp2734
g54
(dp2735
g81
g82
ssg63
g2724
sg56
(lp2736
S':'
asbag49
(g70
g51
NtRp2737
(dp2738
g54
(dp2739
sg63
g2724
sg56
(lp2740
g49
(g50
g51
NtRp2741
(dp2742
g54
(dp2743
g62
I3
ssg63
g2737
sg56
(lp2744
g1486
asbasbasbag49
(g65
g51
NtRp2745
(dp2746
g54
(dp2747
sg63
g2192
sg56
(lp2748
g49
(g70
g51
NtRp2749
(dp2750
g54
(dp2751
g74
g75
ssg63
g2745
sg56
(lp2752
S'wsgi.version'
p2753
asbag49
(g70
g51
NtRp2754
(dp2755
g54
(dp2756
g81
g82
ssg63
g2745
sg56
(lp2757
S':'
asbag49
(g70
g51
NtRp2758
(dp2759
g54
(dp2760
sg63
g2745
sg56
(lp2761
g49
(g50
g51
NtRp2762
(dp2763
g54
(dp2764
g62
I3
ssg63
g2758
sg56
(lp2765
S'1'
asbasbasbasbasbasbasbasbasbasbasbasbasbsS'frames'
p2766
(lp2767
(dp2768
S'file'
p2769
S'C:\\web2py\\gluon\\restricted.py'
p2770
sS'dump'
p2771
(dp2772
sS'lnum'
p2773
I205
sS'lines'
p2774
(dp2775
sS'call'
p2776
S'(code=r"response.write(\'<!DOCTYPE html>\\n<!-- paulirish....ponse.write(\'\\n</body>\\n</html>\\n\', escape=False)", environment={\'A\': <class \'gluon.html.A\'>, \'Auth\': <class \'gluon.tools.Auth\'>, \'B\': <class \'gluon.html.B\'>, \'BEAUTIFY\': <class \'gluon.html.BEAUTIFY\'>, \'BODY\': <class \'gluon.html.BODY\'>, \'BR\': <class \'gluon.html.BR\'>, \'BUTTON\': <class \'gluon.html.BUTTON\'>, \'CAT\': <class \'gluon.html.CAT\'>, \'CENTER\': <class \'gluon.html.CENTER\'>, \'CLEANUP\': <class \'gluon.validators.CLEANUP\'>, ...}, layer=r\'C:\\web2py\\applications\\unioeste_code\\views\\default/index.html\')'
p2777
sS'func'
p2778
S'restricted'
p2779
sa(dp2780
g2769
S'C:\\web2py\\applications\\unioeste_code\\views\\default\\index.html'
p2781
sg2771
(dp2782
sg2773
I86
sg2774
(dp2783
I96
S'    pass'
p2784
sI77
S'response.write(\' columns center">\\n          \', escape=False)'
p2785
sI78
S"response.write('\\n          ', escape=False)"
p2786
sI79
S"response.write('\\n\\n\\n', escape=False)"
p2787
sI80
S'response.write(H1(T("Current Problems")))'
p2788
sI81
S"response.write('\\n<ul>\\n', escape=False)"
p2789
sI82
S'for problem in problems:'
p2790
sI83
S"    response.write('\\n', escape=False)"
p2791
sI84
S'    user = db(db.auth_user.id==problem.created_by).select().first()'
p2792
sI85
S"    response.write('\\n', escape=False)"
p2793
sI86
S'    response.write(LI(A(problem.title, _href=URL("Problem", args=problem.id)), " by " + B(user.first_name) + " " + user.last_name + " ", (SPAN(value=prettydate(problem.created_on), _style="color:green"))))'
p2794
sI87
S"    response.write('\\n', escape=False)"
p2795
sI88
S'    pass'
p2796
sI89
S"response.write('\\n\\n</ul>', escape=False)"
p2797
sI90
S"response.write('\\n          ', escape=False)"
p2798
sI91
S"response.write('\\n        </div>\\n        \\n        ', escape=False)"
p2799
sI92
S'if right_sidebar_enabled:'
p2800
sI93
S'    response.write(\'\\n        <div class="four columns">\\n          \', escape=False)'
p2801
sI94
S"    response.write('\\n          <h3>Right Sidebar</h3>\\n          <p></p>\\n          ', escape=False)"
p2802
sI95
S"    response.write('\\n        </div>    \\n        ', escape=False)"
p2803
ssg2776
S'()'
p2804
sg2778
S'<module>'
p2805
sasS'pyver'
p2806
S'Python 2.5.4: C:\\web2py\\web2py_no_console.exe'
p2807
sS'session'
p2808
g49
(g50
g51
NtRp2809
(dp2810
g54
(dp2811
sg56
(lp2812
g49
(g58
g51
NtRp2813
(dp2814
g54
(dp2815
g62
I5
ssg63
Nsg56
(lp2816
sbasbsS'etype'
p2817
S"<type 'exceptions.TypeError'>"
p2818
sS'date'
p2819
S'Mon Jul 30 15:50:51 2012'
p2820
sS'response'
p2821
g49
(g50
g51
NtRp2822
(dp2823
g54
(dp2824
sg56
(lp2825
g49
(g58
g51
NtRp2826
(dp2827
g54
(dp2828
g62
I5
ssg63
Nsg56
(lp2829
g49
(g65
g51
NtRp2830
(dp2831
g54
(dp2832
sg63
g2826
sg56
(lp2833
g49
(g70
g51
NtRp2834
(dp2835
g54
(dp2836
g74
g75
ssg63
g2830
sg56
(lp2837
g147
asbag49
(g70
g51
NtRp2838
(dp2839
g54
(dp2840
g81
g82
ssg63
g2830
sg56
(lp2841
S':'
asbag49
(g70
g51
NtRp2842
(dp2843
g54
(dp2844
sg63
g2830
sg56
(lp2845
g49
(g50
g51
NtRp2846
(dp2847
g54
(dp2848
g62
I5
ssg63
g2842
sg56
(lp2849
S'<cStringIO.StringO object at 0x06B2CA80>'
p2850
asbasbasbag49
(g65
g51
NtRp2851
(dp2852
g54
(dp2853
sg63
g2826
sg56
(lp2854
g49
(g70
g51
NtRp2855
(dp2856
g54
(dp2857
g74
g75
ssg63
g2851
sg56
(lp2858
g213
asbag49
(g70
g51
NtRp2859
(dp2860
g54
(dp2861
g81
g82
ssg63
g2851
sg56
(lp2862
S':'
asbag49
(g70
g51
NtRp2863
(dp2864
g54
(dp2865
sg63
g2851
sg56
(lp2866
g49
(g50
g51
NtRp2867
(dp2868
g54
(dp2869
g62
I5
ssg63
g2863
sg56
(lp2870
g49
(g58
g51
NtRp2871
(dp2872
g54
(dp2873
g62
I4
ssg63
Nsg56
(lp2874
g49
(g65
g51
NtRp2875
(dp2876
g54
(dp2877
sg63
g2871
sg56
(lp2878
g49
(g70
g51
NtRp2879
(dp2880
g54
(dp2881
g74
g75
ssg63
g2875
sg56
(lp2882
S'session_id_unioeste_code'
p2883
asbag49
(g70
g51
NtRp2884
(dp2885
g54
(dp2886
g81
g82
ssg63
g2875
sg56
(lp2887
S':'
asbag49
(g70
g51
NtRp2888
(dp2889
g54
(dp2890
sg63
g2875
sg56
(lp2891
g49
(g50
g51
NtRp2892
(dp2893
g54
(dp2894
g62
I4
ssg63
g2888
sg56
(lp2895
g49
(g58
g51
NtRp2896
(dp2897
g54
(dp2898
g62
I3
ssg63
Nsg56
(lp2899
g49
(g65
g51
NtRp2900
(dp2901
g54
(dp2902
sg63
g2896
sg56
(lp2903
g49
(g70
g51
NtRp2904
(dp2905
g54
(dp2906
g74
g75
ssg63
g2900
sg56
(lp2907
g263
asbag49
(g70
g51
NtRp2908
(dp2909
g54
(dp2910
g81
g82
ssg63
g2900
sg56
(lp2911
S':'
asbag49
(g70
g51
NtRp2912
(dp2913
g54
(dp2914
sg63
g2900
sg56
(lp2915
g49
(g50
g51
NtRp2916
(dp2917
g54
(dp2918
g62
I3
ssg63
g2912
sg56
(lp2919
S''
asbasbasbag49
(g65
g51
NtRp2920
(dp2921
g54
(dp2922
sg63
g2896
sg56
(lp2923
g49
(g70
g51
NtRp2924
(dp2925
g54
(dp2926
g74
g75
ssg63
g2920
sg56
(lp2927
g284
asbag49
(g70
g51
NtRp2928
(dp2929
g54
(dp2930
g81
g82
ssg63
g2920
sg56
(lp2931
S':'
asbag49
(g70
g51
NtRp2932
(dp2933
g54
(dp2934
sg63
g2920
sg56
(lp2935
g49
(g50
g51
NtRp2936
(dp2937
g54
(dp2938
g62
I3
ssg63
g2932
sg56
(lp2939
S''
asbasbasbag49
(g65
g51
NtRp2940
(dp2941
g54
(dp2942
sg63
g2896
sg56
(lp2943
g49
(g70
g51
NtRp2944
(dp2945
g54
(dp2946
g74
g75
ssg63
g2940
sg56
(lp2947
g305
asbag49
(g70
g51
NtRp2948
(dp2949
g54
(dp2950
g81
g82
ssg63
g2940
sg56
(lp2951
S':'
asbag49
(g70
g51
NtRp2952
(dp2953
g54
(dp2954
sg63
g2940
sg56
(lp2955
g49
(g50
g51
NtRp2956
(dp2957
g54
(dp2958
g62
I3
ssg63
g2952
sg56
(lp2959
S''
asbasbasbag49
(g65
g51
NtRp2960
(dp2961
g54
(dp2962
sg63
g2896
sg56
(lp2963
g49
(g70
g51
NtRp2964
(dp2965
g54
(dp2966
g74
g75
ssg63
g2960
sg56
(lp2967
g326
asbag49
(g70
g51
NtRp2968
(dp2969
g54
(dp2970
g81
g82
ssg63
g2960
sg56
(lp2971
S':'
asbag49
(g70
g51
NtRp2972
(dp2973
g54
(dp2974
sg63
g2960
sg56
(lp2975
g49
(g50
g51
NtRp2976
(dp2977
g54
(dp2978
g62
I3
ssg63
g2972
sg56
(lp2979
S''
asbasbasbag49
(g65
g51
NtRp2980
(dp2981
g54
(dp2982
sg63
g2896
sg56
(lp2983
g49
(g70
g51
NtRp2984
(dp2985
g54
(dp2986
g74
g75
ssg63
g2980
sg56
(lp2987
g347
asbag49
(g70
g51
NtRp2988
(dp2989
g54
(dp2990
g81
g82
ssg63
g2980
sg56
(lp2991
S':'
asbag49
(g70
g51
NtRp2992
(dp2993
g54
(dp2994
sg63
g2980
sg56
(lp2995
g49
(g50
g51
NtRp2996
(dp2997
g54
(dp2998
g62
I3
ssg63
g2992
sg56
(lp2999
S'/'
asbasbasbag49
(g65
g51
NtRp3000
(dp3001
g54
(dp3002
sg63
g2896
sg56
(lp3003
g49
(g70
g51
NtRp3004
(dp3005
g54
(dp3006
g74
g75
ssg63
g3000
sg56
(lp3007
g368
asbag49
(g70
g51
NtRp3008
(dp3009
g54
(dp3010
g81
g82
ssg63
g3000
sg56
(lp3011
S':'
asbag49
(g70
g51
NtRp3012
(dp3013
g54
(dp3014
sg63
g3000
sg56
(lp3015
g49
(g50
g51
NtRp3016
(dp3017
g54
(dp3018
g62
I3
ssg63
g3012
sg56
(lp3019
S''
asbasbasbag49
(g65
g51
NtRp3020
(dp3021
g54
(dp3022
sg63
g2896
sg56
(lp3023
g49
(g70
g51
NtRp3024
(dp3025
g54
(dp3026
g74
g75
ssg63
g3020
sg56
(lp3027
g389
asbag49
(g70
g51
NtRp3028
(dp3029
g54
(dp3030
g81
g82
ssg63
g3020
sg56
(lp3031
S':'
asbag49
(g70
g51
NtRp3032
(dp3033
g54
(dp3034
sg63
g3020
sg56
(lp3035
g49
(g50
g51
NtRp3036
(dp3037
g54
(dp3038
g62
I3
ssg63
g3032
sg56
(lp3039
S''
asbasbasbasbasbasbasbasbasbasbasbag49
(g65
g51
NtRp3040
(dp3041
g54
(dp3042
sg63
g2826
sg56
(lp3043
g49
(g70
g51
NtRp3044
(dp3045
g54
(dp3046
g74
g75
ssg63
g3040
sg56
(lp3047
S'delimiters'
p3048
asbag49
(g70
g51
NtRp3049
(dp3050
g54
(dp3051
g81
g82
ssg63
g3040
sg56
(lp3052
S':'
asbag49
(g70
g51
NtRp3053
(dp3054
g54
(dp3055
sg63
g3040
sg56
(lp3056
g49
(g50
g51
NtRp3057
(dp3058
g54
(dp3059
g62
I5
ssg63
g3053
sg56
(lp3060
g49
(g58
g51
NtRp3061
(dp3062
g54
(dp3063
g62
I4
ssg63
Nsg56
(lp3064
g49
(g65
g51
NtRp3065
(dp3066
g54
(dp3067
sg63
g3061
sg56
(lp3068
g49
(g70
g51
NtRp3069
(dp3070
g54
(dp3071
sg63
g3065
sg56
(lp3072
g49
(g50
g51
NtRp3073
(dp3074
g54
(dp3075
g62
I4
ssg63
g3069
sg56
(lp3076
S'{{'
p3077
asbasbasbag49
(g65
g51
NtRp3078
(dp3079
g54
(dp3080
sg63
g3061
sg56
(lp3081
g49
(g70
g51
NtRp3082
(dp3083
g54
(dp3084
sg63
g3078
sg56
(lp3085
g49
(g50
g51
NtRp3086
(dp3087
g54
(dp3088
g62
I4
ssg63
g3082
sg56
(lp3089
S'}}'
p3090
asbasbasbasbasbasbasbag49
(g65
g51
NtRp3091
(dp3092
g54
(dp3093
sg63
g2826
sg56
(lp3094
g49
(g70
g51
NtRp3095
(dp3096
g54
(dp3097
g74
g75
ssg63
g3091
sg56
(lp3098
S'files'
p3099
asbag49
(g70
g51
NtRp3100
(dp3101
g54
(dp3102
g81
g82
ssg63
g3091
sg56
(lp3103
S':'
asbag49
(g70
g51
NtRp3104
(dp3105
g54
(dp3106
sg63
g3091
sg56
(lp3107
g49
(g50
g51
NtRp3108
(dp3109
g54
(dp3110
g62
I5
ssg63
g3104
sg56
(lp3111
g49
(g58
g51
NtRp3112
(dp3113
g54
(dp3114
g62
I4
ssg63
Nsg56
(lp3115
g49
(g65
g51
NtRp3116
(dp3117
g54
(dp3118
sg63
g3112
sg56
(lp3119
g49
(g70
g51
NtRp3120
(dp3121
g54
(dp3122
sg63
g3116
sg56
(lp3123
g49
(g50
g51
NtRp3124
(dp3125
g54
(dp3126
g62
I4
ssg63
g3120
sg56
(lp3127
S'/unioeste_code/static/js/jquery.js'
p3128
asbasbasbag49
(g65
g51
NtRp3129
(dp3130
g54
(dp3131
sg63
g3112
sg56
(lp3132
g49
(g70
g51
NtRp3133
(dp3134
g54
(dp3135
sg63
g3129
sg56
(lp3136
g49
(g50
g51
NtRp3137
(dp3138
g54
(dp3139
g62
I4
ssg63
g3133
sg56
(lp3140
S'/unioeste_code/static/css/calendar.css'
p3141
asbasbasbag49
(g65
g51
NtRp3142
(dp3143
g54
(dp3144
sg63
g3112
sg56
(lp3145
g49
(g70
g51
NtRp3146
(dp3147
g54
(dp3148
sg63
g3142
sg56
(lp3149
g49
(g50
g51
NtRp3150
(dp3151
g54
(dp3152
g62
I4
ssg63
g3146
sg56
(lp3153
S'/unioeste_code/static/js/calendar.js'
p3154
asbasbasbag49
(g65
g51
NtRp3155
(dp3156
g54
(dp3157
sg63
g3112
sg56
(lp3158
g49
(g70
g51
NtRp3159
(dp3160
g54
(dp3161
sg63
g3155
sg56
(lp3162
g49
(g50
g51
NtRp3163
(dp3164
g54
(dp3165
g62
I4
ssg63
g3159
sg56
(lp3166
S'/unioeste_code/static/js/web2py.js'
p3167
asbasbasbag49
(g65
g51
NtRp3168
(dp3169
g54
(dp3170
sg63
g3112
sg56
(lp3171
g49
(g70
g51
NtRp3172
(dp3173
g54
(dp3174
sg63
g3168
sg56
(lp3175
g49
(g50
g51
NtRp3176
(dp3177
g54
(dp3178
g62
I4
ssg63
g3172
sg56
(lp3179
S'/unioeste_code/static/css/skeleton.css'
p3180
asbasbasbag49
(g65
g51
NtRp3181
(dp3182
g54
(dp3183
sg63
g3112
sg56
(lp3184
g49
(g70
g51
NtRp3185
(dp3186
g54
(dp3187
sg63
g3181
sg56
(lp3188
g49
(g50
g51
NtRp3189
(dp3190
g54
(dp3191
g62
I4
ssg63
g3185
sg56
(lp3192
S'/unioeste_code/static/css/web2py.css'
p3193
asbasbasbag49
(g65
g51
NtRp3194
(dp3195
g54
(dp3196
sg63
g3112
sg56
(lp3197
g49
(g70
g51
NtRp3198
(dp3199
g54
(dp3200
sg63
g3194
sg56
(lp3201
g49
(g50
g51
NtRp3202
(dp3203
g54
(dp3204
g62
I4
ssg63
g3198
sg56
(lp3205
S'/unioeste_code/static/css/superfish.css'
p3206
asbasbasbag49
(g65
g51
NtRp3207
(dp3208
g54
(dp3209
sg63
g3112
sg56
(lp3210
g49
(g70
g51
NtRp3211
(dp3212
g54
(dp3213
sg63
g3207
sg56
(lp3214
g49
(g50
g51
NtRp3215
(dp3216
g54
(dp3217
g62
I4
ssg63
g3211
sg56
(lp3218
S'/unioeste_code/static/js/superfish.js'
p3219
asbasbasbasbasbasbasbag49
(g65
g51
NtRp3220
(dp3221
g54
(dp3222
sg63
g2826
sg56
(lp3223
g49
(g70
g51
NtRp3224
(dp3225
g54
(dp3226
g74
g75
ssg63
g3220
sg56
(lp3227
S'flash'
p3228
asbag49
(g70
g51
NtRp3229
(dp3230
g54
(dp3231
g81
g82
ssg63
g3220
sg56
(lp3232
S':'
asbag49
(g70
g51
NtRp3233
(dp3234
g54
(dp3235
sg63
g3220
sg56
(lp3236
g49
(g50
g51
NtRp3237
(dp3238
g54
(dp3239
g62
I5
ssg63
g3233
sg56
(lp3240
S''
asbasbasbag49
(g65
g51
NtRp3241
(dp3242
g54
(dp3243
sg63
g2826
sg56
(lp3244
g49
(g70
g51
NtRp3245
(dp3246
g54
(dp3247
g74
g75
ssg63
g3241
sg56
(lp3248
S'generic_patterns'
p3249
asbag49
(g70
g51
NtRp3250
(dp3251
g54
(dp3252
g81
g82
ssg63
g3241
sg56
(lp3253
S':'
asbag49
(g70
g51
NtRp3254
(dp3255
g54
(dp3256
sg63
g3241
sg56
(lp3257
g49
(g50
g51
NtRp3258
(dp3259
g54
(dp3260
g62
I5
ssg63
g3254
sg56
(lp3261
g49
(g58
g51
NtRp3262
(dp3263
g54
(dp3264
g62
I4
ssg63
Nsg56
(lp3265
sbasbasbasbag49
(g65
g51
NtRp3266
(dp3267
g54
(dp3268
sg63
g2826
sg56
(lp3269
g49
(g70
g51
NtRp3270
(dp3271
g54
(dp3272
g74
g75
ssg63
g3266
sg56
(lp3273
S'headers'
p3274
asbag49
(g70
g51
NtRp3275
(dp3276
g54
(dp3277
g81
g82
ssg63
g3266
sg56
(lp3278
S':'
asbag49
(g70
g51
NtRp3279
(dp3280
g54
(dp3281
sg63
g3266
sg56
(lp3282
g49
(g50
g51
NtRp3283
(dp3284
g54
(dp3285
g62
I5
ssg63
g3279
sg56
(lp3286
g49
(g58
g51
NtRp3287
(dp3288
g54
(dp3289
g62
I4
ssg63
Nsg56
(lp3290
g49
(g65
g51
NtRp3291
(dp3292
g54
(dp3293
sg63
g3287
sg56
(lp3294
g49
(g70
g51
NtRp3295
(dp3296
g54
(dp3297
g74
g75
ssg63
g3291
sg56
(lp3298
S'Cache-Control'
p3299
asbag49
(g70
g51
NtRp3300
(dp3301
g54
(dp3302
g81
g82
ssg63
g3291
sg56
(lp3303
S':'
asbag49
(g70
g51
NtRp3304
(dp3305
g54
(dp3306
sg63
g3291
sg56
(lp3307
g49
(g50
g51
NtRp3308
(dp3309
g54
(dp3310
g62
I4
ssg63
g3304
sg56
(lp3311
S'no-store, no-cache, must-revalidate, post-check=0, pre-check=0'
p3312
asbasbasbag49
(g65
g51
NtRp3313
(dp3314
g54
(dp3315
sg63
g3287
sg56
(lp3316
g49
(g70
g51
NtRp3317
(dp3318
g54
(dp3319
g74
g75
ssg63
g3313
sg56
(lp3320
S'Content-Type'
p3321
asbag49
(g70
g51
NtRp3322
(dp3323
g54
(dp3324
g81
g82
ssg63
g3313
sg56
(lp3325
S':'
asbag49
(g70
g51
NtRp3326
(dp3327
g54
(dp3328
sg63
g3313
sg56
(lp3329
g49
(g50
g51
NtRp3330
(dp3331
g54
(dp3332
g62
I4
ssg63
g3326
sg56
(lp3333
S'text/html; charset=utf-8'
p3334
asbasbasbag49
(g65
g51
NtRp3335
(dp3336
g54
(dp3337
sg63
g3287
sg56
(lp3338
g49
(g70
g51
NtRp3339
(dp3340
g54
(dp3341
g74
g75
ssg63
g3335
sg56
(lp3342
S'Expires'
p3343
asbag49
(g70
g51
NtRp3344
(dp3345
g54
(dp3346
g81
g82
ssg63
g3335
sg56
(lp3347
S':'
asbag49
(g70
g51
NtRp3348
(dp3349
g54
(dp3350
sg63
g3335
sg56
(lp3351
g49
(g50
g51
NtRp3352
(dp3353
g54
(dp3354
g62
I4
ssg63
g3348
sg56
(lp3355
S'Mon, 30 Jul 2012 18:50:51 GMT'
p3356
asbasbasbag49
(g65
g51
NtRp3357
(dp3358
g54
(dp3359
sg63
g3287
sg56
(lp3360
g49
(g70
g51
NtRp3361
(dp3362
g54
(dp3363
g74
g75
ssg63
g3357
sg56
(lp3364
S'Pragma'
p3365
asbag49
(g70
g51
NtRp3366
(dp3367
g54
(dp3368
g81
g82
ssg63
g3357
sg56
(lp3369
S':'
asbag49
(g70
g51
NtRp3370
(dp3371
g54
(dp3372
sg63
g3357
sg56
(lp3373
g49
(g50
g51
NtRp3374
(dp3375
g54
(dp3376
g62
I4
ssg63
g3370
sg56
(lp3377
S'no-cache'
p3378
asbasbasbag49
(g65
g51
NtRp3379
(dp3380
g54
(dp3381
sg63
g3287
sg56
(lp3382
g49
(g70
g51
NtRp3383
(dp3384
g54
(dp3385
g74
g75
ssg63
g3379
sg56
(lp3386
S'X-Powered-By'
p3387
asbag49
(g70
g51
NtRp3388
(dp3389
g54
(dp3390
g81
g82
ssg63
g3379
sg56
(lp3391
S':'
asbag49
(g70
g51
NtRp3392
(dp3393
g54
(dp3394
sg63
g3379
sg56
(lp3395
g49
(g50
g51
NtRp3396
(dp3397
g54
(dp3398
g62
I4
ssg63
g3392
sg56
(lp3399
S'web2py'
p3400
asbasbasbasbasbasbasbag49
(g65
g51
NtRp3401
(dp3402
g54
(dp3403
sg63
g2826
sg56
(lp3404
g49
(g70
g51
NtRp3405
(dp3406
g54
(dp3407
g74
g75
ssg63
g3401
sg56
(lp3408
S'menu'
p3409
asbag49
(g70
g51
NtRp3410
(dp3411
g54
(dp3412
g81
g82
ssg63
g3401
sg56
(lp3413
S':'
asbag49
(g70
g51
NtRp3414
(dp3415
g54
(dp3416
sg63
g3401
sg56
(lp3417
g49
(g50
g51
NtRp3418
(dp3419
g54
(dp3420
g62
I5
ssg63
g3414
sg56
(lp3421
g49
(g58
g51
NtRp3422
(dp3423
g54
(dp3424
g62
I4
ssg63
Nsg56
(lp3425
g49
(g65
g51
NtRp3426
(dp3427
g54
(dp3428
sg63
g3422
sg56
(lp3429
g49
(g70
g51
NtRp3430
(dp3431
g54
(dp3432
sg63
g3426
sg56
(lp3433
g49
(g50
g51
NtRp3434
(dp3435
g54
(dp3436
g62
I4
ssg63
g3430
sg56
(lp3437
g49
(g58
g51
NtRp3438
(dp3439
g54
(dp3440
g62
I3
ssg63
Nsg56
(lp3441
g49
(g65
g51
NtRp3442
(dp3443
g54
(dp3444
sg63
g3438
sg56
(lp3445
g49
(g70
g51
NtRp3446
(dp3447
g54
(dp3448
sg63
g3442
sg56
(lp3449
g49
(g50
g51
NtRp3450
(dp3451
g54
(dp3452
g62
I3
ssg63
g3446
sg56
(lp3453
cgluon.languages
lazyT_unpickle
p3454
(S't\x04\x00\x00\x00Home'
tRp3455
asbasbasbag49
(g65
g51
NtRp3456
(dp3457
g54
(dp3458
sg63
g3438
sg56
(lp3459
g49
(g70
g51
NtRp3460
(dp3461
g54
(dp3462
sg63
g3456
sg56
(lp3463
g49
(g50
g51
NtRp3464
(dp3465
g54
(dp3466
g62
I3
ssg63
g3460
sg56
(lp3467
g92
asbasbasbag49
(g65
g51
NtRp3468
(dp3469
g54
(dp3470
sg63
g3438
sg56
(lp3471
g49
(g70
g51
NtRp3472
(dp3473
g54
(dp3474
sg63
g3468
sg56
(lp3475
g49
(g50
g51
NtRp3476
(dp3477
g54
(dp3478
g62
I3
ssg63
g3472
sg56
(lp3479
S'/unioeste_code/default/index'
p3480
asbasbasbag49
(g65
g51
NtRp3481
(dp3482
g54
(dp3483
sg63
g3438
sg56
(lp3484
g49
(g70
g51
NtRp3485
(dp3486
g54
(dp3487
sg63
g3481
sg56
(lp3488
g49
(g50
g51
NtRp3489
(dp3490
g54
(dp3491
g62
I3
ssg63
g3485
sg56
(lp3492
g49
(g58
g51
NtRp3493
(dp3494
g54
(dp3495
g62
I2
ssg63
Nsg56
(lp3496
sbasbasbasbasbasbasbasbag49
(g65
g51
NtRp3497
(dp3498
g54
(dp3499
sg63
g3422
sg56
(lp3500
g49
(g70
g51
NtRp3501
(dp3502
g54
(dp3503
sg63
g3497
sg56
(lp3504
g49
(g50
g51
NtRp3505
(dp3506
g54
(dp3507
g62
I4
ssg63
g3501
sg56
(lp3508
g49
(g58
g51
NtRp3509
(dp3510
g54
(dp3511
g62
I3
ssg63
Nsg56
(lp3512
g49
(g65
g51
NtRp3513
(dp3514
g54
(dp3515
sg63
g3509
sg56
(lp3516
g49
(g70
g51
NtRp3517
(dp3518
g54
(dp3519
sg63
g3513
sg56
(lp3520
g49
(g50
g51
NtRp3521
(dp3522
g54
(dp3523
g62
I3
ssg63
g3517
sg56
(lp3524
g49
(cgluon.html
SPAN
p3525
g51
NtRp3526
(dp3527
g54
(dp3528
g74
S'color:yellow'
p3529
ssg63
g49
(cgluon.html
A
p3530
g51
NtRp3531
(dp3532
g54
(dp3533
S'_onclick'
p3534
S'javascript:void(0);return false;'
p3535
sS'_href'
p3536
S'#'
ssg63
g49
(cgluon.html
LI
p3537
g51
NtRp3538
(dp3539
g54
(dp3540
S'_class'
p3541
S'web2py-menu-expand'
p3542
ssg63
g49
(cgluon.html
UL
p3543
g51
NtRp3544
(dp3545
g54
(dp3546
S'mobile'
p3547
I00
sS'li_class'
p3548
g3542
sg3541
S'sf-menu'
p3549
sS'ul_class'
p3550
S'web2py-menu-vertical'
p3551
sS'li_active'
p3552
S'web2py-menu-active'
p3553
ssg63
Nsg56
(lp3554
g49
(g3537
g51
NtRp3555
(dp3556
g54
(dp3557
sg63
g3544
sg56
(lp3558
g49
(g3530
g51
NtRp3559
(dp3560
g54
(dp3561
g3536
g3480
ssg63
g3555
sg56
(lp3562
g3455
asbasbag3538
asbsg56
(lp3563
g3531
ag49
(g3543
g51
NtRp3564
(dp3565
g54
(dp3566
g3541
g3551
ssg63
g3538
sg56
(lp3567
g49
(g3537
g51
NtRp3568
(dp3569
g54
(dp3570
sg63
g3564
sg56
(lp3571
g49
(g3530
g51
NtRp3572
(dp3573
g54
(dp3574
g3536
S'/admin/default/site'
p3575
ssg63
g3568
sg56
(lp3576
g3454
(S's\x08\x00\x00\x00My Sites'
tRp3577
asbasbag49
(g3537
g51
NtRp3578
(dp3579
g54
(dp3580
g3541
g3542
ssg63
g3564
sg56
(lp3581
g49
(g3530
g51
NtRp3582
(dp3583
g54
(dp3584
g3536
S'/admin/default/design/unioeste_code'
p3585
ssg63
g3578
sg56
(lp3586
g3454
(S's\x08\x00\x00\x00This App'
tRp3587
asbag49
(g3543
g51
NtRp3588
(dp3589
g54
(dp3590
g3541
g3551
ssg63
g3578
sg56
(lp3591
g49
(g3537
g51
NtRp3592
(dp3593
g54
(dp3594
sg63
g3588
sg56
(lp3595
g49
(g3530
g51
NtRp3596
(dp3597
g54
(dp3598
g3536
S'/admin/default/edit/unioeste_code/controllers/default.py'
p3599
ssg63
g3592
sg56
(lp3600
g3454
(S't\x0b\x00\x00\x00Controlador'
tRp3601
asbasbag49
(g3537
g51
NtRp3602
(dp3603
g54
(dp3604
sg63
g3588
sg56
(lp3605
g49
(g3530
g51
NtRp3606
(dp3607
g54
(dp3608
g3536
S'/admin/default/edit/unioeste_code/views/default/index.html'
p3609
ssg63
g3602
sg56
(lp3610
g3454
(S's\x0e\x00\x00\x00Visualiza\xc3\xa7\xc3\xa3o'
tRp3611
asbasbag49
(g3537
g51
NtRp3612
(dp3613
g54
(dp3614
sg63
g3588
sg56
(lp3615
g49
(g3530
g51
NtRp3616
(dp3617
g54
(dp3618
g3536
S'/admin/default/edit/unioeste_code/views/layout.html'
p3619
ssg63
g3612
sg56
(lp3620
g3454
(S't\x06\x00\x00\x00Layout'
tRp3621
asbasbag49
(g3537
g51
NtRp3622
(dp3623
g54
(dp3624
sg63
g3588
sg56
(lp3625
g49
(g3530
g51
NtRp3626
(dp3627
g54
(dp3628
g3536
S'/admin/default/edit/unioeste_code/static/css/web2py.css'
p3629
ssg63
g3622
sg56
(lp3630
g3454
(S't\n\x00\x00\x00Stylesheet'
tRp3631
asbasbag49
(g3537
g51
NtRp3632
(dp3633
g54
(dp3634
sg63
g3588
sg56
(lp3635
g49
(g3530
g51
NtRp3636
(dp3637
g54
(dp3638
g3536
S'/admin/default/edit/unioeste_code/models/db.py'
p3639
ssg63
g3632
sg56
(lp3640
g3454
(S's\t\x00\x00\x00Modelo BD'
tRp3641
asbasbag49
(g3537
g51
NtRp3642
(dp3643
g54
(dp3644
sg63
g3588
sg56
(lp3645
g49
(g3530
g51
NtRp3646
(dp3647
g54
(dp3648
g3536
S'/admin/default/edit/unioeste_code/models/menu.py'
p3649
ssg63
g3642
sg56
(lp3650
g3454
(S's\x0e\x00\x00\x00Modelo de Menu'
tRp3651
asbasbag49
(g3537
g51
NtRp3652
(dp3653
g54
(dp3654
sg63
g3588
sg56
(lp3655
g49
(g3530
g51
NtRp3656
(dp3657
g54
(dp3658
g3536
S'/unioeste_code/appadmin/index'
p3659
ssg63
g3652
sg56
(lp3660
g3454
(S's\x0e\x00\x00\x00Banco de dados'
tRp3661
asbasbag49
(g3537
g51
NtRp3662
(dp3663
g54
(dp3664
sg63
g3588
sg56
(lp3665
g49
(g3530
g51
NtRp3666
(dp3667
g54
(dp3668
g3536
S'/admin/default/errors/unioeste_code'
p3669
ssg63
g3662
sg56
(lp3670
g3454
(S't\x06\x00\x00\x00Errors'
tRp3671
asbasbag49
(g3537
g51
NtRp3672
(dp3673
g54
(dp3674
sg63
g3588
sg56
(lp3675
g49
(g3530
g51
NtRp3676
(dp3677
g54
(dp3678
g3536
S'/admin/default/about/unioeste_code'
p3679
ssg63
g3672
sg56
(lp3680
g3454
(S't\x05\x00\x00\x00About'
tRp3681
asbasbasbasbag49
(g3537
g51
NtRp3682
(dp3683
g54
(dp3684
g3541
g3542
ssg63
g3564
sg56
(lp3685
g49
(g3530
g51
NtRp3686
(dp3687
g54
(dp3688
g3536
S'http://www.web2py.com'
p3689
ssg63
g3682
sg56
(lp3690
S'web2py.com'
p3691
asbag49
(g3543
g51
NtRp3692
(dp3693
g54
(dp3694
g3541
g3551
ssg63
g3682
sg56
(lp3695
g49
(g3537
g51
NtRp3696
(dp3697
g54
(dp3698
sg63
g3692
sg56
(lp3699
g49
(g3530
g51
NtRp3700
(dp3701
g54
(dp3702
g3536
S'http://www.web2py.com/examples/default/download'
p3703
ssg63
g3696
sg56
(lp3704
g3454
(S't\x08\x00\x00\x00Download'
tRp3705
asbasbag49
(g3537
g51
NtRp3706
(dp3707
g54
(dp3708
sg63
g3692
sg56
(lp3709
g49
(g3530
g51
NtRp3710
(dp3711
g54
(dp3712
g3536
S'http://www.web2py.com/examples/default/support'
p3713
ssg63
g3706
sg56
(lp3714
g3454
(S't\x07\x00\x00\x00Support'
tRp3715
asbasbag49
(g3537
g51
NtRp3716
(dp3717
g54
(dp3718
sg63
g3692
sg56
(lp3719
g49
(g3530
g51
NtRp3720
(dp3721
g54
(dp3722
g3536
S'http://web2py.com/demo_admin'
p3723
ssg63
g3716
sg56
(lp3724
g3454
(S't\x04\x00\x00\x00Demo'
tRp3725
asbasbag49
(g3537
g51
NtRp3726
(dp3727
g54
(dp3728
sg63
g3692
sg56
(lp3729
g49
(g3530
g51
NtRp3730
(dp3731
g54
(dp3732
g3536
S'http://web2py.com/examples/default/examples'
p3733
ssg63
g3726
sg56
(lp3734
g3454
(S's\x0e\x00\x00\x00Quick Examples'
tRp3735
asbasbag49
(g3537
g51
NtRp3736
(dp3737
g54
(dp3738
sg63
g3692
sg56
(lp3739
g49
(g3530
g51
NtRp3740
(dp3741
g54
(dp3742
g3536
S'http://web2py.com/AlterEgo'
p3743
ssg63
g3736
sg56
(lp3744
g3454
(S't\x03\x00\x00\x00FAQ'
tRp3745
asbasbag49
(g3537
g51
NtRp3746
(dp3747
g54
(dp3748
sg63
g3692
sg56
(lp3749
g49
(g3530
g51
NtRp3750
(dp3751
g54
(dp3752
g3536
S'http://www.web2py.com/examples/default/videos/'
p3753
ssg63
g3746
sg56
(lp3754
g3454
(S't\x06\x00\x00\x00Videos'
tRp3755
asbasbag49
(g3537
g51
NtRp3756
(dp3757
g54
(dp3758
sg63
g3692
sg56
(lp3759
g49
(g3530
g51
NtRp3760
(dp3761
g54
(dp3762
g3536
S'http://web2py.com/appliances'
p3763
ssg63
g3756
sg56
(lp3764
g3454
(S's\x11\x00\x00\x00Free Applications'
tRp3765
asbasbag49
(g3537
g51
NtRp3766
(dp3767
g54
(dp3768
sg63
g3692
sg56
(lp3769
g49
(g3530
g51
NtRp3770
(dp3771
g54
(dp3772
g3536
S'http://web2py.com/plugins'
p3773
ssg63
g3766
sg56
(lp3774
g3454
(S't\x07\x00\x00\x00Plugins'
tRp3775
asbasbag49
(g3537
g51
NtRp3776
(dp3777
g54
(dp3778
sg63
g3692
sg56
(lp3779
g49
(g3530
g51
NtRp3780
(dp3781
g54
(dp3782
g3536
S'http://web2py.com/layouts'
p3783
ssg63
g3776
sg56
(lp3784
g3454
(S't\x07\x00\x00\x00Layouts'
tRp3785
asbasbag49
(g3537
g51
NtRp3786
(dp3787
g54
(dp3788
sg63
g3692
sg56
(lp3789
g49
(g3530
g51
NtRp3790
(dp3791
g54
(dp3792
g3536
S'http://web2pyslices.com/'
p3793
ssg63
g3786
sg56
(lp3794
g3454
(S't\x07\x00\x00\x00Recipes'
tRp3795
asbasbag49
(g3537
g51
NtRp3796
(dp3797
g54
(dp3798
sg63
g3692
sg56
(lp3799
g49
(g3530
g51
NtRp3800
(dp3801
g54
(dp3802
g3536
S'http://web2py.com/semantic'
p3803
ssg63
g3796
sg56
(lp3804
g3454
(S't\x08\x00\x00\x00Semantic'
tRp3805
asbasbasbasbag49
(g3537
g51
NtRp3806
(dp3807
g54
(dp3808
g3541
g3542
ssg63
g3564
sg56
(lp3809
g49
(g3530
g51
NtRp3810
(dp3811
g54
(dp3812
g3536
S'http://www.web2py.com/book'
p3813
ssg63
g3806
sg56
(lp3814
g3454
(S't\r\x00\x00\x00Documentation'
tRp3815
asbag49
(g3543
g51
NtRp3816
(dp3817
g54
(dp3818
g3541
g3551
ssg63
g3806
sg56
(lp3819
g49
(g3537
g51
NtRp3820
(dp3821
g54
(dp3822
sg63
g3816
sg56
(lp3823
g49
(g3530
g51
NtRp3824
(dp3825
g54
(dp3826
g3536
S'http://www.web2py.com/book/default/chapter/00'
p3827
ssg63
g3820
sg56
(lp3828
g3454
(S't\x07\x00\x00\x00Preface'
tRp3829
asbasbag49
(g3537
g51
NtRp3830
(dp3831
g54
(dp3832
sg63
g3816
sg56
(lp3833
g49
(g3530
g51
NtRp3834
(dp3835
g54
(dp3836
g3536
S'http://www.web2py.com/book/default/chapter/01'
p3837
ssg63
g3830
sg56
(lp3838
g3454
(S't\x0c\x00\x00\x00Introduction'
tRp3839
asbasbag49
(g3537
g51
NtRp3840
(dp3841
g54
(dp3842
sg63
g3816
sg56
(lp3843
g49
(g3530
g51
NtRp3844
(dp3845
g54
(dp3846
g3536
S'http://www.web2py.com/book/default/chapter/02'
p3847
ssg63
g3840
sg56
(lp3848
g3454
(S't\x06\x00\x00\x00Python'
tRp3849
asbasbag49
(g3537
g51
NtRp3850
(dp3851
g54
(dp3852
sg63
g3816
sg56
(lp3853
g49
(g3530
g51
NtRp3854
(dp3855
g54
(dp3856
g3536
S'http://www.web2py.com/book/default/chapter/03'
p3857
ssg63
g3850
sg56
(lp3858
g3454
(S't\x08\x00\x00\x00Overview'
tRp3859
asbasbag49
(g3537
g51
NtRp3860
(dp3861
g54
(dp3862
sg63
g3816
sg56
(lp3863
g49
(g3530
g51
NtRp3864
(dp3865
g54
(dp3866
g3536
S'http://www.web2py.com/book/default/chapter/04'
p3867
ssg63
g3860
sg56
(lp3868
g3454
(S's\x08\x00\x00\x00The Core'
tRp3869
asbasbag49
(g3537
g51
NtRp3870
(dp3871
g54
(dp3872
sg63
g3816
sg56
(lp3873
g49
(g3530
g51
NtRp3874
(dp3875
g54
(dp3876
g3536
S'http://www.web2py.com/book/default/chapter/05'
p3877
ssg63
g3870
sg56
(lp3878
g3454
(S's\t\x00\x00\x00The Views'
tRp3879
asbasbag49
(g3537
g51
NtRp3880
(dp3881
g54
(dp3882
sg63
g3816
sg56
(lp3883
g49
(g3530
g51
NtRp3884
(dp3885
g54
(dp3886
g3536
S'http://www.web2py.com/book/default/chapter/06'
p3887
ssg63
g3880
sg56
(lp3888
g3454
(S's\x0e\x00\x00\x00Banco de dados'
tRp3889
asbasbag49
(g3537
g51
NtRp3890
(dp3891
g54
(dp3892
sg63
g3816
sg56
(lp3893
g49
(g3530
g51
NtRp3894
(dp3895
g54
(dp3896
g3536
S'http://www.web2py.com/book/default/chapter/07'
p3897
ssg63
g3890
sg56
(lp3898
g3454
(S's\x14\x00\x00\x00Forms and Validators'
tRp3899
asbasbag49
(g3537
g51
NtRp3900
(dp3901
g54
(dp3902
sg63
g3816
sg56
(lp3903
g49
(g3530
g51
NtRp3904
(dp3905
g54
(dp3906
g3536
S'http://www.web2py.com/book/default/chapter/08'
p3907
ssg63
g3900
sg56
(lp3908
g3454
(S's\r\x00\x00\x00Email and SMS'
tRp3909
asbasbag49
(g3537
g51
NtRp3910
(dp3911
g54
(dp3912
sg63
g3816
sg56
(lp3913
g49
(g3530
g51
NtRp3914
(dp3915
g54
(dp3916
g3536
S'http://www.web2py.com/book/default/chapter/09'
p3917
ssg63
g3910
sg56
(lp3918
g3454
(S's\x0e\x00\x00\x00Access Control'
tRp3919
asbasbag49
(g3537
g51
NtRp3920
(dp3921
g54
(dp3922
sg63
g3816
sg56
(lp3923
g49
(g3530
g51
NtRp3924
(dp3925
g54
(dp3926
g3536
S'http://www.web2py.com/book/default/chapter/10'
p3927
ssg63
g3920
sg56
(lp3928
g3454
(S't\x08\x00\x00\x00Services'
tRp3929
asbasbag49
(g3537
g51
NtRp3930
(dp3931
g54
(dp3932
sg63
g3816
sg56
(lp3933
g49
(g3530
g51
NtRp3934
(dp3935
g54
(dp3936
g3536
S'http://www.web2py.com/book/default/chapter/11'
p3937
ssg63
g3930
sg56
(lp3938
g3454
(S's\x0c\x00\x00\x00Ajax Recipes'
tRp3939
asbasbag49
(g3537
g51
NtRp3940
(dp3941
g54
(dp3942
sg63
g3816
sg56
(lp3943
g49
(g3530
g51
NtRp3944
(dp3945
g54
(dp3946
g3536
S'http://www.web2py.com/book/default/chapter/12'
p3947
ssg63
g3940
sg56
(lp3948
g3454
(S's\x16\x00\x00\x00Components and Plugins'
tRp3949
asbasbag49
(g3537
g51
NtRp3950
(dp3951
g54
(dp3952
sg63
g3816
sg56
(lp3953
g49
(g3530
g51
NtRp3954
(dp3955
g54
(dp3956
g3536
S'http://www.web2py.com/book/default/chapter/13'
p3957
ssg63
g3950
sg56
(lp3958
g3454
(S's\x12\x00\x00\x00Deployment Recipes'
tRp3959
asbasbag49
(g3537
g51
NtRp3960
(dp3961
g54
(dp3962
sg63
g3816
sg56
(lp3963
g49
(g3530
g51
NtRp3964
(dp3965
g54
(dp3966
g3536
S'http://www.web2py.com/book/default/chapter/14'
p3967
ssg63
g3960
sg56
(lp3968
g3454
(S's\r\x00\x00\x00Other Recipes'
tRp3969
asbasbag49
(g3537
g51
NtRp3970
(dp3971
g54
(dp3972
sg63
g3816
sg56
(lp3973
g49
(g3530
g51
NtRp3974
(dp3975
g54
(dp3976
g3536
S'http://stores.lulu.com/web2py'
p3977
ssg63
g3970
sg56
(lp3978
g3454
(S's\r\x00\x00\x00Buy this book'
tRp3979
asbasbasbasbag49
(g3537
g51
NtRp3980
(dp3981
g54
(dp3982
g3541
g3542
ssg63
g3564
sg56
(lp3983
g49
(g3530
g51
NtRp3984
(dp3985
g54
(dp3986
g3534
g3535
sg3536
S'#'
ssg63
g3980
sg56
(lp3987
g3454
(S't\t\x00\x00\x00Community'
tRp3988
asbag49
(g3543
g51
NtRp3989
(dp3990
g54
(dp3991
g3541
g3551
ssg63
g3980
sg56
(lp3992
g49
(g3537
g51
NtRp3993
(dp3994
g54
(dp3995
sg63
g3989
sg56
(lp3996
g49
(g3530
g51
NtRp3997
(dp3998
g54
(dp3999
g3536
S'http://www.web2py.com/examples/default/usergroups'
p4000
ssg63
g3993
sg56
(lp4001
g3454
(S't\x06\x00\x00\x00Groups'
tRp4002
asbasbag49
(g3537
g51
NtRp4003
(dp4004
g54
(dp4005
sg63
g3989
sg56
(lp4006
g49
(g3530
g51
NtRp4007
(dp4008
g54
(dp4009
g3536
S'http://twitter.com/web2py'
p4010
ssg63
g4003
sg56
(lp4011
g3454
(S't\x07\x00\x00\x00Twitter'
tRp4012
asbasbag49
(g3537
g51
NtRp4013
(dp4014
g54
(dp4015
sg63
g3989
sg56
(lp4016
g49
(g3530
g51
NtRp4017
(dp4018
g54
(dp4019
g3536
S'http://webchat.freenode.net/?channels=web2py'
p4020
ssg63
g4013
sg56
(lp4021
g3454
(S's\t\x00\x00\x00Live Chat'
tRp4022
asbasbasbasbag49
(g3537
g51
NtRp4023
(dp4024
g54
(dp4025
g3541
g3542
ssg63
g3564
sg56
(lp4026
g49
(g3530
g51
NtRp4027
(dp4028
g54
(dp4029
g3534
g3535
sg3536
S'#'
ssg63
g4023
sg56
(lp4030
g3454
(S't\x07\x00\x00\x00Plugins'
tRp4031
asbag49
(g3543
g51
NtRp4032
(dp4033
g54
(dp4034
g3541
g3551
ssg63
g4023
sg56
(lp4035
g49
(g3537
g51
NtRp4036
(dp4037
g54
(dp4038
sg63
g4032
sg56
(lp4039
g49
(g3530
g51
NtRp4040
(dp4041
g54
(dp4042
g3536
S'http://web2py.com/examples/default/download'
p4043
ssg63
g4036
sg56
(lp4044
S'plugin_wiki'
p4045
asbasbag49
(g3537
g51
NtRp4046
(dp4047
g54
(dp4048
sg63
g4032
sg56
(lp4049
g49
(g3530
g51
NtRp4050
(dp4051
g54
(dp4052
g3536
g3773
ssg63
g4046
sg56
(lp4053
g3454
(S's\r\x00\x00\x00Other Plugins'
tRp4054
asbasbag49
(g3537
g51
NtRp4055
(dp4056
g54
(dp4057
sg63
g4032
sg56
(lp4058
g49
(g3530
g51
NtRp4059
(dp4060
g54
(dp4061
g3536
g3783
ssg63
g4055
sg56
(lp4062
g3454
(S's\x0e\x00\x00\x00Layout Plugins'
tRp4063
asbasbasbasbasbasbsg56
(lp4064
g3526
asbsg56
(lp4065
g3400
asbasbasbasbag49
(g65
g51
NtRp4066
(dp4067
g54
(dp4068
sg63
g3509
sg56
(lp4069
g49
(g70
g51
NtRp4070
(dp4071
g54
(dp4072
sg63
g4066
sg56
(lp4073
g49
(g50
g51
NtRp4074
(dp4075
g54
(dp4076
g62
I3
ssg63
g4070
sg56
(lp4077
g92
asbasbasbag49
(g65
g51
NtRp4078
(dp4079
g54
(dp4080
sg63
g3509
sg56
(lp4081
g49
(g70
g51
NtRp4082
(dp4083
g54
(dp4084
sg63
g4078
sg56
(lp4085
g49
(g50
g51
NtRp4086
(dp4087
g54
(dp4088
g62
I3
ssg63
g4082
sg56
(lp4089
S'None'
p4090
asbasbasbag49
(g65
g51
NtRp4091
(dp4092
g54
(dp4093
sg63
g3509
sg56
(lp4094
g49
(g70
g51
NtRp4095
(dp4096
g54
(dp4097
sg63
g4091
sg56
(lp4098
g49
(g50
g51
NtRp4099
(dp4100
g54
(dp4101
g62
I3
ssg63
g4095
sg56
(lp4102
g49
(g58
g51
NtRp4103
(dp4104
g54
(dp4105
g62
I2
ssg63
Nsg56
(lp4106
g49
(g65
g51
NtRp4107
(dp4108
g54
(dp4109
sg63
g4103
sg56
(lp4110
g49
(g70
g51
NtRp4111
(dp4112
g54
(dp4113
sg63
g4107
sg56
(lp4114
g49
(g50
g51
NtRp4115
(dp4116
g54
(dp4117
g62
I2
ssg63
g4111
sg56
(lp4118
g49
(g58
g51
NtRp4119
(dp4120
g54
(dp4121
g62
I1
ssg63
Nsg56
(lp4122
g49
(g65
g51
NtRp4123
(dp4124
g54
(dp4125
sg63
g4119
sg56
(lp4126
g49
(g70
g51
NtRp4127
(dp4128
g54
(dp4129
sg63
g4123
sg56
(lp4130
g49
(g50
g51
NtRp4131
(dp4132
g54
(dp4133
g62
I1
ssg63
g4127
sg56
(lp4134
g3577
asbasbasbag49
(g65
g51
NtRp4135
(dp4136
g54
(dp4137
sg63
g4119
sg56
(lp4138
g49
(g70
g51
NtRp4139
(dp4140
g54
(dp4141
sg63
g4135
sg56
(lp4142
g49
(g50
g51
NtRp4143
(dp4144
g54
(dp4145
g62
I1
ssg63
g4139
sg56
(lp4146
I00
asbasbasbag49
(g65
g51
NtRp4147
(dp4148
g54
(dp4149
sg63
g4119
sg56
(lp4150
g49
(g70
g51
NtRp4151
(dp4152
g54
(dp4153
sg63
g4147
sg56
(lp4154
g49
(g50
g51
NtRp4155
(dp4156
g54
(dp4157
g62
I1
ssg63
g4151
sg56
(lp4158
g3575
asbasbasbasbasbasbasbag49
(g65
g51
NtRp4159
(dp4160
g54
(dp4161
sg63
g4103
sg56
(lp4162
g49
(g70
g51
NtRp4163
(dp4164
g54
(dp4165
sg63
g4159
sg56
(lp4166
g49
(g50
g51
NtRp4167
(dp4168
g54
(dp4169
g62
I2
ssg63
g4163
sg56
(lp4170
g49
(g58
g51
NtRp4171
(dp4172
g54
(dp4173
g62
I1
ssg63
Nsg56
(lp4174
g49
(g65
g51
NtRp4175
(dp4176
g54
(dp4177
sg63
g4171
sg56
(lp4178
g49
(g70
g51
NtRp4179
(dp4180
g54
(dp4181
sg63
g4175
sg56
(lp4182
g49
(g50
g51
NtRp4183
(dp4184
g54
(dp4185
g62
I1
ssg63
g4179
sg56
(lp4186
g3587
asbasbasbag49
(g65
g51
NtRp4187
(dp4188
g54
(dp4189
sg63
g4171
sg56
(lp4190
g49
(g70
g51
NtRp4191
(dp4192
g54
(dp4193
sg63
g4187
sg56
(lp4194
g49
(g50
g51
NtRp4195
(dp4196
g54
(dp4197
g62
I1
ssg63
g4191
sg56
(lp4198
I00
asbasbasbag49
(g65
g51
NtRp4199
(dp4200
g54
(dp4201
sg63
g4171
sg56
(lp4202
g49
(g70
g51
NtRp4203
(dp4204
g54
(dp4205
sg63
g4199
sg56
(lp4206
g49
(g50
g51
NtRp4207
(dp4208
g54
(dp4209
g62
I1
ssg63
g4203
sg56
(lp4210
g3585
asbasbasbag49
(g65
g51
NtRp4211
(dp4212
g54
(dp4213
sg63
g4171
sg56
(lp4214
g49
(g70
g51
NtRp4215
(dp4216
g54
(dp4217
sg63
g4211
sg56
(lp4218
g49
(g50
g51
NtRp4219
(dp4220
g54
(dp4221
g62
I1
ssg63
g4215
sg56
(lp4222
(lp4223
(g3601
I00
g3599
tp4224
a(g3611
I00
g3609
tp4225
a(g3621
I00
g3619
tp4226
a(g3631
I00
g3629
tp4227
a(g3641
I00
g3639
tp4228
a(g3651
I00
g3649
tp4229
a(g3661
I00
g3659
tp4230
a(g3671
I00
g3669
tp4231
a(g3681
I00
g3679
tp4232
aasbasbasbasbasbasbasbag49
(g65
g51
NtRp4233
(dp4234
g54
(dp4235
sg63
g4103
sg56
(lp4236
g49
(g70
g51
NtRp4237
(dp4238
g54
(dp4239
sg63
g4233
sg56
(lp4240
g49
(g50
g51
NtRp4241
(dp4242
g54
(dp4243
g62
I2
ssg63
g4237
sg56
(lp4244
g49
(g58
g51
NtRp4245
(dp4246
g54
(dp4247
g62
I1
ssg63
Nsg56
(lp4248
g49
(g65
g51
NtRp4249
(dp4250
g54
(dp4251
sg63
g4245
sg56
(lp4252
g49
(g70
g51
NtRp4253
(dp4254
g54
(dp4255
sg63
g4249
sg56
(lp4256
g49
(g50
g51
NtRp4257
(dp4258
g54
(dp4259
g62
I1
ssg63
g4253
sg56
(lp4260
g3691
asbasbasbag49
(g65
g51
NtRp4261
(dp4262
g54
(dp4263
sg63
g4245
sg56
(lp4264
g49
(g70
g51
NtRp4265
(dp4266
g54
(dp4267
sg63
g4261
sg56
(lp4268
g49
(g50
g51
NtRp4269
(dp4270
g54
(dp4271
g62
I1
ssg63
g4265
sg56
(lp4272
I00
asbasbasbag49
(g65
g51
NtRp4273
(dp4274
g54
(dp4275
sg63
g4245
sg56
(lp4276
g49
(g70
g51
NtRp4277
(dp4278
g54
(dp4279
sg63
g4273
sg56
(lp4280
g49
(g50
g51
NtRp4281
(dp4282
g54
(dp4283
g62
I1
ssg63
g4277
sg56
(lp4284
g3689
asbasbasbag49
(g65
g51
NtRp4285
(dp4286
g54
(dp4287
sg63
g4245
sg56
(lp4288
g49
(g70
g51
NtRp4289
(dp4290
g54
(dp4291
sg63
g4285
sg56
(lp4292
g49
(g50
g51
NtRp4293
(dp4294
g54
(dp4295
g62
I1
ssg63
g4289
sg56
(lp4296
(lp4297
(g3705
I00
g3703
tp4298
a(g3715
I00
g3713
tp4299
a(g3725
I00
g3723
tp4300
a(g3735
I00
g3733
tp4301
a(g3745
I00
g3743
tp4302
a(g3755
I00
g3753
tp4303
a(g3765
I00
g3763
tp4304
a(g3775
I00
g3773
tp4305
a(g3785
I00
g3783
tp4306
a(g3795
I00
g3793
tp4307
a(g3805
I00
g3803
tp4308
aasbasbasbasbasbasbasbag49
(g65
g51
NtRp4309
(dp4310
g54
(dp4311
sg63
g4103
sg56
(lp4312
g49
(g70
g51
NtRp4313
(dp4314
g54
(dp4315
sg63
g4309
sg56
(lp4316
g49
(g50
g51
NtRp4317
(dp4318
g54
(dp4319
g62
I2
ssg63
g4313
sg56
(lp4320
g49
(g58
g51
NtRp4321
(dp4322
g54
(dp4323
g62
I1
ssg63
Nsg56
(lp4324
g49
(g65
g51
NtRp4325
(dp4326
g54
(dp4327
sg63
g4321
sg56
(lp4328
g49
(g70
g51
NtRp4329
(dp4330
g54
(dp4331
sg63
g4325
sg56
(lp4332
g49
(g50
g51
NtRp4333
(dp4334
g54
(dp4335
g62
I1
ssg63
g4329
sg56
(lp4336
g3815
asbasbasbag49
(g65
g51
NtRp4337
(dp4338
g54
(dp4339
sg63
g4321
sg56
(lp4340
g49
(g70
g51
NtRp4341
(dp4342
g54
(dp4343
sg63
g4337
sg56
(lp4344
g49
(g50
g51
NtRp4345
(dp4346
g54
(dp4347
g62
I1
ssg63
g4341
sg56
(lp4348
I00
asbasbasbag49
(g65
g51
NtRp4349
(dp4350
g54
(dp4351
sg63
g4321
sg56
(lp4352
g49
(g70
g51
NtRp4353
(dp4354
g54
(dp4355
sg63
g4349
sg56
(lp4356
g49
(g50
g51
NtRp4357
(dp4358
g54
(dp4359
g62
I1
ssg63
g4353
sg56
(lp4360
g3813
asbasbasbag49
(g65
g51
NtRp4361
(dp4362
g54
(dp4363
sg63
g4321
sg56
(lp4364
g49
(g70
g51
NtRp4365
(dp4366
g54
(dp4367
sg63
g4361
sg56
(lp4368
g49
(g50
g51
NtRp4369
(dp4370
g54
(dp4371
g62
I1
ssg63
g4365
sg56
(lp4372
(lp4373
(g3829
I00
g3827
tp4374
a(g3839
I00
g3837
tp4375
a(g3849
I00
g3847
tp4376
a(g3859
I00
g3857
tp4377
a(g3869
I00
g3867
tp4378
a(g3879
I00
g3877
tp4379
a(g3889
I00
g3887
tp4380
a(g3899
I00
g3897
tp4381
a(g3909
I00
g3907
tp4382
a(g3919
I00
g3917
tp4383
a(g3929
I00
g3927
tp4384
a(g3939
I00
g3937
tp4385
a(g3949
I00
g3947
tp4386
a(g3959
I00
g3957
tp4387
a(g3969
I00
g3967
tp4388
a(g3979
I00
g3977
tp4389
aasbasbasbasbasbasbasbag49
(g65
g51
NtRp4390
(dp4391
g54
(dp4392
sg63
g4103
sg56
(lp4393
g49
(g70
g51
NtRp4394
(dp4395
g54
(dp4396
sg63
g4390
sg56
(lp4397
g49
(g50
g51
NtRp4398
(dp4399
g54
(dp4400
g62
I2
ssg63
g4394
sg56
(lp4401
g49
(g58
g51
NtRp4402
(dp4403
g54
(dp4404
g62
I1
ssg63
Nsg56
(lp4405
g49
(g65
g51
NtRp4406
(dp4407
g54
(dp4408
sg63
g4402
sg56
(lp4409
g49
(g70
g51
NtRp4410
(dp4411
g54
(dp4412
sg63
g4406
sg56
(lp4413
g49
(g50
g51
NtRp4414
(dp4415
g54
(dp4416
g62
I1
ssg63
g4410
sg56
(lp4417
g3988
asbasbasbag49
(g65
g51
NtRp4418
(dp4419
g54
(dp4420
sg63
g4402
sg56
(lp4421
g49
(g70
g51
NtRp4422
(dp4423
g54
(dp4424
sg63
g4418
sg56
(lp4425
g49
(g50
g51
NtRp4426
(dp4427
g54
(dp4428
g62
I1
ssg63
g4422
sg56
(lp4429
I00
asbasbasbag49
(g65
g51
NtRp4430
(dp4431
g54
(dp4432
sg63
g4402
sg56
(lp4433
g49
(g70
g51
NtRp4434
(dp4435
g54
(dp4436
sg63
g4430
sg56
(lp4437
g49
(g50
g51
NtRp4438
(dp4439
g54
(dp4440
g62
I1
ssg63
g4434
sg56
(lp4441
Nasbasbasbag49
(g65
g51
NtRp4442
(dp4443
g54
(dp4444
sg63
g4402
sg56
(lp4445
g49
(g70
g51
NtRp4446
(dp4447
g54
(dp4448
sg63
g4442
sg56
(lp4449
g49
(g50
g51
NtRp4450
(dp4451
g54
(dp4452
g62
I1
ssg63
g4446
sg56
(lp4453
(lp4454
(g4002
I00
g4000
tp4455
a(g4012
I00
g4010
tp4456
a(g4022
I00
g4020
tp4457
aasbasbasbasbasbasbasbag49
(g65
g51
NtRp4458
(dp4459
g54
(dp4460
sg63
g4103
sg56
(lp4461
g49
(g70
g51
NtRp4462
(dp4463
g54
(dp4464
sg63
g4458
sg56
(lp4465
g49
(g50
g51
NtRp4466
(dp4467
g54
(dp4468
g62
I2
ssg63
g4462
sg56
(lp4469
g49
(g58
g51
NtRp4470
(dp4471
g54
(dp4472
g62
I1
ssg63
Nsg56
(lp4473
g49
(g65
g51
NtRp4474
(dp4475
g54
(dp4476
sg63
g4470
sg56
(lp4477
g49
(g70
g51
NtRp4478
(dp4479
g54
(dp4480
sg63
g4474
sg56
(lp4481
g49
(g50
g51
NtRp4482
(dp4483
g54
(dp4484
g62
I1
ssg63
g4478
sg56
(lp4485
g4031
asbasbasbag49
(g65
g51
NtRp4486
(dp4487
g54
(dp4488
sg63
g4470
sg56
(lp4489
g49
(g70
g51
NtRp4490
(dp4491
g54
(dp4492
sg63
g4486
sg56
(lp4493
g49
(g50
g51
NtRp4494
(dp4495
g54
(dp4496
g62
I1
ssg63
g4490
sg56
(lp4497
I00
asbasbasbag49
(g65
g51
NtRp4498
(dp4499
g54
(dp4500
sg63
g4470
sg56
(lp4501
g49
(g70
g51
NtRp4502
(dp4503
g54
(dp4504
sg63
g4498
sg56
(lp4505
g49
(g50
g51
NtRp4506
(dp4507
g54
(dp4508
g62
I1
ssg63
g4502
sg56
(lp4509
Nasbasbasbag49
(g65
g51
NtRp4510
(dp4511
g54
(dp4512
sg63
g4470
sg56
(lp4513
g49
(g70
g51
NtRp4514
(dp4515
g54
(dp4516
sg63
g4510
sg56
(lp4517
g49
(g50
g51
NtRp4518
(dp4519
g54
(dp4520
g62
I1
ssg63
g4514
sg56
(lp4521
(lp4522
(g4045
I00
g4043
tp4523
a(g4054
I00
g3773
tp4524
a(g4063
I00
g3783
tp4525
aasbasbasbasbasbasbasbasbasbasbasbasbasbasbasbasbasbasbasbag49
(g65
g51
NtRp4526
(dp4527
g54
(dp4528
sg63
g2826
sg56
(lp4529
g49
(g70
g51
NtRp4530
(dp4531
g54
(dp4532
g74
g75
ssg63
g4526
sg56
(lp4533
S'meta'
p4534
asbag49
(g70
g51
NtRp4535
(dp4536
g54
(dp4537
g81
g82
ssg63
g4526
sg56
(lp4538
S':'
asbag49
(g70
g51
NtRp4539
(dp4540
g54
(dp4541
sg63
g4526
sg56
(lp4542
g49
(g50
g51
NtRp4543
(dp4544
g54
(dp4545
g62
I5
ssg63
g4539
sg56
(lp4546
g49
(g58
g51
NtRp4547
(dp4548
g54
(dp4549
g62
I4
ssg63
Nsg56
(lp4550
g49
(g65
g51
NtRp4551
(dp4552
g54
(dp4553
sg63
g4547
sg56
(lp4554
g49
(g70
g51
NtRp4555
(dp4556
g54
(dp4557
g74
g75
ssg63
g4551
sg56
(lp4558
S'author'
p4559
asbag49
(g70
g51
NtRp4560
(dp4561
g54
(dp4562
g81
g82
ssg63
g4551
sg56
(lp4563
S':'
asbag49
(g70
g51
NtRp4564
(dp4565
g54
(dp4566
sg63
g4551
sg56
(lp4567
g49
(g50
g51
NtRp4568
(dp4569
g54
(dp4570
g62
I4
ssg63
g4564
sg56
(lp4571
S'Your Name <you@example.com>'
p4572
asbasbasbag49
(g65
g51
NtRp4573
(dp4574
g54
(dp4575
sg63
g4547
sg56
(lp4576
g49
(g70
g51
NtRp4577
(dp4578
g54
(dp4579
g74
g75
ssg63
g4573
sg56
(lp4580
S'copyright'
p4581
asbag49
(g70
g51
NtRp4582
(dp4583
g54
(dp4584
g81
g82
ssg63
g4573
sg56
(lp4585
S':'
asbag49
(g70
g51
NtRp4586
(dp4587
g54
(dp4588
sg63
g4573
sg56
(lp4589
g49
(g50
g51
NtRp4590
(dp4591
g54
(dp4592
g62
I4
ssg63
g4586
sg56
(lp4593
S'Copyright 2011'
p4594
asbasbasbag49
(g65
g51
NtRp4595
(dp4596
g54
(dp4597
sg63
g4547
sg56
(lp4598
g49
(g70
g51
NtRp4599
(dp4600
g54
(dp4601
g74
g75
ssg63
g4595
sg56
(lp4602
S'description'
p4603
asbag49
(g70
g51
NtRp4604
(dp4605
g54
(dp4606
g81
g82
ssg63
g4595
sg56
(lp4607
S':'
asbag49
(g70
g51
NtRp4608
(dp4609
g54
(dp4610
sg63
g4595
sg56
(lp4611
g49
(g50
g51
NtRp4612
(dp4613
g54
(dp4614
g62
I4
ssg63
g4608
sg56
(lp4615
S'a cool new app'
p4616
asbasbasbag49
(g65
g51
NtRp4617
(dp4618
g54
(dp4619
sg63
g4547
sg56
(lp4620
g49
(g70
g51
NtRp4621
(dp4622
g54
(dp4623
g74
g75
ssg63
g4617
sg56
(lp4624
S'generator'
p4625
asbag49
(g70
g51
NtRp4626
(dp4627
g54
(dp4628
g81
g82
ssg63
g4617
sg56
(lp4629
S':'
asbag49
(g70
g51
NtRp4630
(dp4631
g54
(dp4632
sg63
g4617
sg56
(lp4633
g49
(g50
g51
NtRp4634
(dp4635
g54
(dp4636
g62
I4
ssg63
g4630
sg56
(lp4637
S'Web2py Web Framework'
p4638
asbasbasbag49
(g65
g51
NtRp4639
(dp4640
g54
(dp4641
sg63
g4547
sg56
(lp4642
g49
(g70
g51
NtRp4643
(dp4644
g54
(dp4645
g74
g75
ssg63
g4639
sg56
(lp4646
S'keywords'
p4647
asbag49
(g70
g51
NtRp4648
(dp4649
g54
(dp4650
g81
g82
ssg63
g4639
sg56
(lp4651
S':'
asbag49
(g70
g51
NtRp4652
(dp4653
g54
(dp4654
sg63
g4639
sg56
(lp4655
g49
(g50
g51
NtRp4656
(dp4657
g54
(dp4658
g62
I4
ssg63
g4652
sg56
(lp4659
S'web2py, python, framework'
p4660
asbasbasbasbasbasbasbag49
(g65
g51
NtRp4661
(dp4662
g54
(dp4663
sg63
g2826
sg56
(lp4664
g49
(g70
g51
NtRp4665
(dp4666
g54
(dp4667
g74
g75
ssg63
g4661
sg56
(lp4668
S'postprocessing'
p4669
asbag49
(g70
g51
NtRp4670
(dp4671
g54
(dp4672
g81
g82
ssg63
g4661
sg56
(lp4673
S':'
asbag49
(g70
g51
NtRp4674
(dp4675
g54
(dp4676
sg63
g4661
sg56
(lp4677
g49
(g50
g51
NtRp4678
(dp4679
g54
(dp4680
g62
I5
ssg63
g4674
sg56
(lp4681
g49
(g58
g51
NtRp4682
(dp4683
g54
(dp4684
g62
I4
ssg63
Nsg56
(lp4685
sbasbasbasbag49
(g65
g51
NtRp4686
(dp4687
g54
(dp4688
sg63
g2826
sg56
(lp4689
g49
(g70
g51
NtRp4690
(dp4691
g54
(dp4692
g74
g75
ssg63
g4686
sg56
(lp4693
S'session_file'
p4694
asbag49
(g70
g51
NtRp4695
(dp4696
g54
(dp4697
g81
g82
ssg63
g4686
sg56
(lp4698
S':'
asbag49
(g70
g51
NtRp4699
(dp4700
g54
(dp4701
sg63
g4686
sg56
(lp4702
g49
(g50
g51
NtRp4703
(dp4704
g54
(dp4705
g62
I5
ssg63
g4699
sg56
(lp4706
S"<open file 'C:\\web2py\\applications\\unioeste_code\\sessions\\127.0.0.1-e2123eb0-50ff-4f28-8e81-a6ab4f6057bb', mode 'rb+' at 0x06D51CC8>"
p4707
asbasbasbag49
(g65
g51
NtRp4708
(dp4709
g54
(dp4710
sg63
g2826
sg56
(lp4711
g49
(g70
g51
NtRp4712
(dp4713
g54
(dp4714
g74
g75
ssg63
g4708
sg56
(lp4715
S'session_filename'
p4716
asbag49
(g70
g51
NtRp4717
(dp4718
g54
(dp4719
g81
g82
ssg63
g4708
sg56
(lp4720
S':'
asbag49
(g70
g51
NtRp4721
(dp4722
g54
(dp4723
sg63
g4708
sg56
(lp4724
g49
(g50
g51
NtRp4725
(dp4726
g54
(dp4727
g62
I5
ssg63
g4721
sg56
(lp4728
S'C:\\web2py\\applications\\unioeste_code\\sessions\\127.0.0.1-e2123eb0-50ff-4f28-8e81-a6ab4f6057bb'
p4729
asbasbasbag49
(g65
g51
NtRp4730
(dp4731
g54
(dp4732
sg63
g2826
sg56
(lp4733
g49
(g70
g51
NtRp4734
(dp4735
g54
(dp4736
g74
g75
ssg63
g4730
sg56
(lp4737
S'session_id'
p4738
asbag49
(g70
g51
NtRp4739
(dp4740
g54
(dp4741
g81
g82
ssg63
g4730
sg56
(lp4742
S':'
asbag49
(g70
g51
NtRp4743
(dp4744
g54
(dp4745
sg63
g4730
sg56
(lp4746
g49
(g50
g51
NtRp4747
(dp4748
g54
(dp4749
g62
I5
ssg63
g4743
sg56
(lp4750
S'127.0.0.1-e2123eb0-50ff-4f28-8e81-a6ab4f6057bb'
p4751
asbasbasbag49
(g65
g51
NtRp4752
(dp4753
g54
(dp4754
sg63
g2826
sg56
(lp4755
g49
(g70
g51
NtRp4756
(dp4757
g54
(dp4758
g74
g75
ssg63
g4752
sg56
(lp4759
S'session_id_name'
p4760
asbag49
(g70
g51
NtRp4761
(dp4762
g54
(dp4763
g81
g82
ssg63
g4752
sg56
(lp4764
S':'
asbag49
(g70
g51
NtRp4765
(dp4766
g54
(dp4767
sg63
g4752
sg56
(lp4768
g49
(g50
g51
NtRp4769
(dp4770
g54
(dp4771
g62
I5
ssg63
g4765
sg56
(lp4772
g2883
asbasbasbag49
(g65
g51
NtRp4773
(dp4774
g54
(dp4775
sg63
g2826
sg56
(lp4776
g49
(g70
g51
NtRp4777
(dp4778
g54
(dp4779
g74
g75
ssg63
g4773
sg56
(lp4780
S'session_locked'
p4781
asbag49
(g70
g51
NtRp4782
(dp4783
g54
(dp4784
g81
g82
ssg63
g4773
sg56
(lp4785
S':'
asbag49
(g70
g51
NtRp4786
(dp4787
g54
(dp4788
sg63
g4773
sg56
(lp4789
g49
(g50
g51
NtRp4790
(dp4791
g54
(dp4792
g62
I5
ssg63
g4786
sg56
(lp4793
g1443
asbasbasbag49
(g65
g51
NtRp4794
(dp4795
g54
(dp4796
sg63
g2826
sg56
(lp4797
g49
(g70
g51
NtRp4798
(dp4799
g54
(dp4800
g74
g75
ssg63
g4794
sg56
(lp4801
S'session_new'
p4802
asbag49
(g70
g51
NtRp4803
(dp4804
g54
(dp4805
g81
g82
ssg63
g4794
sg56
(lp4806
S':'
asbag49
(g70
g51
NtRp4807
(dp4808
g54
(dp4809
sg63
g4794
sg56
(lp4810
g49
(g50
g51
NtRp4811
(dp4812
g54
(dp4813
g62
I5
ssg63
g4807
sg56
(lp4814
g92
asbasbasbag49
(g65
g51
NtRp4815
(dp4816
g54
(dp4817
sg63
g2826
sg56
(lp4818
g49
(g70
g51
NtRp4819
(dp4820
g54
(dp4821
g74
g75
ssg63
g4815
sg56
(lp4822
S'status'
p4823
asbag49
(g70
g51
NtRp4824
(dp4825
g54
(dp4826
g81
g82
ssg63
g4815
sg56
(lp4827
S':'
asbag49
(g70
g51
NtRp4828
(dp4829
g54
(dp4830
sg63
g4815
sg56
(lp4831
g49
(g50
g51
NtRp4832
(dp4833
g54
(dp4834
g62
I5
ssg63
g4828
sg56
(lp4835
S'200'
p4836
asbasbasbag49
(g65
g51
NtRp4837
(dp4838
g54
(dp4839
sg63
g2826
sg56
(lp4840
g49
(g70
g51
NtRp4841
(dp4842
g54
(dp4843
g74
g75
ssg63
g4837
sg56
(lp4844
S'subtitle'
p4845
asbag49
(g70
g51
NtRp4846
(dp4847
g54
(dp4848
g81
g82
ssg63
g4837
sg56
(lp4849
S':'
asbag49
(g70
g51
NtRp4850
(dp4851
g54
(dp4852
sg63
g4837
sg56
(lp4853
g49
(g50
g51
NtRp4854
(dp4855
g54
(dp4856
g62
I5
ssg63
g4850
sg56
(lp4857
g3454
(S's\x0f\x00\x00\x00Personalize-me!'
tRp4858
asbasbasbag49
(g65
g51
NtRp4859
(dp4860
g54
(dp4861
sg63
g2826
sg56
(lp4862
g49
(g70
g51
NtRp4863
(dp4864
g54
(dp4865
g74
g75
ssg63
g4859
sg56
(lp4866
S'title'
p4867
asbag49
(g70
g51
NtRp4868
(dp4869
g54
(dp4870
g81
g82
ssg63
g4859
sg56
(lp4871
S':'
asbag49
(g70
g51
NtRp4872
(dp4873
g54
(dp4874
sg63
g4859
sg56
(lp4875
g49
(g50
g51
NtRp4876
(dp4877
g54
(dp4878
g62
I5
ssg63
g4872
sg56
(lp4879
S'Unioeste Code'
p4880
asbasbasbag49
(g65
g51
NtRp4881
(dp4882
g54
(dp4883
sg63
g2826
sg56
(lp4884
g49
(g70
g51
NtRp4885
(dp4886
g54
(dp4887
g74
g75
ssg63
g4881
sg56
(lp4888
g2107
asbag49
(g70
g51
NtRp4889
(dp4890
g54
(dp4891
g81
g82
ssg63
g4881
sg56
(lp4892
S':'
asbag49
(g70
g51
NtRp4893
(dp4894
g54
(dp4895
sg63
g4881
sg56
(lp4896
g49
(g50
g51
NtRp4897
(dp4898
g54
(dp4899
g62
I5
ssg63
g4893
sg56
(lp4900
g2120
asbasbasbag49
(g65
g51
NtRp4901
(dp4902
g54
(dp4903
sg63
g2826
sg56
(lp4904
g49
(g70
g51
NtRp4905
(dp4906
g54
(dp4907
g74
g75
ssg63
g4901
sg56
(lp4908
S'view'
p4909
asbag49
(g70
g51
NtRp4910
(dp4911
g54
(dp4912
g81
g82
ssg63
g4901
sg56
(lp4913
S':'
asbag49
(g70
g51
NtRp4914
(dp4915
g54
(dp4916
sg63
g4901
sg56
(lp4917
g49
(g50
g51
NtRp4918
(dp4919
g54
(dp4920
g62
I5
ssg63
g4914
sg56
(lp4921
S'default/index.html'
p4922
asbasbasbasbasbsS'locals'
p4923
(dp4924
S'Service'
p4925
S"<class 'gluon.tools.Service'>"
p4926
sS'OBJECT'
p4927
S"<class 'gluon.html.OBJECT'>"
p4928
sS'SQLDB'
p4929
S"<class 'gluon.dal.DAL'>"
p4930
sg2808
S"<Storage {'_Session__hash': 'Pd\\x93j9*\\xb3\\xde\\x... {'version': '20.0.1132.57', 'name': 'Chrome'}}}>"
p4931
sS'LINK'
p4932
S"<class 'gluon.html.LINK'>"
p4933
sS'BR'
p4934
S"<class 'gluon.html.BR'>"
p4935
sS'local_import'
p4936
S'<function <lambda> at 0x06B602F0>'
p4937
sS'OPTGROUP'
p4938
S"<class 'gluon.html.OPTGROUP'>"
p4939
sS'PRE'
p4940
S"<class 'gluon.html.PRE'>"
p4941
sS'IS_INT_IN_RANGE'
p4942
S"<class 'gluon.validators.IS_INT_IN_RANGE'>"
p4943
sS'left_sidebar_enabled'
p4944
g92
sS'IS_LOWER'
p4945
S"<class 'gluon.validators.IS_LOWER'>"
p4946
sS'IS_STRONG'
p4947
S"<class 'gluon.validators.IS_STRONG'>"
p4948
sS'Recaptcha'
p4949
S"<class 'gluon.tools.Recaptcha'>"
p4950
sS'cache'
p4951
S'<gluon.cache.Cache object at 0x06B2C850>'
p4952
sS'IS_IN_DB'
p4953
S"<class 'gluon.validators.IS_IN_DB'>"
p4954
sS'TAG'
p4955
S'<gluon.html.__TAG__ object at 0x0266BE30>'
p4956
sS'SQLField'
p4957
S"<class 'gluon.dal.Field'>"
p4958
sS'BODY'
p4959
S"<class 'gluon.html.BODY'>"
p4960
sS'IS_DATE_IN_RANGE'
p4961
S"<class 'gluon.validators.IS_DATE_IN_RANGE'>"
p4962
sS'TH'
p4963
S"<class 'gluon.html.TH'>"
p4964
sS'URL'
p4965
S'<function URL at 0x026CD8F0>'
p4966
sS'__file__'
p4967
S"r'C:\\web2py\\applications\\unioeste_code\\views\\default/index.html'"
p4968
sS'db'
p4969
S"<DAL {'comment': <Table {'body': <gluon.dal.Fiel...object at 0x06ABD930>, '_singular': 'Problem'}>}>"
p4970
sS'auth'
p4971
S'<gluon.tools.Auth object at 0x06B2C450>'
p4972
sS'P'
S"<class 'gluon.html.P'>"
p4973
sS'TFOOT'
p4974
S"<class 'gluon.html.TFOOT'>"
p4975
sS'XHTML'
p4976
S"<class 'gluon.html.XHTML'>"
p4977
sS'ON'
p4978
g1443
sS'OL'
p4979
S"<class 'gluon.html.OL'>"
p4980
sS'TEXTAREA'
p4981
S"<class 'gluon.html.TEXTAREA'>"
p4982
sS'MENU'
p4983
S"<class 'gluon.html.MENU'>"
p4984
sS'LOAD'
p4985
S'<function LOAD at 0x029454B0>'
p4986
sS'CODE'
p4987
S"<class 'gluon.html.CODE'>"
p4988
sS'HTTP'
p4989
S"<class 'gluon.http.HTTP'>"
p4990
sS'HR'
p4991
S"<class 'gluon.html.HR'>"
p4992
sS'IS_DATETIME'
p4993
S"<class 'gluon.validators.IS_DATETIME'>"
p4994
sS'HEAD'
p4995
S"<class 'gluon.html.HEAD'>"
p4996
sS'LABEL'
p4997
S"<class 'gluon.html.LABEL'>"
p4998
sS'CLEANUP'
p4999
S"<class 'gluon.validators.CLEANUP'>"
p5000
sS'SELECT'
p5001
S"<class 'gluon.html.SELECT'>"
p5002
sS'CENTER'
p5003
S"<class 'gluon.html.CENTER'>"
p5004
sS'prettydate'
p5005
S'<function prettydate at 0x0324DEF0>'
p5006
sS'Crud'
p5007
S"<class 'gluon.tools.Crud'>"
p5008
sS'Auth'
p5009
S"<class 'gluon.tools.Auth'>"
p5010
sS'__builtins__'
p5011
S"{'ArithmeticError': <type 'exceptions.ArithmeticError'>, 'AssertionError': <type 'exceptions.AssertionError'>, 'AttributeError': <type 'exceptions.AttributeError'>, 'BaseException': <type 'exceptions.BaseException'>, 'DeprecationWarning': <type 'exceptions.DeprecationWarning'>, 'EOFError': <type 'exceptions.EOFError'>, 'Ellipsis': Ellipsis, 'EnvironmentError': <type 'exceptions.EnvironmentError'>, 'Exception': <type 'exceptions.Exception'>, 'False': False, ...}"
p5012
sS'HTML'
p5013
S"<class 'gluon.html.HTML'>"
p5014
sS'SQLFORM'
p5015
S"<class 'gluon.sqlhtml.SQLFORM'>"
p5016
sS'EM'
p5017
S"<class 'gluon.html.EM'>"
p5018
sS'redirect'
p5019
S'<function redirect at 0x02548F70>'
p5020
sS'FIELDSET'
p5021
S"<class 'gluon.html.FIELDSET'>"
p5022
sS'IS_EQUAL_TO'
p5023
S"<class 'gluon.validators.IS_EQUAL_TO'>"
p5024
sS'embed64'
p5025
S'<function embed64 at 0x026D1430>'
p5026
sS'IS_LIST_OF'
p5027
S"<class 'gluon.validators.IS_LIST_OF'>"
p5028
sS'__name__'
p5029
S"'__restricted__'"
p5030
sS'EMBED'
p5031
S"<class 'gluon.html.EMBED'>"
p5032
sS'_'
S'<function _ at 0x06B4BDF0>'
p5033
sS'FORM'
p5034
S"<class 'gluon.html.FORM'>"
p5035
sS'H2'
p5036
S"<class 'gluon.html.H2'>"
p5037
sS'H3'
p5038
S"<class 'gluon.html.H3'>"
p5039
sS'BUTTON'
p5040
S"<class 'gluon.html.BUTTON'>"
p5041
sS'H1'
p5042
S"<class 'gluon.html.H1'>"
p5043
sS'H6'
p5044
S"<class 'gluon.html.H6'>"
p5045
sS'H4'
p5046
S"<class 'gluon.html.H4'>"
p5047
sS'H5'
p5048
S"<class 'gluon.html.H5'>"
p5049
sS'UL'
p5050
S"<class 'gluon.html.UL'>"
p5051
sS'IS_UPPER'
p5052
S"<class 'gluon.validators.IS_UPPER'>"
p5053
sS'xmlescape'
p5054
S'<function xmlescape at 0x026CD870>'
p5055
sS'IS_TIME'
p5056
S"<class 'gluon.validators.IS_TIME'>"
p5057
sS'OPTION'
p5058
S"<class 'gluon.html.OPTION'>"
p5059
sS'TITLE'
p5060
S"<class 'gluon.html.TITLE'>"
p5061
sS'CRYPT'
p5062
S"<class 'gluon.validators.CRYPT'>"
p5063
sS'IS_EMPTY_OR'
p5064
S"<class 'gluon.validators.IS_EMPTY_OR'>"
p5065
sS'MARKMIN'
p5066
S"<class 'gluon.html.MARKMIN'>"
p5067
sS'INPUT'
p5068
S"<class 'gluon.html.INPUT'>"
p5069
sS'COL'
p5070
S"<class 'gluon.html.COL'>"
p5071
sS'SCRIPT'
p5072
S"<class 'gluon.html.SCRIPT'>"
p5073
sS'geocode'
p5074
S'<function geocode at 0x0324D830>'
p5075
sS'is_mobile'
p5076
g92
sS'TABLE'
p5077
S"<class 'gluon.html.TABLE'>"
p5078
sS'IS_IPV4'
p5079
S"<class 'gluon.validators.IS_IPV4'>"
p5080
sS'IS_LENGTH'
p5081
S"<class 'gluon.validators.IS_LENGTH'>"
p5082
sS'XML'
p5083
S"<class 'gluon.html.XML'>"
p5084
sS'B'
S"<class 'gluon.html.B'>"
p5085
sS'IMG'
p5086
S"<class 'gluon.html.IMG'>"
p5087
sS'SQLTABLE'
p5088
S"<class 'gluon.sqlhtml.SQLTABLE'>"
p5089
sS'IS_MATCH'
p5090
S"<class 'gluon.validators.IS_MATCH'>"
p5091
sS'IS_ALPHANUMERIC'
p5092
S"<class 'gluon.validators.IS_ALPHANUMERIC'>"
p5093
sS'SPAN'
p5094
S"<class 'gluon.html.SPAN'>"
p5095
sS'IS_SLUG'
p5096
S"<class 'gluon.validators.IS_SLUG'>"
p5097
sS'BEAUTIFY'
p5098
S"<class 'gluon.html.BEAUTIFY'>"
p5099
sS'META'
p5100
S"<class 'gluon.html.META'>"
p5101
sS'problem'
p5102
S"<Row {'body': 'Imprimir na tela os N primeiros n...lete_record': <function <lambda> at 0x06D4CC30>}>"
p5103
sS'fetch'
p5104
S'<function fetch at 0x032476B0>'
p5105
sS'IS_DATE'
p5106
S"<class 'gluon.validators.IS_DATE'>"
p5107
sS'IS_EMAIL'
p5108
S"<class 'gluon.validators.IS_EMAIL'>"
p5109
sS'IS_NOT_EMPTY'
p5110
S"<class 'gluon.validators.IS_NOT_EMPTY'>"
p5111
sg48
S"<Storage {'body': <cStringIO.StringO object at 0..._vars': <Storage {}>, 'post_vars': <Storage {}>}>"
p5112
sS'TBODY'
p5113
S"<class 'gluon.html.TBODY'>"
p5114
sS'CAT'
p5115
S"<class 'gluon.html.CAT'>"
p5116
sS'Field'
p5117
S"<class 'gluon.dal.Field'>"
p5118
sS'middle_columns'
p5119
S"'sixteen'"
p5120
sS'Mail'
p5121
S"<class 'gluon.tools.Mail'>"
p5122
sS'DIV'
p5123
S"<class 'gluon.html.DIV'>"
p5124
sS'LEGEND'
p5125
S"<class 'gluon.html.LEGEND'>"
p5126
sS'COLGROUP'
p5127
S"<class 'gluon.html.COLGROUP'>"
p5128
sS'DAL'
p5129
S"<class 'gluon.dal.DAL'>"
p5130
sS'TT'
p5131
S"<class 'gluon.html.TT'>"
p5132
sS'TR'
p5133
S"<class 'gluon.html.TR'>"
p5134
sS'LI'
p5135
S"<class 'gluon.html.LI'>"
p5136
sS'right_sidebar_enabled'
p5137
g92
sS'IFRAME'
p5138
S"<class 'gluon.html.IFRAME'>"
p5139
sS'TD'
p5140
S"<class 'gluon.html.TD'>"
p5141
sS'PluginManager'
p5142
S"<class 'gluon.tools.PluginManager'>"
p5143
sS'IS_URL'
p5144
S"<class 'gluon.validators.IS_URL'>"
p5145
sS'A'
S"<class 'gluon.html.A'>"
p5146
sS'STYLE'
p5147
S"<class 'gluon.html.STYLE'>"
p5148
sS'IS_DATETIME_IN_RANGE'
p5149
S"<class 'gluon.validators.IS_DATETIME_IN_RANGE'>"
p5150
sS'IS_IMAGE'
p5151
S"<class 'gluon.validators.IS_IMAGE'>"
p5152
sS'I'
S"<class 'gluon.html.I'>"
p5153
sS'crud'
p5154
S'<gluon.tools.Crud object at 0x06ABD0B0>'
p5155
sS'problems'
p5156
S'<gluon.dal.Rows object at 0x06B4AC30>'
p5157
sS'IS_NOT_IN_DB'
p5158
S"<class 'gluon.validators.IS_NOT_IN_DB'>"
p5159
sS'user'
p5160
S"<Row {'comment': <gluon.dal.Set object at 0x069F...lete_record': <function <lambda> at 0x06AB4430>}>"
p5161
sg2821
S"<Storage {'body': <cStringIO.StringO object at 0...a> at 0x06B605B0>, 'view': 'default/index.html'}>"
p5162
sS'THEAD'
p5163
S"<class 'gluon.html.THEAD'>"
p5164
sS'IS_NULL_OR'
p5165
S"<class 'gluon.validators.IS_EMPTY_OR'>"
p5166
sS'IS_FLOAT_IN_RANGE'
p5167
S"<class 'gluon.validators.IS_FLOAT_IN_RANGE'>"
p5168
sS'IS_EXPR'
p5169
S"<class 'gluon.validators.IS_EXPR'>"
p5170
sS'T'
S'<gluon.languages.translator object at 0x06B2C3F0>'
p5171
sS'IS_IN_SET'
p5172
S"<class 'gluon.validators.IS_IN_SET'>"
p5173
sS'IS_UPLOAD_FILENAME'
p5174
S"<class 'gluon.validators.IS_UPLOAD_FILENAME'>"
p5175
sS'IS_DECIMAL_IN_RANGE'
p5176
S"<class 'gluon.validators.IS_DECIMAL_IN_RANGE'>"
p5177
sssS'traceback'
p5178
S'Traceback (most recent call last):\n  File "gluon/restricted.py", line 205, in restricted\n  File "C:\\web2py\\applications\\unioeste_code\\views\\default/index.html", line 86, in <module>\nTypeError: cannot concatenate \'str\' and \'B\' objects\n'
p5179
s.