(dp1
S'output'
p2
S"<type 'exceptions.SyntaxError'> invalid syntax (db.py, line 28)"
p3
sS'layer'
p4
S'C:\\web2py\\applications\\unioeste_code\\models\\db.py'
p5
sS'code'
p6
S"\ndb = DAL('sqlite://storage.sqlite')\n\nfrom gluon.tools import *\n\nauth = Auth(db)\nauth.define_tables()\n\n\ndb.define_table('problem',\n    Field('title'),\n    Field('body','text'),\n    Field('created_on','datetime',default=request.now),\n    Field('created_by', db.auth_user, default=auth.user_id)\n    )\n\ndb.define_table('code',\n    Field('title'),\n    Field('body','text'),\n    Field('created_on', 'datetime', default=request.now),\n    Field('created_by', db.auth_user, default=auth.user_id)\n    )\n\ndb.define_table('comment',\n    Field('code_id', db.code),\n    Field('body', 'text'),\n    Field('created_on','datetime', default=request.now)\n    Field('created_by', db.auth_user, default=auth.user_id)\n    )\n\n"
p7
sS'snapshot'
p8
(dp9
S'exception'
p10
(dp11
S'__getslice__'
p12
S"<method-wrapper '__getslice__' of exceptions.SyntaxError object at 0x0621C8F0>"
p13
sS'text'
p14
S'"    Field(\'created_by\', db.auth_user, default=auth.user_id)\\n"'
p15
sS'__str__'
p16
S"<method-wrapper '__str__' of exceptions.SyntaxError object at 0x0621C8F0>"
p17
sS'__reduce__'
p18
S'<built-in method __reduce__ of exceptions.SyntaxError object at 0x0621C8F0>'
p19
sS'__dict__'
p20
S'{}'
p21
sS'__init__'
p22
S"<method-wrapper '__init__' of exceptions.SyntaxError object at 0x0621C8F0>"
p23
sS'__setattr__'
p24
S"<method-wrapper '__setattr__' of exceptions.SyntaxError object at 0x0621C8F0>"
p25
sS'__reduce_ex__'
p26
S'<built-in method __reduce_ex__ of exceptions.SyntaxError object at 0x0621C8F0>'
p27
sS'__new__'
p28
S'<built-in method __new__ of type object at 0x1E1CDBD0>'
p29
sS'__class__'
p30
S"<type 'exceptions.SyntaxError'>"
p31
sS'filename'
p32
S"r'C:\\web2py\\applications\\unioeste_code\\models\\db.py'"
p33
sS'lineno'
p34
S'28'
p35
sS'msg'
p36
S"'invalid syntax'"
p37
sS'__doc__'
p38
S"'Invalid syntax.'"
p39
sS'__getitem__'
p40
S"<method-wrapper '__getitem__' of exceptions.SyntaxError object at 0x0621C8F0>"
p41
sS'__setstate__'
p42
S'<built-in method __setstate__ of exceptions.SyntaxError object at 0x0621C8F0>'
p43
sS'__getattribute__'
p44
S"<method-wrapper '__getattribute__' of exceptions.SyntaxError object at 0x0621C8F0>"
p45
sS'print_file_and_line'
p46
S'None'
p47
sS'args'
p48
S'(\'invalid syntax\', (r\'C:\\web2py\\applications\\unioeste_code\\models\\db.py\', 28, 9, "    Field(\'created_by\', db.auth_user, default=auth.user_id)\\n"))'
p49
sS'offset'
p50
S'9'
sS'__delattr__'
p51
S"<method-wrapper '__delattr__' of exceptions.SyntaxError object at 0x0621C8F0>"
p52
sS'__repr__'
p53
S"<method-wrapper '__repr__' of exceptions.SyntaxError object at 0x0621C8F0>"
p54
sS'__hash__'
p55
S"<method-wrapper '__hash__' of exceptions.SyntaxError object at 0x0621C8F0>"
p56
ssS'evalue'
p57
S'invalid syntax (db.py, line 28)'
p58
sS'request'
p59
ccopy_reg
_reconstructor
p60
(cgluon.html
BEAUTIFY
p61
c__builtin__
object
p62
NtRp63
(dp64
S'attributes'
p65
(dp66
sS'components'
p67
(lp68
g60
(cgluon.html
TABLE
p69
g62
NtRp70
(dp71
g65
(dp72
S'level'
p73
I5
ssS'parent'
p74
Nsg67
(lp75
g60
(cgluon.html
TR
p76
g62
NtRp77
(dp78
g65
(dp79
sg74
g70
sg67
(lp80
g60
(cgluon.html
TD
p81
g62
NtRp82
(dp83
g65
(dp84
S'_style'
p85
S'font-weight:bold;vertical-align:top'
p86
ssg74
g77
sg67
(lp87
S'ajax'
p88
asbag60
(g81
g62
NtRp89
(dp90
g65
(dp91
S'_valign'
p92
S'top'
p93
ssg74
g77
sg67
(lp94
S':'
asbag60
(g81
g62
NtRp95
(dp96
g65
(dp97
sg74
g77
sg67
(lp98
g60
(g61
g62
NtRp99
(dp100
g65
(dp101
g73
I5
ssg74
g95
sg67
(lp102
S'False'
p103
asbasbasbag60
(g76
g62
NtRp104
(dp105
g65
(dp106
sg74
g70
sg67
(lp107
g60
(g81
g62
NtRp108
(dp109
g65
(dp110
g85
g86
ssg74
g104
sg67
(lp111
S'application'
p112
asbag60
(g81
g62
NtRp113
(dp114
g65
(dp115
g92
g93
ssg74
g104
sg67
(lp116
S':'
asbag60
(g81
g62
NtRp117
(dp118
g65
(dp119
sg74
g104
sg67
(lp120
g60
(g61
g62
NtRp121
(dp122
g65
(dp123
g73
I5
ssg74
g117
sg67
(lp124
S'unioeste_code'
p125
asbasbasbag60
(g76
g62
NtRp126
(dp127
g65
(dp128
sg74
g70
sg67
(lp129
g60
(g81
g62
NtRp130
(dp131
g65
(dp132
g85
g86
ssg74
g126
sg67
(lp133
g48
asbag60
(g81
g62
NtRp134
(dp135
g65
(dp136
g92
g93
ssg74
g126
sg67
(lp137
S':'
asbag60
(g81
g62
NtRp138
(dp139
g65
(dp140
sg74
g126
sg67
(lp141
g60
(g61
g62
NtRp142
(dp143
g65
(dp144
g73
I5
ssg74
g138
sg67
(lp145
g60
(g69
g62
NtRp146
(dp147
g65
(dp148
g73
I4
ssg74
Nsg67
(lp149
sbasbasbasbag60
(g76
g62
NtRp150
(dp151
g65
(dp152
sg74
g70
sg67
(lp153
g60
(g81
g62
NtRp154
(dp155
g65
(dp156
g85
g86
ssg74
g150
sg67
(lp157
S'body'
p158
asbag60
(g81
g62
NtRp159
(dp160
g65
(dp161
g92
g93
ssg74
g150
sg67
(lp162
S':'
asbag60
(g81
g62
NtRp163
(dp164
g65
(dp165
sg74
g150
sg67
(lp166
g60
(g61
g62
NtRp167
(dp168
g65
(dp169
g73
I5
ssg74
g163
sg67
(lp170
S'<cStringIO.StringO object at 0x05F6A380>'
p171
asbasbasbag60
(g76
g62
NtRp172
(dp173
g65
(dp174
sg74
g70
sg67
(lp175
g60
(g81
g62
NtRp176
(dp177
g65
(dp178
g85
g86
ssg74
g172
sg67
(lp179
S'client'
p180
asbag60
(g81
g62
NtRp181
(dp182
g65
(dp183
g92
g93
ssg74
g172
sg67
(lp184
S':'
asbag60
(g81
g62
NtRp185
(dp186
g65
(dp187
sg74
g172
sg67
(lp188
g60
(g61
g62
NtRp189
(dp190
g65
(dp191
g73
I5
ssg74
g185
sg67
(lp192
S'127.0.0.1'
p193
asbasbasbag60
(g76
g62
NtRp194
(dp195
g65
(dp196
sg74
g70
sg67
(lp197
g60
(g81
g62
NtRp198
(dp199
g65
(dp200
g85
g86
ssg74
g194
sg67
(lp201
S'controller'
p202
asbag60
(g81
g62
NtRp203
(dp204
g65
(dp205
g92
g93
ssg74
g194
sg67
(lp206
S':'
asbag60
(g81
g62
NtRp207
(dp208
g65
(dp209
sg74
g194
sg67
(lp210
g60
(g61
g62
NtRp211
(dp212
g65
(dp213
g73
I5
ssg74
g207
sg67
(lp214
S'default'
p215
asbasbasbag60
(g76
g62
NtRp216
(dp217
g65
(dp218
sg74
g70
sg67
(lp219
g60
(g81
g62
NtRp220
(dp221
g65
(dp222
g85
g86
ssg74
g216
sg67
(lp223
S'cookies'
p224
asbag60
(g81
g62
NtRp225
(dp226
g65
(dp227
g92
g93
ssg74
g216
sg67
(lp228
S':'
asbag60
(g81
g62
NtRp229
(dp230
g65
(dp231
sg74
g216
sg67
(lp232
g60
(g61
g62
NtRp233
(dp234
g65
(dp235
g73
I5
ssg74
g229
sg67
(lp236
g60
(g69
g62
NtRp237
(dp238
g65
(dp239
g73
I4
ssg74
Nsg67
(lp240
g60
(g76
g62
NtRp241
(dp242
g65
(dp243
sg74
g237
sg67
(lp244
g60
(g81
g62
NtRp245
(dp246
g65
(dp247
g85
g86
ssg74
g241
sg67
(lp248
S'session_id_welcome'
p249
asbag60
(g81
g62
NtRp250
(dp251
g65
(dp252
g92
g93
ssg74
g241
sg67
(lp253
S':'
asbag60
(g81
g62
NtRp254
(dp255
g65
(dp256
sg74
g241
sg67
(lp257
g60
(g61
g62
NtRp258
(dp259
g65
(dp260
g73
I4
ssg74
g254
sg67
(lp261
g60
(g69
g62
NtRp262
(dp263
g65
(dp264
g73
I3
ssg74
Nsg67
(lp265
g60
(g76
g62
NtRp266
(dp267
g65
(dp268
sg74
g262
sg67
(lp269
g60
(g81
g62
NtRp270
(dp271
g65
(dp272
g85
g86
ssg74
g266
sg67
(lp273
S'comment'
p274
asbag60
(g81
g62
NtRp275
(dp276
g65
(dp277
g92
g93
ssg74
g266
sg67
(lp278
S':'
asbag60
(g81
g62
NtRp279
(dp280
g65
(dp281
sg74
g266
sg67
(lp282
g60
(g61
g62
NtRp283
(dp284
g65
(dp285
g73
I3
ssg74
g279
sg67
(lp286
S''
asbasbasbag60
(g76
g62
NtRp287
(dp288
g65
(dp289
sg74
g262
sg67
(lp290
g60
(g81
g62
NtRp291
(dp292
g65
(dp293
g85
g86
ssg74
g287
sg67
(lp294
S'domain'
p295
asbag60
(g81
g62
NtRp296
(dp297
g65
(dp298
g92
g93
ssg74
g287
sg67
(lp299
S':'
asbag60
(g81
g62
NtRp300
(dp301
g65
(dp302
sg74
g287
sg67
(lp303
g60
(g61
g62
NtRp304
(dp305
g65
(dp306
g73
I3
ssg74
g300
sg67
(lp307
S''
asbasbasbag60
(g76
g62
NtRp308
(dp309
g65
(dp310
sg74
g262
sg67
(lp311
g60
(g81
g62
NtRp312
(dp313
g65
(dp314
g85
g86
ssg74
g308
sg67
(lp315
S'expires'
p316
asbag60
(g81
g62
NtRp317
(dp318
g65
(dp319
g92
g93
ssg74
g308
sg67
(lp320
S':'
asbag60
(g81
g62
NtRp321
(dp322
g65
(dp323
sg74
g308
sg67
(lp324
g60
(g61
g62
NtRp325
(dp326
g65
(dp327
g73
I3
ssg74
g321
sg67
(lp328
S''
asbasbasbag60
(g76
g62
NtRp329
(dp330
g65
(dp331
sg74
g262
sg67
(lp332
g60
(g81
g62
NtRp333
(dp334
g65
(dp335
g85
g86
ssg74
g329
sg67
(lp336
S'max-age'
p337
asbag60
(g81
g62
NtRp338
(dp339
g65
(dp340
g92
g93
ssg74
g329
sg67
(lp341
S':'
asbag60
(g81
g62
NtRp342
(dp343
g65
(dp344
sg74
g329
sg67
(lp345
g60
(g61
g62
NtRp346
(dp347
g65
(dp348
g73
I3
ssg74
g342
sg67
(lp349
S''
asbasbasbag60
(g76
g62
NtRp350
(dp351
g65
(dp352
sg74
g262
sg67
(lp353
g60
(g81
g62
NtRp354
(dp355
g65
(dp356
g85
g86
ssg74
g350
sg67
(lp357
S'path'
p358
asbag60
(g81
g62
NtRp359
(dp360
g65
(dp361
g92
g93
ssg74
g350
sg67
(lp362
S':'
asbag60
(g81
g62
NtRp363
(dp364
g65
(dp365
sg74
g350
sg67
(lp366
g60
(g61
g62
NtRp367
(dp368
g65
(dp369
g73
I3
ssg74
g363
sg67
(lp370
S''
asbasbasbag60
(g76
g62
NtRp371
(dp372
g65
(dp373
sg74
g262
sg67
(lp374
g60
(g81
g62
NtRp375
(dp376
g65
(dp377
g85
g86
ssg74
g371
sg67
(lp378
S'secure'
p379
asbag60
(g81
g62
NtRp380
(dp381
g65
(dp382
g92
g93
ssg74
g371
sg67
(lp383
S':'
asbag60
(g81
g62
NtRp384
(dp385
g65
(dp386
sg74
g371
sg67
(lp387
g60
(g61
g62
NtRp388
(dp389
g65
(dp390
g73
I3
ssg74
g384
sg67
(lp391
S''
asbasbasbag60
(g76
g62
NtRp392
(dp393
g65
(dp394
sg74
g262
sg67
(lp395
g60
(g81
g62
NtRp396
(dp397
g65
(dp398
g85
g86
ssg74
g392
sg67
(lp399
S'version'
p400
asbag60
(g81
g62
NtRp401
(dp402
g65
(dp403
g92
g93
ssg74
g392
sg67
(lp404
S':'
asbag60
(g81
g62
NtRp405
(dp406
g65
(dp407
sg74
g392
sg67
(lp408
g60
(g61
g62
NtRp409
(dp410
g65
(dp411
g73
I3
ssg74
g405
sg67
(lp412
S''
asbasbasbasbasbasbasbasbasbasbasbag60
(g76
g62
NtRp413
(dp414
g65
(dp415
sg74
g70
sg67
(lp416
g60
(g81
g62
NtRp417
(dp418
g65
(dp419
g85
g86
ssg74
g413
sg67
(lp420
S'env'
p421
asbag60
(g81
g62
NtRp422
(dp423
g65
(dp424
g92
g93
ssg74
g413
sg67
(lp425
S':'
asbag60
(g81
g62
NtRp426
(dp427
g65
(dp428
sg74
g413
sg67
(lp429
g60
(g61
g62
NtRp430
(dp431
g65
(dp432
g73
I5
ssg74
g426
sg67
(lp433
g60
(g69
g62
NtRp434
(dp435
g65
(dp436
g73
I4
ssg74
Nsg67
(lp437
g60
(g76
g62
NtRp438
(dp439
g65
(dp440
sg74
g434
sg67
(lp441
g60
(g81
g62
NtRp442
(dp443
g65
(dp444
g85
g86
ssg74
g438
sg67
(lp445
S'app_folders'
p446
asbag60
(g81
g62
NtRp447
(dp448
g65
(dp449
g92
g93
ssg74
g438
sg67
(lp450
S':'
asbag60
(g81
g62
NtRp451
(dp452
g65
(dp453
sg74
g438
sg67
(lp454
g60
(g61
g62
NtRp455
(dp456
g65
(dp457
g73
I4
ssg74
g451
sg67
(lp458
S"set(['C:\\\\web2py\\\\applications\\\\admin\\\\', 'C:\\\\web2py\\\\applications\\\\welcome\\\\', 'C:\\\\web2py\\\\applications\\\\unioeste_code\\\\'])"
p459
asbasbasbag60
(g76
g62
NtRp460
(dp461
g65
(dp462
sg74
g434
sg67
(lp463
g60
(g81
g62
NtRp464
(dp465
g65
(dp466
g85
g86
ssg74
g460
sg67
(lp467
S'applications_parent'
p468
asbag60
(g81
g62
NtRp469
(dp470
g65
(dp471
g92
g93
ssg74
g460
sg67
(lp472
S':'
asbag60
(g81
g62
NtRp473
(dp474
g65
(dp475
sg74
g460
sg67
(lp476
g60
(g61
g62
NtRp477
(dp478
g65
(dp479
g73
I4
ssg74
g473
sg67
(lp480
S'C:\\web2py'
p481
asbasbasbag60
(g76
g62
NtRp482
(dp483
g65
(dp484
sg74
g434
sg67
(lp485
g60
(g81
g62
NtRp486
(dp487
g65
(dp488
g85
g86
ssg74
g482
sg67
(lp489
S'cmd_args'
p490
asbag60
(g81
g62
NtRp491
(dp492
g65
(dp493
g92
g93
ssg74
g482
sg67
(lp494
S':'
asbag60
(g81
g62
NtRp495
(dp496
g65
(dp497
sg74
g482
sg67
(lp498
g60
(g61
g62
NtRp499
(dp500
g65
(dp501
g73
I4
ssg74
g495
sg67
(lp502
g60
(g69
g62
NtRp503
(dp504
g65
(dp505
g73
I3
ssg74
Nsg67
(lp506
sbasbasbasbag60
(g76
g62
NtRp507
(dp508
g65
(dp509
sg74
g434
sg67
(lp510
g60
(g81
g62
NtRp511
(dp512
g65
(dp513
g85
g86
ssg74
g507
sg67
(lp514
S'cmd_options'
p515
asbag60
(g81
g62
NtRp516
(dp517
g65
(dp518
g92
g93
ssg74
g507
sg67
(lp519
S':'
asbag60
(g81
g62
NtRp520
(dp521
g65
(dp522
sg74
g507
sg67
(lp523
g60
(g61
g62
NtRp524
(dp525
g65
(dp526
g73
I4
ssg74
g520
sg67
(lp527
S"<Values at 0x309c300: {'verbose': False, 'ip': '127.0.0.1', 'shutdown_timeout': 5, 'taskbar': False, 'nocron': False, 'pid_filename': 'httpserver.pid', 'maxthreads': None, 'softcron': False, 'server_name': 'Pedro-PC', 'bpython': False, 'nogui': False, 'port': 8000, 'extcron': False, 'debuglevel': 30, 'test': None, 'folder': 'C:\\\\web2py', 'config': '', 'import_models': False, 'winservice': '', 'shell': None, 'run': '', 'log_filename': 'httpserver.log', 'args': [''], 'socket_timeout': 5, 'ssl_ca_certificate': None, 'scheduler': None, 'profiler_filename': None, 'ssl_private_key': '', 'password': '<ask>', 'request_queue_size': 5, 'ssl_certificate': '', 'cronjob': False, 'numthreads': None, 'quiet': False, 'interfaces': None, 'minthreads': None, 'timeout': 10, 'plain': False, 'nobanner': False}>"
p528
asbasbasbag60
(g76
g62
NtRp529
(dp530
g65
(dp531
sg74
g434
sg67
(lp532
g60
(g81
g62
NtRp533
(dp534
g65
(dp535
g85
g86
ssg74
g529
sg67
(lp536
S'db_sessions'
p537
asbag60
(g81
g62
NtRp538
(dp539
g65
(dp540
g92
g93
ssg74
g529
sg67
(lp541
S':'
asbag60
(g81
g62
NtRp542
(dp543
g65
(dp544
sg74
g529
sg67
(lp545
g60
(g61
g62
NtRp546
(dp547
g65
(dp548
g73
I4
ssg74
g542
sg67
(lp549
S'set([])'
p550
asbasbasbag60
(g76
g62
NtRp551
(dp552
g65
(dp553
sg74
g434
sg67
(lp554
g60
(g81
g62
NtRp555
(dp556
g65
(dp557
g85
g86
ssg74
g551
sg67
(lp558
S'debugging'
p559
asbag60
(g81
g62
NtRp560
(dp561
g65
(dp562
g92
g93
ssg74
g551
sg67
(lp563
S':'
asbag60
(g81
g62
NtRp564
(dp565
g65
(dp566
sg74
g551
sg67
(lp567
g60
(g61
g62
NtRp568
(dp569
g65
(dp570
g73
I4
ssg74
g564
sg67
(lp571
g103
asbasbasbag60
(g76
g62
NtRp572
(dp573
g65
(dp574
sg74
g434
sg67
(lp575
g60
(g81
g62
NtRp576
(dp577
g65
(dp578
g85
g86
ssg74
g572
sg67
(lp579
S'gluon_parent'
p580
asbag60
(g81
g62
NtRp581
(dp582
g65
(dp583
g92
g93
ssg74
g572
sg67
(lp584
S':'
asbag60
(g81
g62
NtRp585
(dp586
g65
(dp587
sg74
g572
sg67
(lp588
g60
(g61
g62
NtRp589
(dp590
g65
(dp591
g73
I4
ssg74
g585
sg67
(lp592
S'C:\\web2py'
p593
asbasbasbag60
(g76
g62
NtRp594
(dp595
g65
(dp596
sg74
g434
sg67
(lp597
g60
(g81
g62
NtRp598
(dp599
g65
(dp600
g85
g86
ssg74
g594
sg67
(lp601
S'http_accept'
p602
asbag60
(g81
g62
NtRp603
(dp604
g65
(dp605
g92
g93
ssg74
g594
sg67
(lp606
S':'
asbag60
(g81
g62
NtRp607
(dp608
g65
(dp609
sg74
g594
sg67
(lp610
g60
(g61
g62
NtRp611
(dp612
g65
(dp613
g73
I4
ssg74
g607
sg67
(lp614
S'text/html,application/xhtml+xml,application/xml;q=0.9,*/*;q=0.8'
p615
asbasbasbag60
(g76
g62
NtRp616
(dp617
g65
(dp618
sg74
g434
sg67
(lp619
g60
(g81
g62
NtRp620
(dp621
g65
(dp622
g85
g86
ssg74
g616
sg67
(lp623
S'http_accept_charset'
p624
asbag60
(g81
g62
NtRp625
(dp626
g65
(dp627
g92
g93
ssg74
g616
sg67
(lp628
S':'
asbag60
(g81
g62
NtRp629
(dp630
g65
(dp631
sg74
g616
sg67
(lp632
g60
(g61
g62
NtRp633
(dp634
g65
(dp635
g73
I4
ssg74
g629
sg67
(lp636
S'ISO-8859-1,utf-8;q=0.7,*;q=0.3'
p637
asbasbasbag60
(g76
g62
NtRp638
(dp639
g65
(dp640
sg74
g434
sg67
(lp641
g60
(g81
g62
NtRp642
(dp643
g65
(dp644
g85
g86
ssg74
g638
sg67
(lp645
S'http_accept_encoding'
p646
asbag60
(g81
g62
NtRp647
(dp648
g65
(dp649
g92
g93
ssg74
g638
sg67
(lp650
S':'
asbag60
(g81
g62
NtRp651
(dp652
g65
(dp653
sg74
g638
sg67
(lp654
g60
(g61
g62
NtRp655
(dp656
g65
(dp657
g73
I4
ssg74
g651
sg67
(lp658
S'gzip,deflate,sdch'
p659
asbasbasbag60
(g76
g62
NtRp660
(dp661
g65
(dp662
sg74
g434
sg67
(lp663
g60
(g81
g62
NtRp664
(dp665
g65
(dp666
g85
g86
ssg74
g660
sg67
(lp667
S'http_accept_language'
p668
asbag60
(g81
g62
NtRp669
(dp670
g65
(dp671
g92
g93
ssg74
g660
sg67
(lp672
S':'
asbag60
(g81
g62
NtRp673
(dp674
g65
(dp675
sg74
g660
sg67
(lp676
g60
(g61
g62
NtRp677
(dp678
g65
(dp679
g73
I4
ssg74
g673
sg67
(lp680
S'pt-BR,pt;q=0.8,en-US;q=0.6,en;q=0.4'
p681
asbasbasbag60
(g76
g62
NtRp682
(dp683
g65
(dp684
sg74
g434
sg67
(lp685
g60
(g81
g62
NtRp686
(dp687
g65
(dp688
g85
g86
ssg74
g682
sg67
(lp689
S'http_connection'
p690
asbag60
(g81
g62
NtRp691
(dp692
g65
(dp693
g92
g93
ssg74
g682
sg67
(lp694
S':'
asbag60
(g81
g62
NtRp695
(dp696
g65
(dp697
sg74
g682
sg67
(lp698
g60
(g61
g62
NtRp699
(dp700
g65
(dp701
g73
I4
ssg74
g695
sg67
(lp702
S'keep-alive'
p703
asbasbasbag60
(g76
g62
NtRp704
(dp705
g65
(dp706
sg74
g434
sg67
(lp707
g60
(g81
g62
NtRp708
(dp709
g65
(dp710
g85
g86
ssg74
g704
sg67
(lp711
S'http_cookie'
p712
asbag60
(g81
g62
NtRp713
(dp714
g65
(dp715
g92
g93
ssg74
g704
sg67
(lp716
S':'
asbag60
(g81
g62
NtRp717
(dp718
g65
(dp719
sg74
g704
sg67
(lp720
g60
(g61
g62
NtRp721
(dp722
g65
(dp723
g73
I4
ssg74
g717
sg67
(lp724
S'session_id_welcome=127.0.0.1-21a9ec16-84d7-4b79-86ac-a6ba5ad23fa2'
p725
asbasbasbag60
(g76
g62
NtRp726
(dp727
g65
(dp728
sg74
g434
sg67
(lp729
g60
(g81
g62
NtRp730
(dp731
g65
(dp732
g85
g86
ssg74
g726
sg67
(lp733
S'http_dnt'
p734
asbag60
(g81
g62
NtRp735
(dp736
g65
(dp737
g92
g93
ssg74
g726
sg67
(lp738
S':'
asbag60
(g81
g62
NtRp739
(dp740
g65
(dp741
sg74
g726
sg67
(lp742
g60
(g61
g62
NtRp743
(dp744
g65
(dp745
g73
I4
ssg74
g739
sg67
(lp746
S'1'
asbasbasbag60
(g76
g62
NtRp747
(dp748
g65
(dp749
sg74
g434
sg67
(lp750
g60
(g81
g62
NtRp751
(dp752
g65
(dp753
g85
g86
ssg74
g747
sg67
(lp754
S'http_host'
p755
asbag60
(g81
g62
NtRp756
(dp757
g65
(dp758
g92
g93
ssg74
g747
sg67
(lp759
S':'
asbag60
(g81
g62
NtRp760
(dp761
g65
(dp762
sg74
g747
sg67
(lp763
g60
(g61
g62
NtRp764
(dp765
g65
(dp766
g73
I4
ssg74
g760
sg67
(lp767
S'127.0.0.1:8000'
p768
asbasbasbag60
(g76
g62
NtRp769
(dp770
g65
(dp771
sg74
g434
sg67
(lp772
g60
(g81
g62
NtRp773
(dp774
g65
(dp775
g85
g86
ssg74
g769
sg67
(lp776
S'http_user_agent'
p777
asbag60
(g81
g62
NtRp778
(dp779
g65
(dp780
g92
g93
ssg74
g769
sg67
(lp781
S':'
asbag60
(g81
g62
NtRp782
(dp783
g65
(dp784
sg74
g769
sg67
(lp785
g60
(g61
g62
NtRp786
(dp787
g65
(dp788
g73
I4
ssg74
g782
sg67
(lp789
S'Mozilla/5.0 (Windows NT 6.1; WOW64) AppleWebKit/536.11 (KHTML, like Gecko) Chrome/20.0.1132.57 Safari/536.11'
p790
asbasbasbag60
(g76
g62
NtRp791
(dp792
g65
(dp793
sg74
g434
sg67
(lp794
g60
(g81
g62
NtRp795
(dp796
g65
(dp797
g85
g86
ssg74
g791
sg67
(lp798
S'is_jython'
p799
asbag60
(g81
g62
NtRp800
(dp801
g65
(dp802
g92
g93
ssg74
g791
sg67
(lp803
S':'
asbag60
(g81
g62
NtRp804
(dp805
g65
(dp806
sg74
g791
sg67
(lp807
g60
(g61
g62
NtRp808
(dp809
g65
(dp810
g73
I4
ssg74
g804
sg67
(lp811
g103
asbasbasbag60
(g76
g62
NtRp812
(dp813
g65
(dp814
sg74
g434
sg67
(lp815
g60
(g81
g62
NtRp816
(dp817
g65
(dp818
g85
g86
ssg74
g812
sg67
(lp819
S'is_pypy'
p820
asbag60
(g81
g62
NtRp821
(dp822
g65
(dp823
g92
g93
ssg74
g812
sg67
(lp824
S':'
asbag60
(g81
g62
NtRp825
(dp826
g65
(dp827
sg74
g812
sg67
(lp828
g60
(g61
g62
NtRp829
(dp830
g65
(dp831
g73
I4
ssg74
g825
sg67
(lp832
g103
asbasbasbag60
(g76
g62
NtRp833
(dp834
g65
(dp835
sg74
g434
sg67
(lp836
g60
(g81
g62
NtRp837
(dp838
g65
(dp839
g85
g86
ssg74
g833
sg67
(lp840
S'path_info'
p841
asbag60
(g81
g62
NtRp842
(dp843
g65
(dp844
g92
g93
ssg74
g833
sg67
(lp845
S':'
asbag60
(g81
g62
NtRp846
(dp847
g65
(dp848
sg74
g833
sg67
(lp849
g60
(g61
g62
NtRp850
(dp851
g65
(dp852
g73
I4
ssg74
g846
sg67
(lp853
S'/unioeste_code/'
p854
asbasbasbag60
(g76
g62
NtRp855
(dp856
g65
(dp857
sg74
g434
sg67
(lp858
g60
(g81
g62
NtRp859
(dp860
g65
(dp861
g85
g86
ssg74
g855
sg67
(lp862
S'query_string'
p863
asbag60
(g81
g62
NtRp864
(dp865
g65
(dp866
g92
g93
ssg74
g855
sg67
(lp867
S':'
asbag60
(g81
g62
NtRp868
(dp869
g65
(dp870
sg74
g855
sg67
(lp871
g60
(g61
g62
NtRp872
(dp873
g65
(dp874
g73
I4
ssg74
g868
sg67
(lp875
S''
asbasbasbag60
(g76
g62
NtRp876
(dp877
g65
(dp878
sg74
g434
sg67
(lp879
g60
(g81
g62
NtRp880
(dp881
g65
(dp882
g85
g86
ssg74
g876
sg67
(lp883
S'remote_addr'
p884
asbag60
(g81
g62
NtRp885
(dp886
g65
(dp887
g92
g93
ssg74
g876
sg67
(lp888
S':'
asbag60
(g81
g62
NtRp889
(dp890
g65
(dp891
sg74
g876
sg67
(lp892
g60
(g61
g62
NtRp893
(dp894
g65
(dp895
g73
I4
ssg74
g889
sg67
(lp896
g193
asbasbasbag60
(g76
g62
NtRp897
(dp898
g65
(dp899
sg74
g434
sg67
(lp900
g60
(g81
g62
NtRp901
(dp902
g65
(dp903
g85
g86
ssg74
g897
sg67
(lp904
S'remote_port'
p905
asbag60
(g81
g62
NtRp906
(dp907
g65
(dp908
g92
g93
ssg74
g897
sg67
(lp909
S':'
asbag60
(g81
g62
NtRp910
(dp911
g65
(dp912
sg74
g897
sg67
(lp913
g60
(g61
g62
NtRp914
(dp915
g65
(dp916
g73
I4
ssg74
g910
sg67
(lp917
S'2054'
p918
asbasbasbag60
(g76
g62
NtRp919
(dp920
g65
(dp921
sg74
g434
sg67
(lp922
g60
(g81
g62
NtRp923
(dp924
g65
(dp925
g85
g86
ssg74
g919
sg67
(lp926
S'request_method'
p927
asbag60
(g81
g62
NtRp928
(dp929
g65
(dp930
g92
g93
ssg74
g919
sg67
(lp931
S':'
asbag60
(g81
g62
NtRp932
(dp933
g65
(dp934
sg74
g919
sg67
(lp935
g60
(g61
g62
NtRp936
(dp937
g65
(dp938
g73
I4
ssg74
g932
sg67
(lp939
S'GET'
p940
asbasbasbag60
(g76
g62
NtRp941
(dp942
g65
(dp943
sg74
g434
sg67
(lp944
g60
(g81
g62
NtRp945
(dp946
g65
(dp947
g85
g86
ssg74
g941
sg67
(lp948
S'script_name'
p949
asbag60
(g81
g62
NtRp950
(dp951
g65
(dp952
g92
g93
ssg74
g941
sg67
(lp953
S':'
asbag60
(g81
g62
NtRp954
(dp955
g65
(dp956
sg74
g941
sg67
(lp957
g60
(g61
g62
NtRp958
(dp959
g65
(dp960
g73
I4
ssg74
g954
sg67
(lp961
S''
asbasbasbag60
(g76
g62
NtRp962
(dp963
g65
(dp964
sg74
g434
sg67
(lp965
g60
(g81
g62
NtRp966
(dp967
g65
(dp968
g85
g86
ssg74
g962
sg67
(lp969
S'server_name'
p970
asbag60
(g81
g62
NtRp971
(dp972
g65
(dp973
g92
g93
ssg74
g962
sg67
(lp974
S':'
asbag60
(g81
g62
NtRp975
(dp976
g65
(dp977
sg74
g962
sg67
(lp978
g60
(g61
g62
NtRp979
(dp980
g65
(dp981
g73
I4
ssg74
g975
sg67
(lp982
S'Pedro-PC'
p983
asbasbasbag60
(g76
g62
NtRp984
(dp985
g65
(dp986
sg74
g434
sg67
(lp987
g60
(g81
g62
NtRp988
(dp989
g65
(dp990
g85
g86
ssg74
g984
sg67
(lp991
S'server_port'
p992
asbag60
(g81
g62
NtRp993
(dp994
g65
(dp995
g92
g93
ssg74
g984
sg67
(lp996
S':'
asbag60
(g81
g62
NtRp997
(dp998
g65
(dp999
sg74
g984
sg67
(lp1000
g60
(g61
g62
NtRp1001
(dp1002
g65
(dp1003
g73
I4
ssg74
g997
sg67
(lp1004
S'8000'
p1005
asbasbasbag60
(g76
g62
NtRp1006
(dp1007
g65
(dp1008
sg74
g434
sg67
(lp1009
g60
(g81
g62
NtRp1010
(dp1011
g65
(dp1012
g85
g86
ssg74
g1006
sg67
(lp1013
S'server_protocol'
p1014
asbag60
(g81
g62
NtRp1015
(dp1016
g65
(dp1017
g92
g93
ssg74
g1006
sg67
(lp1018
S':'
asbag60
(g81
g62
NtRp1019
(dp1020
g65
(dp1021
sg74
g1006
sg67
(lp1022
g60
(g61
g62
NtRp1023
(dp1024
g65
(dp1025
g73
I4
ssg74
g1019
sg67
(lp1026
S'HTTP/1.1'
p1027
asbasbasbag60
(g76
g62
NtRp1028
(dp1029
g65
(dp1030
sg74
g434
sg67
(lp1031
g60
(g81
g62
NtRp1032
(dp1033
g65
(dp1034
g85
g86
ssg74
g1028
sg67
(lp1035
S'server_software'
p1036
asbag60
(g81
g62
NtRp1037
(dp1038
g65
(dp1039
g92
g93
ssg74
g1028
sg67
(lp1040
S':'
asbag60
(g81
g62
NtRp1041
(dp1042
g65
(dp1043
sg74
g1028
sg67
(lp1044
g60
(g61
g62
NtRp1045
(dp1046
g65
(dp1047
g73
I4
ssg74
g1041
sg67
(lp1048
S'Rocket 1.2.4'
p1049
asbasbasbag60
(g76
g62
NtRp1050
(dp1051
g65
(dp1052
sg74
g434
sg67
(lp1053
g60
(g81
g62
NtRp1054
(dp1055
g65
(dp1056
g85
g86
ssg74
g1050
sg67
(lp1057
S'web2py_crontype'
p1058
asbag60
(g81
g62
NtRp1059
(dp1060
g65
(dp1061
g92
g93
ssg74
g1050
sg67
(lp1062
S':'
asbag60
(g81
g62
NtRp1063
(dp1064
g65
(dp1065
sg74
g1050
sg67
(lp1066
g60
(g61
g62
NtRp1067
(dp1068
g65
(dp1069
g73
I4
ssg74
g1063
sg67
(lp1070
S'hard'
p1071
asbasbasbag60
(g76
g62
NtRp1072
(dp1073
g65
(dp1074
sg74
g434
sg67
(lp1075
g60
(g81
g62
NtRp1076
(dp1077
g65
(dp1078
g85
g86
ssg74
g1072
sg67
(lp1079
S'web2py_path'
p1080
asbag60
(g81
g62
NtRp1081
(dp1082
g65
(dp1083
g92
g93
ssg74
g1072
sg67
(lp1084
S':'
asbag60
(g81
g62
NtRp1085
(dp1086
g65
(dp1087
sg74
g1072
sg67
(lp1088
g60
(g61
g62
NtRp1089
(dp1090
g65
(dp1091
g73
I4
ssg74
g1085
sg67
(lp1092
g481
asbasbasbag60
(g76
g62
NtRp1093
(dp1094
g65
(dp1095
sg74
g434
sg67
(lp1096
g60
(g81
g62
NtRp1097
(dp1098
g65
(dp1099
g85
g86
ssg74
g1093
sg67
(lp1100
S'web2py_version'
p1101
asbag60
(g81
g62
NtRp1102
(dp1103
g65
(dp1104
g92
g93
ssg74
g1093
sg67
(lp1105
S':'
asbag60
(g81
g62
NtRp1106
(dp1107
g65
(dp1108
sg74
g1093
sg67
(lp1109
g60
(g61
g62
NtRp1110
(dp1111
g65
(dp1112
g73
I4
ssg74
g1106
sg67
(lp1113
g60
(g69
g62
NtRp1114
(dp1115
g65
(dp1116
g73
I3
ssg74
Nsg67
(lp1117
g60
(g76
g62
NtRp1118
(dp1119
g65
(dp1120
sg74
g1114
sg67
(lp1121
g60
(g81
g62
NtRp1122
(dp1123
g65
(dp1124
sg74
g1118
sg67
(lp1125
g60
(g61
g62
NtRp1126
(dp1127
g65
(dp1128
g73
I3
ssg74
g1122
sg67
(lp1129
S'1'
asbasbasbag60
(g76
g62
NtRp1130
(dp1131
g65
(dp1132
sg74
g1114
sg67
(lp1133
g60
(g81
g62
NtRp1134
(dp1135
g65
(dp1136
sg74
g1130
sg67
(lp1137
g60
(g61
g62
NtRp1138
(dp1139
g65
(dp1140
g73
I3
ssg74
g1134
sg67
(lp1141
S'99'
p1142
asbasbasbag60
(g76
g62
NtRp1143
(dp1144
g65
(dp1145
sg74
g1114
sg67
(lp1146
g60
(g81
g62
NtRp1147
(dp1148
g65
(dp1149
sg74
g1143
sg67
(lp1150
g60
(g61
g62
NtRp1151
(dp1152
g65
(dp1153
g73
I3
ssg74
g1147
sg67
(lp1154
S'7'
asbasbasbag60
(g76
g62
NtRp1155
(dp1156
g65
(dp1157
sg74
g1114
sg67
(lp1158
g60
(g81
g62
NtRp1159
(dp1160
g65
(dp1161
sg74
g1155
sg67
(lp1162
g60
(g61
g62
NtRp1163
(dp1164
g65
(dp1165
g73
I3
ssg74
g1159
sg67
(lp1166
S'datetime.datetime(2012, 3, 4, 22, 12, 8)'
p1167
asbasbasbag60
(g76
g62
NtRp1168
(dp1169
g65
(dp1170
sg74
g1114
sg67
(lp1171
g60
(g81
g62
NtRp1172
(dp1173
g65
(dp1174
sg74
g1168
sg67
(lp1175
g60
(g61
g62
NtRp1176
(dp1177
g65
(dp1178
g73
I3
ssg74
g1172
sg67
(lp1179
S'stable'
p1180
asbasbasbasbasbasbasbag60
(g76
g62
NtRp1181
(dp1182
g65
(dp1183
sg74
g434
sg67
(lp1184
g60
(g81
g62
NtRp1185
(dp1186
g65
(dp1187
g85
g86
ssg74
g1181
sg67
(lp1188
S'wsgi_errors'
p1189
asbag60
(g81
g62
NtRp1190
(dp1191
g65
(dp1192
g92
g93
ssg74
g1181
sg67
(lp1193
S':'
asbag60
(g81
g62
NtRp1194
(dp1195
g65
(dp1196
sg74
g1181
sg67
(lp1197
g60
(g61
g62
NtRp1198
(dp1199
g65
(dp1200
g73
I4
ssg74
g1194
sg67
(lp1201
S'<__main__.Stderr object at 0x006F6670>'
p1202
asbasbasbag60
(g76
g62
NtRp1203
(dp1204
g65
(dp1205
sg74
g434
sg67
(lp1206
g60
(g81
g62
NtRp1207
(dp1208
g65
(dp1209
g85
g86
ssg74
g1203
sg67
(lp1210
S'wsgi_file_wrapper'
p1211
asbag60
(g81
g62
NtRp1212
(dp1213
g65
(dp1214
g92
g93
ssg74
g1203
sg67
(lp1215
S':'
asbag60
(g81
g62
NtRp1216
(dp1217
g65
(dp1218
sg74
g1203
sg67
(lp1219
g60
(g61
g62
NtRp1220
(dp1221
g65
(dp1222
g73
I4
ssg74
g1216
sg67
(lp1223
S'<class wsgiref.util.FileWrapper at 0x02E8DE10>'
p1224
asbasbasbag60
(g76
g62
NtRp1225
(dp1226
g65
(dp1227
sg74
g434
sg67
(lp1228
g60
(g81
g62
NtRp1229
(dp1230
g65
(dp1231
g85
g86
ssg74
g1225
sg67
(lp1232
S'wsgi_input'
p1233
asbag60
(g81
g62
NtRp1234
(dp1235
g65
(dp1236
g92
g93
ssg74
g1225
sg67
(lp1237
S':'
asbag60
(g81
g62
NtRp1238
(dp1239
g65
(dp1240
sg74
g1225
sg67
(lp1241
g60
(g61
g62
NtRp1242
(dp1243
g65
(dp1244
g73
I4
ssg74
g1238
sg67
(lp1245
S'<socket._fileobject object at 0x031F4B70>'
p1246
asbasbasbag60
(g76
g62
NtRp1247
(dp1248
g65
(dp1249
sg74
g434
sg67
(lp1250
g60
(g81
g62
NtRp1251
(dp1252
g65
(dp1253
g85
g86
ssg74
g1247
sg67
(lp1254
S'wsgi_multiprocess'
p1255
asbag60
(g81
g62
NtRp1256
(dp1257
g65
(dp1258
g92
g93
ssg74
g1247
sg67
(lp1259
S':'
asbag60
(g81
g62
NtRp1260
(dp1261
g65
(dp1262
sg74
g1247
sg67
(lp1263
g60
(g61
g62
NtRp1264
(dp1265
g65
(dp1266
g73
I4
ssg74
g1260
sg67
(lp1267
g103
asbasbasbag60
(g76
g62
NtRp1268
(dp1269
g65
(dp1270
sg74
g434
sg67
(lp1271
g60
(g81
g62
NtRp1272
(dp1273
g65
(dp1274
g85
g86
ssg74
g1268
sg67
(lp1275
S'wsgi_multithread'
p1276
asbag60
(g81
g62
NtRp1277
(dp1278
g65
(dp1279
g92
g93
ssg74
g1268
sg67
(lp1280
S':'
asbag60
(g81
g62
NtRp1281
(dp1282
g65
(dp1283
sg74
g1268
sg67
(lp1284
g60
(g61
g62
NtRp1285
(dp1286
g65
(dp1287
g73
I4
ssg74
g1281
sg67
(lp1288
S'True'
p1289
asbasbasbag60
(g76
g62
NtRp1290
(dp1291
g65
(dp1292
sg74
g434
sg67
(lp1293
g60
(g81
g62
NtRp1294
(dp1295
g65
(dp1296
g85
g86
ssg74
g1290
sg67
(lp1297
S'wsgi_run_once'
p1298
asbag60
(g81
g62
NtRp1299
(dp1300
g65
(dp1301
g92
g93
ssg74
g1290
sg67
(lp1302
S':'
asbag60
(g81
g62
NtRp1303
(dp1304
g65
(dp1305
sg74
g1290
sg67
(lp1306
g60
(g61
g62
NtRp1307
(dp1308
g65
(dp1309
g73
I4
ssg74
g1303
sg67
(lp1310
g103
asbasbasbag60
(g76
g62
NtRp1311
(dp1312
g65
(dp1313
sg74
g434
sg67
(lp1314
g60
(g81
g62
NtRp1315
(dp1316
g65
(dp1317
g85
g86
ssg74
g1311
sg67
(lp1318
S'wsgi_url_scheme'
p1319
asbag60
(g81
g62
NtRp1320
(dp1321
g65
(dp1322
g92
g93
ssg74
g1311
sg67
(lp1323
S':'
asbag60
(g81
g62
NtRp1324
(dp1325
g65
(dp1326
sg74
g1311
sg67
(lp1327
g60
(g61
g62
NtRp1328
(dp1329
g65
(dp1330
g73
I4
ssg74
g1324
sg67
(lp1331
S'http'
p1332
asbasbasbag60
(g76
g62
NtRp1333
(dp1334
g65
(dp1335
sg74
g434
sg67
(lp1336
g60
(g81
g62
NtRp1337
(dp1338
g65
(dp1339
g85
g86
ssg74
g1333
sg67
(lp1340
S'wsgi_version'
p1341
asbag60
(g81
g62
NtRp1342
(dp1343
g65
(dp1344
g92
g93
ssg74
g1333
sg67
(lp1345
S':'
asbag60
(g81
g62
NtRp1346
(dp1347
g65
(dp1348
sg74
g1333
sg67
(lp1349
g60
(g61
g62
NtRp1350
(dp1351
g65
(dp1352
g73
I4
ssg74
g1346
sg67
(lp1353
g60
(g69
g62
NtRp1354
(dp1355
g65
(dp1356
g73
I3
ssg74
Nsg67
(lp1357
g60
(g76
g62
NtRp1358
(dp1359
g65
(dp1360
sg74
g1354
sg67
(lp1361
g60
(g81
g62
NtRp1362
(dp1363
g65
(dp1364
sg74
g1358
sg67
(lp1365
g60
(g61
g62
NtRp1366
(dp1367
g65
(dp1368
g73
I3
ssg74
g1362
sg67
(lp1369
S'1'
asbasbasbag60
(g76
g62
NtRp1370
(dp1371
g65
(dp1372
sg74
g1354
sg67
(lp1373
g60
(g81
g62
NtRp1374
(dp1375
g65
(dp1376
sg74
g1370
sg67
(lp1377
g60
(g61
g62
NtRp1378
(dp1379
g65
(dp1380
g73
I3
ssg74
g1374
sg67
(lp1381
S'0'
asbasbasbasbasbasbasbasbasbasbasbag60
(g76
g62
NtRp1382
(dp1383
g65
(dp1384
sg74
g70
sg67
(lp1385
g60
(g81
g62
NtRp1386
(dp1387
g65
(dp1388
g85
g86
ssg74
g1382
sg67
(lp1389
S'extension'
p1390
asbag60
(g81
g62
NtRp1391
(dp1392
g65
(dp1393
g92
g93
ssg74
g1382
sg67
(lp1394
S':'
asbag60
(g81
g62
NtRp1395
(dp1396
g65
(dp1397
sg74
g1382
sg67
(lp1398
g60
(g61
g62
NtRp1399
(dp1400
g65
(dp1401
g73
I5
ssg74
g1395
sg67
(lp1402
S'html'
p1403
asbasbasbag60
(g76
g62
NtRp1404
(dp1405
g65
(dp1406
sg74
g70
sg67
(lp1407
g60
(g81
g62
NtRp1408
(dp1409
g65
(dp1410
g85
g86
ssg74
g1404
sg67
(lp1411
S'folder'
p1412
asbag60
(g81
g62
NtRp1413
(dp1414
g65
(dp1415
g92
g93
ssg74
g1404
sg67
(lp1416
S':'
asbag60
(g81
g62
NtRp1417
(dp1418
g65
(dp1419
sg74
g1404
sg67
(lp1420
g60
(g61
g62
NtRp1421
(dp1422
g65
(dp1423
g73
I5
ssg74
g1417
sg67
(lp1424
S'C:\\web2py\\applications\\unioeste_code\\'
p1425
asbasbasbag60
(g76
g62
NtRp1426
(dp1427
g65
(dp1428
sg74
g70
sg67
(lp1429
g60
(g81
g62
NtRp1430
(dp1431
g65
(dp1432
g85
g86
ssg74
g1426
sg67
(lp1433
S'function'
p1434
asbag60
(g81
g62
NtRp1435
(dp1436
g65
(dp1437
g92
g93
ssg74
g1426
sg67
(lp1438
S':'
asbag60
(g81
g62
NtRp1439
(dp1440
g65
(dp1441
sg74
g1426
sg67
(lp1442
g60
(g61
g62
NtRp1443
(dp1444
g65
(dp1445
g73
I5
ssg74
g1439
sg67
(lp1446
S'index'
p1447
asbasbasbag60
(g76
g62
NtRp1448
(dp1449
g65
(dp1450
sg74
g70
sg67
(lp1451
g60
(g81
g62
NtRp1452
(dp1453
g65
(dp1454
g85
g86
ssg74
g1448
sg67
(lp1455
S'get_vars'
p1456
asbag60
(g81
g62
NtRp1457
(dp1458
g65
(dp1459
g92
g93
ssg74
g1448
sg67
(lp1460
S':'
asbag60
(g81
g62
NtRp1461
(dp1462
g65
(dp1463
sg74
g1448
sg67
(lp1464
g60
(g61
g62
NtRp1465
(dp1466
g65
(dp1467
g73
I5
ssg74
g1461
sg67
(lp1468
g60
(g69
g62
NtRp1469
(dp1470
g65
(dp1471
g73
I4
ssg74
Nsg67
(lp1472
sbasbasbasbag60
(g76
g62
NtRp1473
(dp1474
g65
(dp1475
sg74
g70
sg67
(lp1476
g60
(g81
g62
NtRp1477
(dp1478
g65
(dp1479
g85
g86
ssg74
g1473
sg67
(lp1480
S'global_settings'
p1481
asbag60
(g81
g62
NtRp1482
(dp1483
g65
(dp1484
g92
g93
ssg74
g1473
sg67
(lp1485
S':'
asbag60
(g81
g62
NtRp1486
(dp1487
g65
(dp1488
sg74
g1473
sg67
(lp1489
g60
(g61
g62
NtRp1490
(dp1491
g65
(dp1492
g73
I5
ssg74
g1486
sg67
(lp1493
g60
(g69
g62
NtRp1494
(dp1495
g65
(dp1496
g73
I4
ssg74
Nsg67
(lp1497
g60
(g76
g62
NtRp1498
(dp1499
g65
(dp1500
sg74
g1494
sg67
(lp1501
g60
(g81
g62
NtRp1502
(dp1503
g65
(dp1504
g85
g86
ssg74
g1498
sg67
(lp1505
g446
asbag60
(g81
g62
NtRp1506
(dp1507
g65
(dp1508
g92
g93
ssg74
g1498
sg67
(lp1509
S':'
asbag60
(g81
g62
NtRp1510
(dp1511
g65
(dp1512
sg74
g1498
sg67
(lp1513
g60
(g61
g62
NtRp1514
(dp1515
g65
(dp1516
g73
I4
ssg74
g1510
sg67
(lp1517
S"set(['C:\\\\web2py\\\\applications\\\\admin\\\\', 'C:\\\\web2py\\\\applications\\\\welcome\\\\', 'C:\\\\web2py\\\\applications\\\\unioeste_code\\\\'])"
p1518
asbasbasbag60
(g76
g62
NtRp1519
(dp1520
g65
(dp1521
sg74
g1494
sg67
(lp1522
g60
(g81
g62
NtRp1523
(dp1524
g65
(dp1525
g85
g86
ssg74
g1519
sg67
(lp1526
g468
asbag60
(g81
g62
NtRp1527
(dp1528
g65
(dp1529
g92
g93
ssg74
g1519
sg67
(lp1530
S':'
asbag60
(g81
g62
NtRp1531
(dp1532
g65
(dp1533
sg74
g1519
sg67
(lp1534
g60
(g61
g62
NtRp1535
(dp1536
g65
(dp1537
g73
I4
ssg74
g1531
sg67
(lp1538
g481
asbasbasbag60
(g76
g62
NtRp1539
(dp1540
g65
(dp1541
sg74
g1494
sg67
(lp1542
g60
(g81
g62
NtRp1543
(dp1544
g65
(dp1545
g85
g86
ssg74
g1539
sg67
(lp1546
g490
asbag60
(g81
g62
NtRp1547
(dp1548
g65
(dp1549
g92
g93
ssg74
g1539
sg67
(lp1550
S':'
asbag60
(g81
g62
NtRp1551
(dp1552
g65
(dp1553
sg74
g1539
sg67
(lp1554
g60
(g61
g62
NtRp1555
(dp1556
g65
(dp1557
g73
I4
ssg74
g1551
sg67
(lp1558
g60
(g69
g62
NtRp1559
(dp1560
g65
(dp1561
g73
I3
ssg74
Nsg67
(lp1562
sbasbasbasbag60
(g76
g62
NtRp1563
(dp1564
g65
(dp1565
sg74
g1494
sg67
(lp1566
g60
(g81
g62
NtRp1567
(dp1568
g65
(dp1569
g85
g86
ssg74
g1563
sg67
(lp1570
g515
asbag60
(g81
g62
NtRp1571
(dp1572
g65
(dp1573
g92
g93
ssg74
g1563
sg67
(lp1574
S':'
asbag60
(g81
g62
NtRp1575
(dp1576
g65
(dp1577
sg74
g1563
sg67
(lp1578
g60
(g61
g62
NtRp1579
(dp1580
g65
(dp1581
g73
I4
ssg74
g1575
sg67
(lp1582
S"<Values at 0x309c300: {'verbose': False, 'ip': '127.0.0.1', 'shutdown_timeout': 5, 'taskbar': False, 'nocron': False, 'pid_filename': 'httpserver.pid', 'maxthreads': None, 'softcron': False, 'server_name': 'Pedro-PC', 'bpython': False, 'nogui': False, 'port': 8000, 'extcron': False, 'debuglevel': 30, 'test': None, 'folder': 'C:\\\\web2py', 'config': '', 'import_models': False, 'winservice': '', 'shell': None, 'run': '', 'log_filename': 'httpserver.log', 'args': [''], 'socket_timeout': 5, 'ssl_ca_certificate': None, 'scheduler': None, 'profiler_filename': None, 'ssl_private_key': '', 'password': '<ask>', 'request_queue_size': 5, 'ssl_certificate': '', 'cronjob': False, 'numthreads': None, 'quiet': False, 'interfaces': None, 'minthreads': None, 'timeout': 10, 'plain': False, 'nobanner': False}>"
p1583
asbasbasbag60
(g76
g62
NtRp1584
(dp1585
g65
(dp1586
sg74
g1494
sg67
(lp1587
g60
(g81
g62
NtRp1588
(dp1589
g65
(dp1590
g85
g86
ssg74
g1584
sg67
(lp1591
g537
asbag60
(g81
g62
NtRp1592
(dp1593
g65
(dp1594
g92
g93
ssg74
g1584
sg67
(lp1595
S':'
asbag60
(g81
g62
NtRp1596
(dp1597
g65
(dp1598
sg74
g1584
sg67
(lp1599
g60
(g61
g62
NtRp1600
(dp1601
g65
(dp1602
g73
I4
ssg74
g1596
sg67
(lp1603
S'set([])'
p1604
asbasbasbag60
(g76
g62
NtRp1605
(dp1606
g65
(dp1607
sg74
g1494
sg67
(lp1608
g60
(g81
g62
NtRp1609
(dp1610
g65
(dp1611
g85
g86
ssg74
g1605
sg67
(lp1612
g559
asbag60
(g81
g62
NtRp1613
(dp1614
g65
(dp1615
g92
g93
ssg74
g1605
sg67
(lp1616
S':'
asbag60
(g81
g62
NtRp1617
(dp1618
g65
(dp1619
sg74
g1605
sg67
(lp1620
g60
(g61
g62
NtRp1621
(dp1622
g65
(dp1623
g73
I4
ssg74
g1617
sg67
(lp1624
g103
asbasbasbag60
(g76
g62
NtRp1625
(dp1626
g65
(dp1627
sg74
g1494
sg67
(lp1628
g60
(g81
g62
NtRp1629
(dp1630
g65
(dp1631
g85
g86
ssg74
g1625
sg67
(lp1632
g580
asbag60
(g81
g62
NtRp1633
(dp1634
g65
(dp1635
g92
g93
ssg74
g1625
sg67
(lp1636
S':'
asbag60
(g81
g62
NtRp1637
(dp1638
g65
(dp1639
sg74
g1625
sg67
(lp1640
g60
(g61
g62
NtRp1641
(dp1642
g65
(dp1643
g73
I4
ssg74
g1637
sg67
(lp1644
g593
asbasbasbag60
(g76
g62
NtRp1645
(dp1646
g65
(dp1647
sg74
g1494
sg67
(lp1648
g60
(g81
g62
NtRp1649
(dp1650
g65
(dp1651
g85
g86
ssg74
g1645
sg67
(lp1652
g799
asbag60
(g81
g62
NtRp1653
(dp1654
g65
(dp1655
g92
g93
ssg74
g1645
sg67
(lp1656
S':'
asbag60
(g81
g62
NtRp1657
(dp1658
g65
(dp1659
sg74
g1645
sg67
(lp1660
g60
(g61
g62
NtRp1661
(dp1662
g65
(dp1663
g73
I4
ssg74
g1657
sg67
(lp1664
g103
asbasbasbag60
(g76
g62
NtRp1665
(dp1666
g65
(dp1667
sg74
g1494
sg67
(lp1668
g60
(g81
g62
NtRp1669
(dp1670
g65
(dp1671
g85
g86
ssg74
g1665
sg67
(lp1672
g820
asbag60
(g81
g62
NtRp1673
(dp1674
g65
(dp1675
g92
g93
ssg74
g1665
sg67
(lp1676
S':'
asbag60
(g81
g62
NtRp1677
(dp1678
g65
(dp1679
sg74
g1665
sg67
(lp1680
g60
(g61
g62
NtRp1681
(dp1682
g65
(dp1683
g73
I4
ssg74
g1677
sg67
(lp1684
g103
asbasbasbag60
(g76
g62
NtRp1685
(dp1686
g65
(dp1687
sg74
g1494
sg67
(lp1688
g60
(g81
g62
NtRp1689
(dp1690
g65
(dp1691
g85
g86
ssg74
g1685
sg67
(lp1692
g1058
asbag60
(g81
g62
NtRp1693
(dp1694
g65
(dp1695
g92
g93
ssg74
g1685
sg67
(lp1696
S':'
asbag60
(g81
g62
NtRp1697
(dp1698
g65
(dp1699
sg74
g1685
sg67
(lp1700
g60
(g61
g62
NtRp1701
(dp1702
g65
(dp1703
g73
I4
ssg74
g1697
sg67
(lp1704
g1071
asbasbasbag60
(g76
g62
NtRp1705
(dp1706
g65
(dp1707
sg74
g1494
sg67
(lp1708
g60
(g81
g62
NtRp1709
(dp1710
g65
(dp1711
g85
g86
ssg74
g1705
sg67
(lp1712
g1101
asbag60
(g81
g62
NtRp1713
(dp1714
g65
(dp1715
g92
g93
ssg74
g1705
sg67
(lp1716
S':'
asbag60
(g81
g62
NtRp1717
(dp1718
g65
(dp1719
sg74
g1705
sg67
(lp1720
g60
(g61
g62
NtRp1721
(dp1722
g65
(dp1723
g73
I4
ssg74
g1717
sg67
(lp1724
g60
(g69
g62
NtRp1725
(dp1726
g65
(dp1727
g73
I3
ssg74
Nsg67
(lp1728
g60
(g76
g62
NtRp1729
(dp1730
g65
(dp1731
sg74
g1725
sg67
(lp1732
g60
(g81
g62
NtRp1733
(dp1734
g65
(dp1735
sg74
g1729
sg67
(lp1736
g60
(g61
g62
NtRp1737
(dp1738
g65
(dp1739
g73
I3
ssg74
g1733
sg67
(lp1740
S'1'
asbasbasbag60
(g76
g62
NtRp1741
(dp1742
g65
(dp1743
sg74
g1725
sg67
(lp1744
g60
(g81
g62
NtRp1745
(dp1746
g65
(dp1747
sg74
g1741
sg67
(lp1748
g60
(g61
g62
NtRp1749
(dp1750
g65
(dp1751
g73
I3
ssg74
g1745
sg67
(lp1752
S'99'
p1753
asbasbasbag60
(g76
g62
NtRp1754
(dp1755
g65
(dp1756
sg74
g1725
sg67
(lp1757
g60
(g81
g62
NtRp1758
(dp1759
g65
(dp1760
sg74
g1754
sg67
(lp1761
g60
(g61
g62
NtRp1762
(dp1763
g65
(dp1764
g73
I3
ssg74
g1758
sg67
(lp1765
S'7'
asbasbasbag60
(g76
g62
NtRp1766
(dp1767
g65
(dp1768
sg74
g1725
sg67
(lp1769
g60
(g81
g62
NtRp1770
(dp1771
g65
(dp1772
sg74
g1766
sg67
(lp1773
g60
(g61
g62
NtRp1774
(dp1775
g65
(dp1776
g73
I3
ssg74
g1770
sg67
(lp1777
S'datetime.datetime(2012, 3, 4, 22, 12, 8)'
p1778
asbasbasbag60
(g76
g62
NtRp1779
(dp1780
g65
(dp1781
sg74
g1725
sg67
(lp1782
g60
(g81
g62
NtRp1783
(dp1784
g65
(dp1785
sg74
g1779
sg67
(lp1786
g60
(g61
g62
NtRp1787
(dp1788
g65
(dp1789
g73
I3
ssg74
g1783
sg67
(lp1790
g1180
asbasbasbasbasbasbasbasbasbasbasbag60
(g76
g62
NtRp1791
(dp1792
g65
(dp1793
sg74
g70
sg67
(lp1794
g60
(g81
g62
NtRp1795
(dp1796
g65
(dp1797
g85
g86
ssg74
g1791
sg67
(lp1798
S'is_https'
p1799
asbag60
(g81
g62
NtRp1800
(dp1801
g65
(dp1802
g92
g93
ssg74
g1791
sg67
(lp1803
S':'
asbag60
(g81
g62
NtRp1804
(dp1805
g65
(dp1806
sg74
g1791
sg67
(lp1807
g60
(g61
g62
NtRp1808
(dp1809
g65
(dp1810
g73
I5
ssg74
g1804
sg67
(lp1811
g103
asbasbasbag60
(g76
g62
NtRp1812
(dp1813
g65
(dp1814
sg74
g70
sg67
(lp1815
g60
(g81
g62
NtRp1816
(dp1817
g65
(dp1818
g85
g86
ssg74
g1812
sg67
(lp1819
S'is_local'
p1820
asbag60
(g81
g62
NtRp1821
(dp1822
g65
(dp1823
g92
g93
ssg74
g1812
sg67
(lp1824
S':'
asbag60
(g81
g62
NtRp1825
(dp1826
g65
(dp1827
sg74
g1812
sg67
(lp1828
g60
(g61
g62
NtRp1829
(dp1830
g65
(dp1831
g73
I5
ssg74
g1825
sg67
(lp1832
g1289
asbasbasbag60
(g76
g62
NtRp1833
(dp1834
g65
(dp1835
sg74
g70
sg67
(lp1836
g60
(g81
g62
NtRp1837
(dp1838
g65
(dp1839
g85
g86
ssg74
g1833
sg67
(lp1840
S'is_restful'
p1841
asbag60
(g81
g62
NtRp1842
(dp1843
g65
(dp1844
g92
g93
ssg74
g1833
sg67
(lp1845
S':'
asbag60
(g81
g62
NtRp1846
(dp1847
g65
(dp1848
sg74
g1833
sg67
(lp1849
g60
(g61
g62
NtRp1850
(dp1851
g65
(dp1852
g73
I5
ssg74
g1846
sg67
(lp1853
g103
asbasbasbag60
(g76
g62
NtRp1854
(dp1855
g65
(dp1856
sg74
g70
sg67
(lp1857
g60
(g81
g62
NtRp1858
(dp1859
g65
(dp1860
g85
g86
ssg74
g1854
sg67
(lp1861
S'now'
p1862
asbag60
(g81
g62
NtRp1863
(dp1864
g65
(dp1865
g92
g93
ssg74
g1854
sg67
(lp1866
S':'
asbag60
(g81
g62
NtRp1867
(dp1868
g65
(dp1869
sg74
g1854
sg67
(lp1870
g60
(g61
g62
NtRp1871
(dp1872
g65
(dp1873
g73
I5
ssg74
g1867
sg67
(lp1874
S'datetime.datetime(2012, 7, 28, 14, 57, 20, 344000)'
p1875
asbasbasbag60
(g76
g62
NtRp1876
(dp1877
g65
(dp1878
sg74
g70
sg67
(lp1879
g60
(g81
g62
NtRp1880
(dp1881
g65
(dp1882
g85
g86
ssg74
g1876
sg67
(lp1883
S'post_vars'
p1884
asbag60
(g81
g62
NtRp1885
(dp1886
g65
(dp1887
g92
g93
ssg74
g1876
sg67
(lp1888
S':'
asbag60
(g81
g62
NtRp1889
(dp1890
g65
(dp1891
sg74
g1876
sg67
(lp1892
g60
(g61
g62
NtRp1893
(dp1894
g65
(dp1895
g73
I5
ssg74
g1889
sg67
(lp1896
g60
(g69
g62
NtRp1897
(dp1898
g65
(dp1899
g73
I4
ssg74
Nsg67
(lp1900
sbasbasbasbag60
(g76
g62
NtRp1901
(dp1902
g65
(dp1903
sg74
g70
sg67
(lp1904
g60
(g81
g62
NtRp1905
(dp1906
g65
(dp1907
g85
g86
ssg74
g1901
sg67
(lp1908
S'url'
p1909
asbag60
(g81
g62
NtRp1910
(dp1911
g65
(dp1912
g92
g93
ssg74
g1901
sg67
(lp1913
S':'
asbag60
(g81
g62
NtRp1914
(dp1915
g65
(dp1916
sg74
g1901
sg67
(lp1917
g60
(g61
g62
NtRp1918
(dp1919
g65
(dp1920
g73
I5
ssg74
g1914
sg67
(lp1921
S'/unioeste_code/default/index'
p1922
asbasbasbag60
(g76
g62
NtRp1923
(dp1924
g65
(dp1925
sg74
g70
sg67
(lp1926
g60
(g81
g62
NtRp1927
(dp1928
g65
(dp1929
g85
g86
ssg74
g1923
sg67
(lp1930
S'utcnow'
p1931
asbag60
(g81
g62
NtRp1932
(dp1933
g65
(dp1934
g92
g93
ssg74
g1923
sg67
(lp1935
S':'
asbag60
(g81
g62
NtRp1936
(dp1937
g65
(dp1938
sg74
g1923
sg67
(lp1939
g60
(g61
g62
NtRp1940
(dp1941
g65
(dp1942
g73
I5
ssg74
g1936
sg67
(lp1943
S'datetime.datetime(2012, 7, 28, 17, 57, 20, 344000)'
p1944
asbasbasbag60
(g76
g62
NtRp1945
(dp1946
g65
(dp1947
sg74
g70
sg67
(lp1948
g60
(g81
g62
NtRp1949
(dp1950
g65
(dp1951
g85
g86
ssg74
g1945
sg67
(lp1952
S'uuid'
p1953
asbag60
(g81
g62
NtRp1954
(dp1955
g65
(dp1956
g92
g93
ssg74
g1945
sg67
(lp1957
S':'
asbag60
(g81
g62
NtRp1958
(dp1959
g65
(dp1960
sg74
g1945
sg67
(lp1961
g60
(g61
g62
NtRp1962
(dp1963
g65
(dp1964
g73
I5
ssg74
g1958
sg67
(lp1965
S'unioeste_code/127.0.0.1.2012-07-28.14-57-20.e5fc9c55-f15a-4e66-9fb1-c448ac5dd282'
p1966
asbasbasbag60
(g76
g62
NtRp1967
(dp1968
g65
(dp1969
sg74
g70
sg67
(lp1970
g60
(g81
g62
NtRp1971
(dp1972
g65
(dp1973
g85
g86
ssg74
g1967
sg67
(lp1974
S'vars'
p1975
asbag60
(g81
g62
NtRp1976
(dp1977
g65
(dp1978
g92
g93
ssg74
g1967
sg67
(lp1979
S':'
asbag60
(g81
g62
NtRp1980
(dp1981
g65
(dp1982
sg74
g1967
sg67
(lp1983
g60
(g61
g62
NtRp1984
(dp1985
g65
(dp1986
g73
I5
ssg74
g1980
sg67
(lp1987
g60
(g69
g62
NtRp1988
(dp1989
g65
(dp1990
g73
I4
ssg74
Nsg67
(lp1991
sbasbasbasbag60
(g76
g62
NtRp1992
(dp1993
g65
(dp1994
sg74
g70
sg67
(lp1995
g60
(g81
g62
NtRp1996
(dp1997
g65
(dp1998
g85
g86
ssg74
g1992
sg67
(lp1999
S'wsgi'
p2000
asbag60
(g81
g62
NtRp2001
(dp2002
g65
(dp2003
g92
g93
ssg74
g1992
sg67
(lp2004
S':'
asbag60
(g81
g62
NtRp2005
(dp2006
g65
(dp2007
sg74
g1992
sg67
(lp2008
g60
(g61
g62
NtRp2009
(dp2010
g65
(dp2011
g73
I5
ssg74
g2005
sg67
(lp2012
g60
(g69
g62
NtRp2013
(dp2014
g65
(dp2015
g73
I4
ssg74
Nsg67
(lp2016
g60
(g76
g62
NtRp2017
(dp2018
g65
(dp2019
sg74
g2013
sg67
(lp2020
g60
(g81
g62
NtRp2021
(dp2022
g65
(dp2023
g85
g86
ssg74
g2017
sg67
(lp2024
S'environ'
p2025
asbag60
(g81
g62
NtRp2026
(dp2027
g65
(dp2028
g92
g93
ssg74
g2017
sg67
(lp2029
S':'
asbag60
(g81
g62
NtRp2030
(dp2031
g65
(dp2032
sg74
g2017
sg67
(lp2033
g60
(g61
g62
NtRp2034
(dp2035
g65
(dp2036
g73
I4
ssg74
g2030
sg67
(lp2037
g60
(g69
g62
NtRp2038
(dp2039
g65
(dp2040
g73
I3
ssg74
Nsg67
(lp2041
g60
(g76
g62
NtRp2042
(dp2043
g65
(dp2044
sg74
g2038
sg67
(lp2045
g60
(g81
g62
NtRp2046
(dp2047
g65
(dp2048
g85
g86
ssg74
g2042
sg67
(lp2049
S'HTTP_ACCEPT'
p2050
asbag60
(g81
g62
NtRp2051
(dp2052
g65
(dp2053
g92
g93
ssg74
g2042
sg67
(lp2054
S':'
asbag60
(g81
g62
NtRp2055
(dp2056
g65
(dp2057
sg74
g2042
sg67
(lp2058
g60
(g61
g62
NtRp2059
(dp2060
g65
(dp2061
g73
I3
ssg74
g2055
sg67
(lp2062
g615
asbasbasbag60
(g76
g62
NtRp2063
(dp2064
g65
(dp2065
sg74
g2038
sg67
(lp2066
g60
(g81
g62
NtRp2067
(dp2068
g65
(dp2069
g85
g86
ssg74
g2063
sg67
(lp2070
S'HTTP_ACCEPT_CHARSET'
p2071
asbag60
(g81
g62
NtRp2072
(dp2073
g65
(dp2074
g92
g93
ssg74
g2063
sg67
(lp2075
S':'
asbag60
(g81
g62
NtRp2076
(dp2077
g65
(dp2078
sg74
g2063
sg67
(lp2079
g60
(g61
g62
NtRp2080
(dp2081
g65
(dp2082
g73
I3
ssg74
g2076
sg67
(lp2083
g637
asbasbasbag60
(g76
g62
NtRp2084
(dp2085
g65
(dp2086
sg74
g2038
sg67
(lp2087
g60
(g81
g62
NtRp2088
(dp2089
g65
(dp2090
g85
g86
ssg74
g2084
sg67
(lp2091
S'HTTP_ACCEPT_ENCODING'
p2092
asbag60
(g81
g62
NtRp2093
(dp2094
g65
(dp2095
g92
g93
ssg74
g2084
sg67
(lp2096
S':'
asbag60
(g81
g62
NtRp2097
(dp2098
g65
(dp2099
sg74
g2084
sg67
(lp2100
g60
(g61
g62
NtRp2101
(dp2102
g65
(dp2103
g73
I3
ssg74
g2097
sg67
(lp2104
g659
asbasbasbag60
(g76
g62
NtRp2105
(dp2106
g65
(dp2107
sg74
g2038
sg67
(lp2108
g60
(g81
g62
NtRp2109
(dp2110
g65
(dp2111
g85
g86
ssg74
g2105
sg67
(lp2112
S'HTTP_ACCEPT_LANGUAGE'
p2113
asbag60
(g81
g62
NtRp2114
(dp2115
g65
(dp2116
g92
g93
ssg74
g2105
sg67
(lp2117
S':'
asbag60
(g81
g62
NtRp2118
(dp2119
g65
(dp2120
sg74
g2105
sg67
(lp2121
g60
(g61
g62
NtRp2122
(dp2123
g65
(dp2124
g73
I3
ssg74
g2118
sg67
(lp2125
g681
asbasbasbag60
(g76
g62
NtRp2126
(dp2127
g65
(dp2128
sg74
g2038
sg67
(lp2129
g60
(g81
g62
NtRp2130
(dp2131
g65
(dp2132
g85
g86
ssg74
g2126
sg67
(lp2133
S'HTTP_CONNECTION'
p2134
asbag60
(g81
g62
NtRp2135
(dp2136
g65
(dp2137
g92
g93
ssg74
g2126
sg67
(lp2138
S':'
asbag60
(g81
g62
NtRp2139
(dp2140
g65
(dp2141
sg74
g2126
sg67
(lp2142
g60
(g61
g62
NtRp2143
(dp2144
g65
(dp2145
g73
I3
ssg74
g2139
sg67
(lp2146
g703
asbasbasbag60
(g76
g62
NtRp2147
(dp2148
g65
(dp2149
sg74
g2038
sg67
(lp2150
g60
(g81
g62
NtRp2151
(dp2152
g65
(dp2153
g85
g86
ssg74
g2147
sg67
(lp2154
S'HTTP_COOKIE'
p2155
asbag60
(g81
g62
NtRp2156
(dp2157
g65
(dp2158
g92
g93
ssg74
g2147
sg67
(lp2159
S':'
asbag60
(g81
g62
NtRp2160
(dp2161
g65
(dp2162
sg74
g2147
sg67
(lp2163
g60
(g61
g62
NtRp2164
(dp2165
g65
(dp2166
g73
I3
ssg74
g2160
sg67
(lp2167
g725
asbasbasbag60
(g76
g62
NtRp2168
(dp2169
g65
(dp2170
sg74
g2038
sg67
(lp2171
g60
(g81
g62
NtRp2172
(dp2173
g65
(dp2174
g85
g86
ssg74
g2168
sg67
(lp2175
S'HTTP_DNT'
p2176
asbag60
(g81
g62
NtRp2177
(dp2178
g65
(dp2179
g92
g93
ssg74
g2168
sg67
(lp2180
S':'
asbag60
(g81
g62
NtRp2181
(dp2182
g65
(dp2183
sg74
g2168
sg67
(lp2184
g60
(g61
g62
NtRp2185
(dp2186
g65
(dp2187
g73
I3
ssg74
g2181
sg67
(lp2188
S'1'
asbasbasbag60
(g76
g62
NtRp2189
(dp2190
g65
(dp2191
sg74
g2038
sg67
(lp2192
g60
(g81
g62
NtRp2193
(dp2194
g65
(dp2195
g85
g86
ssg74
g2189
sg67
(lp2196
S'HTTP_HOST'
p2197
asbag60
(g81
g62
NtRp2198
(dp2199
g65
(dp2200
g92
g93
ssg74
g2189
sg67
(lp2201
S':'
asbag60
(g81
g62
NtRp2202
(dp2203
g65
(dp2204
sg74
g2189
sg67
(lp2205
g60
(g61
g62
NtRp2206
(dp2207
g65
(dp2208
g73
I3
ssg74
g2202
sg67
(lp2209
g768
asbasbasbag60
(g76
g62
NtRp2210
(dp2211
g65
(dp2212
sg74
g2038
sg67
(lp2213
g60
(g81
g62
NtRp2214
(dp2215
g65
(dp2216
g85
g86
ssg74
g2210
sg67
(lp2217
S'HTTP_USER_AGENT'
p2218
asbag60
(g81
g62
NtRp2219
(dp2220
g65
(dp2221
g92
g93
ssg74
g2210
sg67
(lp2222
S':'
asbag60
(g81
g62
NtRp2223
(dp2224
g65
(dp2225
sg74
g2210
sg67
(lp2226
g60
(g61
g62
NtRp2227
(dp2228
g65
(dp2229
g73
I3
ssg74
g2223
sg67
(lp2230
g790
asbasbasbag60
(g76
g62
NtRp2231
(dp2232
g65
(dp2233
sg74
g2038
sg67
(lp2234
g60
(g81
g62
NtRp2235
(dp2236
g65
(dp2237
g85
g86
ssg74
g2231
sg67
(lp2238
S'PATH_INFO'
p2239
asbag60
(g81
g62
NtRp2240
(dp2241
g65
(dp2242
g92
g93
ssg74
g2231
sg67
(lp2243
S':'
asbag60
(g81
g62
NtRp2244
(dp2245
g65
(dp2246
sg74
g2231
sg67
(lp2247
g60
(g61
g62
NtRp2248
(dp2249
g65
(dp2250
g73
I3
ssg74
g2244
sg67
(lp2251
g854
asbasbasbag60
(g76
g62
NtRp2252
(dp2253
g65
(dp2254
sg74
g2038
sg67
(lp2255
g60
(g81
g62
NtRp2256
(dp2257
g65
(dp2258
g85
g86
ssg74
g2252
sg67
(lp2259
S'QUERY_STRING'
p2260
asbag60
(g81
g62
NtRp2261
(dp2262
g65
(dp2263
g92
g93
ssg74
g2252
sg67
(lp2264
S':'
asbag60
(g81
g62
NtRp2265
(dp2266
g65
(dp2267
sg74
g2252
sg67
(lp2268
g60
(g61
g62
NtRp2269
(dp2270
g65
(dp2271
g73
I3
ssg74
g2265
sg67
(lp2272
S''
asbasbasbag60
(g76
g62
NtRp2273
(dp2274
g65
(dp2275
sg74
g2038
sg67
(lp2276
g60
(g81
g62
NtRp2277
(dp2278
g65
(dp2279
g85
g86
ssg74
g2273
sg67
(lp2280
S'REMOTE_ADDR'
p2281
asbag60
(g81
g62
NtRp2282
(dp2283
g65
(dp2284
g92
g93
ssg74
g2273
sg67
(lp2285
S':'
asbag60
(g81
g62
NtRp2286
(dp2287
g65
(dp2288
sg74
g2273
sg67
(lp2289
g60
(g61
g62
NtRp2290
(dp2291
g65
(dp2292
g73
I3
ssg74
g2286
sg67
(lp2293
g193
asbasbasbag60
(g76
g62
NtRp2294
(dp2295
g65
(dp2296
sg74
g2038
sg67
(lp2297
g60
(g81
g62
NtRp2298
(dp2299
g65
(dp2300
g85
g86
ssg74
g2294
sg67
(lp2301
S'REMOTE_PORT'
p2302
asbag60
(g81
g62
NtRp2303
(dp2304
g65
(dp2305
g92
g93
ssg74
g2294
sg67
(lp2306
S':'
asbag60
(g81
g62
NtRp2307
(dp2308
g65
(dp2309
sg74
g2294
sg67
(lp2310
g60
(g61
g62
NtRp2311
(dp2312
g65
(dp2313
g73
I3
ssg74
g2307
sg67
(lp2314
g918
asbasbasbag60
(g76
g62
NtRp2315
(dp2316
g65
(dp2317
sg74
g2038
sg67
(lp2318
g60
(g81
g62
NtRp2319
(dp2320
g65
(dp2321
g85
g86
ssg74
g2315
sg67
(lp2322
S'REQUEST_METHOD'
p2323
asbag60
(g81
g62
NtRp2324
(dp2325
g65
(dp2326
g92
g93
ssg74
g2315
sg67
(lp2327
S':'
asbag60
(g81
g62
NtRp2328
(dp2329
g65
(dp2330
sg74
g2315
sg67
(lp2331
g60
(g61
g62
NtRp2332
(dp2333
g65
(dp2334
g73
I3
ssg74
g2328
sg67
(lp2335
g940
asbasbasbag60
(g76
g62
NtRp2336
(dp2337
g65
(dp2338
sg74
g2038
sg67
(lp2339
g60
(g81
g62
NtRp2340
(dp2341
g65
(dp2342
g85
g86
ssg74
g2336
sg67
(lp2343
S'SCRIPT_NAME'
p2344
asbag60
(g81
g62
NtRp2345
(dp2346
g65
(dp2347
g92
g93
ssg74
g2336
sg67
(lp2348
S':'
asbag60
(g81
g62
NtRp2349
(dp2350
g65
(dp2351
sg74
g2336
sg67
(lp2352
g60
(g61
g62
NtRp2353
(dp2354
g65
(dp2355
g73
I3
ssg74
g2349
sg67
(lp2356
S''
asbasbasbag60
(g76
g62
NtRp2357
(dp2358
g65
(dp2359
sg74
g2038
sg67
(lp2360
g60
(g81
g62
NtRp2361
(dp2362
g65
(dp2363
g85
g86
ssg74
g2357
sg67
(lp2364
S'SERVER_NAME'
p2365
asbag60
(g81
g62
NtRp2366
(dp2367
g65
(dp2368
g92
g93
ssg74
g2357
sg67
(lp2369
S':'
asbag60
(g81
g62
NtRp2370
(dp2371
g65
(dp2372
sg74
g2357
sg67
(lp2373
g60
(g61
g62
NtRp2374
(dp2375
g65
(dp2376
g73
I3
ssg74
g2370
sg67
(lp2377
g983
asbasbasbag60
(g76
g62
NtRp2378
(dp2379
g65
(dp2380
sg74
g2038
sg67
(lp2381
g60
(g81
g62
NtRp2382
(dp2383
g65
(dp2384
g85
g86
ssg74
g2378
sg67
(lp2385
S'SERVER_PORT'
p2386
asbag60
(g81
g62
NtRp2387
(dp2388
g65
(dp2389
g92
g93
ssg74
g2378
sg67
(lp2390
S':'
asbag60
(g81
g62
NtRp2391
(dp2392
g65
(dp2393
sg74
g2378
sg67
(lp2394
g60
(g61
g62
NtRp2395
(dp2396
g65
(dp2397
g73
I3
ssg74
g2391
sg67
(lp2398
g1005
asbasbasbag60
(g76
g62
NtRp2399
(dp2400
g65
(dp2401
sg74
g2038
sg67
(lp2402
g60
(g81
g62
NtRp2403
(dp2404
g65
(dp2405
g85
g86
ssg74
g2399
sg67
(lp2406
S'SERVER_PROTOCOL'
p2407
asbag60
(g81
g62
NtRp2408
(dp2409
g65
(dp2410
g92
g93
ssg74
g2399
sg67
(lp2411
S':'
asbag60
(g81
g62
NtRp2412
(dp2413
g65
(dp2414
sg74
g2399
sg67
(lp2415
g60
(g61
g62
NtRp2416
(dp2417
g65
(dp2418
g73
I3
ssg74
g2412
sg67
(lp2419
g1027
asbasbasbag60
(g76
g62
NtRp2420
(dp2421
g65
(dp2422
sg74
g2038
sg67
(lp2423
g60
(g81
g62
NtRp2424
(dp2425
g65
(dp2426
g85
g86
ssg74
g2420
sg67
(lp2427
S'SERVER_SOFTWARE'
p2428
asbag60
(g81
g62
NtRp2429
(dp2430
g65
(dp2431
g92
g93
ssg74
g2420
sg67
(lp2432
S':'
asbag60
(g81
g62
NtRp2433
(dp2434
g65
(dp2435
sg74
g2420
sg67
(lp2436
g60
(g61
g62
NtRp2437
(dp2438
g65
(dp2439
g73
I3
ssg74
g2433
sg67
(lp2440
g1049
asbasbasbag60
(g76
g62
NtRp2441
(dp2442
g65
(dp2443
sg74
g2038
sg67
(lp2444
g60
(g81
g62
NtRp2445
(dp2446
g65
(dp2447
g85
g86
ssg74
g2441
sg67
(lp2448
S'wsgi.errors'
p2449
asbag60
(g81
g62
NtRp2450
(dp2451
g65
(dp2452
g92
g93
ssg74
g2441
sg67
(lp2453
S':'
asbag60
(g81
g62
NtRp2454
(dp2455
g65
(dp2456
sg74
g2441
sg67
(lp2457
g60
(g61
g62
NtRp2458
(dp2459
g65
(dp2460
g73
I3
ssg74
g2454
sg67
(lp2461
S'<__main__.Stderr object at 0x006F6670>'
p2462
asbasbasbag60
(g76
g62
NtRp2463
(dp2464
g65
(dp2465
sg74
g2038
sg67
(lp2466
g60
(g81
g62
NtRp2467
(dp2468
g65
(dp2469
g85
g86
ssg74
g2463
sg67
(lp2470
S'wsgi.file_wrapper'
p2471
asbag60
(g81
g62
NtRp2472
(dp2473
g65
(dp2474
g92
g93
ssg74
g2463
sg67
(lp2475
S':'
asbag60
(g81
g62
NtRp2476
(dp2477
g65
(dp2478
sg74
g2463
sg67
(lp2479
g60
(g61
g62
NtRp2480
(dp2481
g65
(dp2482
g73
I3
ssg74
g2476
sg67
(lp2483
S'<class wsgiref.util.FileWrapper at 0x02E8DE10>'
p2484
asbasbasbag60
(g76
g62
NtRp2485
(dp2486
g65
(dp2487
sg74
g2038
sg67
(lp2488
g60
(g81
g62
NtRp2489
(dp2490
g65
(dp2491
g85
g86
ssg74
g2485
sg67
(lp2492
S'wsgi.input'
p2493
asbag60
(g81
g62
NtRp2494
(dp2495
g65
(dp2496
g92
g93
ssg74
g2485
sg67
(lp2497
S':'
asbag60
(g81
g62
NtRp2498
(dp2499
g65
(dp2500
sg74
g2485
sg67
(lp2501
g60
(g61
g62
NtRp2502
(dp2503
g65
(dp2504
g73
I3
ssg74
g2498
sg67
(lp2505
S'<cStringIO.StringO object at 0x05F6A380>'
p2506
asbasbasbag60
(g76
g62
NtRp2507
(dp2508
g65
(dp2509
sg74
g2038
sg67
(lp2510
g60
(g81
g62
NtRp2511
(dp2512
g65
(dp2513
g85
g86
ssg74
g2507
sg67
(lp2514
S'wsgi.multiprocess'
p2515
asbag60
(g81
g62
NtRp2516
(dp2517
g65
(dp2518
g92
g93
ssg74
g2507
sg67
(lp2519
S':'
asbag60
(g81
g62
NtRp2520
(dp2521
g65
(dp2522
sg74
g2507
sg67
(lp2523
g60
(g61
g62
NtRp2524
(dp2525
g65
(dp2526
g73
I3
ssg74
g2520
sg67
(lp2527
g103
asbasbasbag60
(g76
g62
NtRp2528
(dp2529
g65
(dp2530
sg74
g2038
sg67
(lp2531
g60
(g81
g62
NtRp2532
(dp2533
g65
(dp2534
g85
g86
ssg74
g2528
sg67
(lp2535
S'wsgi.multithread'
p2536
asbag60
(g81
g62
NtRp2537
(dp2538
g65
(dp2539
g92
g93
ssg74
g2528
sg67
(lp2540
S':'
asbag60
(g81
g62
NtRp2541
(dp2542
g65
(dp2543
sg74
g2528
sg67
(lp2544
g60
(g61
g62
NtRp2545
(dp2546
g65
(dp2547
g73
I3
ssg74
g2541
sg67
(lp2548
g1289
asbasbasbag60
(g76
g62
NtRp2549
(dp2550
g65
(dp2551
sg74
g2038
sg67
(lp2552
g60
(g81
g62
NtRp2553
(dp2554
g65
(dp2555
g85
g86
ssg74
g2549
sg67
(lp2556
S'wsgi.run_once'
p2557
asbag60
(g81
g62
NtRp2558
(dp2559
g65
(dp2560
g92
g93
ssg74
g2549
sg67
(lp2561
S':'
asbag60
(g81
g62
NtRp2562
(dp2563
g65
(dp2564
sg74
g2549
sg67
(lp2565
g60
(g61
g62
NtRp2566
(dp2567
g65
(dp2568
g73
I3
ssg74
g2562
sg67
(lp2569
g103
asbasbasbag60
(g76
g62
NtRp2570
(dp2571
g65
(dp2572
sg74
g2038
sg67
(lp2573
g60
(g81
g62
NtRp2574
(dp2575
g65
(dp2576
g85
g86
ssg74
g2570
sg67
(lp2577
S'wsgi.url_scheme'
p2578
asbag60
(g81
g62
NtRp2579
(dp2580
g65
(dp2581
g92
g93
ssg74
g2570
sg67
(lp2582
S':'
asbag60
(g81
g62
NtRp2583
(dp2584
g65
(dp2585
sg74
g2570
sg67
(lp2586
g60
(g61
g62
NtRp2587
(dp2588
g65
(dp2589
g73
I3
ssg74
g2583
sg67
(lp2590
g1332
asbasbasbag60
(g76
g62
NtRp2591
(dp2592
g65
(dp2593
sg74
g2038
sg67
(lp2594
g60
(g81
g62
NtRp2595
(dp2596
g65
(dp2597
g85
g86
ssg74
g2591
sg67
(lp2598
S'wsgi.version'
p2599
asbag60
(g81
g62
NtRp2600
(dp2601
g65
(dp2602
g92
g93
ssg74
g2591
sg67
(lp2603
S':'
asbag60
(g81
g62
NtRp2604
(dp2605
g65
(dp2606
sg74
g2591
sg67
(lp2607
g60
(g61
g62
NtRp2608
(dp2609
g65
(dp2610
g73
I3
ssg74
g2604
sg67
(lp2611
S'1'
asbasbasbasbasbasbasbasbasbasbasbasbasbsS'frames'
p2612
(lp2613
(dp2614
S'file'
p2615
S'C:\\web2py\\gluon\\restricted.py'
p2616
sS'dump'
p2617
(dp2618
sS'lnum'
p2619
I204
sS'lines'
p2620
(dp2621
sS'call'
p2622
S'(code="\\ndb = DAL(\'sqlite://storage.sqlite\')\\n\\nfrom gluon..._by\', db.auth_user, default=auth.user_id)\\n    )\\n\\n", environment={\'A\': <class \'gluon.html.A\'>, \'B\': <class \'gluon.html.B\'>, \'BEAUTIFY\': <class \'gluon.html.BEAUTIFY\'>, \'BODY\': <class \'gluon.html.BODY\'>, \'BR\': <class \'gluon.html.BR\'>, \'BUTTON\': <class \'gluon.html.BUTTON\'>, \'CAT\': <class \'gluon.html.CAT\'>, \'CENTER\': <class \'gluon.html.CENTER\'>, \'CLEANUP\': <class \'gluon.validators.CLEANUP\'>, \'CODE\': <class \'gluon.html.CODE\'>, ...}, layer=r\'C:\\web2py\\applications\\unioeste_code\\models\\db.py\')'
p2623
sS'func'
p2624
S'restricted'
p2625
sa(dp2626
g2615
S'C:\\web2py\\gluon\\restricted.py'
p2627
sg2617
(dp2628
sg2619
I189
sg2620
(dp2629
sg2622
S'(code="\\ndb = DAL(\'sqlite://storage.sqlite\')\\n\\nfrom gluon..._by\', db.auth_user, default=auth.user_id)\\n    )\\n\\n", layer=r\'C:\\web2py\\applications\\unioeste_code\\models\\db.py\')'
p2630
sg2624
S'compile2'
p2631
sasS'pyver'
p2632
S'Python 2.5.4: C:\\web2py\\web2py_no_console.exe'
p2633
sS'session'
p2634
g60
(g61
g62
NtRp2635
(dp2636
g65
(dp2637
sg67
(lp2638
g60
(g69
g62
NtRp2639
(dp2640
g65
(dp2641
g73
I5
ssg74
Nsg67
(lp2642
sbasbsS'etype'
p2643
S"<type 'exceptions.SyntaxError'>"
p2644
sS'date'
p2645
S'Sat Jul 28 14:57:20 2012'
p2646
sS'response'
p2647
g60
(g61
g62
NtRp2648
(dp2649
g65
(dp2650
sg67
(lp2651
g60
(g69
g62
NtRp2652
(dp2653
g65
(dp2654
g73
I5
ssg74
Nsg67
(lp2655
g60
(g76
g62
NtRp2656
(dp2657
g65
(dp2658
sg74
g2652
sg67
(lp2659
g60
(g81
g62
NtRp2660
(dp2661
g65
(dp2662
g85
g86
ssg74
g2656
sg67
(lp2663
g158
asbag60
(g81
g62
NtRp2664
(dp2665
g65
(dp2666
g92
g93
ssg74
g2656
sg67
(lp2667
S':'
asbag60
(g81
g62
NtRp2668
(dp2669
g65
(dp2670
sg74
g2656
sg67
(lp2671
g60
(g61
g62
NtRp2672
(dp2673
g65
(dp2674
g73
I5
ssg74
g2668
sg67
(lp2675
S'<cStringIO.StringO object at 0x05F6A740>'
p2676
asbasbasbag60
(g76
g62
NtRp2677
(dp2678
g65
(dp2679
sg74
g2652
sg67
(lp2680
g60
(g81
g62
NtRp2681
(dp2682
g65
(dp2683
g85
g86
ssg74
g2677
sg67
(lp2684
g224
asbag60
(g81
g62
NtRp2685
(dp2686
g65
(dp2687
g92
g93
ssg74
g2677
sg67
(lp2688
S':'
asbag60
(g81
g62
NtRp2689
(dp2690
g65
(dp2691
sg74
g2677
sg67
(lp2692
g60
(g61
g62
NtRp2693
(dp2694
g65
(dp2695
g73
I5
ssg74
g2689
sg67
(lp2696
g60
(g69
g62
NtRp2697
(dp2698
g65
(dp2699
g73
I4
ssg74
Nsg67
(lp2700
g60
(g76
g62
NtRp2701
(dp2702
g65
(dp2703
sg74
g2697
sg67
(lp2704
g60
(g81
g62
NtRp2705
(dp2706
g65
(dp2707
g85
g86
ssg74
g2701
sg67
(lp2708
S'session_id_unioeste_code'
p2709
asbag60
(g81
g62
NtRp2710
(dp2711
g65
(dp2712
g92
g93
ssg74
g2701
sg67
(lp2713
S':'
asbag60
(g81
g62
NtRp2714
(dp2715
g65
(dp2716
sg74
g2701
sg67
(lp2717
g60
(g61
g62
NtRp2718
(dp2719
g65
(dp2720
g73
I4
ssg74
g2714
sg67
(lp2721
g60
(g69
g62
NtRp2722
(dp2723
g65
(dp2724
g73
I3
ssg74
Nsg67
(lp2725
g60
(g76
g62
NtRp2726
(dp2727
g65
(dp2728
sg74
g2722
sg67
(lp2729
g60
(g81
g62
NtRp2730
(dp2731
g65
(dp2732
g85
g86
ssg74
g2726
sg67
(lp2733
g274
asbag60
(g81
g62
NtRp2734
(dp2735
g65
(dp2736
g92
g93
ssg74
g2726
sg67
(lp2737
S':'
asbag60
(g81
g62
NtRp2738
(dp2739
g65
(dp2740
sg74
g2726
sg67
(lp2741
g60
(g61
g62
NtRp2742
(dp2743
g65
(dp2744
g73
I3
ssg74
g2738
sg67
(lp2745
S''
asbasbasbag60
(g76
g62
NtRp2746
(dp2747
g65
(dp2748
sg74
g2722
sg67
(lp2749
g60
(g81
g62
NtRp2750
(dp2751
g65
(dp2752
g85
g86
ssg74
g2746
sg67
(lp2753
g295
asbag60
(g81
g62
NtRp2754
(dp2755
g65
(dp2756
g92
g93
ssg74
g2746
sg67
(lp2757
S':'
asbag60
(g81
g62
NtRp2758
(dp2759
g65
(dp2760
sg74
g2746
sg67
(lp2761
g60
(g61
g62
NtRp2762
(dp2763
g65
(dp2764
g73
I3
ssg74
g2758
sg67
(lp2765
S''
asbasbasbag60
(g76
g62
NtRp2766
(dp2767
g65
(dp2768
sg74
g2722
sg67
(lp2769
g60
(g81
g62
NtRp2770
(dp2771
g65
(dp2772
g85
g86
ssg74
g2766
sg67
(lp2773
g316
asbag60
(g81
g62
NtRp2774
(dp2775
g65
(dp2776
g92
g93
ssg74
g2766
sg67
(lp2777
S':'
asbag60
(g81
g62
NtRp2778
(dp2779
g65
(dp2780
sg74
g2766
sg67
(lp2781
g60
(g61
g62
NtRp2782
(dp2783
g65
(dp2784
g73
I3
ssg74
g2778
sg67
(lp2785
S''
asbasbasbag60
(g76
g62
NtRp2786
(dp2787
g65
(dp2788
sg74
g2722
sg67
(lp2789
g60
(g81
g62
NtRp2790
(dp2791
g65
(dp2792
g85
g86
ssg74
g2786
sg67
(lp2793
g337
asbag60
(g81
g62
NtRp2794
(dp2795
g65
(dp2796
g92
g93
ssg74
g2786
sg67
(lp2797
S':'
asbag60
(g81
g62
NtRp2798
(dp2799
g65
(dp2800
sg74
g2786
sg67
(lp2801
g60
(g61
g62
NtRp2802
(dp2803
g65
(dp2804
g73
I3
ssg74
g2798
sg67
(lp2805
S''
asbasbasbag60
(g76
g62
NtRp2806
(dp2807
g65
(dp2808
sg74
g2722
sg67
(lp2809
g60
(g81
g62
NtRp2810
(dp2811
g65
(dp2812
g85
g86
ssg74
g2806
sg67
(lp2813
g358
asbag60
(g81
g62
NtRp2814
(dp2815
g65
(dp2816
g92
g93
ssg74
g2806
sg67
(lp2817
S':'
asbag60
(g81
g62
NtRp2818
(dp2819
g65
(dp2820
sg74
g2806
sg67
(lp2821
g60
(g61
g62
NtRp2822
(dp2823
g65
(dp2824
g73
I3
ssg74
g2818
sg67
(lp2825
S'/'
asbasbasbag60
(g76
g62
NtRp2826
(dp2827
g65
(dp2828
sg74
g2722
sg67
(lp2829
g60
(g81
g62
NtRp2830
(dp2831
g65
(dp2832
g85
g86
ssg74
g2826
sg67
(lp2833
g379
asbag60
(g81
g62
NtRp2834
(dp2835
g65
(dp2836
g92
g93
ssg74
g2826
sg67
(lp2837
S':'
asbag60
(g81
g62
NtRp2838
(dp2839
g65
(dp2840
sg74
g2826
sg67
(lp2841
g60
(g61
g62
NtRp2842
(dp2843
g65
(dp2844
g73
I3
ssg74
g2838
sg67
(lp2845
S''
asbasbasbag60
(g76
g62
NtRp2846
(dp2847
g65
(dp2848
sg74
g2722
sg67
(lp2849
g60
(g81
g62
NtRp2850
(dp2851
g65
(dp2852
g85
g86
ssg74
g2846
sg67
(lp2853
g400
asbag60
(g81
g62
NtRp2854
(dp2855
g65
(dp2856
g92
g93
ssg74
g2846
sg67
(lp2857
S':'
asbag60
(g81
g62
NtRp2858
(dp2859
g65
(dp2860
sg74
g2846
sg67
(lp2861
g60
(g61
g62
NtRp2862
(dp2863
g65
(dp2864
g73
I3
ssg74
g2858
sg67
(lp2865
S''
asbasbasbasbasbasbasbasbasbasbasbag60
(g76
g62
NtRp2866
(dp2867
g65
(dp2868
sg74
g2652
sg67
(lp2869
g60
(g81
g62
NtRp2870
(dp2871
g65
(dp2872
g85
g86
ssg74
g2866
sg67
(lp2873
S'delimiters'
p2874
asbag60
(g81
g62
NtRp2875
(dp2876
g65
(dp2877
g92
g93
ssg74
g2866
sg67
(lp2878
S':'
asbag60
(g81
g62
NtRp2879
(dp2880
g65
(dp2881
sg74
g2866
sg67
(lp2882
g60
(g61
g62
NtRp2883
(dp2884
g65
(dp2885
g73
I5
ssg74
g2879
sg67
(lp2886
g60
(g69
g62
NtRp2887
(dp2888
g65
(dp2889
g73
I4
ssg74
Nsg67
(lp2890
g60
(g76
g62
NtRp2891
(dp2892
g65
(dp2893
sg74
g2887
sg67
(lp2894
g60
(g81
g62
NtRp2895
(dp2896
g65
(dp2897
sg74
g2891
sg67
(lp2898
g60
(g61
g62
NtRp2899
(dp2900
g65
(dp2901
g73
I4
ssg74
g2895
sg67
(lp2902
S'{{'
p2903
asbasbasbag60
(g76
g62
NtRp2904
(dp2905
g65
(dp2906
sg74
g2887
sg67
(lp2907
g60
(g81
g62
NtRp2908
(dp2909
g65
(dp2910
sg74
g2904
sg67
(lp2911
g60
(g61
g62
NtRp2912
(dp2913
g65
(dp2914
g73
I4
ssg74
g2908
sg67
(lp2915
S'}}'
p2916
asbasbasbasbasbasbasbag60
(g76
g62
NtRp2917
(dp2918
g65
(dp2919
sg74
g2652
sg67
(lp2920
g60
(g81
g62
NtRp2921
(dp2922
g65
(dp2923
g85
g86
ssg74
g2917
sg67
(lp2924
S'files'
p2925
asbag60
(g81
g62
NtRp2926
(dp2927
g65
(dp2928
g92
g93
ssg74
g2917
sg67
(lp2929
S':'
asbag60
(g81
g62
NtRp2930
(dp2931
g65
(dp2932
sg74
g2917
sg67
(lp2933
g60
(g61
g62
NtRp2934
(dp2935
g65
(dp2936
g73
I5
ssg74
g2930
sg67
(lp2937
g60
(g69
g62
NtRp2938
(dp2939
g65
(dp2940
g73
I4
ssg74
Nsg67
(lp2941
sbasbasbasbag60
(g76
g62
NtRp2942
(dp2943
g65
(dp2944
sg74
g2652
sg67
(lp2945
g60
(g81
g62
NtRp2946
(dp2947
g65
(dp2948
g85
g86
ssg74
g2942
sg67
(lp2949
S'flash'
p2950
asbag60
(g81
g62
NtRp2951
(dp2952
g65
(dp2953
g92
g93
ssg74
g2942
sg67
(lp2954
S':'
asbag60
(g81
g62
NtRp2955
(dp2956
g65
(dp2957
sg74
g2942
sg67
(lp2958
g60
(g61
g62
NtRp2959
(dp2960
g65
(dp2961
g73
I5
ssg74
g2955
sg67
(lp2962
S''
asbasbasbag60
(g76
g62
NtRp2963
(dp2964
g65
(dp2965
sg74
g2652
sg67
(lp2966
g60
(g81
g62
NtRp2967
(dp2968
g65
(dp2969
g85
g86
ssg74
g2963
sg67
(lp2970
S'generic_patterns'
p2971
asbag60
(g81
g62
NtRp2972
(dp2973
g65
(dp2974
g92
g93
ssg74
g2963
sg67
(lp2975
S':'
asbag60
(g81
g62
NtRp2976
(dp2977
g65
(dp2978
sg74
g2963
sg67
(lp2979
g60
(g61
g62
NtRp2980
(dp2981
g65
(dp2982
g73
I5
ssg74
g2976
sg67
(lp2983
g60
(g69
g62
NtRp2984
(dp2985
g65
(dp2986
g73
I4
ssg74
Nsg67
(lp2987
sbasbasbasbag60
(g76
g62
NtRp2988
(dp2989
g65
(dp2990
sg74
g2652
sg67
(lp2991
g60
(g81
g62
NtRp2992
(dp2993
g65
(dp2994
g85
g86
ssg74
g2988
sg67
(lp2995
S'headers'
p2996
asbag60
(g81
g62
NtRp2997
(dp2998
g65
(dp2999
g92
g93
ssg74
g2988
sg67
(lp3000
S':'
asbag60
(g81
g62
NtRp3001
(dp3002
g65
(dp3003
sg74
g2988
sg67
(lp3004
g60
(g61
g62
NtRp3005
(dp3006
g65
(dp3007
g73
I5
ssg74
g3001
sg67
(lp3008
g60
(g69
g62
NtRp3009
(dp3010
g65
(dp3011
g73
I4
ssg74
Nsg67
(lp3012
g60
(g76
g62
NtRp3013
(dp3014
g65
(dp3015
sg74
g3009
sg67
(lp3016
g60
(g81
g62
NtRp3017
(dp3018
g65
(dp3019
g85
g86
ssg74
g3013
sg67
(lp3020
S'Cache-Control'
p3021
asbag60
(g81
g62
NtRp3022
(dp3023
g65
(dp3024
g92
g93
ssg74
g3013
sg67
(lp3025
S':'
asbag60
(g81
g62
NtRp3026
(dp3027
g65
(dp3028
sg74
g3013
sg67
(lp3029
g60
(g61
g62
NtRp3030
(dp3031
g65
(dp3032
g73
I4
ssg74
g3026
sg67
(lp3033
S'no-store, no-cache, must-revalidate, post-check=0, pre-check=0'
p3034
asbasbasbag60
(g76
g62
NtRp3035
(dp3036
g65
(dp3037
sg74
g3009
sg67
(lp3038
g60
(g81
g62
NtRp3039
(dp3040
g65
(dp3041
g85
g86
ssg74
g3035
sg67
(lp3042
S'Content-Type'
p3043
asbag60
(g81
g62
NtRp3044
(dp3045
g65
(dp3046
g92
g93
ssg74
g3035
sg67
(lp3047
S':'
asbag60
(g81
g62
NtRp3048
(dp3049
g65
(dp3050
sg74
g3035
sg67
(lp3051
g60
(g61
g62
NtRp3052
(dp3053
g65
(dp3054
g73
I4
ssg74
g3048
sg67
(lp3055
S'text/html; charset=utf-8'
p3056
asbasbasbag60
(g76
g62
NtRp3057
(dp3058
g65
(dp3059
sg74
g3009
sg67
(lp3060
g60
(g81
g62
NtRp3061
(dp3062
g65
(dp3063
g85
g86
ssg74
g3057
sg67
(lp3064
S'Expires'
p3065
asbag60
(g81
g62
NtRp3066
(dp3067
g65
(dp3068
g92
g93
ssg74
g3057
sg67
(lp3069
S':'
asbag60
(g81
g62
NtRp3070
(dp3071
g65
(dp3072
sg74
g3057
sg67
(lp3073
g60
(g61
g62
NtRp3074
(dp3075
g65
(dp3076
g73
I4
ssg74
g3070
sg67
(lp3077
S'Sat, 28 Jul 2012 17:57:20 GMT'
p3078
asbasbasbag60
(g76
g62
NtRp3079
(dp3080
g65
(dp3081
sg74
g3009
sg67
(lp3082
g60
(g81
g62
NtRp3083
(dp3084
g65
(dp3085
g85
g86
ssg74
g3079
sg67
(lp3086
S'Pragma'
p3087
asbag60
(g81
g62
NtRp3088
(dp3089
g65
(dp3090
g92
g93
ssg74
g3079
sg67
(lp3091
S':'
asbag60
(g81
g62
NtRp3092
(dp3093
g65
(dp3094
sg74
g3079
sg67
(lp3095
g60
(g61
g62
NtRp3096
(dp3097
g65
(dp3098
g73
I4
ssg74
g3092
sg67
(lp3099
S'no-cache'
p3100
asbasbasbag60
(g76
g62
NtRp3101
(dp3102
g65
(dp3103
sg74
g3009
sg67
(lp3104
g60
(g81
g62
NtRp3105
(dp3106
g65
(dp3107
g85
g86
ssg74
g3101
sg67
(lp3108
S'X-Powered-By'
p3109
asbag60
(g81
g62
NtRp3110
(dp3111
g65
(dp3112
g92
g93
ssg74
g3101
sg67
(lp3113
S':'
asbag60
(g81
g62
NtRp3114
(dp3115
g65
(dp3116
sg74
g3101
sg67
(lp3117
g60
(g61
g62
NtRp3118
(dp3119
g65
(dp3120
g73
I4
ssg74
g3114
sg67
(lp3121
S'web2py'
p3122
asbasbasbasbasbasbasbag60
(g76
g62
NtRp3123
(dp3124
g65
(dp3125
sg74
g2652
sg67
(lp3126
g60
(g81
g62
NtRp3127
(dp3128
g65
(dp3129
g85
g86
ssg74
g3123
sg67
(lp3130
S'menu'
p3131
asbag60
(g81
g62
NtRp3132
(dp3133
g65
(dp3134
g92
g93
ssg74
g3123
sg67
(lp3135
S':'
asbag60
(g81
g62
NtRp3136
(dp3137
g65
(dp3138
sg74
g3123
sg67
(lp3139
g60
(g61
g62
NtRp3140
(dp3141
g65
(dp3142
g73
I5
ssg74
g3136
sg67
(lp3143
g60
(g69
g62
NtRp3144
(dp3145
g65
(dp3146
g73
I4
ssg74
Nsg67
(lp3147
sbasbasbasbag60
(g76
g62
NtRp3148
(dp3149
g65
(dp3150
sg74
g2652
sg67
(lp3151
g60
(g81
g62
NtRp3152
(dp3153
g65
(dp3154
g85
g86
ssg74
g3148
sg67
(lp3155
S'meta'
p3156
asbag60
(g81
g62
NtRp3157
(dp3158
g65
(dp3159
g92
g93
ssg74
g3148
sg67
(lp3160
S':'
asbag60
(g81
g62
NtRp3161
(dp3162
g65
(dp3163
sg74
g3148
sg67
(lp3164
g60
(g61
g62
NtRp3165
(dp3166
g65
(dp3167
g73
I5
ssg74
g3161
sg67
(lp3168
g60
(g69
g62
NtRp3169
(dp3170
g65
(dp3171
g73
I4
ssg74
Nsg67
(lp3172
sbasbasbasbag60
(g76
g62
NtRp3173
(dp3174
g65
(dp3175
sg74
g2652
sg67
(lp3176
g60
(g81
g62
NtRp3177
(dp3178
g65
(dp3179
g85
g86
ssg74
g3173
sg67
(lp3180
S'postprocessing'
p3181
asbag60
(g81
g62
NtRp3182
(dp3183
g65
(dp3184
g92
g93
ssg74
g3173
sg67
(lp3185
S':'
asbag60
(g81
g62
NtRp3186
(dp3187
g65
(dp3188
sg74
g3173
sg67
(lp3189
g60
(g61
g62
NtRp3190
(dp3191
g65
(dp3192
g73
I5
ssg74
g3186
sg67
(lp3193
g60
(g69
g62
NtRp3194
(dp3195
g65
(dp3196
g73
I4
ssg74
Nsg67
(lp3197
sbasbasbasbag60
(g76
g62
NtRp3198
(dp3199
g65
(dp3200
sg74
g2652
sg67
(lp3201
g60
(g81
g62
NtRp3202
(dp3203
g65
(dp3204
g85
g86
ssg74
g3198
sg67
(lp3205
S'session_filename'
p3206
asbag60
(g81
g62
NtRp3207
(dp3208
g65
(dp3209
g92
g93
ssg74
g3198
sg67
(lp3210
S':'
asbag60
(g81
g62
NtRp3211
(dp3212
g65
(dp3213
sg74
g3198
sg67
(lp3214
g60
(g61
g62
NtRp3215
(dp3216
g65
(dp3217
g73
I5
ssg74
g3211
sg67
(lp3218
S'C:\\web2py\\applications\\unioeste_code\\sessions\\127.0.0.1-8a7d13d5-b70a-4508-b10e-62c031450c45'
p3219
asbasbasbag60
(g76
g62
NtRp3220
(dp3221
g65
(dp3222
sg74
g2652
sg67
(lp3223
g60
(g81
g62
NtRp3224
(dp3225
g65
(dp3226
g85
g86
ssg74
g3220
sg67
(lp3227
S'session_id'
p3228
asbag60
(g81
g62
NtRp3229
(dp3230
g65
(dp3231
g92
g93
ssg74
g3220
sg67
(lp3232
S':'
asbag60
(g81
g62
NtRp3233
(dp3234
g65
(dp3235
sg74
g3220
sg67
(lp3236
g60
(g61
g62
NtRp3237
(dp3238
g65
(dp3239
g73
I5
ssg74
g3233
sg67
(lp3240
S'127.0.0.1-8a7d13d5-b70a-4508-b10e-62c031450c45'
p3241
asbasbasbag60
(g76
g62
NtRp3242
(dp3243
g65
(dp3244
sg74
g2652
sg67
(lp3245
g60
(g81
g62
NtRp3246
(dp3247
g65
(dp3248
g85
g86
ssg74
g3242
sg67
(lp3249
S'session_id_name'
p3250
asbag60
(g81
g62
NtRp3251
(dp3252
g65
(dp3253
g92
g93
ssg74
g3242
sg67
(lp3254
S':'
asbag60
(g81
g62
NtRp3255
(dp3256
g65
(dp3257
sg74
g3242
sg67
(lp3258
g60
(g61
g62
NtRp3259
(dp3260
g65
(dp3261
g73
I5
ssg74
g3255
sg67
(lp3262
g2709
asbasbasbag60
(g76
g62
NtRp3263
(dp3264
g65
(dp3265
sg74
g2652
sg67
(lp3266
g60
(g81
g62
NtRp3267
(dp3268
g65
(dp3269
g85
g86
ssg74
g3263
sg67
(lp3270
S'session_new'
p3271
asbag60
(g81
g62
NtRp3272
(dp3273
g65
(dp3274
g92
g93
ssg74
g3263
sg67
(lp3275
S':'
asbag60
(g81
g62
NtRp3276
(dp3277
g65
(dp3278
sg74
g3263
sg67
(lp3279
g60
(g61
g62
NtRp3280
(dp3281
g65
(dp3282
g73
I5
ssg74
g3276
sg67
(lp3283
g1289
asbasbasbag60
(g76
g62
NtRp3284
(dp3285
g65
(dp3286
sg74
g2652
sg67
(lp3287
g60
(g81
g62
NtRp3288
(dp3289
g65
(dp3290
g85
g86
ssg74
g3284
sg67
(lp3291
S'status'
p3292
asbag60
(g81
g62
NtRp3293
(dp3294
g65
(dp3295
g92
g93
ssg74
g3284
sg67
(lp3296
S':'
asbag60
(g81
g62
NtRp3297
(dp3298
g65
(dp3299
sg74
g3284
sg67
(lp3300
g60
(g61
g62
NtRp3301
(dp3302
g65
(dp3303
g73
I5
ssg74
g3297
sg67
(lp3304
S'200'
p3305
asbasbasbag60
(g76
g62
NtRp3306
(dp3307
g65
(dp3308
sg74
g2652
sg67
(lp3309
g60
(g81
g62
NtRp3310
(dp3311
g65
(dp3312
g85
g86
ssg74
g3306
sg67
(lp3313
g1953
asbag60
(g81
g62
NtRp3314
(dp3315
g65
(dp3316
g92
g93
ssg74
g3306
sg67
(lp3317
S':'
asbag60
(g81
g62
NtRp3318
(dp3319
g65
(dp3320
sg74
g3306
sg67
(lp3321
g60
(g61
g62
NtRp3322
(dp3323
g65
(dp3324
g73
I5
ssg74
g3318
sg67
(lp3325
g1966
asbasbasbag60
(g76
g62
NtRp3326
(dp3327
g65
(dp3328
sg74
g2652
sg67
(lp3329
g60
(g81
g62
NtRp3330
(dp3331
g65
(dp3332
g85
g86
ssg74
g3326
sg67
(lp3333
S'view'
p3334
asbag60
(g81
g62
NtRp3335
(dp3336
g65
(dp3337
g92
g93
ssg74
g3326
sg67
(lp3338
S':'
asbag60
(g81
g62
NtRp3339
(dp3340
g65
(dp3341
sg74
g3326
sg67
(lp3342
g60
(g61
g62
NtRp3343
(dp3344
g65
(dp3345
g73
I5
ssg74
g3339
sg67
(lp3346
S'default/index.html'
p3347
asbasbasbasbasbsS'locals'
p3348
(dp3349
g4
S"r'C:\\web2py\\applications\\unioeste_code\\models\\db.py'"
p3350
sg6
S'"\\ndb = DAL(\'sqlite://storage.sqlite\')\\n\\nfrom gluon..._by\', db.auth_user, default=auth.user_id)\\n    )\\n\\n"'
p3351
sssS'traceback'
p3352
S'Traceback (most recent call last):\n  File "gluon/restricted.py", line 204, in restricted\n  File "gluon/restricted.py", line 189, in compile2\n  File "C:\\web2py\\applications\\unioeste_code\\models\\db.py", line 28\n    Field(\'created_by\', db.auth_user, default=auth.user_id)\n        ^\nSyntaxError: invalid syntax\n'
p3353
s.