(dp1
S'output'
p2
S"<type 'exceptions.SyntaxError'> invalid syntax (default/index.html, line 86)"
p3
sS'layer'
p4
S'C:\\web2py\\applications\\unioeste_code\\views\\default/index.html'
p5
sS'code'
p6
S'response.write(\'<!DOCTYPE html>\\n<!-- paulirish.com/2008/conditional-stylesheets-vs-css-hacks-answer-neither/ -->\\n<!--[if lt IE 7]><html class="ie ie6 ie-lte9 ie-lte8 ie-lte7 no-js" lang="\', escape=False)\nresponse.write(T.accepted_language or \'en\')\nresponse.write(\'"> <![endif]-->\\n<!--[if IE 7]><html class="ie ie7 ie-lte9 ie-lte8 ie-lte7 no-js" lang="\', escape=False)\nresponse.write(T.accepted_language or \'en\')\nresponse.write(\'"> <![endif]-->\\n<!--[if IE 8]><html class="ie ie8 ie-lte9 ie-lte8 no-js" lang="\', escape=False)\nresponse.write(T.accepted_language or \'en\')\nresponse.write(\'"> <![endif]-->\\n<!--[if IE 9]><html class="ie9 ie-lte9 no-js" lang="\', escape=False)\nresponse.write(T.accepted_language or \'en\')\nresponse.write(\'"> <![endif]-->\\n<!--[if (gt IE 9)|!(IE)]><!--> <html class="no-js" lang="\', escape=False)\nresponse.write(T.accepted_language or \'en\')\nresponse.write(\'"> <!--<![endif]-->\\n<head>\\n  <meta charset="utf-8" />\\n  <!-- www.phpied.com/conditional-comments-block-downloads/ -->\\n  <!-- Always force latest IE rendering engine\\n\\t   (even in intranet) & Chrome Frame\\n\\t   Remove this if you use the .htaccess -->\\n  <!--[if IE]>\\n    <meta http-equiv="X-UA-Compatible" content="IE=edge\', escape=False)\nresponse.write(not request.is_local and \',chrome=1\' or \'\')\nresponse.write(\'">\\n  <![endif]-->\\n  \\n  <title>\', escape=False)\nresponse.write(response.title or request.application)\nresponse.write(\'</title>\\n  \\n  <!-- http://dev.w3.org/html5/markup/meta.name.html -->\\n  <meta name="application-name" content="\', escape=False)\nresponse.write(request.application)\nresponse.write(\'" />\\n  \\n  <!-- Speaking of Google, don\\\'t forget to set your site up:\\n\\t   http://google.com/webmasters -->\\n  <meta name="google-site-verification" content="" />\\n\\n  <!--  Mobile Viewport Fix\\n\\t  j.mp/mobileviewport & davidbcalhoun.com/2010/viewport-metatag\\n\\t  device-width: Occupy full width of the screen in its current orientation\\n\\t  initial-scale = 1.0 retains dimensions instead of zooming out if page height > device height\\n\\t  user-scalable = yes allows the user to zoom in -->\\n  <meta name="viewport" content="width=device-width, initial-scale=1.0, user-scalable=yes">\\n  \\n  <!-- Place favicon.ico and apple-touch-icon.png in the root of your domain and delete these references -->\\n  <link rel="shortcut icon" href="\', escape=False)\nresponse.write(URL(\'static\',\'favicon.ico\'))\nresponse.write(\'" type="image/x-icon">\\n  <link rel="apple-touch-icon" href="\', escape=False)\nresponse.write(URL(\'static\',\'favicon.png\'))\nresponse.write(\'">\\n\\n  <!-- All JavaScript at the bottom, except for Modernizr which enables \\n\\t   HTML5 elements & feature detects -->\\n  <script src="\', escape=False)\nresponse.write(URL(\'static\',\'js/modernizr.custom.js\'))\nresponse.write(\'"></script>  \\n\\n  <!-- include stylesheets -->\\n  \', escape=False)\nresponse.files.append(URL(\'static\',\'css/skeleton.css\'))\nresponse.files.append(URL(\'static\',\'css/web2py.css\'))\nif response.menu:\n    response.files.append(URL(\'static\',\'css/superfish.css\'))\n    response.files.append(URL(\'static\',\'js/superfish.js\'))\n    pass\nresponse.write(\'\\n\\n  \', escape=False)\nresponse.write(\'<script type="text/javascript"><!--\\n    // These variables are used by the web2py_ajax_init function in web2py_ajax.js (which is loaded below).\\n    var w2p_ajax_confirm_message = "\', escape=False)\nresponse.write(T(\'Are you sure you want to delete this object?\'))\nresponse.write(\'";\\n    var w2p_ajax_date_format = "\', escape=False)\nresponse.write(T(\'%Y-%m-%d\'))\nresponse.write(\'";\\n    var w2p_ajax_datetime_format = "\', escape=False)\nresponse.write(T(\'%Y-%m-%d %H:%M:%S\'))\nresponse.write(\'";\\n    //--></script>\\n\', escape=False)\nresponse.files.insert(0,URL(\'static\',\'js/jquery.js\'))\nresponse.files.insert(1,URL(\'static\',\'css/calendar.css\'))\nresponse.files.insert(2,URL(\'static\',\'js/calendar.js\'))\nresponse.files.insert(3,URL(\'static\',\'js/web2py.js\'))\nresponse.include_meta()\nresponse.include_files()\nresponse.write(\'\\n\', escape=False)\nresponse.write(\'\\n\\n  \', escape=False)\nif response.menu:\n    response.write(\'\\n  <script type="text/javascript">\\n    jQuery(function(){ jQuery(\\\'ul.sf-menu\\\').supersubs({minWidth:12,maxWidth:30,extraWidth:3}).superfish(); });\\n  </script>\\n  \', escape=False)\n    pass\nresponse.write(\'\\n\\n  \', escape=False)\n# using sidebars need to know what sidebar you want to use\nleft_sidebar_enabled = globals().get(\'left_sidebar_enabled\',False)\nright_sidebar_enabled = globals().get(\'right_sidebar_enabled\',False)\nmiddle_columns = {0:\'sixteen\',1:\'twelve\',2:\'eight\'}[\n(left_sidebar_enabled and 1 or 0)+(right_sidebar_enabled and 1 or 0)]\nresponse.write(\'\\n\\n  <!-- uncomment here to load jquery-ui\\n  <link rel="stylesheet" href="http://ajax.googleapis.com/ajax/libs/jqueryui/1.8.16/themes/base/jquery-ui.css" type="text/css" media="all" />\\n  <script src="http://ajax.googleapis.com/ajax/libs/jqueryui/1.8.16/jquery-ui.min.js" type="text/javascript"></script>\\n  uncomment to load jquery-ui //-->\\n</head>\\n<body>\\n  <div class="wrapper"><!-- for sticky footer -->\\n  \\n    <div class="topbar">\\n      <div class="container">    \\n        <div class="sixteen columns">\\n          <div id="navbar">\', escape=False)\nresponse.write(\'auth\' in globals() and auth.navbar(separators=(\' \',\' | \',\'\')))\nresponse.write(\'</div>\\n          \', escape=False)\nis_mobile=request.user_agent().is_mobile\nresponse.write(\'\\n\\t  \', escape=False)\nif response.menu:\n    response.write(\'\\n          <div id="menu">\\n             \', escape=False)\n    response.write(MENU(response.menu, _class=\'mobile-menu\' if is_mobile else \'sf-menu\',mobile=is_mobile))\n    response.write(\'\\n          </div>\\n          \', escape=False)\n    pass\nresponse.write(\'\\n        </div>\\n      </div>\\n    </div><!-- topbar -->\\n    \\n    <div class="flash">\', escape=False)\nresponse.write(response.flash or \'\')\nresponse.write(\'</div>\\n    \\n    <div class="header">\\n      <div class="container">         \\n        <div class="sixteen columns">\\n          <img src="\', escape=False)\nresponse.write(URL(\'static\',\'images/logo-code.png\'))\nresponse.write(\'" class="remove-bottom" style="margin-top: .5em;" />\\n          <!-- H5 subtitle-->\\n        </div>\\n        <div class="sixteen columns">\\n          <div style="border: 1px solid #000000; ">\\n            <div style="float:right; padding-top: .25em;" class="a2a_kit a2a_default_style">\\n            <a class="a2a_dd" href="http://www.addtoany.com/share_save">Share</a></div>\\n            <script type="text/javascript" src="http://static.addtoany.com/menu/page.js"></script>\\n          </div>\\n        </div>\\n      </div>\\n    </div>\\n\\n    <div class="main">\\n      <div class="container">                 \\n        \', escape=False)\nif left_sidebar_enabled:\n    response.write(\'\\n        <div class="four columns left-sidebar">\\n          \', escape=False)\n    response.write(\'\\n          <h3>Left Sidebar</h3>\\n          <p></p>\\n          \', escape=False)\n    response.write(\'\\n        </div>\\n        \', escape=False)\n    pass\nresponse.write(\'\\n        \\n        <div class="\', escape=False)\nresponse.write(middle_columns)\nresponse.write(\' columns center">\\n          \', escape=False)\nresponse.write(\'\\n          \', escape=False)\nresponse.write(\'\\n\\n\\n\', escape=False)\nresponse.write(H1(T("Current Problems")))\nresponse.write(\'\\n<ul>\\n\', escape=False)\nfor problem in problems:\n    response.write(\'\\n\', escape=False)\n    user = db(db.auth_user.id==problem.created_by).select().first()\n    response.write(\'\\n\', escape=False)\n    response.write(LI(A(problem.title, _href=URL("Problem", args=problem.id)), " by " + user.first_name + " " + user.last_name + " " + =SPAN(value=prettydate(problem.created_on), _style="color:green")))\n    response.write(\'\\n\', escape=False)\n    pass\nresponse.write(\'\\n\\n</ul>\', escape=False)\nresponse.write(\'\\n          \', escape=False)\nresponse.write(\'\\n        </div>\\n        \\n        \', escape=False)\nif right_sidebar_enabled:\n    response.write(\'\\n        <div class="four columns">\\n          \', escape=False)\n    response.write(\'\\n          <h3>Right Sidebar</h3>\\n          <p></p>\\n          \', escape=False)\n    response.write(\'\\n        </div>    \\n        \', escape=False)\n    pass\nresponse.write(\'\\n        \\n      </div><!-- container -->\\n    </div><!-- main -->\\n    \\n    <div class="push"></div>\\n  </div><!-- wrapper -->\\n\\n  <div class="footer">\\n    <div class="container">    \\n      <div class="sixteen columns">\\n        \', escape=False)\nresponse.write(\' <!-- this is default footer -->\\n        <div class="footer-content clearfix">\\n            <div style="float: left;">\\n            <a href="https://developers.google.com//"> \\n            <img style="padding-left: 8em; padding-bottom:1em; " src="https://developers.google.com/appengine/images/appengine-noborder-120x30.gif" alt="Powered by Google App Engine"/>\\n            </a>\\n          </div>\\n          <div class="footer-content clearfix">\\n            <div style="float: left;   ">\\n            <a href="http://www.python.org/"> \\n            <img style="" src="http://www.python.org/community/logos/python-powered-w-70x28.png" alt="Powered by Python"/>\\n            </a>\\n          </div>\\n          <div style="padding-left: 19.5em; padding-top: 0.25em;">\\n            <a href="http://www.web2py.com/">\\n            <img style="" src="\', escape=False)\nresponse.write(URL(\'static\',\'images/poweredby.png\'))\nresponse.write(\'"/>\\n            </a>\\n          </div>\\n        </div>\\n        \', escape=False)\nresponse.write(\'\\t\\n      </div>\\n    </div><!-- container -->\\n  </div><!-- footer -->\\n  \\n  <!--[if lt IE 7 ]>\\n\\t<script src="\', escape=False)\nresponse.write(URL(\'static\',\'js/dd_belatedpng.js\'))\nresponse.write(\'"></script>\\n\\t<script> DD_belatedPNG.fix(\\\'img, .png_bg\\\'); //fix any <img> or .png_bg background-images </script>\\n\\t<![endif]-->\\n  \', escape=False)\nif response.google_analytics_id:\n    response.write(\'<script type="text/javascript"> var _gaq = _gaq || []; _gaq.push([\\\'_setAccount\\\', \\\'\', escape=False)\n    response.write(response.google_analytics_id)\n    response.write("\']); _gaq.push([\'_trackPageview\']); (function() { var ga = document.createElement(\'script\'); ga.type = \'text/javascript\'; ga.async = true; ga.src = (\'https:\' == document.location.protocol ? \'https://ssl\' : \'http://www\') + \'.google-analytics.com/ga.js\'; var s = document.getElementsByTagName(\'script\')[0]; s.parentNode.insertBefore(ga, s); })(); </script> ", escape=False)\n    pass\nresponse.write(\'\\n</body>\\n</html>\\n\', escape=False)'
p7
sS'snapshot'
p8
(dp9
S'exception'
p10
(dp11
S'__getslice__'
p12
S"<method-wrapper '__getslice__' of exceptions.SyntaxError object at 0x06D4C6F0>"
p13
sS'text'
p14
S'\'    response.write(LI(A(problem.title, _href=URL...ate(problem.created_on), _style="color:green")))\\n\''
p15
sS'__str__'
p16
S"<method-wrapper '__str__' of exceptions.SyntaxError object at 0x06D4C6F0>"
p17
sS'__reduce__'
p18
S'<built-in method __reduce__ of exceptions.SyntaxError object at 0x06D4C6F0>'
p19
sS'__dict__'
p20
S'{}'
p21
sS'__init__'
p22
S"<method-wrapper '__init__' of exceptions.SyntaxError object at 0x06D4C6F0>"
p23
sS'__setattr__'
p24
S"<method-wrapper '__setattr__' of exceptions.SyntaxError object at 0x06D4C6F0>"
p25
sS'__reduce_ex__'
p26
S'<built-in method __reduce_ex__ of exceptions.SyntaxError object at 0x06D4C6F0>'
p27
sS'__new__'
p28
S'<built-in method __new__ of type object at 0x1E1CDBD0>'
p29
sS'__class__'
p30
S"<type 'exceptions.SyntaxError'>"
p31
sS'filename'
p32
S"r'C:\\web2py\\applications\\unioeste_code\\views\\default/index.html'"
p33
sS'lineno'
p34
S'86'
p35
sS'msg'
p36
S"'invalid syntax'"
p37
sS'__doc__'
p38
S"'Invalid syntax.'"
p39
sS'__getitem__'
p40
S"<method-wrapper '__getitem__' of exceptions.SyntaxError object at 0x06D4C6F0>"
p41
sS'__setstate__'
p42
S'<built-in method __setstate__ of exceptions.SyntaxError object at 0x06D4C6F0>'
p43
sS'__getattribute__'
p44
S"<method-wrapper '__getattribute__' of exceptions.SyntaxError object at 0x06D4C6F0>"
p45
sS'print_file_and_line'
p46
S'None'
p47
sS'args'
p48
S'(\'invalid syntax\', (r\'C:\\web2py\\applications\\unioeste_code\\views\\default/index.html\', 86, 136, \'    response.write(LI(A(problem.title, _href=URL...ate(problem.created_on), _style="color:green")))\\n\'))'
p49
sS'offset'
p50
S'136'
p51
sS'__delattr__'
p52
S"<method-wrapper '__delattr__' of exceptions.SyntaxError object at 0x06D4C6F0>"
p53
sS'__repr__'
p54
S"<method-wrapper '__repr__' of exceptions.SyntaxError object at 0x06D4C6F0>"
p55
sS'__hash__'
p56
S"<method-wrapper '__hash__' of exceptions.SyntaxError object at 0x06D4C6F0>"
p57
ssS'evalue'
p58
S'invalid syntax (default/index.html, line 86)'
p59
sS'request'
p60
ccopy_reg
_reconstructor
p61
(cgluon.html
BEAUTIFY
p62
c__builtin__
object
p63
NtRp64
(dp65
S'attributes'
p66
(dp67
sS'components'
p68
(lp69
g61
(cgluon.html
TABLE
p70
g63
NtRp71
(dp72
g66
(dp73
S'level'
p74
I5
ssS'parent'
p75
Nsg68
(lp76
g61
(cgluon.html
TR
p77
g63
NtRp78
(dp79
g66
(dp80
sg75
g71
sg68
(lp81
g61
(cgluon.html
TD
p82
g63
NtRp83
(dp84
g66
(dp85
S'_style'
p86
S'font-weight:bold;vertical-align:top'
p87
ssg75
g78
sg68
(lp88
S'ajax'
p89
asbag61
(g82
g63
NtRp90
(dp91
g66
(dp92
S'_valign'
p93
S'top'
p94
ssg75
g78
sg68
(lp95
S':'
asbag61
(g82
g63
NtRp96
(dp97
g66
(dp98
sg75
g78
sg68
(lp99
g61
(g62
g63
NtRp100
(dp101
g66
(dp102
g74
I5
ssg75
g96
sg68
(lp103
S'False'
p104
asbasbasbag61
(g77
g63
NtRp105
(dp106
g66
(dp107
sg75
g71
sg68
(lp108
g61
(g82
g63
NtRp109
(dp110
g66
(dp111
g86
g87
ssg75
g105
sg68
(lp112
S'application'
p113
asbag61
(g82
g63
NtRp114
(dp115
g66
(dp116
g93
g94
ssg75
g105
sg68
(lp117
S':'
asbag61
(g82
g63
NtRp118
(dp119
g66
(dp120
sg75
g105
sg68
(lp121
g61
(g62
g63
NtRp122
(dp123
g66
(dp124
g74
I5
ssg75
g118
sg68
(lp125
S'unioeste_code'
p126
asbasbasbag61
(g77
g63
NtRp127
(dp128
g66
(dp129
sg75
g71
sg68
(lp130
g61
(g82
g63
NtRp131
(dp132
g66
(dp133
g86
g87
ssg75
g127
sg68
(lp134
g48
asbag61
(g82
g63
NtRp135
(dp136
g66
(dp137
g93
g94
ssg75
g127
sg68
(lp138
S':'
asbag61
(g82
g63
NtRp139
(dp140
g66
(dp141
sg75
g127
sg68
(lp142
g61
(g62
g63
NtRp143
(dp144
g66
(dp145
g74
I5
ssg75
g139
sg68
(lp146
g61
(g70
g63
NtRp147
(dp148
g66
(dp149
g74
I4
ssg75
Nsg68
(lp150
sbasbasbasbag61
(g77
g63
NtRp151
(dp152
g66
(dp153
sg75
g71
sg68
(lp154
g61
(g82
g63
NtRp155
(dp156
g66
(dp157
g86
g87
ssg75
g151
sg68
(lp158
S'body'
p159
asbag61
(g82
g63
NtRp160
(dp161
g66
(dp162
g93
g94
ssg75
g151
sg68
(lp163
S':'
asbag61
(g82
g63
NtRp164
(dp165
g66
(dp166
sg75
g151
sg68
(lp167
g61
(g62
g63
NtRp168
(dp169
g66
(dp170
g74
I5
ssg75
g164
sg68
(lp171
S'<cStringIO.StringO object at 0x06CFC2A0>'
p172
asbasbasbag61
(g77
g63
NtRp173
(dp174
g66
(dp175
sg75
g71
sg68
(lp176
g61
(g82
g63
NtRp177
(dp178
g66
(dp179
g86
g87
ssg75
g173
sg68
(lp180
S'client'
p181
asbag61
(g82
g63
NtRp182
(dp183
g66
(dp184
g93
g94
ssg75
g173
sg68
(lp185
S':'
asbag61
(g82
g63
NtRp186
(dp187
g66
(dp188
sg75
g173
sg68
(lp189
g61
(g62
g63
NtRp190
(dp191
g66
(dp192
g74
I5
ssg75
g186
sg68
(lp193
S'127.0.0.1'
p194
asbasbasbag61
(g77
g63
NtRp195
(dp196
g66
(dp197
sg75
g71
sg68
(lp198
g61
(g82
g63
NtRp199
(dp200
g66
(dp201
g86
g87
ssg75
g195
sg68
(lp202
S'controller'
p203
asbag61
(g82
g63
NtRp204
(dp205
g66
(dp206
g93
g94
ssg75
g195
sg68
(lp207
S':'
asbag61
(g82
g63
NtRp208
(dp209
g66
(dp210
sg75
g195
sg68
(lp211
g61
(g62
g63
NtRp212
(dp213
g66
(dp214
g74
I5
ssg75
g208
sg68
(lp215
S'default'
p216
asbasbasbag61
(g77
g63
NtRp217
(dp218
g66
(dp219
sg75
g71
sg68
(lp220
g61
(g82
g63
NtRp221
(dp222
g66
(dp223
g86
g87
ssg75
g217
sg68
(lp224
S'cookies'
p225
asbag61
(g82
g63
NtRp226
(dp227
g66
(dp228
g93
g94
ssg75
g217
sg68
(lp229
S':'
asbag61
(g82
g63
NtRp230
(dp231
g66
(dp232
sg75
g217
sg68
(lp233
g61
(g62
g63
NtRp234
(dp235
g66
(dp236
g74
I5
ssg75
g230
sg68
(lp237
g61
(g70
g63
NtRp238
(dp239
g66
(dp240
g74
I4
ssg75
Nsg68
(lp241
g61
(g77
g63
NtRp242
(dp243
g66
(dp244
sg75
g238
sg68
(lp245
g61
(g82
g63
NtRp246
(dp247
g66
(dp248
g86
g87
ssg75
g242
sg68
(lp249
S'session_id_admin'
p250
asbag61
(g82
g63
NtRp251
(dp252
g66
(dp253
g93
g94
ssg75
g242
sg68
(lp254
S':'
asbag61
(g82
g63
NtRp255
(dp256
g66
(dp257
sg75
g242
sg68
(lp258
g61
(g62
g63
NtRp259
(dp260
g66
(dp261
g74
I4
ssg75
g255
sg68
(lp262
g61
(g70
g63
NtRp263
(dp264
g66
(dp265
g74
I3
ssg75
Nsg68
(lp266
g61
(g77
g63
NtRp267
(dp268
g66
(dp269
sg75
g263
sg68
(lp270
g61
(g82
g63
NtRp271
(dp272
g66
(dp273
g86
g87
ssg75
g267
sg68
(lp274
S'comment'
p275
asbag61
(g82
g63
NtRp276
(dp277
g66
(dp278
g93
g94
ssg75
g267
sg68
(lp279
S':'
asbag61
(g82
g63
NtRp280
(dp281
g66
(dp282
sg75
g267
sg68
(lp283
g61
(g62
g63
NtRp284
(dp285
g66
(dp286
g74
I3
ssg75
g280
sg68
(lp287
S''
asbasbasbag61
(g77
g63
NtRp288
(dp289
g66
(dp290
sg75
g263
sg68
(lp291
g61
(g82
g63
NtRp292
(dp293
g66
(dp294
g86
g87
ssg75
g288
sg68
(lp295
S'domain'
p296
asbag61
(g82
g63
NtRp297
(dp298
g66
(dp299
g93
g94
ssg75
g288
sg68
(lp300
S':'
asbag61
(g82
g63
NtRp301
(dp302
g66
(dp303
sg75
g288
sg68
(lp304
g61
(g62
g63
NtRp305
(dp306
g66
(dp307
g74
I3
ssg75
g301
sg68
(lp308
S''
asbasbasbag61
(g77
g63
NtRp309
(dp310
g66
(dp311
sg75
g263
sg68
(lp312
g61
(g82
g63
NtRp313
(dp314
g66
(dp315
g86
g87
ssg75
g309
sg68
(lp316
S'expires'
p317
asbag61
(g82
g63
NtRp318
(dp319
g66
(dp320
g93
g94
ssg75
g309
sg68
(lp321
S':'
asbag61
(g82
g63
NtRp322
(dp323
g66
(dp324
sg75
g309
sg68
(lp325
g61
(g62
g63
NtRp326
(dp327
g66
(dp328
g74
I3
ssg75
g322
sg68
(lp329
S''
asbasbasbag61
(g77
g63
NtRp330
(dp331
g66
(dp332
sg75
g263
sg68
(lp333
g61
(g82
g63
NtRp334
(dp335
g66
(dp336
g86
g87
ssg75
g330
sg68
(lp337
S'max-age'
p338
asbag61
(g82
g63
NtRp339
(dp340
g66
(dp341
g93
g94
ssg75
g330
sg68
(lp342
S':'
asbag61
(g82
g63
NtRp343
(dp344
g66
(dp345
sg75
g330
sg68
(lp346
g61
(g62
g63
NtRp347
(dp348
g66
(dp349
g74
I3
ssg75
g343
sg68
(lp350
S''
asbasbasbag61
(g77
g63
NtRp351
(dp352
g66
(dp353
sg75
g263
sg68
(lp354
g61
(g82
g63
NtRp355
(dp356
g66
(dp357
g86
g87
ssg75
g351
sg68
(lp358
S'path'
p359
asbag61
(g82
g63
NtRp360
(dp361
g66
(dp362
g93
g94
ssg75
g351
sg68
(lp363
S':'
asbag61
(g82
g63
NtRp364
(dp365
g66
(dp366
sg75
g351
sg68
(lp367
g61
(g62
g63
NtRp368
(dp369
g66
(dp370
g74
I3
ssg75
g364
sg68
(lp371
S''
asbasbasbag61
(g77
g63
NtRp372
(dp373
g66
(dp374
sg75
g263
sg68
(lp375
g61
(g82
g63
NtRp376
(dp377
g66
(dp378
g86
g87
ssg75
g372
sg68
(lp379
S'secure'
p380
asbag61
(g82
g63
NtRp381
(dp382
g66
(dp383
g93
g94
ssg75
g372
sg68
(lp384
S':'
asbag61
(g82
g63
NtRp385
(dp386
g66
(dp387
sg75
g372
sg68
(lp388
g61
(g62
g63
NtRp389
(dp390
g66
(dp391
g74
I3
ssg75
g385
sg68
(lp392
S''
asbasbasbag61
(g77
g63
NtRp393
(dp394
g66
(dp395
sg75
g263
sg68
(lp396
g61
(g82
g63
NtRp397
(dp398
g66
(dp399
g86
g87
ssg75
g393
sg68
(lp400
S'version'
p401
asbag61
(g82
g63
NtRp402
(dp403
g66
(dp404
g93
g94
ssg75
g393
sg68
(lp405
S':'
asbag61
(g82
g63
NtRp406
(dp407
g66
(dp408
sg75
g393
sg68
(lp409
g61
(g62
g63
NtRp410
(dp411
g66
(dp412
g74
I3
ssg75
g406
sg68
(lp413
S''
asbasbasbasbasbasbasbag61
(g77
g63
NtRp414
(dp415
g66
(dp416
sg75
g238
sg68
(lp417
g61
(g82
g63
NtRp418
(dp419
g66
(dp420
g86
g87
ssg75
g414
sg68
(lp421
S'session_id_unioeste_code'
p422
asbag61
(g82
g63
NtRp423
(dp424
g66
(dp425
g93
g94
ssg75
g414
sg68
(lp426
S':'
asbag61
(g82
g63
NtRp427
(dp428
g66
(dp429
sg75
g414
sg68
(lp430
g61
(g62
g63
NtRp431
(dp432
g66
(dp433
g74
I4
ssg75
g427
sg68
(lp434
g61
(g70
g63
NtRp435
(dp436
g66
(dp437
g74
I3
ssg75
Nsg68
(lp438
g61
(g77
g63
NtRp439
(dp440
g66
(dp441
sg75
g435
sg68
(lp442
g61
(g82
g63
NtRp443
(dp444
g66
(dp445
g86
g87
ssg75
g439
sg68
(lp446
g275
asbag61
(g82
g63
NtRp447
(dp448
g66
(dp449
g93
g94
ssg75
g439
sg68
(lp450
S':'
asbag61
(g82
g63
NtRp451
(dp452
g66
(dp453
sg75
g439
sg68
(lp454
g61
(g62
g63
NtRp455
(dp456
g66
(dp457
g74
I3
ssg75
g451
sg68
(lp458
S''
asbasbasbag61
(g77
g63
NtRp459
(dp460
g66
(dp461
sg75
g435
sg68
(lp462
g61
(g82
g63
NtRp463
(dp464
g66
(dp465
g86
g87
ssg75
g459
sg68
(lp466
g296
asbag61
(g82
g63
NtRp467
(dp468
g66
(dp469
g93
g94
ssg75
g459
sg68
(lp470
S':'
asbag61
(g82
g63
NtRp471
(dp472
g66
(dp473
sg75
g459
sg68
(lp474
g61
(g62
g63
NtRp475
(dp476
g66
(dp477
g74
I3
ssg75
g471
sg68
(lp478
S''
asbasbasbag61
(g77
g63
NtRp479
(dp480
g66
(dp481
sg75
g435
sg68
(lp482
g61
(g82
g63
NtRp483
(dp484
g66
(dp485
g86
g87
ssg75
g479
sg68
(lp486
g317
asbag61
(g82
g63
NtRp487
(dp488
g66
(dp489
g93
g94
ssg75
g479
sg68
(lp490
S':'
asbag61
(g82
g63
NtRp491
(dp492
g66
(dp493
sg75
g479
sg68
(lp494
g61
(g62
g63
NtRp495
(dp496
g66
(dp497
g74
I3
ssg75
g491
sg68
(lp498
S''
asbasbasbag61
(g77
g63
NtRp499
(dp500
g66
(dp501
sg75
g435
sg68
(lp502
g61
(g82
g63
NtRp503
(dp504
g66
(dp505
g86
g87
ssg75
g499
sg68
(lp506
g338
asbag61
(g82
g63
NtRp507
(dp508
g66
(dp509
g93
g94
ssg75
g499
sg68
(lp510
S':'
asbag61
(g82
g63
NtRp511
(dp512
g66
(dp513
sg75
g499
sg68
(lp514
g61
(g62
g63
NtRp515
(dp516
g66
(dp517
g74
I3
ssg75
g511
sg68
(lp518
S''
asbasbasbag61
(g77
g63
NtRp519
(dp520
g66
(dp521
sg75
g435
sg68
(lp522
g61
(g82
g63
NtRp523
(dp524
g66
(dp525
g86
g87
ssg75
g519
sg68
(lp526
g359
asbag61
(g82
g63
NtRp527
(dp528
g66
(dp529
g93
g94
ssg75
g519
sg68
(lp530
S':'
asbag61
(g82
g63
NtRp531
(dp532
g66
(dp533
sg75
g519
sg68
(lp534
g61
(g62
g63
NtRp535
(dp536
g66
(dp537
g74
I3
ssg75
g531
sg68
(lp538
S''
asbasbasbag61
(g77
g63
NtRp539
(dp540
g66
(dp541
sg75
g435
sg68
(lp542
g61
(g82
g63
NtRp543
(dp544
g66
(dp545
g86
g87
ssg75
g539
sg68
(lp546
g380
asbag61
(g82
g63
NtRp547
(dp548
g66
(dp549
g93
g94
ssg75
g539
sg68
(lp550
S':'
asbag61
(g82
g63
NtRp551
(dp552
g66
(dp553
sg75
g539
sg68
(lp554
g61
(g62
g63
NtRp555
(dp556
g66
(dp557
g74
I3
ssg75
g551
sg68
(lp558
S''
asbasbasbag61
(g77
g63
NtRp559
(dp560
g66
(dp561
sg75
g435
sg68
(lp562
g61
(g82
g63
NtRp563
(dp564
g66
(dp565
g86
g87
ssg75
g559
sg68
(lp566
g401
asbag61
(g82
g63
NtRp567
(dp568
g66
(dp569
g93
g94
ssg75
g559
sg68
(lp570
S':'
asbag61
(g82
g63
NtRp571
(dp572
g66
(dp573
sg75
g559
sg68
(lp574
g61
(g62
g63
NtRp575
(dp576
g66
(dp577
g74
I3
ssg75
g571
sg68
(lp578
S''
asbasbasbasbasbasbasbasbasbasbasbag61
(g77
g63
NtRp579
(dp580
g66
(dp581
sg75
g71
sg68
(lp582
g61
(g82
g63
NtRp583
(dp584
g66
(dp585
g86
g87
ssg75
g579
sg68
(lp586
S'env'
p587
asbag61
(g82
g63
NtRp588
(dp589
g66
(dp590
g93
g94
ssg75
g579
sg68
(lp591
S':'
asbag61
(g82
g63
NtRp592
(dp593
g66
(dp594
sg75
g579
sg68
(lp595
g61
(g62
g63
NtRp596
(dp597
g66
(dp598
g74
I5
ssg75
g592
sg68
(lp599
g61
(g70
g63
NtRp600
(dp601
g66
(dp602
g74
I4
ssg75
Nsg68
(lp603
g61
(g77
g63
NtRp604
(dp605
g66
(dp606
sg75
g600
sg68
(lp607
g61
(g82
g63
NtRp608
(dp609
g66
(dp610
g86
g87
ssg75
g604
sg68
(lp611
S'app_folders'
p612
asbag61
(g82
g63
NtRp613
(dp614
g66
(dp615
g93
g94
ssg75
g604
sg68
(lp616
S':'
asbag61
(g82
g63
NtRp617
(dp618
g66
(dp619
sg75
g604
sg68
(lp620
g61
(g62
g63
NtRp621
(dp622
g66
(dp623
g74
I4
ssg75
g617
sg68
(lp624
S"set(['C:\\\\web2py\\\\applications\\\\admin\\\\', 'C:\\\\web2py\\\\applications\\\\welcome\\\\', 'C:\\\\web2py\\\\applications\\\\unioeste_code\\\\'])"
p625
asbasbasbag61
(g77
g63
NtRp626
(dp627
g66
(dp628
sg75
g600
sg68
(lp629
g61
(g82
g63
NtRp630
(dp631
g66
(dp632
g86
g87
ssg75
g626
sg68
(lp633
S'applications_parent'
p634
asbag61
(g82
g63
NtRp635
(dp636
g66
(dp637
g93
g94
ssg75
g626
sg68
(lp638
S':'
asbag61
(g82
g63
NtRp639
(dp640
g66
(dp641
sg75
g626
sg68
(lp642
g61
(g62
g63
NtRp643
(dp644
g66
(dp645
g74
I4
ssg75
g639
sg68
(lp646
S'C:\\web2py'
p647
asbasbasbag61
(g77
g63
NtRp648
(dp649
g66
(dp650
sg75
g600
sg68
(lp651
g61
(g82
g63
NtRp652
(dp653
g66
(dp654
g86
g87
ssg75
g648
sg68
(lp655
S'cmd_args'
p656
asbag61
(g82
g63
NtRp657
(dp658
g66
(dp659
g93
g94
ssg75
g648
sg68
(lp660
S':'
asbag61
(g82
g63
NtRp661
(dp662
g66
(dp663
sg75
g648
sg68
(lp664
g61
(g62
g63
NtRp665
(dp666
g66
(dp667
g74
I4
ssg75
g661
sg68
(lp668
g61
(g70
g63
NtRp669
(dp670
g66
(dp671
g74
I3
ssg75
Nsg68
(lp672
sbasbasbasbag61
(g77
g63
NtRp673
(dp674
g66
(dp675
sg75
g600
sg68
(lp676
g61
(g82
g63
NtRp677
(dp678
g66
(dp679
g86
g87
ssg75
g673
sg68
(lp680
S'cmd_options'
p681
asbag61
(g82
g63
NtRp682
(dp683
g66
(dp684
g93
g94
ssg75
g673
sg68
(lp685
S':'
asbag61
(g82
g63
NtRp686
(dp687
g66
(dp688
sg75
g673
sg68
(lp689
g61
(g62
g63
NtRp690
(dp691
g66
(dp692
g74
I4
ssg75
g686
sg68
(lp693
S"<Values at 0x30fc300: {'verbose': False, 'ip': '127.0.0.1', 'shutdown_timeout': 5, 'taskbar': False, 'nocron': False, 'pid_filename': 'httpserver.pid', 'maxthreads': None, 'softcron': False, 'server_name': 'Pedro-PC', 'bpython': False, 'nogui': False, 'port': 8000, 'extcron': False, 'debuglevel': 30, 'test': None, 'folder': 'C:\\\\web2py', 'config': '', 'import_models': False, 'winservice': '', 'shell': None, 'run': '', 'log_filename': 'httpserver.log', 'args': [''], 'socket_timeout': 5, 'ssl_ca_certificate': None, 'scheduler': None, 'profiler_filename': None, 'ssl_private_key': '', 'password': '<ask>', 'request_queue_size': 5, 'ssl_certificate': '', 'cronjob': False, 'numthreads': None, 'quiet': False, 'interfaces': None, 'minthreads': None, 'timeout': 10, 'plain': False, 'nobanner': False}>"
p694
asbasbasbag61
(g77
g63
NtRp695
(dp696
g66
(dp697
sg75
g600
sg68
(lp698
g61
(g82
g63
NtRp699
(dp700
g66
(dp701
g86
g87
ssg75
g695
sg68
(lp702
S'db_sessions'
p703
asbag61
(g82
g63
NtRp704
(dp705
g66
(dp706
g93
g94
ssg75
g695
sg68
(lp707
S':'
asbag61
(g82
g63
NtRp708
(dp709
g66
(dp710
sg75
g695
sg68
(lp711
g61
(g62
g63
NtRp712
(dp713
g66
(dp714
g74
I4
ssg75
g708
sg68
(lp715
S'set([])'
p716
asbasbasbag61
(g77
g63
NtRp717
(dp718
g66
(dp719
sg75
g600
sg68
(lp720
g61
(g82
g63
NtRp721
(dp722
g66
(dp723
g86
g87
ssg75
g717
sg68
(lp724
S'debugging'
p725
asbag61
(g82
g63
NtRp726
(dp727
g66
(dp728
g93
g94
ssg75
g717
sg68
(lp729
S':'
asbag61
(g82
g63
NtRp730
(dp731
g66
(dp732
sg75
g717
sg68
(lp733
g61
(g62
g63
NtRp734
(dp735
g66
(dp736
g74
I4
ssg75
g730
sg68
(lp737
g104
asbasbasbag61
(g77
g63
NtRp738
(dp739
g66
(dp740
sg75
g600
sg68
(lp741
g61
(g82
g63
NtRp742
(dp743
g66
(dp744
g86
g87
ssg75
g738
sg68
(lp745
S'gluon_parent'
p746
asbag61
(g82
g63
NtRp747
(dp748
g66
(dp749
g93
g94
ssg75
g738
sg68
(lp750
S':'
asbag61
(g82
g63
NtRp751
(dp752
g66
(dp753
sg75
g738
sg68
(lp754
g61
(g62
g63
NtRp755
(dp756
g66
(dp757
g74
I4
ssg75
g751
sg68
(lp758
S'C:\\web2py'
p759
asbasbasbag61
(g77
g63
NtRp760
(dp761
g66
(dp762
sg75
g600
sg68
(lp763
g61
(g82
g63
NtRp764
(dp765
g66
(dp766
g86
g87
ssg75
g760
sg68
(lp767
S'http_accept'
p768
asbag61
(g82
g63
NtRp769
(dp770
g66
(dp771
g93
g94
ssg75
g760
sg68
(lp772
S':'
asbag61
(g82
g63
NtRp773
(dp774
g66
(dp775
sg75
g760
sg68
(lp776
g61
(g62
g63
NtRp777
(dp778
g66
(dp779
g74
I4
ssg75
g773
sg68
(lp780
S'text/html,application/xhtml+xml,application/xml;q=0.9,*/*;q=0.8'
p781
asbasbasbag61
(g77
g63
NtRp782
(dp783
g66
(dp784
sg75
g600
sg68
(lp785
g61
(g82
g63
NtRp786
(dp787
g66
(dp788
g86
g87
ssg75
g782
sg68
(lp789
S'http_accept_charset'
p790
asbag61
(g82
g63
NtRp791
(dp792
g66
(dp793
g93
g94
ssg75
g782
sg68
(lp794
S':'
asbag61
(g82
g63
NtRp795
(dp796
g66
(dp797
sg75
g782
sg68
(lp798
g61
(g62
g63
NtRp799
(dp800
g66
(dp801
g74
I4
ssg75
g795
sg68
(lp802
S'ISO-8859-1,utf-8;q=0.7,*;q=0.3'
p803
asbasbasbag61
(g77
g63
NtRp804
(dp805
g66
(dp806
sg75
g600
sg68
(lp807
g61
(g82
g63
NtRp808
(dp809
g66
(dp810
g86
g87
ssg75
g804
sg68
(lp811
S'http_accept_encoding'
p812
asbag61
(g82
g63
NtRp813
(dp814
g66
(dp815
g93
g94
ssg75
g804
sg68
(lp816
S':'
asbag61
(g82
g63
NtRp817
(dp818
g66
(dp819
sg75
g804
sg68
(lp820
g61
(g62
g63
NtRp821
(dp822
g66
(dp823
g74
I4
ssg75
g817
sg68
(lp824
S'gzip,deflate,sdch'
p825
asbasbasbag61
(g77
g63
NtRp826
(dp827
g66
(dp828
sg75
g600
sg68
(lp829
g61
(g82
g63
NtRp830
(dp831
g66
(dp832
g86
g87
ssg75
g826
sg68
(lp833
S'http_accept_language'
p834
asbag61
(g82
g63
NtRp835
(dp836
g66
(dp837
g93
g94
ssg75
g826
sg68
(lp838
S':'
asbag61
(g82
g63
NtRp839
(dp840
g66
(dp841
sg75
g826
sg68
(lp842
g61
(g62
g63
NtRp843
(dp844
g66
(dp845
g74
I4
ssg75
g839
sg68
(lp846
S'pt-BR,pt;q=0.8,en-US;q=0.6,en;q=0.4'
p847
asbasbasbag61
(g77
g63
NtRp848
(dp849
g66
(dp850
sg75
g600
sg68
(lp851
g61
(g82
g63
NtRp852
(dp853
g66
(dp854
g86
g87
ssg75
g848
sg68
(lp855
S'http_cache_control'
p856
asbag61
(g82
g63
NtRp857
(dp858
g66
(dp859
g93
g94
ssg75
g848
sg68
(lp860
S':'
asbag61
(g82
g63
NtRp861
(dp862
g66
(dp863
sg75
g848
sg68
(lp864
g61
(g62
g63
NtRp865
(dp866
g66
(dp867
g74
I4
ssg75
g861
sg68
(lp868
S'max-age=0'
p869
asbasbasbag61
(g77
g63
NtRp870
(dp871
g66
(dp872
sg75
g600
sg68
(lp873
g61
(g82
g63
NtRp874
(dp875
g66
(dp876
g86
g87
ssg75
g870
sg68
(lp877
S'http_connection'
p878
asbag61
(g82
g63
NtRp879
(dp880
g66
(dp881
g93
g94
ssg75
g870
sg68
(lp882
S':'
asbag61
(g82
g63
NtRp883
(dp884
g66
(dp885
sg75
g870
sg68
(lp886
g61
(g62
g63
NtRp887
(dp888
g66
(dp889
g74
I4
ssg75
g883
sg68
(lp890
S'keep-alive'
p891
asbasbasbag61
(g77
g63
NtRp892
(dp893
g66
(dp894
sg75
g600
sg68
(lp895
g61
(g82
g63
NtRp896
(dp897
g66
(dp898
g86
g87
ssg75
g892
sg68
(lp899
S'http_cookie'
p900
asbag61
(g82
g63
NtRp901
(dp902
g66
(dp903
g93
g94
ssg75
g892
sg68
(lp904
S':'
asbag61
(g82
g63
NtRp905
(dp906
g66
(dp907
sg75
g892
sg68
(lp908
g61
(g62
g63
NtRp909
(dp910
g66
(dp911
g74
I4
ssg75
g905
sg68
(lp912
S'session_id_unioeste_code=127.0.0.1-e2123eb0-50ff-4f28-8e81-a6ab4f6057bb; session_id_admin=127.0.0.1-cc566d59-dba8-48ee-8cf4-2064528a917b'
p913
asbasbasbag61
(g77
g63
NtRp914
(dp915
g66
(dp916
sg75
g600
sg68
(lp917
g61
(g82
g63
NtRp918
(dp919
g66
(dp920
g86
g87
ssg75
g914
sg68
(lp921
S'http_dnt'
p922
asbag61
(g82
g63
NtRp923
(dp924
g66
(dp925
g93
g94
ssg75
g914
sg68
(lp926
S':'
asbag61
(g82
g63
NtRp927
(dp928
g66
(dp929
sg75
g914
sg68
(lp930
g61
(g62
g63
NtRp931
(dp932
g66
(dp933
g74
I4
ssg75
g927
sg68
(lp934
S'1'
asbasbasbag61
(g77
g63
NtRp935
(dp936
g66
(dp937
sg75
g600
sg68
(lp938
g61
(g82
g63
NtRp939
(dp940
g66
(dp941
g86
g87
ssg75
g935
sg68
(lp942
S'http_host'
p943
asbag61
(g82
g63
NtRp944
(dp945
g66
(dp946
g93
g94
ssg75
g935
sg68
(lp947
S':'
asbag61
(g82
g63
NtRp948
(dp949
g66
(dp950
sg75
g935
sg68
(lp951
g61
(g62
g63
NtRp952
(dp953
g66
(dp954
g74
I4
ssg75
g948
sg68
(lp955
S'localhost:8000'
p956
asbasbasbag61
(g77
g63
NtRp957
(dp958
g66
(dp959
sg75
g600
sg68
(lp960
g61
(g82
g63
NtRp961
(dp962
g66
(dp963
g86
g87
ssg75
g957
sg68
(lp964
S'http_user_agent'
p965
asbag61
(g82
g63
NtRp966
(dp967
g66
(dp968
g93
g94
ssg75
g957
sg68
(lp969
S':'
asbag61
(g82
g63
NtRp970
(dp971
g66
(dp972
sg75
g957
sg68
(lp973
g61
(g62
g63
NtRp974
(dp975
g66
(dp976
g74
I4
ssg75
g970
sg68
(lp977
S'Mozilla/5.0 (Windows NT 6.1; WOW64) AppleWebKit/536.11 (KHTML, like Gecko) Chrome/20.0.1132.57 Safari/536.11'
p978
asbasbasbag61
(g77
g63
NtRp979
(dp980
g66
(dp981
sg75
g600
sg68
(lp982
g61
(g82
g63
NtRp983
(dp984
g66
(dp985
g86
g87
ssg75
g979
sg68
(lp986
S'is_jython'
p987
asbag61
(g82
g63
NtRp988
(dp989
g66
(dp990
g93
g94
ssg75
g979
sg68
(lp991
S':'
asbag61
(g82
g63
NtRp992
(dp993
g66
(dp994
sg75
g979
sg68
(lp995
g61
(g62
g63
NtRp996
(dp997
g66
(dp998
g74
I4
ssg75
g992
sg68
(lp999
g104
asbasbasbag61
(g77
g63
NtRp1000
(dp1001
g66
(dp1002
sg75
g600
sg68
(lp1003
g61
(g82
g63
NtRp1004
(dp1005
g66
(dp1006
g86
g87
ssg75
g1000
sg68
(lp1007
S'is_pypy'
p1008
asbag61
(g82
g63
NtRp1009
(dp1010
g66
(dp1011
g93
g94
ssg75
g1000
sg68
(lp1012
S':'
asbag61
(g82
g63
NtRp1013
(dp1014
g66
(dp1015
sg75
g1000
sg68
(lp1016
g61
(g62
g63
NtRp1017
(dp1018
g66
(dp1019
g74
I4
ssg75
g1013
sg68
(lp1020
g104
asbasbasbag61
(g77
g63
NtRp1021
(dp1022
g66
(dp1023
sg75
g600
sg68
(lp1024
g61
(g82
g63
NtRp1025
(dp1026
g66
(dp1027
g86
g87
ssg75
g1021
sg68
(lp1028
S'path_info'
p1029
asbag61
(g82
g63
NtRp1030
(dp1031
g66
(dp1032
g93
g94
ssg75
g1021
sg68
(lp1033
S':'
asbag61
(g82
g63
NtRp1034
(dp1035
g66
(dp1036
sg75
g1021
sg68
(lp1037
g61
(g62
g63
NtRp1038
(dp1039
g66
(dp1040
g74
I4
ssg75
g1034
sg68
(lp1041
S'/unioeste_code/'
p1042
asbasbasbag61
(g77
g63
NtRp1043
(dp1044
g66
(dp1045
sg75
g600
sg68
(lp1046
g61
(g82
g63
NtRp1047
(dp1048
g66
(dp1049
g86
g87
ssg75
g1043
sg68
(lp1050
S'query_string'
p1051
asbag61
(g82
g63
NtRp1052
(dp1053
g66
(dp1054
g93
g94
ssg75
g1043
sg68
(lp1055
S':'
asbag61
(g82
g63
NtRp1056
(dp1057
g66
(dp1058
sg75
g1043
sg68
(lp1059
g61
(g62
g63
NtRp1060
(dp1061
g66
(dp1062
g74
I4
ssg75
g1056
sg68
(lp1063
S''
asbasbasbag61
(g77
g63
NtRp1064
(dp1065
g66
(dp1066
sg75
g600
sg68
(lp1067
g61
(g82
g63
NtRp1068
(dp1069
g66
(dp1070
g86
g87
ssg75
g1064
sg68
(lp1071
S'remote_addr'
p1072
asbag61
(g82
g63
NtRp1073
(dp1074
g66
(dp1075
g93
g94
ssg75
g1064
sg68
(lp1076
S':'
asbag61
(g82
g63
NtRp1077
(dp1078
g66
(dp1079
sg75
g1064
sg68
(lp1080
g61
(g62
g63
NtRp1081
(dp1082
g66
(dp1083
g74
I4
ssg75
g1077
sg68
(lp1084
g194
asbasbasbag61
(g77
g63
NtRp1085
(dp1086
g66
(dp1087
sg75
g600
sg68
(lp1088
g61
(g82
g63
NtRp1089
(dp1090
g66
(dp1091
g86
g87
ssg75
g1085
sg68
(lp1092
S'remote_port'
p1093
asbag61
(g82
g63
NtRp1094
(dp1095
g66
(dp1096
g93
g94
ssg75
g1085
sg68
(lp1097
S':'
asbag61
(g82
g63
NtRp1098
(dp1099
g66
(dp1100
sg75
g1085
sg68
(lp1101
g61
(g62
g63
NtRp1102
(dp1103
g66
(dp1104
g74
I4
ssg75
g1098
sg68
(lp1105
S'1719'
p1106
asbasbasbag61
(g77
g63
NtRp1107
(dp1108
g66
(dp1109
sg75
g600
sg68
(lp1110
g61
(g82
g63
NtRp1111
(dp1112
g66
(dp1113
g86
g87
ssg75
g1107
sg68
(lp1114
S'request_method'
p1115
asbag61
(g82
g63
NtRp1116
(dp1117
g66
(dp1118
g93
g94
ssg75
g1107
sg68
(lp1119
S':'
asbag61
(g82
g63
NtRp1120
(dp1121
g66
(dp1122
sg75
g1107
sg68
(lp1123
g61
(g62
g63
NtRp1124
(dp1125
g66
(dp1126
g74
I4
ssg75
g1120
sg68
(lp1127
S'GET'
p1128
asbasbasbag61
(g77
g63
NtRp1129
(dp1130
g66
(dp1131
sg75
g600
sg68
(lp1132
g61
(g82
g63
NtRp1133
(dp1134
g66
(dp1135
g86
g87
ssg75
g1129
sg68
(lp1136
S'script_name'
p1137
asbag61
(g82
g63
NtRp1138
(dp1139
g66
(dp1140
g93
g94
ssg75
g1129
sg68
(lp1141
S':'
asbag61
(g82
g63
NtRp1142
(dp1143
g66
(dp1144
sg75
g1129
sg68
(lp1145
g61
(g62
g63
NtRp1146
(dp1147
g66
(dp1148
g74
I4
ssg75
g1142
sg68
(lp1149
S''
asbasbasbag61
(g77
g63
NtRp1150
(dp1151
g66
(dp1152
sg75
g600
sg68
(lp1153
g61
(g82
g63
NtRp1154
(dp1155
g66
(dp1156
g86
g87
ssg75
g1150
sg68
(lp1157
S'server_name'
p1158
asbag61
(g82
g63
NtRp1159
(dp1160
g66
(dp1161
g93
g94
ssg75
g1150
sg68
(lp1162
S':'
asbag61
(g82
g63
NtRp1163
(dp1164
g66
(dp1165
sg75
g1150
sg68
(lp1166
g61
(g62
g63
NtRp1167
(dp1168
g66
(dp1169
g74
I4
ssg75
g1163
sg68
(lp1170
S'Pedro-PC'
p1171
asbasbasbag61
(g77
g63
NtRp1172
(dp1173
g66
(dp1174
sg75
g600
sg68
(lp1175
g61
(g82
g63
NtRp1176
(dp1177
g66
(dp1178
g86
g87
ssg75
g1172
sg68
(lp1179
S'server_port'
p1180
asbag61
(g82
g63
NtRp1181
(dp1182
g66
(dp1183
g93
g94
ssg75
g1172
sg68
(lp1184
S':'
asbag61
(g82
g63
NtRp1185
(dp1186
g66
(dp1187
sg75
g1172
sg68
(lp1188
g61
(g62
g63
NtRp1189
(dp1190
g66
(dp1191
g74
I4
ssg75
g1185
sg68
(lp1192
S'8000'
p1193
asbasbasbag61
(g77
g63
NtRp1194
(dp1195
g66
(dp1196
sg75
g600
sg68
(lp1197
g61
(g82
g63
NtRp1198
(dp1199
g66
(dp1200
g86
g87
ssg75
g1194
sg68
(lp1201
S'server_protocol'
p1202
asbag61
(g82
g63
NtRp1203
(dp1204
g66
(dp1205
g93
g94
ssg75
g1194
sg68
(lp1206
S':'
asbag61
(g82
g63
NtRp1207
(dp1208
g66
(dp1209
sg75
g1194
sg68
(lp1210
g61
(g62
g63
NtRp1211
(dp1212
g66
(dp1213
g74
I4
ssg75
g1207
sg68
(lp1214
S'HTTP/1.1'
p1215
asbasbasbag61
(g77
g63
NtRp1216
(dp1217
g66
(dp1218
sg75
g600
sg68
(lp1219
g61
(g82
g63
NtRp1220
(dp1221
g66
(dp1222
g86
g87
ssg75
g1216
sg68
(lp1223
S'server_software'
p1224
asbag61
(g82
g63
NtRp1225
(dp1226
g66
(dp1227
g93
g94
ssg75
g1216
sg68
(lp1228
S':'
asbag61
(g82
g63
NtRp1229
(dp1230
g66
(dp1231
sg75
g1216
sg68
(lp1232
g61
(g62
g63
NtRp1233
(dp1234
g66
(dp1235
g74
I4
ssg75
g1229
sg68
(lp1236
S'Rocket 1.2.4'
p1237
asbasbasbag61
(g77
g63
NtRp1238
(dp1239
g66
(dp1240
sg75
g600
sg68
(lp1241
g61
(g82
g63
NtRp1242
(dp1243
g66
(dp1244
g86
g87
ssg75
g1238
sg68
(lp1245
S'web2py_crontype'
p1246
asbag61
(g82
g63
NtRp1247
(dp1248
g66
(dp1249
g93
g94
ssg75
g1238
sg68
(lp1250
S':'
asbag61
(g82
g63
NtRp1251
(dp1252
g66
(dp1253
sg75
g1238
sg68
(lp1254
g61
(g62
g63
NtRp1255
(dp1256
g66
(dp1257
g74
I4
ssg75
g1251
sg68
(lp1258
S'hard'
p1259
asbasbasbag61
(g77
g63
NtRp1260
(dp1261
g66
(dp1262
sg75
g600
sg68
(lp1263
g61
(g82
g63
NtRp1264
(dp1265
g66
(dp1266
g86
g87
ssg75
g1260
sg68
(lp1267
S'web2py_path'
p1268
asbag61
(g82
g63
NtRp1269
(dp1270
g66
(dp1271
g93
g94
ssg75
g1260
sg68
(lp1272
S':'
asbag61
(g82
g63
NtRp1273
(dp1274
g66
(dp1275
sg75
g1260
sg68
(lp1276
g61
(g62
g63
NtRp1277
(dp1278
g66
(dp1279
g74
I4
ssg75
g1273
sg68
(lp1280
g647
asbasbasbag61
(g77
g63
NtRp1281
(dp1282
g66
(dp1283
sg75
g600
sg68
(lp1284
g61
(g82
g63
NtRp1285
(dp1286
g66
(dp1287
g86
g87
ssg75
g1281
sg68
(lp1288
S'web2py_version'
p1289
asbag61
(g82
g63
NtRp1290
(dp1291
g66
(dp1292
g93
g94
ssg75
g1281
sg68
(lp1293
S':'
asbag61
(g82
g63
NtRp1294
(dp1295
g66
(dp1296
sg75
g1281
sg68
(lp1297
g61
(g62
g63
NtRp1298
(dp1299
g66
(dp1300
g74
I4
ssg75
g1294
sg68
(lp1301
g61
(g70
g63
NtRp1302
(dp1303
g66
(dp1304
g74
I3
ssg75
Nsg68
(lp1305
g61
(g77
g63
NtRp1306
(dp1307
g66
(dp1308
sg75
g1302
sg68
(lp1309
g61
(g82
g63
NtRp1310
(dp1311
g66
(dp1312
sg75
g1306
sg68
(lp1313
g61
(g62
g63
NtRp1314
(dp1315
g66
(dp1316
g74
I3
ssg75
g1310
sg68
(lp1317
S'1'
asbasbasbag61
(g77
g63
NtRp1318
(dp1319
g66
(dp1320
sg75
g1302
sg68
(lp1321
g61
(g82
g63
NtRp1322
(dp1323
g66
(dp1324
sg75
g1318
sg68
(lp1325
g61
(g62
g63
NtRp1326
(dp1327
g66
(dp1328
g74
I3
ssg75
g1322
sg68
(lp1329
S'99'
p1330
asbasbasbag61
(g77
g63
NtRp1331
(dp1332
g66
(dp1333
sg75
g1302
sg68
(lp1334
g61
(g82
g63
NtRp1335
(dp1336
g66
(dp1337
sg75
g1331
sg68
(lp1338
g61
(g62
g63
NtRp1339
(dp1340
g66
(dp1341
g74
I3
ssg75
g1335
sg68
(lp1342
S'7'
asbasbasbag61
(g77
g63
NtRp1343
(dp1344
g66
(dp1345
sg75
g1302
sg68
(lp1346
g61
(g82
g63
NtRp1347
(dp1348
g66
(dp1349
sg75
g1343
sg68
(lp1350
g61
(g62
g63
NtRp1351
(dp1352
g66
(dp1353
g74
I3
ssg75
g1347
sg68
(lp1354
S'datetime.datetime(2012, 3, 4, 22, 12, 8)'
p1355
asbasbasbag61
(g77
g63
NtRp1356
(dp1357
g66
(dp1358
sg75
g1302
sg68
(lp1359
g61
(g82
g63
NtRp1360
(dp1361
g66
(dp1362
sg75
g1356
sg68
(lp1363
g61
(g62
g63
NtRp1364
(dp1365
g66
(dp1366
g74
I3
ssg75
g1360
sg68
(lp1367
S'stable'
p1368
asbasbasbasbasbasbasbag61
(g77
g63
NtRp1369
(dp1370
g66
(dp1371
sg75
g600
sg68
(lp1372
g61
(g82
g63
NtRp1373
(dp1374
g66
(dp1375
g86
g87
ssg75
g1369
sg68
(lp1376
S'wsgi_errors'
p1377
asbag61
(g82
g63
NtRp1378
(dp1379
g66
(dp1380
g93
g94
ssg75
g1369
sg68
(lp1381
S':'
asbag61
(g82
g63
NtRp1382
(dp1383
g66
(dp1384
sg75
g1369
sg68
(lp1385
g61
(g62
g63
NtRp1386
(dp1387
g66
(dp1388
g74
I4
ssg75
g1382
sg68
(lp1389
S'<__main__.Stderr object at 0x00486670>'
p1390
asbasbasbag61
(g77
g63
NtRp1391
(dp1392
g66
(dp1393
sg75
g600
sg68
(lp1394
g61
(g82
g63
NtRp1395
(dp1396
g66
(dp1397
g86
g87
ssg75
g1391
sg68
(lp1398
S'wsgi_file_wrapper'
p1399
asbag61
(g82
g63
NtRp1400
(dp1401
g66
(dp1402
g93
g94
ssg75
g1391
sg68
(lp1403
S':'
asbag61
(g82
g63
NtRp1404
(dp1405
g66
(dp1406
sg75
g1391
sg68
(lp1407
g61
(g62
g63
NtRp1408
(dp1409
g66
(dp1410
g74
I4
ssg75
g1404
sg68
(lp1411
S'<class wsgiref.util.FileWrapper at 0x02EEDE10>'
p1412
asbasbasbag61
(g77
g63
NtRp1413
(dp1414
g66
(dp1415
sg75
g600
sg68
(lp1416
g61
(g82
g63
NtRp1417
(dp1418
g66
(dp1419
g86
g87
ssg75
g1413
sg68
(lp1420
S'wsgi_input'
p1421
asbag61
(g82
g63
NtRp1422
(dp1423
g66
(dp1424
g93
g94
ssg75
g1413
sg68
(lp1425
S':'
asbag61
(g82
g63
NtRp1426
(dp1427
g66
(dp1428
sg75
g1413
sg68
(lp1429
g61
(g62
g63
NtRp1430
(dp1431
g66
(dp1432
g74
I4
ssg75
g1426
sg68
(lp1433
S'<socket._fileobject object at 0x06D528F0>'
p1434
asbasbasbag61
(g77
g63
NtRp1435
(dp1436
g66
(dp1437
sg75
g600
sg68
(lp1438
g61
(g82
g63
NtRp1439
(dp1440
g66
(dp1441
g86
g87
ssg75
g1435
sg68
(lp1442
S'wsgi_multiprocess'
p1443
asbag61
(g82
g63
NtRp1444
(dp1445
g66
(dp1446
g93
g94
ssg75
g1435
sg68
(lp1447
S':'
asbag61
(g82
g63
NtRp1448
(dp1449
g66
(dp1450
sg75
g1435
sg68
(lp1451
g61
(g62
g63
NtRp1452
(dp1453
g66
(dp1454
g74
I4
ssg75
g1448
sg68
(lp1455
g104
asbasbasbag61
(g77
g63
NtRp1456
(dp1457
g66
(dp1458
sg75
g600
sg68
(lp1459
g61
(g82
g63
NtRp1460
(dp1461
g66
(dp1462
g86
g87
ssg75
g1456
sg68
(lp1463
S'wsgi_multithread'
p1464
asbag61
(g82
g63
NtRp1465
(dp1466
g66
(dp1467
g93
g94
ssg75
g1456
sg68
(lp1468
S':'
asbag61
(g82
g63
NtRp1469
(dp1470
g66
(dp1471
sg75
g1456
sg68
(lp1472
g61
(g62
g63
NtRp1473
(dp1474
g66
(dp1475
g74
I4
ssg75
g1469
sg68
(lp1476
S'True'
p1477
asbasbasbag61
(g77
g63
NtRp1478
(dp1479
g66
(dp1480
sg75
g600
sg68
(lp1481
g61
(g82
g63
NtRp1482
(dp1483
g66
(dp1484
g86
g87
ssg75
g1478
sg68
(lp1485
S'wsgi_run_once'
p1486
asbag61
(g82
g63
NtRp1487
(dp1488
g66
(dp1489
g93
g94
ssg75
g1478
sg68
(lp1490
S':'
asbag61
(g82
g63
NtRp1491
(dp1492
g66
(dp1493
sg75
g1478
sg68
(lp1494
g61
(g62
g63
NtRp1495
(dp1496
g66
(dp1497
g74
I4
ssg75
g1491
sg68
(lp1498
g104
asbasbasbag61
(g77
g63
NtRp1499
(dp1500
g66
(dp1501
sg75
g600
sg68
(lp1502
g61
(g82
g63
NtRp1503
(dp1504
g66
(dp1505
g86
g87
ssg75
g1499
sg68
(lp1506
S'wsgi_url_scheme'
p1507
asbag61
(g82
g63
NtRp1508
(dp1509
g66
(dp1510
g93
g94
ssg75
g1499
sg68
(lp1511
S':'
asbag61
(g82
g63
NtRp1512
(dp1513
g66
(dp1514
sg75
g1499
sg68
(lp1515
g61
(g62
g63
NtRp1516
(dp1517
g66
(dp1518
g74
I4
ssg75
g1512
sg68
(lp1519
S'http'
p1520
asbasbasbag61
(g77
g63
NtRp1521
(dp1522
g66
(dp1523
sg75
g600
sg68
(lp1524
g61
(g82
g63
NtRp1525
(dp1526
g66
(dp1527
g86
g87
ssg75
g1521
sg68
(lp1528
S'wsgi_version'
p1529
asbag61
(g82
g63
NtRp1530
(dp1531
g66
(dp1532
g93
g94
ssg75
g1521
sg68
(lp1533
S':'
asbag61
(g82
g63
NtRp1534
(dp1535
g66
(dp1536
sg75
g1521
sg68
(lp1537
g61
(g62
g63
NtRp1538
(dp1539
g66
(dp1540
g74
I4
ssg75
g1534
sg68
(lp1541
g61
(g70
g63
NtRp1542
(dp1543
g66
(dp1544
g74
I3
ssg75
Nsg68
(lp1545
g61
(g77
g63
NtRp1546
(dp1547
g66
(dp1548
sg75
g1542
sg68
(lp1549
g61
(g82
g63
NtRp1550
(dp1551
g66
(dp1552
sg75
g1546
sg68
(lp1553
g61
(g62
g63
NtRp1554
(dp1555
g66
(dp1556
g74
I3
ssg75
g1550
sg68
(lp1557
S'1'
asbasbasbag61
(g77
g63
NtRp1558
(dp1559
g66
(dp1560
sg75
g1542
sg68
(lp1561
g61
(g82
g63
NtRp1562
(dp1563
g66
(dp1564
sg75
g1558
sg68
(lp1565
g61
(g62
g63
NtRp1566
(dp1567
g66
(dp1568
g74
I3
ssg75
g1562
sg68
(lp1569
S'0'
asbasbasbasbasbasbasbasbasbasbasbag61
(g77
g63
NtRp1570
(dp1571
g66
(dp1572
sg75
g71
sg68
(lp1573
g61
(g82
g63
NtRp1574
(dp1575
g66
(dp1576
g86
g87
ssg75
g1570
sg68
(lp1577
S'extension'
p1578
asbag61
(g82
g63
NtRp1579
(dp1580
g66
(dp1581
g93
g94
ssg75
g1570
sg68
(lp1582
S':'
asbag61
(g82
g63
NtRp1583
(dp1584
g66
(dp1585
sg75
g1570
sg68
(lp1586
g61
(g62
g63
NtRp1587
(dp1588
g66
(dp1589
g74
I5
ssg75
g1583
sg68
(lp1590
S'html'
p1591
asbasbasbag61
(g77
g63
NtRp1592
(dp1593
g66
(dp1594
sg75
g71
sg68
(lp1595
g61
(g82
g63
NtRp1596
(dp1597
g66
(dp1598
g86
g87
ssg75
g1592
sg68
(lp1599
S'folder'
p1600
asbag61
(g82
g63
NtRp1601
(dp1602
g66
(dp1603
g93
g94
ssg75
g1592
sg68
(lp1604
S':'
asbag61
(g82
g63
NtRp1605
(dp1606
g66
(dp1607
sg75
g1592
sg68
(lp1608
g61
(g62
g63
NtRp1609
(dp1610
g66
(dp1611
g74
I5
ssg75
g1605
sg68
(lp1612
S'C:\\web2py\\applications\\unioeste_code\\'
p1613
asbasbasbag61
(g77
g63
NtRp1614
(dp1615
g66
(dp1616
sg75
g71
sg68
(lp1617
g61
(g82
g63
NtRp1618
(dp1619
g66
(dp1620
g86
g87
ssg75
g1614
sg68
(lp1621
S'function'
p1622
asbag61
(g82
g63
NtRp1623
(dp1624
g66
(dp1625
g93
g94
ssg75
g1614
sg68
(lp1626
S':'
asbag61
(g82
g63
NtRp1627
(dp1628
g66
(dp1629
sg75
g1614
sg68
(lp1630
g61
(g62
g63
NtRp1631
(dp1632
g66
(dp1633
g74
I5
ssg75
g1627
sg68
(lp1634
S'index'
p1635
asbasbasbag61
(g77
g63
NtRp1636
(dp1637
g66
(dp1638
sg75
g71
sg68
(lp1639
g61
(g82
g63
NtRp1640
(dp1641
g66
(dp1642
g86
g87
ssg75
g1636
sg68
(lp1643
S'get_vars'
p1644
asbag61
(g82
g63
NtRp1645
(dp1646
g66
(dp1647
g93
g94
ssg75
g1636
sg68
(lp1648
S':'
asbag61
(g82
g63
NtRp1649
(dp1650
g66
(dp1651
sg75
g1636
sg68
(lp1652
g61
(g62
g63
NtRp1653
(dp1654
g66
(dp1655
g74
I5
ssg75
g1649
sg68
(lp1656
g61
(g70
g63
NtRp1657
(dp1658
g66
(dp1659
g74
I4
ssg75
Nsg68
(lp1660
sbasbasbasbag61
(g77
g63
NtRp1661
(dp1662
g66
(dp1663
sg75
g71
sg68
(lp1664
g61
(g82
g63
NtRp1665
(dp1666
g66
(dp1667
g86
g87
ssg75
g1661
sg68
(lp1668
S'global_settings'
p1669
asbag61
(g82
g63
NtRp1670
(dp1671
g66
(dp1672
g93
g94
ssg75
g1661
sg68
(lp1673
S':'
asbag61
(g82
g63
NtRp1674
(dp1675
g66
(dp1676
sg75
g1661
sg68
(lp1677
g61
(g62
g63
NtRp1678
(dp1679
g66
(dp1680
g74
I5
ssg75
g1674
sg68
(lp1681
g61
(g70
g63
NtRp1682
(dp1683
g66
(dp1684
g74
I4
ssg75
Nsg68
(lp1685
g61
(g77
g63
NtRp1686
(dp1687
g66
(dp1688
sg75
g1682
sg68
(lp1689
g61
(g82
g63
NtRp1690
(dp1691
g66
(dp1692
g86
g87
ssg75
g1686
sg68
(lp1693
g612
asbag61
(g82
g63
NtRp1694
(dp1695
g66
(dp1696
g93
g94
ssg75
g1686
sg68
(lp1697
S':'
asbag61
(g82
g63
NtRp1698
(dp1699
g66
(dp1700
sg75
g1686
sg68
(lp1701
g61
(g62
g63
NtRp1702
(dp1703
g66
(dp1704
g74
I4
ssg75
g1698
sg68
(lp1705
S"set(['C:\\\\web2py\\\\applications\\\\admin\\\\', 'C:\\\\web2py\\\\applications\\\\welcome\\\\', 'C:\\\\web2py\\\\applications\\\\unioeste_code\\\\'])"
p1706
asbasbasbag61
(g77
g63
NtRp1707
(dp1708
g66
(dp1709
sg75
g1682
sg68
(lp1710
g61
(g82
g63
NtRp1711
(dp1712
g66
(dp1713
g86
g87
ssg75
g1707
sg68
(lp1714
g634
asbag61
(g82
g63
NtRp1715
(dp1716
g66
(dp1717
g93
g94
ssg75
g1707
sg68
(lp1718
S':'
asbag61
(g82
g63
NtRp1719
(dp1720
g66
(dp1721
sg75
g1707
sg68
(lp1722
g61
(g62
g63
NtRp1723
(dp1724
g66
(dp1725
g74
I4
ssg75
g1719
sg68
(lp1726
g647
asbasbasbag61
(g77
g63
NtRp1727
(dp1728
g66
(dp1729
sg75
g1682
sg68
(lp1730
g61
(g82
g63
NtRp1731
(dp1732
g66
(dp1733
g86
g87
ssg75
g1727
sg68
(lp1734
g656
asbag61
(g82
g63
NtRp1735
(dp1736
g66
(dp1737
g93
g94
ssg75
g1727
sg68
(lp1738
S':'
asbag61
(g82
g63
NtRp1739
(dp1740
g66
(dp1741
sg75
g1727
sg68
(lp1742
g61
(g62
g63
NtRp1743
(dp1744
g66
(dp1745
g74
I4
ssg75
g1739
sg68
(lp1746
g61
(g70
g63
NtRp1747
(dp1748
g66
(dp1749
g74
I3
ssg75
Nsg68
(lp1750
sbasbasbasbag61
(g77
g63
NtRp1751
(dp1752
g66
(dp1753
sg75
g1682
sg68
(lp1754
g61
(g82
g63
NtRp1755
(dp1756
g66
(dp1757
g86
g87
ssg75
g1751
sg68
(lp1758
g681
asbag61
(g82
g63
NtRp1759
(dp1760
g66
(dp1761
g93
g94
ssg75
g1751
sg68
(lp1762
S':'
asbag61
(g82
g63
NtRp1763
(dp1764
g66
(dp1765
sg75
g1751
sg68
(lp1766
g61
(g62
g63
NtRp1767
(dp1768
g66
(dp1769
g74
I4
ssg75
g1763
sg68
(lp1770
S"<Values at 0x30fc300: {'verbose': False, 'ip': '127.0.0.1', 'shutdown_timeout': 5, 'taskbar': False, 'nocron': False, 'pid_filename': 'httpserver.pid', 'maxthreads': None, 'softcron': False, 'server_name': 'Pedro-PC', 'bpython': False, 'nogui': False, 'port': 8000, 'extcron': False, 'debuglevel': 30, 'test': None, 'folder': 'C:\\\\web2py', 'config': '', 'import_models': False, 'winservice': '', 'shell': None, 'run': '', 'log_filename': 'httpserver.log', 'args': [''], 'socket_timeout': 5, 'ssl_ca_certificate': None, 'scheduler': None, 'profiler_filename': None, 'ssl_private_key': '', 'password': '<ask>', 'request_queue_size': 5, 'ssl_certificate': '', 'cronjob': False, 'numthreads': None, 'quiet': False, 'interfaces': None, 'minthreads': None, 'timeout': 10, 'plain': False, 'nobanner': False}>"
p1771
asbasbasbag61
(g77
g63
NtRp1772
(dp1773
g66
(dp1774
sg75
g1682
sg68
(lp1775
g61
(g82
g63
NtRp1776
(dp1777
g66
(dp1778
g86
g87
ssg75
g1772
sg68
(lp1779
g703
asbag61
(g82
g63
NtRp1780
(dp1781
g66
(dp1782
g93
g94
ssg75
g1772
sg68
(lp1783
S':'
asbag61
(g82
g63
NtRp1784
(dp1785
g66
(dp1786
sg75
g1772
sg68
(lp1787
g61
(g62
g63
NtRp1788
(dp1789
g66
(dp1790
g74
I4
ssg75
g1784
sg68
(lp1791
S'set([])'
p1792
asbasbasbag61
(g77
g63
NtRp1793
(dp1794
g66
(dp1795
sg75
g1682
sg68
(lp1796
g61
(g82
g63
NtRp1797
(dp1798
g66
(dp1799
g86
g87
ssg75
g1793
sg68
(lp1800
g725
asbag61
(g82
g63
NtRp1801
(dp1802
g66
(dp1803
g93
g94
ssg75
g1793
sg68
(lp1804
S':'
asbag61
(g82
g63
NtRp1805
(dp1806
g66
(dp1807
sg75
g1793
sg68
(lp1808
g61
(g62
g63
NtRp1809
(dp1810
g66
(dp1811
g74
I4
ssg75
g1805
sg68
(lp1812
g104
asbasbasbag61
(g77
g63
NtRp1813
(dp1814
g66
(dp1815
sg75
g1682
sg68
(lp1816
g61
(g82
g63
NtRp1817
(dp1818
g66
(dp1819
g86
g87
ssg75
g1813
sg68
(lp1820
g746
asbag61
(g82
g63
NtRp1821
(dp1822
g66
(dp1823
g93
g94
ssg75
g1813
sg68
(lp1824
S':'
asbag61
(g82
g63
NtRp1825
(dp1826
g66
(dp1827
sg75
g1813
sg68
(lp1828
g61
(g62
g63
NtRp1829
(dp1830
g66
(dp1831
g74
I4
ssg75
g1825
sg68
(lp1832
g759
asbasbasbag61
(g77
g63
NtRp1833
(dp1834
g66
(dp1835
sg75
g1682
sg68
(lp1836
g61
(g82
g63
NtRp1837
(dp1838
g66
(dp1839
g86
g87
ssg75
g1833
sg68
(lp1840
g987
asbag61
(g82
g63
NtRp1841
(dp1842
g66
(dp1843
g93
g94
ssg75
g1833
sg68
(lp1844
S':'
asbag61
(g82
g63
NtRp1845
(dp1846
g66
(dp1847
sg75
g1833
sg68
(lp1848
g61
(g62
g63
NtRp1849
(dp1850
g66
(dp1851
g74
I4
ssg75
g1845
sg68
(lp1852
g104
asbasbasbag61
(g77
g63
NtRp1853
(dp1854
g66
(dp1855
sg75
g1682
sg68
(lp1856
g61
(g82
g63
NtRp1857
(dp1858
g66
(dp1859
g86
g87
ssg75
g1853
sg68
(lp1860
g1008
asbag61
(g82
g63
NtRp1861
(dp1862
g66
(dp1863
g93
g94
ssg75
g1853
sg68
(lp1864
S':'
asbag61
(g82
g63
NtRp1865
(dp1866
g66
(dp1867
sg75
g1853
sg68
(lp1868
g61
(g62
g63
NtRp1869
(dp1870
g66
(dp1871
g74
I4
ssg75
g1865
sg68
(lp1872
g104
asbasbasbag61
(g77
g63
NtRp1873
(dp1874
g66
(dp1875
sg75
g1682
sg68
(lp1876
g61
(g82
g63
NtRp1877
(dp1878
g66
(dp1879
g86
g87
ssg75
g1873
sg68
(lp1880
g1246
asbag61
(g82
g63
NtRp1881
(dp1882
g66
(dp1883
g93
g94
ssg75
g1873
sg68
(lp1884
S':'
asbag61
(g82
g63
NtRp1885
(dp1886
g66
(dp1887
sg75
g1873
sg68
(lp1888
g61
(g62
g63
NtRp1889
(dp1890
g66
(dp1891
g74
I4
ssg75
g1885
sg68
(lp1892
g1259
asbasbasbag61
(g77
g63
NtRp1893
(dp1894
g66
(dp1895
sg75
g1682
sg68
(lp1896
g61
(g82
g63
NtRp1897
(dp1898
g66
(dp1899
g86
g87
ssg75
g1893
sg68
(lp1900
g1289
asbag61
(g82
g63
NtRp1901
(dp1902
g66
(dp1903
g93
g94
ssg75
g1893
sg68
(lp1904
S':'
asbag61
(g82
g63
NtRp1905
(dp1906
g66
(dp1907
sg75
g1893
sg68
(lp1908
g61
(g62
g63
NtRp1909
(dp1910
g66
(dp1911
g74
I4
ssg75
g1905
sg68
(lp1912
g61
(g70
g63
NtRp1913
(dp1914
g66
(dp1915
g74
I3
ssg75
Nsg68
(lp1916
g61
(g77
g63
NtRp1917
(dp1918
g66
(dp1919
sg75
g1913
sg68
(lp1920
g61
(g82
g63
NtRp1921
(dp1922
g66
(dp1923
sg75
g1917
sg68
(lp1924
g61
(g62
g63
NtRp1925
(dp1926
g66
(dp1927
g74
I3
ssg75
g1921
sg68
(lp1928
S'1'
asbasbasbag61
(g77
g63
NtRp1929
(dp1930
g66
(dp1931
sg75
g1913
sg68
(lp1932
g61
(g82
g63
NtRp1933
(dp1934
g66
(dp1935
sg75
g1929
sg68
(lp1936
g61
(g62
g63
NtRp1937
(dp1938
g66
(dp1939
g74
I3
ssg75
g1933
sg68
(lp1940
S'99'
p1941
asbasbasbag61
(g77
g63
NtRp1942
(dp1943
g66
(dp1944
sg75
g1913
sg68
(lp1945
g61
(g82
g63
NtRp1946
(dp1947
g66
(dp1948
sg75
g1942
sg68
(lp1949
g61
(g62
g63
NtRp1950
(dp1951
g66
(dp1952
g74
I3
ssg75
g1946
sg68
(lp1953
S'7'
asbasbasbag61
(g77
g63
NtRp1954
(dp1955
g66
(dp1956
sg75
g1913
sg68
(lp1957
g61
(g82
g63
NtRp1958
(dp1959
g66
(dp1960
sg75
g1954
sg68
(lp1961
g61
(g62
g63
NtRp1962
(dp1963
g66
(dp1964
g74
I3
ssg75
g1958
sg68
(lp1965
S'datetime.datetime(2012, 3, 4, 22, 12, 8)'
p1966
asbasbasbag61
(g77
g63
NtRp1967
(dp1968
g66
(dp1969
sg75
g1913
sg68
(lp1970
g61
(g82
g63
NtRp1971
(dp1972
g66
(dp1973
sg75
g1967
sg68
(lp1974
g61
(g62
g63
NtRp1975
(dp1976
g66
(dp1977
g74
I3
ssg75
g1971
sg68
(lp1978
g1368
asbasbasbasbasbasbasbasbasbasbasbag61
(g77
g63
NtRp1979
(dp1980
g66
(dp1981
sg75
g71
sg68
(lp1982
g61
(g82
g63
NtRp1983
(dp1984
g66
(dp1985
g86
g87
ssg75
g1979
sg68
(lp1986
S'is_https'
p1987
asbag61
(g82
g63
NtRp1988
(dp1989
g66
(dp1990
g93
g94
ssg75
g1979
sg68
(lp1991
S':'
asbag61
(g82
g63
NtRp1992
(dp1993
g66
(dp1994
sg75
g1979
sg68
(lp1995
g61
(g62
g63
NtRp1996
(dp1997
g66
(dp1998
g74
I5
ssg75
g1992
sg68
(lp1999
g104
asbasbasbag61
(g77
g63
NtRp2000
(dp2001
g66
(dp2002
sg75
g71
sg68
(lp2003
g61
(g82
g63
NtRp2004
(dp2005
g66
(dp2006
g86
g87
ssg75
g2000
sg68
(lp2007
S'is_local'
p2008
asbag61
(g82
g63
NtRp2009
(dp2010
g66
(dp2011
g93
g94
ssg75
g2000
sg68
(lp2012
S':'
asbag61
(g82
g63
NtRp2013
(dp2014
g66
(dp2015
sg75
g2000
sg68
(lp2016
g61
(g62
g63
NtRp2017
(dp2018
g66
(dp2019
g74
I5
ssg75
g2013
sg68
(lp2020
g1477
asbasbasbag61
(g77
g63
NtRp2021
(dp2022
g66
(dp2023
sg75
g71
sg68
(lp2024
g61
(g82
g63
NtRp2025
(dp2026
g66
(dp2027
g86
g87
ssg75
g2021
sg68
(lp2028
S'is_restful'
p2029
asbag61
(g82
g63
NtRp2030
(dp2031
g66
(dp2032
g93
g94
ssg75
g2021
sg68
(lp2033
S':'
asbag61
(g82
g63
NtRp2034
(dp2035
g66
(dp2036
sg75
g2021
sg68
(lp2037
g61
(g62
g63
NtRp2038
(dp2039
g66
(dp2040
g74
I5
ssg75
g2034
sg68
(lp2041
g104
asbasbasbag61
(g77
g63
NtRp2042
(dp2043
g66
(dp2044
sg75
g71
sg68
(lp2045
g61
(g82
g63
NtRp2046
(dp2047
g66
(dp2048
g86
g87
ssg75
g2042
sg68
(lp2049
S'now'
p2050
asbag61
(g82
g63
NtRp2051
(dp2052
g66
(dp2053
g93
g94
ssg75
g2042
sg68
(lp2054
S':'
asbag61
(g82
g63
NtRp2055
(dp2056
g66
(dp2057
sg75
g2042
sg68
(lp2058
g61
(g62
g63
NtRp2059
(dp2060
g66
(dp2061
g74
I5
ssg75
g2055
sg68
(lp2062
S'datetime.datetime(2012, 7, 30, 15, 48, 19, 992000)'
p2063
asbasbasbag61
(g77
g63
NtRp2064
(dp2065
g66
(dp2066
sg75
g71
sg68
(lp2067
g61
(g82
g63
NtRp2068
(dp2069
g66
(dp2070
g86
g87
ssg75
g2064
sg68
(lp2071
S'post_vars'
p2072
asbag61
(g82
g63
NtRp2073
(dp2074
g66
(dp2075
g93
g94
ssg75
g2064
sg68
(lp2076
S':'
asbag61
(g82
g63
NtRp2077
(dp2078
g66
(dp2079
sg75
g2064
sg68
(lp2080
g61
(g62
g63
NtRp2081
(dp2082
g66
(dp2083
g74
I5
ssg75
g2077
sg68
(lp2084
g61
(g70
g63
NtRp2085
(dp2086
g66
(dp2087
g74
I4
ssg75
Nsg68
(lp2088
sbasbasbasbag61
(g77
g63
NtRp2089
(dp2090
g66
(dp2091
sg75
g71
sg68
(lp2092
g61
(g82
g63
NtRp2093
(dp2094
g66
(dp2095
g86
g87
ssg75
g2089
sg68
(lp2096
S'url'
p2097
asbag61
(g82
g63
NtRp2098
(dp2099
g66
(dp2100
g93
g94
ssg75
g2089
sg68
(lp2101
S':'
asbag61
(g82
g63
NtRp2102
(dp2103
g66
(dp2104
sg75
g2089
sg68
(lp2105
g61
(g62
g63
NtRp2106
(dp2107
g66
(dp2108
g74
I5
ssg75
g2102
sg68
(lp2109
S'/unioeste_code/default/index'
p2110
asbasbasbag61
(g77
g63
NtRp2111
(dp2112
g66
(dp2113
sg75
g71
sg68
(lp2114
g61
(g82
g63
NtRp2115
(dp2116
g66
(dp2117
g86
g87
ssg75
g2111
sg68
(lp2118
S'utcnow'
p2119
asbag61
(g82
g63
NtRp2120
(dp2121
g66
(dp2122
g93
g94
ssg75
g2111
sg68
(lp2123
S':'
asbag61
(g82
g63
NtRp2124
(dp2125
g66
(dp2126
sg75
g2111
sg68
(lp2127
g61
(g62
g63
NtRp2128
(dp2129
g66
(dp2130
g74
I5
ssg75
g2124
sg68
(lp2131
S'datetime.datetime(2012, 7, 30, 18, 48, 19, 992000)'
p2132
asbasbasbag61
(g77
g63
NtRp2133
(dp2134
g66
(dp2135
sg75
g71
sg68
(lp2136
g61
(g82
g63
NtRp2137
(dp2138
g66
(dp2139
g86
g87
ssg75
g2133
sg68
(lp2140
S'uuid'
p2141
asbag61
(g82
g63
NtRp2142
(dp2143
g66
(dp2144
g93
g94
ssg75
g2133
sg68
(lp2145
S':'
asbag61
(g82
g63
NtRp2146
(dp2147
g66
(dp2148
sg75
g2133
sg68
(lp2149
g61
(g62
g63
NtRp2150
(dp2151
g66
(dp2152
g74
I5
ssg75
g2146
sg68
(lp2153
S'unioeste_code/127.0.0.1.2012-07-30.15-48-19.0707e28e-01ba-455c-9d40-f6706eb0a86e'
p2154
asbasbasbag61
(g77
g63
NtRp2155
(dp2156
g66
(dp2157
sg75
g71
sg68
(lp2158
g61
(g82
g63
NtRp2159
(dp2160
g66
(dp2161
g86
g87
ssg75
g2155
sg68
(lp2162
S'vars'
p2163
asbag61
(g82
g63
NtRp2164
(dp2165
g66
(dp2166
g93
g94
ssg75
g2155
sg68
(lp2167
S':'
asbag61
(g82
g63
NtRp2168
(dp2169
g66
(dp2170
sg75
g2155
sg68
(lp2171
g61
(g62
g63
NtRp2172
(dp2173
g66
(dp2174
g74
I5
ssg75
g2168
sg68
(lp2175
g61
(g70
g63
NtRp2176
(dp2177
g66
(dp2178
g74
I4
ssg75
Nsg68
(lp2179
sbasbasbasbag61
(g77
g63
NtRp2180
(dp2181
g66
(dp2182
sg75
g71
sg68
(lp2183
g61
(g82
g63
NtRp2184
(dp2185
g66
(dp2186
g86
g87
ssg75
g2180
sg68
(lp2187
S'wsgi'
p2188
asbag61
(g82
g63
NtRp2189
(dp2190
g66
(dp2191
g93
g94
ssg75
g2180
sg68
(lp2192
S':'
asbag61
(g82
g63
NtRp2193
(dp2194
g66
(dp2195
sg75
g2180
sg68
(lp2196
g61
(g62
g63
NtRp2197
(dp2198
g66
(dp2199
g74
I5
ssg75
g2193
sg68
(lp2200
g61
(g70
g63
NtRp2201
(dp2202
g66
(dp2203
g74
I4
ssg75
Nsg68
(lp2204
g61
(g77
g63
NtRp2205
(dp2206
g66
(dp2207
sg75
g2201
sg68
(lp2208
g61
(g82
g63
NtRp2209
(dp2210
g66
(dp2211
g86
g87
ssg75
g2205
sg68
(lp2212
S'environ'
p2213
asbag61
(g82
g63
NtRp2214
(dp2215
g66
(dp2216
g93
g94
ssg75
g2205
sg68
(lp2217
S':'
asbag61
(g82
g63
NtRp2218
(dp2219
g66
(dp2220
sg75
g2205
sg68
(lp2221
g61
(g62
g63
NtRp2222
(dp2223
g66
(dp2224
g74
I4
ssg75
g2218
sg68
(lp2225
g61
(g70
g63
NtRp2226
(dp2227
g66
(dp2228
g74
I3
ssg75
Nsg68
(lp2229
g61
(g77
g63
NtRp2230
(dp2231
g66
(dp2232
sg75
g2226
sg68
(lp2233
g61
(g82
g63
NtRp2234
(dp2235
g66
(dp2236
g86
g87
ssg75
g2230
sg68
(lp2237
S'HTTP_ACCEPT'
p2238
asbag61
(g82
g63
NtRp2239
(dp2240
g66
(dp2241
g93
g94
ssg75
g2230
sg68
(lp2242
S':'
asbag61
(g82
g63
NtRp2243
(dp2244
g66
(dp2245
sg75
g2230
sg68
(lp2246
g61
(g62
g63
NtRp2247
(dp2248
g66
(dp2249
g74
I3
ssg75
g2243
sg68
(lp2250
g781
asbasbasbag61
(g77
g63
NtRp2251
(dp2252
g66
(dp2253
sg75
g2226
sg68
(lp2254
g61
(g82
g63
NtRp2255
(dp2256
g66
(dp2257
g86
g87
ssg75
g2251
sg68
(lp2258
S'HTTP_ACCEPT_CHARSET'
p2259
asbag61
(g82
g63
NtRp2260
(dp2261
g66
(dp2262
g93
g94
ssg75
g2251
sg68
(lp2263
S':'
asbag61
(g82
g63
NtRp2264
(dp2265
g66
(dp2266
sg75
g2251
sg68
(lp2267
g61
(g62
g63
NtRp2268
(dp2269
g66
(dp2270
g74
I3
ssg75
g2264
sg68
(lp2271
g803
asbasbasbag61
(g77
g63
NtRp2272
(dp2273
g66
(dp2274
sg75
g2226
sg68
(lp2275
g61
(g82
g63
NtRp2276
(dp2277
g66
(dp2278
g86
g87
ssg75
g2272
sg68
(lp2279
S'HTTP_ACCEPT_ENCODING'
p2280
asbag61
(g82
g63
NtRp2281
(dp2282
g66
(dp2283
g93
g94
ssg75
g2272
sg68
(lp2284
S':'
asbag61
(g82
g63
NtRp2285
(dp2286
g66
(dp2287
sg75
g2272
sg68
(lp2288
g61
(g62
g63
NtRp2289
(dp2290
g66
(dp2291
g74
I3
ssg75
g2285
sg68
(lp2292
g825
asbasbasbag61
(g77
g63
NtRp2293
(dp2294
g66
(dp2295
sg75
g2226
sg68
(lp2296
g61
(g82
g63
NtRp2297
(dp2298
g66
(dp2299
g86
g87
ssg75
g2293
sg68
(lp2300
S'HTTP_ACCEPT_LANGUAGE'
p2301
asbag61
(g82
g63
NtRp2302
(dp2303
g66
(dp2304
g93
g94
ssg75
g2293
sg68
(lp2305
S':'
asbag61
(g82
g63
NtRp2306
(dp2307
g66
(dp2308
sg75
g2293
sg68
(lp2309
g61
(g62
g63
NtRp2310
(dp2311
g66
(dp2312
g74
I3
ssg75
g2306
sg68
(lp2313
g847
asbasbasbag61
(g77
g63
NtRp2314
(dp2315
g66
(dp2316
sg75
g2226
sg68
(lp2317
g61
(g82
g63
NtRp2318
(dp2319
g66
(dp2320
g86
g87
ssg75
g2314
sg68
(lp2321
S'HTTP_CACHE_CONTROL'
p2322
asbag61
(g82
g63
NtRp2323
(dp2324
g66
(dp2325
g93
g94
ssg75
g2314
sg68
(lp2326
S':'
asbag61
(g82
g63
NtRp2327
(dp2328
g66
(dp2329
sg75
g2314
sg68
(lp2330
g61
(g62
g63
NtRp2331
(dp2332
g66
(dp2333
g74
I3
ssg75
g2327
sg68
(lp2334
g869
asbasbasbag61
(g77
g63
NtRp2335
(dp2336
g66
(dp2337
sg75
g2226
sg68
(lp2338
g61
(g82
g63
NtRp2339
(dp2340
g66
(dp2341
g86
g87
ssg75
g2335
sg68
(lp2342
S'HTTP_CONNECTION'
p2343
asbag61
(g82
g63
NtRp2344
(dp2345
g66
(dp2346
g93
g94
ssg75
g2335
sg68
(lp2347
S':'
asbag61
(g82
g63
NtRp2348
(dp2349
g66
(dp2350
sg75
g2335
sg68
(lp2351
g61
(g62
g63
NtRp2352
(dp2353
g66
(dp2354
g74
I3
ssg75
g2348
sg68
(lp2355
g891
asbasbasbag61
(g77
g63
NtRp2356
(dp2357
g66
(dp2358
sg75
g2226
sg68
(lp2359
g61
(g82
g63
NtRp2360
(dp2361
g66
(dp2362
g86
g87
ssg75
g2356
sg68
(lp2363
S'HTTP_COOKIE'
p2364
asbag61
(g82
g63
NtRp2365
(dp2366
g66
(dp2367
g93
g94
ssg75
g2356
sg68
(lp2368
S':'
asbag61
(g82
g63
NtRp2369
(dp2370
g66
(dp2371
sg75
g2356
sg68
(lp2372
g61
(g62
g63
NtRp2373
(dp2374
g66
(dp2375
g74
I3
ssg75
g2369
sg68
(lp2376
g913
asbasbasbag61
(g77
g63
NtRp2377
(dp2378
g66
(dp2379
sg75
g2226
sg68
(lp2380
g61
(g82
g63
NtRp2381
(dp2382
g66
(dp2383
g86
g87
ssg75
g2377
sg68
(lp2384
S'HTTP_DNT'
p2385
asbag61
(g82
g63
NtRp2386
(dp2387
g66
(dp2388
g93
g94
ssg75
g2377
sg68
(lp2389
S':'
asbag61
(g82
g63
NtRp2390
(dp2391
g66
(dp2392
sg75
g2377
sg68
(lp2393
g61
(g62
g63
NtRp2394
(dp2395
g66
(dp2396
g74
I3
ssg75
g2390
sg68
(lp2397
S'1'
asbasbasbag61
(g77
g63
NtRp2398
(dp2399
g66
(dp2400
sg75
g2226
sg68
(lp2401
g61
(g82
g63
NtRp2402
(dp2403
g66
(dp2404
g86
g87
ssg75
g2398
sg68
(lp2405
S'HTTP_HOST'
p2406
asbag61
(g82
g63
NtRp2407
(dp2408
g66
(dp2409
g93
g94
ssg75
g2398
sg68
(lp2410
S':'
asbag61
(g82
g63
NtRp2411
(dp2412
g66
(dp2413
sg75
g2398
sg68
(lp2414
g61
(g62
g63
NtRp2415
(dp2416
g66
(dp2417
g74
I3
ssg75
g2411
sg68
(lp2418
g956
asbasbasbag61
(g77
g63
NtRp2419
(dp2420
g66
(dp2421
sg75
g2226
sg68
(lp2422
g61
(g82
g63
NtRp2423
(dp2424
g66
(dp2425
g86
g87
ssg75
g2419
sg68
(lp2426
S'HTTP_USER_AGENT'
p2427
asbag61
(g82
g63
NtRp2428
(dp2429
g66
(dp2430
g93
g94
ssg75
g2419
sg68
(lp2431
S':'
asbag61
(g82
g63
NtRp2432
(dp2433
g66
(dp2434
sg75
g2419
sg68
(lp2435
g61
(g62
g63
NtRp2436
(dp2437
g66
(dp2438
g74
I3
ssg75
g2432
sg68
(lp2439
g978
asbasbasbag61
(g77
g63
NtRp2440
(dp2441
g66
(dp2442
sg75
g2226
sg68
(lp2443
g61
(g82
g63
NtRp2444
(dp2445
g66
(dp2446
g86
g87
ssg75
g2440
sg68
(lp2447
S'PATH_INFO'
p2448
asbag61
(g82
g63
NtRp2449
(dp2450
g66
(dp2451
g93
g94
ssg75
g2440
sg68
(lp2452
S':'
asbag61
(g82
g63
NtRp2453
(dp2454
g66
(dp2455
sg75
g2440
sg68
(lp2456
g61
(g62
g63
NtRp2457
(dp2458
g66
(dp2459
g74
I3
ssg75
g2453
sg68
(lp2460
g1042
asbasbasbag61
(g77
g63
NtRp2461
(dp2462
g66
(dp2463
sg75
g2226
sg68
(lp2464
g61
(g82
g63
NtRp2465
(dp2466
g66
(dp2467
g86
g87
ssg75
g2461
sg68
(lp2468
S'QUERY_STRING'
p2469
asbag61
(g82
g63
NtRp2470
(dp2471
g66
(dp2472
g93
g94
ssg75
g2461
sg68
(lp2473
S':'
asbag61
(g82
g63
NtRp2474
(dp2475
g66
(dp2476
sg75
g2461
sg68
(lp2477
g61
(g62
g63
NtRp2478
(dp2479
g66
(dp2480
g74
I3
ssg75
g2474
sg68
(lp2481
S''
asbasbasbag61
(g77
g63
NtRp2482
(dp2483
g66
(dp2484
sg75
g2226
sg68
(lp2485
g61
(g82
g63
NtRp2486
(dp2487
g66
(dp2488
g86
g87
ssg75
g2482
sg68
(lp2489
S'REMOTE_ADDR'
p2490
asbag61
(g82
g63
NtRp2491
(dp2492
g66
(dp2493
g93
g94
ssg75
g2482
sg68
(lp2494
S':'
asbag61
(g82
g63
NtRp2495
(dp2496
g66
(dp2497
sg75
g2482
sg68
(lp2498
g61
(g62
g63
NtRp2499
(dp2500
g66
(dp2501
g74
I3
ssg75
g2495
sg68
(lp2502
g194
asbasbasbag61
(g77
g63
NtRp2503
(dp2504
g66
(dp2505
sg75
g2226
sg68
(lp2506
g61
(g82
g63
NtRp2507
(dp2508
g66
(dp2509
g86
g87
ssg75
g2503
sg68
(lp2510
S'REMOTE_PORT'
p2511
asbag61
(g82
g63
NtRp2512
(dp2513
g66
(dp2514
g93
g94
ssg75
g2503
sg68
(lp2515
S':'
asbag61
(g82
g63
NtRp2516
(dp2517
g66
(dp2518
sg75
g2503
sg68
(lp2519
g61
(g62
g63
NtRp2520
(dp2521
g66
(dp2522
g74
I3
ssg75
g2516
sg68
(lp2523
g1106
asbasbasbag61
(g77
g63
NtRp2524
(dp2525
g66
(dp2526
sg75
g2226
sg68
(lp2527
g61
(g82
g63
NtRp2528
(dp2529
g66
(dp2530
g86
g87
ssg75
g2524
sg68
(lp2531
S'REQUEST_METHOD'
p2532
asbag61
(g82
g63
NtRp2533
(dp2534
g66
(dp2535
g93
g94
ssg75
g2524
sg68
(lp2536
S':'
asbag61
(g82
g63
NtRp2537
(dp2538
g66
(dp2539
sg75
g2524
sg68
(lp2540
g61
(g62
g63
NtRp2541
(dp2542
g66
(dp2543
g74
I3
ssg75
g2537
sg68
(lp2544
g1128
asbasbasbag61
(g77
g63
NtRp2545
(dp2546
g66
(dp2547
sg75
g2226
sg68
(lp2548
g61
(g82
g63
NtRp2549
(dp2550
g66
(dp2551
g86
g87
ssg75
g2545
sg68
(lp2552
S'SCRIPT_NAME'
p2553
asbag61
(g82
g63
NtRp2554
(dp2555
g66
(dp2556
g93
g94
ssg75
g2545
sg68
(lp2557
S':'
asbag61
(g82
g63
NtRp2558
(dp2559
g66
(dp2560
sg75
g2545
sg68
(lp2561
g61
(g62
g63
NtRp2562
(dp2563
g66
(dp2564
g74
I3
ssg75
g2558
sg68
(lp2565
S''
asbasbasbag61
(g77
g63
NtRp2566
(dp2567
g66
(dp2568
sg75
g2226
sg68
(lp2569
g61
(g82
g63
NtRp2570
(dp2571
g66
(dp2572
g86
g87
ssg75
g2566
sg68
(lp2573
S'SERVER_NAME'
p2574
asbag61
(g82
g63
NtRp2575
(dp2576
g66
(dp2577
g93
g94
ssg75
g2566
sg68
(lp2578
S':'
asbag61
(g82
g63
NtRp2579
(dp2580
g66
(dp2581
sg75
g2566
sg68
(lp2582
g61
(g62
g63
NtRp2583
(dp2584
g66
(dp2585
g74
I3
ssg75
g2579
sg68
(lp2586
g1171
asbasbasbag61
(g77
g63
NtRp2587
(dp2588
g66
(dp2589
sg75
g2226
sg68
(lp2590
g61
(g82
g63
NtRp2591
(dp2592
g66
(dp2593
g86
g87
ssg75
g2587
sg68
(lp2594
S'SERVER_PORT'
p2595
asbag61
(g82
g63
NtRp2596
(dp2597
g66
(dp2598
g93
g94
ssg75
g2587
sg68
(lp2599
S':'
asbag61
(g82
g63
NtRp2600
(dp2601
g66
(dp2602
sg75
g2587
sg68
(lp2603
g61
(g62
g63
NtRp2604
(dp2605
g66
(dp2606
g74
I3
ssg75
g2600
sg68
(lp2607
g1193
asbasbasbag61
(g77
g63
NtRp2608
(dp2609
g66
(dp2610
sg75
g2226
sg68
(lp2611
g61
(g82
g63
NtRp2612
(dp2613
g66
(dp2614
g86
g87
ssg75
g2608
sg68
(lp2615
S'SERVER_PROTOCOL'
p2616
asbag61
(g82
g63
NtRp2617
(dp2618
g66
(dp2619
g93
g94
ssg75
g2608
sg68
(lp2620
S':'
asbag61
(g82
g63
NtRp2621
(dp2622
g66
(dp2623
sg75
g2608
sg68
(lp2624
g61
(g62
g63
NtRp2625
(dp2626
g66
(dp2627
g74
I3
ssg75
g2621
sg68
(lp2628
g1215
asbasbasbag61
(g77
g63
NtRp2629
(dp2630
g66
(dp2631
sg75
g2226
sg68
(lp2632
g61
(g82
g63
NtRp2633
(dp2634
g66
(dp2635
g86
g87
ssg75
g2629
sg68
(lp2636
S'SERVER_SOFTWARE'
p2637
asbag61
(g82
g63
NtRp2638
(dp2639
g66
(dp2640
g93
g94
ssg75
g2629
sg68
(lp2641
S':'
asbag61
(g82
g63
NtRp2642
(dp2643
g66
(dp2644
sg75
g2629
sg68
(lp2645
g61
(g62
g63
NtRp2646
(dp2647
g66
(dp2648
g74
I3
ssg75
g2642
sg68
(lp2649
g1237
asbasbasbag61
(g77
g63
NtRp2650
(dp2651
g66
(dp2652
sg75
g2226
sg68
(lp2653
g61
(g82
g63
NtRp2654
(dp2655
g66
(dp2656
g86
g87
ssg75
g2650
sg68
(lp2657
S'wsgi.errors'
p2658
asbag61
(g82
g63
NtRp2659
(dp2660
g66
(dp2661
g93
g94
ssg75
g2650
sg68
(lp2662
S':'
asbag61
(g82
g63
NtRp2663
(dp2664
g66
(dp2665
sg75
g2650
sg68
(lp2666
g61
(g62
g63
NtRp2667
(dp2668
g66
(dp2669
g74
I3
ssg75
g2663
sg68
(lp2670
S'<__main__.Stderr object at 0x00486670>'
p2671
asbasbasbag61
(g77
g63
NtRp2672
(dp2673
g66
(dp2674
sg75
g2226
sg68
(lp2675
g61
(g82
g63
NtRp2676
(dp2677
g66
(dp2678
g86
g87
ssg75
g2672
sg68
(lp2679
S'wsgi.file_wrapper'
p2680
asbag61
(g82
g63
NtRp2681
(dp2682
g66
(dp2683
g93
g94
ssg75
g2672
sg68
(lp2684
S':'
asbag61
(g82
g63
NtRp2685
(dp2686
g66
(dp2687
sg75
g2672
sg68
(lp2688
g61
(g62
g63
NtRp2689
(dp2690
g66
(dp2691
g74
I3
ssg75
g2685
sg68
(lp2692
S'<class wsgiref.util.FileWrapper at 0x02EEDE10>'
p2693
asbasbasbag61
(g77
g63
NtRp2694
(dp2695
g66
(dp2696
sg75
g2226
sg68
(lp2697
g61
(g82
g63
NtRp2698
(dp2699
g66
(dp2700
g86
g87
ssg75
g2694
sg68
(lp2701
S'wsgi.input'
p2702
asbag61
(g82
g63
NtRp2703
(dp2704
g66
(dp2705
g93
g94
ssg75
g2694
sg68
(lp2706
S':'
asbag61
(g82
g63
NtRp2707
(dp2708
g66
(dp2709
sg75
g2694
sg68
(lp2710
g61
(g62
g63
NtRp2711
(dp2712
g66
(dp2713
g74
I3
ssg75
g2707
sg68
(lp2714
S'<cStringIO.StringO object at 0x06CFC2A0>'
p2715
asbasbasbag61
(g77
g63
NtRp2716
(dp2717
g66
(dp2718
sg75
g2226
sg68
(lp2719
g61
(g82
g63
NtRp2720
(dp2721
g66
(dp2722
g86
g87
ssg75
g2716
sg68
(lp2723
S'wsgi.multiprocess'
p2724
asbag61
(g82
g63
NtRp2725
(dp2726
g66
(dp2727
g93
g94
ssg75
g2716
sg68
(lp2728
S':'
asbag61
(g82
g63
NtRp2729
(dp2730
g66
(dp2731
sg75
g2716
sg68
(lp2732
g61
(g62
g63
NtRp2733
(dp2734
g66
(dp2735
g74
I3
ssg75
g2729
sg68
(lp2736
g104
asbasbasbag61
(g77
g63
NtRp2737
(dp2738
g66
(dp2739
sg75
g2226
sg68
(lp2740
g61
(g82
g63
NtRp2741
(dp2742
g66
(dp2743
g86
g87
ssg75
g2737
sg68
(lp2744
S'wsgi.multithread'
p2745
asbag61
(g82
g63
NtRp2746
(dp2747
g66
(dp2748
g93
g94
ssg75
g2737
sg68
(lp2749
S':'
asbag61
(g82
g63
NtRp2750
(dp2751
g66
(dp2752
sg75
g2737
sg68
(lp2753
g61
(g62
g63
NtRp2754
(dp2755
g66
(dp2756
g74
I3
ssg75
g2750
sg68
(lp2757
g1477
asbasbasbag61
(g77
g63
NtRp2758
(dp2759
g66
(dp2760
sg75
g2226
sg68
(lp2761
g61
(g82
g63
NtRp2762
(dp2763
g66
(dp2764
g86
g87
ssg75
g2758
sg68
(lp2765
S'wsgi.run_once'
p2766
asbag61
(g82
g63
NtRp2767
(dp2768
g66
(dp2769
g93
g94
ssg75
g2758
sg68
(lp2770
S':'
asbag61
(g82
g63
NtRp2771
(dp2772
g66
(dp2773
sg75
g2758
sg68
(lp2774
g61
(g62
g63
NtRp2775
(dp2776
g66
(dp2777
g74
I3
ssg75
g2771
sg68
(lp2778
g104
asbasbasbag61
(g77
g63
NtRp2779
(dp2780
g66
(dp2781
sg75
g2226
sg68
(lp2782
g61
(g82
g63
NtRp2783
(dp2784
g66
(dp2785
g86
g87
ssg75
g2779
sg68
(lp2786
S'wsgi.url_scheme'
p2787
asbag61
(g82
g63
NtRp2788
(dp2789
g66
(dp2790
g93
g94
ssg75
g2779
sg68
(lp2791
S':'
asbag61
(g82
g63
NtRp2792
(dp2793
g66
(dp2794
sg75
g2779
sg68
(lp2795
g61
(g62
g63
NtRp2796
(dp2797
g66
(dp2798
g74
I3
ssg75
g2792
sg68
(lp2799
g1520
asbasbasbag61
(g77
g63
NtRp2800
(dp2801
g66
(dp2802
sg75
g2226
sg68
(lp2803
g61
(g82
g63
NtRp2804
(dp2805
g66
(dp2806
g86
g87
ssg75
g2800
sg68
(lp2807
S'wsgi.version'
p2808
asbag61
(g82
g63
NtRp2809
(dp2810
g66
(dp2811
g93
g94
ssg75
g2800
sg68
(lp2812
S':'
asbag61
(g82
g63
NtRp2813
(dp2814
g66
(dp2815
sg75
g2800
sg68
(lp2816
g61
(g62
g63
NtRp2817
(dp2818
g66
(dp2819
g74
I3
ssg75
g2813
sg68
(lp2820
S'1'
asbasbasbasbasbasbasbasbasbasbasbasbasbsS'frames'
p2821
(lp2822
(dp2823
S'file'
p2824
S'C:\\web2py\\gluon\\restricted.py'
p2825
sS'dump'
p2826
(dp2827
sS'lnum'
p2828
I204
sS'lines'
p2829
(dp2830
sS'call'
p2831
S'(code=r"response.write(\'<!DOCTYPE html>\\n<!-- paulirish....ponse.write(\'\\n</body>\\n</html>\\n\', escape=False)", environment={\'A\': <class \'gluon.html.A\'>, \'Auth\': <class \'gluon.tools.Auth\'>, \'B\': <class \'gluon.html.B\'>, \'BEAUTIFY\': <class \'gluon.html.BEAUTIFY\'>, \'BODY\': <class \'gluon.html.BODY\'>, \'BR\': <class \'gluon.html.BR\'>, \'BUTTON\': <class \'gluon.html.BUTTON\'>, \'CAT\': <class \'gluon.html.CAT\'>, \'CENTER\': <class \'gluon.html.CENTER\'>, \'CLEANUP\': <class \'gluon.validators.CLEANUP\'>, ...}, layer=r\'C:\\web2py\\applications\\unioeste_code\\views\\default/index.html\')'
p2832
sS'func'
p2833
S'restricted'
p2834
sa(dp2835
g2824
S'C:\\web2py\\gluon\\restricted.py'
p2836
sg2826
(dp2837
sg2828
I189
sg2829
(dp2838
sg2831
S'(code=r"response.write(\'<!DOCTYPE html>\\n<!-- paulirish....ponse.write(\'\\n</body>\\n</html>\\n\', escape=False)", layer=r\'C:\\web2py\\applications\\unioeste_code\\views\\default/index.html\')'
p2839
sg2833
S'compile2'
p2840
sasS'pyver'
p2841
S'Python 2.5.4: C:\\web2py\\web2py_no_console.exe'
p2842
sS'session'
p2843
g61
(g62
g63
NtRp2844
(dp2845
g66
(dp2846
sg68
(lp2847
g61
(g70
g63
NtRp2848
(dp2849
g66
(dp2850
g74
I5
ssg75
Nsg68
(lp2851
sbasbsS'etype'
p2852
S"<type 'exceptions.SyntaxError'>"
p2853
sS'date'
p2854
S'Mon Jul 30 15:48:20 2012'
p2855
sS'response'
p2856
g61
(g62
g63
NtRp2857
(dp2858
g66
(dp2859
sg68
(lp2860
g61
(g70
g63
NtRp2861
(dp2862
g66
(dp2863
g74
I5
ssg75
Nsg68
(lp2864
g61
(g77
g63
NtRp2865
(dp2866
g66
(dp2867
sg75
g2861
sg68
(lp2868
g61
(g82
g63
NtRp2869
(dp2870
g66
(dp2871
g86
g87
ssg75
g2865
sg68
(lp2872
g159
asbag61
(g82
g63
NtRp2873
(dp2874
g66
(dp2875
g93
g94
ssg75
g2865
sg68
(lp2876
S':'
asbag61
(g82
g63
NtRp2877
(dp2878
g66
(dp2879
sg75
g2865
sg68
(lp2880
g61
(g62
g63
NtRp2881
(dp2882
g66
(dp2883
g74
I5
ssg75
g2877
sg68
(lp2884
S'<cStringIO.StringO object at 0x0705B5E0>'
p2885
asbasbasbag61
(g77
g63
NtRp2886
(dp2887
g66
(dp2888
sg75
g2861
sg68
(lp2889
g61
(g82
g63
NtRp2890
(dp2891
g66
(dp2892
g86
g87
ssg75
g2886
sg68
(lp2893
g225
asbag61
(g82
g63
NtRp2894
(dp2895
g66
(dp2896
g93
g94
ssg75
g2886
sg68
(lp2897
S':'
asbag61
(g82
g63
NtRp2898
(dp2899
g66
(dp2900
sg75
g2886
sg68
(lp2901
g61
(g62
g63
NtRp2902
(dp2903
g66
(dp2904
g74
I5
ssg75
g2898
sg68
(lp2905
g61
(g70
g63
NtRp2906
(dp2907
g66
(dp2908
g74
I4
ssg75
Nsg68
(lp2909
g61
(g77
g63
NtRp2910
(dp2911
g66
(dp2912
sg75
g2906
sg68
(lp2913
g61
(g82
g63
NtRp2914
(dp2915
g66
(dp2916
g86
g87
ssg75
g2910
sg68
(lp2917
S'session_id_unioeste_code'
p2918
asbag61
(g82
g63
NtRp2919
(dp2920
g66
(dp2921
g93
g94
ssg75
g2910
sg68
(lp2922
S':'
asbag61
(g82
g63
NtRp2923
(dp2924
g66
(dp2925
sg75
g2910
sg68
(lp2926
g61
(g62
g63
NtRp2927
(dp2928
g66
(dp2929
g74
I4
ssg75
g2923
sg68
(lp2930
g61
(g70
g63
NtRp2931
(dp2932
g66
(dp2933
g74
I3
ssg75
Nsg68
(lp2934
g61
(g77
g63
NtRp2935
(dp2936
g66
(dp2937
sg75
g2931
sg68
(lp2938
g61
(g82
g63
NtRp2939
(dp2940
g66
(dp2941
g86
g87
ssg75
g2935
sg68
(lp2942
g275
asbag61
(g82
g63
NtRp2943
(dp2944
g66
(dp2945
g93
g94
ssg75
g2935
sg68
(lp2946
S':'
asbag61
(g82
g63
NtRp2947
(dp2948
g66
(dp2949
sg75
g2935
sg68
(lp2950
g61
(g62
g63
NtRp2951
(dp2952
g66
(dp2953
g74
I3
ssg75
g2947
sg68
(lp2954
S''
asbasbasbag61
(g77
g63
NtRp2955
(dp2956
g66
(dp2957
sg75
g2931
sg68
(lp2958
g61
(g82
g63
NtRp2959
(dp2960
g66
(dp2961
g86
g87
ssg75
g2955
sg68
(lp2962
g296
asbag61
(g82
g63
NtRp2963
(dp2964
g66
(dp2965
g93
g94
ssg75
g2955
sg68
(lp2966
S':'
asbag61
(g82
g63
NtRp2967
(dp2968
g66
(dp2969
sg75
g2955
sg68
(lp2970
g61
(g62
g63
NtRp2971
(dp2972
g66
(dp2973
g74
I3
ssg75
g2967
sg68
(lp2974
S''
asbasbasbag61
(g77
g63
NtRp2975
(dp2976
g66
(dp2977
sg75
g2931
sg68
(lp2978
g61
(g82
g63
NtRp2979
(dp2980
g66
(dp2981
g86
g87
ssg75
g2975
sg68
(lp2982
g317
asbag61
(g82
g63
NtRp2983
(dp2984
g66
(dp2985
g93
g94
ssg75
g2975
sg68
(lp2986
S':'
asbag61
(g82
g63
NtRp2987
(dp2988
g66
(dp2989
sg75
g2975
sg68
(lp2990
g61
(g62
g63
NtRp2991
(dp2992
g66
(dp2993
g74
I3
ssg75
g2987
sg68
(lp2994
S''
asbasbasbag61
(g77
g63
NtRp2995
(dp2996
g66
(dp2997
sg75
g2931
sg68
(lp2998
g61
(g82
g63
NtRp2999
(dp3000
g66
(dp3001
g86
g87
ssg75
g2995
sg68
(lp3002
g338
asbag61
(g82
g63
NtRp3003
(dp3004
g66
(dp3005
g93
g94
ssg75
g2995
sg68
(lp3006
S':'
asbag61
(g82
g63
NtRp3007
(dp3008
g66
(dp3009
sg75
g2995
sg68
(lp3010
g61
(g62
g63
NtRp3011
(dp3012
g66
(dp3013
g74
I3
ssg75
g3007
sg68
(lp3014
S''
asbasbasbag61
(g77
g63
NtRp3015
(dp3016
g66
(dp3017
sg75
g2931
sg68
(lp3018
g61
(g82
g63
NtRp3019
(dp3020
g66
(dp3021
g86
g87
ssg75
g3015
sg68
(lp3022
g359
asbag61
(g82
g63
NtRp3023
(dp3024
g66
(dp3025
g93
g94
ssg75
g3015
sg68
(lp3026
S':'
asbag61
(g82
g63
NtRp3027
(dp3028
g66
(dp3029
sg75
g3015
sg68
(lp3030
g61
(g62
g63
NtRp3031
(dp3032
g66
(dp3033
g74
I3
ssg75
g3027
sg68
(lp3034
S'/'
asbasbasbag61
(g77
g63
NtRp3035
(dp3036
g66
(dp3037
sg75
g2931
sg68
(lp3038
g61
(g82
g63
NtRp3039
(dp3040
g66
(dp3041
g86
g87
ssg75
g3035
sg68
(lp3042
g380
asbag61
(g82
g63
NtRp3043
(dp3044
g66
(dp3045
g93
g94
ssg75
g3035
sg68
(lp3046
S':'
asbag61
(g82
g63
NtRp3047
(dp3048
g66
(dp3049
sg75
g3035
sg68
(lp3050
g61
(g62
g63
NtRp3051
(dp3052
g66
(dp3053
g74
I3
ssg75
g3047
sg68
(lp3054
S''
asbasbasbag61
(g77
g63
NtRp3055
(dp3056
g66
(dp3057
sg75
g2931
sg68
(lp3058
g61
(g82
g63
NtRp3059
(dp3060
g66
(dp3061
g86
g87
ssg75
g3055
sg68
(lp3062
g401
asbag61
(g82
g63
NtRp3063
(dp3064
g66
(dp3065
g93
g94
ssg75
g3055
sg68
(lp3066
S':'
asbag61
(g82
g63
NtRp3067
(dp3068
g66
(dp3069
sg75
g3055
sg68
(lp3070
g61
(g62
g63
NtRp3071
(dp3072
g66
(dp3073
g74
I3
ssg75
g3067
sg68
(lp3074
S''
asbasbasbasbasbasbasbasbasbasbasbag61
(g77
g63
NtRp3075
(dp3076
g66
(dp3077
sg75
g2861
sg68
(lp3078
g61
(g82
g63
NtRp3079
(dp3080
g66
(dp3081
g86
g87
ssg75
g3075
sg68
(lp3082
S'delimiters'
p3083
asbag61
(g82
g63
NtRp3084
(dp3085
g66
(dp3086
g93
g94
ssg75
g3075
sg68
(lp3087
S':'
asbag61
(g82
g63
NtRp3088
(dp3089
g66
(dp3090
sg75
g3075
sg68
(lp3091
g61
(g62
g63
NtRp3092
(dp3093
g66
(dp3094
g74
I5
ssg75
g3088
sg68
(lp3095
g61
(g70
g63
NtRp3096
(dp3097
g66
(dp3098
g74
I4
ssg75
Nsg68
(lp3099
g61
(g77
g63
NtRp3100
(dp3101
g66
(dp3102
sg75
g3096
sg68
(lp3103
g61
(g82
g63
NtRp3104
(dp3105
g66
(dp3106
sg75
g3100
sg68
(lp3107
g61
(g62
g63
NtRp3108
(dp3109
g66
(dp3110
g74
I4
ssg75
g3104
sg68
(lp3111
S'{{'
p3112
asbasbasbag61
(g77
g63
NtRp3113
(dp3114
g66
(dp3115
sg75
g3096
sg68
(lp3116
g61
(g82
g63
NtRp3117
(dp3118
g66
(dp3119
sg75
g3113
sg68
(lp3120
g61
(g62
g63
NtRp3121
(dp3122
g66
(dp3123
g74
I4
ssg75
g3117
sg68
(lp3124
S'}}'
p3125
asbasbasbasbasbasbasbag61
(g77
g63
NtRp3126
(dp3127
g66
(dp3128
sg75
g2861
sg68
(lp3129
g61
(g82
g63
NtRp3130
(dp3131
g66
(dp3132
g86
g87
ssg75
g3126
sg68
(lp3133
S'files'
p3134
asbag61
(g82
g63
NtRp3135
(dp3136
g66
(dp3137
g93
g94
ssg75
g3126
sg68
(lp3138
S':'
asbag61
(g82
g63
NtRp3139
(dp3140
g66
(dp3141
sg75
g3126
sg68
(lp3142
g61
(g62
g63
NtRp3143
(dp3144
g66
(dp3145
g74
I5
ssg75
g3139
sg68
(lp3146
g61
(g70
g63
NtRp3147
(dp3148
g66
(dp3149
g74
I4
ssg75
Nsg68
(lp3150
sbasbasbasbag61
(g77
g63
NtRp3151
(dp3152
g66
(dp3153
sg75
g2861
sg68
(lp3154
g61
(g82
g63
NtRp3155
(dp3156
g66
(dp3157
g86
g87
ssg75
g3151
sg68
(lp3158
S'flash'
p3159
asbag61
(g82
g63
NtRp3160
(dp3161
g66
(dp3162
g93
g94
ssg75
g3151
sg68
(lp3163
S':'
asbag61
(g82
g63
NtRp3164
(dp3165
g66
(dp3166
sg75
g3151
sg68
(lp3167
g61
(g62
g63
NtRp3168
(dp3169
g66
(dp3170
g74
I5
ssg75
g3164
sg68
(lp3171
S''
asbasbasbag61
(g77
g63
NtRp3172
(dp3173
g66
(dp3174
sg75
g2861
sg68
(lp3175
g61
(g82
g63
NtRp3176
(dp3177
g66
(dp3178
g86
g87
ssg75
g3172
sg68
(lp3179
S'generic_patterns'
p3180
asbag61
(g82
g63
NtRp3181
(dp3182
g66
(dp3183
g93
g94
ssg75
g3172
sg68
(lp3184
S':'
asbag61
(g82
g63
NtRp3185
(dp3186
g66
(dp3187
sg75
g3172
sg68
(lp3188
g61
(g62
g63
NtRp3189
(dp3190
g66
(dp3191
g74
I5
ssg75
g3185
sg68
(lp3192
g61
(g70
g63
NtRp3193
(dp3194
g66
(dp3195
g74
I4
ssg75
Nsg68
(lp3196
sbasbasbasbag61
(g77
g63
NtRp3197
(dp3198
g66
(dp3199
sg75
g2861
sg68
(lp3200
g61
(g82
g63
NtRp3201
(dp3202
g66
(dp3203
g86
g87
ssg75
g3197
sg68
(lp3204
S'headers'
p3205
asbag61
(g82
g63
NtRp3206
(dp3207
g66
(dp3208
g93
g94
ssg75
g3197
sg68
(lp3209
S':'
asbag61
(g82
g63
NtRp3210
(dp3211
g66
(dp3212
sg75
g3197
sg68
(lp3213
g61
(g62
g63
NtRp3214
(dp3215
g66
(dp3216
g74
I5
ssg75
g3210
sg68
(lp3217
g61
(g70
g63
NtRp3218
(dp3219
g66
(dp3220
g74
I4
ssg75
Nsg68
(lp3221
g61
(g77
g63
NtRp3222
(dp3223
g66
(dp3224
sg75
g3218
sg68
(lp3225
g61
(g82
g63
NtRp3226
(dp3227
g66
(dp3228
g86
g87
ssg75
g3222
sg68
(lp3229
S'Cache-Control'
p3230
asbag61
(g82
g63
NtRp3231
(dp3232
g66
(dp3233
g93
g94
ssg75
g3222
sg68
(lp3234
S':'
asbag61
(g82
g63
NtRp3235
(dp3236
g66
(dp3237
sg75
g3222
sg68
(lp3238
g61
(g62
g63
NtRp3239
(dp3240
g66
(dp3241
g74
I4
ssg75
g3235
sg68
(lp3242
S'no-store, no-cache, must-revalidate, post-check=0, pre-check=0'
p3243
asbasbasbag61
(g77
g63
NtRp3244
(dp3245
g66
(dp3246
sg75
g3218
sg68
(lp3247
g61
(g82
g63
NtRp3248
(dp3249
g66
(dp3250
g86
g87
ssg75
g3244
sg68
(lp3251
S'Content-Type'
p3252
asbag61
(g82
g63
NtRp3253
(dp3254
g66
(dp3255
g93
g94
ssg75
g3244
sg68
(lp3256
S':'
asbag61
(g82
g63
NtRp3257
(dp3258
g66
(dp3259
sg75
g3244
sg68
(lp3260
g61
(g62
g63
NtRp3261
(dp3262
g66
(dp3263
g74
I4
ssg75
g3257
sg68
(lp3264
S'text/html; charset=utf-8'
p3265
asbasbasbag61
(g77
g63
NtRp3266
(dp3267
g66
(dp3268
sg75
g3218
sg68
(lp3269
g61
(g82
g63
NtRp3270
(dp3271
g66
(dp3272
g86
g87
ssg75
g3266
sg68
(lp3273
S'Expires'
p3274
asbag61
(g82
g63
NtRp3275
(dp3276
g66
(dp3277
g93
g94
ssg75
g3266
sg68
(lp3278
S':'
asbag61
(g82
g63
NtRp3279
(dp3280
g66
(dp3281
sg75
g3266
sg68
(lp3282
g61
(g62
g63
NtRp3283
(dp3284
g66
(dp3285
g74
I4
ssg75
g3279
sg68
(lp3286
S'Mon, 30 Jul 2012 18:48:19 GMT'
p3287
asbasbasbag61
(g77
g63
NtRp3288
(dp3289
g66
(dp3290
sg75
g3218
sg68
(lp3291
g61
(g82
g63
NtRp3292
(dp3293
g66
(dp3294
g86
g87
ssg75
g3288
sg68
(lp3295
S'Pragma'
p3296
asbag61
(g82
g63
NtRp3297
(dp3298
g66
(dp3299
g93
g94
ssg75
g3288
sg68
(lp3300
S':'
asbag61
(g82
g63
NtRp3301
(dp3302
g66
(dp3303
sg75
g3288
sg68
(lp3304
g61
(g62
g63
NtRp3305
(dp3306
g66
(dp3307
g74
I4
ssg75
g3301
sg68
(lp3308
S'no-cache'
p3309
asbasbasbag61
(g77
g63
NtRp3310
(dp3311
g66
(dp3312
sg75
g3218
sg68
(lp3313
g61
(g82
g63
NtRp3314
(dp3315
g66
(dp3316
g86
g87
ssg75
g3310
sg68
(lp3317
S'X-Powered-By'
p3318
asbag61
(g82
g63
NtRp3319
(dp3320
g66
(dp3321
g93
g94
ssg75
g3310
sg68
(lp3322
S':'
asbag61
(g82
g63
NtRp3323
(dp3324
g66
(dp3325
sg75
g3310
sg68
(lp3326
g61
(g62
g63
NtRp3327
(dp3328
g66
(dp3329
g74
I4
ssg75
g3323
sg68
(lp3330
S'web2py'
p3331
asbasbasbasbasbasbasbag61
(g77
g63
NtRp3332
(dp3333
g66
(dp3334
sg75
g2861
sg68
(lp3335
g61
(g82
g63
NtRp3336
(dp3337
g66
(dp3338
g86
g87
ssg75
g3332
sg68
(lp3339
S'menu'
p3340
asbag61
(g82
g63
NtRp3341
(dp3342
g66
(dp3343
g93
g94
ssg75
g3332
sg68
(lp3344
S':'
asbag61
(g82
g63
NtRp3345
(dp3346
g66
(dp3347
sg75
g3332
sg68
(lp3348
g61
(g62
g63
NtRp3349
(dp3350
g66
(dp3351
g74
I5
ssg75
g3345
sg68
(lp3352
g61
(g70
g63
NtRp3353
(dp3354
g66
(dp3355
g74
I4
ssg75
Nsg68
(lp3356
g61
(g77
g63
NtRp3357
(dp3358
g66
(dp3359
sg75
g3353
sg68
(lp3360
g61
(g82
g63
NtRp3361
(dp3362
g66
(dp3363
sg75
g3357
sg68
(lp3364
g61
(g62
g63
NtRp3365
(dp3366
g66
(dp3367
g74
I4
ssg75
g3361
sg68
(lp3368
g61
(g70
g63
NtRp3369
(dp3370
g66
(dp3371
g74
I3
ssg75
Nsg68
(lp3372
g61
(g77
g63
NtRp3373
(dp3374
g66
(dp3375
sg75
g3369
sg68
(lp3376
g61
(g82
g63
NtRp3377
(dp3378
g66
(dp3379
sg75
g3373
sg68
(lp3380
g61
(g62
g63
NtRp3381
(dp3382
g66
(dp3383
g74
I3
ssg75
g3377
sg68
(lp3384
cgluon.languages
lazyT_unpickle
p3385
(S't\x04\x00\x00\x00Home'
tRp3386
asbasbasbag61
(g77
g63
NtRp3387
(dp3388
g66
(dp3389
sg75
g3369
sg68
(lp3390
g61
(g82
g63
NtRp3391
(dp3392
g66
(dp3393
sg75
g3387
sg68
(lp3394
g61
(g62
g63
NtRp3395
(dp3396
g66
(dp3397
g74
I3
ssg75
g3391
sg68
(lp3398
g104
asbasbasbag61
(g77
g63
NtRp3399
(dp3400
g66
(dp3401
sg75
g3369
sg68
(lp3402
g61
(g82
g63
NtRp3403
(dp3404
g66
(dp3405
sg75
g3399
sg68
(lp3406
g61
(g62
g63
NtRp3407
(dp3408
g66
(dp3409
g74
I3
ssg75
g3403
sg68
(lp3410
S'/unioeste_code/default/index'
p3411
asbasbasbag61
(g77
g63
NtRp3412
(dp3413
g66
(dp3414
sg75
g3369
sg68
(lp3415
g61
(g82
g63
NtRp3416
(dp3417
g66
(dp3418
sg75
g3412
sg68
(lp3419
g61
(g62
g63
NtRp3420
(dp3421
g66
(dp3422
g74
I3
ssg75
g3416
sg68
(lp3423
g61
(g70
g63
NtRp3424
(dp3425
g66
(dp3426
g74
I2
ssg75
Nsg68
(lp3427
sbasbasbasbasbasbasbasbag61
(g77
g63
NtRp3428
(dp3429
g66
(dp3430
sg75
g3353
sg68
(lp3431
g61
(g82
g63
NtRp3432
(dp3433
g66
(dp3434
sg75
g3428
sg68
(lp3435
g61
(g62
g63
NtRp3436
(dp3437
g66
(dp3438
g74
I4
ssg75
g3432
sg68
(lp3439
g61
(g70
g63
NtRp3440
(dp3441
g66
(dp3442
g74
I3
ssg75
Nsg68
(lp3443
g61
(g77
g63
NtRp3444
(dp3445
g66
(dp3446
sg75
g3440
sg68
(lp3447
g61
(g82
g63
NtRp3448
(dp3449
g66
(dp3450
sg75
g3444
sg68
(lp3451
g61
(g62
g63
NtRp3452
(dp3453
g66
(dp3454
g74
I3
ssg75
g3448
sg68
(lp3455
g61
(cgluon.html
SPAN
p3456
g63
NtRp3457
(dp3458
g66
(dp3459
g86
S'color:yellow'
p3460
ssg75
Nsg68
(lp3461
g3331
asbasbasbasbag61
(g77
g63
NtRp3462
(dp3463
g66
(dp3464
sg75
g3440
sg68
(lp3465
g61
(g82
g63
NtRp3466
(dp3467
g66
(dp3468
sg75
g3462
sg68
(lp3469
g61
(g62
g63
NtRp3470
(dp3471
g66
(dp3472
g74
I3
ssg75
g3466
sg68
(lp3473
g104
asbasbasbag61
(g77
g63
NtRp3474
(dp3475
g66
(dp3476
sg75
g3440
sg68
(lp3477
g61
(g82
g63
NtRp3478
(dp3479
g66
(dp3480
sg75
g3474
sg68
(lp3481
g61
(g62
g63
NtRp3482
(dp3483
g66
(dp3484
g74
I3
ssg75
g3478
sg68
(lp3485
S'None'
p3486
asbasbasbag61
(g77
g63
NtRp3487
(dp3488
g66
(dp3489
sg75
g3440
sg68
(lp3490
g61
(g82
g63
NtRp3491
(dp3492
g66
(dp3493
sg75
g3487
sg68
(lp3494
g61
(g62
g63
NtRp3495
(dp3496
g66
(dp3497
g74
I3
ssg75
g3491
sg68
(lp3498
g61
(g70
g63
NtRp3499
(dp3500
g66
(dp3501
g74
I2
ssg75
Nsg68
(lp3502
g61
(g77
g63
NtRp3503
(dp3504
g66
(dp3505
sg75
g3499
sg68
(lp3506
g61
(g82
g63
NtRp3507
(dp3508
g66
(dp3509
sg75
g3503
sg68
(lp3510
g61
(g62
g63
NtRp3511
(dp3512
g66
(dp3513
g74
I2
ssg75
g3507
sg68
(lp3514
g61
(g70
g63
NtRp3515
(dp3516
g66
(dp3517
g74
I1
ssg75
Nsg68
(lp3518
g61
(g77
g63
NtRp3519
(dp3520
g66
(dp3521
sg75
g3515
sg68
(lp3522
g61
(g82
g63
NtRp3523
(dp3524
g66
(dp3525
sg75
g3519
sg68
(lp3526
g61
(g62
g63
NtRp3527
(dp3528
g66
(dp3529
g74
I1
ssg75
g3523
sg68
(lp3530
g3385
(S's\x08\x00\x00\x00My Sites'
tRp3531
asbasbasbag61
(g77
g63
NtRp3532
(dp3533
g66
(dp3534
sg75
g3515
sg68
(lp3535
g61
(g82
g63
NtRp3536
(dp3537
g66
(dp3538
sg75
g3532
sg68
(lp3539
g61
(g62
g63
NtRp3540
(dp3541
g66
(dp3542
g74
I1
ssg75
g3536
sg68
(lp3543
I00
asbasbasbag61
(g77
g63
NtRp3544
(dp3545
g66
(dp3546
sg75
g3515
sg68
(lp3547
g61
(g82
g63
NtRp3548
(dp3549
g66
(dp3550
sg75
g3544
sg68
(lp3551
g61
(g62
g63
NtRp3552
(dp3553
g66
(dp3554
g74
I1
ssg75
g3548
sg68
(lp3555
S'/admin/default/site'
p3556
asbasbasbasbasbasbasbag61
(g77
g63
NtRp3557
(dp3558
g66
(dp3559
sg75
g3499
sg68
(lp3560
g61
(g82
g63
NtRp3561
(dp3562
g66
(dp3563
sg75
g3557
sg68
(lp3564
g61
(g62
g63
NtRp3565
(dp3566
g66
(dp3567
g74
I2
ssg75
g3561
sg68
(lp3568
g61
(g70
g63
NtRp3569
(dp3570
g66
(dp3571
g74
I1
ssg75
Nsg68
(lp3572
g61
(g77
g63
NtRp3573
(dp3574
g66
(dp3575
sg75
g3569
sg68
(lp3576
g61
(g82
g63
NtRp3577
(dp3578
g66
(dp3579
sg75
g3573
sg68
(lp3580
g61
(g62
g63
NtRp3581
(dp3582
g66
(dp3583
g74
I1
ssg75
g3577
sg68
(lp3584
g3385
(S's\x08\x00\x00\x00This App'
tRp3585
asbasbasbag61
(g77
g63
NtRp3586
(dp3587
g66
(dp3588
sg75
g3569
sg68
(lp3589
g61
(g82
g63
NtRp3590
(dp3591
g66
(dp3592
sg75
g3586
sg68
(lp3593
g61
(g62
g63
NtRp3594
(dp3595
g66
(dp3596
g74
I1
ssg75
g3590
sg68
(lp3597
I00
asbasbasbag61
(g77
g63
NtRp3598
(dp3599
g66
(dp3600
sg75
g3569
sg68
(lp3601
g61
(g82
g63
NtRp3602
(dp3603
g66
(dp3604
sg75
g3598
sg68
(lp3605
g61
(g62
g63
NtRp3606
(dp3607
g66
(dp3608
g74
I1
ssg75
g3602
sg68
(lp3609
S'/admin/default/design/unioeste_code'
p3610
asbasbasbag61
(g77
g63
NtRp3611
(dp3612
g66
(dp3613
sg75
g3569
sg68
(lp3614
g61
(g82
g63
NtRp3615
(dp3616
g66
(dp3617
sg75
g3611
sg68
(lp3618
g61
(g62
g63
NtRp3619
(dp3620
g66
(dp3621
g74
I1
ssg75
g3615
sg68
(lp3622
(lp3623
(g3385
(S't\x0b\x00\x00\x00Controlador'
tRp3624
I00
S'/admin/default/edit/unioeste_code/controllers/default.py'
tp3625
a(g3385
(S's\x0e\x00\x00\x00Visualiza\xc3\xa7\xc3\xa3o'
tRp3626
I00
S'/admin/default/edit/unioeste_code/views/default/index.html'
tp3627
a(g3385
(S't\x06\x00\x00\x00Layout'
tRp3628
I00
S'/admin/default/edit/unioeste_code/views/layout.html'
tp3629
a(g3385
(S't\n\x00\x00\x00Stylesheet'
tRp3630
I00
S'/admin/default/edit/unioeste_code/static/css/web2py.css'
tp3631
a(g3385
(S's\t\x00\x00\x00Modelo BD'
tRp3632
I00
S'/admin/default/edit/unioeste_code/models/db.py'
tp3633
a(g3385
(S's\x0e\x00\x00\x00Modelo de Menu'
tRp3634
I00
S'/admin/default/edit/unioeste_code/models/menu.py'
tp3635
a(g3385
(S's\x0e\x00\x00\x00Banco de dados'
tRp3636
I00
S'/unioeste_code/appadmin/index'
tp3637
a(g3385
(S't\x06\x00\x00\x00Errors'
tRp3638
I00
S'/admin/default/errors/unioeste_code'
tp3639
a(g3385
(S't\x05\x00\x00\x00About'
tRp3640
I00
S'/admin/default/about/unioeste_code'
tp3641
aasbasbasbasbasbasbasbag61
(g77
g63
NtRp3642
(dp3643
g66
(dp3644
sg75
g3499
sg68
(lp3645
g61
(g82
g63
NtRp3646
(dp3647
g66
(dp3648
sg75
g3642
sg68
(lp3649
g61
(g62
g63
NtRp3650
(dp3651
g66
(dp3652
g74
I2
ssg75
g3646
sg68
(lp3653
g61
(g70
g63
NtRp3654
(dp3655
g66
(dp3656
g74
I1
ssg75
Nsg68
(lp3657
g61
(g77
g63
NtRp3658
(dp3659
g66
(dp3660
sg75
g3654
sg68
(lp3661
g61
(g82
g63
NtRp3662
(dp3663
g66
(dp3664
sg75
g3658
sg68
(lp3665
g61
(g62
g63
NtRp3666
(dp3667
g66
(dp3668
g74
I1
ssg75
g3662
sg68
(lp3669
S'web2py.com'
p3670
asbasbasbag61
(g77
g63
NtRp3671
(dp3672
g66
(dp3673
sg75
g3654
sg68
(lp3674
g61
(g82
g63
NtRp3675
(dp3676
g66
(dp3677
sg75
g3671
sg68
(lp3678
g61
(g62
g63
NtRp3679
(dp3680
g66
(dp3681
g74
I1
ssg75
g3675
sg68
(lp3682
I00
asbasbasbag61
(g77
g63
NtRp3683
(dp3684
g66
(dp3685
sg75
g3654
sg68
(lp3686
g61
(g82
g63
NtRp3687
(dp3688
g66
(dp3689
sg75
g3683
sg68
(lp3690
g61
(g62
g63
NtRp3691
(dp3692
g66
(dp3693
g74
I1
ssg75
g3687
sg68
(lp3694
S'http://www.web2py.com'
p3695
asbasbasbag61
(g77
g63
NtRp3696
(dp3697
g66
(dp3698
sg75
g3654
sg68
(lp3699
g61
(g82
g63
NtRp3700
(dp3701
g66
(dp3702
sg75
g3696
sg68
(lp3703
g61
(g62
g63
NtRp3704
(dp3705
g66
(dp3706
g74
I1
ssg75
g3700
sg68
(lp3707
(lp3708
(g3385
(S't\x08\x00\x00\x00Download'
tRp3709
I00
S'http://www.web2py.com/examples/default/download'
p3710
tp3711
a(g3385
(S't\x07\x00\x00\x00Support'
tRp3712
I00
S'http://www.web2py.com/examples/default/support'
p3713
tp3714
a(g3385
(S't\x04\x00\x00\x00Demo'
tRp3715
I00
S'http://web2py.com/demo_admin'
p3716
tp3717
a(g3385
(S's\x0e\x00\x00\x00Quick Examples'
tRp3718
I00
S'http://web2py.com/examples/default/examples'
p3719
tp3720
a(g3385
(S't\x03\x00\x00\x00FAQ'
tRp3721
I00
S'http://web2py.com/AlterEgo'
p3722
tp3723
a(g3385
(S't\x06\x00\x00\x00Videos'
tRp3724
I00
S'http://www.web2py.com/examples/default/videos/'
p3725
tp3726
a(g3385
(S's\x11\x00\x00\x00Free Applications'
tRp3727
I00
S'http://web2py.com/appliances'
p3728
tp3729
a(g3385
(S't\x07\x00\x00\x00Plugins'
tRp3730
I00
S'http://web2py.com/plugins'
p3731
tp3732
a(g3385
(S't\x07\x00\x00\x00Layouts'
tRp3733
I00
S'http://web2py.com/layouts'
p3734
tp3735
a(g3385
(S't\x07\x00\x00\x00Recipes'
tRp3736
I00
S'http://web2pyslices.com/'
p3737
tp3738
a(g3385
(S't\x08\x00\x00\x00Semantic'
tRp3739
I00
S'http://web2py.com/semantic'
p3740
tp3741
aasbasbasbasbasbasbasbag61
(g77
g63
NtRp3742
(dp3743
g66
(dp3744
sg75
g3499
sg68
(lp3745
g61
(g82
g63
NtRp3746
(dp3747
g66
(dp3748
sg75
g3742
sg68
(lp3749
g61
(g62
g63
NtRp3750
(dp3751
g66
(dp3752
g74
I2
ssg75
g3746
sg68
(lp3753
g61
(g70
g63
NtRp3754
(dp3755
g66
(dp3756
g74
I1
ssg75
Nsg68
(lp3757
g61
(g77
g63
NtRp3758
(dp3759
g66
(dp3760
sg75
g3754
sg68
(lp3761
g61
(g82
g63
NtRp3762
(dp3763
g66
(dp3764
sg75
g3758
sg68
(lp3765
g61
(g62
g63
NtRp3766
(dp3767
g66
(dp3768
g74
I1
ssg75
g3762
sg68
(lp3769
g3385
(S't\r\x00\x00\x00Documentation'
tRp3770
asbasbasbag61
(g77
g63
NtRp3771
(dp3772
g66
(dp3773
sg75
g3754
sg68
(lp3774
g61
(g82
g63
NtRp3775
(dp3776
g66
(dp3777
sg75
g3771
sg68
(lp3778
g61
(g62
g63
NtRp3779
(dp3780
g66
(dp3781
g74
I1
ssg75
g3775
sg68
(lp3782
I00
asbasbasbag61
(g77
g63
NtRp3783
(dp3784
g66
(dp3785
sg75
g3754
sg68
(lp3786
g61
(g82
g63
NtRp3787
(dp3788
g66
(dp3789
sg75
g3783
sg68
(lp3790
g61
(g62
g63
NtRp3791
(dp3792
g66
(dp3793
g74
I1
ssg75
g3787
sg68
(lp3794
S'http://www.web2py.com/book'
p3795
asbasbasbag61
(g77
g63
NtRp3796
(dp3797
g66
(dp3798
sg75
g3754
sg68
(lp3799
g61
(g82
g63
NtRp3800
(dp3801
g66
(dp3802
sg75
g3796
sg68
(lp3803
g61
(g62
g63
NtRp3804
(dp3805
g66
(dp3806
g74
I1
ssg75
g3800
sg68
(lp3807
(lp3808
(g3385
(S't\x07\x00\x00\x00Preface'
tRp3809
I00
S'http://www.web2py.com/book/default/chapter/00'
p3810
tp3811
a(g3385
(S't\x0c\x00\x00\x00Introduction'
tRp3812
I00
S'http://www.web2py.com/book/default/chapter/01'
p3813
tp3814
a(g3385
(S't\x06\x00\x00\x00Python'
tRp3815
I00
S'http://www.web2py.com/book/default/chapter/02'
p3816
tp3817
a(g3385
(S't\x08\x00\x00\x00Overview'
tRp3818
I00
S'http://www.web2py.com/book/default/chapter/03'
p3819
tp3820
a(g3385
(S's\x08\x00\x00\x00The Core'
tRp3821
I00
S'http://www.web2py.com/book/default/chapter/04'
p3822
tp3823
a(g3385
(S's\t\x00\x00\x00The Views'
tRp3824
I00
S'http://www.web2py.com/book/default/chapter/05'
p3825
tp3826
a(g3385
(S's\x0e\x00\x00\x00Banco de dados'
tRp3827
I00
S'http://www.web2py.com/book/default/chapter/06'
p3828
tp3829
a(g3385
(S's\x14\x00\x00\x00Forms and Validators'
tRp3830
I00
S'http://www.web2py.com/book/default/chapter/07'
p3831
tp3832
a(g3385
(S's\r\x00\x00\x00Email and SMS'
tRp3833
I00
S'http://www.web2py.com/book/default/chapter/08'
p3834
tp3835
a(g3385
(S's\x0e\x00\x00\x00Access Control'
tRp3836
I00
S'http://www.web2py.com/book/default/chapter/09'
p3837
tp3838
a(g3385
(S't\x08\x00\x00\x00Services'
tRp3839
I00
S'http://www.web2py.com/book/default/chapter/10'
p3840
tp3841
a(g3385
(S's\x0c\x00\x00\x00Ajax Recipes'
tRp3842
I00
S'http://www.web2py.com/book/default/chapter/11'
p3843
tp3844
a(g3385
(S's\x16\x00\x00\x00Components and Plugins'
tRp3845
I00
S'http://www.web2py.com/book/default/chapter/12'
p3846
tp3847
a(g3385
(S's\x12\x00\x00\x00Deployment Recipes'
tRp3848
I00
S'http://www.web2py.com/book/default/chapter/13'
p3849
tp3850
a(g3385
(S's\r\x00\x00\x00Other Recipes'
tRp3851
I00
S'http://www.web2py.com/book/default/chapter/14'
p3852
tp3853
a(g3385
(S's\r\x00\x00\x00Buy this book'
tRp3854
I00
S'http://stores.lulu.com/web2py'
p3855
tp3856
aasbasbasbasbasbasbasbag61
(g77
g63
NtRp3857
(dp3858
g66
(dp3859
sg75
g3499
sg68
(lp3860
g61
(g82
g63
NtRp3861
(dp3862
g66
(dp3863
sg75
g3857
sg68
(lp3864
g61
(g62
g63
NtRp3865
(dp3866
g66
(dp3867
g74
I2
ssg75
g3861
sg68
(lp3868
g61
(g70
g63
NtRp3869
(dp3870
g66
(dp3871
g74
I1
ssg75
Nsg68
(lp3872
g61
(g77
g63
NtRp3873
(dp3874
g66
(dp3875
sg75
g3869
sg68
(lp3876
g61
(g82
g63
NtRp3877
(dp3878
g66
(dp3879
sg75
g3873
sg68
(lp3880
g61
(g62
g63
NtRp3881
(dp3882
g66
(dp3883
g74
I1
ssg75
g3877
sg68
(lp3884
g3385
(S't\t\x00\x00\x00Community'
tRp3885
asbasbasbag61
(g77
g63
NtRp3886
(dp3887
g66
(dp3888
sg75
g3869
sg68
(lp3889
g61
(g82
g63
NtRp3890
(dp3891
g66
(dp3892
sg75
g3886
sg68
(lp3893
g61
(g62
g63
NtRp3894
(dp3895
g66
(dp3896
g74
I1
ssg75
g3890
sg68
(lp3897
I00
asbasbasbag61
(g77
g63
NtRp3898
(dp3899
g66
(dp3900
sg75
g3869
sg68
(lp3901
g61
(g82
g63
NtRp3902
(dp3903
g66
(dp3904
sg75
g3898
sg68
(lp3905
g61
(g62
g63
NtRp3906
(dp3907
g66
(dp3908
g74
I1
ssg75
g3902
sg68
(lp3909
Nasbasbasbag61
(g77
g63
NtRp3910
(dp3911
g66
(dp3912
sg75
g3869
sg68
(lp3913
g61
(g82
g63
NtRp3914
(dp3915
g66
(dp3916
sg75
g3910
sg68
(lp3917
g61
(g62
g63
NtRp3918
(dp3919
g66
(dp3920
g74
I1
ssg75
g3914
sg68
(lp3921
(lp3922
(g3385
(S't\x06\x00\x00\x00Groups'
tRp3923
I00
S'http://www.web2py.com/examples/default/usergroups'
p3924
tp3925
a(g3385
(S't\x07\x00\x00\x00Twitter'
tRp3926
I00
S'http://twitter.com/web2py'
p3927
tp3928
a(g3385
(S's\t\x00\x00\x00Live Chat'
tRp3929
I00
S'http://webchat.freenode.net/?channels=web2py'
p3930
tp3931
aasbasbasbasbasbasbasbag61
(g77
g63
NtRp3932
(dp3933
g66
(dp3934
sg75
g3499
sg68
(lp3935
g61
(g82
g63
NtRp3936
(dp3937
g66
(dp3938
sg75
g3932
sg68
(lp3939
g61
(g62
g63
NtRp3940
(dp3941
g66
(dp3942
g74
I2
ssg75
g3936
sg68
(lp3943
g61
(g70
g63
NtRp3944
(dp3945
g66
(dp3946
g74
I1
ssg75
Nsg68
(lp3947
g61
(g77
g63
NtRp3948
(dp3949
g66
(dp3950
sg75
g3944
sg68
(lp3951
g61
(g82
g63
NtRp3952
(dp3953
g66
(dp3954
sg75
g3948
sg68
(lp3955
g61
(g62
g63
NtRp3956
(dp3957
g66
(dp3958
g74
I1
ssg75
g3952
sg68
(lp3959
g3385
(S't\x07\x00\x00\x00Plugins'
tRp3960
asbasbasbag61
(g77
g63
NtRp3961
(dp3962
g66
(dp3963
sg75
g3944
sg68
(lp3964
g61
(g82
g63
NtRp3965
(dp3966
g66
(dp3967
sg75
g3961
sg68
(lp3968
g61
(g62
g63
NtRp3969
(dp3970
g66
(dp3971
g74
I1
ssg75
g3965
sg68
(lp3972
I00
asbasbasbag61
(g77
g63
NtRp3973
(dp3974
g66
(dp3975
sg75
g3944
sg68
(lp3976
g61
(g82
g63
NtRp3977
(dp3978
g66
(dp3979
sg75
g3973
sg68
(lp3980
g61
(g62
g63
NtRp3981
(dp3982
g66
(dp3983
g74
I1
ssg75
g3977
sg68
(lp3984
Nasbasbasbag61
(g77
g63
NtRp3985
(dp3986
g66
(dp3987
sg75
g3944
sg68
(lp3988
g61
(g82
g63
NtRp3989
(dp3990
g66
(dp3991
sg75
g3985
sg68
(lp3992
g61
(g62
g63
NtRp3993
(dp3994
g66
(dp3995
g74
I1
ssg75
g3989
sg68
(lp3996
(lp3997
(S'plugin_wiki'
p3998
I00
S'http://web2py.com/examples/default/download'
p3999
tp4000
a(g3385
(S's\r\x00\x00\x00Other Plugins'
tRp4001
I00
g3731
tp4002
a(g3385
(S's\x0e\x00\x00\x00Layout Plugins'
tRp4003
I00
g3734
tp4004
aasbasbasbasbasbasbasbasbasbasbasbasbasbasbasbasbasbasbasbag61
(g77
g63
NtRp4005
(dp4006
g66
(dp4007
sg75
g2861
sg68
(lp4008
g61
(g82
g63
NtRp4009
(dp4010
g66
(dp4011
g86
g87
ssg75
g4005
sg68
(lp4012
S'meta'
p4013
asbag61
(g82
g63
NtRp4014
(dp4015
g66
(dp4016
g93
g94
ssg75
g4005
sg68
(lp4017
S':'
asbag61
(g82
g63
NtRp4018
(dp4019
g66
(dp4020
sg75
g4005
sg68
(lp4021
g61
(g62
g63
NtRp4022
(dp4023
g66
(dp4024
g74
I5
ssg75
g4018
sg68
(lp4025
g61
(g70
g63
NtRp4026
(dp4027
g66
(dp4028
g74
I4
ssg75
Nsg68
(lp4029
g61
(g77
g63
NtRp4030
(dp4031
g66
(dp4032
sg75
g4026
sg68
(lp4033
g61
(g82
g63
NtRp4034
(dp4035
g66
(dp4036
g86
g87
ssg75
g4030
sg68
(lp4037
S'author'
p4038
asbag61
(g82
g63
NtRp4039
(dp4040
g66
(dp4041
g93
g94
ssg75
g4030
sg68
(lp4042
S':'
asbag61
(g82
g63
NtRp4043
(dp4044
g66
(dp4045
sg75
g4030
sg68
(lp4046
g61
(g62
g63
NtRp4047
(dp4048
g66
(dp4049
g74
I4
ssg75
g4043
sg68
(lp4050
S'Your Name <you@example.com>'
p4051
asbasbasbag61
(g77
g63
NtRp4052
(dp4053
g66
(dp4054
sg75
g4026
sg68
(lp4055
g61
(g82
g63
NtRp4056
(dp4057
g66
(dp4058
g86
g87
ssg75
g4052
sg68
(lp4059
S'copyright'
p4060
asbag61
(g82
g63
NtRp4061
(dp4062
g66
(dp4063
g93
g94
ssg75
g4052
sg68
(lp4064
S':'
asbag61
(g82
g63
NtRp4065
(dp4066
g66
(dp4067
sg75
g4052
sg68
(lp4068
g61
(g62
g63
NtRp4069
(dp4070
g66
(dp4071
g74
I4
ssg75
g4065
sg68
(lp4072
S'Copyright 2011'
p4073
asbasbasbag61
(g77
g63
NtRp4074
(dp4075
g66
(dp4076
sg75
g4026
sg68
(lp4077
g61
(g82
g63
NtRp4078
(dp4079
g66
(dp4080
g86
g87
ssg75
g4074
sg68
(lp4081
S'description'
p4082
asbag61
(g82
g63
NtRp4083
(dp4084
g66
(dp4085
g93
g94
ssg75
g4074
sg68
(lp4086
S':'
asbag61
(g82
g63
NtRp4087
(dp4088
g66
(dp4089
sg75
g4074
sg68
(lp4090
g61
(g62
g63
NtRp4091
(dp4092
g66
(dp4093
g74
I4
ssg75
g4087
sg68
(lp4094
S'a cool new app'
p4095
asbasbasbag61
(g77
g63
NtRp4096
(dp4097
g66
(dp4098
sg75
g4026
sg68
(lp4099
g61
(g82
g63
NtRp4100
(dp4101
g66
(dp4102
g86
g87
ssg75
g4096
sg68
(lp4103
S'generator'
p4104
asbag61
(g82
g63
NtRp4105
(dp4106
g66
(dp4107
g93
g94
ssg75
g4096
sg68
(lp4108
S':'
asbag61
(g82
g63
NtRp4109
(dp4110
g66
(dp4111
sg75
g4096
sg68
(lp4112
g61
(g62
g63
NtRp4113
(dp4114
g66
(dp4115
g74
I4
ssg75
g4109
sg68
(lp4116
S'Web2py Web Framework'
p4117
asbasbasbag61
(g77
g63
NtRp4118
(dp4119
g66
(dp4120
sg75
g4026
sg68
(lp4121
g61
(g82
g63
NtRp4122
(dp4123
g66
(dp4124
g86
g87
ssg75
g4118
sg68
(lp4125
S'keywords'
p4126
asbag61
(g82
g63
NtRp4127
(dp4128
g66
(dp4129
g93
g94
ssg75
g4118
sg68
(lp4130
S':'
asbag61
(g82
g63
NtRp4131
(dp4132
g66
(dp4133
sg75
g4118
sg68
(lp4134
g61
(g62
g63
NtRp4135
(dp4136
g66
(dp4137
g74
I4
ssg75
g4131
sg68
(lp4138
S'web2py, python, framework'
p4139
asbasbasbasbasbasbasbag61
(g77
g63
NtRp4140
(dp4141
g66
(dp4142
sg75
g2861
sg68
(lp4143
g61
(g82
g63
NtRp4144
(dp4145
g66
(dp4146
g86
g87
ssg75
g4140
sg68
(lp4147
S'postprocessing'
p4148
asbag61
(g82
g63
NtRp4149
(dp4150
g66
(dp4151
g93
g94
ssg75
g4140
sg68
(lp4152
S':'
asbag61
(g82
g63
NtRp4153
(dp4154
g66
(dp4155
sg75
g4140
sg68
(lp4156
g61
(g62
g63
NtRp4157
(dp4158
g66
(dp4159
g74
I5
ssg75
g4153
sg68
(lp4160
g61
(g70
g63
NtRp4161
(dp4162
g66
(dp4163
g74
I4
ssg75
Nsg68
(lp4164
sbasbasbasbag61
(g77
g63
NtRp4165
(dp4166
g66
(dp4167
sg75
g2861
sg68
(lp4168
g61
(g82
g63
NtRp4169
(dp4170
g66
(dp4171
g86
g87
ssg75
g4165
sg68
(lp4172
S'session_file'
p4173
asbag61
(g82
g63
NtRp4174
(dp4175
g66
(dp4176
g93
g94
ssg75
g4165
sg68
(lp4177
S':'
asbag61
(g82
g63
NtRp4178
(dp4179
g66
(dp4180
sg75
g4165
sg68
(lp4181
g61
(g62
g63
NtRp4182
(dp4183
g66
(dp4184
g74
I5
ssg75
g4178
sg68
(lp4185
S"<open file 'C:\\web2py\\applications\\unioeste_code\\sessions\\127.0.0.1-e2123eb0-50ff-4f28-8e81-a6ab4f6057bb', mode 'rb+' at 0x06D94728>"
p4186
asbasbasbag61
(g77
g63
NtRp4187
(dp4188
g66
(dp4189
sg75
g2861
sg68
(lp4190
g61
(g82
g63
NtRp4191
(dp4192
g66
(dp4193
g86
g87
ssg75
g4187
sg68
(lp4194
S'session_filename'
p4195
asbag61
(g82
g63
NtRp4196
(dp4197
g66
(dp4198
g93
g94
ssg75
g4187
sg68
(lp4199
S':'
asbag61
(g82
g63
NtRp4200
(dp4201
g66
(dp4202
sg75
g4187
sg68
(lp4203
g61
(g62
g63
NtRp4204
(dp4205
g66
(dp4206
g74
I5
ssg75
g4200
sg68
(lp4207
S'C:\\web2py\\applications\\unioeste_code\\sessions\\127.0.0.1-e2123eb0-50ff-4f28-8e81-a6ab4f6057bb'
p4208
asbasbasbag61
(g77
g63
NtRp4209
(dp4210
g66
(dp4211
sg75
g2861
sg68
(lp4212
g61
(g82
g63
NtRp4213
(dp4214
g66
(dp4215
g86
g87
ssg75
g4209
sg68
(lp4216
S'session_id'
p4217
asbag61
(g82
g63
NtRp4218
(dp4219
g66
(dp4220
g93
g94
ssg75
g4209
sg68
(lp4221
S':'
asbag61
(g82
g63
NtRp4222
(dp4223
g66
(dp4224
sg75
g4209
sg68
(lp4225
g61
(g62
g63
NtRp4226
(dp4227
g66
(dp4228
g74
I5
ssg75
g4222
sg68
(lp4229
S'127.0.0.1-e2123eb0-50ff-4f28-8e81-a6ab4f6057bb'
p4230
asbasbasbag61
(g77
g63
NtRp4231
(dp4232
g66
(dp4233
sg75
g2861
sg68
(lp4234
g61
(g82
g63
NtRp4235
(dp4236
g66
(dp4237
g86
g87
ssg75
g4231
sg68
(lp4238
S'session_id_name'
p4239
asbag61
(g82
g63
NtRp4240
(dp4241
g66
(dp4242
g93
g94
ssg75
g4231
sg68
(lp4243
S':'
asbag61
(g82
g63
NtRp4244
(dp4245
g66
(dp4246
sg75
g4231
sg68
(lp4247
g61
(g62
g63
NtRp4248
(dp4249
g66
(dp4250
g74
I5
ssg75
g4244
sg68
(lp4251
g2918
asbasbasbag61
(g77
g63
NtRp4252
(dp4253
g66
(dp4254
sg75
g2861
sg68
(lp4255
g61
(g82
g63
NtRp4256
(dp4257
g66
(dp4258
g86
g87
ssg75
g4252
sg68
(lp4259
S'session_locked'
p4260
asbag61
(g82
g63
NtRp4261
(dp4262
g66
(dp4263
g93
g94
ssg75
g4252
sg68
(lp4264
S':'
asbag61
(g82
g63
NtRp4265
(dp4266
g66
(dp4267
sg75
g4252
sg68
(lp4268
g61
(g62
g63
NtRp4269
(dp4270
g66
(dp4271
g74
I5
ssg75
g4265
sg68
(lp4272
g1477
asbasbasbag61
(g77
g63
NtRp4273
(dp4274
g66
(dp4275
sg75
g2861
sg68
(lp4276
g61
(g82
g63
NtRp4277
(dp4278
g66
(dp4279
g86
g87
ssg75
g4273
sg68
(lp4280
S'session_new'
p4281
asbag61
(g82
g63
NtRp4282
(dp4283
g66
(dp4284
g93
g94
ssg75
g4273
sg68
(lp4285
S':'
asbag61
(g82
g63
NtRp4286
(dp4287
g66
(dp4288
sg75
g4273
sg68
(lp4289
g61
(g62
g63
NtRp4290
(dp4291
g66
(dp4292
g74
I5
ssg75
g4286
sg68
(lp4293
g104
asbasbasbag61
(g77
g63
NtRp4294
(dp4295
g66
(dp4296
sg75
g2861
sg68
(lp4297
g61
(g82
g63
NtRp4298
(dp4299
g66
(dp4300
g86
g87
ssg75
g4294
sg68
(lp4301
S'status'
p4302
asbag61
(g82
g63
NtRp4303
(dp4304
g66
(dp4305
g93
g94
ssg75
g4294
sg68
(lp4306
S':'
asbag61
(g82
g63
NtRp4307
(dp4308
g66
(dp4309
sg75
g4294
sg68
(lp4310
g61
(g62
g63
NtRp4311
(dp4312
g66
(dp4313
g74
I5
ssg75
g4307
sg68
(lp4314
S'200'
p4315
asbasbasbag61
(g77
g63
NtRp4316
(dp4317
g66
(dp4318
sg75
g2861
sg68
(lp4319
g61
(g82
g63
NtRp4320
(dp4321
g66
(dp4322
g86
g87
ssg75
g4316
sg68
(lp4323
S'subtitle'
p4324
asbag61
(g82
g63
NtRp4325
(dp4326
g66
(dp4327
g93
g94
ssg75
g4316
sg68
(lp4328
S':'
asbag61
(g82
g63
NtRp4329
(dp4330
g66
(dp4331
sg75
g4316
sg68
(lp4332
g61
(g62
g63
NtRp4333
(dp4334
g66
(dp4335
g74
I5
ssg75
g4329
sg68
(lp4336
g3385
(S's\x0f\x00\x00\x00Personalize-me!'
tRp4337
asbasbasbag61
(g77
g63
NtRp4338
(dp4339
g66
(dp4340
sg75
g2861
sg68
(lp4341
g61
(g82
g63
NtRp4342
(dp4343
g66
(dp4344
g86
g87
ssg75
g4338
sg68
(lp4345
S'title'
p4346
asbag61
(g82
g63
NtRp4347
(dp4348
g66
(dp4349
g93
g94
ssg75
g4338
sg68
(lp4350
S':'
asbag61
(g82
g63
NtRp4351
(dp4352
g66
(dp4353
sg75
g4338
sg68
(lp4354
g61
(g62
g63
NtRp4355
(dp4356
g66
(dp4357
g74
I5
ssg75
g4351
sg68
(lp4358
S'Unioeste Code'
p4359
asbasbasbag61
(g77
g63
NtRp4360
(dp4361
g66
(dp4362
sg75
g2861
sg68
(lp4363
g61
(g82
g63
NtRp4364
(dp4365
g66
(dp4366
g86
g87
ssg75
g4360
sg68
(lp4367
g2141
asbag61
(g82
g63
NtRp4368
(dp4369
g66
(dp4370
g93
g94
ssg75
g4360
sg68
(lp4371
S':'
asbag61
(g82
g63
NtRp4372
(dp4373
g66
(dp4374
sg75
g4360
sg68
(lp4375
g61
(g62
g63
NtRp4376
(dp4377
g66
(dp4378
g74
I5
ssg75
g4372
sg68
(lp4379
g2154
asbasbasbag61
(g77
g63
NtRp4380
(dp4381
g66
(dp4382
sg75
g2861
sg68
(lp4383
g61
(g82
g63
NtRp4384
(dp4385
g66
(dp4386
g86
g87
ssg75
g4380
sg68
(lp4387
S'view'
p4388
asbag61
(g82
g63
NtRp4389
(dp4390
g66
(dp4391
g93
g94
ssg75
g4380
sg68
(lp4392
S':'
asbag61
(g82
g63
NtRp4393
(dp4394
g66
(dp4395
sg75
g4380
sg68
(lp4396
g61
(g62
g63
NtRp4397
(dp4398
g66
(dp4399
g74
I5
ssg75
g4393
sg68
(lp4400
S'default/index.html'
p4401
asbasbasbasbasbsS'locals'
p4402
(dp4403
g4
S"r'C:\\web2py\\applications\\unioeste_code\\views\\default/index.html'"
p4404
sg6
S'r"response.write(\'<!DOCTYPE html>\\n<!-- paulirish....ponse.write(\'\\n</body>\\n</html>\\n\', escape=False)"'
p4405
sssS'traceback'
p4406
S'Traceback (most recent call last):\n  File "gluon/restricted.py", line 204, in restricted\n  File "gluon/restricted.py", line 189, in compile2\n  File "C:\\web2py\\applications\\unioeste_code\\views\\default/index.html", line 86\n    response.write(LI(A(problem.title, _href=URL("Problem", args=problem.id)), " by " + user.first_name + " " + user.last_name + " " + =SPAN(value=prettydate(problem.created_on), _style="color:green")))\n                                                                                                                                       ^\nSyntaxError: invalid syntax\n'
p4407
s.