(dp1
S'output'
p2
S"<type 'exceptions.NameError'> name 'requires_membership' is not defined"
p3
sS'layer'
p4
S'C:\\web2py\\applications\\unioeste_code\\controllers/default.py'
p5
sS'code'
p6
S'# -*- coding: utf-8 -*-\n# this file is released under public domain and you can use without limitations\n\n#########################################################################\n## This is a samples controller\n## - index is the default action of any application\n## - user is required for authentication and authorization\n## - download is for downloading files uploaded in the db (does streaming)\n## - call exposes all registered services (none by default)\n#########################################################################\n\ndef index():\n    problems = db().select(db.problem.ALL, orderby = db.problem.title)\n    return dict(problems=problems)\n\ndef show():\n    problem = db(db.problem.id==request.args(0)).select().first()\n    db.code.problem_id.default = problem.id\n    form = SQLFORM(db.code)\n    if form.process().accepted:\n        response.flash = \'your code is posted\'\n    codes = db(db.code.problem_id == problem.id).select()    \n    return dict(problem=problem, codes=codes, form=form)\n\ndef problems():\n    problems = db().select(db.problem.ALL, orderby = db.problem.title)\n    return dict(problems=problems)\n\n@requires_membership(\'manager\')\ndef manageCode():\n    grid = SQLFORM.smartgrid(db.code)\n    return dict(grid=grid)\n\ndef user():\n    """\n    exposes:\n    http://..../[app]/default/user/login\n    http://..../[app]/default/user/logout\n    http://..../[app]/default/user/register\n    http://..../[app]/default/user/profile\n    http://..../[app]/default/user/retrieve_password\n    http://..../[app]/default/user/change_password\n    use @auth.requires_login()\n        @auth.requires_membership(\'group name\')\n        @auth.requires_permission(\'read\',\'table name\',record_id)\n    to decorate functions that need access control\n    """\n    return dict(form=auth())\n\n\ndef download():\n    """\n    allows downloading of uploaded files\n    http://..../[app]/default/download/[filename]\n    """\n    return response.download(request,db)\n\n\ndef call():\n    """\n    exposes services. for example:\n    http://..../[app]/default/call/jsonrpc\n    decorate with @services.jsonrpc the functions to expose\n    supports xml, json, xmlrpc, jsonrpc, amfrpc, rss, csv\n    """\n    return service()\n\n\n@auth.requires_signature()\ndef data():\n    """\n    http://..../[app]/default/data/tables\n    http://..../[app]/default/data/create/[table]\n    http://..../[app]/default/data/read/[table]/[id]\n    http://..../[app]/default/data/update/[table]/[id]\n    http://..../[app]/default/data/delete/[table]/[id]\n    http://..../[app]/default/data/select/[table]\n    http://..../[app]/default/data/search/[table]\n    but URLs must be signed, i.e. linked with\n      A(\'table\',_href=URL(\'data/tables\',user_signature=True))\n    or with the signed load operator\n      LOAD(\'default\',\'data.load\',args=\'tables\',ajax=True,user_signature=True)\n    """\n    return dict(form=crud())\n\n\nresponse._vars=response._caller(manageCode)\n'
p7
sS'snapshot'
p8
(dp9
S'exception'
p10
(dp11
S'__hash__'
p12
S"<method-wrapper '__hash__' of exceptions.NameError object at 0x06853C88>"
p13
sS'__setattr__'
p14
S"<method-wrapper '__setattr__' of exceptions.NameError object at 0x06853C88>"
p15
sS'__reduce_ex__'
p16
S'<built-in method __reduce_ex__ of exceptions.NameError object at 0x06853C88>'
p17
sS'__getslice__'
p18
S"<method-wrapper '__getslice__' of exceptions.NameError object at 0x06853C88>"
p19
sS'__getitem__'
p20
S"<method-wrapper '__getitem__' of exceptions.NameError object at 0x06853C88>"
p21
sS'__setstate__'
p22
S'<built-in method __setstate__ of exceptions.NameError object at 0x06853C88>'
p23
sS'__reduce__'
p24
S'<built-in method __reduce__ of exceptions.NameError object at 0x06853C88>'
p25
sS'__str__'
p26
S"<method-wrapper '__str__' of exceptions.NameError object at 0x06853C88>"
p27
sS'args'
p28
S'("name \'requires_membership\' is not defined",)'
p29
sS'__getattribute__'
p30
S"<method-wrapper '__getattribute__' of exceptions.NameError object at 0x06853C88>"
p31
sS'__class__'
p32
S"<type 'exceptions.NameError'>"
p33
sS'__delattr__'
p34
S"<method-wrapper '__delattr__' of exceptions.NameError object at 0x06853C88>"
p35
sS'__repr__'
p36
S"<method-wrapper '__repr__' of exceptions.NameError object at 0x06853C88>"
p37
sS'__dict__'
p38
S'{}'
p39
sS'__doc__'
p40
S"'Name not found globally.'"
p41
sS'__init__'
p42
S"<method-wrapper '__init__' of exceptions.NameError object at 0x06853C88>"
p43
sS'__new__'
p44
S'<built-in method __new__ of type object at 0x1E1CD8D8>'
p45
ssS'evalue'
p46
S"name 'requires_membership' is not defined"
p47
sS'request'
p48
ccopy_reg
_reconstructor
p49
(cgluon.html
BEAUTIFY
p50
c__builtin__
object
p51
NtRp52
(dp53
S'attributes'
p54
(dp55
sS'components'
p56
(lp57
g49
(cgluon.html
TABLE
p58
g51
NtRp59
(dp60
g54
(dp61
S'level'
p62
I5
ssS'parent'
p63
Nsg56
(lp64
g49
(cgluon.html
TR
p65
g51
NtRp66
(dp67
g54
(dp68
sg63
g59
sg56
(lp69
g49
(cgluon.html
TD
p70
g51
NtRp71
(dp72
g54
(dp73
S'_style'
p74
S'font-weight:bold;vertical-align:top'
p75
ssg63
g66
sg56
(lp76
S'ajax'
p77
asbag49
(g70
g51
NtRp78
(dp79
g54
(dp80
S'_valign'
p81
S'top'
p82
ssg63
g66
sg56
(lp83
S':'
asbag49
(g70
g51
NtRp84
(dp85
g54
(dp86
sg63
g66
sg56
(lp87
g49
(g50
g51
NtRp88
(dp89
g54
(dp90
g62
I5
ssg63
g84
sg56
(lp91
S'False'
p92
asbasbasbag49
(g65
g51
NtRp93
(dp94
g54
(dp95
sg63
g59
sg56
(lp96
g49
(g70
g51
NtRp97
(dp98
g54
(dp99
g74
g75
ssg63
g93
sg56
(lp100
S'application'
p101
asbag49
(g70
g51
NtRp102
(dp103
g54
(dp104
g81
g82
ssg63
g93
sg56
(lp105
S':'
asbag49
(g70
g51
NtRp106
(dp107
g54
(dp108
sg63
g93
sg56
(lp109
g49
(g50
g51
NtRp110
(dp111
g54
(dp112
g62
I5
ssg63
g106
sg56
(lp113
S'unioeste_code'
p114
asbasbasbag49
(g65
g51
NtRp115
(dp116
g54
(dp117
sg63
g59
sg56
(lp118
g49
(g70
g51
NtRp119
(dp120
g54
(dp121
g74
g75
ssg63
g115
sg56
(lp122
g28
asbag49
(g70
g51
NtRp123
(dp124
g54
(dp125
g81
g82
ssg63
g115
sg56
(lp126
S':'
asbag49
(g70
g51
NtRp127
(dp128
g54
(dp129
sg63
g115
sg56
(lp130
g49
(g50
g51
NtRp131
(dp132
g54
(dp133
g62
I5
ssg63
g127
sg56
(lp134
g49
(g58
g51
NtRp135
(dp136
g54
(dp137
g62
I4
ssg63
Nsg56
(lp138
sbasbasbasbag49
(g65
g51
NtRp139
(dp140
g54
(dp141
sg63
g59
sg56
(lp142
g49
(g70
g51
NtRp143
(dp144
g54
(dp145
g74
g75
ssg63
g139
sg56
(lp146
S'body'
p147
asbag49
(g70
g51
NtRp148
(dp149
g54
(dp150
g81
g82
ssg63
g139
sg56
(lp151
S':'
asbag49
(g70
g51
NtRp152
(dp153
g54
(dp154
sg63
g139
sg56
(lp155
g49
(g50
g51
NtRp156
(dp157
g54
(dp158
g62
I5
ssg63
g152
sg56
(lp159
S'<cStringIO.StringO object at 0x06A73DA0>'
p160
asbasbasbag49
(g65
g51
NtRp161
(dp162
g54
(dp163
sg63
g59
sg56
(lp164
g49
(g70
g51
NtRp165
(dp166
g54
(dp167
g74
g75
ssg63
g161
sg56
(lp168
S'client'
p169
asbag49
(g70
g51
NtRp170
(dp171
g54
(dp172
g81
g82
ssg63
g161
sg56
(lp173
S':'
asbag49
(g70
g51
NtRp174
(dp175
g54
(dp176
sg63
g161
sg56
(lp177
g49
(g50
g51
NtRp178
(dp179
g54
(dp180
g62
I5
ssg63
g174
sg56
(lp181
S'127.0.0.1'
p182
asbasbasbag49
(g65
g51
NtRp183
(dp184
g54
(dp185
sg63
g59
sg56
(lp186
g49
(g70
g51
NtRp187
(dp188
g54
(dp189
g74
g75
ssg63
g183
sg56
(lp190
S'controller'
p191
asbag49
(g70
g51
NtRp192
(dp193
g54
(dp194
g81
g82
ssg63
g183
sg56
(lp195
S':'
asbag49
(g70
g51
NtRp196
(dp197
g54
(dp198
sg63
g183
sg56
(lp199
g49
(g50
g51
NtRp200
(dp201
g54
(dp202
g62
I5
ssg63
g196
sg56
(lp203
S'default'
p204
asbasbasbag49
(g65
g51
NtRp205
(dp206
g54
(dp207
sg63
g59
sg56
(lp208
g49
(g70
g51
NtRp209
(dp210
g54
(dp211
g74
g75
ssg63
g205
sg56
(lp212
S'cookies'
p213
asbag49
(g70
g51
NtRp214
(dp215
g54
(dp216
g81
g82
ssg63
g205
sg56
(lp217
S':'
asbag49
(g70
g51
NtRp218
(dp219
g54
(dp220
sg63
g205
sg56
(lp221
g49
(g50
g51
NtRp222
(dp223
g54
(dp224
g62
I5
ssg63
g218
sg56
(lp225
g49
(g58
g51
NtRp226
(dp227
g54
(dp228
g62
I4
ssg63
Nsg56
(lp229
g49
(g65
g51
NtRp230
(dp231
g54
(dp232
sg63
g226
sg56
(lp233
g49
(g70
g51
NtRp234
(dp235
g54
(dp236
g74
g75
ssg63
g230
sg56
(lp237
S'session_id_admin'
p238
asbag49
(g70
g51
NtRp239
(dp240
g54
(dp241
g81
g82
ssg63
g230
sg56
(lp242
S':'
asbag49
(g70
g51
NtRp243
(dp244
g54
(dp245
sg63
g230
sg56
(lp246
g49
(g50
g51
NtRp247
(dp248
g54
(dp249
g62
I4
ssg63
g243
sg56
(lp250
g49
(g58
g51
NtRp251
(dp252
g54
(dp253
g62
I3
ssg63
Nsg56
(lp254
g49
(g65
g51
NtRp255
(dp256
g54
(dp257
sg63
g251
sg56
(lp258
g49
(g70
g51
NtRp259
(dp260
g54
(dp261
g74
g75
ssg63
g255
sg56
(lp262
S'comment'
p263
asbag49
(g70
g51
NtRp264
(dp265
g54
(dp266
g81
g82
ssg63
g255
sg56
(lp267
S':'
asbag49
(g70
g51
NtRp268
(dp269
g54
(dp270
sg63
g255
sg56
(lp271
g49
(g50
g51
NtRp272
(dp273
g54
(dp274
g62
I3
ssg63
g268
sg56
(lp275
S''
asbasbasbag49
(g65
g51
NtRp276
(dp277
g54
(dp278
sg63
g251
sg56
(lp279
g49
(g70
g51
NtRp280
(dp281
g54
(dp282
g74
g75
ssg63
g276
sg56
(lp283
S'domain'
p284
asbag49
(g70
g51
NtRp285
(dp286
g54
(dp287
g81
g82
ssg63
g276
sg56
(lp288
S':'
asbag49
(g70
g51
NtRp289
(dp290
g54
(dp291
sg63
g276
sg56
(lp292
g49
(g50
g51
NtRp293
(dp294
g54
(dp295
g62
I3
ssg63
g289
sg56
(lp296
S''
asbasbasbag49
(g65
g51
NtRp297
(dp298
g54
(dp299
sg63
g251
sg56
(lp300
g49
(g70
g51
NtRp301
(dp302
g54
(dp303
g74
g75
ssg63
g297
sg56
(lp304
S'expires'
p305
asbag49
(g70
g51
NtRp306
(dp307
g54
(dp308
g81
g82
ssg63
g297
sg56
(lp309
S':'
asbag49
(g70
g51
NtRp310
(dp311
g54
(dp312
sg63
g297
sg56
(lp313
g49
(g50
g51
NtRp314
(dp315
g54
(dp316
g62
I3
ssg63
g310
sg56
(lp317
S''
asbasbasbag49
(g65
g51
NtRp318
(dp319
g54
(dp320
sg63
g251
sg56
(lp321
g49
(g70
g51
NtRp322
(dp323
g54
(dp324
g74
g75
ssg63
g318
sg56
(lp325
S'max-age'
p326
asbag49
(g70
g51
NtRp327
(dp328
g54
(dp329
g81
g82
ssg63
g318
sg56
(lp330
S':'
asbag49
(g70
g51
NtRp331
(dp332
g54
(dp333
sg63
g318
sg56
(lp334
g49
(g50
g51
NtRp335
(dp336
g54
(dp337
g62
I3
ssg63
g331
sg56
(lp338
S''
asbasbasbag49
(g65
g51
NtRp339
(dp340
g54
(dp341
sg63
g251
sg56
(lp342
g49
(g70
g51
NtRp343
(dp344
g54
(dp345
g74
g75
ssg63
g339
sg56
(lp346
S'path'
p347
asbag49
(g70
g51
NtRp348
(dp349
g54
(dp350
g81
g82
ssg63
g339
sg56
(lp351
S':'
asbag49
(g70
g51
NtRp352
(dp353
g54
(dp354
sg63
g339
sg56
(lp355
g49
(g50
g51
NtRp356
(dp357
g54
(dp358
g62
I3
ssg63
g352
sg56
(lp359
S''
asbasbasbag49
(g65
g51
NtRp360
(dp361
g54
(dp362
sg63
g251
sg56
(lp363
g49
(g70
g51
NtRp364
(dp365
g54
(dp366
g74
g75
ssg63
g360
sg56
(lp367
S'secure'
p368
asbag49
(g70
g51
NtRp369
(dp370
g54
(dp371
g81
g82
ssg63
g360
sg56
(lp372
S':'
asbag49
(g70
g51
NtRp373
(dp374
g54
(dp375
sg63
g360
sg56
(lp376
g49
(g50
g51
NtRp377
(dp378
g54
(dp379
g62
I3
ssg63
g373
sg56
(lp380
S''
asbasbasbag49
(g65
g51
NtRp381
(dp382
g54
(dp383
sg63
g251
sg56
(lp384
g49
(g70
g51
NtRp385
(dp386
g54
(dp387
g74
g75
ssg63
g381
sg56
(lp388
S'version'
p389
asbag49
(g70
g51
NtRp390
(dp391
g54
(dp392
g81
g82
ssg63
g381
sg56
(lp393
S':'
asbag49
(g70
g51
NtRp394
(dp395
g54
(dp396
sg63
g381
sg56
(lp397
g49
(g50
g51
NtRp398
(dp399
g54
(dp400
g62
I3
ssg63
g394
sg56
(lp401
S''
asbasbasbasbasbasbasbag49
(g65
g51
NtRp402
(dp403
g54
(dp404
sg63
g226
sg56
(lp405
g49
(g70
g51
NtRp406
(dp407
g54
(dp408
g74
g75
ssg63
g402
sg56
(lp409
S'session_id_unioeste_code'
p410
asbag49
(g70
g51
NtRp411
(dp412
g54
(dp413
g81
g82
ssg63
g402
sg56
(lp414
S':'
asbag49
(g70
g51
NtRp415
(dp416
g54
(dp417
sg63
g402
sg56
(lp418
g49
(g50
g51
NtRp419
(dp420
g54
(dp421
g62
I4
ssg63
g415
sg56
(lp422
g49
(g58
g51
NtRp423
(dp424
g54
(dp425
g62
I3
ssg63
Nsg56
(lp426
g49
(g65
g51
NtRp427
(dp428
g54
(dp429
sg63
g423
sg56
(lp430
g49
(g70
g51
NtRp431
(dp432
g54
(dp433
g74
g75
ssg63
g427
sg56
(lp434
g263
asbag49
(g70
g51
NtRp435
(dp436
g54
(dp437
g81
g82
ssg63
g427
sg56
(lp438
S':'
asbag49
(g70
g51
NtRp439
(dp440
g54
(dp441
sg63
g427
sg56
(lp442
g49
(g50
g51
NtRp443
(dp444
g54
(dp445
g62
I3
ssg63
g439
sg56
(lp446
S''
asbasbasbag49
(g65
g51
NtRp447
(dp448
g54
(dp449
sg63
g423
sg56
(lp450
g49
(g70
g51
NtRp451
(dp452
g54
(dp453
g74
g75
ssg63
g447
sg56
(lp454
g284
asbag49
(g70
g51
NtRp455
(dp456
g54
(dp457
g81
g82
ssg63
g447
sg56
(lp458
S':'
asbag49
(g70
g51
NtRp459
(dp460
g54
(dp461
sg63
g447
sg56
(lp462
g49
(g50
g51
NtRp463
(dp464
g54
(dp465
g62
I3
ssg63
g459
sg56
(lp466
S''
asbasbasbag49
(g65
g51
NtRp467
(dp468
g54
(dp469
sg63
g423
sg56
(lp470
g49
(g70
g51
NtRp471
(dp472
g54
(dp473
g74
g75
ssg63
g467
sg56
(lp474
g305
asbag49
(g70
g51
NtRp475
(dp476
g54
(dp477
g81
g82
ssg63
g467
sg56
(lp478
S':'
asbag49
(g70
g51
NtRp479
(dp480
g54
(dp481
sg63
g467
sg56
(lp482
g49
(g50
g51
NtRp483
(dp484
g54
(dp485
g62
I3
ssg63
g479
sg56
(lp486
S''
asbasbasbag49
(g65
g51
NtRp487
(dp488
g54
(dp489
sg63
g423
sg56
(lp490
g49
(g70
g51
NtRp491
(dp492
g54
(dp493
g74
g75
ssg63
g487
sg56
(lp494
g326
asbag49
(g70
g51
NtRp495
(dp496
g54
(dp497
g81
g82
ssg63
g487
sg56
(lp498
S':'
asbag49
(g70
g51
NtRp499
(dp500
g54
(dp501
sg63
g487
sg56
(lp502
g49
(g50
g51
NtRp503
(dp504
g54
(dp505
g62
I3
ssg63
g499
sg56
(lp506
S''
asbasbasbag49
(g65
g51
NtRp507
(dp508
g54
(dp509
sg63
g423
sg56
(lp510
g49
(g70
g51
NtRp511
(dp512
g54
(dp513
g74
g75
ssg63
g507
sg56
(lp514
g347
asbag49
(g70
g51
NtRp515
(dp516
g54
(dp517
g81
g82
ssg63
g507
sg56
(lp518
S':'
asbag49
(g70
g51
NtRp519
(dp520
g54
(dp521
sg63
g507
sg56
(lp522
g49
(g50
g51
NtRp523
(dp524
g54
(dp525
g62
I3
ssg63
g519
sg56
(lp526
S''
asbasbasbag49
(g65
g51
NtRp527
(dp528
g54
(dp529
sg63
g423
sg56
(lp530
g49
(g70
g51
NtRp531
(dp532
g54
(dp533
g74
g75
ssg63
g527
sg56
(lp534
g368
asbag49
(g70
g51
NtRp535
(dp536
g54
(dp537
g81
g82
ssg63
g527
sg56
(lp538
S':'
asbag49
(g70
g51
NtRp539
(dp540
g54
(dp541
sg63
g527
sg56
(lp542
g49
(g50
g51
NtRp543
(dp544
g54
(dp545
g62
I3
ssg63
g539
sg56
(lp546
S''
asbasbasbag49
(g65
g51
NtRp547
(dp548
g54
(dp549
sg63
g423
sg56
(lp550
g49
(g70
g51
NtRp551
(dp552
g54
(dp553
g74
g75
ssg63
g547
sg56
(lp554
g389
asbag49
(g70
g51
NtRp555
(dp556
g54
(dp557
g81
g82
ssg63
g547
sg56
(lp558
S':'
asbag49
(g70
g51
NtRp559
(dp560
g54
(dp561
sg63
g547
sg56
(lp562
g49
(g50
g51
NtRp563
(dp564
g54
(dp565
g62
I3
ssg63
g559
sg56
(lp566
S''
asbasbasbasbasbasbasbag49
(g65
g51
NtRp567
(dp568
g54
(dp569
sg63
g226
sg56
(lp570
g49
(g70
g51
NtRp571
(dp572
g54
(dp573
g74
g75
ssg63
g567
sg56
(lp574
S'session_id_welcome'
p575
asbag49
(g70
g51
NtRp576
(dp577
g54
(dp578
g81
g82
ssg63
g567
sg56
(lp579
S':'
asbag49
(g70
g51
NtRp580
(dp581
g54
(dp582
sg63
g567
sg56
(lp583
g49
(g50
g51
NtRp584
(dp585
g54
(dp586
g62
I4
ssg63
g580
sg56
(lp587
g49
(g58
g51
NtRp588
(dp589
g54
(dp590
g62
I3
ssg63
Nsg56
(lp591
g49
(g65
g51
NtRp592
(dp593
g54
(dp594
sg63
g588
sg56
(lp595
g49
(g70
g51
NtRp596
(dp597
g54
(dp598
g74
g75
ssg63
g592
sg56
(lp599
g263
asbag49
(g70
g51
NtRp600
(dp601
g54
(dp602
g81
g82
ssg63
g592
sg56
(lp603
S':'
asbag49
(g70
g51
NtRp604
(dp605
g54
(dp606
sg63
g592
sg56
(lp607
g49
(g50
g51
NtRp608
(dp609
g54
(dp610
g62
I3
ssg63
g604
sg56
(lp611
S''
asbasbasbag49
(g65
g51
NtRp612
(dp613
g54
(dp614
sg63
g588
sg56
(lp615
g49
(g70
g51
NtRp616
(dp617
g54
(dp618
g74
g75
ssg63
g612
sg56
(lp619
g284
asbag49
(g70
g51
NtRp620
(dp621
g54
(dp622
g81
g82
ssg63
g612
sg56
(lp623
S':'
asbag49
(g70
g51
NtRp624
(dp625
g54
(dp626
sg63
g612
sg56
(lp627
g49
(g50
g51
NtRp628
(dp629
g54
(dp630
g62
I3
ssg63
g624
sg56
(lp631
S''
asbasbasbag49
(g65
g51
NtRp632
(dp633
g54
(dp634
sg63
g588
sg56
(lp635
g49
(g70
g51
NtRp636
(dp637
g54
(dp638
g74
g75
ssg63
g632
sg56
(lp639
g305
asbag49
(g70
g51
NtRp640
(dp641
g54
(dp642
g81
g82
ssg63
g632
sg56
(lp643
S':'
asbag49
(g70
g51
NtRp644
(dp645
g54
(dp646
sg63
g632
sg56
(lp647
g49
(g50
g51
NtRp648
(dp649
g54
(dp650
g62
I3
ssg63
g644
sg56
(lp651
S''
asbasbasbag49
(g65
g51
NtRp652
(dp653
g54
(dp654
sg63
g588
sg56
(lp655
g49
(g70
g51
NtRp656
(dp657
g54
(dp658
g74
g75
ssg63
g652
sg56
(lp659
g326
asbag49
(g70
g51
NtRp660
(dp661
g54
(dp662
g81
g82
ssg63
g652
sg56
(lp663
S':'
asbag49
(g70
g51
NtRp664
(dp665
g54
(dp666
sg63
g652
sg56
(lp667
g49
(g50
g51
NtRp668
(dp669
g54
(dp670
g62
I3
ssg63
g664
sg56
(lp671
S''
asbasbasbag49
(g65
g51
NtRp672
(dp673
g54
(dp674
sg63
g588
sg56
(lp675
g49
(g70
g51
NtRp676
(dp677
g54
(dp678
g74
g75
ssg63
g672
sg56
(lp679
g347
asbag49
(g70
g51
NtRp680
(dp681
g54
(dp682
g81
g82
ssg63
g672
sg56
(lp683
S':'
asbag49
(g70
g51
NtRp684
(dp685
g54
(dp686
sg63
g672
sg56
(lp687
g49
(g50
g51
NtRp688
(dp689
g54
(dp690
g62
I3
ssg63
g684
sg56
(lp691
S''
asbasbasbag49
(g65
g51
NtRp692
(dp693
g54
(dp694
sg63
g588
sg56
(lp695
g49
(g70
g51
NtRp696
(dp697
g54
(dp698
g74
g75
ssg63
g692
sg56
(lp699
g368
asbag49
(g70
g51
NtRp700
(dp701
g54
(dp702
g81
g82
ssg63
g692
sg56
(lp703
S':'
asbag49
(g70
g51
NtRp704
(dp705
g54
(dp706
sg63
g692
sg56
(lp707
g49
(g50
g51
NtRp708
(dp709
g54
(dp710
g62
I3
ssg63
g704
sg56
(lp711
S''
asbasbasbag49
(g65
g51
NtRp712
(dp713
g54
(dp714
sg63
g588
sg56
(lp715
g49
(g70
g51
NtRp716
(dp717
g54
(dp718
g74
g75
ssg63
g712
sg56
(lp719
g389
asbag49
(g70
g51
NtRp720
(dp721
g54
(dp722
g81
g82
ssg63
g712
sg56
(lp723
S':'
asbag49
(g70
g51
NtRp724
(dp725
g54
(dp726
sg63
g712
sg56
(lp727
g49
(g50
g51
NtRp728
(dp729
g54
(dp730
g62
I3
ssg63
g724
sg56
(lp731
S''
asbasbasbasbasbasbasbasbasbasbasbag49
(g65
g51
NtRp732
(dp733
g54
(dp734
sg63
g59
sg56
(lp735
g49
(g70
g51
NtRp736
(dp737
g54
(dp738
g74
g75
ssg63
g732
sg56
(lp739
S'env'
p740
asbag49
(g70
g51
NtRp741
(dp742
g54
(dp743
g81
g82
ssg63
g732
sg56
(lp744
S':'
asbag49
(g70
g51
NtRp745
(dp746
g54
(dp747
sg63
g732
sg56
(lp748
g49
(g50
g51
NtRp749
(dp750
g54
(dp751
g62
I5
ssg63
g745
sg56
(lp752
g49
(g58
g51
NtRp753
(dp754
g54
(dp755
g62
I4
ssg63
Nsg56
(lp756
g49
(g65
g51
NtRp757
(dp758
g54
(dp759
sg63
g753
sg56
(lp760
g49
(g70
g51
NtRp761
(dp762
g54
(dp763
g74
g75
ssg63
g757
sg56
(lp764
S'app_folders'
p765
asbag49
(g70
g51
NtRp766
(dp767
g54
(dp768
g81
g82
ssg63
g757
sg56
(lp769
S':'
asbag49
(g70
g51
NtRp770
(dp771
g54
(dp772
sg63
g757
sg56
(lp773
g49
(g50
g51
NtRp774
(dp775
g54
(dp776
g62
I4
ssg63
g770
sg56
(lp777
S"set(['C:\\\\web2py\\\\applications\\\\admin\\\\', 'C:\\\\web2py\\\\applications\\\\welcome\\\\', 'C:\\\\web2py\\\\applications\\\\unioeste_code\\\\'])"
p778
asbasbasbag49
(g65
g51
NtRp779
(dp780
g54
(dp781
sg63
g753
sg56
(lp782
g49
(g70
g51
NtRp783
(dp784
g54
(dp785
g74
g75
ssg63
g779
sg56
(lp786
S'applications_parent'
p787
asbag49
(g70
g51
NtRp788
(dp789
g54
(dp790
g81
g82
ssg63
g779
sg56
(lp791
S':'
asbag49
(g70
g51
NtRp792
(dp793
g54
(dp794
sg63
g779
sg56
(lp795
g49
(g50
g51
NtRp796
(dp797
g54
(dp798
g62
I4
ssg63
g792
sg56
(lp799
S'C:\\web2py'
p800
asbasbasbag49
(g65
g51
NtRp801
(dp802
g54
(dp803
sg63
g753
sg56
(lp804
g49
(g70
g51
NtRp805
(dp806
g54
(dp807
g74
g75
ssg63
g801
sg56
(lp808
S'cmd_args'
p809
asbag49
(g70
g51
NtRp810
(dp811
g54
(dp812
g81
g82
ssg63
g801
sg56
(lp813
S':'
asbag49
(g70
g51
NtRp814
(dp815
g54
(dp816
sg63
g801
sg56
(lp817
g49
(g50
g51
NtRp818
(dp819
g54
(dp820
g62
I4
ssg63
g814
sg56
(lp821
g49
(g58
g51
NtRp822
(dp823
g54
(dp824
g62
I3
ssg63
Nsg56
(lp825
sbasbasbasbag49
(g65
g51
NtRp826
(dp827
g54
(dp828
sg63
g753
sg56
(lp829
g49
(g70
g51
NtRp830
(dp831
g54
(dp832
g74
g75
ssg63
g826
sg56
(lp833
S'cmd_options'
p834
asbag49
(g70
g51
NtRp835
(dp836
g54
(dp837
g81
g82
ssg63
g826
sg56
(lp838
S':'
asbag49
(g70
g51
NtRp839
(dp840
g54
(dp841
sg63
g826
sg56
(lp842
g49
(g50
g51
NtRp843
(dp844
g54
(dp845
g62
I4
ssg63
g839
sg56
(lp846
S"<Values at 0x309c300: {'verbose': False, 'ip': '127.0.0.1', 'shutdown_timeout': 5, 'taskbar': False, 'nocron': False, 'pid_filename': 'httpserver.pid', 'maxthreads': None, 'softcron': False, 'server_name': 'Pedro-PC', 'bpython': False, 'nogui': False, 'port': 8000, 'extcron': False, 'debuglevel': 30, 'test': None, 'folder': 'C:\\\\web2py', 'config': '', 'import_models': False, 'winservice': '', 'shell': None, 'run': '', 'log_filename': 'httpserver.log', 'args': [''], 'socket_timeout': 5, 'ssl_ca_certificate': None, 'scheduler': None, 'profiler_filename': None, 'ssl_private_key': '', 'password': '<ask>', 'request_queue_size': 5, 'ssl_certificate': '', 'cronjob': False, 'numthreads': None, 'quiet': False, 'interfaces': None, 'minthreads': None, 'timeout': 10, 'plain': False, 'nobanner': False}>"
p847
asbasbasbag49
(g65
g51
NtRp848
(dp849
g54
(dp850
sg63
g753
sg56
(lp851
g49
(g70
g51
NtRp852
(dp853
g54
(dp854
g74
g75
ssg63
g848
sg56
(lp855
S'db_sessions'
p856
asbag49
(g70
g51
NtRp857
(dp858
g54
(dp859
g81
g82
ssg63
g848
sg56
(lp860
S':'
asbag49
(g70
g51
NtRp861
(dp862
g54
(dp863
sg63
g848
sg56
(lp864
g49
(g50
g51
NtRp865
(dp866
g54
(dp867
g62
I4
ssg63
g861
sg56
(lp868
S'set([])'
p869
asbasbasbag49
(g65
g51
NtRp870
(dp871
g54
(dp872
sg63
g753
sg56
(lp873
g49
(g70
g51
NtRp874
(dp875
g54
(dp876
g74
g75
ssg63
g870
sg56
(lp877
S'debugging'
p878
asbag49
(g70
g51
NtRp879
(dp880
g54
(dp881
g81
g82
ssg63
g870
sg56
(lp882
S':'
asbag49
(g70
g51
NtRp883
(dp884
g54
(dp885
sg63
g870
sg56
(lp886
g49
(g50
g51
NtRp887
(dp888
g54
(dp889
g62
I4
ssg63
g883
sg56
(lp890
g92
asbasbasbag49
(g65
g51
NtRp891
(dp892
g54
(dp893
sg63
g753
sg56
(lp894
g49
(g70
g51
NtRp895
(dp896
g54
(dp897
g74
g75
ssg63
g891
sg56
(lp898
S'gluon_parent'
p899
asbag49
(g70
g51
NtRp900
(dp901
g54
(dp902
g81
g82
ssg63
g891
sg56
(lp903
S':'
asbag49
(g70
g51
NtRp904
(dp905
g54
(dp906
sg63
g891
sg56
(lp907
g49
(g50
g51
NtRp908
(dp909
g54
(dp910
g62
I4
ssg63
g904
sg56
(lp911
S'C:\\web2py'
p912
asbasbasbag49
(g65
g51
NtRp913
(dp914
g54
(dp915
sg63
g753
sg56
(lp916
g49
(g70
g51
NtRp917
(dp918
g54
(dp919
g74
g75
ssg63
g913
sg56
(lp920
S'http_accept'
p921
asbag49
(g70
g51
NtRp922
(dp923
g54
(dp924
g81
g82
ssg63
g913
sg56
(lp925
S':'
asbag49
(g70
g51
NtRp926
(dp927
g54
(dp928
sg63
g913
sg56
(lp929
g49
(g50
g51
NtRp930
(dp931
g54
(dp932
g62
I4
ssg63
g926
sg56
(lp933
S'text/html,application/xhtml+xml,application/xml;q=0.9,*/*;q=0.8'
p934
asbasbasbag49
(g65
g51
NtRp935
(dp936
g54
(dp937
sg63
g753
sg56
(lp938
g49
(g70
g51
NtRp939
(dp940
g54
(dp941
g74
g75
ssg63
g935
sg56
(lp942
S'http_accept_charset'
p943
asbag49
(g70
g51
NtRp944
(dp945
g54
(dp946
g81
g82
ssg63
g935
sg56
(lp947
S':'
asbag49
(g70
g51
NtRp948
(dp949
g54
(dp950
sg63
g935
sg56
(lp951
g49
(g50
g51
NtRp952
(dp953
g54
(dp954
g62
I4
ssg63
g948
sg56
(lp955
S'ISO-8859-1,utf-8;q=0.7,*;q=0.3'
p956
asbasbasbag49
(g65
g51
NtRp957
(dp958
g54
(dp959
sg63
g753
sg56
(lp960
g49
(g70
g51
NtRp961
(dp962
g54
(dp963
g74
g75
ssg63
g957
sg56
(lp964
S'http_accept_encoding'
p965
asbag49
(g70
g51
NtRp966
(dp967
g54
(dp968
g81
g82
ssg63
g957
sg56
(lp969
S':'
asbag49
(g70
g51
NtRp970
(dp971
g54
(dp972
sg63
g957
sg56
(lp973
g49
(g50
g51
NtRp974
(dp975
g54
(dp976
g62
I4
ssg63
g970
sg56
(lp977
S'gzip,deflate,sdch'
p978
asbasbasbag49
(g65
g51
NtRp979
(dp980
g54
(dp981
sg63
g753
sg56
(lp982
g49
(g70
g51
NtRp983
(dp984
g54
(dp985
g74
g75
ssg63
g979
sg56
(lp986
S'http_accept_language'
p987
asbag49
(g70
g51
NtRp988
(dp989
g54
(dp990
g81
g82
ssg63
g979
sg56
(lp991
S':'
asbag49
(g70
g51
NtRp992
(dp993
g54
(dp994
sg63
g979
sg56
(lp995
g49
(g50
g51
NtRp996
(dp997
g54
(dp998
g62
I4
ssg63
g992
sg56
(lp999
S'pt-BR,pt;q=0.8,en-US;q=0.6,en;q=0.4'
p1000
asbasbasbag49
(g65
g51
NtRp1001
(dp1002
g54
(dp1003
sg63
g753
sg56
(lp1004
g49
(g70
g51
NtRp1005
(dp1006
g54
(dp1007
g74
g75
ssg63
g1001
sg56
(lp1008
S'http_cache_control'
p1009
asbag49
(g70
g51
NtRp1010
(dp1011
g54
(dp1012
g81
g82
ssg63
g1001
sg56
(lp1013
S':'
asbag49
(g70
g51
NtRp1014
(dp1015
g54
(dp1016
sg63
g1001
sg56
(lp1017
g49
(g50
g51
NtRp1018
(dp1019
g54
(dp1020
g62
I4
ssg63
g1014
sg56
(lp1021
S'max-age=0'
p1022
asbasbasbag49
(g65
g51
NtRp1023
(dp1024
g54
(dp1025
sg63
g753
sg56
(lp1026
g49
(g70
g51
NtRp1027
(dp1028
g54
(dp1029
g74
g75
ssg63
g1023
sg56
(lp1030
S'http_connection'
p1031
asbag49
(g70
g51
NtRp1032
(dp1033
g54
(dp1034
g81
g82
ssg63
g1023
sg56
(lp1035
S':'
asbag49
(g70
g51
NtRp1036
(dp1037
g54
(dp1038
sg63
g1023
sg56
(lp1039
g49
(g50
g51
NtRp1040
(dp1041
g54
(dp1042
g62
I4
ssg63
g1036
sg56
(lp1043
S'keep-alive'
p1044
asbasbasbag49
(g65
g51
NtRp1045
(dp1046
g54
(dp1047
sg63
g753
sg56
(lp1048
g49
(g70
g51
NtRp1049
(dp1050
g54
(dp1051
g74
g75
ssg63
g1045
sg56
(lp1052
S'http_cookie'
p1053
asbag49
(g70
g51
NtRp1054
(dp1055
g54
(dp1056
g81
g82
ssg63
g1045
sg56
(lp1057
S':'
asbag49
(g70
g51
NtRp1058
(dp1059
g54
(dp1060
sg63
g1045
sg56
(lp1061
g49
(g50
g51
NtRp1062
(dp1063
g54
(dp1064
g62
I4
ssg63
g1058
sg56
(lp1065
S'session_id_welcome=127.0.0.1-1a92f181-8ff8-45e5-a5ea-67695bf9cf4b; session_id_admin=127.0.0.1-74314c3a-3fdd-4faa-80a4-9a8219ae5070; session_id_unioeste_code=127.0.0.1-87142505-8d38-426f-afb9-e3f36884a384'
p1066
asbasbasbag49
(g65
g51
NtRp1067
(dp1068
g54
(dp1069
sg63
g753
sg56
(lp1070
g49
(g70
g51
NtRp1071
(dp1072
g54
(dp1073
g74
g75
ssg63
g1067
sg56
(lp1074
S'http_dnt'
p1075
asbag49
(g70
g51
NtRp1076
(dp1077
g54
(dp1078
g81
g82
ssg63
g1067
sg56
(lp1079
S':'
asbag49
(g70
g51
NtRp1080
(dp1081
g54
(dp1082
sg63
g1067
sg56
(lp1083
g49
(g50
g51
NtRp1084
(dp1085
g54
(dp1086
g62
I4
ssg63
g1080
sg56
(lp1087
S'1'
asbasbasbag49
(g65
g51
NtRp1088
(dp1089
g54
(dp1090
sg63
g753
sg56
(lp1091
g49
(g70
g51
NtRp1092
(dp1093
g54
(dp1094
g74
g75
ssg63
g1088
sg56
(lp1095
S'http_host'
p1096
asbag49
(g70
g51
NtRp1097
(dp1098
g54
(dp1099
g81
g82
ssg63
g1088
sg56
(lp1100
S':'
asbag49
(g70
g51
NtRp1101
(dp1102
g54
(dp1103
sg63
g1088
sg56
(lp1104
g49
(g50
g51
NtRp1105
(dp1106
g54
(dp1107
g62
I4
ssg63
g1101
sg56
(lp1108
S'localhost:8000'
p1109
asbasbasbag49
(g65
g51
NtRp1110
(dp1111
g54
(dp1112
sg63
g753
sg56
(lp1113
g49
(g70
g51
NtRp1114
(dp1115
g54
(dp1116
g74
g75
ssg63
g1110
sg56
(lp1117
S'http_user_agent'
p1118
asbag49
(g70
g51
NtRp1119
(dp1120
g54
(dp1121
g81
g82
ssg63
g1110
sg56
(lp1122
S':'
asbag49
(g70
g51
NtRp1123
(dp1124
g54
(dp1125
sg63
g1110
sg56
(lp1126
g49
(g50
g51
NtRp1127
(dp1128
g54
(dp1129
g62
I4
ssg63
g1123
sg56
(lp1130
S'Mozilla/5.0 (Windows NT 6.1; WOW64) AppleWebKit/536.11 (KHTML, like Gecko) Chrome/20.0.1132.57 Safari/536.11'
p1131
asbasbasbag49
(g65
g51
NtRp1132
(dp1133
g54
(dp1134
sg63
g753
sg56
(lp1135
g49
(g70
g51
NtRp1136
(dp1137
g54
(dp1138
g74
g75
ssg63
g1132
sg56
(lp1139
S'is_jython'
p1140
asbag49
(g70
g51
NtRp1141
(dp1142
g54
(dp1143
g81
g82
ssg63
g1132
sg56
(lp1144
S':'
asbag49
(g70
g51
NtRp1145
(dp1146
g54
(dp1147
sg63
g1132
sg56
(lp1148
g49
(g50
g51
NtRp1149
(dp1150
g54
(dp1151
g62
I4
ssg63
g1145
sg56
(lp1152
g92
asbasbasbag49
(g65
g51
NtRp1153
(dp1154
g54
(dp1155
sg63
g753
sg56
(lp1156
g49
(g70
g51
NtRp1157
(dp1158
g54
(dp1159
g74
g75
ssg63
g1153
sg56
(lp1160
S'is_pypy'
p1161
asbag49
(g70
g51
NtRp1162
(dp1163
g54
(dp1164
g81
g82
ssg63
g1153
sg56
(lp1165
S':'
asbag49
(g70
g51
NtRp1166
(dp1167
g54
(dp1168
sg63
g1153
sg56
(lp1169
g49
(g50
g51
NtRp1170
(dp1171
g54
(dp1172
g62
I4
ssg63
g1166
sg56
(lp1173
g92
asbasbasbag49
(g65
g51
NtRp1174
(dp1175
g54
(dp1176
sg63
g753
sg56
(lp1177
g49
(g70
g51
NtRp1178
(dp1179
g54
(dp1180
g74
g75
ssg63
g1174
sg56
(lp1181
S'path_info'
p1182
asbag49
(g70
g51
NtRp1183
(dp1184
g54
(dp1185
g81
g82
ssg63
g1174
sg56
(lp1186
S':'
asbag49
(g70
g51
NtRp1187
(dp1188
g54
(dp1189
sg63
g1174
sg56
(lp1190
g49
(g50
g51
NtRp1191
(dp1192
g54
(dp1193
g62
I4
ssg63
g1187
sg56
(lp1194
S'/unioeste_code/default/manageCode'
p1195
asbasbasbag49
(g65
g51
NtRp1196
(dp1197
g54
(dp1198
sg63
g753
sg56
(lp1199
g49
(g70
g51
NtRp1200
(dp1201
g54
(dp1202
g74
g75
ssg63
g1196
sg56
(lp1203
S'query_string'
p1204
asbag49
(g70
g51
NtRp1205
(dp1206
g54
(dp1207
g81
g82
ssg63
g1196
sg56
(lp1208
S':'
asbag49
(g70
g51
NtRp1209
(dp1210
g54
(dp1211
sg63
g1196
sg56
(lp1212
g49
(g50
g51
NtRp1213
(dp1214
g54
(dp1215
g62
I4
ssg63
g1209
sg56
(lp1216
S''
asbasbasbag49
(g65
g51
NtRp1217
(dp1218
g54
(dp1219
sg63
g753
sg56
(lp1220
g49
(g70
g51
NtRp1221
(dp1222
g54
(dp1223
g74
g75
ssg63
g1217
sg56
(lp1224
S'remote_addr'
p1225
asbag49
(g70
g51
NtRp1226
(dp1227
g54
(dp1228
g81
g82
ssg63
g1217
sg56
(lp1229
S':'
asbag49
(g70
g51
NtRp1230
(dp1231
g54
(dp1232
sg63
g1217
sg56
(lp1233
g49
(g50
g51
NtRp1234
(dp1235
g54
(dp1236
g62
I4
ssg63
g1230
sg56
(lp1237
g182
asbasbasbag49
(g65
g51
NtRp1238
(dp1239
g54
(dp1240
sg63
g753
sg56
(lp1241
g49
(g70
g51
NtRp1242
(dp1243
g54
(dp1244
g74
g75
ssg63
g1238
sg56
(lp1245
S'remote_port'
p1246
asbag49
(g70
g51
NtRp1247
(dp1248
g54
(dp1249
g81
g82
ssg63
g1238
sg56
(lp1250
S':'
asbag49
(g70
g51
NtRp1251
(dp1252
g54
(dp1253
sg63
g1238
sg56
(lp1254
g49
(g50
g51
NtRp1255
(dp1256
g54
(dp1257
g62
I4
ssg63
g1251
sg56
(lp1258
S'2694'
p1259
asbasbasbag49
(g65
g51
NtRp1260
(dp1261
g54
(dp1262
sg63
g753
sg56
(lp1263
g49
(g70
g51
NtRp1264
(dp1265
g54
(dp1266
g74
g75
ssg63
g1260
sg56
(lp1267
S'request_method'
p1268
asbag49
(g70
g51
NtRp1269
(dp1270
g54
(dp1271
g81
g82
ssg63
g1260
sg56
(lp1272
S':'
asbag49
(g70
g51
NtRp1273
(dp1274
g54
(dp1275
sg63
g1260
sg56
(lp1276
g49
(g50
g51
NtRp1277
(dp1278
g54
(dp1279
g62
I4
ssg63
g1273
sg56
(lp1280
S'GET'
p1281
asbasbasbag49
(g65
g51
NtRp1282
(dp1283
g54
(dp1284
sg63
g753
sg56
(lp1285
g49
(g70
g51
NtRp1286
(dp1287
g54
(dp1288
g74
g75
ssg63
g1282
sg56
(lp1289
S'script_name'
p1290
asbag49
(g70
g51
NtRp1291
(dp1292
g54
(dp1293
g81
g82
ssg63
g1282
sg56
(lp1294
S':'
asbag49
(g70
g51
NtRp1295
(dp1296
g54
(dp1297
sg63
g1282
sg56
(lp1298
g49
(g50
g51
NtRp1299
(dp1300
g54
(dp1301
g62
I4
ssg63
g1295
sg56
(lp1302
S''
asbasbasbag49
(g65
g51
NtRp1303
(dp1304
g54
(dp1305
sg63
g753
sg56
(lp1306
g49
(g70
g51
NtRp1307
(dp1308
g54
(dp1309
g74
g75
ssg63
g1303
sg56
(lp1310
S'server_name'
p1311
asbag49
(g70
g51
NtRp1312
(dp1313
g54
(dp1314
g81
g82
ssg63
g1303
sg56
(lp1315
S':'
asbag49
(g70
g51
NtRp1316
(dp1317
g54
(dp1318
sg63
g1303
sg56
(lp1319
g49
(g50
g51
NtRp1320
(dp1321
g54
(dp1322
g62
I4
ssg63
g1316
sg56
(lp1323
S'Pedro-PC'
p1324
asbasbasbag49
(g65
g51
NtRp1325
(dp1326
g54
(dp1327
sg63
g753
sg56
(lp1328
g49
(g70
g51
NtRp1329
(dp1330
g54
(dp1331
g74
g75
ssg63
g1325
sg56
(lp1332
S'server_port'
p1333
asbag49
(g70
g51
NtRp1334
(dp1335
g54
(dp1336
g81
g82
ssg63
g1325
sg56
(lp1337
S':'
asbag49
(g70
g51
NtRp1338
(dp1339
g54
(dp1340
sg63
g1325
sg56
(lp1341
g49
(g50
g51
NtRp1342
(dp1343
g54
(dp1344
g62
I4
ssg63
g1338
sg56
(lp1345
S'8000'
p1346
asbasbasbag49
(g65
g51
NtRp1347
(dp1348
g54
(dp1349
sg63
g753
sg56
(lp1350
g49
(g70
g51
NtRp1351
(dp1352
g54
(dp1353
g74
g75
ssg63
g1347
sg56
(lp1354
S'server_protocol'
p1355
asbag49
(g70
g51
NtRp1356
(dp1357
g54
(dp1358
g81
g82
ssg63
g1347
sg56
(lp1359
S':'
asbag49
(g70
g51
NtRp1360
(dp1361
g54
(dp1362
sg63
g1347
sg56
(lp1363
g49
(g50
g51
NtRp1364
(dp1365
g54
(dp1366
g62
I4
ssg63
g1360
sg56
(lp1367
S'HTTP/1.1'
p1368
asbasbasbag49
(g65
g51
NtRp1369
(dp1370
g54
(dp1371
sg63
g753
sg56
(lp1372
g49
(g70
g51
NtRp1373
(dp1374
g54
(dp1375
g74
g75
ssg63
g1369
sg56
(lp1376
S'server_software'
p1377
asbag49
(g70
g51
NtRp1378
(dp1379
g54
(dp1380
g81
g82
ssg63
g1369
sg56
(lp1381
S':'
asbag49
(g70
g51
NtRp1382
(dp1383
g54
(dp1384
sg63
g1369
sg56
(lp1385
g49
(g50
g51
NtRp1386
(dp1387
g54
(dp1388
g62
I4
ssg63
g1382
sg56
(lp1389
S'Rocket 1.2.4'
p1390
asbasbasbag49
(g65
g51
NtRp1391
(dp1392
g54
(dp1393
sg63
g753
sg56
(lp1394
g49
(g70
g51
NtRp1395
(dp1396
g54
(dp1397
g74
g75
ssg63
g1391
sg56
(lp1398
S'web2py_crontype'
p1399
asbag49
(g70
g51
NtRp1400
(dp1401
g54
(dp1402
g81
g82
ssg63
g1391
sg56
(lp1403
S':'
asbag49
(g70
g51
NtRp1404
(dp1405
g54
(dp1406
sg63
g1391
sg56
(lp1407
g49
(g50
g51
NtRp1408
(dp1409
g54
(dp1410
g62
I4
ssg63
g1404
sg56
(lp1411
S'hard'
p1412
asbasbasbag49
(g65
g51
NtRp1413
(dp1414
g54
(dp1415
sg63
g753
sg56
(lp1416
g49
(g70
g51
NtRp1417
(dp1418
g54
(dp1419
g74
g75
ssg63
g1413
sg56
(lp1420
S'web2py_path'
p1421
asbag49
(g70
g51
NtRp1422
(dp1423
g54
(dp1424
g81
g82
ssg63
g1413
sg56
(lp1425
S':'
asbag49
(g70
g51
NtRp1426
(dp1427
g54
(dp1428
sg63
g1413
sg56
(lp1429
g49
(g50
g51
NtRp1430
(dp1431
g54
(dp1432
g62
I4
ssg63
g1426
sg56
(lp1433
g800
asbasbasbag49
(g65
g51
NtRp1434
(dp1435
g54
(dp1436
sg63
g753
sg56
(lp1437
g49
(g70
g51
NtRp1438
(dp1439
g54
(dp1440
g74
g75
ssg63
g1434
sg56
(lp1441
S'web2py_version'
p1442
asbag49
(g70
g51
NtRp1443
(dp1444
g54
(dp1445
g81
g82
ssg63
g1434
sg56
(lp1446
S':'
asbag49
(g70
g51
NtRp1447
(dp1448
g54
(dp1449
sg63
g1434
sg56
(lp1450
g49
(g50
g51
NtRp1451
(dp1452
g54
(dp1453
g62
I4
ssg63
g1447
sg56
(lp1454
g49
(g58
g51
NtRp1455
(dp1456
g54
(dp1457
g62
I3
ssg63
Nsg56
(lp1458
g49
(g65
g51
NtRp1459
(dp1460
g54
(dp1461
sg63
g1455
sg56
(lp1462
g49
(g70
g51
NtRp1463
(dp1464
g54
(dp1465
sg63
g1459
sg56
(lp1466
g49
(g50
g51
NtRp1467
(dp1468
g54
(dp1469
g62
I3
ssg63
g1463
sg56
(lp1470
S'1'
asbasbasbag49
(g65
g51
NtRp1471
(dp1472
g54
(dp1473
sg63
g1455
sg56
(lp1474
g49
(g70
g51
NtRp1475
(dp1476
g54
(dp1477
sg63
g1471
sg56
(lp1478
g49
(g50
g51
NtRp1479
(dp1480
g54
(dp1481
g62
I3
ssg63
g1475
sg56
(lp1482
S'99'
p1483
asbasbasbag49
(g65
g51
NtRp1484
(dp1485
g54
(dp1486
sg63
g1455
sg56
(lp1487
g49
(g70
g51
NtRp1488
(dp1489
g54
(dp1490
sg63
g1484
sg56
(lp1491
g49
(g50
g51
NtRp1492
(dp1493
g54
(dp1494
g62
I3
ssg63
g1488
sg56
(lp1495
S'7'
asbasbasbag49
(g65
g51
NtRp1496
(dp1497
g54
(dp1498
sg63
g1455
sg56
(lp1499
g49
(g70
g51
NtRp1500
(dp1501
g54
(dp1502
sg63
g1496
sg56
(lp1503
g49
(g50
g51
NtRp1504
(dp1505
g54
(dp1506
g62
I3
ssg63
g1500
sg56
(lp1507
S'datetime.datetime(2012, 3, 4, 22, 12, 8)'
p1508
asbasbasbag49
(g65
g51
NtRp1509
(dp1510
g54
(dp1511
sg63
g1455
sg56
(lp1512
g49
(g70
g51
NtRp1513
(dp1514
g54
(dp1515
sg63
g1509
sg56
(lp1516
g49
(g50
g51
NtRp1517
(dp1518
g54
(dp1519
g62
I3
ssg63
g1513
sg56
(lp1520
S'stable'
p1521
asbasbasbasbasbasbasbag49
(g65
g51
NtRp1522
(dp1523
g54
(dp1524
sg63
g753
sg56
(lp1525
g49
(g70
g51
NtRp1526
(dp1527
g54
(dp1528
g74
g75
ssg63
g1522
sg56
(lp1529
S'wsgi_errors'
p1530
asbag49
(g70
g51
NtRp1531
(dp1532
g54
(dp1533
g81
g82
ssg63
g1522
sg56
(lp1534
S':'
asbag49
(g70
g51
NtRp1535
(dp1536
g54
(dp1537
sg63
g1522
sg56
(lp1538
g49
(g50
g51
NtRp1539
(dp1540
g54
(dp1541
g62
I4
ssg63
g1535
sg56
(lp1542
S'<__main__.Stderr object at 0x006F6670>'
p1543
asbasbasbag49
(g65
g51
NtRp1544
(dp1545
g54
(dp1546
sg63
g753
sg56
(lp1547
g49
(g70
g51
NtRp1548
(dp1549
g54
(dp1550
g74
g75
ssg63
g1544
sg56
(lp1551
S'wsgi_file_wrapper'
p1552
asbag49
(g70
g51
NtRp1553
(dp1554
g54
(dp1555
g81
g82
ssg63
g1544
sg56
(lp1556
S':'
asbag49
(g70
g51
NtRp1557
(dp1558
g54
(dp1559
sg63
g1544
sg56
(lp1560
g49
(g50
g51
NtRp1561
(dp1562
g54
(dp1563
g62
I4
ssg63
g1557
sg56
(lp1564
S'<class wsgiref.util.FileWrapper at 0x02E8DE10>'
p1565
asbasbasbag49
(g65
g51
NtRp1566
(dp1567
g54
(dp1568
sg63
g753
sg56
(lp1569
g49
(g70
g51
NtRp1570
(dp1571
g54
(dp1572
g74
g75
ssg63
g1566
sg56
(lp1573
S'wsgi_input'
p1574
asbag49
(g70
g51
NtRp1575
(dp1576
g54
(dp1577
g81
g82
ssg63
g1566
sg56
(lp1578
S':'
asbag49
(g70
g51
NtRp1579
(dp1580
g54
(dp1581
sg63
g1566
sg56
(lp1582
g49
(g50
g51
NtRp1583
(dp1584
g54
(dp1585
g62
I4
ssg63
g1579
sg56
(lp1586
S'<socket._fileobject object at 0x031F43F0>'
p1587
asbasbasbag49
(g65
g51
NtRp1588
(dp1589
g54
(dp1590
sg63
g753
sg56
(lp1591
g49
(g70
g51
NtRp1592
(dp1593
g54
(dp1594
g74
g75
ssg63
g1588
sg56
(lp1595
S'wsgi_multiprocess'
p1596
asbag49
(g70
g51
NtRp1597
(dp1598
g54
(dp1599
g81
g82
ssg63
g1588
sg56
(lp1600
S':'
asbag49
(g70
g51
NtRp1601
(dp1602
g54
(dp1603
sg63
g1588
sg56
(lp1604
g49
(g50
g51
NtRp1605
(dp1606
g54
(dp1607
g62
I4
ssg63
g1601
sg56
(lp1608
g92
asbasbasbag49
(g65
g51
NtRp1609
(dp1610
g54
(dp1611
sg63
g753
sg56
(lp1612
g49
(g70
g51
NtRp1613
(dp1614
g54
(dp1615
g74
g75
ssg63
g1609
sg56
(lp1616
S'wsgi_multithread'
p1617
asbag49
(g70
g51
NtRp1618
(dp1619
g54
(dp1620
g81
g82
ssg63
g1609
sg56
(lp1621
S':'
asbag49
(g70
g51
NtRp1622
(dp1623
g54
(dp1624
sg63
g1609
sg56
(lp1625
g49
(g50
g51
NtRp1626
(dp1627
g54
(dp1628
g62
I4
ssg63
g1622
sg56
(lp1629
S'True'
p1630
asbasbasbag49
(g65
g51
NtRp1631
(dp1632
g54
(dp1633
sg63
g753
sg56
(lp1634
g49
(g70
g51
NtRp1635
(dp1636
g54
(dp1637
g74
g75
ssg63
g1631
sg56
(lp1638
S'wsgi_run_once'
p1639
asbag49
(g70
g51
NtRp1640
(dp1641
g54
(dp1642
g81
g82
ssg63
g1631
sg56
(lp1643
S':'
asbag49
(g70
g51
NtRp1644
(dp1645
g54
(dp1646
sg63
g1631
sg56
(lp1647
g49
(g50
g51
NtRp1648
(dp1649
g54
(dp1650
g62
I4
ssg63
g1644
sg56
(lp1651
g92
asbasbasbag49
(g65
g51
NtRp1652
(dp1653
g54
(dp1654
sg63
g753
sg56
(lp1655
g49
(g70
g51
NtRp1656
(dp1657
g54
(dp1658
g74
g75
ssg63
g1652
sg56
(lp1659
S'wsgi_url_scheme'
p1660
asbag49
(g70
g51
NtRp1661
(dp1662
g54
(dp1663
g81
g82
ssg63
g1652
sg56
(lp1664
S':'
asbag49
(g70
g51
NtRp1665
(dp1666
g54
(dp1667
sg63
g1652
sg56
(lp1668
g49
(g50
g51
NtRp1669
(dp1670
g54
(dp1671
g62
I4
ssg63
g1665
sg56
(lp1672
S'http'
p1673
asbasbasbag49
(g65
g51
NtRp1674
(dp1675
g54
(dp1676
sg63
g753
sg56
(lp1677
g49
(g70
g51
NtRp1678
(dp1679
g54
(dp1680
g74
g75
ssg63
g1674
sg56
(lp1681
S'wsgi_version'
p1682
asbag49
(g70
g51
NtRp1683
(dp1684
g54
(dp1685
g81
g82
ssg63
g1674
sg56
(lp1686
S':'
asbag49
(g70
g51
NtRp1687
(dp1688
g54
(dp1689
sg63
g1674
sg56
(lp1690
g49
(g50
g51
NtRp1691
(dp1692
g54
(dp1693
g62
I4
ssg63
g1687
sg56
(lp1694
g49
(g58
g51
NtRp1695
(dp1696
g54
(dp1697
g62
I3
ssg63
Nsg56
(lp1698
g49
(g65
g51
NtRp1699
(dp1700
g54
(dp1701
sg63
g1695
sg56
(lp1702
g49
(g70
g51
NtRp1703
(dp1704
g54
(dp1705
sg63
g1699
sg56
(lp1706
g49
(g50
g51
NtRp1707
(dp1708
g54
(dp1709
g62
I3
ssg63
g1703
sg56
(lp1710
S'1'
asbasbasbag49
(g65
g51
NtRp1711
(dp1712
g54
(dp1713
sg63
g1695
sg56
(lp1714
g49
(g70
g51
NtRp1715
(dp1716
g54
(dp1717
sg63
g1711
sg56
(lp1718
g49
(g50
g51
NtRp1719
(dp1720
g54
(dp1721
g62
I3
ssg63
g1715
sg56
(lp1722
S'0'
asbasbasbasbasbasbasbasbasbasbasbag49
(g65
g51
NtRp1723
(dp1724
g54
(dp1725
sg63
g59
sg56
(lp1726
g49
(g70
g51
NtRp1727
(dp1728
g54
(dp1729
g74
g75
ssg63
g1723
sg56
(lp1730
S'extension'
p1731
asbag49
(g70
g51
NtRp1732
(dp1733
g54
(dp1734
g81
g82
ssg63
g1723
sg56
(lp1735
S':'
asbag49
(g70
g51
NtRp1736
(dp1737
g54
(dp1738
sg63
g1723
sg56
(lp1739
g49
(g50
g51
NtRp1740
(dp1741
g54
(dp1742
g62
I5
ssg63
g1736
sg56
(lp1743
S'html'
p1744
asbasbasbag49
(g65
g51
NtRp1745
(dp1746
g54
(dp1747
sg63
g59
sg56
(lp1748
g49
(g70
g51
NtRp1749
(dp1750
g54
(dp1751
g74
g75
ssg63
g1745
sg56
(lp1752
S'folder'
p1753
asbag49
(g70
g51
NtRp1754
(dp1755
g54
(dp1756
g81
g82
ssg63
g1745
sg56
(lp1757
S':'
asbag49
(g70
g51
NtRp1758
(dp1759
g54
(dp1760
sg63
g1745
sg56
(lp1761
g49
(g50
g51
NtRp1762
(dp1763
g54
(dp1764
g62
I5
ssg63
g1758
sg56
(lp1765
S'C:\\web2py\\applications\\unioeste_code\\'
p1766
asbasbasbag49
(g65
g51
NtRp1767
(dp1768
g54
(dp1769
sg63
g59
sg56
(lp1770
g49
(g70
g51
NtRp1771
(dp1772
g54
(dp1773
g74
g75
ssg63
g1767
sg56
(lp1774
S'function'
p1775
asbag49
(g70
g51
NtRp1776
(dp1777
g54
(dp1778
g81
g82
ssg63
g1767
sg56
(lp1779
S':'
asbag49
(g70
g51
NtRp1780
(dp1781
g54
(dp1782
sg63
g1767
sg56
(lp1783
g49
(g50
g51
NtRp1784
(dp1785
g54
(dp1786
g62
I5
ssg63
g1780
sg56
(lp1787
S'manageCode'
p1788
asbasbasbag49
(g65
g51
NtRp1789
(dp1790
g54
(dp1791
sg63
g59
sg56
(lp1792
g49
(g70
g51
NtRp1793
(dp1794
g54
(dp1795
g74
g75
ssg63
g1789
sg56
(lp1796
S'get_vars'
p1797
asbag49
(g70
g51
NtRp1798
(dp1799
g54
(dp1800
g81
g82
ssg63
g1789
sg56
(lp1801
S':'
asbag49
(g70
g51
NtRp1802
(dp1803
g54
(dp1804
sg63
g1789
sg56
(lp1805
g49
(g50
g51
NtRp1806
(dp1807
g54
(dp1808
g62
I5
ssg63
g1802
sg56
(lp1809
g49
(g58
g51
NtRp1810
(dp1811
g54
(dp1812
g62
I4
ssg63
Nsg56
(lp1813
sbasbasbasbag49
(g65
g51
NtRp1814
(dp1815
g54
(dp1816
sg63
g59
sg56
(lp1817
g49
(g70
g51
NtRp1818
(dp1819
g54
(dp1820
g74
g75
ssg63
g1814
sg56
(lp1821
S'global_settings'
p1822
asbag49
(g70
g51
NtRp1823
(dp1824
g54
(dp1825
g81
g82
ssg63
g1814
sg56
(lp1826
S':'
asbag49
(g70
g51
NtRp1827
(dp1828
g54
(dp1829
sg63
g1814
sg56
(lp1830
g49
(g50
g51
NtRp1831
(dp1832
g54
(dp1833
g62
I5
ssg63
g1827
sg56
(lp1834
g49
(g58
g51
NtRp1835
(dp1836
g54
(dp1837
g62
I4
ssg63
Nsg56
(lp1838
g49
(g65
g51
NtRp1839
(dp1840
g54
(dp1841
sg63
g1835
sg56
(lp1842
g49
(g70
g51
NtRp1843
(dp1844
g54
(dp1845
g74
g75
ssg63
g1839
sg56
(lp1846
g765
asbag49
(g70
g51
NtRp1847
(dp1848
g54
(dp1849
g81
g82
ssg63
g1839
sg56
(lp1850
S':'
asbag49
(g70
g51
NtRp1851
(dp1852
g54
(dp1853
sg63
g1839
sg56
(lp1854
g49
(g50
g51
NtRp1855
(dp1856
g54
(dp1857
g62
I4
ssg63
g1851
sg56
(lp1858
S"set(['C:\\\\web2py\\\\applications\\\\admin\\\\', 'C:\\\\web2py\\\\applications\\\\welcome\\\\', 'C:\\\\web2py\\\\applications\\\\unioeste_code\\\\'])"
p1859
asbasbasbag49
(g65
g51
NtRp1860
(dp1861
g54
(dp1862
sg63
g1835
sg56
(lp1863
g49
(g70
g51
NtRp1864
(dp1865
g54
(dp1866
g74
g75
ssg63
g1860
sg56
(lp1867
g787
asbag49
(g70
g51
NtRp1868
(dp1869
g54
(dp1870
g81
g82
ssg63
g1860
sg56
(lp1871
S':'
asbag49
(g70
g51
NtRp1872
(dp1873
g54
(dp1874
sg63
g1860
sg56
(lp1875
g49
(g50
g51
NtRp1876
(dp1877
g54
(dp1878
g62
I4
ssg63
g1872
sg56
(lp1879
g800
asbasbasbag49
(g65
g51
NtRp1880
(dp1881
g54
(dp1882
sg63
g1835
sg56
(lp1883
g49
(g70
g51
NtRp1884
(dp1885
g54
(dp1886
g74
g75
ssg63
g1880
sg56
(lp1887
g809
asbag49
(g70
g51
NtRp1888
(dp1889
g54
(dp1890
g81
g82
ssg63
g1880
sg56
(lp1891
S':'
asbag49
(g70
g51
NtRp1892
(dp1893
g54
(dp1894
sg63
g1880
sg56
(lp1895
g49
(g50
g51
NtRp1896
(dp1897
g54
(dp1898
g62
I4
ssg63
g1892
sg56
(lp1899
g49
(g58
g51
NtRp1900
(dp1901
g54
(dp1902
g62
I3
ssg63
Nsg56
(lp1903
sbasbasbasbag49
(g65
g51
NtRp1904
(dp1905
g54
(dp1906
sg63
g1835
sg56
(lp1907
g49
(g70
g51
NtRp1908
(dp1909
g54
(dp1910
g74
g75
ssg63
g1904
sg56
(lp1911
g834
asbag49
(g70
g51
NtRp1912
(dp1913
g54
(dp1914
g81
g82
ssg63
g1904
sg56
(lp1915
S':'
asbag49
(g70
g51
NtRp1916
(dp1917
g54
(dp1918
sg63
g1904
sg56
(lp1919
g49
(g50
g51
NtRp1920
(dp1921
g54
(dp1922
g62
I4
ssg63
g1916
sg56
(lp1923
S"<Values at 0x309c300: {'verbose': False, 'ip': '127.0.0.1', 'shutdown_timeout': 5, 'taskbar': False, 'nocron': False, 'pid_filename': 'httpserver.pid', 'maxthreads': None, 'softcron': False, 'server_name': 'Pedro-PC', 'bpython': False, 'nogui': False, 'port': 8000, 'extcron': False, 'debuglevel': 30, 'test': None, 'folder': 'C:\\\\web2py', 'config': '', 'import_models': False, 'winservice': '', 'shell': None, 'run': '', 'log_filename': 'httpserver.log', 'args': [''], 'socket_timeout': 5, 'ssl_ca_certificate': None, 'scheduler': None, 'profiler_filename': None, 'ssl_private_key': '', 'password': '<ask>', 'request_queue_size': 5, 'ssl_certificate': '', 'cronjob': False, 'numthreads': None, 'quiet': False, 'interfaces': None, 'minthreads': None, 'timeout': 10, 'plain': False, 'nobanner': False}>"
p1924
asbasbasbag49
(g65
g51
NtRp1925
(dp1926
g54
(dp1927
sg63
g1835
sg56
(lp1928
g49
(g70
g51
NtRp1929
(dp1930
g54
(dp1931
g74
g75
ssg63
g1925
sg56
(lp1932
g856
asbag49
(g70
g51
NtRp1933
(dp1934
g54
(dp1935
g81
g82
ssg63
g1925
sg56
(lp1936
S':'
asbag49
(g70
g51
NtRp1937
(dp1938
g54
(dp1939
sg63
g1925
sg56
(lp1940
g49
(g50
g51
NtRp1941
(dp1942
g54
(dp1943
g62
I4
ssg63
g1937
sg56
(lp1944
S'set([])'
p1945
asbasbasbag49
(g65
g51
NtRp1946
(dp1947
g54
(dp1948
sg63
g1835
sg56
(lp1949
g49
(g70
g51
NtRp1950
(dp1951
g54
(dp1952
g74
g75
ssg63
g1946
sg56
(lp1953
g878
asbag49
(g70
g51
NtRp1954
(dp1955
g54
(dp1956
g81
g82
ssg63
g1946
sg56
(lp1957
S':'
asbag49
(g70
g51
NtRp1958
(dp1959
g54
(dp1960
sg63
g1946
sg56
(lp1961
g49
(g50
g51
NtRp1962
(dp1963
g54
(dp1964
g62
I4
ssg63
g1958
sg56
(lp1965
g92
asbasbasbag49
(g65
g51
NtRp1966
(dp1967
g54
(dp1968
sg63
g1835
sg56
(lp1969
g49
(g70
g51
NtRp1970
(dp1971
g54
(dp1972
g74
g75
ssg63
g1966
sg56
(lp1973
g899
asbag49
(g70
g51
NtRp1974
(dp1975
g54
(dp1976
g81
g82
ssg63
g1966
sg56
(lp1977
S':'
asbag49
(g70
g51
NtRp1978
(dp1979
g54
(dp1980
sg63
g1966
sg56
(lp1981
g49
(g50
g51
NtRp1982
(dp1983
g54
(dp1984
g62
I4
ssg63
g1978
sg56
(lp1985
g912
asbasbasbag49
(g65
g51
NtRp1986
(dp1987
g54
(dp1988
sg63
g1835
sg56
(lp1989
g49
(g70
g51
NtRp1990
(dp1991
g54
(dp1992
g74
g75
ssg63
g1986
sg56
(lp1993
g1140
asbag49
(g70
g51
NtRp1994
(dp1995
g54
(dp1996
g81
g82
ssg63
g1986
sg56
(lp1997
S':'
asbag49
(g70
g51
NtRp1998
(dp1999
g54
(dp2000
sg63
g1986
sg56
(lp2001
g49
(g50
g51
NtRp2002
(dp2003
g54
(dp2004
g62
I4
ssg63
g1998
sg56
(lp2005
g92
asbasbasbag49
(g65
g51
NtRp2006
(dp2007
g54
(dp2008
sg63
g1835
sg56
(lp2009
g49
(g70
g51
NtRp2010
(dp2011
g54
(dp2012
g74
g75
ssg63
g2006
sg56
(lp2013
g1161
asbag49
(g70
g51
NtRp2014
(dp2015
g54
(dp2016
g81
g82
ssg63
g2006
sg56
(lp2017
S':'
asbag49
(g70
g51
NtRp2018
(dp2019
g54
(dp2020
sg63
g2006
sg56
(lp2021
g49
(g50
g51
NtRp2022
(dp2023
g54
(dp2024
g62
I4
ssg63
g2018
sg56
(lp2025
g92
asbasbasbag49
(g65
g51
NtRp2026
(dp2027
g54
(dp2028
sg63
g1835
sg56
(lp2029
g49
(g70
g51
NtRp2030
(dp2031
g54
(dp2032
g74
g75
ssg63
g2026
sg56
(lp2033
g1399
asbag49
(g70
g51
NtRp2034
(dp2035
g54
(dp2036
g81
g82
ssg63
g2026
sg56
(lp2037
S':'
asbag49
(g70
g51
NtRp2038
(dp2039
g54
(dp2040
sg63
g2026
sg56
(lp2041
g49
(g50
g51
NtRp2042
(dp2043
g54
(dp2044
g62
I4
ssg63
g2038
sg56
(lp2045
g1412
asbasbasbag49
(g65
g51
NtRp2046
(dp2047
g54
(dp2048
sg63
g1835
sg56
(lp2049
g49
(g70
g51
NtRp2050
(dp2051
g54
(dp2052
g74
g75
ssg63
g2046
sg56
(lp2053
g1442
asbag49
(g70
g51
NtRp2054
(dp2055
g54
(dp2056
g81
g82
ssg63
g2046
sg56
(lp2057
S':'
asbag49
(g70
g51
NtRp2058
(dp2059
g54
(dp2060
sg63
g2046
sg56
(lp2061
g49
(g50
g51
NtRp2062
(dp2063
g54
(dp2064
g62
I4
ssg63
g2058
sg56
(lp2065
g49
(g58
g51
NtRp2066
(dp2067
g54
(dp2068
g62
I3
ssg63
Nsg56
(lp2069
g49
(g65
g51
NtRp2070
(dp2071
g54
(dp2072
sg63
g2066
sg56
(lp2073
g49
(g70
g51
NtRp2074
(dp2075
g54
(dp2076
sg63
g2070
sg56
(lp2077
g49
(g50
g51
NtRp2078
(dp2079
g54
(dp2080
g62
I3
ssg63
g2074
sg56
(lp2081
S'1'
asbasbasbag49
(g65
g51
NtRp2082
(dp2083
g54
(dp2084
sg63
g2066
sg56
(lp2085
g49
(g70
g51
NtRp2086
(dp2087
g54
(dp2088
sg63
g2082
sg56
(lp2089
g49
(g50
g51
NtRp2090
(dp2091
g54
(dp2092
g62
I3
ssg63
g2086
sg56
(lp2093
S'99'
p2094
asbasbasbag49
(g65
g51
NtRp2095
(dp2096
g54
(dp2097
sg63
g2066
sg56
(lp2098
g49
(g70
g51
NtRp2099
(dp2100
g54
(dp2101
sg63
g2095
sg56
(lp2102
g49
(g50
g51
NtRp2103
(dp2104
g54
(dp2105
g62
I3
ssg63
g2099
sg56
(lp2106
S'7'
asbasbasbag49
(g65
g51
NtRp2107
(dp2108
g54
(dp2109
sg63
g2066
sg56
(lp2110
g49
(g70
g51
NtRp2111
(dp2112
g54
(dp2113
sg63
g2107
sg56
(lp2114
g49
(g50
g51
NtRp2115
(dp2116
g54
(dp2117
g62
I3
ssg63
g2111
sg56
(lp2118
S'datetime.datetime(2012, 3, 4, 22, 12, 8)'
p2119
asbasbasbag49
(g65
g51
NtRp2120
(dp2121
g54
(dp2122
sg63
g2066
sg56
(lp2123
g49
(g70
g51
NtRp2124
(dp2125
g54
(dp2126
sg63
g2120
sg56
(lp2127
g49
(g50
g51
NtRp2128
(dp2129
g54
(dp2130
g62
I3
ssg63
g2124
sg56
(lp2131
g1521
asbasbasbasbasbasbasbasbasbasbasbag49
(g65
g51
NtRp2132
(dp2133
g54
(dp2134
sg63
g59
sg56
(lp2135
g49
(g70
g51
NtRp2136
(dp2137
g54
(dp2138
g74
g75
ssg63
g2132
sg56
(lp2139
S'is_https'
p2140
asbag49
(g70
g51
NtRp2141
(dp2142
g54
(dp2143
g81
g82
ssg63
g2132
sg56
(lp2144
S':'
asbag49
(g70
g51
NtRp2145
(dp2146
g54
(dp2147
sg63
g2132
sg56
(lp2148
g49
(g50
g51
NtRp2149
(dp2150
g54
(dp2151
g62
I5
ssg63
g2145
sg56
(lp2152
g92
asbasbasbag49
(g65
g51
NtRp2153
(dp2154
g54
(dp2155
sg63
g59
sg56
(lp2156
g49
(g70
g51
NtRp2157
(dp2158
g54
(dp2159
g74
g75
ssg63
g2153
sg56
(lp2160
S'is_local'
p2161
asbag49
(g70
g51
NtRp2162
(dp2163
g54
(dp2164
g81
g82
ssg63
g2153
sg56
(lp2165
S':'
asbag49
(g70
g51
NtRp2166
(dp2167
g54
(dp2168
sg63
g2153
sg56
(lp2169
g49
(g50
g51
NtRp2170
(dp2171
g54
(dp2172
g62
I5
ssg63
g2166
sg56
(lp2173
g1630
asbasbasbag49
(g65
g51
NtRp2174
(dp2175
g54
(dp2176
sg63
g59
sg56
(lp2177
g49
(g70
g51
NtRp2178
(dp2179
g54
(dp2180
g74
g75
ssg63
g2174
sg56
(lp2181
S'is_restful'
p2182
asbag49
(g70
g51
NtRp2183
(dp2184
g54
(dp2185
g81
g82
ssg63
g2174
sg56
(lp2186
S':'
asbag49
(g70
g51
NtRp2187
(dp2188
g54
(dp2189
sg63
g2174
sg56
(lp2190
g49
(g50
g51
NtRp2191
(dp2192
g54
(dp2193
g62
I5
ssg63
g2187
sg56
(lp2194
g92
asbasbasbag49
(g65
g51
NtRp2195
(dp2196
g54
(dp2197
sg63
g59
sg56
(lp2198
g49
(g70
g51
NtRp2199
(dp2200
g54
(dp2201
g74
g75
ssg63
g2195
sg56
(lp2202
S'now'
p2203
asbag49
(g70
g51
NtRp2204
(dp2205
g54
(dp2206
g81
g82
ssg63
g2195
sg56
(lp2207
S':'
asbag49
(g70
g51
NtRp2208
(dp2209
g54
(dp2210
sg63
g2195
sg56
(lp2211
g49
(g50
g51
NtRp2212
(dp2213
g54
(dp2214
g62
I5
ssg63
g2208
sg56
(lp2215
S'datetime.datetime(2012, 7, 28, 15, 53, 19, 457000)'
p2216
asbasbasbag49
(g65
g51
NtRp2217
(dp2218
g54
(dp2219
sg63
g59
sg56
(lp2220
g49
(g70
g51
NtRp2221
(dp2222
g54
(dp2223
g74
g75
ssg63
g2217
sg56
(lp2224
S'post_vars'
p2225
asbag49
(g70
g51
NtRp2226
(dp2227
g54
(dp2228
g81
g82
ssg63
g2217
sg56
(lp2229
S':'
asbag49
(g70
g51
NtRp2230
(dp2231
g54
(dp2232
sg63
g2217
sg56
(lp2233
g49
(g50
g51
NtRp2234
(dp2235
g54
(dp2236
g62
I5
ssg63
g2230
sg56
(lp2237
g49
(g58
g51
NtRp2238
(dp2239
g54
(dp2240
g62
I4
ssg63
Nsg56
(lp2241
sbasbasbasbag49
(g65
g51
NtRp2242
(dp2243
g54
(dp2244
sg63
g59
sg56
(lp2245
g49
(g70
g51
NtRp2246
(dp2247
g54
(dp2248
g74
g75
ssg63
g2242
sg56
(lp2249
S'url'
p2250
asbag49
(g70
g51
NtRp2251
(dp2252
g54
(dp2253
g81
g82
ssg63
g2242
sg56
(lp2254
S':'
asbag49
(g70
g51
NtRp2255
(dp2256
g54
(dp2257
sg63
g2242
sg56
(lp2258
g49
(g50
g51
NtRp2259
(dp2260
g54
(dp2261
g62
I5
ssg63
g2255
sg56
(lp2262
S'/unioeste_code/default/manageCode'
p2263
asbasbasbag49
(g65
g51
NtRp2264
(dp2265
g54
(dp2266
sg63
g59
sg56
(lp2267
g49
(g70
g51
NtRp2268
(dp2269
g54
(dp2270
g74
g75
ssg63
g2264
sg56
(lp2271
S'utcnow'
p2272
asbag49
(g70
g51
NtRp2273
(dp2274
g54
(dp2275
g81
g82
ssg63
g2264
sg56
(lp2276
S':'
asbag49
(g70
g51
NtRp2277
(dp2278
g54
(dp2279
sg63
g2264
sg56
(lp2280
g49
(g50
g51
NtRp2281
(dp2282
g54
(dp2283
g62
I5
ssg63
g2277
sg56
(lp2284
S'datetime.datetime(2012, 7, 28, 18, 53, 19, 457000)'
p2285
asbasbasbag49
(g65
g51
NtRp2286
(dp2287
g54
(dp2288
sg63
g59
sg56
(lp2289
g49
(g70
g51
NtRp2290
(dp2291
g54
(dp2292
g74
g75
ssg63
g2286
sg56
(lp2293
S'uuid'
p2294
asbag49
(g70
g51
NtRp2295
(dp2296
g54
(dp2297
g81
g82
ssg63
g2286
sg56
(lp2298
S':'
asbag49
(g70
g51
NtRp2299
(dp2300
g54
(dp2301
sg63
g2286
sg56
(lp2302
g49
(g50
g51
NtRp2303
(dp2304
g54
(dp2305
g62
I5
ssg63
g2299
sg56
(lp2306
S'unioeste_code/127.0.0.1.2012-07-28.15-53-19.80326f61-9121-4761-b128-b66c277dc6d7'
p2307
asbasbasbag49
(g65
g51
NtRp2308
(dp2309
g54
(dp2310
sg63
g59
sg56
(lp2311
g49
(g70
g51
NtRp2312
(dp2313
g54
(dp2314
g74
g75
ssg63
g2308
sg56
(lp2315
S'vars'
p2316
asbag49
(g70
g51
NtRp2317
(dp2318
g54
(dp2319
g81
g82
ssg63
g2308
sg56
(lp2320
S':'
asbag49
(g70
g51
NtRp2321
(dp2322
g54
(dp2323
sg63
g2308
sg56
(lp2324
g49
(g50
g51
NtRp2325
(dp2326
g54
(dp2327
g62
I5
ssg63
g2321
sg56
(lp2328
g49
(g58
g51
NtRp2329
(dp2330
g54
(dp2331
g62
I4
ssg63
Nsg56
(lp2332
sbasbasbasbag49
(g65
g51
NtRp2333
(dp2334
g54
(dp2335
sg63
g59
sg56
(lp2336
g49
(g70
g51
NtRp2337
(dp2338
g54
(dp2339
g74
g75
ssg63
g2333
sg56
(lp2340
S'wsgi'
p2341
asbag49
(g70
g51
NtRp2342
(dp2343
g54
(dp2344
g81
g82
ssg63
g2333
sg56
(lp2345
S':'
asbag49
(g70
g51
NtRp2346
(dp2347
g54
(dp2348
sg63
g2333
sg56
(lp2349
g49
(g50
g51
NtRp2350
(dp2351
g54
(dp2352
g62
I5
ssg63
g2346
sg56
(lp2353
g49
(g58
g51
NtRp2354
(dp2355
g54
(dp2356
g62
I4
ssg63
Nsg56
(lp2357
g49
(g65
g51
NtRp2358
(dp2359
g54
(dp2360
sg63
g2354
sg56
(lp2361
g49
(g70
g51
NtRp2362
(dp2363
g54
(dp2364
g74
g75
ssg63
g2358
sg56
(lp2365
S'environ'
p2366
asbag49
(g70
g51
NtRp2367
(dp2368
g54
(dp2369
g81
g82
ssg63
g2358
sg56
(lp2370
S':'
asbag49
(g70
g51
NtRp2371
(dp2372
g54
(dp2373
sg63
g2358
sg56
(lp2374
g49
(g50
g51
NtRp2375
(dp2376
g54
(dp2377
g62
I4
ssg63
g2371
sg56
(lp2378
g49
(g58
g51
NtRp2379
(dp2380
g54
(dp2381
g62
I3
ssg63
Nsg56
(lp2382
g49
(g65
g51
NtRp2383
(dp2384
g54
(dp2385
sg63
g2379
sg56
(lp2386
g49
(g70
g51
NtRp2387
(dp2388
g54
(dp2389
g74
g75
ssg63
g2383
sg56
(lp2390
S'HTTP_ACCEPT'
p2391
asbag49
(g70
g51
NtRp2392
(dp2393
g54
(dp2394
g81
g82
ssg63
g2383
sg56
(lp2395
S':'
asbag49
(g70
g51
NtRp2396
(dp2397
g54
(dp2398
sg63
g2383
sg56
(lp2399
g49
(g50
g51
NtRp2400
(dp2401
g54
(dp2402
g62
I3
ssg63
g2396
sg56
(lp2403
g934
asbasbasbag49
(g65
g51
NtRp2404
(dp2405
g54
(dp2406
sg63
g2379
sg56
(lp2407
g49
(g70
g51
NtRp2408
(dp2409
g54
(dp2410
g74
g75
ssg63
g2404
sg56
(lp2411
S'HTTP_ACCEPT_CHARSET'
p2412
asbag49
(g70
g51
NtRp2413
(dp2414
g54
(dp2415
g81
g82
ssg63
g2404
sg56
(lp2416
S':'
asbag49
(g70
g51
NtRp2417
(dp2418
g54
(dp2419
sg63
g2404
sg56
(lp2420
g49
(g50
g51
NtRp2421
(dp2422
g54
(dp2423
g62
I3
ssg63
g2417
sg56
(lp2424
g956
asbasbasbag49
(g65
g51
NtRp2425
(dp2426
g54
(dp2427
sg63
g2379
sg56
(lp2428
g49
(g70
g51
NtRp2429
(dp2430
g54
(dp2431
g74
g75
ssg63
g2425
sg56
(lp2432
S'HTTP_ACCEPT_ENCODING'
p2433
asbag49
(g70
g51
NtRp2434
(dp2435
g54
(dp2436
g81
g82
ssg63
g2425
sg56
(lp2437
S':'
asbag49
(g70
g51
NtRp2438
(dp2439
g54
(dp2440
sg63
g2425
sg56
(lp2441
g49
(g50
g51
NtRp2442
(dp2443
g54
(dp2444
g62
I3
ssg63
g2438
sg56
(lp2445
g978
asbasbasbag49
(g65
g51
NtRp2446
(dp2447
g54
(dp2448
sg63
g2379
sg56
(lp2449
g49
(g70
g51
NtRp2450
(dp2451
g54
(dp2452
g74
g75
ssg63
g2446
sg56
(lp2453
S'HTTP_ACCEPT_LANGUAGE'
p2454
asbag49
(g70
g51
NtRp2455
(dp2456
g54
(dp2457
g81
g82
ssg63
g2446
sg56
(lp2458
S':'
asbag49
(g70
g51
NtRp2459
(dp2460
g54
(dp2461
sg63
g2446
sg56
(lp2462
g49
(g50
g51
NtRp2463
(dp2464
g54
(dp2465
g62
I3
ssg63
g2459
sg56
(lp2466
g1000
asbasbasbag49
(g65
g51
NtRp2467
(dp2468
g54
(dp2469
sg63
g2379
sg56
(lp2470
g49
(g70
g51
NtRp2471
(dp2472
g54
(dp2473
g74
g75
ssg63
g2467
sg56
(lp2474
S'HTTP_CACHE_CONTROL'
p2475
asbag49
(g70
g51
NtRp2476
(dp2477
g54
(dp2478
g81
g82
ssg63
g2467
sg56
(lp2479
S':'
asbag49
(g70
g51
NtRp2480
(dp2481
g54
(dp2482
sg63
g2467
sg56
(lp2483
g49
(g50
g51
NtRp2484
(dp2485
g54
(dp2486
g62
I3
ssg63
g2480
sg56
(lp2487
g1022
asbasbasbag49
(g65
g51
NtRp2488
(dp2489
g54
(dp2490
sg63
g2379
sg56
(lp2491
g49
(g70
g51
NtRp2492
(dp2493
g54
(dp2494
g74
g75
ssg63
g2488
sg56
(lp2495
S'HTTP_CONNECTION'
p2496
asbag49
(g70
g51
NtRp2497
(dp2498
g54
(dp2499
g81
g82
ssg63
g2488
sg56
(lp2500
S':'
asbag49
(g70
g51
NtRp2501
(dp2502
g54
(dp2503
sg63
g2488
sg56
(lp2504
g49
(g50
g51
NtRp2505
(dp2506
g54
(dp2507
g62
I3
ssg63
g2501
sg56
(lp2508
g1044
asbasbasbag49
(g65
g51
NtRp2509
(dp2510
g54
(dp2511
sg63
g2379
sg56
(lp2512
g49
(g70
g51
NtRp2513
(dp2514
g54
(dp2515
g74
g75
ssg63
g2509
sg56
(lp2516
S'HTTP_COOKIE'
p2517
asbag49
(g70
g51
NtRp2518
(dp2519
g54
(dp2520
g81
g82
ssg63
g2509
sg56
(lp2521
S':'
asbag49
(g70
g51
NtRp2522
(dp2523
g54
(dp2524
sg63
g2509
sg56
(lp2525
g49
(g50
g51
NtRp2526
(dp2527
g54
(dp2528
g62
I3
ssg63
g2522
sg56
(lp2529
g1066
asbasbasbag49
(g65
g51
NtRp2530
(dp2531
g54
(dp2532
sg63
g2379
sg56
(lp2533
g49
(g70
g51
NtRp2534
(dp2535
g54
(dp2536
g74
g75
ssg63
g2530
sg56
(lp2537
S'HTTP_DNT'
p2538
asbag49
(g70
g51
NtRp2539
(dp2540
g54
(dp2541
g81
g82
ssg63
g2530
sg56
(lp2542
S':'
asbag49
(g70
g51
NtRp2543
(dp2544
g54
(dp2545
sg63
g2530
sg56
(lp2546
g49
(g50
g51
NtRp2547
(dp2548
g54
(dp2549
g62
I3
ssg63
g2543
sg56
(lp2550
S'1'
asbasbasbag49
(g65
g51
NtRp2551
(dp2552
g54
(dp2553
sg63
g2379
sg56
(lp2554
g49
(g70
g51
NtRp2555
(dp2556
g54
(dp2557
g74
g75
ssg63
g2551
sg56
(lp2558
S'HTTP_HOST'
p2559
asbag49
(g70
g51
NtRp2560
(dp2561
g54
(dp2562
g81
g82
ssg63
g2551
sg56
(lp2563
S':'
asbag49
(g70
g51
NtRp2564
(dp2565
g54
(dp2566
sg63
g2551
sg56
(lp2567
g49
(g50
g51
NtRp2568
(dp2569
g54
(dp2570
g62
I3
ssg63
g2564
sg56
(lp2571
g1109
asbasbasbag49
(g65
g51
NtRp2572
(dp2573
g54
(dp2574
sg63
g2379
sg56
(lp2575
g49
(g70
g51
NtRp2576
(dp2577
g54
(dp2578
g74
g75
ssg63
g2572
sg56
(lp2579
S'HTTP_USER_AGENT'
p2580
asbag49
(g70
g51
NtRp2581
(dp2582
g54
(dp2583
g81
g82
ssg63
g2572
sg56
(lp2584
S':'
asbag49
(g70
g51
NtRp2585
(dp2586
g54
(dp2587
sg63
g2572
sg56
(lp2588
g49
(g50
g51
NtRp2589
(dp2590
g54
(dp2591
g62
I3
ssg63
g2585
sg56
(lp2592
g1131
asbasbasbag49
(g65
g51
NtRp2593
(dp2594
g54
(dp2595
sg63
g2379
sg56
(lp2596
g49
(g70
g51
NtRp2597
(dp2598
g54
(dp2599
g74
g75
ssg63
g2593
sg56
(lp2600
S'PATH_INFO'
p2601
asbag49
(g70
g51
NtRp2602
(dp2603
g54
(dp2604
g81
g82
ssg63
g2593
sg56
(lp2605
S':'
asbag49
(g70
g51
NtRp2606
(dp2607
g54
(dp2608
sg63
g2593
sg56
(lp2609
g49
(g50
g51
NtRp2610
(dp2611
g54
(dp2612
g62
I3
ssg63
g2606
sg56
(lp2613
g1195
asbasbasbag49
(g65
g51
NtRp2614
(dp2615
g54
(dp2616
sg63
g2379
sg56
(lp2617
g49
(g70
g51
NtRp2618
(dp2619
g54
(dp2620
g74
g75
ssg63
g2614
sg56
(lp2621
S'QUERY_STRING'
p2622
asbag49
(g70
g51
NtRp2623
(dp2624
g54
(dp2625
g81
g82
ssg63
g2614
sg56
(lp2626
S':'
asbag49
(g70
g51
NtRp2627
(dp2628
g54
(dp2629
sg63
g2614
sg56
(lp2630
g49
(g50
g51
NtRp2631
(dp2632
g54
(dp2633
g62
I3
ssg63
g2627
sg56
(lp2634
S''
asbasbasbag49
(g65
g51
NtRp2635
(dp2636
g54
(dp2637
sg63
g2379
sg56
(lp2638
g49
(g70
g51
NtRp2639
(dp2640
g54
(dp2641
g74
g75
ssg63
g2635
sg56
(lp2642
S'REMOTE_ADDR'
p2643
asbag49
(g70
g51
NtRp2644
(dp2645
g54
(dp2646
g81
g82
ssg63
g2635
sg56
(lp2647
S':'
asbag49
(g70
g51
NtRp2648
(dp2649
g54
(dp2650
sg63
g2635
sg56
(lp2651
g49
(g50
g51
NtRp2652
(dp2653
g54
(dp2654
g62
I3
ssg63
g2648
sg56
(lp2655
g182
asbasbasbag49
(g65
g51
NtRp2656
(dp2657
g54
(dp2658
sg63
g2379
sg56
(lp2659
g49
(g70
g51
NtRp2660
(dp2661
g54
(dp2662
g74
g75
ssg63
g2656
sg56
(lp2663
S'REMOTE_PORT'
p2664
asbag49
(g70
g51
NtRp2665
(dp2666
g54
(dp2667
g81
g82
ssg63
g2656
sg56
(lp2668
S':'
asbag49
(g70
g51
NtRp2669
(dp2670
g54
(dp2671
sg63
g2656
sg56
(lp2672
g49
(g50
g51
NtRp2673
(dp2674
g54
(dp2675
g62
I3
ssg63
g2669
sg56
(lp2676
g1259
asbasbasbag49
(g65
g51
NtRp2677
(dp2678
g54
(dp2679
sg63
g2379
sg56
(lp2680
g49
(g70
g51
NtRp2681
(dp2682
g54
(dp2683
g74
g75
ssg63
g2677
sg56
(lp2684
S'REQUEST_METHOD'
p2685
asbag49
(g70
g51
NtRp2686
(dp2687
g54
(dp2688
g81
g82
ssg63
g2677
sg56
(lp2689
S':'
asbag49
(g70
g51
NtRp2690
(dp2691
g54
(dp2692
sg63
g2677
sg56
(lp2693
g49
(g50
g51
NtRp2694
(dp2695
g54
(dp2696
g62
I3
ssg63
g2690
sg56
(lp2697
g1281
asbasbasbag49
(g65
g51
NtRp2698
(dp2699
g54
(dp2700
sg63
g2379
sg56
(lp2701
g49
(g70
g51
NtRp2702
(dp2703
g54
(dp2704
g74
g75
ssg63
g2698
sg56
(lp2705
S'SCRIPT_NAME'
p2706
asbag49
(g70
g51
NtRp2707
(dp2708
g54
(dp2709
g81
g82
ssg63
g2698
sg56
(lp2710
S':'
asbag49
(g70
g51
NtRp2711
(dp2712
g54
(dp2713
sg63
g2698
sg56
(lp2714
g49
(g50
g51
NtRp2715
(dp2716
g54
(dp2717
g62
I3
ssg63
g2711
sg56
(lp2718
S''
asbasbasbag49
(g65
g51
NtRp2719
(dp2720
g54
(dp2721
sg63
g2379
sg56
(lp2722
g49
(g70
g51
NtRp2723
(dp2724
g54
(dp2725
g74
g75
ssg63
g2719
sg56
(lp2726
S'SERVER_NAME'
p2727
asbag49
(g70
g51
NtRp2728
(dp2729
g54
(dp2730
g81
g82
ssg63
g2719
sg56
(lp2731
S':'
asbag49
(g70
g51
NtRp2732
(dp2733
g54
(dp2734
sg63
g2719
sg56
(lp2735
g49
(g50
g51
NtRp2736
(dp2737
g54
(dp2738
g62
I3
ssg63
g2732
sg56
(lp2739
g1324
asbasbasbag49
(g65
g51
NtRp2740
(dp2741
g54
(dp2742
sg63
g2379
sg56
(lp2743
g49
(g70
g51
NtRp2744
(dp2745
g54
(dp2746
g74
g75
ssg63
g2740
sg56
(lp2747
S'SERVER_PORT'
p2748
asbag49
(g70
g51
NtRp2749
(dp2750
g54
(dp2751
g81
g82
ssg63
g2740
sg56
(lp2752
S':'
asbag49
(g70
g51
NtRp2753
(dp2754
g54
(dp2755
sg63
g2740
sg56
(lp2756
g49
(g50
g51
NtRp2757
(dp2758
g54
(dp2759
g62
I3
ssg63
g2753
sg56
(lp2760
g1346
asbasbasbag49
(g65
g51
NtRp2761
(dp2762
g54
(dp2763
sg63
g2379
sg56
(lp2764
g49
(g70
g51
NtRp2765
(dp2766
g54
(dp2767
g74
g75
ssg63
g2761
sg56
(lp2768
S'SERVER_PROTOCOL'
p2769
asbag49
(g70
g51
NtRp2770
(dp2771
g54
(dp2772
g81
g82
ssg63
g2761
sg56
(lp2773
S':'
asbag49
(g70
g51
NtRp2774
(dp2775
g54
(dp2776
sg63
g2761
sg56
(lp2777
g49
(g50
g51
NtRp2778
(dp2779
g54
(dp2780
g62
I3
ssg63
g2774
sg56
(lp2781
g1368
asbasbasbag49
(g65
g51
NtRp2782
(dp2783
g54
(dp2784
sg63
g2379
sg56
(lp2785
g49
(g70
g51
NtRp2786
(dp2787
g54
(dp2788
g74
g75
ssg63
g2782
sg56
(lp2789
S'SERVER_SOFTWARE'
p2790
asbag49
(g70
g51
NtRp2791
(dp2792
g54
(dp2793
g81
g82
ssg63
g2782
sg56
(lp2794
S':'
asbag49
(g70
g51
NtRp2795
(dp2796
g54
(dp2797
sg63
g2782
sg56
(lp2798
g49
(g50
g51
NtRp2799
(dp2800
g54
(dp2801
g62
I3
ssg63
g2795
sg56
(lp2802
g1390
asbasbasbag49
(g65
g51
NtRp2803
(dp2804
g54
(dp2805
sg63
g2379
sg56
(lp2806
g49
(g70
g51
NtRp2807
(dp2808
g54
(dp2809
g74
g75
ssg63
g2803
sg56
(lp2810
S'wsgi.errors'
p2811
asbag49
(g70
g51
NtRp2812
(dp2813
g54
(dp2814
g81
g82
ssg63
g2803
sg56
(lp2815
S':'
asbag49
(g70
g51
NtRp2816
(dp2817
g54
(dp2818
sg63
g2803
sg56
(lp2819
g49
(g50
g51
NtRp2820
(dp2821
g54
(dp2822
g62
I3
ssg63
g2816
sg56
(lp2823
S'<__main__.Stderr object at 0x006F6670>'
p2824
asbasbasbag49
(g65
g51
NtRp2825
(dp2826
g54
(dp2827
sg63
g2379
sg56
(lp2828
g49
(g70
g51
NtRp2829
(dp2830
g54
(dp2831
g74
g75
ssg63
g2825
sg56
(lp2832
S'wsgi.file_wrapper'
p2833
asbag49
(g70
g51
NtRp2834
(dp2835
g54
(dp2836
g81
g82
ssg63
g2825
sg56
(lp2837
S':'
asbag49
(g70
g51
NtRp2838
(dp2839
g54
(dp2840
sg63
g2825
sg56
(lp2841
g49
(g50
g51
NtRp2842
(dp2843
g54
(dp2844
g62
I3
ssg63
g2838
sg56
(lp2845
S'<class wsgiref.util.FileWrapper at 0x02E8DE10>'
p2846
asbasbasbag49
(g65
g51
NtRp2847
(dp2848
g54
(dp2849
sg63
g2379
sg56
(lp2850
g49
(g70
g51
NtRp2851
(dp2852
g54
(dp2853
g74
g75
ssg63
g2847
sg56
(lp2854
S'wsgi.input'
p2855
asbag49
(g70
g51
NtRp2856
(dp2857
g54
(dp2858
g81
g82
ssg63
g2847
sg56
(lp2859
S':'
asbag49
(g70
g51
NtRp2860
(dp2861
g54
(dp2862
sg63
g2847
sg56
(lp2863
g49
(g50
g51
NtRp2864
(dp2865
g54
(dp2866
g62
I3
ssg63
g2860
sg56
(lp2867
S'<cStringIO.StringO object at 0x06A73DA0>'
p2868
asbasbasbag49
(g65
g51
NtRp2869
(dp2870
g54
(dp2871
sg63
g2379
sg56
(lp2872
g49
(g70
g51
NtRp2873
(dp2874
g54
(dp2875
g74
g75
ssg63
g2869
sg56
(lp2876
S'wsgi.multiprocess'
p2877
asbag49
(g70
g51
NtRp2878
(dp2879
g54
(dp2880
g81
g82
ssg63
g2869
sg56
(lp2881
S':'
asbag49
(g70
g51
NtRp2882
(dp2883
g54
(dp2884
sg63
g2869
sg56
(lp2885
g49
(g50
g51
NtRp2886
(dp2887
g54
(dp2888
g62
I3
ssg63
g2882
sg56
(lp2889
g92
asbasbasbag49
(g65
g51
NtRp2890
(dp2891
g54
(dp2892
sg63
g2379
sg56
(lp2893
g49
(g70
g51
NtRp2894
(dp2895
g54
(dp2896
g74
g75
ssg63
g2890
sg56
(lp2897
S'wsgi.multithread'
p2898
asbag49
(g70
g51
NtRp2899
(dp2900
g54
(dp2901
g81
g82
ssg63
g2890
sg56
(lp2902
S':'
asbag49
(g70
g51
NtRp2903
(dp2904
g54
(dp2905
sg63
g2890
sg56
(lp2906
g49
(g50
g51
NtRp2907
(dp2908
g54
(dp2909
g62
I3
ssg63
g2903
sg56
(lp2910
g1630
asbasbasbag49
(g65
g51
NtRp2911
(dp2912
g54
(dp2913
sg63
g2379
sg56
(lp2914
g49
(g70
g51
NtRp2915
(dp2916
g54
(dp2917
g74
g75
ssg63
g2911
sg56
(lp2918
S'wsgi.run_once'
p2919
asbag49
(g70
g51
NtRp2920
(dp2921
g54
(dp2922
g81
g82
ssg63
g2911
sg56
(lp2923
S':'
asbag49
(g70
g51
NtRp2924
(dp2925
g54
(dp2926
sg63
g2911
sg56
(lp2927
g49
(g50
g51
NtRp2928
(dp2929
g54
(dp2930
g62
I3
ssg63
g2924
sg56
(lp2931
g92
asbasbasbag49
(g65
g51
NtRp2932
(dp2933
g54
(dp2934
sg63
g2379
sg56
(lp2935
g49
(g70
g51
NtRp2936
(dp2937
g54
(dp2938
g74
g75
ssg63
g2932
sg56
(lp2939
S'wsgi.url_scheme'
p2940
asbag49
(g70
g51
NtRp2941
(dp2942
g54
(dp2943
g81
g82
ssg63
g2932
sg56
(lp2944
S':'
asbag49
(g70
g51
NtRp2945
(dp2946
g54
(dp2947
sg63
g2932
sg56
(lp2948
g49
(g50
g51
NtRp2949
(dp2950
g54
(dp2951
g62
I3
ssg63
g2945
sg56
(lp2952
g1673
asbasbasbag49
(g65
g51
NtRp2953
(dp2954
g54
(dp2955
sg63
g2379
sg56
(lp2956
g49
(g70
g51
NtRp2957
(dp2958
g54
(dp2959
g74
g75
ssg63
g2953
sg56
(lp2960
S'wsgi.version'
p2961
asbag49
(g70
g51
NtRp2962
(dp2963
g54
(dp2964
g81
g82
ssg63
g2953
sg56
(lp2965
S':'
asbag49
(g70
g51
NtRp2966
(dp2967
g54
(dp2968
sg63
g2953
sg56
(lp2969
g49
(g50
g51
NtRp2970
(dp2971
g54
(dp2972
g62
I3
ssg63
g2966
sg56
(lp2973
S'1'
asbasbasbasbasbasbasbasbasbasbasbasbasbsS'frames'
p2974
(lp2975
(dp2976
S'file'
p2977
S'C:\\web2py\\gluon\\restricted.py'
p2978
sS'dump'
p2979
(dp2980
sS'lnum'
p2981
I205
sS'lines'
p2982
(dp2983
sS'call'
p2984
S"(code='# -*- coding: utf-8 -*-\\n# this file is released ...))\\n\\n\\nresponse._vars=response._caller(manageCode)\\n', environment={'A': <class 'gluon.html.A'>, 'Auth': <class 'gluon.tools.Auth'>, 'B': <class 'gluon.html.B'>, 'BEAUTIFY': <class 'gluon.html.BEAUTIFY'>, 'BODY': <class 'gluon.html.BODY'>, 'BR': <class 'gluon.html.BR'>, 'BUTTON': <class 'gluon.html.BUTTON'>, 'CAT': <class 'gluon.html.CAT'>, 'CENTER': <class 'gluon.html.CENTER'>, 'CLEANUP': <class 'gluon.validators.CLEANUP'>, ...}, layer=r'C:\\web2py\\applications\\unioeste_code\\controllers/default.py')"
p2985
sS'func'
p2986
S'restricted'
p2987
sa(dp2988
g2977
S'C:\\web2py\\applications\\unioeste_code\\controllers\\default.py'
p2989
sg2979
(dp2990
sg2981
I29
sg2982
(dp2991
I32
S'    return dict(grid=grid)'
p2992
sI33
S''
sI24
S''
sI25
S'def problems():'
p2993
sI26
S'    problems = db().select(db.problem.ALL, orderby = db.problem.title)'
p2994
sI27
S'    return dict(problems=problems)'
p2995
sI28
S''
sI29
S"@requires_membership('manager')"
p2996
sI30
S'def manageCode():'
p2997
sI31
S'    grid = SQLFORM.smartgrid(db.code)'
p2998
ssg2984
S'()'
p2999
sg2986
S'<module>'
p3000
sasS'pyver'
p3001
S'Python 2.5.4: C:\\web2py\\web2py_no_console.exe'
p3002
sS'session'
p3003
g49
(g50
g51
NtRp3004
(dp3005
g54
(dp3006
sg56
(lp3007
g49
(g58
g51
NtRp3008
(dp3009
g54
(dp3010
g62
I5
ssg63
Nsg56
(lp3011
g49
(g65
g51
NtRp3012
(dp3013
g54
(dp3014
sg63
g3008
sg56
(lp3015
g49
(g70
g51
NtRp3016
(dp3017
g54
(dp3018
g74
g75
ssg63
g3012
sg56
(lp3019
S'auth'
p3020
asbag49
(g70
g51
NtRp3021
(dp3022
g54
(dp3023
g81
g82
ssg63
g3012
sg56
(lp3024
S':'
asbag49
(g70
g51
NtRp3025
(dp3026
g54
(dp3027
sg63
g3012
sg56
(lp3028
g49
(g50
g51
NtRp3029
(dp3030
g54
(dp3031
g62
I5
ssg63
g3025
sg56
(lp3032
g49
(g58
g51
NtRp3033
(dp3034
g54
(dp3035
g62
I4
ssg63
Nsg56
(lp3036
g49
(g65
g51
NtRp3037
(dp3038
g54
(dp3039
sg63
g3033
sg56
(lp3040
g49
(g70
g51
NtRp3041
(dp3042
g54
(dp3043
g74
g75
ssg63
g3037
sg56
(lp3044
S'expiration'
p3045
asbag49
(g70
g51
NtRp3046
(dp3047
g54
(dp3048
g81
g82
ssg63
g3037
sg56
(lp3049
S':'
asbag49
(g70
g51
NtRp3050
(dp3051
g54
(dp3052
sg63
g3037
sg56
(lp3053
g49
(g50
g51
NtRp3054
(dp3055
g54
(dp3056
g62
I4
ssg63
g3050
sg56
(lp3057
S'3600'
p3058
asbasbasbag49
(g65
g51
NtRp3059
(dp3060
g54
(dp3061
sg63
g3033
sg56
(lp3062
g49
(g70
g51
NtRp3063
(dp3064
g54
(dp3065
g74
g75
ssg63
g3059
sg56
(lp3066
S'hmac_key'
p3067
asbag49
(g70
g51
NtRp3068
(dp3069
g54
(dp3070
g81
g82
ssg63
g3059
sg56
(lp3071
S':'
asbag49
(g70
g51
NtRp3072
(dp3073
g54
(dp3074
sg63
g3059
sg56
(lp3075
g49
(g50
g51
NtRp3076
(dp3077
g54
(dp3078
g62
I4
ssg63
g3072
sg56
(lp3079
S'4bb52b95-e0ea-467e-aa01-3d0fe3410574'
p3080
asbasbasbag49
(g65
g51
NtRp3081
(dp3082
g54
(dp3083
sg63
g3033
sg56
(lp3084
g49
(g70
g51
NtRp3085
(dp3086
g54
(dp3087
g74
g75
ssg63
g3081
sg56
(lp3088
S'last_visit'
p3089
asbag49
(g70
g51
NtRp3090
(dp3091
g54
(dp3092
g81
g82
ssg63
g3081
sg56
(lp3093
S':'
asbag49
(g70
g51
NtRp3094
(dp3095
g54
(dp3096
sg63
g3081
sg56
(lp3097
g49
(g50
g51
NtRp3098
(dp3099
g54
(dp3100
g62
I4
ssg63
g3094
sg56
(lp3101
S'datetime.datetime(2012, 7, 28, 15, 49, 10, 221000)'
p3102
asbasbasbag49
(g65
g51
NtRp3103
(dp3104
g54
(dp3105
sg63
g3033
sg56
(lp3106
g49
(g70
g51
NtRp3107
(dp3108
g54
(dp3109
g74
g75
ssg63
g3103
sg56
(lp3110
S'user'
p3111
asbag49
(g70
g51
NtRp3112
(dp3113
g54
(dp3114
g81
g82
ssg63
g3103
sg56
(lp3115
S':'
asbag49
(g70
g51
NtRp3116
(dp3117
g54
(dp3118
sg63
g3103
sg56
(lp3119
g49
(g50
g51
NtRp3120
(dp3121
g54
(dp3122
g62
I4
ssg63
g3116
sg56
(lp3123
g49
(g58
g51
NtRp3124
(dp3125
g54
(dp3126
g62
I3
ssg63
Nsg56
(lp3127
g49
(g65
g51
NtRp3128
(dp3129
g54
(dp3130
sg63
g3124
sg56
(lp3131
g49
(g70
g51
NtRp3132
(dp3133
g54
(dp3134
g74
g75
ssg63
g3128
sg56
(lp3135
S'email'
p3136
asbag49
(g70
g51
NtRp3137
(dp3138
g54
(dp3139
g81
g82
ssg63
g3128
sg56
(lp3140
S':'
asbag49
(g70
g51
NtRp3141
(dp3142
g54
(dp3143
sg63
g3128
sg56
(lp3144
g49
(g50
g51
NtRp3145
(dp3146
g54
(dp3147
g62
I3
ssg63
g3141
sg56
(lp3148
S'scmirror1@gmail.com'
p3149
asbasbasbag49
(g65
g51
NtRp3150
(dp3151
g54
(dp3152
sg63
g3124
sg56
(lp3153
g49
(g70
g51
NtRp3154
(dp3155
g54
(dp3156
g74
g75
ssg63
g3150
sg56
(lp3157
S'first_name'
p3158
asbag49
(g70
g51
NtRp3159
(dp3160
g54
(dp3161
g81
g82
ssg63
g3150
sg56
(lp3162
S':'
asbag49
(g70
g51
NtRp3163
(dp3164
g54
(dp3165
sg63
g3150
sg56
(lp3166
g49
(g50
g51
NtRp3167
(dp3168
g54
(dp3169
g62
I3
ssg63
g3163
sg56
(lp3170
S'Pedro'
p3171
asbasbasbag49
(g65
g51
NtRp3172
(dp3173
g54
(dp3174
sg63
g3124
sg56
(lp3175
g49
(g70
g51
NtRp3176
(dp3177
g54
(dp3178
g74
g75
ssg63
g3172
sg56
(lp3179
S'id'
p3180
asbag49
(g70
g51
NtRp3181
(dp3182
g54
(dp3183
g81
g82
ssg63
g3172
sg56
(lp3184
S':'
asbag49
(g70
g51
NtRp3185
(dp3186
g54
(dp3187
sg63
g3172
sg56
(lp3188
g49
(g50
g51
NtRp3189
(dp3190
g54
(dp3191
g62
I3
ssg63
g3185
sg56
(lp3192
S'1'
asbasbasbag49
(g65
g51
NtRp3193
(dp3194
g54
(dp3195
sg63
g3124
sg56
(lp3196
g49
(g70
g51
NtRp3197
(dp3198
g54
(dp3199
g74
g75
ssg63
g3193
sg56
(lp3200
S'last_name'
p3201
asbag49
(g70
g51
NtRp3202
(dp3203
g54
(dp3204
g81
g82
ssg63
g3193
sg56
(lp3205
S':'
asbag49
(g70
g51
NtRp3206
(dp3207
g54
(dp3208
sg63
g3193
sg56
(lp3209
g49
(g50
g51
NtRp3210
(dp3211
g54
(dp3212
g62
I3
ssg63
g3206
sg56
(lp3213
S'Lacerda'
p3214
asbasbasbag49
(g65
g51
NtRp3215
(dp3216
g54
(dp3217
sg63
g3124
sg56
(lp3218
g49
(g70
g51
NtRp3219
(dp3220
g54
(dp3221
g74
g75
ssg63
g3215
sg56
(lp3222
S'password'
p3223
asbag49
(g70
g51
NtRp3224
(dp3225
g54
(dp3226
g81
g82
ssg63
g3215
sg56
(lp3227
S':'
asbag49
(g70
g51
NtRp3228
(dp3229
g54
(dp3230
sg63
g3215
sg56
(lp3231
g49
(g50
g51
NtRp3232
(dp3233
g54
(dp3234
g62
I3
ssg63
g3228
sg56
(lp3235
S'4297f44b13955235245b2497399d7a93'
p3236
asbasbasbag49
(g65
g51
NtRp3237
(dp3238
g54
(dp3239
sg63
g3124
sg56
(lp3240
g49
(g70
g51
NtRp3241
(dp3242
g54
(dp3243
g74
g75
ssg63
g3237
sg56
(lp3244
S'registration_id'
p3245
asbag49
(g70
g51
NtRp3246
(dp3247
g54
(dp3248
g81
g82
ssg63
g3237
sg56
(lp3249
S':'
asbag49
(g70
g51
NtRp3250
(dp3251
g54
(dp3252
sg63
g3237
sg56
(lp3253
g49
(g50
g51
NtRp3254
(dp3255
g54
(dp3256
g62
I3
ssg63
g3250
sg56
(lp3257
S''
asbasbasbag49
(g65
g51
NtRp3258
(dp3259
g54
(dp3260
sg63
g3124
sg56
(lp3261
g49
(g70
g51
NtRp3262
(dp3263
g54
(dp3264
g74
g75
ssg63
g3258
sg56
(lp3265
S'registration_key'
p3266
asbag49
(g70
g51
NtRp3267
(dp3268
g54
(dp3269
g81
g82
ssg63
g3258
sg56
(lp3270
S':'
asbag49
(g70
g51
NtRp3271
(dp3272
g54
(dp3273
sg63
g3258
sg56
(lp3274
g49
(g50
g51
NtRp3275
(dp3276
g54
(dp3277
g62
I3
ssg63
g3271
sg56
(lp3278
S''
asbasbasbag49
(g65
g51
NtRp3279
(dp3280
g54
(dp3281
sg63
g3124
sg56
(lp3282
g49
(g70
g51
NtRp3283
(dp3284
g54
(dp3285
g74
g75
ssg63
g3279
sg56
(lp3286
S'reset_password_key'
p3287
asbag49
(g70
g51
NtRp3288
(dp3289
g54
(dp3290
g81
g82
ssg63
g3279
sg56
(lp3291
S':'
asbag49
(g70
g51
NtRp3292
(dp3293
g54
(dp3294
sg63
g3279
sg56
(lp3295
g49
(g50
g51
NtRp3296
(dp3297
g54
(dp3298
g62
I3
ssg63
g3292
sg56
(lp3299
S''
asbasbasbasbasbasbasbag49
(g65
g51
NtRp3300
(dp3301
g54
(dp3302
sg63
g3033
sg56
(lp3303
g49
(g70
g51
NtRp3304
(dp3305
g54
(dp3306
g74
g75
ssg63
g3300
sg56
(lp3307
S'user_groups'
p3308
asbag49
(g70
g51
NtRp3309
(dp3310
g54
(dp3311
g81
g82
ssg63
g3300
sg56
(lp3312
S':'
asbag49
(g70
g51
NtRp3313
(dp3314
g54
(dp3315
sg63
g3300
sg56
(lp3316
g49
(g50
g51
NtRp3317
(dp3318
g54
(dp3319
g62
I4
ssg63
g3313
sg56
(lp3320
g49
(g58
g51
NtRp3321
(dp3322
g54
(dp3323
g62
I3
ssg63
Nsg56
(lp3324
g49
(g65
g51
NtRp3325
(dp3326
g54
(dp3327
sg63
g3321
sg56
(lp3328
g49
(g70
g51
NtRp3329
(dp3330
g54
(dp3331
g74
g75
ssg63
g3325
sg56
(lp3332
S'1'
asbag49
(g70
g51
NtRp3333
(dp3334
g54
(dp3335
g81
g82
ssg63
g3325
sg56
(lp3336
S':'
asbag49
(g70
g51
NtRp3337
(dp3338
g54
(dp3339
sg63
g3325
sg56
(lp3340
g49
(g50
g51
NtRp3341
(dp3342
g54
(dp3343
g62
I3
ssg63
g3337
sg56
(lp3344
S'user_1'
p3345
asbasbasbasbasbasbasbasbasbasbasbag49
(g65
g51
NtRp3346
(dp3347
g54
(dp3348
sg63
g3008
sg56
(lp3349
g49
(g70
g51
NtRp3350
(dp3351
g54
(dp3352
g74
g75
ssg63
g3346
sg56
(lp3353
S'last_query'
p3354
asbag49
(g70
g51
NtRp3355
(dp3356
g54
(dp3357
g81
g82
ssg63
g3346
sg56
(lp3358
S':'
asbag49
(g70
g51
NtRp3359
(dp3360
g54
(dp3361
sg63
g3346
sg56
(lp3362
g49
(g50
g51
NtRp3363
(dp3364
g54
(dp3365
g62
I5
ssg63
g3359
sg56
(lp3366
S'db.code.id>0'
p3367
asbasbasbasbasbsS'etype'
p3368
S"<type 'exceptions.NameError'>"
p3369
sS'date'
p3370
S'Sat Jul 28 15:53:19 2012'
p3371
sS'response'
p3372
g49
(g50
g51
NtRp3373
(dp3374
g54
(dp3375
sg56
(lp3376
g49
(g58
g51
NtRp3377
(dp3378
g54
(dp3379
g62
I5
ssg63
Nsg56
(lp3380
g49
(g65
g51
NtRp3381
(dp3382
g54
(dp3383
sg63
g3377
sg56
(lp3384
g49
(g70
g51
NtRp3385
(dp3386
g54
(dp3387
g74
g75
ssg63
g3381
sg56
(lp3388
g147
asbag49
(g70
g51
NtRp3389
(dp3390
g54
(dp3391
g81
g82
ssg63
g3381
sg56
(lp3392
S':'
asbag49
(g70
g51
NtRp3393
(dp3394
g54
(dp3395
sg63
g3381
sg56
(lp3396
g49
(g50
g51
NtRp3397
(dp3398
g54
(dp3399
g62
I5
ssg63
g3393
sg56
(lp3400
S'<cStringIO.StringO object at 0x06A73A00>'
p3401
asbasbasbag49
(g65
g51
NtRp3402
(dp3403
g54
(dp3404
sg63
g3377
sg56
(lp3405
g49
(g70
g51
NtRp3406
(dp3407
g54
(dp3408
g74
g75
ssg63
g3402
sg56
(lp3409
g213
asbag49
(g70
g51
NtRp3410
(dp3411
g54
(dp3412
g81
g82
ssg63
g3402
sg56
(lp3413
S':'
asbag49
(g70
g51
NtRp3414
(dp3415
g54
(dp3416
sg63
g3402
sg56
(lp3417
g49
(g50
g51
NtRp3418
(dp3419
g54
(dp3420
g62
I5
ssg63
g3414
sg56
(lp3421
g49
(g58
g51
NtRp3422
(dp3423
g54
(dp3424
g62
I4
ssg63
Nsg56
(lp3425
g49
(g65
g51
NtRp3426
(dp3427
g54
(dp3428
sg63
g3422
sg56
(lp3429
g49
(g70
g51
NtRp3430
(dp3431
g54
(dp3432
g74
g75
ssg63
g3426
sg56
(lp3433
S'session_id_unioeste_code'
p3434
asbag49
(g70
g51
NtRp3435
(dp3436
g54
(dp3437
g81
g82
ssg63
g3426
sg56
(lp3438
S':'
asbag49
(g70
g51
NtRp3439
(dp3440
g54
(dp3441
sg63
g3426
sg56
(lp3442
g49
(g50
g51
NtRp3443
(dp3444
g54
(dp3445
g62
I4
ssg63
g3439
sg56
(lp3446
g49
(g58
g51
NtRp3447
(dp3448
g54
(dp3449
g62
I3
ssg63
Nsg56
(lp3450
g49
(g65
g51
NtRp3451
(dp3452
g54
(dp3453
sg63
g3447
sg56
(lp3454
g49
(g70
g51
NtRp3455
(dp3456
g54
(dp3457
g74
g75
ssg63
g3451
sg56
(lp3458
g263
asbag49
(g70
g51
NtRp3459
(dp3460
g54
(dp3461
g81
g82
ssg63
g3451
sg56
(lp3462
S':'
asbag49
(g70
g51
NtRp3463
(dp3464
g54
(dp3465
sg63
g3451
sg56
(lp3466
g49
(g50
g51
NtRp3467
(dp3468
g54
(dp3469
g62
I3
ssg63
g3463
sg56
(lp3470
S''
asbasbasbag49
(g65
g51
NtRp3471
(dp3472
g54
(dp3473
sg63
g3447
sg56
(lp3474
g49
(g70
g51
NtRp3475
(dp3476
g54
(dp3477
g74
g75
ssg63
g3471
sg56
(lp3478
g284
asbag49
(g70
g51
NtRp3479
(dp3480
g54
(dp3481
g81
g82
ssg63
g3471
sg56
(lp3482
S':'
asbag49
(g70
g51
NtRp3483
(dp3484
g54
(dp3485
sg63
g3471
sg56
(lp3486
g49
(g50
g51
NtRp3487
(dp3488
g54
(dp3489
g62
I3
ssg63
g3483
sg56
(lp3490
S''
asbasbasbag49
(g65
g51
NtRp3491
(dp3492
g54
(dp3493
sg63
g3447
sg56
(lp3494
g49
(g70
g51
NtRp3495
(dp3496
g54
(dp3497
g74
g75
ssg63
g3491
sg56
(lp3498
g305
asbag49
(g70
g51
NtRp3499
(dp3500
g54
(dp3501
g81
g82
ssg63
g3491
sg56
(lp3502
S':'
asbag49
(g70
g51
NtRp3503
(dp3504
g54
(dp3505
sg63
g3491
sg56
(lp3506
g49
(g50
g51
NtRp3507
(dp3508
g54
(dp3509
g62
I3
ssg63
g3503
sg56
(lp3510
S''
asbasbasbag49
(g65
g51
NtRp3511
(dp3512
g54
(dp3513
sg63
g3447
sg56
(lp3514
g49
(g70
g51
NtRp3515
(dp3516
g54
(dp3517
g74
g75
ssg63
g3511
sg56
(lp3518
g326
asbag49
(g70
g51
NtRp3519
(dp3520
g54
(dp3521
g81
g82
ssg63
g3511
sg56
(lp3522
S':'
asbag49
(g70
g51
NtRp3523
(dp3524
g54
(dp3525
sg63
g3511
sg56
(lp3526
g49
(g50
g51
NtRp3527
(dp3528
g54
(dp3529
g62
I3
ssg63
g3523
sg56
(lp3530
S''
asbasbasbag49
(g65
g51
NtRp3531
(dp3532
g54
(dp3533
sg63
g3447
sg56
(lp3534
g49
(g70
g51
NtRp3535
(dp3536
g54
(dp3537
g74
g75
ssg63
g3531
sg56
(lp3538
g347
asbag49
(g70
g51
NtRp3539
(dp3540
g54
(dp3541
g81
g82
ssg63
g3531
sg56
(lp3542
S':'
asbag49
(g70
g51
NtRp3543
(dp3544
g54
(dp3545
sg63
g3531
sg56
(lp3546
g49
(g50
g51
NtRp3547
(dp3548
g54
(dp3549
g62
I3
ssg63
g3543
sg56
(lp3550
S'/'
asbasbasbag49
(g65
g51
NtRp3551
(dp3552
g54
(dp3553
sg63
g3447
sg56
(lp3554
g49
(g70
g51
NtRp3555
(dp3556
g54
(dp3557
g74
g75
ssg63
g3551
sg56
(lp3558
g368
asbag49
(g70
g51
NtRp3559
(dp3560
g54
(dp3561
g81
g82
ssg63
g3551
sg56
(lp3562
S':'
asbag49
(g70
g51
NtRp3563
(dp3564
g54
(dp3565
sg63
g3551
sg56
(lp3566
g49
(g50
g51
NtRp3567
(dp3568
g54
(dp3569
g62
I3
ssg63
g3563
sg56
(lp3570
S''
asbasbasbag49
(g65
g51
NtRp3571
(dp3572
g54
(dp3573
sg63
g3447
sg56
(lp3574
g49
(g70
g51
NtRp3575
(dp3576
g54
(dp3577
g74
g75
ssg63
g3571
sg56
(lp3578
g389
asbag49
(g70
g51
NtRp3579
(dp3580
g54
(dp3581
g81
g82
ssg63
g3571
sg56
(lp3582
S':'
asbag49
(g70
g51
NtRp3583
(dp3584
g54
(dp3585
sg63
g3571
sg56
(lp3586
g49
(g50
g51
NtRp3587
(dp3588
g54
(dp3589
g62
I3
ssg63
g3583
sg56
(lp3590
S''
asbasbasbasbasbasbasbasbasbasbasbag49
(g65
g51
NtRp3591
(dp3592
g54
(dp3593
sg63
g3377
sg56
(lp3594
g49
(g70
g51
NtRp3595
(dp3596
g54
(dp3597
g74
g75
ssg63
g3591
sg56
(lp3598
S'delimiters'
p3599
asbag49
(g70
g51
NtRp3600
(dp3601
g54
(dp3602
g81
g82
ssg63
g3591
sg56
(lp3603
S':'
asbag49
(g70
g51
NtRp3604
(dp3605
g54
(dp3606
sg63
g3591
sg56
(lp3607
g49
(g50
g51
NtRp3608
(dp3609
g54
(dp3610
g62
I5
ssg63
g3604
sg56
(lp3611
g49
(g58
g51
NtRp3612
(dp3613
g54
(dp3614
g62
I4
ssg63
Nsg56
(lp3615
g49
(g65
g51
NtRp3616
(dp3617
g54
(dp3618
sg63
g3612
sg56
(lp3619
g49
(g70
g51
NtRp3620
(dp3621
g54
(dp3622
sg63
g3616
sg56
(lp3623
g49
(g50
g51
NtRp3624
(dp3625
g54
(dp3626
g62
I4
ssg63
g3620
sg56
(lp3627
S'{{'
p3628
asbasbasbag49
(g65
g51
NtRp3629
(dp3630
g54
(dp3631
sg63
g3612
sg56
(lp3632
g49
(g70
g51
NtRp3633
(dp3634
g54
(dp3635
sg63
g3629
sg56
(lp3636
g49
(g50
g51
NtRp3637
(dp3638
g54
(dp3639
g62
I4
ssg63
g3633
sg56
(lp3640
S'}}'
p3641
asbasbasbasbasbasbasbag49
(g65
g51
NtRp3642
(dp3643
g54
(dp3644
sg63
g3377
sg56
(lp3645
g49
(g70
g51
NtRp3646
(dp3647
g54
(dp3648
g74
g75
ssg63
g3642
sg56
(lp3649
S'files'
p3650
asbag49
(g70
g51
NtRp3651
(dp3652
g54
(dp3653
g81
g82
ssg63
g3642
sg56
(lp3654
S':'
asbag49
(g70
g51
NtRp3655
(dp3656
g54
(dp3657
sg63
g3642
sg56
(lp3658
g49
(g50
g51
NtRp3659
(dp3660
g54
(dp3661
g62
I5
ssg63
g3655
sg56
(lp3662
g49
(g58
g51
NtRp3663
(dp3664
g54
(dp3665
g62
I4
ssg63
Nsg56
(lp3666
sbasbasbasbag49
(g65
g51
NtRp3667
(dp3668
g54
(dp3669
sg63
g3377
sg56
(lp3670
g49
(g70
g51
NtRp3671
(dp3672
g54
(dp3673
g74
g75
ssg63
g3667
sg56
(lp3674
S'flash'
p3675
asbag49
(g70
g51
NtRp3676
(dp3677
g54
(dp3678
g81
g82
ssg63
g3667
sg56
(lp3679
S':'
asbag49
(g70
g51
NtRp3680
(dp3681
g54
(dp3682
sg63
g3667
sg56
(lp3683
g49
(g50
g51
NtRp3684
(dp3685
g54
(dp3686
g62
I5
ssg63
g3680
sg56
(lp3687
S''
asbasbasbag49
(g65
g51
NtRp3688
(dp3689
g54
(dp3690
sg63
g3377
sg56
(lp3691
g49
(g70
g51
NtRp3692
(dp3693
g54
(dp3694
g74
g75
ssg63
g3688
sg56
(lp3695
S'generic_patterns'
p3696
asbag49
(g70
g51
NtRp3697
(dp3698
g54
(dp3699
g81
g82
ssg63
g3688
sg56
(lp3700
S':'
asbag49
(g70
g51
NtRp3701
(dp3702
g54
(dp3703
sg63
g3688
sg56
(lp3704
g49
(g50
g51
NtRp3705
(dp3706
g54
(dp3707
g62
I5
ssg63
g3701
sg56
(lp3708
g49
(g58
g51
NtRp3709
(dp3710
g54
(dp3711
g62
I4
ssg63
Nsg56
(lp3712
sbasbasbasbag49
(g65
g51
NtRp3713
(dp3714
g54
(dp3715
sg63
g3377
sg56
(lp3716
g49
(g70
g51
NtRp3717
(dp3718
g54
(dp3719
g74
g75
ssg63
g3713
sg56
(lp3720
S'headers'
p3721
asbag49
(g70
g51
NtRp3722
(dp3723
g54
(dp3724
g81
g82
ssg63
g3713
sg56
(lp3725
S':'
asbag49
(g70
g51
NtRp3726
(dp3727
g54
(dp3728
sg63
g3713
sg56
(lp3729
g49
(g50
g51
NtRp3730
(dp3731
g54
(dp3732
g62
I5
ssg63
g3726
sg56
(lp3733
g49
(g58
g51
NtRp3734
(dp3735
g54
(dp3736
g62
I4
ssg63
Nsg56
(lp3737
g49
(g65
g51
NtRp3738
(dp3739
g54
(dp3740
sg63
g3734
sg56
(lp3741
g49
(g70
g51
NtRp3742
(dp3743
g54
(dp3744
g74
g75
ssg63
g3738
sg56
(lp3745
S'Cache-Control'
p3746
asbag49
(g70
g51
NtRp3747
(dp3748
g54
(dp3749
g81
g82
ssg63
g3738
sg56
(lp3750
S':'
asbag49
(g70
g51
NtRp3751
(dp3752
g54
(dp3753
sg63
g3738
sg56
(lp3754
g49
(g50
g51
NtRp3755
(dp3756
g54
(dp3757
g62
I4
ssg63
g3751
sg56
(lp3758
S'no-store, no-cache, must-revalidate, post-check=0, pre-check=0'
p3759
asbasbasbag49
(g65
g51
NtRp3760
(dp3761
g54
(dp3762
sg63
g3734
sg56
(lp3763
g49
(g70
g51
NtRp3764
(dp3765
g54
(dp3766
g74
g75
ssg63
g3760
sg56
(lp3767
S'Content-Type'
p3768
asbag49
(g70
g51
NtRp3769
(dp3770
g54
(dp3771
g81
g82
ssg63
g3760
sg56
(lp3772
S':'
asbag49
(g70
g51
NtRp3773
(dp3774
g54
(dp3775
sg63
g3760
sg56
(lp3776
g49
(g50
g51
NtRp3777
(dp3778
g54
(dp3779
g62
I4
ssg63
g3773
sg56
(lp3780
S'text/html; charset=utf-8'
p3781
asbasbasbag49
(g65
g51
NtRp3782
(dp3783
g54
(dp3784
sg63
g3734
sg56
(lp3785
g49
(g70
g51
NtRp3786
(dp3787
g54
(dp3788
g74
g75
ssg63
g3782
sg56
(lp3789
S'Expires'
p3790
asbag49
(g70
g51
NtRp3791
(dp3792
g54
(dp3793
g81
g82
ssg63
g3782
sg56
(lp3794
S':'
asbag49
(g70
g51
NtRp3795
(dp3796
g54
(dp3797
sg63
g3782
sg56
(lp3798
g49
(g50
g51
NtRp3799
(dp3800
g54
(dp3801
g62
I4
ssg63
g3795
sg56
(lp3802
S'Sat, 28 Jul 2012 18:53:19 GMT'
p3803
asbasbasbag49
(g65
g51
NtRp3804
(dp3805
g54
(dp3806
sg63
g3734
sg56
(lp3807
g49
(g70
g51
NtRp3808
(dp3809
g54
(dp3810
g74
g75
ssg63
g3804
sg56
(lp3811
S'Pragma'
p3812
asbag49
(g70
g51
NtRp3813
(dp3814
g54
(dp3815
g81
g82
ssg63
g3804
sg56
(lp3816
S':'
asbag49
(g70
g51
NtRp3817
(dp3818
g54
(dp3819
sg63
g3804
sg56
(lp3820
g49
(g50
g51
NtRp3821
(dp3822
g54
(dp3823
g62
I4
ssg63
g3817
sg56
(lp3824
S'no-cache'
p3825
asbasbasbag49
(g65
g51
NtRp3826
(dp3827
g54
(dp3828
sg63
g3734
sg56
(lp3829
g49
(g70
g51
NtRp3830
(dp3831
g54
(dp3832
g74
g75
ssg63
g3826
sg56
(lp3833
S'X-Powered-By'
p3834
asbag49
(g70
g51
NtRp3835
(dp3836
g54
(dp3837
g81
g82
ssg63
g3826
sg56
(lp3838
S':'
asbag49
(g70
g51
NtRp3839
(dp3840
g54
(dp3841
sg63
g3826
sg56
(lp3842
g49
(g50
g51
NtRp3843
(dp3844
g54
(dp3845
g62
I4
ssg63
g3839
sg56
(lp3846
S'web2py'
p3847
asbasbasbasbasbasbasbag49
(g65
g51
NtRp3848
(dp3849
g54
(dp3850
sg63
g3377
sg56
(lp3851
g49
(g70
g51
NtRp3852
(dp3853
g54
(dp3854
g74
g75
ssg63
g3848
sg56
(lp3855
S'menu'
p3856
asbag49
(g70
g51
NtRp3857
(dp3858
g54
(dp3859
g81
g82
ssg63
g3848
sg56
(lp3860
S':'
asbag49
(g70
g51
NtRp3861
(dp3862
g54
(dp3863
sg63
g3848
sg56
(lp3864
g49
(g50
g51
NtRp3865
(dp3866
g54
(dp3867
g62
I5
ssg63
g3861
sg56
(lp3868
g49
(g58
g51
NtRp3869
(dp3870
g54
(dp3871
g62
I4
ssg63
Nsg56
(lp3872
g49
(g65
g51
NtRp3873
(dp3874
g54
(dp3875
sg63
g3869
sg56
(lp3876
g49
(g70
g51
NtRp3877
(dp3878
g54
(dp3879
sg63
g3873
sg56
(lp3880
g49
(g50
g51
NtRp3881
(dp3882
g54
(dp3883
g62
I4
ssg63
g3877
sg56
(lp3884
g49
(g58
g51
NtRp3885
(dp3886
g54
(dp3887
g62
I3
ssg63
Nsg56
(lp3888
g49
(g65
g51
NtRp3889
(dp3890
g54
(dp3891
sg63
g3885
sg56
(lp3892
g49
(g70
g51
NtRp3893
(dp3894
g54
(dp3895
sg63
g3889
sg56
(lp3896
g49
(g50
g51
NtRp3897
(dp3898
g54
(dp3899
g62
I3
ssg63
g3893
sg56
(lp3900
cgluon.languages
lazyT_unpickle
p3901
(S't\x04\x00\x00\x00Home'
tRp3902
asbasbasbag49
(g65
g51
NtRp3903
(dp3904
g54
(dp3905
sg63
g3885
sg56
(lp3906
g49
(g70
g51
NtRp3907
(dp3908
g54
(dp3909
sg63
g3903
sg56
(lp3910
g49
(g50
g51
NtRp3911
(dp3912
g54
(dp3913
g62
I3
ssg63
g3907
sg56
(lp3914
g92
asbasbasbag49
(g65
g51
NtRp3915
(dp3916
g54
(dp3917
sg63
g3885
sg56
(lp3918
g49
(g70
g51
NtRp3919
(dp3920
g54
(dp3921
sg63
g3915
sg56
(lp3922
g49
(g50
g51
NtRp3923
(dp3924
g54
(dp3925
g62
I3
ssg63
g3919
sg56
(lp3926
S'/unioeste_code/default/index'
p3927
asbasbasbag49
(g65
g51
NtRp3928
(dp3929
g54
(dp3930
sg63
g3885
sg56
(lp3931
g49
(g70
g51
NtRp3932
(dp3933
g54
(dp3934
sg63
g3928
sg56
(lp3935
g49
(g50
g51
NtRp3936
(dp3937
g54
(dp3938
g62
I3
ssg63
g3932
sg56
(lp3939
g49
(g58
g51
NtRp3940
(dp3941
g54
(dp3942
g62
I2
ssg63
Nsg56
(lp3943
sbasbasbasbasbasbasbasbag49
(g65
g51
NtRp3944
(dp3945
g54
(dp3946
sg63
g3869
sg56
(lp3947
g49
(g70
g51
NtRp3948
(dp3949
g54
(dp3950
sg63
g3944
sg56
(lp3951
g49
(g50
g51
NtRp3952
(dp3953
g54
(dp3954
g62
I4
ssg63
g3948
sg56
(lp3955
g49
(g58
g51
NtRp3956
(dp3957
g54
(dp3958
g62
I3
ssg63
Nsg56
(lp3959
g49
(g65
g51
NtRp3960
(dp3961
g54
(dp3962
sg63
g3956
sg56
(lp3963
g49
(g70
g51
NtRp3964
(dp3965
g54
(dp3966
sg63
g3960
sg56
(lp3967
g49
(g50
g51
NtRp3968
(dp3969
g54
(dp3970
g62
I3
ssg63
g3964
sg56
(lp3971
g49
(cgluon.html
SPAN
p3972
g51
NtRp3973
(dp3974
g54
(dp3975
g74
S'color:yellow'
p3976
ssg63
Nsg56
(lp3977
g3847
asbasbasbasbag49
(g65
g51
NtRp3978
(dp3979
g54
(dp3980
sg63
g3956
sg56
(lp3981
g49
(g70
g51
NtRp3982
(dp3983
g54
(dp3984
sg63
g3978
sg56
(lp3985
g49
(g50
g51
NtRp3986
(dp3987
g54
(dp3988
g62
I3
ssg63
g3982
sg56
(lp3989
g92
asbasbasbag49
(g65
g51
NtRp3990
(dp3991
g54
(dp3992
sg63
g3956
sg56
(lp3993
g49
(g70
g51
NtRp3994
(dp3995
g54
(dp3996
sg63
g3990
sg56
(lp3997
g49
(g50
g51
NtRp3998
(dp3999
g54
(dp4000
g62
I3
ssg63
g3994
sg56
(lp4001
S'None'
p4002
asbasbasbag49
(g65
g51
NtRp4003
(dp4004
g54
(dp4005
sg63
g3956
sg56
(lp4006
g49
(g70
g51
NtRp4007
(dp4008
g54
(dp4009
sg63
g4003
sg56
(lp4010
g49
(g50
g51
NtRp4011
(dp4012
g54
(dp4013
g62
I3
ssg63
g4007
sg56
(lp4014
g49
(g58
g51
NtRp4015
(dp4016
g54
(dp4017
g62
I2
ssg63
Nsg56
(lp4018
g49
(g65
g51
NtRp4019
(dp4020
g54
(dp4021
sg63
g4015
sg56
(lp4022
g49
(g70
g51
NtRp4023
(dp4024
g54
(dp4025
sg63
g4019
sg56
(lp4026
g49
(g50
g51
NtRp4027
(dp4028
g54
(dp4029
g62
I2
ssg63
g4023
sg56
(lp4030
g49
(g58
g51
NtRp4031
(dp4032
g54
(dp4033
g62
I1
ssg63
Nsg56
(lp4034
g49
(g65
g51
NtRp4035
(dp4036
g54
(dp4037
sg63
g4031
sg56
(lp4038
g49
(g70
g51
NtRp4039
(dp4040
g54
(dp4041
sg63
g4035
sg56
(lp4042
g49
(g50
g51
NtRp4043
(dp4044
g54
(dp4045
g62
I1
ssg63
g4039
sg56
(lp4046
g3901
(S's\x08\x00\x00\x00My Sites'
tRp4047
asbasbasbag49
(g65
g51
NtRp4048
(dp4049
g54
(dp4050
sg63
g4031
sg56
(lp4051
g49
(g70
g51
NtRp4052
(dp4053
g54
(dp4054
sg63
g4048
sg56
(lp4055
g49
(g50
g51
NtRp4056
(dp4057
g54
(dp4058
g62
I1
ssg63
g4052
sg56
(lp4059
I00
asbasbasbag49
(g65
g51
NtRp4060
(dp4061
g54
(dp4062
sg63
g4031
sg56
(lp4063
g49
(g70
g51
NtRp4064
(dp4065
g54
(dp4066
sg63
g4060
sg56
(lp4067
g49
(g50
g51
NtRp4068
(dp4069
g54
(dp4070
g62
I1
ssg63
g4064
sg56
(lp4071
S'/admin/default/site'
p4072
asbasbasbasbasbasbasbag49
(g65
g51
NtRp4073
(dp4074
g54
(dp4075
sg63
g4015
sg56
(lp4076
g49
(g70
g51
NtRp4077
(dp4078
g54
(dp4079
sg63
g4073
sg56
(lp4080
g49
(g50
g51
NtRp4081
(dp4082
g54
(dp4083
g62
I2
ssg63
g4077
sg56
(lp4084
g49
(g58
g51
NtRp4085
(dp4086
g54
(dp4087
g62
I1
ssg63
Nsg56
(lp4088
g49
(g65
g51
NtRp4089
(dp4090
g54
(dp4091
sg63
g4085
sg56
(lp4092
g49
(g70
g51
NtRp4093
(dp4094
g54
(dp4095
sg63
g4089
sg56
(lp4096
g49
(g50
g51
NtRp4097
(dp4098
g54
(dp4099
g62
I1
ssg63
g4093
sg56
(lp4100
g3901
(S's\x08\x00\x00\x00This App'
tRp4101
asbasbasbag49
(g65
g51
NtRp4102
(dp4103
g54
(dp4104
sg63
g4085
sg56
(lp4105
g49
(g70
g51
NtRp4106
(dp4107
g54
(dp4108
sg63
g4102
sg56
(lp4109
g49
(g50
g51
NtRp4110
(dp4111
g54
(dp4112
g62
I1
ssg63
g4106
sg56
(lp4113
I00
asbasbasbag49
(g65
g51
NtRp4114
(dp4115
g54
(dp4116
sg63
g4085
sg56
(lp4117
g49
(g70
g51
NtRp4118
(dp4119
g54
(dp4120
sg63
g4114
sg56
(lp4121
g49
(g50
g51
NtRp4122
(dp4123
g54
(dp4124
g62
I1
ssg63
g4118
sg56
(lp4125
S'/admin/default/design/unioeste_code'
p4126
asbasbasbag49
(g65
g51
NtRp4127
(dp4128
g54
(dp4129
sg63
g4085
sg56
(lp4130
g49
(g70
g51
NtRp4131
(dp4132
g54
(dp4133
sg63
g4127
sg56
(lp4134
g49
(g50
g51
NtRp4135
(dp4136
g54
(dp4137
g62
I1
ssg63
g4131
sg56
(lp4138
(lp4139
(g3901
(S't\x0b\x00\x00\x00Controlador'
tRp4140
I00
S'/admin/default/edit/unioeste_code/controllers/default.py'
tp4141
a(g3901
(S's\x0e\x00\x00\x00Visualiza\xc3\xa7\xc3\xa3o'
tRp4142
I00
S'/admin/default/edit/unioeste_code/views/default/manageCode.html'
tp4143
a(g3901
(S't\x06\x00\x00\x00Layout'
tRp4144
I00
S'/admin/default/edit/unioeste_code/views/layout.html'
tp4145
a(g3901
(S't\n\x00\x00\x00Stylesheet'
tRp4146
I00
S'/admin/default/edit/unioeste_code/static/css/web2py.css'
tp4147
a(g3901
(S's\t\x00\x00\x00Modelo BD'
tRp4148
I00
S'/admin/default/edit/unioeste_code/models/db.py'
tp4149
a(g3901
(S's\x0e\x00\x00\x00Modelo de Menu'
tRp4150
I00
S'/admin/default/edit/unioeste_code/models/menu.py'
tp4151
a(g3901
(S's\x0e\x00\x00\x00Banco de dados'
tRp4152
I00
S'/unioeste_code/appadmin/index'
tp4153
a(g3901
(S't\x06\x00\x00\x00Errors'
tRp4154
I00
S'/admin/default/errors/unioeste_code'
tp4155
a(g3901
(S't\x05\x00\x00\x00About'
tRp4156
I00
S'/admin/default/about/unioeste_code'
tp4157
aasbasbasbasbasbasbasbag49
(g65
g51
NtRp4158
(dp4159
g54
(dp4160
sg63
g4015
sg56
(lp4161
g49
(g70
g51
NtRp4162
(dp4163
g54
(dp4164
sg63
g4158
sg56
(lp4165
g49
(g50
g51
NtRp4166
(dp4167
g54
(dp4168
g62
I2
ssg63
g4162
sg56
(lp4169
g49
(g58
g51
NtRp4170
(dp4171
g54
(dp4172
g62
I1
ssg63
Nsg56
(lp4173
g49
(g65
g51
NtRp4174
(dp4175
g54
(dp4176
sg63
g4170
sg56
(lp4177
g49
(g70
g51
NtRp4178
(dp4179
g54
(dp4180
sg63
g4174
sg56
(lp4181
g49
(g50
g51
NtRp4182
(dp4183
g54
(dp4184
g62
I1
ssg63
g4178
sg56
(lp4185
S'web2py.com'
p4186
asbasbasbag49
(g65
g51
NtRp4187
(dp4188
g54
(dp4189
sg63
g4170
sg56
(lp4190
g49
(g70
g51
NtRp4191
(dp4192
g54
(dp4193
sg63
g4187
sg56
(lp4194
g49
(g50
g51
NtRp4195
(dp4196
g54
(dp4197
g62
I1
ssg63
g4191
sg56
(lp4198
I00
asbasbasbag49
(g65
g51
NtRp4199
(dp4200
g54
(dp4201
sg63
g4170
sg56
(lp4202
g49
(g70
g51
NtRp4203
(dp4204
g54
(dp4205
sg63
g4199
sg56
(lp4206
g49
(g50
g51
NtRp4207
(dp4208
g54
(dp4209
g62
I1
ssg63
g4203
sg56
(lp4210
S'http://www.web2py.com'
p4211
asbasbasbag49
(g65
g51
NtRp4212
(dp4213
g54
(dp4214
sg63
g4170
sg56
(lp4215
g49
(g70
g51
NtRp4216
(dp4217
g54
(dp4218
sg63
g4212
sg56
(lp4219
g49
(g50
g51
NtRp4220
(dp4221
g54
(dp4222
g62
I1
ssg63
g4216
sg56
(lp4223
(lp4224
(g3901
(S't\x08\x00\x00\x00Download'
tRp4225
I00
S'http://www.web2py.com/examples/default/download'
p4226
tp4227
a(g3901
(S't\x07\x00\x00\x00Support'
tRp4228
I00
S'http://www.web2py.com/examples/default/support'
p4229
tp4230
a(g3901
(S't\x04\x00\x00\x00Demo'
tRp4231
I00
S'http://web2py.com/demo_admin'
p4232
tp4233
a(g3901
(S's\x0e\x00\x00\x00Quick Examples'
tRp4234
I00
S'http://web2py.com/examples/default/examples'
p4235
tp4236
a(g3901
(S't\x03\x00\x00\x00FAQ'
tRp4237
I00
S'http://web2py.com/AlterEgo'
p4238
tp4239
a(g3901
(S't\x06\x00\x00\x00Videos'
tRp4240
I00
S'http://www.web2py.com/examples/default/videos/'
p4241
tp4242
a(g3901
(S's\x11\x00\x00\x00Free Applications'
tRp4243
I00
S'http://web2py.com/appliances'
p4244
tp4245
a(g3901
(S't\x07\x00\x00\x00Plugins'
tRp4246
I00
S'http://web2py.com/plugins'
p4247
tp4248
a(g3901
(S't\x07\x00\x00\x00Layouts'
tRp4249
I00
S'http://web2py.com/layouts'
p4250
tp4251
a(g3901
(S't\x07\x00\x00\x00Recipes'
tRp4252
I00
S'http://web2pyslices.com/'
p4253
tp4254
a(g3901
(S't\x08\x00\x00\x00Semantic'
tRp4255
I00
S'http://web2py.com/semantic'
p4256
tp4257
aasbasbasbasbasbasbasbag49
(g65
g51
NtRp4258
(dp4259
g54
(dp4260
sg63
g4015
sg56
(lp4261
g49
(g70
g51
NtRp4262
(dp4263
g54
(dp4264
sg63
g4258
sg56
(lp4265
g49
(g50
g51
NtRp4266
(dp4267
g54
(dp4268
g62
I2
ssg63
g4262
sg56
(lp4269
g49
(g58
g51
NtRp4270
(dp4271
g54
(dp4272
g62
I1
ssg63
Nsg56
(lp4273
g49
(g65
g51
NtRp4274
(dp4275
g54
(dp4276
sg63
g4270
sg56
(lp4277
g49
(g70
g51
NtRp4278
(dp4279
g54
(dp4280
sg63
g4274
sg56
(lp4281
g49
(g50
g51
NtRp4282
(dp4283
g54
(dp4284
g62
I1
ssg63
g4278
sg56
(lp4285
g3901
(S't\r\x00\x00\x00Documentation'
tRp4286
asbasbasbag49
(g65
g51
NtRp4287
(dp4288
g54
(dp4289
sg63
g4270
sg56
(lp4290
g49
(g70
g51
NtRp4291
(dp4292
g54
(dp4293
sg63
g4287
sg56
(lp4294
g49
(g50
g51
NtRp4295
(dp4296
g54
(dp4297
g62
I1
ssg63
g4291
sg56
(lp4298
I00
asbasbasbag49
(g65
g51
NtRp4299
(dp4300
g54
(dp4301
sg63
g4270
sg56
(lp4302
g49
(g70
g51
NtRp4303
(dp4304
g54
(dp4305
sg63
g4299
sg56
(lp4306
g49
(g50
g51
NtRp4307
(dp4308
g54
(dp4309
g62
I1
ssg63
g4303
sg56
(lp4310
S'http://www.web2py.com/book'
p4311
asbasbasbag49
(g65
g51
NtRp4312
(dp4313
g54
(dp4314
sg63
g4270
sg56
(lp4315
g49
(g70
g51
NtRp4316
(dp4317
g54
(dp4318
sg63
g4312
sg56
(lp4319
g49
(g50
g51
NtRp4320
(dp4321
g54
(dp4322
g62
I1
ssg63
g4316
sg56
(lp4323
(lp4324
(g3901
(S't\x07\x00\x00\x00Preface'
tRp4325
I00
S'http://www.web2py.com/book/default/chapter/00'
p4326
tp4327
a(g3901
(S't\x0c\x00\x00\x00Introduction'
tRp4328
I00
S'http://www.web2py.com/book/default/chapter/01'
p4329
tp4330
a(g3901
(S't\x06\x00\x00\x00Python'
tRp4331
I00
S'http://www.web2py.com/book/default/chapter/02'
p4332
tp4333
a(g3901
(S't\x08\x00\x00\x00Overview'
tRp4334
I00
S'http://www.web2py.com/book/default/chapter/03'
p4335
tp4336
a(g3901
(S's\x08\x00\x00\x00The Core'
tRp4337
I00
S'http://www.web2py.com/book/default/chapter/04'
p4338
tp4339
a(g3901
(S's\t\x00\x00\x00The Views'
tRp4340
I00
S'http://www.web2py.com/book/default/chapter/05'
p4341
tp4342
a(g3901
(S's\x0e\x00\x00\x00Banco de dados'
tRp4343
I00
S'http://www.web2py.com/book/default/chapter/06'
p4344
tp4345
a(g3901
(S's\x14\x00\x00\x00Forms and Validators'
tRp4346
I00
S'http://www.web2py.com/book/default/chapter/07'
p4347
tp4348
a(g3901
(S's\r\x00\x00\x00Email and SMS'
tRp4349
I00
S'http://www.web2py.com/book/default/chapter/08'
p4350
tp4351
a(g3901
(S's\x0e\x00\x00\x00Access Control'
tRp4352
I00
S'http://www.web2py.com/book/default/chapter/09'
p4353
tp4354
a(g3901
(S't\x08\x00\x00\x00Services'
tRp4355
I00
S'http://www.web2py.com/book/default/chapter/10'
p4356
tp4357
a(g3901
(S's\x0c\x00\x00\x00Ajax Recipes'
tRp4358
I00
S'http://www.web2py.com/book/default/chapter/11'
p4359
tp4360
a(g3901
(S's\x16\x00\x00\x00Components and Plugins'
tRp4361
I00
S'http://www.web2py.com/book/default/chapter/12'
p4362
tp4363
a(g3901
(S's\x12\x00\x00\x00Deployment Recipes'
tRp4364
I00
S'http://www.web2py.com/book/default/chapter/13'
p4365
tp4366
a(g3901
(S's\r\x00\x00\x00Other Recipes'
tRp4367
I00
S'http://www.web2py.com/book/default/chapter/14'
p4368
tp4369
a(g3901
(S's\r\x00\x00\x00Buy this book'
tRp4370
I00
S'http://stores.lulu.com/web2py'
p4371
tp4372
aasbasbasbasbasbasbasbag49
(g65
g51
NtRp4373
(dp4374
g54
(dp4375
sg63
g4015
sg56
(lp4376
g49
(g70
g51
NtRp4377
(dp4378
g54
(dp4379
sg63
g4373
sg56
(lp4380
g49
(g50
g51
NtRp4381
(dp4382
g54
(dp4383
g62
I2
ssg63
g4377
sg56
(lp4384
g49
(g58
g51
NtRp4385
(dp4386
g54
(dp4387
g62
I1
ssg63
Nsg56
(lp4388
g49
(g65
g51
NtRp4389
(dp4390
g54
(dp4391
sg63
g4385
sg56
(lp4392
g49
(g70
g51
NtRp4393
(dp4394
g54
(dp4395
sg63
g4389
sg56
(lp4396
g49
(g50
g51
NtRp4397
(dp4398
g54
(dp4399
g62
I1
ssg63
g4393
sg56
(lp4400
g3901
(S't\t\x00\x00\x00Community'
tRp4401
asbasbasbag49
(g65
g51
NtRp4402
(dp4403
g54
(dp4404
sg63
g4385
sg56
(lp4405
g49
(g70
g51
NtRp4406
(dp4407
g54
(dp4408
sg63
g4402
sg56
(lp4409
g49
(g50
g51
NtRp4410
(dp4411
g54
(dp4412
g62
I1
ssg63
g4406
sg56
(lp4413
I00
asbasbasbag49
(g65
g51
NtRp4414
(dp4415
g54
(dp4416
sg63
g4385
sg56
(lp4417
g49
(g70
g51
NtRp4418
(dp4419
g54
(dp4420
sg63
g4414
sg56
(lp4421
g49
(g50
g51
NtRp4422
(dp4423
g54
(dp4424
g62
I1
ssg63
g4418
sg56
(lp4425
Nasbasbasbag49
(g65
g51
NtRp4426
(dp4427
g54
(dp4428
sg63
g4385
sg56
(lp4429
g49
(g70
g51
NtRp4430
(dp4431
g54
(dp4432
sg63
g4426
sg56
(lp4433
g49
(g50
g51
NtRp4434
(dp4435
g54
(dp4436
g62
I1
ssg63
g4430
sg56
(lp4437
(lp4438
(g3901
(S't\x06\x00\x00\x00Groups'
tRp4439
I00
S'http://www.web2py.com/examples/default/usergroups'
p4440
tp4441
a(g3901
(S't\x07\x00\x00\x00Twitter'
tRp4442
I00
S'http://twitter.com/web2py'
p4443
tp4444
a(g3901
(S's\t\x00\x00\x00Live Chat'
tRp4445
I00
S'http://webchat.freenode.net/?channels=web2py'
p4446
tp4447
aasbasbasbasbasbasbasbag49
(g65
g51
NtRp4448
(dp4449
g54
(dp4450
sg63
g4015
sg56
(lp4451
g49
(g70
g51
NtRp4452
(dp4453
g54
(dp4454
sg63
g4448
sg56
(lp4455
g49
(g50
g51
NtRp4456
(dp4457
g54
(dp4458
g62
I2
ssg63
g4452
sg56
(lp4459
g49
(g58
g51
NtRp4460
(dp4461
g54
(dp4462
g62
I1
ssg63
Nsg56
(lp4463
g49
(g65
g51
NtRp4464
(dp4465
g54
(dp4466
sg63
g4460
sg56
(lp4467
g49
(g70
g51
NtRp4468
(dp4469
g54
(dp4470
sg63
g4464
sg56
(lp4471
g49
(g50
g51
NtRp4472
(dp4473
g54
(dp4474
g62
I1
ssg63
g4468
sg56
(lp4475
g3901
(S't\x07\x00\x00\x00Plugins'
tRp4476
asbasbasbag49
(g65
g51
NtRp4477
(dp4478
g54
(dp4479
sg63
g4460
sg56
(lp4480
g49
(g70
g51
NtRp4481
(dp4482
g54
(dp4483
sg63
g4477
sg56
(lp4484
g49
(g50
g51
NtRp4485
(dp4486
g54
(dp4487
g62
I1
ssg63
g4481
sg56
(lp4488
I00
asbasbasbag49
(g65
g51
NtRp4489
(dp4490
g54
(dp4491
sg63
g4460
sg56
(lp4492
g49
(g70
g51
NtRp4493
(dp4494
g54
(dp4495
sg63
g4489
sg56
(lp4496
g49
(g50
g51
NtRp4497
(dp4498
g54
(dp4499
g62
I1
ssg63
g4493
sg56
(lp4500
Nasbasbasbag49
(g65
g51
NtRp4501
(dp4502
g54
(dp4503
sg63
g4460
sg56
(lp4504
g49
(g70
g51
NtRp4505
(dp4506
g54
(dp4507
sg63
g4501
sg56
(lp4508
g49
(g50
g51
NtRp4509
(dp4510
g54
(dp4511
g62
I1
ssg63
g4505
sg56
(lp4512
(lp4513
(S'plugin_wiki'
p4514
I00
S'http://web2py.com/examples/default/download'
p4515
tp4516
a(g3901
(S's\r\x00\x00\x00Other Plugins'
tRp4517
I00
g4247
tp4518
a(g3901
(S's\x0e\x00\x00\x00Layout Plugins'
tRp4519
I00
g4250
tp4520
aasbasbasbasbasbasbasbasbasbasbasbasbasbasbasbasbasbasbasbag49
(g65
g51
NtRp4521
(dp4522
g54
(dp4523
sg63
g3377
sg56
(lp4524
g49
(g70
g51
NtRp4525
(dp4526
g54
(dp4527
g74
g75
ssg63
g4521
sg56
(lp4528
S'meta'
p4529
asbag49
(g70
g51
NtRp4530
(dp4531
g54
(dp4532
g81
g82
ssg63
g4521
sg56
(lp4533
S':'
asbag49
(g70
g51
NtRp4534
(dp4535
g54
(dp4536
sg63
g4521
sg56
(lp4537
g49
(g50
g51
NtRp4538
(dp4539
g54
(dp4540
g62
I5
ssg63
g4534
sg56
(lp4541
g49
(g58
g51
NtRp4542
(dp4543
g54
(dp4544
g62
I4
ssg63
Nsg56
(lp4545
g49
(g65
g51
NtRp4546
(dp4547
g54
(dp4548
sg63
g4542
sg56
(lp4549
g49
(g70
g51
NtRp4550
(dp4551
g54
(dp4552
g74
g75
ssg63
g4546
sg56
(lp4553
S'author'
p4554
asbag49
(g70
g51
NtRp4555
(dp4556
g54
(dp4557
g81
g82
ssg63
g4546
sg56
(lp4558
S':'
asbag49
(g70
g51
NtRp4559
(dp4560
g54
(dp4561
sg63
g4546
sg56
(lp4562
g49
(g50
g51
NtRp4563
(dp4564
g54
(dp4565
g62
I4
ssg63
g4559
sg56
(lp4566
S'Your Name <you@example.com>'
p4567
asbasbasbag49
(g65
g51
NtRp4568
(dp4569
g54
(dp4570
sg63
g4542
sg56
(lp4571
g49
(g70
g51
NtRp4572
(dp4573
g54
(dp4574
g74
g75
ssg63
g4568
sg56
(lp4575
S'copyright'
p4576
asbag49
(g70
g51
NtRp4577
(dp4578
g54
(dp4579
g81
g82
ssg63
g4568
sg56
(lp4580
S':'
asbag49
(g70
g51
NtRp4581
(dp4582
g54
(dp4583
sg63
g4568
sg56
(lp4584
g49
(g50
g51
NtRp4585
(dp4586
g54
(dp4587
g62
I4
ssg63
g4581
sg56
(lp4588
S'Copyright 2011'
p4589
asbasbasbag49
(g65
g51
NtRp4590
(dp4591
g54
(dp4592
sg63
g4542
sg56
(lp4593
g49
(g70
g51
NtRp4594
(dp4595
g54
(dp4596
g74
g75
ssg63
g4590
sg56
(lp4597
S'description'
p4598
asbag49
(g70
g51
NtRp4599
(dp4600
g54
(dp4601
g81
g82
ssg63
g4590
sg56
(lp4602
S':'
asbag49
(g70
g51
NtRp4603
(dp4604
g54
(dp4605
sg63
g4590
sg56
(lp4606
g49
(g50
g51
NtRp4607
(dp4608
g54
(dp4609
g62
I4
ssg63
g4603
sg56
(lp4610
S'a cool new app'
p4611
asbasbasbag49
(g65
g51
NtRp4612
(dp4613
g54
(dp4614
sg63
g4542
sg56
(lp4615
g49
(g70
g51
NtRp4616
(dp4617
g54
(dp4618
g74
g75
ssg63
g4612
sg56
(lp4619
S'generator'
p4620
asbag49
(g70
g51
NtRp4621
(dp4622
g54
(dp4623
g81
g82
ssg63
g4612
sg56
(lp4624
S':'
asbag49
(g70
g51
NtRp4625
(dp4626
g54
(dp4627
sg63
g4612
sg56
(lp4628
g49
(g50
g51
NtRp4629
(dp4630
g54
(dp4631
g62
I4
ssg63
g4625
sg56
(lp4632
S'Web2py Web Framework'
p4633
asbasbasbag49
(g65
g51
NtRp4634
(dp4635
g54
(dp4636
sg63
g4542
sg56
(lp4637
g49
(g70
g51
NtRp4638
(dp4639
g54
(dp4640
g74
g75
ssg63
g4634
sg56
(lp4641
S'keywords'
p4642
asbag49
(g70
g51
NtRp4643
(dp4644
g54
(dp4645
g81
g82
ssg63
g4634
sg56
(lp4646
S':'
asbag49
(g70
g51
NtRp4647
(dp4648
g54
(dp4649
sg63
g4634
sg56
(lp4650
g49
(g50
g51
NtRp4651
(dp4652
g54
(dp4653
g62
I4
ssg63
g4647
sg56
(lp4654
S'web2py, python, framework'
p4655
asbasbasbasbasbasbasbag49
(g65
g51
NtRp4656
(dp4657
g54
(dp4658
sg63
g3377
sg56
(lp4659
g49
(g70
g51
NtRp4660
(dp4661
g54
(dp4662
g74
g75
ssg63
g4656
sg56
(lp4663
S'postprocessing'
p4664
asbag49
(g70
g51
NtRp4665
(dp4666
g54
(dp4667
g81
g82
ssg63
g4656
sg56
(lp4668
S':'
asbag49
(g70
g51
NtRp4669
(dp4670
g54
(dp4671
sg63
g4656
sg56
(lp4672
g49
(g50
g51
NtRp4673
(dp4674
g54
(dp4675
g62
I5
ssg63
g4669
sg56
(lp4676
g49
(g58
g51
NtRp4677
(dp4678
g54
(dp4679
g62
I4
ssg63
Nsg56
(lp4680
sbasbasbasbag49
(g65
g51
NtRp4681
(dp4682
g54
(dp4683
sg63
g3377
sg56
(lp4684
g49
(g70
g51
NtRp4685
(dp4686
g54
(dp4687
g74
g75
ssg63
g4681
sg56
(lp4688
S'session_file'
p4689
asbag49
(g70
g51
NtRp4690
(dp4691
g54
(dp4692
g81
g82
ssg63
g4681
sg56
(lp4693
S':'
asbag49
(g70
g51
NtRp4694
(dp4695
g54
(dp4696
sg63
g4681
sg56
(lp4697
g49
(g50
g51
NtRp4698
(dp4699
g54
(dp4700
g62
I5
ssg63
g4694
sg56
(lp4701
S"<open file 'C:\\web2py\\applications\\unioeste_code\\sessions\\127.0.0.1-87142505-8d38-426f-afb9-e3f36884a384', mode 'rb+' at 0x06441EC0>"
p4702
asbasbasbag49
(g65
g51
NtRp4703
(dp4704
g54
(dp4705
sg63
g3377
sg56
(lp4706
g49
(g70
g51
NtRp4707
(dp4708
g54
(dp4709
g74
g75
ssg63
g4703
sg56
(lp4710
S'session_filename'
p4711
asbag49
(g70
g51
NtRp4712
(dp4713
g54
(dp4714
g81
g82
ssg63
g4703
sg56
(lp4715
S':'
asbag49
(g70
g51
NtRp4716
(dp4717
g54
(dp4718
sg63
g4703
sg56
(lp4719
g49
(g50
g51
NtRp4720
(dp4721
g54
(dp4722
g62
I5
ssg63
g4716
sg56
(lp4723
S'C:\\web2py\\applications\\unioeste_code\\sessions\\127.0.0.1-87142505-8d38-426f-afb9-e3f36884a384'
p4724
asbasbasbag49
(g65
g51
NtRp4725
(dp4726
g54
(dp4727
sg63
g3377
sg56
(lp4728
g49
(g70
g51
NtRp4729
(dp4730
g54
(dp4731
g74
g75
ssg63
g4725
sg56
(lp4732
S'session_id'
p4733
asbag49
(g70
g51
NtRp4734
(dp4735
g54
(dp4736
g81
g82
ssg63
g4725
sg56
(lp4737
S':'
asbag49
(g70
g51
NtRp4738
(dp4739
g54
(dp4740
sg63
g4725
sg56
(lp4741
g49
(g50
g51
NtRp4742
(dp4743
g54
(dp4744
g62
I5
ssg63
g4738
sg56
(lp4745
S'127.0.0.1-87142505-8d38-426f-afb9-e3f36884a384'
p4746
asbasbasbag49
(g65
g51
NtRp4747
(dp4748
g54
(dp4749
sg63
g3377
sg56
(lp4750
g49
(g70
g51
NtRp4751
(dp4752
g54
(dp4753
g74
g75
ssg63
g4747
sg56
(lp4754
S'session_id_name'
p4755
asbag49
(g70
g51
NtRp4756
(dp4757
g54
(dp4758
g81
g82
ssg63
g4747
sg56
(lp4759
S':'
asbag49
(g70
g51
NtRp4760
(dp4761
g54
(dp4762
sg63
g4747
sg56
(lp4763
g49
(g50
g51
NtRp4764
(dp4765
g54
(dp4766
g62
I5
ssg63
g4760
sg56
(lp4767
g3434
asbasbasbag49
(g65
g51
NtRp4768
(dp4769
g54
(dp4770
sg63
g3377
sg56
(lp4771
g49
(g70
g51
NtRp4772
(dp4773
g54
(dp4774
g74
g75
ssg63
g4768
sg56
(lp4775
S'session_locked'
p4776
asbag49
(g70
g51
NtRp4777
(dp4778
g54
(dp4779
g81
g82
ssg63
g4768
sg56
(lp4780
S':'
asbag49
(g70
g51
NtRp4781
(dp4782
g54
(dp4783
sg63
g4768
sg56
(lp4784
g49
(g50
g51
NtRp4785
(dp4786
g54
(dp4787
g62
I5
ssg63
g4781
sg56
(lp4788
g1630
asbasbasbag49
(g65
g51
NtRp4789
(dp4790
g54
(dp4791
sg63
g3377
sg56
(lp4792
g49
(g70
g51
NtRp4793
(dp4794
g54
(dp4795
g74
g75
ssg63
g4789
sg56
(lp4796
S'session_new'
p4797
asbag49
(g70
g51
NtRp4798
(dp4799
g54
(dp4800
g81
g82
ssg63
g4789
sg56
(lp4801
S':'
asbag49
(g70
g51
NtRp4802
(dp4803
g54
(dp4804
sg63
g4789
sg56
(lp4805
g49
(g50
g51
NtRp4806
(dp4807
g54
(dp4808
g62
I5
ssg63
g4802
sg56
(lp4809
g92
asbasbasbag49
(g65
g51
NtRp4810
(dp4811
g54
(dp4812
sg63
g3377
sg56
(lp4813
g49
(g70
g51
NtRp4814
(dp4815
g54
(dp4816
g74
g75
ssg63
g4810
sg56
(lp4817
S'status'
p4818
asbag49
(g70
g51
NtRp4819
(dp4820
g54
(dp4821
g81
g82
ssg63
g4810
sg56
(lp4822
S':'
asbag49
(g70
g51
NtRp4823
(dp4824
g54
(dp4825
sg63
g4810
sg56
(lp4826
g49
(g50
g51
NtRp4827
(dp4828
g54
(dp4829
g62
I5
ssg63
g4823
sg56
(lp4830
S'200'
p4831
asbasbasbag49
(g65
g51
NtRp4832
(dp4833
g54
(dp4834
sg63
g3377
sg56
(lp4835
g49
(g70
g51
NtRp4836
(dp4837
g54
(dp4838
g74
g75
ssg63
g4832
sg56
(lp4839
S'subtitle'
p4840
asbag49
(g70
g51
NtRp4841
(dp4842
g54
(dp4843
g81
g82
ssg63
g4832
sg56
(lp4844
S':'
asbag49
(g70
g51
NtRp4845
(dp4846
g54
(dp4847
sg63
g4832
sg56
(lp4848
g49
(g50
g51
NtRp4849
(dp4850
g54
(dp4851
g62
I5
ssg63
g4845
sg56
(lp4852
g3901
(S's\x0f\x00\x00\x00Personalize-me!'
tRp4853
asbasbasbag49
(g65
g51
NtRp4854
(dp4855
g54
(dp4856
sg63
g3377
sg56
(lp4857
g49
(g70
g51
NtRp4858
(dp4859
g54
(dp4860
g74
g75
ssg63
g4854
sg56
(lp4861
S'title'
p4862
asbag49
(g70
g51
NtRp4863
(dp4864
g54
(dp4865
g81
g82
ssg63
g4854
sg56
(lp4866
S':'
asbag49
(g70
g51
NtRp4867
(dp4868
g54
(dp4869
sg63
g4854
sg56
(lp4870
g49
(g50
g51
NtRp4871
(dp4872
g54
(dp4873
g62
I5
ssg63
g4867
sg56
(lp4874
S'Unioeste Code'
p4875
asbasbasbag49
(g65
g51
NtRp4876
(dp4877
g54
(dp4878
sg63
g3377
sg56
(lp4879
g49
(g70
g51
NtRp4880
(dp4881
g54
(dp4882
g74
g75
ssg63
g4876
sg56
(lp4883
g2294
asbag49
(g70
g51
NtRp4884
(dp4885
g54
(dp4886
g81
g82
ssg63
g4876
sg56
(lp4887
S':'
asbag49
(g70
g51
NtRp4888
(dp4889
g54
(dp4890
sg63
g4876
sg56
(lp4891
g49
(g50
g51
NtRp4892
(dp4893
g54
(dp4894
g62
I5
ssg63
g4888
sg56
(lp4895
g2307
asbasbasbag49
(g65
g51
NtRp4896
(dp4897
g54
(dp4898
sg63
g3377
sg56
(lp4899
g49
(g70
g51
NtRp4900
(dp4901
g54
(dp4902
g74
g75
ssg63
g4896
sg56
(lp4903
S'view'
p4904
asbag49
(g70
g51
NtRp4905
(dp4906
g54
(dp4907
g81
g82
ssg63
g4896
sg56
(lp4908
S':'
asbag49
(g70
g51
NtRp4909
(dp4910
g54
(dp4911
sg63
g4896
sg56
(lp4912
g49
(g50
g51
NtRp4913
(dp4914
g54
(dp4915
g62
I5
ssg63
g4909
sg56
(lp4916
S'default/manageCode.html'
p4917
asbasbasbasbasbsS'locals'
p4918
(dp4919
S'Service'
p4920
S"<class 'gluon.tools.Service'>"
p4921
sS'show'
p4922
S'<function show at 0x05F5FE30>'
p4923
sS'OBJECT'
p4924
S"<class 'gluon.html.OBJECT'>"
p4925
sS'SQLDB'
p4926
S"<class 'gluon.dal.DAL'>"
p4927
sg3003
S"<Storage {'last_query': 'db.code.id>0', '_formke...reate]': '0a3440ec-d121-4c6f-9806-ed158236d9b3'}>"
p4928
sS'LINK'
p4929
S"<class 'gluon.html.LINK'>"
p4930
sS'BR'
p4931
S"<class 'gluon.html.BR'>"
p4932
sS'local_import'
p4933
S'<function <lambda> at 0x06255730>'
p4934
sS'OPTGROUP'
p4935
S"<class 'gluon.html.OPTGROUP'>"
p4936
sS'PRE'
p4937
S"<class 'gluon.html.PRE'>"
p4938
sS'IS_INT_IN_RANGE'
p4939
S"<class 'gluon.validators.IS_INT_IN_RANGE'>"
p4940
sS'IS_LOWER'
p4941
S"<class 'gluon.validators.IS_LOWER'>"
p4942
sS'IS_STRONG'
p4943
S"<class 'gluon.validators.IS_STRONG'>"
p4944
sS'Recaptcha'
p4945
S"<class 'gluon.tools.Recaptcha'>"
p4946
sS'cache'
p4947
S'<gluon.cache.Cache object at 0x06A733D0>'
p4948
sS'IS_IN_DB'
p4949
S"<class 'gluon.validators.IS_IN_DB'>"
p4950
sS'TAG'
p4951
S'<gluon.html.__TAG__ object at 0x0260BE30>'
p4952
sS'SQLField'
p4953
S"<class 'gluon.dal.Field'>"
p4954
sS'BODY'
p4955
S"<class 'gluon.html.BODY'>"
p4956
sS'IS_DATE_IN_RANGE'
p4957
S"<class 'gluon.validators.IS_DATE_IN_RANGE'>"
p4958
sS'IFRAME'
p4959
S"<class 'gluon.html.IFRAME'>"
p4960
sS'URL'
p4961
S'<function URL at 0x0266D8F0>'
p4962
sS'__file__'
p4963
S"r'C:\\web2py\\applications\\unioeste_code\\controllers/default.py'"
p4964
sS'db'
p4965
S"<DAL {'comment': <Table {'body': <gluon.dal.Fiel...object at 0x06D3DB90>, '_singular': 'Problem'}>}>"
p4966
sS'auth'
p4967
S'<gluon.tools.Auth object at 0x06A73070>'
p4968
sS'P'
S"<class 'gluon.html.P'>"
p4969
sS'TFOOT'
p4970
S"<class 'gluon.html.TFOOT'>"
p4971
sS'XHTML'
p4972
S"<class 'gluon.html.XHTML'>"
p4973
sS'ON'
p4974
g1630
sS'OL'
p4975
S"<class 'gluon.html.OL'>"
p4976
sS'TEXTAREA'
p4977
S"<class 'gluon.html.TEXTAREA'>"
p4978
sS'MENU'
p4979
S"<class 'gluon.html.MENU'>"
p4980
sS'EM'
p4981
S"<class 'gluon.html.EM'>"
p4982
sS'CODE'
p4983
S"<class 'gluon.html.CODE'>"
p4984
sS'HTTP'
p4985
S"<class 'gluon.http.HTTP'>"
p4986
sS'HR'
p4987
S"<class 'gluon.html.HR'>"
p4988
sS'IS_DATETIME'
p4989
S"<class 'gluon.validators.IS_DATETIME'>"
p4990
sS'STYLE'
p4991
S"<class 'gluon.html.STYLE'>"
p4992
sS'LABEL'
p4993
S"<class 'gluon.html.LABEL'>"
p4994
sS'META'
p4995
S"<class 'gluon.html.META'>"
p4996
sS'SELECT'
p4997
S"<class 'gluon.html.SELECT'>"
p4998
sS'index'
p4999
S'<function index at 0x05F5FE70>'
p5000
sS'CENTER'
p5001
S"<class 'gluon.html.CENTER'>"
p5002
sS'prettydate'
p5003
S'<function prettydate at 0x031EEDF0>'
p5004
sS'Crud'
p5005
S"<class 'gluon.tools.Crud'>"
p5006
sS'Auth'
p5007
S"<class 'gluon.tools.Auth'>"
p5008
sS'__builtins__'
p5009
S"{'ArithmeticError': <type 'exceptions.ArithmeticError'>, 'AssertionError': <type 'exceptions.AssertionError'>, 'AttributeError': <type 'exceptions.AttributeError'>, 'BaseException': <type 'exceptions.BaseException'>, 'DeprecationWarning': <type 'exceptions.DeprecationWarning'>, 'EOFError': <type 'exceptions.EOFError'>, 'Ellipsis': Ellipsis, 'EnvironmentError': <type 'exceptions.EnvironmentError'>, 'Exception': <type 'exceptions.Exception'>, 'False': False, ...}"
p5010
sS'HTML'
p5011
S"<class 'gluon.html.HTML'>"
p5012
sS'SQLFORM'
p5013
S"<class 'gluon.sqlhtml.SQLFORM'>"
p5014
sS'LOAD'
p5015
S'<function LOAD at 0x028E54B0>'
p5016
sS'redirect'
p5017
S'<function redirect at 0x024E8F70>'
p5018
sS'FIELDSET'
p5019
S"<class 'gluon.html.FIELDSET'>"
p5020
sS'IS_EQUAL_TO'
p5021
S"<class 'gluon.validators.IS_EQUAL_TO'>"
p5022
sS'embed64'
p5023
S'<function embed64 at 0x02671430>'
p5024
sS'IS_LIST_OF'
p5025
S"<class 'gluon.validators.IS_LIST_OF'>"
p5026
sS'INPUT'
p5027
S"<class 'gluon.html.INPUT'>"
p5028
sS'EMBED'
p5029
S"<class 'gluon.html.EMBED'>"
p5030
sS'_'
S'<function _ at 0x05F5F2B0>'
p5031
sS'FORM'
p5032
S"<class 'gluon.html.FORM'>"
p5033
sS'H2'
p5034
S"<class 'gluon.html.H2'>"
p5035
sS'H3'
p5036
S"<class 'gluon.html.H3'>"
p5037
sS'BUTTON'
p5038
S"<class 'gluon.html.BUTTON'>"
p5039
sS'H1'
p5040
S"<class 'gluon.html.H1'>"
p5041
sS'H6'
p5042
S"<class 'gluon.html.H6'>"
p5043
sS'H4'
p5044
S"<class 'gluon.html.H4'>"
p5045
sS'H5'
p5046
S"<class 'gluon.html.H5'>"
p5047
sS'UL'
p5048
S"<class 'gluon.html.UL'>"
p5049
sS'IS_UPPER'
p5050
S"<class 'gluon.validators.IS_UPPER'>"
p5051
sS'xmlescape'
p5052
S'<function xmlescape at 0x0266D870>'
p5053
sS'IS_TIME'
p5054
S"<class 'gluon.validators.IS_TIME'>"
p5055
sS'OPTION'
p5056
S"<class 'gluon.html.OPTION'>"
p5057
sS'TITLE'
p5058
S"<class 'gluon.html.TITLE'>"
p5059
sS'CRYPT'
p5060
S"<class 'gluon.validators.CRYPT'>"
p5061
sS'IS_EMPTY_OR'
p5062
S"<class 'gluon.validators.IS_EMPTY_OR'>"
p5063
sS'MARKMIN'
p5064
S"<class 'gluon.html.MARKMIN'>"
p5065
sS'__name__'
p5066
S"'__restricted__'"
p5067
sS'COL'
p5068
S"<class 'gluon.html.COL'>"
p5069
sS'SCRIPT'
p5070
S"<class 'gluon.html.SCRIPT'>"
p5071
sS'geocode'
p5072
S'<function geocode at 0x031EE730>'
p5073
sS'TABLE'
p5074
S"<class 'gluon.html.TABLE'>"
p5075
sS'IS_IPV4'
p5076
S"<class 'gluon.validators.IS_IPV4'>"
p5077
sS'IS_LENGTH'
p5078
S"<class 'gluon.validators.IS_LENGTH'>"
p5079
sS'XML'
p5080
S"<class 'gluon.html.XML'>"
p5081
sS'B'
S"<class 'gluon.html.B'>"
p5082
sS'IMG'
p5083
S"<class 'gluon.html.IMG'>"
p5084
sS'SQLTABLE'
p5085
S"<class 'gluon.sqlhtml.SQLTABLE'>"
p5086
sS'IS_MATCH'
p5087
S"<class 'gluon.validators.IS_MATCH'>"
p5088
sS'IS_ALPHANUMERIC'
p5089
S"<class 'gluon.validators.IS_ALPHANUMERIC'>"
p5090
sS'SPAN'
p5091
S"<class 'gluon.html.SPAN'>"
p5092
sS'IS_SLUG'
p5093
S"<class 'gluon.validators.IS_SLUG'>"
p5094
sS'CLEANUP'
p5095
S"<class 'gluon.validators.CLEANUP'>"
p5096
sS'fetch'
p5097
S'<function fetch at 0x031E95B0>'
p5098
sS'IS_DATE'
p5099
S"<class 'gluon.validators.IS_DATE'>"
p5100
sS'IS_EMAIL'
p5101
S"<class 'gluon.validators.IS_EMAIL'>"
p5102
sS'IS_NOT_EMPTY'
p5103
S"<class 'gluon.validators.IS_NOT_EMPTY'>"
p5104
sS'IS_FLOAT_IN_RANGE'
p5105
S"<class 'gluon.validators.IS_FLOAT_IN_RANGE'>"
p5106
sS'BEAUTIFY'
p5107
S"<class 'gluon.html.BEAUTIFY'>"
p5108
sS'TBODY'
p5109
S"<class 'gluon.html.TBODY'>"
p5110
sS'CAT'
p5111
S"<class 'gluon.html.CAT'>"
p5112
sS'Field'
p5113
S"<class 'gluon.dal.Field'>"
p5114
sS'Mail'
p5115
S"<class 'gluon.tools.Mail'>"
p5116
sS'DIV'
p5117
S"<class 'gluon.html.DIV'>"
p5118
sS'LEGEND'
p5119
S"<class 'gluon.html.LEGEND'>"
p5120
sS'COLGROUP'
p5121
S"<class 'gluon.html.COLGROUP'>"
p5122
sS'DAL'
p5123
S"<class 'gluon.dal.DAL'>"
p5124
sS'TT'
p5125
S"<class 'gluon.html.TT'>"
p5126
sS'TR'
p5127
S"<class 'gluon.html.TR'>"
p5128
sS'LI'
p5129
S"<class 'gluon.html.LI'>"
p5130
sS'TH'
p5131
S"<class 'gluon.html.TH'>"
p5132
sS'TD'
p5133
S"<class 'gluon.html.TD'>"
p5134
sS'PluginManager'
p5135
S"<class 'gluon.tools.PluginManager'>"
p5136
sS'IS_URL'
p5137
S"<class 'gluon.validators.IS_URL'>"
p5138
sS'A'
S"<class 'gluon.html.A'>"
p5139
sS'HEAD'
p5140
S"<class 'gluon.html.HEAD'>"
p5141
sS'IS_DATETIME_IN_RANGE'
p5142
S"<class 'gluon.validators.IS_DATETIME_IN_RANGE'>"
p5143
sS'IS_IMAGE'
p5144
S"<class 'gluon.validators.IS_IMAGE'>"
p5145
sS'I'
S"<class 'gluon.html.I'>"
p5146
sS'crud'
p5147
S'<gluon.tools.Crud object at 0x06D3DFF0>'
p5148
sS'problems'
p5149
S'<function problems at 0x05F5FCF0>'
p5150
sS'IS_NOT_IN_DB'
p5151
S"<class 'gluon.validators.IS_NOT_IN_DB'>"
p5152
sg3372
S"<Storage {'body': <cStringIO.StringO object at 0... 0x062558B0>, 'view': 'default/manageCode.html'}>"
p5153
sS'THEAD'
p5154
S"<class 'gluon.html.THEAD'>"
p5155
sS'IS_NULL_OR'
p5156
S"<class 'gluon.validators.IS_EMPTY_OR'>"
p5157
sg48
S"<Storage {'body': <cStringIO.StringO object at 0..._vars': <Storage {}>, 'post_vars': <Storage {}>}>"
p5158
sS'IS_EXPR'
p5159
S"<class 'gluon.validators.IS_EXPR'>"
p5160
sS'IS_IN_SET'
p5161
S"<class 'gluon.validators.IS_IN_SET'>"
p5162
sS'IS_UPLOAD_FILENAME'
p5163
S"<class 'gluon.validators.IS_UPLOAD_FILENAME'>"
p5164
sS'IS_DECIMAL_IN_RANGE'
p5165
S"<class 'gluon.validators.IS_DECIMAL_IN_RANGE'>"
p5166
sS'T'
S'<gluon.languages.translator object at 0x06A738D0>'
p5167
sssS'traceback'
p5168
S'Traceback (most recent call last):\n  File "gluon/restricted.py", line 205, in restricted\n  File "C:\\web2py\\applications\\unioeste_code\\controllers/default.py", line 29, in <module>\nNameError: name \'requires_membership\' is not defined\n'
p5169
s.